LX51 LINKER/LOCATER V4.66.87.0                                                          05/29/2018  21:11:03  PAGE 1


LX51 LINKER/LOCATER V4.66.87.0, INVOKED BY:
C:\KEIL\C51\BIN\LX51.EXE sm.obj, main.obj, STARTUP.obj, com.obj, rtc.obj, i2c.obj, key.obj, task.obj, led.obj, alarm.obj
>> , power.obj, misc.obj, mod_common.obj, beeper.obj, clock.obj, timer.obj, int_hub.obj, fuse.obj, hg.obj, lt_timer.obj,
>>  serial_hub.obj, thermo.obj, rom.obj, delay_task.obj, shell.obj, debug.obj, mpu.obj, sm_clock_timer.obj, sm_clock_cou
>> nter.obj, sm_clock_display.obj, sm_clock_powersave.obj, sm_clock_mod_alarm.obj, sm_clock_alarm.obj, sm_clock_mod_time
>> .obj, sm_power_pack_display.obj, sm_power_pack_powersave.obj, sm_fuse_test.obj, sm_fuse_param.obj, sm_fuse_timer.obj,
>>  sm_fuse_detonate.obj, sm_fuse_powersave.obj, sm_global_flag_mod.obj, cmd_help.obj, cmd_serial.obj, cmd_int.obj, cmd_
>> i2c.obj, cmd_dbg.obj, cmd_reboot.obj, cmd_task.obj, cmd_sm.obj, cmd_beeper.obj, cmd_thermo.obj, cmd_mpu.obj TO Clock 
>> REGFILE (.\Clock.ORC) CLASSES (XDATA (X:0X0-X:0X3FF), HDATA (X:0X0-X:0X3FF), ECODE (C:0X0-C:0XFFFF), HCONST (C:0X0-C:
>> 0XFFFF))




PROGRAM RECURSIONS REMOVED FROM CALL TREE
=========================================
+--> ?CO?TASK
|  | _TIME_PROC/SM
<--+ _RUN_STATE_MACHINE/SM


+--> ?CO?SHELL
|  | _CMD_HELP/CMD_HELP
|  | SHELL_DUMP_CMD/SHELL
<--+ SHELL


+--> ?CO?SHELL
|  | _CMD_HELP/CMD_HELP
<--+ SHELL_DUMP_CMD/SHELL


+--> ?CO?SHELL
<--+ _CMD_HELP/CMD_HELP



CPU MODE:     8051 MODE
MEMORY MODEL: LARGE WITH FLOATING POINT ARITHMETIC


INPUT MODULES INCLUDED:
  sm.obj (SM)
         COMMENT TYPE 0: C51 V9.57.0.0
  main.obj (MAIN)
         COMMENT TYPE 0: C51 V9.57.0.0
  STARTUP.obj (?C_STARTUP)
         COMMENT TYPE 0: AX51 V3.15.3.0
  com.obj (COM)
         COMMENT TYPE 0: C51 V9.57.0.0
  rtc.obj (RTC)
         COMMENT TYPE 0: C51 V9.57.0.0
  i2c.obj (I2C)
         COMMENT TYPE 0: C51 V9.57.0.0
  key.obj (KEY)
         COMMENT TYPE 0: C51 V9.57.0.0
  task.obj (TASK)
         COMMENT TYPE 0: C51 V9.57.0.0
  led.obj (LED)
         COMMENT TYPE 0: C51 V9.57.0.0
  alarm.obj (ALARM)
         COMMENT TYPE 0: C51 V9.57.0.0
  power.obj (POWER)
         COMMENT TYPE 0: C51 V9.57.0.0
  misc.obj (MISC)
         COMMENT TYPE 0: C51 V9.57.0.0
LX51 LINKER/LOCATER V4.66.87.0                                                        05/29/2018  21:11:03  PAGE 2


  mod_common.obj (MOD_COMMON)
         COMMENT TYPE 0: C51 V9.57.0.0
  beeper.obj (BEEPER)
         COMMENT TYPE 0: C51 V9.57.0.0
  clock.obj (CLOCK)
         COMMENT TYPE 0: C51 V9.57.0.0
  timer.obj (TIMER)
         COMMENT TYPE 0: C51 V9.57.0.0
  int_hub.obj (INT_HUB)
         COMMENT TYPE 0: C51 V9.57.0.0
  fuse.obj (FUSE)
         COMMENT TYPE 0: C51 V9.57.0.0
  hg.obj (HG)
         COMMENT TYPE 0: C51 V9.57.0.0
  lt_timer.obj (LT_TIMER)
         COMMENT TYPE 0: C51 V9.57.0.0
  serial_hub.obj (SERIAL_HUB)
         COMMENT TYPE 0: C51 V9.57.0.0
  thermo.obj (THERMO)
         COMMENT TYPE 0: C51 V9.57.0.0
  rom.obj (ROM)
         COMMENT TYPE 0: C51 V9.57.0.0
  delay_task.obj (DELAY_TASK)
         COMMENT TYPE 0: C51 V9.57.0.0
  shell.obj (SHELL)
         COMMENT TYPE 0: C51 V9.57.0.0
  debug.obj (DEBUG)
         COMMENT TYPE 0: C51 V9.57.0.0
  mpu.obj (MPU)
         COMMENT TYPE 0: C51 V9.57.0.0
  sm_clock_timer.obj (SM_CLOCK_TIMER)
         COMMENT TYPE 0: C51 V9.57.0.0
  sm_clock_counter.obj (SM_CLOCK_COUNTER)
         COMMENT TYPE 0: C51 V9.57.0.0
  sm_clock_display.obj (SM_CLOCK_DISPLAY)
         COMMENT TYPE 0: C51 V9.57.0.0
  sm_clock_powersave.obj (SM_CLOCK_POWERSAVE)
         COMMENT TYPE 0: C51 V9.57.0.0
  sm_clock_mod_alarm.obj (SM_CLOCK_MOD_ALARM)
         COMMENT TYPE 0: C51 V9.57.0.0
  sm_clock_alarm.obj (SM_CLOCK_ALARM)
         COMMENT TYPE 0: C51 V9.57.0.0
  sm_clock_mod_time.obj (SM_CLOCK_MOD_TIME)
         COMMENT TYPE 0: C51 V9.57.0.0
  sm_power_pack_display.obj (SM_POWER_PACK_DISPLAY)
         COMMENT TYPE 0: C51 V9.57.0.0
  sm_power_pack_powersave.obj (SM_POWER_PACK_POWERSAVE)
         COMMENT TYPE 0: C51 V9.57.0.0
  sm_fuse_test.obj (SM_FUSE_TEST)
         COMMENT TYPE 0: C51 V9.57.0.0
  sm_fuse_param.obj (SM_FUSE_PARAM)
         COMMENT TYPE 0: C51 V9.57.0.0
  sm_fuse_timer.obj (SM_FUSE_TIMER)
         COMMENT TYPE 0: C51 V9.57.0.0
  sm_fuse_detonate.obj (SM_FUSE_DETONATE)
         COMMENT TYPE 0: C51 V9.57.0.0
  sm_fuse_powersave.obj (SM_FUSE_POWERSAVE)
         COMMENT TYPE 0: C51 V9.57.0.0
  sm_global_flag_mod.obj (SM_GLOBAL_FLAG_MOD)
         COMMENT TYPE 0: C51 V9.57.0.0
  cmd_help.obj (CMD_HELP)
         COMMENT TYPE 0: C51 V9.57.0.0
  cmd_serial.obj (CMD_SERIAL)
         COMMENT TYPE 0: C51 V9.57.0.0
  cmd_int.obj (CMD_INT)
LX51 LINKER/LOCATER V4.66.87.0                                                        05/29/2018  21:11:03  PAGE 3


         COMMENT TYPE 0: C51 V9.57.0.0
  cmd_i2c.obj (CMD_I2C)
         COMMENT TYPE 0: C51 V9.57.0.0
  cmd_dbg.obj (CMD_DBG)
         COMMENT TYPE 0: C51 V9.57.0.0
  cmd_reboot.obj (CMD_REBOOT)
         COMMENT TYPE 0: C51 V9.57.0.0
  cmd_task.obj (CMD_TASK)
         COMMENT TYPE 0: C51 V9.57.0.0
  cmd_sm.obj (CMD_SM)
         COMMENT TYPE 0: C51 V9.57.0.0
  cmd_beeper.obj (CMD_BEEPER)
         COMMENT TYPE 0: C51 V9.57.0.0
  cmd_thermo.obj (CMD_THERMO)
         COMMENT TYPE 0: C51 V9.57.0.0
  cmd_mpu.obj (CMD_MPU)
         COMMENT TYPE 0: C51 V9.57.0.0
  C:\KEIL\C51\LIB\C51FPL.LIB (?C?FPMUL)
         COMMENT TYPE 1: A51 / ASM51 Assembler
  C:\KEIL\C51\LIB\C51FPL.LIB (?C?FPDIV)
         COMMENT TYPE 1: A51 / ASM51 Assembler
  C:\KEIL\C51\LIB\C51FPL.LIB (?C?FCAST)
         COMMENT TYPE 1: A51 / ASM51 Assembler
  C:\KEIL\C51\LIB\C51FPL.LIB (?C?CASTF)
         COMMENT TYPE 1: A51 / ASM51 Assembler
  C:\KEIL\C51\LIB\C51FPL.LIB (PRINTF)
         COMMENT TYPE 1: A51 / ASM51 Assembler
  C:\KEIL\C51\LIB\C51FPL.LIB (VPRINTF)
         COMMENT TYPE 1: A51 / ASM51 Assembler
  C:\KEIL\C51\LIB\C51FPL.LIB (?C?FPGETOPN)
         COMMENT TYPE 1: A51 / ASM51 Assembler
  C:\KEIL\C51\LIB\C51FPL.LIB (?C?FPROUND)
         COMMENT TYPE 1: A51 / ASM51 Assembler
  C:\KEIL\C51\LIB\C51FPL.LIB (?C?FPCONVERT)
         COMMENT TYPE 1: A51 / ASM51 Assembler
  C:\KEIL\C51\LIB\C51FPL.LIB (?C?FPADD)
         COMMENT TYPE 1: A51 / ASM51 Assembler
  C:\KEIL\C51\LIB\C51FPL.LIB (?C?FTNPWR)
         COMMENT TYPE 1: A51 / ASM51 Assembler
  C:\KEIL\C51\LIB\C51L.LIB (?C?SCDIV)
         COMMENT TYPE 1: A51 / ASM51 Assembler
  C:\KEIL\C51\LIB\C51L.LIB (?C?CLDPTR)
         COMMENT TYPE 1: A51 / ASM51 Assembler
  C:\KEIL\C51\LIB\C51L.LIB (?C?CLDOPTR)
         COMMENT TYPE 1: A51 / ASM51 Assembler
  C:\KEIL\C51\LIB\C51L.LIB (?C?CSTPTR)
         COMMENT TYPE 1: A51 / ASM51 Assembler
  C:\KEIL\C51\LIB\C51L.LIB (?C?IMUL)
         COMMENT TYPE 1: A51 / ASM51 Assembler
  C:\KEIL\C51\LIB\C51L.LIB (?C?UIDIV)
         COMMENT TYPE 1: A51 / ASM51 Assembler
  C:\KEIL\C51\LIB\C51L.LIB (?C?IILDX)
         COMMENT TYPE 1: A51 / ASM51 Assembler
  C:\KEIL\C51\LIB\C51L.LIB (?C?ILDOPTR)
         COMMENT TYPE 1: A51 / ASM51 Assembler
  C:\KEIL\C51\LIB\C51L.LIB (?C?LNEG)
         COMMENT TYPE 1: A51 / ASM51 Assembler
  C:\KEIL\C51\LIB\C51L.LIB (?C?LSTKXDATA)
         COMMENT TYPE 1: A51 / ASM51 Assembler
  C:\KEIL\C51\LIB\C51L.LIB (?C?OFFX256)
         COMMENT TYPE 1: A51 / ASM51 Assembler
  C:\KEIL\C51\LIB\C51L.LIB (?C?OFFXADD)
         COMMENT TYPE 1: A51 / ASM51 Assembler
  C:\KEIL\C51\LIB\C51L.LIB (?C?PLDXDATA)
         COMMENT TYPE 1: A51 / ASM51 Assembler
LX51 LINKER/LOCATER V4.66.87.0                                                        05/29/2018  21:11:03  PAGE 4


  C:\KEIL\C51\LIB\C51L.LIB (?C?PLDIXDATA)
         COMMENT TYPE 1: A51 / ASM51 Assembler
  C:\KEIL\C51\LIB\C51L.LIB (?C?PSTXDATA)
         COMMENT TYPE 1: A51 / ASM51 Assembler
  C:\KEIL\C51\LIB\C51L.LIB (?C?PLDCODE)
         COMMENT TYPE 1: A51 / ASM51 Assembler
  C:\KEIL\C51\LIB\C51L.LIB (?C?PLDPTR)
         COMMENT TYPE 1: A51 / ASM51 Assembler
  C:\KEIL\C51\LIB\C51L.LIB (?C?PLDOPTR)
         COMMENT TYPE 1: A51 / ASM51 Assembler
  C:\KEIL\C51\LIB\C51L.LIB (?C?CCASE)
         COMMENT TYPE 1: A51 / ASM51 Assembler
  C:\KEIL\C51\LIB\C51L.LIB (?C?ICALL)
         COMMENT TYPE 1: A51 / ASM51 Assembler
  C:\KEIL\C51\LIB\C51L.LIB (?C_XBP)
         COMMENT TYPE 1: A51 / ASM51 Assembler
  C:\KEIL\C51\LIB\C51L.LIB (GETS)
         COMMENT TYPE 1: C51 Compiler
  C:\KEIL\C51\LIB\C51L.LIB (ATOI)
         COMMENT TYPE 1: C51 Compiler
  C:\KEIL\C51\LIB\C51L.LIB (?C?MEMSET)
         COMMENT TYPE 1: A51 / ASM51 Assembler
  C:\KEIL\C51\LIB\C51L.LIB (?C?COPYP2)
         COMMENT TYPE 1: A51 / ASM51 Assembler
  C:\KEIL\C51\LIB\C51L.LIB (?C?STRCMPP2)
         COMMENT TYPE 1: A51 / ASM51 Assembler
  C:\KEIL\C51\LIB\C51L.LIB (?C?CSTOPTR)
         COMMENT TYPE 1: A51 / ASM51 Assembler
  C:\KEIL\C51\LIB\C51L.LIB (?C?ILDIX)
         COMMENT TYPE 1: A51 / ASM51 Assembler
  C:\KEIL\C51\LIB\C51L.LIB (?C?PLDIDATA)
         COMMENT TYPE 1: A51 / ASM51 Assembler
  C:\KEIL\C51\LIB\C51L.LIB (?C?PLDPDATA)
         COMMENT TYPE 1: A51 / ASM51 Assembler
  C:\KEIL\C51\LIB\C51L.LIB (GETCHAR)
         COMMENT TYPE 1: A51 / ASM51 Assembler
  C:\KEIL\C51\LIB\C51L.LIB (ISDIGIT)
         COMMENT TYPE 1: C51 Compiler
  C:\KEIL\C51\LIB\C51L.LIB (ISSPACE)
         COMMENT TYPE 1: C51 Compiler


ACTIVE MEMORY CLASSES OF MODULE:  Clock (SM)

BASE        START       END         USED      MEMORY CLASS
==========================================================
X:000000H   X:000000H   X:0003FFH   0000EBH   XDATA
X:000000H   X:000000H   X:0003FFH             HDATA
C:000000H   C:000000H   C:00FFFFH             ECODE
B00:0000H   C:000000H   C:00FFFFH             HCONST
C:000000H   C:000000H   C:00FFFFH   00883CH   CODE
C:000000H   C:000000H   C:00FFFFH   004393H   CONST
I:000000H   I:000000H   I:0000FFH   00002DH   IDATA
I:000020H.0 I:000020H.0 I:00002FH.7 000005H.1 BIT
I:000000H   I:000000H   I:00007FH   00001FH   DATA


MEMORY MAP OF MODULE:  Clock (SM)


START     STOP      LENGTH    ALIGN  RELOC    MEMORY CLASS   SEGMENT NAME
=========================================================================

* * * * * * * * * * *   D A T A   M E M O R Y   * * * * * * * * * * * * *
000000H   000007H   000008H   ---    AT..     DATA           "REG BANK 0"
LX51 LINKER/LOCATER V4.66.87.0                                                        05/29/2018  21:11:03  PAGE 5


000008H   00000FH   000008H   ---    AT..     DATA           "REG BANK 1"
000010H   000017H   000008H   ---    AT..     DATA           "REG BANK 2"
000018H   00001CH   000005H   BYTE   UNIT     DATA           _DATA_GROUP_
00001DH   00001EH   000002H   BYTE   UNIT     DATA           ?C?LIB_DATA
00001FH.0 00001FH.7 000001H.0 ---    ---      **GAP**
000020H.0 000021H.3 000001H.4 BIT    UNIT     BIT            _BIT_GROUP_
000021H.4 000021H.7 000000H.4 BIT    UNIT     BIT            ?BI?TIMER
000022H.0 000022H.3 000000H.4 BIT    UNIT     BIT            ?BI?LT_TIMER
000022H.4 000022H.6 000000H.3 BIT    UNIT     BIT            ?BI?MOD_COMMON
000022H.7 000023H.1 000000H.3 BIT    UNIT     BIT            ?BI?CLOCK
000023H.2 000023H.3 000000H.2 BIT    UNIT     BIT            ?BI?COM
000023H.4 000023H.5 000000H.2 BIT    UNIT     BIT            ?BI?KEY
000023H.6 000023H.7 000000H.2 BIT    UNIT     BIT            ?BI?ALARM
000024H.0 000024H.1 000000H.2 BIT    UNIT     BIT            ?BI?BEEPER
000024H.2 000024H.2 000000H.1 BIT    UNIT     BIT            ?BI?RTC
000024H.3 000024H.3 000000H.1 BIT    UNIT     BIT            ?BI?LED
000024H.4 000024H.4 000000H.1 BIT    UNIT     BIT            ?BI?POWER
000024H.5 000024H.5 000000H.1 BIT    UNIT     BIT            ?BI?FUSE
000024H.6 000024H.6 000000H.1 BIT    UNIT     BIT            ?BI?HG
000024H.7 000024H.7 000000H.1 BIT    UNIT     BIT            ?BI?DEBUG
000025H.0 000025H.0 000000H.1 BIT    UNIT     BIT            ?BI?GETCHAR
000025H.1 000025H   000000H.7 ---    ---      **GAP**
000026H   000035H   000010H   BYTE   UNIT     IDATA          ?ID?COM
000036H   00003EH   000009H   BYTE   UNIT     IDATA          ?ID?LED
00003FH   000047H   000009H   BYTE   UNIT     IDATA          ?ID?CLOCK
000048H   00004DH   000006H   BYTE   UNIT     IDATA          ?ID?LT_TIMER
00004EH   000051H   000004H   BYTE   UNIT     IDATA          ?ID?TASK
000052H   000052H   000001H   BYTE   UNIT     IDATA          ?STACK

* * * * * * * * * * *   C O D E   M E M O R Y   * * * * * * * * * * * * *
000000H   000002H   000003H   ---    OFFS..   CODE           ?CO?STARTUP?3
000003H   000005H   000003H   BYTE   OFFS..   CODE           ?KEY?00003
000006H   00000AH   000005H   BYTE   UNIT     CODE           ?PR?RTC_SET_LT_TIMER?RTC
00000BH   00000DH   000003H   BYTE   OFFS..   CODE           ?CLOCK?0000B
00000EH   000012H   000005H   BYTE   UNIT     CODE           ?PR?__RTC_GET_DATE?RTC
000013H   000015H   000003H   BYTE   OFFS..   CODE           ?INT_HUB?00013
000016H   000022H   00000DH   BYTE   UNIT     CODE           ?PR?COM_LEAVE_POWERSAVE?COM
000023H   000025H   000003H   BYTE   OFFS..   CODE           ?COM?00023
000026H   00002AH   000005H   BYTE   UNIT     CODE           ?PR?ALARM0_SET_HOUR_12?ALARM
00002BH   00002DH   000003H   BYTE   OFFS..   CODE           ?BEEPER?0002B
00002EH   000A73H   000A46H   BYTE   UNIT     CODE           ?C?LIB_CODE
000A74H   000EF6H   000483H   BYTE   UNIT     CODE           ?PR?PRINTF?PRINTF
000EF7H   00115CH   000266H   BYTE   UNIT     CODE           ?PR?_INT_HUB_DUMP_EXT_STATUS?INT_HUB
00115DH   00138BH   00022FH   BYTE   UNIT     CODE           ?PR?SERIAL_DUMP?SERIAL_HUB
00138CH   001597H   00020CH   BYTE   UNIT     CODE           ?PR?_DISPLAY_TEST?SM_FUSE_TEST
001598H   00175FH   0001C8H   BYTE   UNIT     CODE           ?PR?_SM_FUSE_TEST_HG_MPU?SM_FUSE_TEST
001760H   00190EH   0001AFH   BYTE   UNIT     CODE           ?PR?_SM_FUSE_TEST_THERMO?SM_FUSE_TEST
00190FH   001AA8H   00019AH   BYTE   UNIT     CODE           ?PR?_UPDATE_ALARM?SM_CLOCK_MOD_ALARM
001AA9H   001C3AH   000192H   BYTE   UNIT     CODE           ?PR?_RUN_STATE_MACHINE?SM
001C3BH   001DAEH   000174H   BYTE   UNIT     CODE           ?PR?_UPDATE_TIME?SM_FUSE_PARAM
001DAFH   001F1DH   00016FH   BYTE   UNIT     CODE           ?PR?SM
001F1EH   00208AH   00016DH   BYTE   UNIT     CODE           ?PR?CLOCK_INC_MS39?CLOCK
00208BH   0021F3H   000169H   BYTE   UNIT     CODE           ?PR?_SM_FUSE_TEST_SUBMOD0?SM_FUSE_TEST
0021F4H   00234FH   00015CH   BYTE   UNIT     CODE           ?PR?RTC_INITIALIZE?RTC
002350H   0024A2H   000153H   BYTE   UNIT     CODE           ?PR?RUN_SHELL?SHELL
0024A3H   0025EEH   00014CH   BYTE   UNIT     CODE           ?PR?_CMD_THERMO?CMD_THERMO
0025EFH   002701H   000113H   BYTE   UNIT     CODE           ?PR?_CMD_SM?CMD_SM
002702H   00280DH   00010CH   BYTE   UNIT     CODE           ?PR?_CLOCK_YYMMDD_TO_DAY?CLOCK
00280EH   002913H   000106H   BYTE   UNIT     CODE           ?PR?_SCAN_KEY_PROC?KEY
002914H   002A19H   000106H   BYTE   UNIT     CODE           ?PR?_SM_FUSE_TIMER_SUBMOD0?SM_FUSE_TIMER
002A1AH   002B16H   0000FDH   BYTE   UNIT     CODE           ?PR?TIMER_INC_MS39?TIMER
002B17H   002C0AH   0000F4H   BYTE   UNIT     CODE           ?PR?SM_DUMP?SM
002C0BH   002CF8H   0000EEH   BYTE   UNIT     CODE           ?PR?_CMD_BEEPER?CMD_BEEPER
002CF9H   002DE5H   0000EDH   BYTE   UNIT     CODE           ?PR?_GETS?GETS
002DE6H   002EC5H   0000E0H   BYTE   UNIT     CODE           ?PR?_DISPLAY_GLOBAL_FLAG?SM_GLOBAL_FLAG_MOD
LX51 LINKER/LOCATER V4.66.87.0                                                        05/29/2018  21:11:03  PAGE 6


002EC6H   002FA3H   0000DEH   BYTE   UNIT     CODE           ?PR?_DISPLAY_ALARM?SM_CLOCK_ALARM
002FA4H   00307EH   0000DBH   BYTE   UNIT     CODE           ?PR?_ATOI?ATOI
00307FH   00314CH   0000CEH   BYTE   UNIT     CODE           ?PR?_SM_SET_STATE_BY_NAME?SM
00314DH   003218H   0000CCH   BYTE   UNIT     CODE           ?PR?RTC_ALARM_GET_MODE?RTC
003219H   0032DFH   0000C7H   BYTE   UNIT     CODE           ?PR?_SM_FUSE_TIMER_SUBMOD2?SM_FUSE_TIMER
0032E0H   0033A4H   0000C5H   BYTE   UNIT     CODE           ?PR?_I2C_WRITE?CMD_I2C
0033A5H   003466H   0000C2H   BYTE   UNIT     CODE           ?PR?UPDATE_HHMMSS?SM_CLOCK_MOD_TIME
003467H   003525H   0000BFH   BYTE   UNIT     CODE           ?PR?LT_TIMER_SUB_DATE?LT_TIMER
003526H   0035E3H   0000BEH   BYTE   UNIT     CODE           ?PR?RTC
0035E4H   00369FH   0000BCH   BYTE   UNIT     CODE           ?PR?_UPDATE_SET?SM_FUSE_TEST
0036A0H   00375BH   0000BCH   BYTE   UNIT     CODE           ?PR?_CMD_TASK?CMD_TASK
00375CH   003815H   0000BAH   BYTE   UNIT     CODE           ?PR?_SM_CLOCK_MOD_TIME?SM_CLOCK_MOD_TIME
003816H   0038CDH   0000B8H   BYTE   UNIT     CODE           ?PR?_SM_SET_TABLE_BY_NAME?SM
0038CEH   00397EH   0000B1H   BYTE   UNIT     CODE           ?PR?_CHECK_AND_SET?SM_FUSE_TIMER
00397FH   003A2DH   0000AFH   BYTE   UNIT     CODE           ?PR?ROM_RESET?ROM
003A2EH   003AD4H   0000A7H   BYTE   UNIT     CODE           ?PR?RUN_TASK?TASK
003AD5H   003B7AH   0000A6H   BYTE   UNIT     CODE           ?PR?_CMD_SERIAL?CMD_SERIAL
003B7BH   003C1FH   0000A5H   BYTE   UNIT     CODE           ?PR?_DISPLAY_PREARM?SM_FUSE_TIMER
003C20H   003CBFH   0000A0H   BYTE   UNIT     CODE           ?PR?__BEEPLER_PLAY?BEEPER
003CC0H   003D5DH   00009EH   BYTE   UNIT     CODE           ?PR?_RTC_DATE_SET_DATE?RTC
003D5EH   003DFAH   00009DH   BYTE   UNIT     CODE           ?PR?UPDATE_HHMMSS?SM_CLOCK_COUNTER
003DFBH   003E96H   00009CH   BYTE   UNIT     CODE           ?PR?LT_TIMER_DEC_SEC?LT_TIMER
003E97H   003F30H   00009AH   BYTE   UNIT     CODE           ?PR?_INC_ONLY?SM_CLOCK_MOD_TIME
003F31H   003FC6H   000096H   BYTE   UNIT     CODE           ?PR?_RTC_GET_TEMPERATURE?RTC
003FC7H   004059H   000093H   BYTE   UNIT     CODE           ?PR?CLOCK_DUMP?CLOCK
00405AH   0040EBH   000092H   BYTE   UNIT     CODE           ?PR?_SM_CLOCK_COUNTER_SUBMOD0?SM_CLOCK_COUNTER
0040ECH   00417BH   000090H   BYTE   UNIT     CODE           ?PR?_ENTER_SET?SM_FUSE_TEST
00417CH   00420BH   000090H   BYTE   UNIT     CODE           ?PR?_SM_FUSE_PARAM_SUBMOD6?SM_FUSE_PARAM
00420CH   004297H   00008CH   BYTE   UNIT     CODE           ?PR?UPDATE_YYMMDD?SM_CLOCK_MOD_TIME
004298H   004322H   00008BH   BYTE   UNIT     CODE           ?PR?_RTC_ALARM_SET_MODE?RTC
004323H   0043ADH   00008BH   BYTE   UNIT     CODE           ?PR?DISPLAY_TEMP?SM_CLOCK_DISPLAY
0043AEH   004436H   000089H   BYTE   UNIT     CODE           ?PR?_I2C_READ?CMD_I2C
004437H   0044BDH   000087H   BYTE   UNIT     CODE           ?PR?_SM_SET_SUB_STATE_BY_NAME?SM
0044BEH   004540H   000083H   BYTE   UNIT     CODE           ?PR?SM_FUSE_TEST
004541H   0045BFH   00007FH   BYTE   UNIT     CODE           ?PR?_DISPLAY_SLOT?SM_CLOCK_TIMER
0045C0H   00463DH   00007EH   BYTE   UNIT     CODE           ?PR?_SCAN_FUSE?FUSE
00463EH   0046BAH   00007DH   BYTE   UNIT     CODE           ?PR?ROM_DUMP?ROM
0046BBH   004736H   00007CH   BYTE   UNIT     CODE           ?PR?_CALL_CMD?SHELL
004737H   0047B1H   00007BH   BYTE   UNIT     CODE           ?PR?_WRITE_ONLY?SM_FUSE_PARAM
0047B2H   00482BH   00007AH   BYTE   UNIT     CODE           ?PR?TASK_DUMP?TASK
00482CH   0048A5H   00007AH   BYTE   UNIT     CODE           ?PR?CLOCK
0048A6H   00491DH   000078H   BYTE   UNIT     CODE           ?PR?SCAN_ALARM?ALARM
00491EH   004995H   000078H   BYTE   UNIT     CODE           ?PR?_INC_ONLY?SM_FUSE_PARAM
004996H   004A0DH   000078H   BYTE   UNIT     CODE           ?PR?_CMD_MPU?CMD_MPU
004A0EH   004A82H   000075H   BYTE   UNIT     CODE           ?PR?_SCAN_HG?HG
004A83H   004AF7H   000075H   BYTE   UNIT     CODE           ?PR?LT_TIMER
004AF8H   004B6CH   000075H   BYTE   UNIT     CODE           ?PR?_SM_CLOCK_ALARM?SM_CLOCK_ALARM
004B6DH   004BDDH   000071H   BYTE   UNIT     CODE           ?PR?_SM_CLOCK_TIMER_SUBMOD1?SM_CLOCK_TIMER
004BDEH   004C4EH   000071H   BYTE   UNIT     CODE           ?PR?VERIFY_PASSWORD?SM_FUSE_TIMER
004C4FH   004CBCH   00006EH   BYTE   UNIT     CODE           ?PR?_I2C_GETS?I2C
004CBDH   004D29H   00006DH   BYTE   UNIT     CODE           ?PR?COM_ISR?COM
004D2AH   004D95H   00006CH   BYTE   UNIT     CODE           ?PR?INT_HUB_INITIALIZE?INT_HUB
004D96H   004E01H   00006CH   BYTE   UNIT     CODE           ?PR?SCAN_THERMO?THERMO
004E02H   004E6CH   00006BH   BYTE   UNIT     CODE           ?PR?_CLOCK_SYNC_TO_RTC?CLOCK
004E6DH   004ED7H   00006BH   BYTE   UNIT     CODE           ?PR?_SM_FUSE_PARAM_SET_TIME?SM_FUSE_PARAM
004ED8H   004F41H   00006AH   BYTE   UNIT     CODE           ?PR?TIMER
004F42H   004FAAH   000069H   BYTE   UNIT     CODE           ?PR?_THERMO_LO_THRESHOLD_SET?THERMO
004FABH   005012H   000068H   BYTE   UNIT     CODE           ?PR?LT_TIMER_GET_RELATIVE?LT_TIMER
005013H   005079H   000067H   BYTE   UNIT     CODE           ?PR?_WRITE_ONLY?SM_CLOCK_MOD_TIME
00507AH   0050DEH   000065H   BYTE   UNIT     CODE           ?PR?ALARM_DUMP?ALARM
0050DFH   005143H   000065H   BYTE   UNIT     CODE           ?PR?_DISPLAY_LOGO?MOD_COMMON
005144H   0051A6H   000063H   BYTE   UNIT     CODE           ?PR?INT_HUB_GET_STATUS?INT_HUB
0051A7H   005207H   000061H   BYTE   UNIT     CODE           ?PR?_ALARM0_SET_ENABLE?ALARM
005208H   005268H   000061H   BYTE   UNIT     CODE           ?PR?_CLOCK_SYNC_FROM_RTC?CLOCK
005269H   0052C8H   000060H   BYTE   UNIT     CODE           ?PR?INT_HUB_DUMP?INT_HUB
LX51 LINKER/LOCATER V4.66.87.0                                                        05/29/2018  21:11:03  PAGE 7


0052C9H   005328H   000060H   BYTE   UNIT     CODE           ?PR?_SM_CLOCK_MOD_ALARM_SUBMOD0?SM_CLOCK_MOD_ALARM
005329H   005388H   000060H   BYTE   UNIT     CODE           ?PR?_INC_ONLY?SM_FUSE_TEST
005389H   0053E8H   000060H   BYTE   UNIT     CODE           ?PR?_SM_FUSE_DETONATE_SUBMOD0?SM_FUSE_DETONATE
0053E9H   005447H   00005FH   BYTE   UNIT     CODE           ?PR?_SCAN_INT_HUB_PROC?INT_HUB
005448H   0054A6H   00005FH   BYTE   UNIT     CODE           ?PR?_SM_CLOCK_COUNTER_SUBMOD2?SM_CLOCK_COUNTER
0054A7H   005502H   00005CH   BYTE   UNIT     CODE           ?PR?_THERMO_HI_THRESHOLD_SET?THERMO
005503H   00555EH   00005CH   BYTE   UNIT     CODE           ?PR?_SM_CLOCK_TIMER_SUBMOD2?SM_CLOCK_TIMER
00555FH   0055BAH   00005CH   BYTE   UNIT     CODE           ?PR?_SM_CLOCK_COUNTER_SUBMOD1?SM_CLOCK_COUNTER
0055BBH   005616H   00005CH   BYTE   UNIT     CODE           ?PR?_SM_CLOCK_MOD_ALARM_SUBMOD1?SM_CLOCK_MOD_ALARM
005617H   005672H   00005CH   BYTE   UNIT     CODE           ?PR?_SM_FUSE_SET?SM_FUSE_TEST
005673H   0056CCH   00005AH   BYTE   UNIT     CODE           ?PR?REFRESH_LED?LED
0056CDH   005725H   000059H   BYTE   UNIT     CODE           ?PR?SM_DUMP_SUB_STATE?SM
005726H   00577EH   000059H   BYTE   UNIT     CODE           ?PR?_RTC_READ_DATA?RTC
00577FH   0057D7H   000059H   BYTE   UNIT     CODE           ?PR?_WRITE_ONLY?SM_FUSE_TEST
0057D8H   00582FH   000058H   BYTE   UNIT     CODE           ?PR?_LT_TIMER_SAVE_TO_ROM?LT_TIMER
005830H   005886H   000057H   BYTE   UNIT     CODE           ?PR?_RTC_WRITE_DATA?RTC
005887H   0058DDH   000057H   BYTE   UNIT     CODE           ?PR?THERMO_POWER_ON?THERMO
0058DEH   005934H   000057H   BYTE   UNIT     CODE           ?PR?_SM_CLOCK_MOD_ALARM_SUBMOD2?SM_CLOCK_MOD_ALARM
005935H   00598BH   000057H   BYTE   UNIT     CODE           ?PR?_SM_FUSE_TIMER_SUBMOD1?SM_FUSE_TIMER
00598CH   0059E2H   000057H   BYTE   UNIT     CODE           ?PR?_INC_WRITE?SM_GLOBAL_FLAG_MOD
0059E3H   005A38H   000056H   BYTE   UNIT     CODE           ?PR?THERMO
005A39H   005A8DH   000055H   BYTE   UNIT     CODE           ?PR?_I2C_PUTS?I2C
005A8EH   005AE2H   000055H   BYTE   UNIT     CODE           ?PR?DISPLAY_POWER_VOLUME?SM_POWER_PACK_DISPLAY
005AE3H   005B36H   000054H   BYTE   UNIT     CODE           ?PR?_CMD_HELP?CMD_HELP
005B37H   005B89H   000053H   BYTE   UNIT     CODE           ?PR?_SM_POWER_PACK_DISPLAY_SUBMOD0?SM_POWER_PACK_DISPLAY
005B8AH   005BDCH   000053H   BYTE   UNIT     CODE           ?PR?_UPDATE_HG_MASK?SM_FUSE_TEST
005BDDH   005C2DH   000051H   BYTE   UNIT     CODE           ?PR?ALARM0_SYNC_TO_RTC?ALARM
005C2EH   005C7EH   000051H   BYTE   UNIT     CODE           ?PR?DELAY_TASK_CALL?DELAY_TASK
005C7FH   005CCEH   000050H   BYTE   UNIT     CODE           ?PR?SM_DUMP_STATE?SM
005CCFH   005D1EH   000050H   BYTE   UNIT     CODE           ?PR?_MOD_PROC?KEY
005D1FH   005D6EH   000050H   BYTE   UNIT     CODE           ?PR?_SET_PROC?KEY
005D6FH   005DBEH   000050H   BYTE   UNIT     CODE           ?PR?_LED_SET_CODE?LED
005DBFH   005E0CH   00004EH   BYTE   UNIT     CODE           ?PR?SHELL
005E0DH   005E58H   00004CH   BYTE   UNIT     CODE           ?PR?MAIN?MAIN
005E59H   005EA4H   00004CH   BYTE   UNIT     CODE           ?PR?POWER_ENTER_POWERSAVE?POWER
005EA5H   005EF0H   00004CH   BYTE   UNIT     CODE           ?PR?_WRITE_ONLY?SM_CLOCK_MOD_ALARM
005EF1H   005F3AH   00004AH   BYTE   UNIT     CODE           ?PR?SCAN_LT_TIMER?LT_TIMER
005F3BH   005F83H   000049H   BYTE   UNIT     CODE           ?PR?THERMO_POWER_OFF?THERMO
005F84H   005FCCH   000049H   BYTE   UNIT     CODE           ?PR?_DELAY_TASK_REG?DELAY_TASK
005FCDH   006015H   000049H   BYTE   UNIT     CODE           ?PR?_SHELL_SEARCH_CMD_BY_NAME?SHELL
006016H   00605EH   000049H   BYTE   UNIT     CODE           ?PR?_SM_CLOCK_DISPLAY_SUBMOD0?SM_CLOCK_DISPLAY
00605FH   0060A7H   000049H   BYTE   UNIT     CODE           ?PR?_SM_FUSE_PARAM_SUBMOD0?SM_FUSE_PARAM
0060A8H   0060EFH   000048H   BYTE   UNIT     CODE           ?PR?_SM_CLOCK_TIMER_SUBMOD0?SM_CLOCK_TIMER
0060F0H   006136H   000047H   BYTE   UNIT     CODE           ?PR?_CMD_DBG?CMD_DBG
006137H   00617BH   000045H   BYTE   UNIT     CODE           ?PR?_INC_ONLY?SM_CLOCK_COUNTER
00617CH   0061BFH   000044H   BYTE   UNIT     CODE           ?PR?_THERMO_TEMP_TO_HEX?THERMO
0061C0H   006203H   000044H   BYTE   UNIT     CODE           ?PR?_CMD_REBOOT?CMD_REBOOT
006204H   006246H   000043H   BYTE   UNIT     CODE           ?PR?BEEPER_INITIALIZE?BEEPER
006247H   006288H   000042H   BYTE   UNIT     CODE           ?PR?BEEPER_BEEP_BEEP?BEEPER
006289H   0062C9H   000041H   BYTE   UNIT     CODE           ?PR?_THERMO_THRESHOLD_INC?THERMO
0062CAH   006309H   000040H   BYTE   UNIT     CODE           ?PR?_SM_CLOCK_COUNTER_SUBMOD3?SM_CLOCK_COUNTER
00630AH   006348H   00003FH   BYTE   UNIT     CODE           ?PR?SM_SHOW_CURRENT?SM
006349H   006387H   00003FH   BYTE   UNIT     CODE           ?PR?BEEPER_BEEP_BEEP_ALWAYS?BEEPER
006388H   0063C6H   00003FH   BYTE   UNIT     CODE           ?PR?_SM_FUSE_TEST_INIT?SM_FUSE_TEST
0063C7H   006404H   00003EH   BYTE   UNIT     CODE           ?PR?__RTC_SET_HOUR?RTC
006405H   006442H   00003EH   BYTE   UNIT     CODE           ?PR?_FUSE_SET_FUSE_BROKE?FUSE
006443H   006480H   00003EH   BYTE   UNIT     CODE           ?PR?ROM_INITIALIZE?ROM
006481H   0064BDH   00003DH   BYTE   UNIT     CODE           ?PR?THERMO_LOAD_CONFIG?THERMO
0064BEH   0064FAH   00003DH   BYTE   UNIT     CODE           ?PR?_DISPLAY_TIMER?SM_FUSE_TIMER
0064FBH   006536H   00003CH   BYTE   UNIT     CODE           ?PR?DUMP_RTC?RTC
006537H   006571H   00003BH   BYTE   UNIT     CODE           ?PR?LT_TIMER_SYNC_TO_RTC?LT_TIMER
006572H   0065ACH   00003BH   BYTE   UNIT     CODE           ?PR?CMD_SM
0065ADH   0065E6H   00003AH   BYTE   UNIT     CODE           ?PR?LED_INITIALIZE?LED
0065E7H   006620H   00003AH   BYTE   UNIT     CODE           ?PR?LT_TIMER_SUB_MIN_HOUR?LT_TIMER
006621H   00665AH   00003AH   BYTE   UNIT     CODE           ?PR?LT_TIMER_SUB_HOUR_DATE?LT_TIMER
LX51 LINKER/LOCATER V4.66.87.0                                                        05/29/2018  21:11:03  PAGE 8


00665BH   006694H   00003AH   BYTE   UNIT     CODE           ?PR?SERIAL_HUB_INITIALIZE?SERIAL_HUB
006695H   0066CEH   00003AH   BYTE   UNIT     CODE           ?PR?_ENTER_ALARM?SM_CLOCK_MOD_ALARM
0066CFH   006707H   000039H   BYTE   UNIT     CODE           ?PR?_SHOW_SLOT_TITLE?SM_CLOCK_TIMER
006708H   006740H   000039H   BYTE   UNIT     CODE           ?PR?_UPDATE_PASSWORD?SM_FUSE_PARAM
006741H   006779H   000039H   BYTE   UNIT     CODE           ?PR?_CMD_INT?CMD_INT
00677AH   0067B1H   000038H   BYTE   UNIT     CODE           ?PR?SM_DUMP_TABLE?SM
0067B2H   0067E9H   000038H   BYTE   UNIT     CODE           ?PR?CLOCK0_ISR?CLOCK
0067EAH   006821H   000038H   BYTE   UNIT     CODE           ?PR?_ENTER_TIME?SM_FUSE_PARAM
006822H   006858H   000037H   BYTE   UNIT     CODE           ?PR?LT_TIMER_LOAD_FROM_ROM?LT_TIMER
006859H   00688FH   000037H   BYTE   UNIT     CODE           ?PR?_DEBUG_PRINTF?DEBUG
006890H   0068C5H   000036H   BYTE   UNIT     CODE           ?PR?_MOD_SET_PROC?KEY
0068C6H   0068FBH   000036H   BYTE   UNIT     CODE           ?PR?FUSE_TRIGGER?FUSE
0068FCH   006930H   000035H   BYTE   UNIT     CODE           ?PR?SHELL_DUMP_CMD?SHELL
006931H   006965H   000035H   BYTE   UNIT     CODE           ?PR?_VPRINTF?VPRINTF
006966H   006999H   000034H   BYTE   UNIT     CODE           ?PR?ALARM_SAVE_ROM?ALARM
00699AH   0069CDH   000034H   BYTE   UNIT     CODE           ?PR?_ROM_READ?ROM
0069CEH   006A01H   000034H   BYTE   UNIT     CODE           ?PR?_INC_ONLY?SM_CLOCK_MOD_ALARM
006A02H   006A34H   000033H   BYTE   UNIT     CODE           ?PR?ALARM_LOAD_ROM?ALARM
006A35H   006A67H   000033H   BYTE   UNIT     CODE           ?PR?ALARM1_SYNC_TO_RTC?ALARM
006A68H   006A9AH   000033H   BYTE   UNIT     CODE           ?PR?POWER_INITIALIZE?POWER
006A9BH   006ACDH   000033H   BYTE   UNIT     CODE           ?PR?_CMD_I2C?CMD_I2C
006ACEH   006AFFH   000032H   BYTE   UNIT     CODE           ?PR?INT0_ISR?KEY
006B00H   006B31H   000032H   BYTE   UNIT     CODE           ?PR?_SM_CLOCK_POWERSAVE?SM_CLOCK_POWERSAVE
006B32H   006B62H   000031H   BYTE   UNIT     CODE           ?PR?THERMO_GET_CURRENT?THERMO
006B63H   006B93H   000031H   BYTE   UNIT     CODE           ?PR?_ROM_WRITE?ROM
006B94H   006BC4H   000031H   BYTE   UNIT     CODE           ?PR?MPU_POWER_ON?MPU
006BC5H   006BF4H   000030H   BYTE   UNIT     CODE           ?PR?POWER_LEAVE_POWERSAVE?POWER
006BF5H   006C24H   000030H   BYTE   UNIT     CODE           ?PR?POWER_TEST_POWERSAVE_TO?POWER
006C25H   006C54H   000030H   BYTE   UNIT     CODE           ?PR?_SERIAL_SET_CTL_BIT?SERIAL_HUB
006C55H   006C84H   000030H   BYTE   UNIT     CODE           ?PR?ROLL_BACK?SM_FUSE_TIMER
006C85H   006CB4H   000030H   BYTE   UNIT     CODE           ?PR?DISPLAY_PASSWORD?SM_FUSE_TIMER
006CB5H   006CE3H   00002FH   BYTE   UNIT     CODE           ?PR?_PUTBUF?COM
006CE4H   006D12H   00002FH   BYTE   UNIT     CODE           ?PR?I2C_READ?I2C
006D13H   006D41H   00002FH   BYTE   UNIT     CODE           ?PR?_ALARM0_TEST_ENABLE?ALARM
006D42H   006D70H   00002FH   BYTE   UNIT     CODE           ?PR?SCAN_MPU?MPU
006D71H   006D9EH   00002EH   BYTE   UNIT     CODE           ?PR?SHOW_VERSION?MAIN
006D9FH   006DCCH   00002EH   BYTE   UNIT     CODE           ?PR?_SERIAL_TEST_CTL_BIT?SERIAL_HUB
006DCDH   006DFAH   00002EH   BYTE   UNIT     CODE           ?PR?MPU_POWER_OFF?MPU
006DFBH   006E28H   00002EH   BYTE   UNIT     CODE           ?PR?SM_FUSE_TIMER
006E29H   006E55H   00002DH   BYTE   UNIT     CODE           ?PR?BEEPER_ISR?BEEPER
006E56H   006E82H   00002DH   BYTE   UNIT     CODE           ?PR?CLOCK_INITIALIZE?CLOCK
006E83H   006EAFH   00002DH   BYTE   UNIT     CODE           ?PR?_SM_CLOCK_DISPLAY_SUBMOD1?SM_CLOCK_DISPLAY
006EB0H   006EDBH   00002CH   BYTE   UNIT     CODE           ?PR?__RTC_SET_MIN_SEC?RTC
006EDCH   006F07H   00002CH   BYTE   UNIT     CODE           ?PR?__RTC_SET_DATE?RTC
006F08H   006F33H   00002CH   BYTE   UNIT     CODE           ?PR?_ALARM_PROC?ALARM
006F34H   006F5FH   00002CH   BYTE   UNIT     CODE           ?PR?_WRITE_ONLY?SM_CLOCK_COUNTER
006F60H   006F8BH   00002CH   BYTE   UNIT     CODE           ?PR?_SM_CLOCK_MOD_TIME_SUBMOD0?SM_CLOCK_MOD_TIME
006F8CH   006FB6H   00002BH   BYTE   UNIT     CODE           ?PR?_SM_CLOCK_MOD_ALARM_SUBMOD3?SM_CLOCK_MOD_ALARM
006FB7H   006FE1H   00002BH   BYTE   UNIT     CODE           ?PR?_SM_CLOCK_MOD_ALARM_SUBMOD4?SM_CLOCK_MOD_ALARM
006FE2H   00700CH   00002BH   BYTE   UNIT     CODE           ?PR?_ENTER_YYMMDD?SM_CLOCK_MOD_TIME
00700DH   007036H   00002AH   BYTE   UNIT     CODE           ?PR?BEEPER_BEEP?BEEPER
007037H   007060H   00002AH   BYTE   UNIT     CODE           ?PR?_TIMER_SAVE?TIMER
007061H   00708AH   00002AH   BYTE   UNIT     CODE           ?PR?_ENTER_HHMMSS?SM_CLOCK_COUNTER
00708BH   0070B4H   00002AH   BYTE   UNIT     CODE           ?PR?SM_CLOCK_COUNTER
0070B5H   0070DEH   00002AH   BYTE   UNIT     CODE           ?PR?_ENTER_HHMMSS?SM_CLOCK_MOD_TIME
0070DFH   007108H   00002AH   BYTE   UNIT     CODE           ?PR?_SM_GLOBAL_FLAG_MOD?SM_GLOBAL_FLAG_MOD
007109H   007131H   000029H   BYTE   UNIT     CODE           ?PR?_SM_CLOCK_DISPLAY_SUBMOD3?SM_CLOCK_DISPLAY
007132H   007159H   000028H   BYTE   UNIT     CODE           ?PR?COM_INITIALIZE?COM
00715AH   007181H   000028H   BYTE   UNIT     CODE           ?PR?_RTC_SET_HOUR_12?RTC
007182H   0071A9H   000028H   BYTE   UNIT     CODE           ?PR?FUSE_ENABLE?FUSE
0071AAH   0071D1H   000028H   BYTE   UNIT     CODE           ?PR?HG_ENABLE?HG
0071D2H   0071F8H   000027H   BYTE   UNIT     CODE           ?PR?_INT_HUB_TEST_BIT?INT_HUB
0071F9H   00721FH   000027H   BYTE   UNIT     CODE           ?PR?FUSE_POWER_ON?FUSE
007220H   007246H   000027H   BYTE   UNIT     CODE           ?PR?FUSE_POWER_OFF?FUSE
007247H   00726DH   000027H   BYTE   UNIT     CODE           ?PR?_SM_FUSE_TIMER_SUBMOD3?SM_FUSE_TIMER
LX51 LINKER/LOCATER V4.66.87.0                                                        05/29/2018  21:11:03  PAGE 9


00726EH   007293H   000026H   BYTE   UNIT     CODE           ?PR?LED_SAVE?LED
007294H   0072B9H   000026H   BYTE   UNIT     CODE           ?PR?LED_RESTORE?LED
0072BAH   0072DFH   000026H   BYTE   UNIT     CODE           ?PR?FUSE_SET_TRIPWIRE_BROKE?FUSE
0072E0H   007305H   000026H   BYTE   UNIT     CODE           ?PR?_SM_CLOCK_COUNTER_SUBMOD5?SM_CLOCK_COUNTER
007306H   00732BH   000026H   BYTE   UNIT     CODE           ?PR?CMD_BEEPER
00732CH   007350H   000025H   BYTE   UNIT     CODE           ?PR?SM_INITIALIZE?SM
007351H   007375H   000025H   BYTE   UNIT     CODE           ?PR?_RTC_ENABLE_ALARM_INT?RTC
007376H   007399H   000024H   BYTE   UNIT     CODE           ?PR?__RTC_GET_HOUR?RTC
00739AH   0073BDH   000024H   BYTE   UNIT     CODE           ?PR?POWER_INC_POWERSAVE_TO?POWER
0073BEH   0073E1H   000024H   BYTE   UNIT     CODE           ?PR?_THERMO_HEX_TO_TEMP?THERMO
0073E2H   007405H   000024H   BYTE   UNIT     CODE           ?PR?MPU_READ_INT_STATUS?MPU
007406H   007429H   000024H   BYTE   UNIT     CODE           ?PR?_SM_CLOCK_DISPLAY_INIT?SM_CLOCK_DISPLAY
00742AH   00744DH   000024H   BYTE   UNIT     CODE           ?PR?_SM_CLOCK_DISPLAY_SUBMOD2?SM_CLOCK_DISPLAY
00744EH   007471H   000024H   BYTE   UNIT     CODE           ?PR?_SM_FUSE_PARAM_INIT?SM_FUSE_PARAM
007472H   007494H   000023H   BYTE   UNIT     CODE           ?PR?LT_TIMER_LEAVE_POWERSAVE?LT_TIMER
007495H   0074B7H   000023H   BYTE   UNIT     CODE           ?PR?THERMO_LO_THRESHOLD_GET?THERMO
0074B8H   0074DAH   000023H   BYTE   UNIT     CODE           ?PR?_SM_CLOCK_COUNTER_SUBMOD4?SM_CLOCK_COUNTER
0074DBH   0074FDH   000023H   BYTE   UNIT     CODE           ?PR?SM_CLOCK_MOD_TIME
0074FEH   00751FH   000022H   BYTE   UNIT     CODE           ?PR?I2C_GETACK?I2C
007520H   007541H   000022H   BYTE   UNIT     CODE           ?PR?BEEPER_PLAY_MUSIC?BEEPER
007542H   007563H   000022H   BYTE   UNIT     CODE           ?PR?_TIMER_GET_MS10?TIMER
007564H   007585H   000022H   BYTE   UNIT     CODE           ?PR?_TOGGLE_ALARM?SM_CLOCK_MOD_ALARM
007586H   0075A7H   000022H   BYTE   UNIT     CODE           ?PR?_INC_WRITE?SM_FUSE_TEST
0075A8H   0075C8H   000021H   BYTE   UNIT     CODE           ?PR?THERMO_HI_THRESHOLD_GET?THERMO
0075C9H   0075E9H   000021H   BYTE   UNIT     CODE           ?PR?SM_CLOCK_TIMER
0075EAH   00760AH   000021H   BYTE   UNIT     CODE           ?PR?TOGGLE_ALARM_BS?SM_CLOCK_MOD_ALARM
00760BH   00762BH   000021H   BYTE   UNIT     CODE           ?PR?CMD_I2C
00762CH   00764BH   000020H   BYTE   UNIT     CODE           ?C_C51STARTUP
00764CH   00766BH   000020H   BYTE   UNIT     CODE           ?PR?ALARM_SWITCH_OFF?ALARM
00766CH   00768BH   000020H   BYTE   UNIT     CODE           ?PR?CLOCK_INC_DATE?CLOCK
00768CH   0076ABH   000020H   BYTE   UNIT     CODE           ?PR?LT_TIMER_SWITCH_OFF?LT_TIMER
0076ACH   0076CBH   000020H   BYTE   UNIT     CODE           ?PR?DELAY_TASK
0076CCH   0076EBH   000020H   BYTE   UNIT     CODE           ?PR?MPU_LOAD_CONFIG?MPU
0076ECH   00770BH   000020H   BYTE   UNIT     CODE           ?PR?TEST_AUTOSWITCH?SM_CLOCK_DISPLAY
00770CH   00772BH   000020H   BYTE   UNIT     CODE           ?PR?SM_CLOCK_DISPLAY
00772CH   00774BH   000020H   BYTE   UNIT     CODE           ?PR?CMD_THERMO
00774CH   00776AH   00001FH   BYTE   UNIT     CODE           ?PR?_I2C_WRITE?I2C
00776BH   007789H   00001FH   BYTE   UNIT     CODE           ?PR?MPU_ENABLE?MPU
00778AH   0077A8H   00001FH   BYTE   UNIT     CODE           ?PR?_SM_FUSE_POWERSAVE_SUBMOD0?SM_FUSE_POWERSAVE
0077A9H   0077C6H   00001EH   BYTE   UNIT     CODE           ?PR?LT_TIMER_START_RTC?LT_TIMER
0077C7H   0077E4H   00001EH   BYTE   UNIT     CODE           ?PR?LT_TIMER_STOP_RTC?LT_TIMER
0077E5H   007802H   00001EH   BYTE   UNIT     CODE           ?PR?LT_TIMER_SUB_SEC_MIN?LT_TIMER
007803H   00781FH   00001DH   BYTE   UNIT     CODE           ?PR?RTC_ALARM_SET_HOUR_12?RTC
007820H   00783CH   00001DH   BYTE   UNIT     CODE           ?PR?_RTC_TEST_ALARM_INT?RTC
00783DH   007859H   00001DH   BYTE   UNIT     CODE           ?PR?_RTC_TEST_ALARM_INT_FLAG?RTC
00785AH   007876H   00001DH   BYTE   UNIT     CODE           ?PR?LED
007877H   007893H   00001DH   BYTE   UNIT     CODE           ?PR?_CLOCK_GET_MON_DATE?CLOCK
007894H   0078B0H   00001DH   BYTE   UNIT     CODE           ?PR?_SM_POWER_PACK_POWERSAVE_SUBMOD0?SM_POWER_PACK_POWERSA
                                                             -VE
0078B1H   0078CDH   00001DH   BYTE   UNIT     CODE           ?PR?_SM_FUSE_TIMER_INIT?SM_FUSE_TIMER
0078CEH   0078E9H   00001CH   BYTE   UNIT     CODE           ?PR?_TIMER_INC_HOUR?TIMER
0078EAH   007905H   00001CH   BYTE   UNIT     CODE           ?PR?_SM_CLOCK_MOD_TIME_SUBMOD2?SM_CLOCK_MOD_TIME
007906H   007921H   00001CH   BYTE   UNIT     CODE           ?PR?_SM_CLOCK_MOD_TIME_SUBMOD3?SM_CLOCK_MOD_TIME
007922H   00793DH   00001CH   BYTE   UNIT     CODE           ?PR?_SM_CLOCK_MOD_TIME_SUBMOD4?SM_CLOCK_MOD_TIME
00793EH   007959H   00001CH   BYTE   UNIT     CODE           ?PR?_SM_CLOCK_MOD_TIME_SUBMOD5?SM_CLOCK_MOD_TIME
00795AH   007975H   00001CH   BYTE   UNIT     CODE           ?PR?_SM_FUSE_TEST_SUBMOD1?SM_FUSE_TEST
007976H   007991H   00001CH   BYTE   UNIT     CODE           ?PR?_SM_FUSE_TEST_SUBMOD2?SM_FUSE_TEST
007992H   0079ADH   00001CH   BYTE   UNIT     CODE           ?PR?_SM_FUSE_TEST_SUBMOD3?SM_FUSE_TEST
0079AEH   0079C9H   00001CH   BYTE   UNIT     CODE           ?PR?_SM_FUSE_TEST_SUBMOD4?SM_FUSE_TEST
0079CAH   0079E5H   00001CH   BYTE   UNIT     CODE           ?PR?_SM_FUSE_TEST_SUBMOD5?SM_FUSE_TEST
0079E6H   007A01H   00001CH   BYTE   UNIT     CODE           ?PR?_SM_FUSE_TEST_SUBMOD6?SM_FUSE_TEST
007A02H   007A1DH   00001CH   BYTE   UNIT     CODE           ?PR?_SM_FUSE_TEST_SUBMOD7?SM_FUSE_TEST
007A1EH   007A39H   00001CH   BYTE   UNIT     CODE           ?PR?_SM_FUSE_TEST_SUBMOD8?SM_FUSE_TEST
007A3AH   007A55H   00001CH   BYTE   UNIT     CODE           ?PR?_SM_FUSE_PARAM_SUBMOD1?SM_FUSE_PARAM
007A56H   007A71H   00001CH   BYTE   UNIT     CODE           ?PR?_SM_FUSE_PARAM_SUBMOD2?SM_FUSE_PARAM
LX51 LINKER/LOCATER V4.66.87.0                                                        05/29/2018  21:11:03  PAGE 10


007A72H   007A8DH   00001CH   BYTE   UNIT     CODE           ?PR?_SM_FUSE_PARAM_SUBMOD3?SM_FUSE_PARAM
007A8EH   007AA9H   00001CH   BYTE   UNIT     CODE           ?PR?_SM_FUSE_PARAM_SUBMOD4?SM_FUSE_PARAM
007AAAH   007AC5H   00001CH   BYTE   UNIT     CODE           ?PR?_SM_FUSE_PARAM_SUBMOD5?SM_FUSE_PARAM
007AC6H   007AE1H   00001CH   BYTE   UNIT     CODE           ?PR?_SM_FUSE_TIMER_SUBMOD4?SM_FUSE_TIMER
007AE2H   007AFDH   00001CH   BYTE   UNIT     CODE           ?PR?_SM_GLOBAL_FLAG_MOD_SUBMOD2?SM_GLOBAL_FLAG_MOD
007AFEH   007B18H   00001BH   BYTE   UNIT     CODE           ?PR?POWER_5V_ENABLE?POWER
007B19H   007B33H   00001BH   BYTE   UNIT     CODE           ?PR?BEEPER
007B34H   007B4EH   00001BH   BYTE   UNIT     CODE           ?PR?HG_POWER_ON?HG
007B4FH   007B69H   00001BH   BYTE   UNIT     CODE           ?PR?SERIAL_CTL_OUT?SERIAL_HUB
007B6AH   007B83H   00001AH   BYTE   UNIT     CODE           ?PR?_RTC_ALARM_SET_DATE?RTC
007B84H   007B9DH   00001AH   BYTE   UNIT     CODE           ?PR?RTC_ENTER_POWERSAVE?RTC
007B9EH   007BB7H   00001AH   BYTE   UNIT     CODE           ?PR?_POWER_PROC?POWER
007BB8H   007BD1H   00001AH   BYTE   UNIT     CODE           ?PR?_FUSE_PROC?FUSE
007BD2H   007BEBH   00001AH   BYTE   UNIT     CODE           ?PR?LT_TIMER_DISPLAY?LT_TIMER
007BECH   007C05H   00001AH   BYTE   UNIT     CODE           ?PR?_SM_CLOCK_TIMER_INIT?SM_CLOCK_TIMER
007C06H   007C1FH   00001AH   BYTE   UNIT     CODE           ?PR?_SM_CLOCK_MOD_TIME_INIT?SM_CLOCK_MOD_TIME
007C20H   007C39H   00001AH   BYTE   UNIT     CODE           ?PR?_ENTER_PASSWORD?SM_FUSE_PARAM
007C3AH   007C52H   000019H   BYTE   UNIT     CODE           ?PR?_PUTCHAR?COM
007C53H   007C6BH   000019H   BYTE   UNIT     CODE           ?PR?KEY_INITIALIZE?KEY
007C6CH   007C84H   000019H   BYTE   UNIT     CODE           ?PR?SERIAL_HUB
007C85H   007C9DH   000019H   BYTE   UNIT     CODE           ?PR?_SM_CLOCK_MOD_TIME_SUBMOD1?SM_CLOCK_MOD_TIME
007C9EH   007CB6H   000019H   BYTE   UNIT     CODE           ?PR?_SM_GLOBAL_FLAG_MOD_SUBMOD0?SM_GLOBAL_FLAG_MOD
007CB7H   007CCFH   000019H   BYTE   UNIT     CODE           ?PR?_SM_GLOBAL_FLAG_MOD_SUBMOD1?SM_GLOBAL_FLAG_MOD
007CD0H   007CE7H   000018H   BYTE   UNIT     CODE           ?PR?CLOCK_LEAVE_POWERSAVE?CLOCK
007CE8H   007CFFH   000018H   BYTE   UNIT     CODE           ?PR?_TIMER_INC_MIN?TIMER
007D00H   007D17H   000018H   BYTE   UNIT     CODE           ?PR?_TIMER_INC_SEC?TIMER
007D18H   007D2FH   000018H   BYTE   UNIT     CODE           ?PR?TIMER_CLR?TIMER
007D30H   007D47H   000018H   BYTE   UNIT     CODE           ?PR?_SM_POWER_PACK_DISPLAY_INIT?SM_POWER_PACK_DISPLAY
007D48H   007D5FH   000018H   BYTE   UNIT     CODE           ?PR?CMD_DBG
007D60H   007D76H   000017H   BYTE   UNIT     CODE           ?PR?COM
007D77H   007D8DH   000017H   BYTE   UNIT     CODE           ?PR?_RTC_CLR_ALARM_INT_FLAG?RTC
007D8EH   007DA4H   000017H   BYTE   UNIT     CODE           ?PR?_I2C_GET?I2C
007DA5H   007DBBH   000017H   BYTE   UNIT     CODE           ?PR?_LED_CLR_BLINK?LED
007DBCH   007DD2H   000017H   BYTE   UNIT     CODE           ?PR?POWER_GET_POWERSAVE_TO?POWER
007DD3H   007DE9H   000017H   BYTE   UNIT     CODE           ?PR?BEEPER_INC_MUSIC_INDEX?BEEPER
007DEAH   007E00H   000017H   BYTE   UNIT     CODE           ?PR?_CLOCK_IS_LEAP_YEAR?CLOCK
007E01H   007E17H   000017H   BYTE   UNIT     CODE           ?PR?LT_TIMER_SWITCH_DISPLAY?LT_TIMER
007E18H   007E2EH   000017H   BYTE   UNIT     CODE           ?PR?SM_FUSE_PARAM
007E2FH   007E45H   000017H   BYTE   UNIT     CODE           ?PR?DISPLAY_DETONATE?SM_FUSE_DETONATE
007E46H   007E5BH   000016H   BYTE   UNIT     CODE           ?PR?RTC_ALARM_GET_HOUR?RTC
007E5CH   007E71H   000016H   BYTE   UNIT     CODE           ?PR?RTC_ALARM_GET_HOUR_12?RTC
007E72H   007E87H   000016H   BYTE   UNIT     CODE           ?PR?RTC_ALARM_GET_MIN?RTC
007E88H   007E9DH   000016H   BYTE   UNIT     CODE           ?PR?_RTC_ALARM_SET_DAY?RTC
007E9EH   007EB3H   000016H   BYTE   UNIT     CODE           ?PR?_RTC_ALARM_SET_SEC?RTC
007EB4H   007EC9H   000016H   BYTE   UNIT     CODE           ?PR?I2C_STOP?I2C
007ECAH   007EDFH   000016H   BYTE   UNIT     CODE           ?PR?_LED_SET_BLINK?LED
007EE0H   007EF5H   000016H   BYTE   UNIT     CODE           ?PR?CLOCK_INC_MONTH?CLOCK
007EF6H   007F0BH   000016H   BYTE   UNIT     CODE           ?PR?CLOCK_LEAVE_SHELL?CLOCK
007F0CH   007F21H   000016H   BYTE   UNIT     CODE           ?PR?TIMER_START?TIMER
007F22H   007F37H   000016H   BYTE   UNIT     CODE           ?PR?_THERMO_PROC?THERMO
007F38H   007F4DH   000016H   BYTE   UNIT     CODE           ?PR?CMD_MPU
007F4EH   007F62H   000015H   BYTE   UNIT     CODE           ?PR?RTC_ALARM_GET_DATE?RTC
007F63H   007F77H   000015H   BYTE   UNIT     CODE           ?PR?LED_LEAVE_POWERSAVE?LED
007F78H   007F8CH   000015H   BYTE   UNIT     CODE           ?PR?ALARM
007F8DH   007FA1H   000015H   BYTE   UNIT     CODE           ?PR?CLOCK_INC_YEAR?CLOCK
007FA2H   007FB6H   000015H   BYTE   UNIT     CODE           ?PR?LT_TIMER_ENTER_POWERSAVE?LT_TIMER
007FB7H   007FCBH   000015H   BYTE   UNIT     CODE           ?PR?_SM_CLOCK_COUNTER_INIT?SM_CLOCK_COUNTER
007FCCH   007FE0H   000015H   BYTE   UNIT     CODE           ?PR?_SM_GLOBAL_FLAG_MOD_INIT?SM_GLOBAL_FLAG_MOD
007FE1H   007FF4H   000014H   BYTE   UNIT     CODE           ?PR?COM_TRY_GET_KEY?COM
007FF5H   008008H   000014H   BYTE   UNIT     CODE           ?PR?RTC_ALARM_GET_DAY?RTC
008009H   00801CH   000014H   BYTE   UNIT     CODE           ?PR?RTC_ALARM_GET_SEC?RTC
00801DH   008030H   000014H   BYTE   UNIT     CODE           ?PR?RTC_LEAVE_POWERSAVE?RTC
008031H   008044H   000014H   BYTE   UNIT     CODE           ?PR?_I2C_PUT?I2C
008045H   008058H   000014H   BYTE   UNIT     CODE           ?PR?TASK_INITIALIZE?TASK
008059H   00806CH   000014H   BYTE   UNIT     CODE           ?PR?BEEPER_INC_MUSIC_TO?BEEPER
LX51 LINKER/LOCATER V4.66.87.0                                                        05/29/2018  21:11:03  PAGE 11


00806DH   008080H   000014H   BYTE   UNIT     CODE           ?PR?_TIMER_GET_HOUR?TIMER
008081H   008094H   000014H   BYTE   UNIT     CODE           ?PR?_TIMER_GET_MIN?TIMER
008095H   0080A8H   000014H   BYTE   UNIT     CODE           ?PR?_TIMER_GET_SEC?TIMER
0080A9H   0080BCH   000014H   BYTE   UNIT     CODE           ?PR?TOGGLE_ALARM_MUSIC?SM_CLOCK_MOD_ALARM
0080BDH   0080D0H   000014H   BYTE   UNIT     CODE           ?PR?_SM_FUSE_POWERSAVE_SUBMOD1?SM_FUSE_POWERSAVE
0080D1H   0080E4H   000014H   BYTE   UNIT     CODE           ?PR?CMD_HELP
0080E5H   0080F8H   000014H   BYTE   UNIT     CODE           ?PR?GETCHAR?GETCHAR
0080F9H   00810CH   000014H   BYTE   UNIT     CODE           ?PR?_ISSPACE?ISSPACE
00810DH   00811FH   000013H   BYTE   UNIT     CODE           ?PR?_TIME_PROC?SM
008120H   008132H   000013H   BYTE   UNIT     CODE           ?PR?SCAN_RTC?RTC
008133H   008145H   000013H   BYTE   UNIT     CODE           ?PR?_RTC_ALARM_SET_HOUR?RTC
008146H   008158H   000013H   BYTE   UNIT     CODE           ?PR?_RTC_ALARM_SET_MIN?RTC
008159H   00816BH   000013H   BYTE   UNIT     CODE           ?PR?INT_HUB
00816CH   00817EH   000013H   BYTE   UNIT     CODE           ?PR?LT_TIMER_INC_DATE?LT_TIMER
00817FH   008191H   000013H   BYTE   UNIT     CODE           ?PR?MPU
008192H   0081A3H   000012H   BYTE   UNIT     CODE           ?PR?_RTC_DATE_SET_DAY?RTC
0081A4H   0081B5H   000012H   BYTE   UNIT     CODE           ?PR?I2C_PUTACK?I2C
0081B6H   0081C7H   000012H   BYTE   UNIT     CODE           ?PR?TIMER_INITIALIZE?TIMER
0081C8H   0081D9H   000012H   BYTE   UNIT     CODE           ?PR?__HG_GET_STATE?HG
0081DAH   0081EBH   000012H   BYTE   UNIT     CODE           ?PR?HG_GET_STATE?HG
0081ECH   0081FDH   000012H   BYTE   UNIT     CODE           ?PR?LT_TIMER_INITIALIZE?LT_TIMER
0081FEH   00820FH   000012H   BYTE   UNIT     CODE           ?PR?LT_TIMER_SWITCH_ON?LT_TIMER
008210H   008221H   000012H   BYTE   UNIT     CODE           ?PR?THERMO_HI_THRESHOLD_DEC?THERMO
008222H   008233H   000012H   BYTE   UNIT     CODE           ?PR?THERMO_HI_THRESHOLD_INC?THERMO
008234H   008245H   000012H   BYTE   UNIT     CODE           ?PR?THERMO_LO_THRESHOLD_DEC?THERMO
008246H   008257H   000012H   BYTE   UNIT     CODE           ?PR?THERMO_LO_THRESHOLD_INC?THERMO
008258H   008269H   000012H   BYTE   UNIT     CODE           ?PR?_MPU_THRESHOLD_INC?MPU
00826AH   00827BH   000012H   BYTE   UNIT     CODE           ?PR?SM_CLOCK_MOD_ALARM
00827CH   00828DH   000012H   BYTE   UNIT     CODE           ?PR?ROLL_BACK?SM_FUSE_POWERSAVE
00828EH   00829EH   000011H   BYTE   UNIT     CODE           ?PR?_SM_SET_STATE?SM
00829FH   0082AFH   000011H   BYTE   UNIT     CODE           ?PR?I2C_DELAY?I2C
0082B0H   0082C0H   000011H   BYTE   UNIT     CODE           ?PR?KEY
0082C1H   0082D1H   000011H   BYTE   UNIT     CODE           ?PR?LED_CLEAR?LED
0082D2H   0082E2H   000011H   BYTE   UNIT     CODE           ?PR?LED_ENTER_POWERSAVE?LED
0082E3H   0082F3H   000011H   BYTE   UNIT     CODE           ?PR?INT1_ISR?INT_HUB
0082F4H   008303H   000010H   BYTE   UNIT     CODE           ?PR?_GETKEY?COM
008304H   008313H   000010H   BYTE   UNIT     CODE           ?PR?RTC_TIME_SET_HOUR_12?RTC
008314H   008323H   000010H   BYTE   UNIT     CODE           ?PR?TIMER_SET_LED_AUTOREFRESH?TIMER
008324H   008333H   000010H   BYTE   UNIT     CODE           ?PR?_INC_WRITE?SM_CLOCK_MOD_ALARM
008334H   008343H   000010H   BYTE   UNIT     CODE           ?PR?_INC_AND_WRITE?SM_CLOCK_MOD_TIME
008344H   008353H   000010H   BYTE   UNIT     CODE           ?PR?SM_FUSE_POWERSAVE
008354H   008362H   00000FH   BYTE   UNIT     CODE           ?PR?TASK
008363H   008371H   00000FH   BYTE   UNIT     CODE           ?PR?_LED_CLR_DP?LED
008372H   008380H   00000FH   BYTE   UNIT     CODE           ?PR?_LED_SET_DP?LED
008381H   00838FH   00000FH   BYTE   UNIT     CODE           ?PR?ALARM_INITIALIZE?ALARM
008390H   00839EH   00000FH   BYTE   UNIT     CODE           ?PR?ALARM_SWITCH_ON?ALARM
00839FH   0083ADH   00000FH   BYTE   UNIT     CODE           ?PR?LT_TIMER_RESET?LT_TIMER
0083AEH   0083BCH   00000FH   BYTE   UNIT     CODE           ?PR?MPU_INITIALIZE?MPU
0083BDH   0083CBH   00000FH   BYTE   UNIT     CODE           ?PR?_SM_CLOCK_MOD_ALARM_INIT?SM_CLOCK_MOD_ALARM
0083CCH   0083DAH   00000FH   BYTE   UNIT     CODE           ?PR?_SM_FUSE_DETONATE_INIT?SM_FUSE_DETONATE
0083DBH   0083E9H   00000FH   BYTE   UNIT     CODE           ?PR?SM_GLOBAL_FLAG_MOD
0083EAH   0083F8H   00000FH   BYTE   UNIT     CODE           ?PR?CMD_TASK
0083F9H   008407H   00000FH   BYTE   UNIT     CODE           ?PR?_ISDIGIT?ISDIGIT
008408H   008415H   00000EH   BYTE   UNIT     CODE           ?PR?COM_ENTER_POWERSAVE?COM
008416H   008423H   00000EH   BYTE   UNIT     CODE           ?PR?ALARM0_INC_MIN?ALARM
008424H   008431H   00000EH   BYTE   UNIT     CODE           ?PR?ALARM0_INC_HOUR?ALARM
008432H   00843FH   00000EH   BYTE   UNIT     CODE           ?PR?_DELAY_10US?MISC
008440H   00844DH   00000EH   BYTE   UNIT     CODE           ?PR?_DELAY_MS?MISC
00844EH   00845BH   00000EH   BYTE   UNIT     CODE           ?PR?_BEEPER_STOP_PLAY?BEEPER
00845CH   008469H   00000EH   BYTE   UNIT     CODE           ?PR?CLOCK_ENTER_POWERSAVE?CLOCK
00846AH   008477H   00000EH   BYTE   UNIT     CODE           ?PR?LT_TIMER_START_RAM?LT_TIMER
008478H   008485H   00000EH   BYTE   UNIT     CODE           ?PR?_MPU_THRESHOLD_SET?MPU
008486H   008493H   00000EH   BYTE   UNIT     CODE           ?PR?SM_POWER_PACK_DISPLAY
008494H   0084A1H   00000EH   BYTE   UNIT     CODE           ?PR?SM_POWER_PACK_POWERSAVE
0084A2H   0084AFH   00000EH   BYTE   UNIT     CODE           ?PR?INC_PASSWORD?SM_FUSE_TIMER
LX51 LINKER/LOCATER V4.66.87.0                                                        05/29/2018  21:11:03  PAGE 12


0084B0H   0084BDH   00000EH   BYTE   UNIT     CODE           ?PR?SM_FUSE_DETONATE
0084BEH   0084CAH   00000DH   BYTE   UNIT     CODE           ?PR?HG_POWER_OFF?HG
0084CBH   0084D6H   00000CH   BYTE   UNIT     CODE           ?PR?RTC_DATE_GET_YEAR?RTC
0084D7H   0084E2H   00000CH   BYTE   UNIT     CODE           ?PR?RTC_DATE_GET_MONTH?RTC
0084E3H   0084EEH   00000CH   BYTE   UNIT     CODE           ?PR?TIMER_ENTER_POWERSAVE?TIMER
0084EFH   0084FAH   00000CH   BYTE   UNIT     CODE           ?PR?FUSE_INITIALIZE?FUSE
0084FBH   008506H   00000CH   BYTE   UNIT     CODE           ?PR?HG_CB_SET_ENABLE?HG
008507H   008512H   00000CH   BYTE   UNIT     CODE           ?PR?HG_INITIALIZE?HG
008513H   00851EH   00000CH   BYTE   UNIT     CODE           ?PR?LT_TIMER_STOP_RAM?LT_TIMER
00851FH   00852AH   00000CH   BYTE   UNIT     CODE           ?PR?THERMO_INITIALIZE?THERMO
00852BH   008536H   00000CH   BYTE   UNIT     CODE           ?PR?THERMO_HI_THRESHOLD_REACH_TOP?THERMO
008537H   008542H   00000CH   BYTE   UNIT     CODE           ?PR?THERMO_LO_THRESHOLD_REACH_TOP?THERMO
008543H   00854EH   00000CH   BYTE   UNIT     CODE           ?PR?_CMD_NULL?SHELL
00854FH   00855AH   00000CH   BYTE   UNIT     CODE           ?PR?_SM_POWER_PACK_POWERSAVE_INIT?SM_POWER_PACK_POWERSAVE
00855BH   008565H   00000BH   BYTE   UNIT     CODE           ?PR?_SM_SET_SUB_STATE?SM
008566H   008570H   00000BH   BYTE   UNIT     CODE           ?PR?I2C_START?I2C
008571H   00857BH   00000BH   BYTE   UNIT     CODE           ?PR?CLOCK_INC_MIN?CLOCK
00857CH   008586H   00000BH   BYTE   UNIT     CODE           ?PR?CLOCK_INC_HOUR?CLOCK
008587H   008591H   00000BH   BYTE   UNIT     CODE           ?PR?HG
008592H   00859CH   00000BH   BYTE   UNIT     CODE           ?PR?LT_TIMER_INC_YEAR?LT_TIMER
00859DH   0085A7H   00000BH   BYTE   UNIT     CODE           ?PR?LT_TIMER_INC_MONTH?LT_TIMER
0085A8H   0085B2H   00000BH   BYTE   UNIT     CODE           ?PR?LT_TIMER_INC_HOUR?LT_TIMER
0085B3H   0085BDH   00000BH   BYTE   UNIT     CODE           ?PR?LT_TIMER_INC_MIN?LT_TIMER
0085BEH   0085C8H   00000BH   BYTE   UNIT     CODE           ?PR?LT_TIMER_INC_SEC?LT_TIMER
0085C9H   0085D3H   00000BH   BYTE   UNIT     CODE           ?PR?THERMO_HI_THRESHOLD_REACH_BOTTOM?THERMO
0085D4H   0085DEH   00000BH   BYTE   UNIT     CODE           ?PR?THERMO_LO_THRESHOLD_REACH_BOTTOM?THERMO
0085DFH   0085E9H   00000BH   BYTE   UNIT     CODE           ?PR?CMD_SERIAL
0085EAH   0085F3H   00000AH   BYTE   UNIT     CODE           ?PR?I2C_INIT?I2C
0085F4H   0085FDH   00000AH   BYTE   UNIT     CODE           ?PR?I2C
0085FEH   008607H   00000AH   BYTE   UNIT     CODE           ?PR?INTERNAL_DELAY_MS?MISC
008608H   008611H   00000AH   BYTE   UNIT     CODE           ?PR?THERMO_ENABLE?THERMO
008612H   00861BH   00000AH   BYTE   UNIT     CODE           ?PR?_INC_AND_WRITE?SM_CLOCK_COUNTER
00861CH   008625H   00000AH   BYTE   UNIT     CODE           ?PR?_INC_AND_WRITE?SM_FUSE_PARAM
008626H   00862FH   00000AH   BYTE   UNIT     CODE           ?PR?_SM_FUSE_POWERSAVE_INIT?SM_FUSE_POWERSAVE
008630H   008638H   000009H   BYTE   UNIT     CODE           ?PR?_RTC_TIME_SET_MIN?RTC
008639H   008641H   000009H   BYTE   UNIT     CODE           ?PR?KEY_ENTER_POWERSAVE?KEY
008642H   00864AH   000009H   BYTE   UNIT     CODE           ?PR?KEY_LEAVE_POWERSAVE?KEY
00864BH   008653H   000009H   BYTE   UNIT     CODE           ?PR?ALARM_ENTER_POWERSAVE?ALARM
008654H   00865CH   000009H   BYTE   UNIT     CODE           ?PR?ALARM_LEAVE_POWERSAVE?ALARM
00865DH   008665H   000009H   BYTE   UNIT     CODE           ?PR?POWER_RESET_POWERSAVE_TO?POWER
008666H   00866EH   000009H   BYTE   UNIT     CODE           ?PR?BEEPER_ENTER_POWERSAVE?BEEPER
00866FH   008677H   000009H   BYTE   UNIT     CODE           ?PR?BEEPER_LEAVE_POWERSAVE?BEEPER
008678H   008680H   000009H   BYTE   UNIT     CODE           ?PR?CLOCK_ENABLE_INTERRUPT?CLOCK
008681H   008689H   000009H   BYTE   UNIT     CODE           ?PR?TIMER_LEAVE_POWERSAVE?TIMER
00868AH   008692H   000009H   BYTE   UNIT     CODE           ?PR?FUSE_ENTER_POWERSAVE?FUSE
008693H   00869BH   000009H   BYTE   UNIT     CODE           ?PR?FUSE_LEAVE_POWERSAVE?FUSE
00869CH   0086A4H   000009H   BYTE   UNIT     CODE           ?PR?HG_ENTER_POWERSAVE?HG
0086A5H   0086ADH   000009H   BYTE   UNIT     CODE           ?PR?HG_LEAVE_POWERSAVE?HG
0086AEH   0086B6H   000009H   BYTE   UNIT     CODE           ?PR?THERMO_ENTER_POWERSAVE?THERMO
0086B7H   0086BFH   000009H   BYTE   UNIT     CODE           ?PR?THERMO_LEAVE_POWERSAVE?THERMO
0086C0H   0086C8H   000009H   BYTE   UNIT     CODE           ?PR?DELAY_TASK_INITIALIZE?DELAY_TASK
0086C9H   0086D1H   000009H   BYTE   UNIT     CODE           ?PR?MPU_ENTER_POWERSAVE?MPU
0086D2H   0086DAH   000009H   BYTE   UNIT     CODE           ?PR?MPU_LEAVE_POWERSAVE?MPU
0086DBH   0086E3H   000009H   BYTE   UNIT     CODE           ?PR?RESET_AUTO_SWITCH?SM_CLOCK_DISPLAY
0086E4H   0086EBH   000008H   BYTE   UNIT     CODE           ?PR?__RTC_GET_MIN_SEC?RTC
0086ECH   0086F3H   000008H   BYTE   UNIT     CODE           ?PR?RTC_TIME_GET_HOUR?RTC
0086F4H   0086FBH   000008H   BYTE   UNIT     CODE           ?PR?RTC_TIME_GET_HOUR_12?RTC
0086FCH   008703H   000008H   BYTE   UNIT     CODE           ?PR?RTC_TIME_GET_MIN?RTC
008704H   00870BH   000008H   BYTE   UNIT     CODE           ?PR?RTC_TIME_GET_SEC?RTC
00870CH   008713H   000008H   BYTE   UNIT     CODE           ?PR?_RTC_DATE_SET_YEAR?RTC
008714H   00871BH   000008H   BYTE   UNIT     CODE           ?PR?_RTC_DATE_SET_MONTH?RTC
00871CH   008723H   000008H   BYTE   UNIT     CODE           ?PR?RTC_DATE_GET_DATE?RTC
008724H   00872BH   000008H   BYTE   UNIT     CODE           ?PR?THERMO_HI_THRESHOLD_RESET?THERMO
00872CH   008733H   000008H   BYTE   UNIT     CODE           ?PR?THERMO_LO_THRESHOLD_RESET?THERMO
008734H   00873BH   000008H   BYTE   UNIT     CODE           ?PR?ROM_IS_FACTORY_RESET?ROM
LX51 LINKER/LOCATER V4.66.87.0                                                        05/29/2018  21:11:03  PAGE 13


00873CH   008743H   000008H   BYTE   UNIT     CODE           ?PR?MPU_THRESHOLD_RESET?MPU
008744H   00874AH   000007H   BYTE   UNIT     CODE           ?PR?__RTC_GET_HOUR_12?RTC
00874BH   008751H   000007H   BYTE   UNIT     CODE           ?PR?SM_CLOCK_ALARM
008752H   008757H   000006H   BYTE   UNIT     CODE           ?PR?_RTC_TIME_SET_HOUR?RTC
008758H   00875DH   000006H   BYTE   UNIT     CODE           ?PR?_RTC_TIME_SET_SEC?RTC
00875EH   008763H   000006H   BYTE   UNIT     CODE           ?PR?RTC_DATE_GET_DAY?RTC
008764H   008769H   000006H   BYTE   UNIT     CODE           ?PR?ALARM0_GET_DAY_MASK?ALARM
00876AH   00876FH   000006H   BYTE   UNIT     CODE           ?PR?ALARM0_GET_MIN?ALARM
008770H   008775H   000006H   BYTE   UNIT     CODE           ?PR?ALARM0_GET_HOUR?ALARM
008776H   00877BH   000006H   BYTE   UNIT     CODE           ?PR?POWER_GET_POWERSAVE_TO_S?POWER
00877CH   008781H   000006H   BYTE   UNIT     CODE           ?PR?INTERNAL_DELAY_10US?MISC
008782H   008787H   000006H   BYTE   UNIT     CODE           ?PR?BEEPER_GET_MUSIC_TO?BEEPER
008788H   00878DH   000006H   BYTE   UNIT     CODE           ?PR?BEEPER_GET_MUSIC_INDEX?BEEPER
00878EH   008793H   000006H   BYTE   UNIT     CODE           ?PR?_CLOCK_SWITCH_DISPLAY_MODE?CLOCK
008794H   008799H   000006H   BYTE   UNIT     CODE           ?PR?CLOCK_GET_DATE?CLOCK
00879AH   00879FH   000006H   BYTE   UNIT     CODE           ?PR?CLOCK_GET_DAY?CLOCK
0087A0H   0087A5H   000006H   BYTE   UNIT     CODE           ?PR?CLOCK_GET_MONTH?CLOCK
0087A6H   0087ABH   000006H   BYTE   UNIT     CODE           ?PR?_TIMER_SET_MODE?TIMER
0087ACH   0087B1H   000006H   BYTE   UNIT     CODE           ?PR?LT_TIMER_GET_MONTH?LT_TIMER
0087B2H   0087B7H   000006H   BYTE   UNIT     CODE           ?PR?LT_TIMER_GET_DATE?LT_TIMER
0087B8H   0087BDH   000006H   BYTE   UNIT     CODE           ?PR?MPU_THRESHOLD_GET?MPU
0087BEH   0087C2H   000005H   BYTE   UNIT     CODE           ?PR?ALARM1_SET_ENABLE?ALARM
0087C3H   0087C7H   000005H   BYTE   UNIT     CODE           ?PR?BEEPER_SET_BEEP_ENABLE?BEEPER
0087C8H   0087CCH   000005H   BYTE   UNIT     CODE           ?PR?CLOCK_DISPLAY?CLOCK
0087CDH   0087D1H   000005H   BYTE   UNIT     CODE           ?PR?CLOCK_SET_HOUR_12?CLOCK
0087D2H   0087D6H   000005H   BYTE   UNIT     CODE           ?PR?CLOCK_GET_MS39?CLOCK
0087D7H   0087DBH   000005H   BYTE   UNIT     CODE           ?PR?CLOCK_GET_SEC_256?CLOCK
0087DCH   0087E0H   000005H   BYTE   UNIT     CODE           ?PR?CLOCK_GET_SEC?CLOCK
0087E1H   0087E5H   000005H   BYTE   UNIT     CODE           ?PR?CLOCK_CLR_SEC?CLOCK
0087E6H   0087EAH   000005H   BYTE   UNIT     CODE           ?PR?CLOCK_GET_MIN?CLOCK
0087EBH   0087EFH   000005H   BYTE   UNIT     CODE           ?PR?CLOCK_GET_HOUR?CLOCK
0087F0H   0087F4H   000005H   BYTE   UNIT     CODE           ?PR?CLOCK_GET_YEAR?CLOCK
0087F5H   0087F9H   000005H   BYTE   UNIT     CODE           ?PR?LT_TIMER_GET_YEAR?LT_TIMER
0087FAH   0087FEH   000005H   BYTE   UNIT     CODE           ?PR?LT_TIMER_GET_HOUR?LT_TIMER
0087FFH   008803H   000005H   BYTE   UNIT     CODE           ?PR?LT_TIMER_GET_MIN?LT_TIMER
008804H   008808H   000005H   BYTE   UNIT     CODE           ?PR?LT_TIMER_GET_SEC?LT_TIMER
008809H   00880DH   000005H   BYTE   UNIT     CODE           ?PR?DEBUG_ONOFF?DEBUG
00880EH   008811H   000004H   BYTE   UNIT     CODE           ?PR?POWER_5V_GET_ENABLE?POWER
008812H   008814H   000003H   BYTE   UNIT     CODE           ?PR?_NULL_PROC?SM
008815H   008817H   000003H   BYTE   UNIT     CODE           ?PR?RTC_IS_LT_TIMER?RTC
008818H   00881AH   000003H   BYTE   UNIT     CODE           ?PR?ALARM0_GET_HOUR_12?ALARM
00881BH   00881DH   000003H   BYTE   UNIT     CODE           ?PR?ALARM1_TEST_ENABLE?ALARM
00881EH   008820H   000003H   BYTE   UNIT     CODE           ?PR?POWER_TEST_FLAG?POWER
008821H   008823H   000003H   BYTE   UNIT     CODE           ?PR?POWER_SET_FLAG?POWER
008824H   008826H   000003H   BYTE   UNIT     CODE           ?PR?POWER_CLR_FLAG?POWER
008827H   008829H   000003H   BYTE   UNIT     CODE           ?PR?POWER_GET_VOLUME?POWER
00882AH   00882CH   000003H   BYTE   UNIT     CODE           ?PR?BEEPER_GET_BEEP_ENABLE?BEEPER
00882DH   00882FH   000003H   BYTE   UNIT     CODE           ?PR?BEEPER_STOP_MUSIC?BEEPER
008830H   008832H   000003H   BYTE   UNIT     CODE           ?PR?CLOCK_GET_HOUR_12?CLOCK
008833H   008835H   000003H   BYTE   UNIT     CODE           ?PR?CLOCK_ENTER_SHELL?CLOCK
008836H   008838H   000003H   BYTE   UNIT     CODE           ?PR?TIMER_STOP?TIMER
008839H   00883BH   000003H   BYTE   UNIT     CODE           ?PR?DEBUG_INITIALIZE?DEBUG
00883CH   009294H   000A59H   BYTE   UNIT     CONST          ?CO?SM
009295H   00993BH   0006A7H   BYTE   UNIT     CONST          ?CO?SHELL
00993CH   009EF5H   0005BAH   BYTE   UNIT     CONST          ?CO?CLOCK
009EF6H   00A246H   000351H   BYTE   UNIT     CONST          ?CO?BEEPER
00A247H   00A582H   00033CH   BYTE   UNIT     CONST          ?CO?SM_FUSE_TEST
00A583H   00A80EH   00028CH   BYTE   UNIT     CONST          ?CO?INT_HUB
00A80FH   00AA3FH   000231H   BYTE   UNIT     CONST          ?CO?TASK
00AA40H   00AC64H   000225H   BYTE   UNIT     CONST          ?CO?LT_TIMER
00AC65H   00AE87H   000223H   BYTE   UNIT     CONST          ?CO?SM_FUSE_TIMER
00AE88H   00B08DH   000206H   BYTE   UNIT     CONST          ?CO?SM_CLOCK_MOD_TIME
00B08EH   00B283H   0001F6H   BYTE   UNIT     CONST          ?CO?SM_FUSE_PARAM
00B284H   00B46AH   0001E7H   BYTE   UNIT     CONST          ?CO?SM_CLOCK_COUNTER
00B46BH   00B640H   0001D6H   BYTE   UNIT     CONST          ?CO?SERIAL_HUB
LX51 LINKER/LOCATER V4.66.87.0                                                        05/29/2018  21:11:03  PAGE 14


00B641H   00B807H   0001C7H   BYTE   UNIT     CONST          ?CO?SM_CLOCK_MOD_ALARM
00B808H   00B99DH   000196H   BYTE   UNIT     CONST          ?CO?THERMO
00B99EH   00BB1EH   000181H   BYTE   UNIT     CONST          ?CO?KEY
00BB1FH   00BC83H   000165H   BYTE   UNIT     CONST          ?CO?ALARM
00BC84H   00BDCFH   00014CH   BYTE   UNIT     CONST          ?CO?SM_CLOCK_DISPLAY
00BDD0H   00BEFEH   00012FH   BYTE   UNIT     CONST          ?CO?SM_GLOBAL_FLAG_MOD
00BEFFH   00C00FH   000111H   BYTE   UNIT     CONST          ?CO?RTC
00C010H   00C0FFH   0000F0H   BYTE   UNIT     CONST          ?CO?SM_CLOCK_TIMER
00C100H   00C1E8H   0000E9H   BYTE   UNIT     CONST          ?CO?FUSE
00C1E9H   00C2CBH   0000E3H   BYTE   UNIT     CONST          ?CO?MPU
00C2CCH   00C397H   0000CCH   BYTE   UNIT     CONST          ?CO?HG
00C398H   00C45FH   0000C8H   BYTE   UNIT     CONST          ?CO?SM_FUSE_POWERSAVE
00C460H   00C4FAH   00009BH   BYTE   UNIT     CONST          ?CO?SM_POWER_PACK_POWERSAVE
00C4FBH   00C58DH   000093H   BYTE   UNIT     CONST          ?CO?SM_POWER_PACK_DISPLAY
00C58EH   00C60FH   000082H   BYTE   UNIT     CONST          ?CO?POWER
00C610H   00C690H   000081H   BYTE   UNIT     CONST          ?CO?MAIN
00C691H   00C710H   000080H   BYTE   UNIT     CONST          ?CO?SM_FUSE_DETONATE
00C711H   00C78DH   00007DH   BYTE   UNIT     CONST          ?CO?CMD_I2C
00C78EH   00C800H   000073H   BYTE   UNIT     CONST          ?CO?CMD_BEEPER
00C801H   00C870H   000070H   BYTE   UNIT     CONST          ?CO?ROM
00C871H   00C8DFH   00006FH   BYTE   UNIT     CONST          ?CO?LED
00C8E0H   00C941H   000062H   BYTE   UNIT     CONST          ?CO?CMD_THERMO
00C942H   00C99BH   00005AH   BYTE   UNIT     CONST          ?CO?DELAY_TASK
00C99CH   00C9F4H   000059H   BYTE   UNIT     CONST          ?CO?TIMER
00C9F5H   00CA4DH   000059H   BYTE   UNIT     CONST          ?CO?SM_CLOCK_ALARM
00CA4EH   00CAA4H   000057H   BYTE   UNIT     CONST          ?CO?SM_CLOCK_POWERSAVE
00CAA5H   00CAE9H   000045H   BYTE   UNIT     CONST          ?CO?CMD_SM
00CAEAH   00CB13H   00002AH   BYTE   UNIT     CONST          ?CO?COM
00CB14H   00CB38H   000025H   BYTE   UNIT     CONST          ?CO?CMD_REBOOT
00CB39H   00CB5DH   000025H   BYTE   UNIT     CONST          ?CO?CMD_MPU
00CB5EH   00CB7BH   00001EH   BYTE   UNIT     CONST          ?CO?CMD_SERIAL
00CB7CH   00CB98H   00001DH   BYTE   UNIT     CONST          ?CO?CMD_HELP
00CB99H   00CBB4H   00001CH   BYTE   UNIT     CONST          ?CO?CMD_DBG
00CBB5H   00CBCAH   000016H   BYTE   UNIT     CONST          ?CO?MOD_COMMON
00CBCBH   00CBCEH   000004H   BYTE   UNIT     CONST          ?CO?CMD_INT

* * * * * * * * * * *  X D A T A   M E M O R Y  * * * * * * * * * * * * *
000000H   00007CH   00007DH   BYTE   UNIT     XDATA          _XDATA_GROUP_
00007DH   0000A5H   000029H   BYTE   UNIT     XDATA          ?XD?SHELL
0000A6H   0000BAH   000015H   BYTE   UNIT     XDATA          ?XD?TIMER
0000BBH   0000C3H   000009H   BYTE   UNIT     XDATA          ?XD?LED
0000C4H   0000C8H   000005H   BYTE   UNIT     XDATA          ?XD?RTC
0000C9H   0000CDH   000005H   BYTE   UNIT     XDATA          ?XD?DELAY_TASK
0000CEH   0000D1H   000004H   BYTE   UNIT     XDATA          ?XD?COM
0000D2H   0000D4H   000003H   BYTE   UNIT     XDATA          ?XD?SM
0000D5H   0000D7H   000003H   BYTE   UNIT     XDATA          ?XD?ALARM
0000D8H   0000DAH   000003H   BYTE   UNIT     XDATA          ?XD?MOD_COMMON
0000DBH   0000DDH   000003H   BYTE   UNIT     XDATA          ?XD?BEEPER
0000DEH   0000DFH   000002H   BYTE   UNIT     XDATA          ?XD?KEY
0000E0H   0000E1H   000002H   BYTE   UNIT     XDATA          ?XD?POWER
0000E2H   0000E3H   000002H   BYTE   UNIT     XDATA          ?XD?SERIAL_HUB
0000E4H   0000E5H   000002H   BYTE   UNIT     XDATA          ?XD?THERMO
0000E6H   0000E6H   000001H   BYTE   UNIT     XDATA          ?XD?CLOCK
0000E7H   0000E7H   000001H   BYTE   UNIT     XDATA          ?XD?HG
0000E8H   0000E8H   000001H   BYTE   UNIT     XDATA          ?XD?MPU
0000E9H   0000E9H   000001H   BYTE   UNIT     XDATA          ?XD?CMD_I2C
0000EAH   0000EAH   000001H   BYTE   UNIT     XDATA          ?XD?GETCHAR



OVERLAY MAP OF MODULE:   Clock (SM)


FUNCTION/MODULE                                BIT_GROUP   DATA_GROUP   XDATA_GROUP
--> CALLED FUNCTION/MODULE                    START  STOP  START  STOP  START  STOP
LX51 LINKER/LOCATER V4.66.87.0                                                        05/29/2018  21:11:03  PAGE 15


===================================================================================
?C_C51STARTUP                                 ----- -----  ----- -----  ----- -----
  +--> MAIN/MAIN

MAIN/MAIN                                     ----- -----  ----- -----  ----- -----
  +--> DEBUG_INITIALIZE/DEBUG
  +--> COM_INITIALIZE/COM
  +--> SHOW_VERSION/MAIN
  +--> ROM_INITIALIZE/ROM
  +--> SERIAL_HUB_INITIALIZE/SERIAL_HUB
  +--> RTC_INITIALIZE/RTC
  +--> CLOCK_INITIALIZE/CLOCK
  +--> KEY_INITIALIZE/KEY
  +--> LED_INITIALIZE/LED
  +--> POWER_INITIALIZE/POWER
  +--> ALARM_INITIALIZE/ALARM
  +--> LT_TIMER_INITIALIZE/LT_TIMER
  +--> TIMER_INITIALIZE/TIMER
  +--> BEEPER_INITIALIZE/BEEPER
  +--> THERMO_INITIALIZE/THERMO
  +--> FUSE_INITIALIZE/FUSE
  +--> MPU_INITIALIZE/MPU
  +--> HG_INITIALIZE/HG
  +--> INT_HUB_INITIALIZE/INT_HUB
  +--> TASK_INITIALIZE/TASK
  +--> SM_INITIALIZE/SM
  +--> DELAY_TASK_INITIALIZE/DELAY_TASK
  +--> RUN_TASK/TASK
  +--> RUN_SHELL/SHELL

DEBUG_INITIALIZE/DEBUG                        ----- -----  ----- -----  ----- -----

COM_INITIALIZE/COM                            ----- -----  ----- -----  ----- -----

SHOW_VERSION/MAIN                             ----- -----  ----- -----  ----- -----
  +--> _DEBUG_PRINTF/DEBUG

_DEBUG_PRINTF/DEBUG                           ----- -----  ----- -----  001CH 0049H
  +--> _VPRINTF/VPRINTF

_VPRINTF/VPRINTF                              ----- -----  ----- -----  004AH 004CH
  +--> PRINTF/PRINTF

PRINTF/PRINTF                                 20H.2 21H.2  0018H 001CH  004DH 007CH
  +--> _PUTCHAR/COM

_PUTCHAR/COM                                  ----- -----  ----- -----  ----- -----
  +--> _PUTBUF/COM

_PUTBUF/COM                                   ----- -----  ----- -----  ----- -----

ROM_INITIALIZE/ROM                            ----- -----  ----- -----  ----- -----
  +--> _DEBUG_PRINTF/DEBUG
  +--> ROM_IS_FACTORY_RESET/ROM
  +--> ROM_RESET/ROM
  +--> ROM_DUMP/ROM

ROM_IS_FACTORY_RESET/ROM                      ----- -----  ----- -----  ----- -----

ROM_RESET/ROM                                 ----- -----  ----- -----  ----- -----
  +--> _ROM_WRITE/ROM

_ROM_WRITE/ROM                                ----- -----  ----- -----  0017H 0018H
  +--> I2C_INIT/I2C
  +--> _I2C_PUT/I2C
LX51 LINKER/LOCATER V4.66.87.0                                                        05/29/2018  21:11:03  PAGE 16


  +--> _DEBUG_PRINTF/DEBUG

I2C_INIT/I2C                                  ----- -----  ----- -----  ----- -----
  +--> I2C_DELAY/I2C

I2C_DELAY/I2C                                 ----- -----  ----- -----  ----- -----

_I2C_PUT/I2C                                  ----- -----  ----- -----  0019H 0019H
  +--> _I2C_PUTS/I2C

_I2C_PUTS/I2C                                 ----- -----  ----- -----  001AH 001FH
  +--> I2C_START/I2C
  +--> _I2C_WRITE/I2C
  +--> I2C_GETACK/I2C
  +--> I2C_STOP/I2C

I2C_START/I2C                                 ----- -----  ----- -----  ----- -----
  +--> I2C
  +--> I2C_DELAY/I2C

I2C                                           ----- -----  ----- -----  ----- -----
  +--> I2C_DELAY/I2C

_I2C_WRITE/I2C                                ----- -----  ----- -----  ----- -----
  +--> I2C_DELAY/I2C

I2C_GETACK/I2C                                20H.2 20H.2  ----- -----  ----- -----
  +--> I2C
  +--> I2C_DELAY/I2C

I2C_STOP/I2C                                  ----- -----  ----- -----  ----- -----
  +--> I2C_DELAY/I2C
  +--> I2C

ROM_DUMP/ROM                                  ----- -----  ----- -----  ----- -----
  +--> _ROM_READ/ROM

_ROM_READ/ROM                                 ----- -----  ----- -----  0016H 0017H
  +--> I2C_INIT/I2C
  +--> _I2C_GET/I2C
  +--> _DEBUG_PRINTF/DEBUG

_I2C_GET/I2C                                  ----- -----  ----- -----  001AH 001CH
  +--> _I2C_GETS/I2C

_I2C_GETS/I2C                                 ----- -----  ----- -----  001DH 0022H
  +--> I2C_START/I2C
  +--> _I2C_WRITE/I2C
  +--> I2C_GETACK/I2C
  +--> I2C_STOP/I2C
  +--> I2C_READ/I2C
  +--> I2C_PUTACK/I2C

I2C_READ/I2C                                  20H.2 20H.2  ----- -----  ----- -----
  +--> I2C_DELAY/I2C
  +--> I2C

I2C_PUTACK/I2C                                20H.2 20H.2  ----- -----  ----- -----
  +--> I2C_DELAY/I2C

SERIAL_HUB_INITIALIZE/SERIAL_HUB              ----- -----  ----- -----  ----- -----
  +--> _DEBUG_PRINTF/DEBUG
  +--> _I2C_PUT/I2C
  +--> SERIAL_CTL_OUT/SERIAL_HUB

LX51 LINKER/LOCATER V4.66.87.0                                                        05/29/2018  21:11:03  PAGE 17


SERIAL_CTL_OUT/SERIAL_HUB                     ----- -----  ----- -----  ----- -----
  +--> _I2C_PUT/I2C
  +--> SERIAL_DUMP/SERIAL_HUB

SERIAL_DUMP/SERIAL_HUB                        ----- -----  ----- -----  ----- -----
  +--> _DEBUG_PRINTF/DEBUG
  +--> _SERIAL_TEST_CTL_BIT/SERIAL_HUB
  +--> SERIAL_HUB

_SERIAL_TEST_CTL_BIT/SERIAL_HUB               ----- -----  ----- -----  ----- -----
  +--> SERIAL_HUB

SERIAL_HUB                                    ----- -----  ----- -----  ----- -----

RTC_INITIALIZE/RTC                            ----- -----  ----- -----  0000H 0001H
  +--> _DEBUG_PRINTF/DEBUG
  +--> RTC
  +--> _ROM_READ/ROM
  +--> I2C_INIT/I2C
  +--> _RTC_READ_DATA/RTC
  +--> RTC_TIME_GET_HOUR/RTC
  +--> RTC_TIME_SET_HOUR_12/RTC
  +--> _RTC_TIME_SET_HOUR/RTC
  +--> ROM_IS_FACTORY_RESET/ROM
  +--> _RTC_WRITE_DATA/RTC
  +--> RTC_DATE_GET_YEAR/RTC
  +--> RTC_DATE_GET_MONTH/RTC
  +--> RTC_DATE_GET_DATE/RTC
  +--> _CLOCK_YYMMDD_TO_DAY/CLOCK
  +--> _RTC_DATE_SET_DAY/RTC
  +--> _RTC_ENABLE_ALARM_INT/RTC
  +--> _RTC_CLR_ALARM_INT_FLAG/RTC
  +--> _I2C_GET/I2C
  +--> _I2C_PUT/I2C
  +--> DUMP_RTC/RTC
  +--> _RTC_TIME_SET_MIN/RTC
  +--> _RTC_TIME_SET_SEC/RTC
  +--> _RTC_DATE_SET_YEAR/RTC
  +--> _RTC_DATE_SET_MONTH/RTC
  +--> _RTC_DATE_SET_DATE/RTC

RTC                                           ----- -----  ----- -----  ----- -----

_RTC_READ_DATA/RTC                            ----- -----  ----- -----  0017H 0017H
  +--> RTC
  +--> _I2C_GETS/I2C

RTC_TIME_GET_HOUR/RTC                         ----- -----  ----- -----  ----- -----
  +--> __RTC_GET_HOUR/RTC

__RTC_GET_HOUR/RTC                            ----- -----  ----- -----  ----- -----
  +--> RTC

RTC_TIME_SET_HOUR_12/RTC                      20H.0 20H.0  ----- -----  ----- -----
  +--> RTC
  +--> _RTC_SET_HOUR_12/RTC

_RTC_SET_HOUR_12/RTC                          20H.1 20H.1  ----- -----  0017H 0019H
  +--> RTC
  +--> __RTC_GET_HOUR/RTC
  +--> __RTC_SET_HOUR/RTC

__RTC_SET_HOUR/RTC                            ----- -----  ----- -----  001AH 001CH
  +--> RTC

LX51 LINKER/LOCATER V4.66.87.0                                                        05/29/2018  21:11:03  PAGE 18


_RTC_TIME_SET_HOUR/RTC                        ----- -----  ----- -----  ----- -----
  +--> RTC
  +--> __RTC_SET_HOUR/RTC

_RTC_WRITE_DATA/RTC                           ----- -----  ----- -----  0017H 0017H
  +--> I2C_INIT/I2C
  +--> RTC
  +--> _I2C_PUTS/I2C

RTC_DATE_GET_YEAR/RTC                         ----- -----  ----- -----  ----- -----
  +--> RTC

RTC_DATE_GET_MONTH/RTC                        ----- -----  ----- -----  ----- -----
  +--> RTC

RTC_DATE_GET_DATE/RTC                         ----- -----  ----- -----  ----- -----
  +--> __RTC_GET_DATE/RTC

__RTC_GET_DATE/RTC                            ----- -----  ----- -----  ----- -----
  +--> RTC

_CLOCK_YYMMDD_TO_DAY/CLOCK                    ----- -----  ----- -----  0017H 001EH
  +--> CLOCK

CLOCK                                         ----- -----  ----- -----  ----- -----

_RTC_DATE_SET_DAY/RTC                         ----- -----  ----- -----  ----- -----

_RTC_ENABLE_ALARM_INT/RTC                     20H.1 20H.1  ----- -----  ----- -----

_RTC_CLR_ALARM_INT_FLAG/RTC                   ----- -----  ----- -----  ----- -----

DUMP_RTC/RTC                                  ----- -----  ----- -----  0002H 0003H
  +--> _I2C_GET/I2C
  +--> _DEBUG_PRINTF/DEBUG

_RTC_TIME_SET_MIN/RTC                         ----- -----  ----- -----  ----- -----
  +--> __RTC_SET_MIN_SEC/RTC

__RTC_SET_MIN_SEC/RTC                         ----- -----  ----- -----  0017H 0019H
  +--> RTC

_RTC_TIME_SET_SEC/RTC                         ----- -----  ----- -----  ----- -----
  +--> RTC
  +--> __RTC_SET_MIN_SEC/RTC

_RTC_DATE_SET_YEAR/RTC                        ----- -----  ----- -----  ----- -----
  +--> RTC

_RTC_DATE_SET_MONTH/RTC                       ----- -----  ----- -----  ----- -----
  +--> RTC

_RTC_DATE_SET_DATE/RTC                        ----- -----  ----- -----  0017H 0018H
  +--> RTC_DATE_GET_MONTH/RTC
  +--> _DEBUG_PRINTF/DEBUG
  +--> RTC_DATE_GET_YEAR/RTC
  +--> _CLOCK_IS_LEAP_YEAR/CLOCK
  +--> __RTC_SET_DATE/RTC

_CLOCK_IS_LEAP_YEAR/CLOCK                     ----- -----  ----- -----  ----- -----
  +--> CLOCK

__RTC_SET_DATE/RTC                            ----- -----  ----- -----  0019H 001BH
  +--> RTC

LX51 LINKER/LOCATER V4.66.87.0                                                        05/29/2018  21:11:03  PAGE 19


CLOCK_INITIALIZE/CLOCK                        ----- -----  ----- -----  ----- -----
  +--> _DEBUG_PRINTF/DEBUG
  +--> _CLOCK_SYNC_FROM_RTC/CLOCK
  +--> CLOCK_ENABLE_INTERRUPT/CLOCK
  +--> CLOCK_DUMP/CLOCK

_CLOCK_SYNC_FROM_RTC/CLOCK                    ----- -----  ----- -----  0013H 0013H
  +--> _DEBUG_PRINTF/DEBUG
  +--> _RTC_READ_DATA/RTC
  +--> RTC_TIME_GET_HOUR/RTC
  +--> RTC_TIME_GET_MIN/RTC
  +--> RTC_TIME_GET_SEC/RTC
  +--> RTC_TIME_GET_HOUR_12/RTC
  +--> RTC_DATE_GET_YEAR/RTC
  +--> RTC_DATE_GET_MONTH/RTC
  +--> RTC_DATE_GET_DATE/RTC
  +--> RTC_DATE_GET_DAY/RTC

RTC_TIME_GET_MIN/RTC                          ----- -----  ----- -----  ----- -----
  +--> __RTC_GET_MIN_SEC/RTC

__RTC_GET_MIN_SEC/RTC                         ----- -----  ----- -----  ----- -----
  +--> RTC

RTC_TIME_GET_SEC/RTC                          ----- -----  ----- -----  ----- -----
  +--> __RTC_GET_MIN_SEC/RTC

RTC_TIME_GET_HOUR_12/RTC                      ----- -----  ----- -----  ----- -----
  +--> __RTC_GET_HOUR_12/RTC

__RTC_GET_HOUR_12/RTC                         ----- -----  ----- -----  ----- -----

RTC_DATE_GET_DAY/RTC                          ----- -----  ----- -----  ----- -----

CLOCK_ENABLE_INTERRUPT/CLOCK                  20H.2 20H.2  ----- -----  ----- -----

CLOCK_DUMP/CLOCK                              ----- -----  ----- -----  ----- -----
  +--> _DEBUG_PRINTF/DEBUG

KEY_INITIALIZE/KEY                            ----- -----  ----- -----  ----- -----
  +--> _DEBUG_PRINTF/DEBUG

LED_INITIALIZE/LED                            ----- -----  ----- -----  ----- -----
  +--> _DEBUG_PRINTF/DEBUG
  +--> LED
  +--> REFRESH_LED/LED
  +--> _DELAY_MS/MISC

LED                                           ----- -----  ----- -----  ----- -----

REFRESH_LED/LED                               ----- -----  ----- -----  ----- -----

_DELAY_MS/MISC                                ----- -----  ----- -----  ----- -----
  +--> INTERNAL_DELAY_MS/MISC

INTERNAL_DELAY_MS/MISC                        ----- -----  ----- -----  ----- -----

POWER_INITIALIZE/POWER                        ----- -----  ----- -----  ----- -----
  +--> _DEBUG_PRINTF/DEBUG
  +--> _ROM_READ/ROM

ALARM_INITIALIZE/ALARM                        ----- -----  ----- -----  ----- -----
  +--> _DEBUG_PRINTF/DEBUG
  +--> ALARM_LOAD_ROM/ALARM
  +--> ALARM_DUMP/ALARM
LX51 LINKER/LOCATER V4.66.87.0                                                        05/29/2018  21:11:03  PAGE 20



ALARM_LOAD_ROM/ALARM                          ----- -----  ----- -----  ----- -----
  +--> _ROM_READ/ROM

ALARM_DUMP/ALARM                              ----- -----  ----- -----  ----- -----
  +--> ALARM
  +--> _DEBUG_PRINTF/DEBUG

ALARM                                         ----- -----  ----- -----  ----- -----

LT_TIMER_INITIALIZE/LT_TIMER                  ----- -----  ----- -----  ----- -----
  +--> _DEBUG_PRINTF/DEBUG

TIMER_INITIALIZE/TIMER                        ----- -----  ----- -----  ----- -----
  +--> _DEBUG_PRINTF/DEBUG

BEEPER_INITIALIZE/BEEPER                      ----- -----  ----- -----  ----- -----
  +--> _DEBUG_PRINTF/DEBUG
  +--> _ROM_READ/ROM

THERMO_INITIALIZE/THERMO                      ----- -----  ----- -----  ----- -----
  +--> _DEBUG_PRINTF/DEBUG
  +--> THERMO_POWER_OFF/THERMO

THERMO_POWER_OFF/THERMO                       ----- -----  ----- -----  0015H 0015H
  +--> THERMO_LOAD_CONFIG/THERMO
  +--> _I2C_PUT/I2C
  +--> THERMO_HI_THRESHOLD_RESET/THERMO
  +--> THERMO_LO_THRESHOLD_RESET/THERMO
  +--> THERMO
  +--> _I2C_GET/I2C

THERMO_LOAD_CONFIG/THERMO                     ----- -----  ----- -----  ----- -----
  +--> _DEBUG_PRINTF/DEBUG
  +--> _ROM_READ/ROM

THERMO_HI_THRESHOLD_RESET/THERMO              ----- -----  ----- -----  ----- -----
  +--> _THERMO_HI_THRESHOLD_SET/THERMO

_THERMO_HI_THRESHOLD_SET/THERMO               ----- -----  ----- -----  0016H 0018H
  +--> THERMO
  +--> _DEBUG_PRINTF/DEBUG
  +--> _THERMO_TEMP_TO_HEX/THERMO
  +--> _I2C_PUTS/I2C

THERMO                                        ----- -----  ----- -----  ----- -----

_THERMO_TEMP_TO_HEX/THERMO                    ----- -----  ----- -----  0019H 001AH
  +--> _DEBUG_PRINTF/DEBUG

THERMO_LO_THRESHOLD_RESET/THERMO              ----- -----  ----- -----  ----- -----
  +--> _THERMO_LO_THRESHOLD_SET/THERMO

_THERMO_LO_THRESHOLD_SET/THERMO               ----- -----  ----- -----  0016H 0018H
  +--> _DEBUG_PRINTF/DEBUG
  +--> _THERMO_TEMP_TO_HEX/THERMO
  +--> THERMO
  +--> _I2C_PUTS/I2C

FUSE_INITIALIZE/FUSE                          ----- -----  ----- -----  ----- -----
  +--> _DEBUG_PRINTF/DEBUG
  +--> FUSE_POWER_OFF/FUSE

FUSE_POWER_OFF/FUSE                           ----- -----  ----- -----  ----- -----
  +--> _SERIAL_SET_CTL_BIT/SERIAL_HUB
LX51 LINKER/LOCATER V4.66.87.0                                                        05/29/2018  21:11:03  PAGE 21


  +--> SERIAL_CTL_OUT/SERIAL_HUB

_SERIAL_SET_CTL_BIT/SERIAL_HUB                20H.2 20H.2  ----- -----  ----- -----
  +--> SERIAL_HUB

MPU_INITIALIZE/MPU                            ----- -----  ----- -----  ----- -----
  +--> _DEBUG_PRINTF/DEBUG
  +--> MPU_LOAD_CONFIG/MPU
  +--> MPU_POWER_OFF/MPU

MPU_LOAD_CONFIG/MPU                           ----- -----  ----- -----  ----- -----
  +--> _DEBUG_PRINTF/DEBUG
  +--> _ROM_READ/ROM

MPU_POWER_OFF/MPU                             ----- -----  ----- -----  0015H 0015H
  +--> _DEBUG_PRINTF/DEBUG
  +--> _I2C_PUT/I2C
  +--> MPU
  +--> _I2C_GET/I2C

MPU                                           ----- -----  ----- -----  ----- -----

HG_INITIALIZE/HG                              ----- -----  ----- -----  ----- -----
  +--> _DEBUG_PRINTF/DEBUG
  +--> HG_POWER_OFF/HG

HG_POWER_OFF/HG                               ----- -----  ----- -----  ----- -----
  +--> _SERIAL_SET_CTL_BIT/SERIAL_HUB
  +--> SERIAL_CTL_OUT/SERIAL_HUB

INT_HUB_INITIALIZE/INT_HUB                    ----- -----  ----- -----  0000H 0000H
  +--> _DEBUG_PRINTF/DEBUG
  +--> _I2C_PUT/I2C
  +--> _I2C_GET/I2C

TASK_INITIALIZE/TASK                          ----- -----  ----- -----  ----- -----
  +--> _DEBUG_PRINTF/DEBUG

_TIME_PROC/SM                                 ----- -----  ----- -----  000CH 000CH
  +--> DELAY_TASK_CALL/DELAY_TASK
  +--> _RUN_STATE_MACHINE/SM

DELAY_TASK_CALL/DELAY_TASK                    ----- -----  ----- -----  000DH 000DH
  +--> DELAY_TASK
  +--> _DEBUG_PRINTF/DEBUG

DELAY_TASK                                    ----- -----  ----- -----  ----- -----

_RUN_STATE_MACHINE/SM                         ----- -----  ----- -----  000DH 0010H
  +--> SM
  +--> _DEBUG_PRINTF/DEBUG

SM                                            ----- -----  ----- -----  ----- -----

_SM_CLOCK_DISPLAY_SUBMOD0/SM_CLOCK_DISPL+     ----- -----  ----- -----  0011H 0012H
... AY
  +--> SM_CLOCK_DISPLAY
  +--> _DEBUG_PRINTF/DEBUG
  +--> LED_CLEAR/LED
  +--> CLOCK_DISPLAY/CLOCK
  +--> _CLOCK_SWITCH_DISPLAY_MODE/CLOCK
  +--> POWER_RESET_POWERSAVE_TO/POWER
  +--> POWER_TEST_POWERSAVE_TO/POWER

SM_CLOCK_DISPLAY                              ----- -----  ----- -----  ----- -----
LX51 LINKER/LOCATER V4.66.87.0                                                        05/29/2018  21:11:03  PAGE 22



LED_CLEAR/LED                                 ----- -----  ----- -----  ----- -----

CLOCK_DISPLAY/CLOCK                           20H.0 20H.0  ----- -----  ----- -----

_CLOCK_SWITCH_DISPLAY_MODE/CLOCK              ----- -----  ----- -----  ----- -----

POWER_RESET_POWERSAVE_TO/POWER                ----- -----  ----- -----  ----- -----
  +--> CLOCK_GET_SEC_256/CLOCK

CLOCK_GET_SEC_256/CLOCK                       ----- -----  ----- -----  ----- -----

POWER_TEST_POWERSAVE_TO/POWER                 ----- -----  ----- -----  ----- -----
  +--> CLOCK_GET_SEC_256/CLOCK
  +--> _DEBUG_PRINTF/DEBUG

_SM_CLOCK_DISPLAY_SUBMOD1/SM_CLOCK_DISPL+     ----- -----  ----- -----  0011H 0011H
... AY
  +--> SM_CLOCK_DISPLAY
  +--> _DEBUG_PRINTF/DEBUG
  +--> _CLOCK_SWITCH_DISPLAY_MODE/CLOCK
  +--> RESET_AUTO_SWITCH/SM_CLOCK_DISPLAY
  +--> POWER_RESET_POWERSAVE_TO/POWER
  +--> TEST_AUTOSWITCH/SM_CLOCK_DISPLAY

RESET_AUTO_SWITCH/SM_CLOCK_DISPLAY            ----- -----  ----- -----  ----- -----
  +--> CLOCK_GET_SEC_256/CLOCK

TEST_AUTOSWITCH/SM_CLOCK_DISPLAY              ----- -----  ----- -----  ----- -----
  +--> CLOCK_GET_SEC_256/CLOCK
  +--> _DEBUG_PRINTF/DEBUG

_SM_CLOCK_MOD_TIME_INIT/SM_CLOCK_MOD_TIM+     ----- -----  ----- -----  ----- -----
... E
  +--> SM_CLOCK_MOD_TIME
  +--> _DEBUG_PRINTF/DEBUG
  +--> CLOCK_DISPLAY/CLOCK
  +--> _DISPLAY_LOGO/MOD_COMMON

SM_CLOCK_MOD_TIME                             ----- -----  ----- -----  ----- -----

_DISPLAY_LOGO/MOD_COMMON                      ----- -----  ----- -----  0012H 0013H
  +--> _DEBUG_PRINTF/DEBUG
  +--> LED_CLEAR/LED
  +--> _LED_SET_CODE/LED
  +--> BEEPER_BEEP_BEEP_ALWAYS/BEEPER

_LED_SET_CODE/LED                             ----- -----  ----- -----  ----- -----

BEEPER_BEEP_BEEP_ALWAYS/BEEPER                ----- -----  ----- -----  0014H 0014H
  +--> _DEBUG_PRINTF/DEBUG
  +--> _DELAY_10US/MISC
  +--> _DELAY_MS/MISC

_DELAY_10US/MISC                              ----- -----  ----- -----  ----- -----
  +--> INTERNAL_DELAY_10US/MISC

INTERNAL_DELAY_10US/MISC                      ----- -----  ----- -----  ----- -----

_SM_CLOCK_ALARM/SM_CLOCK_ALARM                ----- -----  ----- -----  0011H 0012H
  +--> _DEBUG_PRINTF/DEBUG
  +--> SM_CLOCK_ALARM
  +--> CLOCK_DISPLAY/CLOCK
  +--> _DISPLAY_ALARM/SM_CLOCK_ALARM
  +--> BEEPER_PLAY_MUSIC/BEEPER
LX51 LINKER/LOCATER V4.66.87.0                                                        05/29/2018  21:11:03  PAGE 23


  +--> BEEPER_BEEP_BEEP_ALWAYS/BEEPER

SM_CLOCK_ALARM                                ----- -----  ----- -----  ----- -----

_DISPLAY_ALARM/SM_CLOCK_ALARM                 20H.0 20H.0  ----- -----  0013H 0015H
  +--> LED_CLEAR/LED
  +--> _LED_SET_CODE/LED
  +--> ALARM0_GET_HOUR/ALARM
  +--> ALARM0_GET_MIN/ALARM
  +--> ALARM0_GET_HOUR_12/ALARM
  +--> CLOCK_GET_HOUR/CLOCK
  +--> CLOCK_GET_MIN/CLOCK
  +--> CLOCK_GET_HOUR_12/CLOCK
  +--> _LED_SET_DP/LED
  +--> _LED_CLR_DP/LED

ALARM0_GET_HOUR/ALARM                         ----- -----  ----- -----  ----- -----

ALARM0_GET_MIN/ALARM                          ----- -----  ----- -----  ----- -----

ALARM0_GET_HOUR_12/ALARM                      ----- -----  ----- -----  ----- -----

CLOCK_GET_HOUR/CLOCK                          ----- -----  ----- -----  ----- -----

CLOCK_GET_MIN/CLOCK                           ----- -----  ----- -----  ----- -----

CLOCK_GET_HOUR_12/CLOCK                       ----- -----  ----- -----  ----- -----

_LED_SET_DP/LED                               ----- -----  ----- -----  ----- -----

_LED_CLR_DP/LED                               ----- -----  ----- -----  ----- -----

BEEPER_PLAY_MUSIC/BEEPER                      ----- -----  ----- -----  ----- -----
  +--> _DEBUG_PRINTF/DEBUG
  +--> __BEEPLER_PLAY/BEEPER

__BEEPLER_PLAY/BEEPER                         20H.0 20H.0  ----- -----  0013H 0018H
  +--> BEEPER
  +--> CLOCK_GET_SEC_256/CLOCK
  +--> _BEEPER_STOP_PLAY/BEEPER
  +--> _DELAY_MS/MISC
  +--> _DELAY_10US/MISC

BEEPER                                        ----- -----  ----- -----  ----- -----

_BEEPER_STOP_PLAY/BEEPER                      ----- -----  ----- -----  ----- -----

_SM_CLOCK_POWERSAVE/SM_CLOCK_POWERSAVE        ----- -----  ----- -----  0011H 0012H
  +--> _DEBUG_PRINTF/DEBUG
  +--> POWER_ENTER_POWERSAVE/POWER
  +--> POWER_LEAVE_POWERSAVE/POWER

POWER_ENTER_POWERSAVE/POWER                   ----- -----  ----- -----  ----- -----
  +--> _DEBUG_PRINTF/DEBUG
  +--> POWER_SET_FLAG/POWER
  +--> LED_ENTER_POWERSAVE/LED
  +--> TIMER_ENTER_POWERSAVE/TIMER
  +--> LT_TIMER_ENTER_POWERSAVE/LT_TIMER
  +--> CLOCK_ENTER_POWERSAVE/CLOCK
  +--> RTC_ENTER_POWERSAVE/RTC
  +--> KEY_ENTER_POWERSAVE/KEY
  +--> ALARM_ENTER_POWERSAVE/ALARM
  +--> BEEPER_ENTER_POWERSAVE/BEEPER
  +--> FUSE_ENTER_POWERSAVE/FUSE
  +--> HG_ENTER_POWERSAVE/HG
LX51 LINKER/LOCATER V4.66.87.0                                                        05/29/2018  21:11:03  PAGE 24


  +--> MPU_ENTER_POWERSAVE/MPU
  +--> THERMO_ENTER_POWERSAVE/THERMO
  +--> COM_ENTER_POWERSAVE/COM
  +--> POWER_TEST_FLAG/POWER
  +--> COM_LEAVE_POWERSAVE/COM
  +--> _SCAN_INT_HUB_PROC/INT_HUB

POWER_SET_FLAG/POWER                          ----- -----  ----- -----  ----- -----

LED_ENTER_POWERSAVE/LED                       ----- -----  ----- -----  ----- -----
  +--> _DEBUG_PRINTF/DEBUG
  +--> LED
  +--> LED_CLEAR/LED

TIMER_ENTER_POWERSAVE/TIMER                   ----- -----  ----- -----  ----- -----
  +--> _DEBUG_PRINTF/DEBUG
  +--> TIMER_CLR/TIMER

TIMER_CLR/TIMER                               ----- -----  ----- -----  ----- -----

LT_TIMER_ENTER_POWERSAVE/LT_TIMER             ----- -----  ----- -----  ----- -----
  +--> _DEBUG_PRINTF/DEBUG
  +--> RTC_IS_LT_TIMER/RTC
  +--> LT_TIMER_STOP_RAM/LT_TIMER
  +--> LT_TIMER_START_RTC/LT_TIMER

RTC_IS_LT_TIMER/RTC                           ----- -----  ----- -----  ----- -----

LT_TIMER_STOP_RAM/LT_TIMER                    ----- -----  ----- -----  ----- -----
  +--> _DEBUG_PRINTF/DEBUG

LT_TIMER_START_RTC/LT_TIMER                   ----- -----  ----- -----  ----- -----
  +--> _DEBUG_PRINTF/DEBUG
  +--> _RTC_READ_DATA/RTC
  +--> _RTC_ENABLE_ALARM_INT/RTC
  +--> _RTC_CLR_ALARM_INT_FLAG/RTC
  +--> _RTC_WRITE_DATA/RTC

CLOCK_ENTER_POWERSAVE/CLOCK                   ----- -----  ----- -----  ----- -----
  +--> _DEBUG_PRINTF/DEBUG
  +--> CLOCK_ENABLE_INTERRUPT/CLOCK

RTC_ENTER_POWERSAVE/RTC                       ----- -----  ----- -----  ----- -----
  +--> _DEBUG_PRINTF/DEBUG
  +--> _RTC_READ_DATA/RTC
  +--> _RTC_WRITE_DATA/RTC

KEY_ENTER_POWERSAVE/KEY                       ----- -----  ----- -----  ----- -----
  +--> _DEBUG_PRINTF/DEBUG

ALARM_ENTER_POWERSAVE/ALARM                   ----- -----  ----- -----  ----- -----
  +--> _DEBUG_PRINTF/DEBUG

BEEPER_ENTER_POWERSAVE/BEEPER                 ----- -----  ----- -----  ----- -----
  +--> _DEBUG_PRINTF/DEBUG

FUSE_ENTER_POWERSAVE/FUSE                     ----- -----  ----- -----  ----- -----
  +--> _DEBUG_PRINTF/DEBUG

HG_ENTER_POWERSAVE/HG                         ----- -----  ----- -----  ----- -----
  +--> _DEBUG_PRINTF/DEBUG

MPU_ENTER_POWERSAVE/MPU                       ----- -----  ----- -----  ----- -----
  +--> _DEBUG_PRINTF/DEBUG

LX51 LINKER/LOCATER V4.66.87.0                                                        05/29/2018  21:11:03  PAGE 25


THERMO_ENTER_POWERSAVE/THERMO                 ----- -----  ----- -----  ----- -----
  +--> _DEBUG_PRINTF/DEBUG

COM_ENTER_POWERSAVE/COM                       ----- -----  ----- -----  ----- -----
  +--> _DEBUG_PRINTF/DEBUG

POWER_TEST_FLAG/POWER                         ----- -----  ----- -----  ----- -----

COM_LEAVE_POWERSAVE/COM                       ----- -----  ----- -----  ----- -----
  +--> _DEBUG_PRINTF/DEBUG

_SCAN_INT_HUB_PROC/INT_HUB                    ----- -----  ----- -----  0013H 0015H
  +--> _DEBUG_PRINTF/DEBUG
  +--> INT_HUB_DUMP/INT_HUB
  +--> SCAN_RTC/RTC
  +--> INT_HUB_GET_STATUS/INT_HUB
  +--> _INT_HUB_DUMP_EXT_STATUS/INT_HUB
  +--> _SCAN_HG/HG
  +--> _SCAN_FUSE/FUSE
  +--> SCAN_THERMO/THERMO
  +--> SCAN_MPU/MPU
  +--> INT_HUB

INT_HUB_DUMP/INT_HUB                          ----- -----  ----- -----  ----- -----
  +--> _DEBUG_PRINTF/DEBUG

SCAN_RTC/RTC                                  ----- -----  ----- -----  ----- -----
  +--> _DEBUG_PRINTF/DEBUG
  +--> SCAN_ALARM/ALARM
  +--> SCAN_LT_TIMER/LT_TIMER

SCAN_ALARM/ALARM                              20H.0 20H.1  ----- -----  ----- -----
  +--> _RTC_READ_DATA/RTC
  +--> _RTC_TEST_ALARM_INT_FLAG/RTC
  +--> _RTC_CLR_ALARM_INT_FLAG/RTC
  +--> _RTC_WRITE_DATA/RTC
  +--> CLOCK_GET_DAY/CLOCK
  +--> ALARM
  +--> POWER_TEST_FLAG/POWER
  +--> POWER_CLR_FLAG/POWER
  +--> RTC_TIME_GET_MIN/RTC
  +--> RTC_TIME_GET_SEC/RTC

_RTC_TEST_ALARM_INT_FLAG/RTC                  ----- -----  ----- -----  ----- -----

CLOCK_GET_DAY/CLOCK                           ----- -----  ----- -----  ----- -----

POWER_CLR_FLAG/POWER                          ----- -----  ----- -----  ----- -----

SCAN_LT_TIMER/LT_TIMER                        20H.0 20H.0  ----- -----  ----- -----
  +--> _DEBUG_PRINTF/DEBUG
  +--> _RTC_READ_DATA/RTC
  +--> _RTC_TEST_ALARM_INT_FLAG/RTC
  +--> _RTC_CLR_ALARM_INT_FLAG/RTC
  +--> _RTC_WRITE_DATA/RTC
  +--> LT_TIMER_GET_YEAR/LT_TIMER
  +--> RTC_DATE_GET_YEAR/RTC
  +--> LT_TIMER_GET_MONTH/LT_TIMER
  +--> RTC_DATE_GET_MONTH/RTC
  +--> POWER_TEST_FLAG/POWER
  +--> POWER_CLR_FLAG/POWER
  +--> LT_TIMER

LT_TIMER_GET_YEAR/LT_TIMER                    ----- -----  ----- -----  ----- -----

LX51 LINKER/LOCATER V4.66.87.0                                                        05/29/2018  21:11:03  PAGE 26


LT_TIMER_GET_MONTH/LT_TIMER                   ----- -----  ----- -----  ----- -----

LT_TIMER                                      ----- -----  ----- -----  ----- -----

INT_HUB_GET_STATUS/INT_HUB                    ----- -----  ----- -----  0016H 0018H
  +--> _I2C_GET/I2C
  +--> _DEBUG_PRINTF/DEBUG

_INT_HUB_DUMP_EXT_STATUS/INT_HUB              ----- -----  ----- -----  0016H 0017H
  +--> _DEBUG_PRINTF/DEBUG
  +--> _INT_HUB_TEST_BIT/INT_HUB
  +--> INT_HUB

_INT_HUB_TEST_BIT/INT_HUB                     ----- -----  ----- -----  ----- -----

INT_HUB                                       ----- -----  ----- -----  ----- -----

_SCAN_HG/HG                                   ----- -----  ----- -----  0016H 0018H
  +--> _DEBUG_PRINTF/DEBUG
  +--> __HG_GET_STATE/HG
  +--> HG
  +--> POWER_TEST_FLAG/POWER
  +--> POWER_CLR_FLAG/POWER

__HG_GET_STATE/HG                             ----- -----  ----- -----  ----- -----

HG                                            ----- -----  ----- -----  ----- -----

_SCAN_FUSE/FUSE                               20H.0 20H.0  ----- -----  0016H 0017H
  +--> _DEBUG_PRINTF/DEBUG
  +--> POWER_TEST_FLAG/POWER
  +--> POWER_CLR_FLAG/POWER

SCAN_THERMO/THERMO                            20H.0 20H.0  ----- -----  0016H 0019H
  +--> _DEBUG_PRINTF/DEBUG
  +--> _I2C_GET/I2C
  +--> THERMO
  +--> POWER_TEST_FLAG/POWER
  +--> POWER_CLR_FLAG/POWER

SCAN_MPU/MPU                                  20H.0 20H.0  ----- -----  ----- -----
  +--> _DEBUG_PRINTF/DEBUG
  +--> MPU_READ_INT_STATUS/MPU
  +--> POWER_TEST_FLAG/POWER
  +--> POWER_CLR_FLAG/POWER

MPU_READ_INT_STATUS/MPU                       ----- -----  ----- -----  0016H 0016H
  +--> _I2C_GET/I2C
  +--> _DEBUG_PRINTF/DEBUG

POWER_LEAVE_POWERSAVE/POWER                   ----- -----  ----- -----  ----- -----
  +--> COM_LEAVE_POWERSAVE/COM
  +--> THERMO_LEAVE_POWERSAVE/THERMO
  +--> MPU_LEAVE_POWERSAVE/MPU
  +--> HG_LEAVE_POWERSAVE/HG
  +--> FUSE_LEAVE_POWERSAVE/FUSE
  +--> BEEPER_LEAVE_POWERSAVE/BEEPER
  +--> ALARM_LEAVE_POWERSAVE/ALARM
  +--> KEY_LEAVE_POWERSAVE/KEY
  +--> RTC_LEAVE_POWERSAVE/RTC
  +--> CLOCK_LEAVE_POWERSAVE/CLOCK
  +--> LT_TIMER_LEAVE_POWERSAVE/LT_TIMER
  +--> TIMER_LEAVE_POWERSAVE/TIMER
  +--> LED_LEAVE_POWERSAVE/LED
  +--> _DEBUG_PRINTF/DEBUG
LX51 LINKER/LOCATER V4.66.87.0                                                        05/29/2018  21:11:03  PAGE 27



THERMO_LEAVE_POWERSAVE/THERMO                 ----- -----  ----- -----  ----- -----
  +--> _DEBUG_PRINTF/DEBUG

MPU_LEAVE_POWERSAVE/MPU                       ----- -----  ----- -----  ----- -----
  +--> _DEBUG_PRINTF/DEBUG

HG_LEAVE_POWERSAVE/HG                         ----- -----  ----- -----  ----- -----
  +--> _DEBUG_PRINTF/DEBUG

FUSE_LEAVE_POWERSAVE/FUSE                     ----- -----  ----- -----  ----- -----
  +--> _DEBUG_PRINTF/DEBUG

BEEPER_LEAVE_POWERSAVE/BEEPER                 ----- -----  ----- -----  ----- -----
  +--> _DEBUG_PRINTF/DEBUG

ALARM_LEAVE_POWERSAVE/ALARM                   ----- -----  ----- -----  ----- -----
  +--> _DEBUG_PRINTF/DEBUG

KEY_LEAVE_POWERSAVE/KEY                       ----- -----  ----- -----  ----- -----
  +--> _DEBUG_PRINTF/DEBUG

RTC_LEAVE_POWERSAVE/RTC                       ----- -----  ----- -----  ----- -----
  +--> _DEBUG_PRINTF/DEBUG
  +--> _RTC_READ_DATA/RTC
  +--> RTC
  +--> _RTC_WRITE_DATA/RTC

CLOCK_LEAVE_POWERSAVE/CLOCK                   ----- -----  ----- -----  ----- -----
  +--> _DEBUG_PRINTF/DEBUG
  +--> _CLOCK_SYNC_FROM_RTC/CLOCK
  +--> CLOCK_ENABLE_INTERRUPT/CLOCK

LT_TIMER_LEAVE_POWERSAVE/LT_TIMER             ----- -----  ----- -----  ----- -----
  +--> _DEBUG_PRINTF/DEBUG
  +--> RTC_IS_LT_TIMER/RTC
  +--> LT_TIMER_STOP_RTC/LT_TIMER
  +--> LT_TIMER_LOAD_FROM_ROM/LT_TIMER
  +--> LT_TIMER_GET_RELATIVE/LT_TIMER
  +--> LT_TIMER
  +--> LT_TIMER_START_RAM/LT_TIMER

LT_TIMER_STOP_RTC/LT_TIMER                    ----- -----  ----- -----  ----- -----
  +--> _DEBUG_PRINTF/DEBUG
  +--> _RTC_READ_DATA/RTC
  +--> _RTC_ENABLE_ALARM_INT/RTC
  +--> _RTC_CLR_ALARM_INT_FLAG/RTC
  +--> _RTC_WRITE_DATA/RTC

LT_TIMER_LOAD_FROM_ROM/LT_TIMER               ----- -----  ----- -----  ----- -----
  +--> _ROM_READ/ROM

LT_TIMER_GET_RELATIVE/LT_TIMER                20H.0 20H.1  ----- -----  ----- -----
  +--> CLOCK_ENABLE_INTERRUPT/CLOCK
  +--> LT_TIMER_SUB_SEC_MIN/LT_TIMER
  +--> LT_TIMER_SUB_MIN_HOUR/LT_TIMER
  +--> LT_TIMER_SUB_HOUR_DATE/LT_TIMER
  +--> LT_TIMER_SUB_DATE/LT_TIMER
  +--> LT_TIMER
  +--> _DEBUG_PRINTF/DEBUG

LT_TIMER_SUB_SEC_MIN/LT_TIMER                 20H.2 20H.2  ----- -----  ----- -----
  +--> CLOCK_GET_SEC/CLOCK

CLOCK_GET_SEC/CLOCK                           ----- -----  ----- -----  ----- -----
LX51 LINKER/LOCATER V4.66.87.0                                                        05/29/2018  21:11:03  PAGE 28



LT_TIMER_SUB_MIN_HOUR/LT_TIMER                20H.2 20H.3  ----- -----  ----- -----
  +--> CLOCK_GET_MIN/CLOCK
  +--> LT_TIMER

LT_TIMER_SUB_HOUR_DATE/LT_TIMER               20H.2 20H.3  ----- -----  ----- -----
  +--> CLOCK_GET_HOUR/CLOCK
  +--> LT_TIMER

LT_TIMER_SUB_DATE/LT_TIMER                    20H.2 20H.2  ----- -----  0015H 0016H
  +--> CLOCK_GET_YEAR/CLOCK
  +--> _CLOCK_IS_LEAP_YEAR/CLOCK
  +--> LT_TIMER
  +--> CLOCK_GET_MONTH/CLOCK
  +--> CLOCK_GET_DATE/CLOCK

CLOCK_GET_YEAR/CLOCK                          ----- -----  ----- -----  ----- -----

CLOCK_GET_MONTH/CLOCK                         ----- -----  ----- -----  ----- -----

CLOCK_GET_DATE/CLOCK                          ----- -----  ----- -----  ----- -----

LT_TIMER_START_RAM/LT_TIMER                   ----- -----  ----- -----  ----- -----
  +--> _DEBUG_PRINTF/DEBUG

TIMER_LEAVE_POWERSAVE/TIMER                   ----- -----  ----- -----  ----- -----
  +--> _DEBUG_PRINTF/DEBUG

LED_LEAVE_POWERSAVE/LED                       ----- -----  ----- -----  ----- -----
  +--> _DEBUG_PRINTF/DEBUG
  +--> LED_CLEAR/LED

_SM_CLOCK_TIMER_INIT/SM_CLOCK_TIMER           ----- -----  ----- -----  ----- -----
  +--> SM_CLOCK_TIMER
  +--> _DEBUG_PRINTF/DEBUG
  +--> CLOCK_DISPLAY/CLOCK
  +--> _DISPLAY_LOGO/MOD_COMMON

SM_CLOCK_TIMER                                ----- -----  ----- -----  ----- -----

_SM_POWER_PACK_DISPLAY_INIT/SM_POWER_PAC+     ----- -----  ----- -----  ----- -----
... K_DISPLAY
  +--> SM_POWER_PACK_DISPLAY
  +--> _DEBUG_PRINTF/DEBUG
  +--> CLOCK_DISPLAY/CLOCK
  +--> _DISPLAY_LOGO/MOD_COMMON

SM_POWER_PACK_DISPLAY                         ----- -----  ----- -----  ----- -----

_SM_CLOCK_DISPLAY_SUBMOD2/SM_CLOCK_DISPL+     ----- -----  ----- -----  0011H 0011H
... AY
  +--> SM_CLOCK_DISPLAY
  +--> _DEBUG_PRINTF/DEBUG
  +--> _CLOCK_SWITCH_DISPLAY_MODE/CLOCK
  +--> RESET_AUTO_SWITCH/SM_CLOCK_DISPLAY
  +--> POWER_RESET_POWERSAVE_TO/POWER
  +--> TEST_AUTOSWITCH/SM_CLOCK_DISPLAY

_SM_CLOCK_DISPLAY_SUBMOD3/SM_CLOCK_DISPL+     ----- -----  ----- -----  0011H 0011H
... AY
  +--> SM_CLOCK_DISPLAY
  +--> _DEBUG_PRINTF/DEBUG
  +--> CLOCK_DISPLAY/CLOCK
  +--> DISPLAY_TEMP/SM_CLOCK_DISPLAY
  +--> RESET_AUTO_SWITCH/SM_CLOCK_DISPLAY
LX51 LINKER/LOCATER V4.66.87.0                                                        05/29/2018  21:11:03  PAGE 29


  +--> POWER_RESET_POWERSAVE_TO/POWER
  +--> TEST_AUTOSWITCH/SM_CLOCK_DISPLAY

DISPLAY_TEMP/SM_CLOCK_DISPLAY                 20H.0 20H.0  ----- -----  0012H 0013H
  +--> _RTC_READ_DATA/RTC
  +--> _RTC_GET_TEMPERATURE/RTC
  +--> _DEBUG_PRINTF/DEBUG
  +--> LED_CLEAR/LED
  +--> _LED_SET_DP/LED
  +--> _LED_SET_CODE/LED
  +--> SM_CLOCK_DISPLAY

_RTC_GET_TEMPERATURE/RTC                      20H.1 20H.1  ----- -----  0014H 001DH
  +--> RTC

_SM_CLOCK_MOD_TIME_SUBMOD0/SM_CLOCK_MOD_+     ----- -----  ----- -----  0011H 0012H
... TIME
  +--> SM_CLOCK_MOD_TIME
  +--> _DEBUG_PRINTF/DEBUG
  +--> _SM_CLOCK_MOD_TIME/SM_CLOCK_MOD_TIME

_SM_CLOCK_MOD_TIME/SM_CLOCK_MOD_TIME          ----- -----  ----- -----  0013H 0014H
  +--> _ENTER_HHMMSS/SM_CLOCK_MOD_TIME
  +--> _ENTER_YYMMDD/SM_CLOCK_MOD_TIME
  +--> _INC_AND_WRITE/SM_CLOCK_MOD_TIME
  +--> _INC_ONLY/SM_CLOCK_MOD_TIME
  +--> _WRITE_ONLY/SM_CLOCK_MOD_TIME
  +--> UPDATE_HHMMSS/SM_CLOCK_MOD_TIME
  +--> UPDATE_YYMMDD/SM_CLOCK_MOD_TIME

_ENTER_HHMMSS/SM_CLOCK_MOD_TIME               ----- -----  ----- -----  0015H 0015H
  +--> LED_CLEAR/LED
  +--> _LED_SET_BLINK/LED
  +--> UPDATE_HHMMSS/SM_CLOCK_MOD_TIME

_LED_SET_BLINK/LED                            ----- -----  ----- -----  ----- -----

UPDATE_HHMMSS/SM_CLOCK_MOD_TIME               ----- -----  ----- -----  0017H 0019H
  +--> CLOCK_GET_HOUR/CLOCK
  +--> CLOCK_GET_MIN/CLOCK
  +--> CLOCK_GET_SEC/CLOCK
  +--> _LED_SET_DP/LED
  +--> CLOCK_GET_HOUR_12/CLOCK
  +--> _LED_CLR_DP/LED
  +--> _DEBUG_PRINTF/DEBUG
  +--> _LED_SET_CODE/LED
  +--> SM_CLOCK_MOD_TIME

_ENTER_YYMMDD/SM_CLOCK_MOD_TIME               ----- -----  ----- -----  0015H 0015H
  +--> LED_CLEAR/LED
  +--> _LED_SET_BLINK/LED
  +--> UPDATE_YYMMDD/SM_CLOCK_MOD_TIME

UPDATE_YYMMDD/SM_CLOCK_MOD_TIME               ----- -----  ----- -----  0017H 0019H
  +--> CLOCK_GET_YEAR/CLOCK
  +--> CLOCK_GET_MONTH/CLOCK
  +--> CLOCK_GET_DATE/CLOCK
  +--> _LED_SET_DP/LED
  +--> _DEBUG_PRINTF/DEBUG
  +--> _LED_SET_CODE/LED
  +--> SM_CLOCK_MOD_TIME

_INC_AND_WRITE/SM_CLOCK_MOD_TIME              ----- -----  ----- -----  0015H 0015H
  +--> _INC_ONLY/SM_CLOCK_MOD_TIME
  +--> _WRITE_ONLY/SM_CLOCK_MOD_TIME
LX51 LINKER/LOCATER V4.66.87.0                                                        05/29/2018  21:11:03  PAGE 30



_INC_ONLY/SM_CLOCK_MOD_TIME                   ----- -----  ----- -----  0016H 0016H
  +--> CLOCK_INC_HOUR/CLOCK
  +--> CLOCK_INC_YEAR/CLOCK
  +--> CLOCK_INC_MIN/CLOCK
  +--> CLOCK_INC_MONTH/CLOCK
  +--> _LED_CLR_BLINK/LED
  +--> CLOCK_CLR_SEC/CLOCK
  +--> CLOCK_INC_DATE/CLOCK
  +--> UPDATE_HHMMSS/SM_CLOCK_MOD_TIME
  +--> UPDATE_YYMMDD/SM_CLOCK_MOD_TIME

CLOCK_INC_HOUR/CLOCK                          ----- -----  ----- -----  ----- -----

CLOCK_INC_YEAR/CLOCK                          ----- -----  ----- -----  ----- -----
  +--> CLOCK
  +--> _CLOCK_YYMMDD_TO_DAY/CLOCK

CLOCK_INC_MIN/CLOCK                           ----- -----  ----- -----  ----- -----

CLOCK_INC_MONTH/CLOCK                         ----- -----  ----- -----  ----- -----
  +--> CLOCK
  +--> _CLOCK_YYMMDD_TO_DAY/CLOCK

_LED_CLR_BLINK/LED                            ----- -----  ----- -----  ----- -----

CLOCK_CLR_SEC/CLOCK                           ----- -----  ----- -----  ----- -----

CLOCK_INC_DATE/CLOCK                          ----- -----  ----- -----  ----- -----
  +--> _CLOCK_GET_MON_DATE/CLOCK
  +--> CLOCK
  +--> _CLOCK_YYMMDD_TO_DAY/CLOCK

_CLOCK_GET_MON_DATE/CLOCK                     ----- -----  ----- -----  ----- -----
  +--> CLOCK

_WRITE_ONLY/SM_CLOCK_MOD_TIME                 ----- -----  ----- -----  ----- -----
  +--> _CLOCK_SYNC_TO_RTC/CLOCK
  +--> _LED_SET_BLINK/LED

_CLOCK_SYNC_TO_RTC/CLOCK                      ----- -----  ----- -----  0016H 0016H
  +--> _DEBUG_PRINTF/DEBUG
  +--> CLOCK_ENABLE_INTERRUPT/CLOCK
  +--> _RTC_READ_DATA/RTC
  +--> _RTC_TIME_SET_HOUR/RTC
  +--> _RTC_TIME_SET_MIN/RTC
  +--> _RTC_TIME_SET_SEC/RTC
  +--> RTC_TIME_SET_HOUR_12/RTC
  +--> _RTC_DATE_SET_YEAR/RTC
  +--> _RTC_DATE_SET_MONTH/RTC
  +--> _RTC_DATE_SET_DATE/RTC
  +--> _RTC_WRITE_DATA/RTC

_SM_CLOCK_MOD_TIME_SUBMOD1/SM_CLOCK_MOD_+     ----- -----  ----- -----  0011H 0011H
... TIME
  +--> SM_CLOCK_MOD_TIME
  +--> _DEBUG_PRINTF/DEBUG
  +--> _SM_CLOCK_MOD_TIME/SM_CLOCK_MOD_TIME

_SM_CLOCK_MOD_ALARM_INIT/SM_CLOCK_MOD_AL+     ----- -----  ----- -----  ----- -----
... ARM
  +--> SM_CLOCK_MOD_ALARM
  +--> _DEBUG_PRINTF/DEBUG
  +--> _DISPLAY_LOGO/MOD_COMMON

LX51 LINKER/LOCATER V4.66.87.0                                                        05/29/2018  21:11:03  PAGE 31


SM_CLOCK_MOD_ALARM                            ----- -----  ----- -----  ----- -----

_SM_CLOCK_MOD_TIME_SUBMOD2/SM_CLOCK_MOD_+     ----- -----  ----- -----  0011H 0011H
... TIME
  +--> SM_CLOCK_MOD_TIME
  +--> _DEBUG_PRINTF/DEBUG
  +--> _SM_CLOCK_MOD_TIME/SM_CLOCK_MOD_TIME

_SM_CLOCK_MOD_TIME_SUBMOD3/SM_CLOCK_MOD_+     ----- -----  ----- -----  0011H 0011H
... TIME
  +--> SM_CLOCK_MOD_TIME
  +--> _DEBUG_PRINTF/DEBUG
  +--> _SM_CLOCK_MOD_TIME/SM_CLOCK_MOD_TIME

_SM_CLOCK_MOD_TIME_SUBMOD4/SM_CLOCK_MOD_+     ----- -----  ----- -----  0011H 0011H
... TIME
  +--> SM_CLOCK_MOD_TIME
  +--> _DEBUG_PRINTF/DEBUG
  +--> _SM_CLOCK_MOD_TIME/SM_CLOCK_MOD_TIME

_SM_CLOCK_MOD_TIME_SUBMOD5/SM_CLOCK_MOD_+     ----- -----  ----- -----  0011H 0011H
... TIME
  +--> SM_CLOCK_MOD_TIME
  +--> _DEBUG_PRINTF/DEBUG
  +--> _SM_CLOCK_MOD_TIME/SM_CLOCK_MOD_TIME

_SM_CLOCK_MOD_ALARM_SUBMOD0/SM_CLOCK_MOD+     ----- -----  ----- -----  0011H 0012H
... _ALARM
  +--> SM_CLOCK_MOD_ALARM
  +--> _DEBUG_PRINTF/DEBUG
  +--> _ENTER_ALARM/SM_CLOCK_MOD_ALARM
  +--> _INC_WRITE/SM_CLOCK_MOD_ALARM
  +--> _INC_ONLY/SM_CLOCK_MOD_ALARM
  +--> _WRITE_ONLY/SM_CLOCK_MOD_ALARM

_ENTER_ALARM/SM_CLOCK_MOD_ALARM               ----- -----  ----- -----  0013H 0014H
  +--> LED_CLEAR/LED
  +--> _LED_SET_BLINK/LED
  +--> _UPDATE_ALARM/SM_CLOCK_MOD_ALARM

_UPDATE_ALARM/SM_CLOCK_MOD_ALARM              ----- -----  ----- -----  0015H 0018H
  +--> ALARM0_GET_HOUR/ALARM
  +--> ALARM0_GET_MIN/ALARM
  +--> _LED_SET_DP/LED
  +--> ALARM0_GET_HOUR_12/ALARM
  +--> _LED_CLR_DP/LED
  +--> _DEBUG_PRINTF/DEBUG
  +--> _LED_SET_CODE/LED
  +--> _ALARM0_TEST_ENABLE/ALARM
  +--> ALARM1_TEST_ENABLE/ALARM
  +--> BEEPER_GET_MUSIC_INDEX/BEEPER

_ALARM0_TEST_ENABLE/ALARM                     ----- -----  ----- -----  0019H 0019H
  +--> ALARM
  +--> _DEBUG_PRINTF/DEBUG

ALARM1_TEST_ENABLE/ALARM                      ----- -----  ----- -----  ----- -----

BEEPER_GET_MUSIC_INDEX/BEEPER                 ----- -----  ----- -----  ----- -----

_INC_WRITE/SM_CLOCK_MOD_ALARM                 ----- -----  ----- -----  0013H 0013H
  +--> _INC_ONLY/SM_CLOCK_MOD_ALARM
  +--> _WRITE_ONLY/SM_CLOCK_MOD_ALARM

_INC_ONLY/SM_CLOCK_MOD_ALARM                  ----- -----  ----- -----  ----- -----
LX51 LINKER/LOCATER V4.66.87.0                                                        05/29/2018  21:11:03  PAGE 32


  +--> _LED_CLR_BLINK/LED
  +--> ALARM0_INC_HOUR/ALARM
  +--> ALARM0_INC_MIN/ALARM
  +--> _UPDATE_ALARM/SM_CLOCK_MOD_ALARM

ALARM0_INC_HOUR/ALARM                         ----- -----  ----- -----  ----- -----

ALARM0_INC_MIN/ALARM                          ----- -----  ----- -----  ----- -----

_WRITE_ONLY/SM_CLOCK_MOD_ALARM                ----- -----  ----- -----  0014H 0014H
  +--> ALARM0_SYNC_TO_RTC/ALARM
  +--> _LED_SET_BLINK/LED
  +--> ALARM0_GET_HOUR/ALARM
  +--> ALARM0_GET_MIN/ALARM
  +--> ALARM0_GET_DAY_MASK/ALARM
  +--> _ROM_WRITE/ROM

ALARM0_SYNC_TO_RTC/ALARM                      ----- -----  ----- -----  ----- -----
  +--> _DEBUG_PRINTF/DEBUG
  +--> _RTC_READ_DATA/RTC
  +--> _RTC_ALARM_SET_MODE/RTC
  +--> _RTC_ALARM_SET_HOUR/RTC
  +--> _RTC_ALARM_SET_MIN/RTC
  +--> _RTC_ALARM_SET_SEC/RTC
  +--> RTC_ALARM_SET_HOUR_12/RTC
  +--> _RTC_WRITE_DATA/RTC
  +--> _RTC_ENABLE_ALARM_INT/RTC
  +--> _RTC_CLR_ALARM_INT_FLAG/RTC

_RTC_ALARM_SET_MODE/RTC                       ----- -----  ----- -----  ----- -----
  +--> RTC

_RTC_ALARM_SET_HOUR/RTC                       ----- -----  ----- -----  ----- -----
  +--> RTC
  +--> __RTC_SET_HOUR/RTC

_RTC_ALARM_SET_MIN/RTC                        ----- -----  ----- -----  ----- -----
  +--> RTC
  +--> __RTC_SET_MIN_SEC/RTC

_RTC_ALARM_SET_SEC/RTC                        ----- -----  ----- -----  ----- -----
  +--> RTC

RTC_ALARM_SET_HOUR_12/RTC                     20H.0 20H.0  ----- -----  ----- -----
  +--> RTC
  +--> _RTC_SET_HOUR_12/RTC

ALARM0_GET_DAY_MASK/ALARM                     ----- -----  ----- -----  ----- -----

_SM_CLOCK_MOD_ALARM_SUBMOD1/SM_CLOCK_MOD+     ----- -----  ----- -----  0011H 0011H
... _ALARM
  +--> SM_CLOCK_MOD_ALARM
  +--> _DEBUG_PRINTF/DEBUG
  +--> _ENTER_ALARM/SM_CLOCK_MOD_ALARM
  +--> _INC_WRITE/SM_CLOCK_MOD_ALARM
  +--> _INC_ONLY/SM_CLOCK_MOD_ALARM
  +--> _WRITE_ONLY/SM_CLOCK_MOD_ALARM

_SM_CLOCK_DISPLAY_INIT/SM_CLOCK_DISPLAY       ----- -----  ----- -----  ----- -----
  +--> SM_CLOCK_DISPLAY
  +--> _DEBUG_PRINTF/DEBUG
  +--> LT_TIMER_SWITCH_OFF/LT_TIMER
  +--> ALARM_SWITCH_ON/ALARM
  +--> RTC_SET_LT_TIMER/RTC
  +--> POWER_5V_ENABLE/POWER
LX51 LINKER/LOCATER V4.66.87.0                                                        05/29/2018  21:11:03  PAGE 33


  +--> _DISPLAY_LOGO/MOD_COMMON

LT_TIMER_SWITCH_OFF/LT_TIMER                  ----- -----  ----- -----  ----- -----
  +--> _DEBUG_PRINTF/DEBUG
  +--> _RTC_READ_DATA/RTC
  +--> _RTC_ENABLE_ALARM_INT/RTC
  +--> _RTC_WRITE_DATA/RTC

ALARM_SWITCH_ON/ALARM                         ----- -----  ----- -----  ----- -----
  +--> _DEBUG_PRINTF/DEBUG
  +--> ALARM0_SYNC_TO_RTC/ALARM
  +--> ALARM1_SYNC_TO_RTC/ALARM

ALARM1_SYNC_TO_RTC/ALARM                      ----- -----  ----- -----  ----- -----
  +--> _DEBUG_PRINTF/DEBUG
  +--> _RTC_READ_DATA/RTC
  +--> _RTC_ALARM_SET_MODE/RTC
  +--> _RTC_ALARM_SET_MIN/RTC
  +--> _RTC_WRITE_DATA/RTC
  +--> _RTC_ENABLE_ALARM_INT/RTC
  +--> _RTC_CLR_ALARM_INT_FLAG/RTC

RTC_SET_LT_TIMER/RTC                          20H.0 20H.0  ----- -----  ----- -----

POWER_5V_ENABLE/POWER                         20H.1 20H.1  ----- -----  ----- -----
  +--> _DEBUG_PRINTF/DEBUG

_SM_CLOCK_MOD_ALARM_SUBMOD2/SM_CLOCK_MOD+     ----- -----  ----- -----  0011H 0012H
... _ALARM
  +--> SM_CLOCK_MOD_ALARM
  +--> _DEBUG_PRINTF/DEBUG
  +--> _TOGGLE_ALARM/SM_CLOCK_MOD_ALARM
  +--> _ENTER_ALARM/SM_CLOCK_MOD_ALARM

_TOGGLE_ALARM/SM_CLOCK_MOD_ALARM              ----- -----  ----- -----  0013H 0013H
  +--> _ALARM0_TEST_ENABLE/ALARM
  +--> _ALARM0_SET_ENABLE/ALARM
  +--> _UPDATE_ALARM/SM_CLOCK_MOD_ALARM
  +--> _WRITE_ONLY/SM_CLOCK_MOD_ALARM

_ALARM0_SET_ENABLE/ALARM                      20H.0 20H.0  ----- -----  0014H 0014H
  +--> _DEBUG_PRINTF/DEBUG
  +--> ALARM

_SM_CLOCK_MOD_ALARM_SUBMOD3/SM_CLOCK_MOD+     ----- -----  ----- -----  0011H 0011H
... _ALARM
  +--> SM_CLOCK_MOD_ALARM
  +--> _DEBUG_PRINTF/DEBUG
  +--> _ENTER_ALARM/SM_CLOCK_MOD_ALARM
  +--> TOGGLE_ALARM_BS/SM_CLOCK_MOD_ALARM

TOGGLE_ALARM_BS/SM_CLOCK_MOD_ALARM            ----- -----  ----- -----  ----- -----
  +--> ALARM1_TEST_ENABLE/ALARM
  +--> ALARM1_SET_ENABLE/ALARM
  +--> ALARM1_SYNC_TO_RTC/ALARM
  +--> _ROM_WRITE/ROM
  +--> _UPDATE_ALARM/SM_CLOCK_MOD_ALARM

ALARM1_SET_ENABLE/ALARM                       20H.0 20H.0  ----- -----  ----- -----

_SM_CLOCK_MOD_ALARM_SUBMOD4/SM_CLOCK_MOD+     ----- -----  ----- -----  0011H 0011H
... _ALARM
  +--> SM_CLOCK_MOD_ALARM
  +--> _DEBUG_PRINTF/DEBUG
  +--> _ENTER_ALARM/SM_CLOCK_MOD_ALARM
LX51 LINKER/LOCATER V4.66.87.0                                                        05/29/2018  21:11:03  PAGE 34


  +--> TOGGLE_ALARM_MUSIC/SM_CLOCK_MOD_ALARM

TOGGLE_ALARM_MUSIC/SM_CLOCK_MOD_ALARM         ----- -----  ----- -----  ----- -----
  +--> BEEPER_INC_MUSIC_INDEX/BEEPER
  +--> BEEPER_GET_MUSIC_INDEX/BEEPER
  +--> _ROM_WRITE/ROM
  +--> _UPDATE_ALARM/SM_CLOCK_MOD_ALARM

BEEPER_INC_MUSIC_INDEX/BEEPER                 ----- -----  ----- -----  ----- -----
  +--> _DEBUG_PRINTF/DEBUG

_SM_CLOCK_TIMER_SUBMOD0/SM_CLOCK_TIMER        ----- -----  ----- -----  0011H 0013H
  +--> SM_CLOCK_TIMER
  +--> _DEBUG_PRINTF/DEBUG
  +--> _DISPLAY_SLOT/SM_CLOCK_TIMER
  +--> _TIMER_SET_MODE/TIMER
  +--> TIMER_CLR/TIMER

_DISPLAY_SLOT/SM_CLOCK_TIMER                  ----- -----  ----- -----  0014H 0014H
  +--> LED_CLEAR/LED
  +--> _LED_SET_DP/LED
  +--> _TIMER_GET_MIN/TIMER
  +--> _TIMER_GET_SEC/TIMER
  +--> SM_CLOCK_TIMER
  +--> _LED_SET_CODE/LED
  +--> _TIMER_GET_MS10/TIMER

_TIMER_GET_MIN/TIMER                          ----- -----  ----- -----  ----- -----
  +--> TIMER

TIMER                                         ----- -----  ----- -----  ----- -----

_TIMER_GET_SEC/TIMER                          ----- -----  ----- -----  ----- -----
  +--> TIMER

_TIMER_GET_MS10/TIMER                         ----- -----  ----- -----  ----- -----
  +--> TIMER

_TIMER_SET_MODE/TIMER                         ----- -----  ----- -----  ----- -----

_SM_CLOCK_COUNTER_INIT/SM_CLOCK_COUNTER       ----- -----  ----- -----  ----- -----
  +--> SM_CLOCK_COUNTER
  +--> _DEBUG_PRINTF/DEBUG
  +--> _DISPLAY_LOGO/MOD_COMMON

SM_CLOCK_COUNTER                              ----- -----  ----- -----  ----- -----

_SM_CLOCK_TIMER_SUBMOD1/SM_CLOCK_TIMER        ----- -----  ----- -----  0011H 0011H
  +--> SM_CLOCK_TIMER
  +--> _DEBUG_PRINTF/DEBUG
  +--> TIMER_START/TIMER
  +--> TIMER_SET_LED_AUTOREFRESH/TIMER
  +--> _SHOW_SLOT_TITLE/SM_CLOCK_TIMER
  +--> _TIMER_SAVE/TIMER

TIMER_START/TIMER                             ----- -----  ----- -----  ----- -----
  +--> _DEBUG_PRINTF/DEBUG

TIMER_SET_LED_AUTOREFRESH/TIMER               20H.0 20H.0  ----- -----  0014H 0014H

_SHOW_SLOT_TITLE/SM_CLOCK_TIMER               ----- -----  ----- -----  0012H 0012H
  +--> LED_CLEAR/LED
  +--> _LED_SET_CODE/LED
  +--> SM_CLOCK_TIMER

LX51 LINKER/LOCATER V4.66.87.0                                                        05/29/2018  21:11:03  PAGE 35


_TIMER_SAVE/TIMER                             ----- -----  ----- -----  ----- -----

_SM_CLOCK_TIMER_SUBMOD2/SM_CLOCK_TIMER        ----- -----  ----- -----  0011H 0011H
  +--> SM_CLOCK_TIMER
  +--> _DEBUG_PRINTF/DEBUG
  +--> TIMER_STOP/TIMER
  +--> TIMER_SET_LED_AUTOREFRESH/TIMER
  +--> _DISPLAY_SLOT/SM_CLOCK_TIMER
  +--> _SHOW_SLOT_TITLE/SM_CLOCK_TIMER

TIMER_STOP/TIMER                              ----- -----  ----- -----  ----- -----

_SM_CLOCK_COUNTER_SUBMOD0/SM_CLOCK_COUNT+     ----- -----  ----- -----  0011H 0013H
... ER
  +--> SM_CLOCK_COUNTER
  +--> _DEBUG_PRINTF/DEBUG
  +--> _ENTER_HHMMSS/SM_CLOCK_COUNTER
  +--> TIMER_CLR/TIMER
  +--> _TIMER_SET_MODE/TIMER
  +--> TIMER_SET_LED_AUTOREFRESH/TIMER
  +--> UPDATE_HHMMSS/SM_CLOCK_COUNTER
  +--> _INC_AND_WRITE/SM_CLOCK_COUNTER
  +--> _INC_ONLY/SM_CLOCK_COUNTER
  +--> _WRITE_ONLY/SM_CLOCK_COUNTER

_ENTER_HHMMSS/SM_CLOCK_COUNTER                ----- -----  ----- -----  0014H 0014H
  +--> LED_CLEAR/LED
  +--> _LED_SET_BLINK/LED
  +--> UPDATE_HHMMSS/SM_CLOCK_COUNTER

UPDATE_HHMMSS/SM_CLOCK_COUNTER                ----- -----  ----- -----  0015H 0017H
  +--> _TIMER_GET_HOUR/TIMER
  +--> _TIMER_GET_MIN/TIMER
  +--> _TIMER_GET_SEC/TIMER
  +--> _LED_SET_DP/LED
  +--> _DEBUG_PRINTF/DEBUG
  +--> SM_CLOCK_COUNTER
  +--> _LED_SET_CODE/LED

_TIMER_GET_HOUR/TIMER                         ----- -----  ----- -----  ----- -----
  +--> TIMER

_INC_AND_WRITE/SM_CLOCK_COUNTER               ----- -----  ----- -----  ----- -----
  +--> _INC_ONLY/SM_CLOCK_COUNTER
  +--> _WRITE_ONLY/SM_CLOCK_COUNTER

_INC_ONLY/SM_CLOCK_COUNTER                    ----- -----  ----- -----  ----- -----
  +--> _TIMER_INC_HOUR/TIMER
  +--> _TIMER_INC_MIN/TIMER
  +--> _LED_CLR_BLINK/LED
  +--> _TIMER_INC_SEC/TIMER

_TIMER_INC_HOUR/TIMER                         ----- -----  ----- -----  ----- -----
  +--> TIMER

_TIMER_INC_MIN/TIMER                          ----- -----  ----- -----  ----- -----
  +--> TIMER

_TIMER_INC_SEC/TIMER                          ----- -----  ----- -----  ----- -----
  +--> TIMER

_WRITE_ONLY/SM_CLOCK_COUNTER                  ----- -----  ----- -----  ----- -----
  +--> _LED_SET_BLINK/LED

_SM_CLOCK_COUNTER_SUBMOD1/SM_CLOCK_COUNT+     ----- -----  ----- -----  0011H 0011H
LX51 LINKER/LOCATER V4.66.87.0                                                        05/29/2018  21:11:03  PAGE 36


... ER
  +--> SM_CLOCK_COUNTER
  +--> _DEBUG_PRINTF/DEBUG
  +--> UPDATE_HHMMSS/SM_CLOCK_COUNTER
  +--> _ENTER_HHMMSS/SM_CLOCK_COUNTER
  +--> _INC_AND_WRITE/SM_CLOCK_COUNTER
  +--> _INC_ONLY/SM_CLOCK_COUNTER
  +--> _WRITE_ONLY/SM_CLOCK_COUNTER

_SM_CLOCK_COUNTER_SUBMOD2/SM_CLOCK_COUNT+     ----- -----  ----- -----  0011H 0011H
... ER
  +--> SM_CLOCK_COUNTER
  +--> _DEBUG_PRINTF/DEBUG
  +--> UPDATE_HHMMSS/SM_CLOCK_COUNTER
  +--> _ENTER_HHMMSS/SM_CLOCK_COUNTER
  +--> _INC_AND_WRITE/SM_CLOCK_COUNTER
  +--> _INC_ONLY/SM_CLOCK_COUNTER
  +--> _WRITE_ONLY/SM_CLOCK_COUNTER

_SM_CLOCK_COUNTER_SUBMOD3/SM_CLOCK_COUNT+     ----- -----  ----- -----  0011H 0011H
... ER
  +--> SM_CLOCK_COUNTER
  +--> _DEBUG_PRINTF/DEBUG
  +--> _LED_CLR_BLINK/LED
  +--> TIMER_START/TIMER
  +--> TIMER_SET_LED_AUTOREFRESH/TIMER

_SM_CLOCK_COUNTER_SUBMOD4/SM_CLOCK_COUNT+     ----- -----  ----- -----  0011H 0011H
... ER
  +--> SM_CLOCK_COUNTER
  +--> _DEBUG_PRINTF/DEBUG
  +--> TIMER_STOP/TIMER
  +--> TIMER_SET_LED_AUTOREFRESH/TIMER

_SM_CLOCK_COUNTER_SUBMOD5/SM_CLOCK_COUNT+     ----- -----  ----- -----  0011H 0011H
... ER
  +--> SM_CLOCK_COUNTER
  +--> _DEBUG_PRINTF/DEBUG
  +--> TIMER_SET_LED_AUTOREFRESH/TIMER
  +--> TIMER_CLR/TIMER
  +--> BEEPER_BEEP_BEEP_ALWAYS/BEEPER

_SM_POWER_PACK_DISPLAY_SUBMOD0/SM_POWER_+     ----- -----  ----- -----  0011H 0011H
... PACK_DISPLAY
  +--> SM_POWER_PACK_DISPLAY
  +--> _DEBUG_PRINTF/DEBUG
  +--> POWER_5V_ENABLE/POWER
  +--> POWER_RESET_POWERSAVE_TO/POWER
  +--> POWER_5V_GET_ENABLE/POWER
  +--> DISPLAY_POWER_VOLUME/SM_POWER_PACK_DISPLAY
  +--> POWER_TEST_POWERSAVE_TO/POWER

POWER_5V_GET_ENABLE/POWER                     ----- -----  ----- -----  ----- -----

DISPLAY_POWER_VOLUME/SM_POWER_PACK_DISPL+     ----- -----  ----- -----  0012H 0012H
... AY
  +--> POWER_GET_VOLUME/POWER
  +--> LED_CLEAR/LED
  +--> _LED_SET_CODE/LED

POWER_GET_VOLUME/POWER                        ----- -----  ----- -----  ----- -----

_SM_FUSE_TEST_INIT/SM_FUSE_TEST               ----- -----  ----- -----  0011H 0011H
  +--> SM_FUSE_TEST
  +--> _DEBUG_PRINTF/DEBUG
LX51 LINKER/LOCATER V4.66.87.0                                                        05/29/2018  21:11:03  PAGE 37


  +--> CLOCK_DISPLAY/CLOCK
  +--> _DISPLAY_LOGO/MOD_COMMON
  +--> ALARM_SWITCH_OFF/ALARM
  +--> LT_TIMER_SWITCH_ON/LT_TIMER
  +--> RTC_SET_LT_TIMER/RTC
  +--> POWER_5V_ENABLE/POWER

SM_FUSE_TEST                                  ----- -----  ----- -----  ----- -----

ALARM_SWITCH_OFF/ALARM                        ----- -----  ----- -----  ----- -----
  +--> _DEBUG_PRINTF/DEBUG
  +--> _RTC_READ_DATA/RTC
  +--> _RTC_ENABLE_ALARM_INT/RTC
  +--> _RTC_WRITE_DATA/RTC

LT_TIMER_SWITCH_ON/LT_TIMER                   ----- -----  ----- -----  ----- -----
  +--> _DEBUG_PRINTF/DEBUG
  +--> LT_TIMER_LOAD_FROM_ROM/LT_TIMER
  +--> LT_TIMER_SYNC_TO_RTC/LT_TIMER
  +--> LT_TIMER_STOP_RTC/LT_TIMER

LT_TIMER_SYNC_TO_RTC/LT_TIMER                 ----- -----  ----- -----  ----- -----
  +--> LT_TIMER
  +--> _DEBUG_PRINTF/DEBUG
  +--> _RTC_READ_DATA/RTC
  +--> _RTC_ALARM_SET_MODE/RTC
  +--> _RTC_ALARM_SET_DATE/RTC
  +--> _RTC_ALARM_SET_HOUR/RTC
  +--> _RTC_ALARM_SET_MIN/RTC
  +--> _RTC_ALARM_SET_SEC/RTC
  +--> _RTC_WRITE_DATA/RTC

_RTC_ALARM_SET_DATE/RTC                       ----- -----  ----- -----  ----- -----
  +--> RTC
  +--> __RTC_SET_DATE/RTC

_SM_POWER_PACK_POWERSAVE_INIT/SM_POWER_P+     ----- -----  ----- -----  ----- -----
... ACK_POWERSAVE
  +--> SM_POWER_PACK_POWERSAVE
  +--> _DEBUG_PRINTF/DEBUG

SM_POWER_PACK_POWERSAVE                       ----- -----  ----- -----  ----- -----

_SM_POWER_PACK_POWERSAVE_SUBMOD0/SM_POWE+     ----- -----  ----- -----  0011H 0011H
... R_PACK_POWERSAVE
  +--> SM_POWER_PACK_POWERSAVE
  +--> _DEBUG_PRINTF/DEBUG
  +--> POWER_ENTER_POWERSAVE/POWER
  +--> POWER_LEAVE_POWERSAVE/POWER

_SM_FUSE_TEST_SUBMOD0/SM_FUSE_TEST            ----- -----  ----- -----  0011H 0011H
  +--> SM_FUSE_TEST
  +--> _DEBUG_PRINTF/DEBUG
  +--> CLOCK_GET_SEC_256/CLOCK
  +--> FUSE_ENABLE/FUSE
  +--> _FUSE_SET_FUSE_BROKE/FUSE
  +--> FUSE_SET_TRIPWIRE_BROKE/FUSE
  +--> _DISPLAY_TEST/SM_FUSE_TEST

FUSE_ENABLE/FUSE                              20H.1 20H.1  ----- -----  ----- -----
  +--> _DEBUG_PRINTF/DEBUG
  +--> FUSE_POWER_ON/FUSE
  +--> FUSE_POWER_OFF/FUSE

FUSE_POWER_ON/FUSE                            ----- -----  ----- -----  ----- -----
LX51 LINKER/LOCATER V4.66.87.0                                                        05/29/2018  21:11:03  PAGE 38


  +--> _SERIAL_SET_CTL_BIT/SERIAL_HUB
  +--> SERIAL_CTL_OUT/SERIAL_HUB

_FUSE_SET_FUSE_BROKE/FUSE                     20H.0 20H.0  ----- -----  0012H 0012H
  +--> _DEBUG_PRINTF/DEBUG
  +--> _SERIAL_SET_CTL_BIT/SERIAL_HUB
  +--> SERIAL_CTL_OUT/SERIAL_HUB

FUSE_SET_TRIPWIRE_BROKE/FUSE                  20H.0 20H.0  ----- -----  ----- -----
  +--> _DEBUG_PRINTF/DEBUG
  +--> _SERIAL_SET_CTL_BIT/SERIAL_HUB
  +--> SERIAL_CTL_OUT/SERIAL_HUB

_DISPLAY_TEST/SM_FUSE_TEST                    ----- -----  ----- -----  0015H 0018H
  +--> SM_FUSE_TEST
  +--> _DEBUG_PRINTF/DEBUG
  +--> LED_CLEAR/LED
  +--> _LED_SET_DP/LED
  +--> _LED_SET_CODE/LED
  +--> _LED_SET_BLINK/LED

_SM_FUSE_TEST_SUBMOD1/SM_FUSE_TEST            ----- -----  ----- -----  0011H 0011H
  +--> SM_FUSE_TEST
  +--> _DEBUG_PRINTF/DEBUG
  +--> _SM_FUSE_SET/SM_FUSE_TEST

_SM_FUSE_SET/SM_FUSE_TEST                     ----- -----  ----- -----  0012H 0013H
  +--> _ENTER_SET/SM_FUSE_TEST
  +--> _INC_WRITE/SM_FUSE_TEST
  +--> _INC_ONLY/SM_FUSE_TEST
  +--> _WRITE_ONLY/SM_FUSE_TEST

_ENTER_SET/SM_FUSE_TEST                       ----- -----  ----- -----  0014H 0014H
  +--> SM_FUSE_TEST
  +--> _DEBUG_PRINTF/DEBUG
  +--> LED_CLEAR/LED
  +--> _LED_SET_DP/LED
  +--> _LED_SET_BLINK/LED
  +--> _LED_SET_CODE/LED
  +--> _ROM_READ/ROM
  +--> _UPDATE_SET/SM_FUSE_TEST

_UPDATE_SET/SM_FUSE_TEST                      ----- -----  ----- -----  ----- -----
  +--> _LED_SET_CODE/LED
  +--> SM_FUSE_TEST

_INC_WRITE/SM_FUSE_TEST                       ----- -----  ----- -----  0014H 0014H
  +--> _DEBUG_PRINTF/DEBUG
  +--> _INC_ONLY/SM_FUSE_TEST
  +--> _WRITE_ONLY/SM_FUSE_TEST

_INC_ONLY/SM_FUSE_TEST                        ----- -----  ----- -----  0015H 0015H
  +--> SM_FUSE_TEST
  +--> _DEBUG_PRINTF/DEBUG
  +--> _LED_CLR_BLINK/LED
  +--> _THERMO_THRESHOLD_INC/THERMO
  +--> _MPU_THRESHOLD_INC/MPU
  +--> _UPDATE_SET/SM_FUSE_TEST

_THERMO_THRESHOLD_INC/THERMO                  ----- -----  ----- -----  0016H 0016H
  +--> _DEBUG_PRINTF/DEBUG

_MPU_THRESHOLD_INC/MPU                        ----- -----  ----- -----  ----- -----

_WRITE_ONLY/SM_FUSE_TEST                      ----- -----  ----- -----  0015H 0015H
LX51 LINKER/LOCATER V4.66.87.0                                                        05/29/2018  21:11:03  PAGE 39


  +--> SM_FUSE_TEST
  +--> _DEBUG_PRINTF/DEBUG
  +--> _LED_SET_BLINK/LED
  +--> _ROM_WRITE/ROM

_SM_FUSE_PARAM_INIT/SM_FUSE_PARAM             ----- -----  ----- -----  0011H 0011H
  +--> SM_FUSE_PARAM
  +--> _DEBUG_PRINTF/DEBUG
  +--> _DISPLAY_LOGO/MOD_COMMON

SM_FUSE_PARAM                                 ----- -----  ----- -----  ----- -----

_SM_GLOBAL_FLAG_MOD_INIT/SM_GLOBAL_FLAG_+     ----- -----  ----- -----  ----- -----
... MOD
  +--> SM_GLOBAL_FLAG_MOD
  +--> _DEBUG_PRINTF/DEBUG
  +--> _DISPLAY_LOGO/MOD_COMMON

SM_GLOBAL_FLAG_MOD                            ----- -----  ----- -----  ----- -----

_SM_FUSE_TEST_SUBMOD2/SM_FUSE_TEST            ----- -----  ----- -----  0011H 0011H
  +--> SM_FUSE_TEST
  +--> _DEBUG_PRINTF/DEBUG
  +--> _SM_FUSE_TEST_THERMO/SM_FUSE_TEST

_SM_FUSE_TEST_THERMO/SM_FUSE_TEST             ----- -----  ----- -----  0012H 0014H
  +--> SM_FUSE_TEST
  +--> THERMO_ENABLE/THERMO
  +--> THERMO_HI_THRESHOLD_GET/THERMO
  +--> THERMO_LO_THRESHOLD_GET/THERMO
  +--> _ROM_READ/ROM
  +--> _DEBUG_PRINTF/DEBUG
  +--> CLOCK_GET_SEC_256/CLOCK
  +--> THERMO_HI_THRESHOLD_REACH_BOTTOM/THERMO
  +--> THERMO_HI_THRESHOLD_DEC/THERMO
  +--> THERMO_LO_THRESHOLD_REACH_TOP/THERMO
  +--> THERMO_LO_THRESHOLD_INC/THERMO
  +--> _DISPLAY_TEST/SM_FUSE_TEST

THERMO_ENABLE/THERMO                          20H.1 20H.1  ----- -----  ----- -----
  +--> THERMO_POWER_ON/THERMO
  +--> THERMO_POWER_OFF/THERMO

THERMO_POWER_ON/THERMO                        ----- -----  ----- -----  0015H 0015H
  +--> THERMO_LOAD_CONFIG/THERMO
  +--> _I2C_PUT/I2C
  +--> THERMO_HI_THRESHOLD_RESET/THERMO
  +--> THERMO_LO_THRESHOLD_RESET/THERMO
  +--> _DELAY_MS/MISC
  +--> THERMO
  +--> _I2C_GET/I2C
  +--> _DEBUG_PRINTF/DEBUG

THERMO_HI_THRESHOLD_GET/THERMO                ----- -----  ----- -----  0015H 0016H
  +--> THERMO
  +--> _I2C_GETS/I2C
  +--> _THERMO_HEX_TO_TEMP/THERMO

_THERMO_HEX_TO_TEMP/THERMO                    ----- -----  ----- -----  0017H 0017H
  +--> THERMO
  +--> _DEBUG_PRINTF/DEBUG

THERMO_LO_THRESHOLD_GET/THERMO                ----- -----  ----- -----  0015H 0016H
  +--> THERMO
  +--> _I2C_GETS/I2C
LX51 LINKER/LOCATER V4.66.87.0                                                        05/29/2018  21:11:03  PAGE 40


  +--> _THERMO_HEX_TO_TEMP/THERMO

THERMO_HI_THRESHOLD_REACH_BOTTOM/THERMO       ----- -----  ----- -----  ----- -----
  +--> THERMO_HI_THRESHOLD_GET/THERMO
  +--> THERMO

THERMO_HI_THRESHOLD_DEC/THERMO                ----- -----  ----- -----  ----- -----
  +--> THERMO_HI_THRESHOLD_GET/THERMO
  +--> THERMO
  +--> _THERMO_HI_THRESHOLD_SET/THERMO

THERMO_LO_THRESHOLD_REACH_TOP/THERMO          ----- -----  ----- -----  ----- -----
  +--> THERMO_LO_THRESHOLD_GET/THERMO
  +--> THERMO

THERMO_LO_THRESHOLD_INC/THERMO                ----- -----  ----- -----  ----- -----
  +--> THERMO_LO_THRESHOLD_GET/THERMO
  +--> THERMO
  +--> _THERMO_LO_THRESHOLD_SET/THERMO

_SM_FUSE_TEST_SUBMOD3/SM_FUSE_TEST            ----- -----  ----- -----  0011H 0011H
  +--> SM_FUSE_TEST
  +--> _DEBUG_PRINTF/DEBUG
  +--> _SM_FUSE_SET/SM_FUSE_TEST

_SM_FUSE_TEST_SUBMOD4/SM_FUSE_TEST            ----- -----  ----- -----  0011H 0011H
  +--> SM_FUSE_TEST
  +--> _DEBUG_PRINTF/DEBUG
  +--> _SM_FUSE_TEST_THERMO/SM_FUSE_TEST

_SM_FUSE_TEST_SUBMOD5/SM_FUSE_TEST            ----- -----  ----- -----  0011H 0011H
  +--> SM_FUSE_TEST
  +--> _DEBUG_PRINTF/DEBUG
  +--> _SM_FUSE_SET/SM_FUSE_TEST

_SM_FUSE_TEST_SUBMOD6/SM_FUSE_TEST            ----- -----  ----- -----  0011H 0011H
  +--> SM_FUSE_TEST
  +--> _DEBUG_PRINTF/DEBUG
  +--> _SM_FUSE_TEST_HG_MPU/SM_FUSE_TEST

_SM_FUSE_TEST_HG_MPU/SM_FUSE_TEST             ----- -----  ----- -----  0012H 0014H
  +--> HG_ENABLE/HG
  +--> MPU_ENABLE/MPU
  +--> SM_FUSE_TEST
  +--> _ROM_READ/ROM
  +--> MPU_THRESHOLD_GET/MPU
  +--> HG_GET_STATE/HG
  +--> _UPDATE_HG_MASK/SM_FUSE_TEST
  +--> _DISPLAY_TEST/SM_FUSE_TEST
  +--> CLOCK_GET_SEC_256/CLOCK

HG_ENABLE/HG                                  20H.1 20H.1  ----- -----  ----- -----
  +--> _DEBUG_PRINTF/DEBUG
  +--> HG_POWER_ON/HG
  +--> HG_POWER_OFF/HG

HG_POWER_ON/HG                                ----- -----  ----- -----  ----- -----
  +--> _SERIAL_SET_CTL_BIT/SERIAL_HUB
  +--> SERIAL_CTL_OUT/SERIAL_HUB
  +--> HG_CB_SET_ENABLE/HG
  +--> _DELAY_TASK_REG/DELAY_TASK

HG_CB_SET_ENABLE/HG                           ----- -----  ----- -----  ----- -----
  +--> _DEBUG_PRINTF/DEBUG

LX51 LINKER/LOCATER V4.66.87.0                                                        05/29/2018  21:11:03  PAGE 41


_DELAY_TASK_REG/DELAY_TASK                    ----- -----  ----- -----  0015H 0018H
  +--> _DEBUG_PRINTF/DEBUG
  +--> DELAY_TASK

MPU_ENABLE/MPU                                20H.1 20H.1  ----- -----  ----- -----
  +--> _DEBUG_PRINTF/DEBUG
  +--> MPU_POWER_ON/MPU
  +--> MPU_POWER_OFF/MPU

MPU_POWER_ON/MPU                              ----- -----  ----- -----  0015H 0015H
  +--> _DEBUG_PRINTF/DEBUG
  +--> MPU_LOAD_CONFIG/MPU
  +--> _I2C_PUT/I2C
  +--> MPU
  +--> _I2C_GET/I2C

MPU_THRESHOLD_GET/MPU                         ----- -----  ----- -----  ----- -----

HG_GET_STATE/HG                               ----- -----  ----- -----  ----- -----
  +--> HG
  +--> _DEBUG_PRINTF/DEBUG

_UPDATE_HG_MASK/SM_FUSE_TEST                  ----- -----  ----- -----  0015H 0016H
  +--> SM_FUSE_TEST
  +--> _DEBUG_PRINTF/DEBUG

_SM_FUSE_TEST_SUBMOD7/SM_FUSE_TEST            ----- -----  ----- -----  0011H 0011H
  +--> SM_FUSE_TEST
  +--> _DEBUG_PRINTF/DEBUG
  +--> _SM_FUSE_SET/SM_FUSE_TEST

_SM_FUSE_TEST_SUBMOD8/SM_FUSE_TEST            ----- -----  ----- -----  0011H 0011H
  +--> SM_FUSE_TEST
  +--> _DEBUG_PRINTF/DEBUG
  +--> _SM_FUSE_TEST_HG_MPU/SM_FUSE_TEST

_SM_FUSE_PARAM_SUBMOD0/SM_FUSE_PARAM          ----- -----  ----- -----  0011H 0012H
  +--> SM_FUSE_PARAM
  +--> _DEBUG_PRINTF/DEBUG
  +--> LT_TIMER_LOAD_FROM_ROM/LT_TIMER
  +--> _SM_FUSE_PARAM_SET_TIME/SM_FUSE_PARAM

_SM_FUSE_PARAM_SET_TIME/SM_FUSE_PARAM         ----- -----  ----- -----  0013H 0014H
  +--> _ENTER_TIME/SM_FUSE_PARAM
  +--> _INC_AND_WRITE/SM_FUSE_PARAM
  +--> _UPDATE_TIME/SM_FUSE_PARAM
  +--> _INC_ONLY/SM_FUSE_PARAM
  +--> _WRITE_ONLY/SM_FUSE_PARAM

_ENTER_TIME/SM_FUSE_PARAM                     ----- -----  ----- -----  0015H 0015H
  +--> LED_CLEAR/LED
  +--> _LED_SET_BLINK/LED
  +--> _UPDATE_TIME/SM_FUSE_PARAM

_UPDATE_TIME/SM_FUSE_PARAM                    ----- -----  ----- -----  0016H 001BH
  +--> LT_TIMER_GET_YEAR/LT_TIMER
  +--> LT_TIMER_GET_MONTH/LT_TIMER
  +--> LT_TIMER_GET_DATE/LT_TIMER
  +--> _LED_SET_DP/LED
  +--> _DEBUG_PRINTF/DEBUG
  +--> _LED_SET_CODE/LED
  +--> LT_TIMER_GET_HOUR/LT_TIMER
  +--> LT_TIMER_GET_MIN/LT_TIMER
  +--> LT_TIMER_GET_SEC/LT_TIMER
  +--> CLOCK_GET_HOUR_12/CLOCK
LX51 LINKER/LOCATER V4.66.87.0                                                        05/29/2018  21:11:03  PAGE 42


  +--> _LED_CLR_DP/LED

LT_TIMER_GET_DATE/LT_TIMER                    ----- -----  ----- -----  ----- -----

LT_TIMER_GET_HOUR/LT_TIMER                    ----- -----  ----- -----  ----- -----

LT_TIMER_GET_MIN/LT_TIMER                     ----- -----  ----- -----  ----- -----

LT_TIMER_GET_SEC/LT_TIMER                     ----- -----  ----- -----  ----- -----

_INC_AND_WRITE/SM_FUSE_PARAM                  ----- -----  ----- -----  ----- -----
  +--> _INC_ONLY/SM_FUSE_PARAM
  +--> _WRITE_ONLY/SM_FUSE_PARAM

_INC_ONLY/SM_FUSE_PARAM                       ----- -----  ----- -----  ----- -----
  +--> LT_TIMER_INC_HOUR/LT_TIMER
  +--> LT_TIMER_INC_YEAR/LT_TIMER
  +--> LT_TIMER_INC_MIN/LT_TIMER
  +--> LT_TIMER_INC_MONTH/LT_TIMER
  +--> _LED_CLR_BLINK/LED
  +--> LT_TIMER_INC_SEC/LT_TIMER
  +--> LT_TIMER_INC_DATE/LT_TIMER

LT_TIMER_INC_HOUR/LT_TIMER                    ----- -----  ----- -----  ----- -----

LT_TIMER_INC_YEAR/LT_TIMER                    ----- -----  ----- -----  ----- -----

LT_TIMER_INC_MIN/LT_TIMER                     ----- -----  ----- -----  ----- -----

LT_TIMER_INC_MONTH/LT_TIMER                   ----- -----  ----- -----  ----- -----

LT_TIMER_INC_SEC/LT_TIMER                     ----- -----  ----- -----  ----- -----

LT_TIMER_INC_DATE/LT_TIMER                    ----- -----  ----- -----  ----- -----
  +--> _CLOCK_GET_MON_DATE/CLOCK

_WRITE_ONLY/SM_FUSE_PARAM                     ----- -----  ----- -----  0015H 0015H
  +--> _ROM_WRITE/ROM
  +--> _LT_TIMER_SAVE_TO_ROM/LT_TIMER
  +--> _LED_SET_BLINK/LED

_LT_TIMER_SAVE_TO_ROM/LT_TIMER                ----- -----  ----- -----  0016H 0016H
  +--> LT_TIMER
  +--> _DEBUG_PRINTF/DEBUG
  +--> _ROM_WRITE/ROM

_SM_FUSE_PARAM_SUBMOD1/SM_FUSE_PARAM          ----- -----  ----- -----  0011H 0011H
  +--> SM_FUSE_PARAM
  +--> _DEBUG_PRINTF/DEBUG
  +--> _SM_FUSE_PARAM_SET_TIME/SM_FUSE_PARAM

_SM_FUSE_TIMER_INIT/SM_FUSE_TIMER             ----- -----  ----- -----  ----- -----
  +--> SM_FUSE_TIMER
  +--> _DEBUG_PRINTF/DEBUG
  +--> _DISPLAY_LOGO/MOD_COMMON

SM_FUSE_TIMER                                 ----- -----  ----- -----  ----- -----

_SM_FUSE_PARAM_SUBMOD2/SM_FUSE_PARAM          ----- -----  ----- -----  0011H 0011H
  +--> SM_FUSE_PARAM
  +--> _DEBUG_PRINTF/DEBUG
  +--> _SM_FUSE_PARAM_SET_TIME/SM_FUSE_PARAM

_SM_FUSE_PARAM_SUBMOD3/SM_FUSE_PARAM          ----- -----  ----- -----  0011H 0011H
  +--> SM_FUSE_PARAM
LX51 LINKER/LOCATER V4.66.87.0                                                        05/29/2018  21:11:03  PAGE 43


  +--> _DEBUG_PRINTF/DEBUG
  +--> _SM_FUSE_PARAM_SET_TIME/SM_FUSE_PARAM

_SM_FUSE_PARAM_SUBMOD4/SM_FUSE_PARAM          ----- -----  ----- -----  0011H 0011H
  +--> SM_FUSE_PARAM
  +--> _DEBUG_PRINTF/DEBUG
  +--> _SM_FUSE_PARAM_SET_TIME/SM_FUSE_PARAM

_SM_FUSE_PARAM_SUBMOD5/SM_FUSE_PARAM          ----- -----  ----- -----  0011H 0011H
  +--> SM_FUSE_PARAM
  +--> _DEBUG_PRINTF/DEBUG
  +--> _SM_FUSE_PARAM_SET_TIME/SM_FUSE_PARAM

_SM_FUSE_PARAM_SUBMOD6/SM_FUSE_PARAM          ----- -----  ----- -----  0011H 0012H
  +--> SM_FUSE_PARAM
  +--> _DEBUG_PRINTF/DEBUG
  +--> _ENTER_PASSWORD/SM_FUSE_PARAM
  +--> _INC_AND_WRITE/SM_FUSE_PARAM
  +--> _UPDATE_PASSWORD/SM_FUSE_PARAM
  +--> _INC_ONLY/SM_FUSE_PARAM
  +--> _WRITE_ONLY/SM_FUSE_PARAM

_ENTER_PASSWORD/SM_FUSE_PARAM                 ----- -----  ----- -----  0013H 0013H
  +--> _ROM_READ/ROM
  +--> _UPDATE_PASSWORD/SM_FUSE_PARAM

_UPDATE_PASSWORD/SM_FUSE_PARAM                ----- -----  ----- -----  0014H 0014H
  +--> LED_CLEAR/LED
  +--> _LED_SET_CODE/LED

_SM_FUSE_TIMER_SUBMOD0/SM_FUSE_TIMER          ----- -----  ----- -----  0011H 0012H
  +--> SM_FUSE_TIMER
  +--> _DEBUG_PRINTF/DEBUG
  +--> _DISPLAY_PREARM/SM_FUSE_TIMER
  +--> _CHECK_AND_SET/SM_FUSE_TIMER
  +--> ROLL_BACK/SM_FUSE_TIMER

_DISPLAY_PREARM/SM_FUSE_TIMER                 ----- -----  ----- -----  0013H 0014H
  +--> LED_CLEAR/LED
  +--> _LED_SET_CODE/LED
  +--> SM_FUSE_TIMER

_CHECK_AND_SET/SM_FUSE_TIMER                  ----- -----  ----- -----  0013H 0014H
  +--> FUSE_ENABLE/FUSE
  +--> MPU_ENABLE/MPU
  +--> HG_ENABLE/HG
  +--> _ROM_READ/ROM
  +--> THERMO_ENABLE/THERMO
  +--> LT_TIMER_LOAD_FROM_ROM/LT_TIMER
  +--> LT_TIMER_SYNC_TO_RTC/LT_TIMER
  +--> LT_TIMER_GET_RELATIVE/LT_TIMER
  +--> LT_TIMER_START_RAM/LT_TIMER

ROLL_BACK/SM_FUSE_TIMER                       20H.0 20H.0  ----- -----  ----- -----
  +--> _DEBUG_PRINTF/DEBUG
  +--> THERMO_ENABLE/THERMO
  +--> MPU_ENABLE/MPU
  +--> HG_ENABLE/HG
  +--> LT_TIMER_RESET/LT_TIMER
  +--> FUSE_ENABLE/FUSE

LT_TIMER_RESET/LT_TIMER                       ----- -----  ----- -----  ----- -----
  +--> LT_TIMER_STOP_RTC/LT_TIMER
  +--> LT_TIMER_STOP_RAM/LT_TIMER

LX51 LINKER/LOCATER V4.66.87.0                                                        05/29/2018  21:11:03  PAGE 44


_SM_FUSE_TIMER_SUBMOD1/SM_FUSE_TIMER          ----- -----  ----- -----  0011H 0012H
  +--> SM_FUSE_TIMER
  +--> _DEBUG_PRINTF/DEBUG
  +--> LT_TIMER_DISPLAY/LT_TIMER
  +--> POWER_TEST_POWERSAVE_TO/POWER
  +--> POWER_RESET_POWERSAVE_TO/POWER
  +--> LT_TIMER_SWITCH_DISPLAY/LT_TIMER

LT_TIMER_DISPLAY/LT_TIMER                     20H.0 20H.0  ----- -----  ----- -----
  +--> _DEBUG_PRINTF/DEBUG

LT_TIMER_SWITCH_DISPLAY/LT_TIMER              ----- -----  ----- -----  ----- -----
  +--> _DEBUG_PRINTF/DEBUG

_SM_FUSE_TIMER_SUBMOD2/SM_FUSE_TIMER          ----- -----  ----- -----  0011H 0012H
  +--> SM_FUSE_TIMER
  +--> _DEBUG_PRINTF/DEBUG
  +--> LT_TIMER_DISPLAY/LT_TIMER
  +--> VERIFY_PASSWORD/SM_FUSE_TIMER
  +--> DISPLAY_PASSWORD/SM_FUSE_TIMER
  +--> INC_PASSWORD/SM_FUSE_TIMER

VERIFY_PASSWORD/SM_FUSE_TIMER                 ----- -----  ----- -----  0013H 0013H
  +--> _ROM_READ/ROM
  +--> SM_FUSE_TIMER
  +--> _DEBUG_PRINTF/DEBUG

DISPLAY_PASSWORD/SM_FUSE_TIMER                ----- -----  ----- -----  ----- -----
  +--> LED_CLEAR/LED
  +--> _LED_SET_CODE/LED

INC_PASSWORD/SM_FUSE_TIMER                    ----- -----  ----- -----  ----- -----

_SM_FUSE_TIMER_SUBMOD3/SM_FUSE_TIMER          ----- -----  ----- -----  0011H 0011H
  +--> SM_FUSE_TIMER
  +--> _DEBUG_PRINTF/DEBUG
  +--> ROLL_BACK/SM_FUSE_TIMER
  +--> _DISPLAY_TIMER/SM_FUSE_TIMER

_DISPLAY_TIMER/SM_FUSE_TIMER                  ----- -----  ----- -----  0012H 0012H
  +--> LED_CLEAR/LED
  +--> _LED_SET_CODE/LED

_SM_FUSE_TIMER_SUBMOD4/SM_FUSE_TIMER          ----- -----  ----- -----  ----- -----
  +--> SM_FUSE_TIMER
  +--> _DEBUG_PRINTF/DEBUG
  +--> ROLL_BACK/SM_FUSE_TIMER
  +--> _DISPLAY_TIMER/SM_FUSE_TIMER

_SM_FUSE_DETONATE_INIT/SM_FUSE_DETONATE       ----- -----  ----- -----  ----- -----
  +--> SM_FUSE_DETONATE
  +--> _DEBUG_PRINTF/DEBUG
  +--> DISPLAY_DETONATE/SM_FUSE_DETONATE

SM_FUSE_DETONATE                              ----- -----  ----- -----  ----- -----

DISPLAY_DETONATE/SM_FUSE_DETONATE             ----- -----  ----- -----  ----- -----
  +--> LED_CLEAR/LED
  +--> _LED_SET_CODE/LED
  +--> _LED_SET_BLINK/LED

_SM_FUSE_POWERSAVE_INIT/SM_FUSE_POWERSAV+     ----- -----  ----- -----  ----- -----
... E
  +--> SM_FUSE_POWERSAVE
  +--> _DEBUG_PRINTF/DEBUG
LX51 LINKER/LOCATER V4.66.87.0                                                        05/29/2018  21:11:03  PAGE 45



SM_FUSE_POWERSAVE                             ----- -----  ----- -----  ----- -----

_SM_FUSE_DETONATE_SUBMOD0/SM_FUSE_DETONA+     ----- -----  ----- -----  0011H 0011H
... TE
  +--> SM_FUSE_DETONATE
  +--> _DEBUG_PRINTF/DEBUG
  +--> FUSE_TRIGGER/FUSE
  +--> FUSE_ENABLE/FUSE

FUSE_TRIGGER/FUSE                             20H.0 20H.0  ----- -----  ----- -----
  +--> _DEBUG_PRINTF/DEBUG
  +--> POWER_5V_ENABLE/POWER
  +--> _SERIAL_SET_CTL_BIT/SERIAL_HUB
  +--> SERIAL_CTL_OUT/SERIAL_HUB

_SM_FUSE_POWERSAVE_SUBMOD0/SM_FUSE_POWER+     ----- -----  ----- -----  0011H 0011H
... SAVE
  +--> SM_FUSE_POWERSAVE
  +--> _DEBUG_PRINTF/DEBUG
  +--> POWER_ENTER_POWERSAVE/POWER
  +--> POWER_LEAVE_POWERSAVE/POWER

_SM_FUSE_POWERSAVE_SUBMOD1/SM_FUSE_POWER+     ----- -----  ----- -----  ----- -----
... SAVE
  +--> SM_FUSE_POWERSAVE
  +--> _DEBUG_PRINTF/DEBUG
  +--> ROLL_BACK/SM_FUSE_POWERSAVE

ROLL_BACK/SM_FUSE_POWERSAVE                   ----- -----  ----- -----  ----- -----
  +--> THERMO_ENABLE/THERMO
  +--> MPU_ENABLE/MPU
  +--> HG_ENABLE/HG
  +--> LT_TIMER_RESET/LT_TIMER

_SM_GLOBAL_FLAG_MOD_SUBMOD0/SM_GLOBAL_FL+     ----- -----  ----- -----  0011H 0011H
... AG_MOD
  +--> SM_GLOBAL_FLAG_MOD
  +--> _DEBUG_PRINTF/DEBUG
  +--> _SM_GLOBAL_FLAG_MOD/SM_GLOBAL_FLAG_MOD

_SM_GLOBAL_FLAG_MOD/SM_GLOBAL_FLAG_MOD        ----- -----  ----- -----  0012H 0013H
  +--> _INC_WRITE/SM_GLOBAL_FLAG_MOD
  +--> _DISPLAY_GLOBAL_FLAG/SM_GLOBAL_FLAG_MOD

_INC_WRITE/SM_GLOBAL_FLAG_MOD                 ----- -----  ----- -----  ----- -----
  +--> POWER_INC_POWERSAVE_TO/POWER
  +--> POWER_GET_POWERSAVE_TO/POWER
  +--> BEEPER_GET_BEEP_ENABLE/BEEPER
  +--> BEEPER_SET_BEEP_ENABLE/BEEPER
  +--> CLOCK_GET_HOUR_12/CLOCK
  +--> CLOCK_SET_HOUR_12/CLOCK
  +--> _CLOCK_SYNC_TO_RTC/CLOCK
  +--> ALARM0_GET_HOUR_12/ALARM
  +--> ALARM0_SET_HOUR_12/ALARM
  +--> ALARM0_SYNC_TO_RTC/ALARM
  +--> _ROM_WRITE/ROM

POWER_INC_POWERSAVE_TO/POWER                  ----- -----  ----- -----  ----- -----

POWER_GET_POWERSAVE_TO/POWER                  ----- -----  ----- -----  ----- -----

BEEPER_GET_BEEP_ENABLE/BEEPER                 ----- -----  ----- -----  ----- -----

BEEPER_SET_BEEP_ENABLE/BEEPER                 20H.0 20H.0  ----- -----  ----- -----
LX51 LINKER/LOCATER V4.66.87.0                                                        05/29/2018  21:11:03  PAGE 46



CLOCK_SET_HOUR_12/CLOCK                       20H.0 20H.0  ----- -----  ----- -----

ALARM0_SET_HOUR_12/ALARM                      20H.0 20H.0  ----- -----  ----- -----

_DISPLAY_GLOBAL_FLAG/SM_GLOBAL_FLAG_MOD       ----- -----  ----- -----  0014H 0014H
  +--> LED_CLEAR/LED
  +--> _DEBUG_PRINTF/DEBUG
  +--> _LED_SET_CODE/LED
  +--> POWER_GET_POWERSAVE_TO_S/POWER
  +--> BEEPER_GET_BEEP_ENABLE/BEEPER
  +--> CLOCK_GET_HOUR_12/CLOCK

POWER_GET_POWERSAVE_TO_S/POWER                ----- -----  ----- -----  ----- -----

_SM_GLOBAL_FLAG_MOD_SUBMOD1/SM_GLOBAL_FL+     ----- -----  ----- -----  0011H 0011H
... AG_MOD
  +--> SM_GLOBAL_FLAG_MOD
  +--> _DEBUG_PRINTF/DEBUG
  +--> _SM_GLOBAL_FLAG_MOD/SM_GLOBAL_FLAG_MOD

_SM_GLOBAL_FLAG_MOD_SUBMOD2/SM_GLOBAL_FL+     ----- -----  ----- -----  0011H 0011H
... AG_MOD
  +--> SM_GLOBAL_FLAG_MOD
  +--> _DEBUG_PRINTF/DEBUG
  +--> _SM_GLOBAL_FLAG_MOD/SM_GLOBAL_FLAG_MOD

_SCAN_KEY_PROC/KEY                            ----- -----  ----- -----  ----- -----
  +--> _DELAY_10US/MISC
  +--> CLOCK_GET_SEC_256/CLOCK
  +--> KEY

KEY                                           ----- -----  ----- -----  ----- -----

_SET_PROC/KEY                                 ----- -----  ----- -----  000CH 000CH
  +--> KEY
  +--> _DEBUG_PRINTF/DEBUG
  +--> BEEPER_BEEP/BEEPER
  +--> _RUN_STATE_MACHINE/SM

BEEPER_BEEP/BEEPER                            ----- -----  ----- -----  000DH 000DH
  +--> _DEBUG_PRINTF/DEBUG
  +--> _DELAY_10US/MISC

_MOD_PROC/KEY                                 ----- -----  ----- -----  000CH 000CH
  +--> KEY
  +--> _DEBUG_PRINTF/DEBUG
  +--> BEEPER_BEEP/BEEPER
  +--> _RUN_STATE_MACHINE/SM

_MOD_SET_PROC/KEY                             ----- -----  ----- -----  000CH 000CH
  +--> _DEBUG_PRINTF/DEBUG
  +--> _RUN_STATE_MACHINE/SM

_FUSE_PROC/FUSE                               ----- -----  ----- -----  000CH 000CH
  +--> _DEBUG_PRINTF/DEBUG
  +--> _RUN_STATE_MACHINE/SM

_NULL_PROC/SM                                 ----- -----  ----- -----  ----- -----
  +--> _RUN_STATE_MACHINE/SM

_THERMO_PROC/THERMO                           ----- -----  ----- -----  000CH 000CH
  +--> _DEBUG_PRINTF/DEBUG
  +--> _RUN_STATE_MACHINE/SM

LX51 LINKER/LOCATER V4.66.87.0                                                        05/29/2018  21:11:03  PAGE 47


_ALARM_PROC/ALARM                             ----- -----  ----- -----  000CH 000CH
  +--> _DEBUG_PRINTF/DEBUG
  +--> _RUN_STATE_MACHINE/SM

_POWER_PROC/POWER                             ----- -----  ----- -----  000CH 000CH
  +--> _DEBUG_PRINTF/DEBUG
  +--> _RUN_STATE_MACHINE/SM

SM_INITIALIZE/SM                              ----- -----  ----- -----  ----- -----
  +--> _DEBUG_PRINTF/DEBUG
  +--> LT_TIMER_SWITCH_OFF/LT_TIMER
  +--> ALARM_SWITCH_ON/ALARM
  +--> RTC_SET_LT_TIMER/RTC

DELAY_TASK_INITIALIZE/DELAY_TASK              ----- -----  ----- -----  ----- -----
  +--> _DEBUG_PRINTF/DEBUG

RUN_TASK/TASK                                 ----- -----  ----- -----  0000H 0000H
  +--> COM_TRY_GET_KEY/COM
  +--> TASK

COM_TRY_GET_KEY/COM                           ----- -----  ----- -----  ----- -----
  +--> COM

COM                                           ----- -----  ----- -----  ----- -----

TASK                                          ----- -----  ----- -----  ----- -----

RUN_SHELL/SHELL                               ----- -----  ----- -----  0000H 0001H
  +--> PRINTF/PRINTF
  +--> CLOCK_ENTER_SHELL/CLOCK
  +--> LED_SAVE/LED
  +--> LED_CLEAR/LED
  +--> _LED_SET_CODE/LED
  +--> _GETS/GETS
  +--> SHELL
  +--> _CALL_CMD/SHELL
  +--> LED_RESTORE/LED
  +--> CLOCK_LEAVE_SHELL/CLOCK

_CMD_HELP/CMD_HELP                            ----- -----  ----- -----  0008H 0008H
  +--> SHELL_DUMP_CMD/SHELL
  +--> CMD_HELP
  +--> _SHELL_SEARCH_CMD_BY_NAME/SHELL
  +--> PRINTF/PRINTF

SHELL_DUMP_CMD/SHELL                          ----- -----  ----- -----  0009H 0009H
  +--> SHELL
  +--> PRINTF/PRINTF

SHELL                                         ----- -----  ----- -----  ----- -----

CMD_HELP                                      ----- -----  ----- -----  ----- -----

_SHELL_SEARCH_CMD_BY_NAME/SHELL               ----- -----  ----- -----  0009H 000CH
  +--> SHELL

_CMD_DBG/CMD_DBG                              ----- -----  ----- -----  0008H 0008H
  +--> CMD_DBG
  +--> PRINTF/PRINTF
  +--> DEBUG_ONOFF/DEBUG

CMD_DBG                                       ----- -----  ----- -----  ----- -----

DEBUG_ONOFF/DEBUG                             20H.0 20H.0  ----- -----  ----- -----
LX51 LINKER/LOCATER V4.66.87.0                                                        05/29/2018  21:11:03  PAGE 48



_CMD_SERIAL/CMD_SERIAL                        ----- -----  ----- -----  0008H 000BH
  +--> SERIAL_DUMP/SERIAL_HUB
  +--> _SERIAL_TEST_CTL_BIT/SERIAL_HUB
  +--> CMD_SERIAL
  +--> PRINTF/PRINTF
  +--> _SERIAL_SET_CTL_BIT/SERIAL_HUB
  +--> SERIAL_CTL_OUT/SERIAL_HUB
  +--> _ATOI/ATOI

CMD_SERIAL                                    ----- -----  ----- -----  ----- -----

_ATOI/ATOI                                    20H.1 20H.1  ----- -----  000FH 0013H
  +--> _ISSPACE/ISSPACE
  +--> _ISDIGIT/ISDIGIT

_ISSPACE/ISSPACE                              ----- -----  ----- -----  ----- -----

_ISDIGIT/ISDIGIT                              ----- -----  ----- -----  ----- -----

_CMD_INT/CMD_INT                              ----- -----  ----- -----  0008H 0008H
  +--> INT_HUB_DUMP/INT_HUB
  +--> INT_HUB_GET_STATUS/INT_HUB
  +--> _INT_HUB_DUMP_EXT_STATUS/INT_HUB

_CMD_I2C/CMD_I2C                              ----- -----  ----- -----  0008H 0009H
  +--> CMD_I2C
  +--> _I2C_READ/CMD_I2C
  +--> _I2C_WRITE/CMD_I2C

CMD_I2C                                       ----- -----  ----- -----  ----- -----

_I2C_READ/CMD_I2C                             20H.0 20H.0  ----- -----  000AH 000DH
  +--> CMD_I2C
  +--> _ATOI/ATOI
  +--> I2C_INIT/I2C
  +--> _I2C_GET/I2C
  +--> PRINTF/PRINTF

_I2C_WRITE/CMD_I2C                            20H.0 20H.0  ----- -----  000AH 000EH
  +--> CMD_I2C
  +--> _ATOI/ATOI
  +--> PRINTF/PRINTF
  +--> I2C_INIT/I2C
  +--> _I2C_PUT/I2C

_CMD_REBOOT/CMD_REBOOT                        ----- -----  ----- -----  0008H 0008H
  +--> PRINTF/PRINTF

_CMD_TASK/CMD_TASK                            ----- -----  ----- -----  0008H 000AH
  +--> TASK_DUMP/TASK
  +--> CMD_TASK
  +--> _ATOI/ATOI

TASK_DUMP/TASK                                ----- -----  ----- -----  000BH 000BH
  +--> TASK
  +--> PRINTF/PRINTF

CMD_TASK                                      ----- -----  ----- -----  ----- -----

_CMD_SM/CMD_SM                                ----- -----  ----- -----  0008H 0009H
  +--> SM_SHOW_CURRENT/SM
  +--> CMD_SM
  +--> SM_DUMP/SM
  +--> SM_DUMP_TABLE/SM
LX51 LINKER/LOCATER V4.66.87.0                                                        05/29/2018  21:11:03  PAGE 49


  +--> _SM_SET_TABLE_BY_NAME/SM
  +--> SM_DUMP_STATE/SM
  +--> _SM_SET_STATE_BY_NAME/SM
  +--> SM_DUMP_SUB_STATE/SM
  +--> _SM_SET_SUB_STATE_BY_NAME/SM
  +--> PRINTF/PRINTF

SM_SHOW_CURRENT/SM                            ----- -----  ----- -----  ----- -----
  +--> SM
  +--> PRINTF/PRINTF

CMD_SM                                        ----- -----  ----- -----  ----- -----

SM_DUMP/SM                                    ----- -----  ----- -----  000AH 000CH
  +--> SM
  +--> PRINTF/PRINTF

SM_DUMP_TABLE/SM                              ----- -----  ----- -----  000AH 000AH
  +--> SM
  +--> PRINTF/PRINTF

_SM_SET_TABLE_BY_NAME/SM                      ----- -----  ----- -----  000AH 000DH
  +--> SM
  +--> PRINTF/PRINTF

SM_DUMP_STATE/SM                              ----- -----  ----- -----  000AH 000AH
  +--> SM
  +--> PRINTF/PRINTF

_SM_SET_STATE_BY_NAME/SM                      ----- -----  ----- -----  000AH 000DH
  +--> SM
  +--> PRINTF/PRINTF
  +--> _SM_SET_STATE/SM
  +--> _SM_SET_SUB_STATE/SM

_SM_SET_STATE/SM                              ----- -----  ----- -----  ----- -----

_SM_SET_SUB_STATE/SM                          ----- -----  ----- -----  ----- -----
  +--> SM

SM_DUMP_SUB_STATE/SM                          ----- -----  ----- -----  000AH 000AH
  +--> SM
  +--> PRINTF/PRINTF

_SM_SET_SUB_STATE_BY_NAME/SM                  ----- -----  ----- -----  000AH 000DH
  +--> SM
  +--> PRINTF/PRINTF
  +--> _SM_SET_SUB_STATE/SM

_CMD_BEEPER/CMD_BEEPER                        ----- -----  ----- -----  0008H 000AH
  +--> CMD_BEEPER
  +--> BEEPER_BEEP/BEEPER
  +--> BEEPER_BEEP_BEEP/BEEPER
  +--> BEEPER_SET_BEEP_ENABLE/BEEPER
  +--> BEEPER_GET_MUSIC_INDEX/BEEPER
  +--> BEEPER_INC_MUSIC_INDEX/BEEPER
  +--> PRINTF/PRINTF
  +--> BEEPER_PLAY_MUSIC/BEEPER

CMD_BEEPER                                    ----- -----  ----- -----  ----- -----

BEEPER_BEEP_BEEP/BEEPER                       ----- -----  ----- -----  000BH 000BH
  +--> _DEBUG_PRINTF/DEBUG
  +--> _DELAY_10US/MISC
  +--> _DELAY_MS/MISC
LX51 LINKER/LOCATER V4.66.87.0                                                        05/29/2018  21:11:03  PAGE 50



_CMD_THERMO/CMD_THERMO                        ----- -----  ----- -----  0008H 000AH
  +--> THERMO_GET_CURRENT/THERMO
  +--> CMD_THERMO
  +--> THERMO_ENABLE/THERMO
  +--> THERMO_HI_THRESHOLD_GET/THERMO
  +--> THERMO_LO_THRESHOLD_GET/THERMO
  +--> PRINTF/PRINTF
  +--> THERMO_HI_THRESHOLD_INC/THERMO
  +--> THERMO_HI_THRESHOLD_DEC/THERMO
  +--> THERMO_HI_THRESHOLD_RESET/THERMO
  +--> _THERMO_HI_THRESHOLD_SET/THERMO
  +--> THERMO_LO_THRESHOLD_INC/THERMO
  +--> THERMO_LO_THRESHOLD_DEC/THERMO
  +--> THERMO_LO_THRESHOLD_RESET/THERMO
  +--> _THERMO_LO_THRESHOLD_SET/THERMO
  +--> _ATOI/ATOI

THERMO_GET_CURRENT/THERMO                     ----- -----  ----- -----  000BH 000DH
  +--> THERMO
  +--> _I2C_GETS/I2C
  +--> _DEBUG_PRINTF/DEBUG
  +--> _THERMO_HEX_TO_TEMP/THERMO

CMD_THERMO                                    ----- -----  ----- -----  ----- -----

THERMO_HI_THRESHOLD_INC/THERMO                ----- -----  ----- -----  ----- -----
  +--> THERMO_HI_THRESHOLD_GET/THERMO
  +--> THERMO
  +--> _THERMO_HI_THRESHOLD_SET/THERMO

THERMO_LO_THRESHOLD_DEC/THERMO                ----- -----  ----- -----  ----- -----
  +--> THERMO_LO_THRESHOLD_GET/THERMO
  +--> THERMO
  +--> _THERMO_LO_THRESHOLD_SET/THERMO

_CMD_MPU/CMD_MPU                              ----- -----  ----- -----  0008H 0009H
  +--> CMD_MPU
  +--> MPU_ENABLE/MPU
  +--> MPU_READ_INT_STATUS/MPU
  +--> PRINTF/PRINTF

CMD_MPU                                       ----- -----  ----- -----  ----- -----

_CMD_NULL/SHELL                               ----- -----  ----- -----  ----- -----
  +--> PRINTF/PRINTF

CLOCK_ENTER_SHELL/CLOCK                       ----- -----  ----- -----  ----- -----

LED_SAVE/LED                                  ----- -----  ----- -----  ----- -----

_GETS/GETS                                    ----- -----  ----- -----  0002H 0008H
  +--> GETCHAR/GETCHAR
  +--> _PUTCHAR/COM

GETCHAR/GETCHAR                               ----- -----  ----- -----  ----- -----
  +--> _GETKEY/COM
  +--> _PUTCHAR/COM

_GETKEY/COM                                   ----- -----  ----- -----  ----- -----
  +--> COM

_CALL_CMD/SHELL                               ----- -----  ----- -----  0002H 0007H
  +--> SHELL
  +--> PRINTF/PRINTF
LX51 LINKER/LOCATER V4.66.87.0                                                        05/29/2018  21:11:03  PAGE 51


  +--> _SHELL_SEARCH_CMD_BY_NAME/SHELL

LED_RESTORE/LED                               ----- -----  ----- -----  ----- -----

CLOCK_LEAVE_SHELL/CLOCK                       ----- -----  ----- -----  ----- -----
  +--> CLOCK_ENABLE_INTERRUPT/CLOCK
  +--> _CLOCK_SYNC_FROM_RTC/CLOCK

*** NEW ROOT ********************************

COM_ISR/COM                                   ----- -----  ----- -----  ----- -----

*** NEW ROOT ********************************

INT0_ISR/KEY                                  ----- -----  ----- -----  ----- -----
  +--> POWER_TEST_FLAG/POWER
  +--> POWER_CLR_FLAG/POWER
  +--> KEY
  +--> BEEPER_STOP_MUSIC/BEEPER

BEEPER_STOP_MUSIC/BEEPER                      ----- -----  ----- -----  ----- -----
  +--> _BEEPER_STOP_PLAY/BEEPER

*** NEW ROOT ********************************

BEEPER_ISR/BEEPER                             ----- -----  ----- -----  ----- -----

*** NEW ROOT ********************************

CLOCK0_ISR/CLOCK                              ----- -----  ----- -----  ----- -----
  +--> CLOCK_INC_MS39/CLOCK
  +--> TIMER_INC_MS39/TIMER
  +--> REFRESH_LED/LED

CLOCK_INC_MS39/CLOCK                          21H.3 21H.3  ----- -----  ----- -----
  +--> LT_TIMER_DEC_SEC/LT_TIMER
  +--> CLOCK

LT_TIMER_DEC_SEC/LT_TIMER                     ----- -----  ----- -----  ----- -----
  +--> LT_TIMER

TIMER_INC_MS39/TIMER                          ----- -----  ----- -----  ----- -----
  +--> TIMER

*** NEW ROOT ********************************

INT1_ISR/INT_HUB                              ----- -----  ----- -----  ----- -----
  +--> INT_HUB



PUBLIC SYMBOLS OF MODULE:  Clock (SM)


      VALUE       CLASS    TYPE      PUBLIC SYMBOL NAME
      =================================================
      00000020H.0 BIT      BIT       ?_alarm0_set_enable?BIT
      0200001CH   XDATA    BYTE      ?_debug_printf?BYTE
      00000020H.0 BIT      BIT       ?_fuse_set_fuse_broke?BIT
      0200001DH   XDATA    BYTE      ?_I2C_Gets?BYTE
      0200001AH   XDATA    BYTE      ?_I2C_Puts?BYTE
      0200004DH   XDATA    ---       ?_PRINTF?BYTE
      00000020H.1 BIT      BIT       ?_rtc_enable_alarm_int?BIT
      02000014H   XDATA    BYTE      ?_rtc_get_temperature?BYTE
      00000020H.2 BIT      BIT       ?_serial_set_ctl_bit?BIT
LX51 LINKER/LOCATER V4.66.87.0                                                        05/29/2018  21:11:03  PAGE 52


      0200004DH   XDATA    ---       ?_SPRINTF?BYTE
      020000EAH   XDATA    ---       ?_UNGETCHAR?BYTE
      02010047H   XDATA    ---       ?_VPRINTF?BYTE
      00000020H.0 BIT      BIT       ?alarm0_set_hour_12?BIT
      00000020H.0 BIT      BIT       ?alarm1_set_enable?BIT
      00000020H.0 BIT      BIT       ?beeper_set_beep_enable?BIT
      01000212H   CODE     ---       ?C?CASTF
      0100074DH   CODE     ---       ?C?CCASE
      00000025H.0 BIT      ---       ?C?CHARLOADED
      01000578H   CODE     ---       ?C?CLDOPTR
      0100055FH   CODE     ---       ?C?CLDPTR
      00000000H   NUMBER   ---       ?C?CODESEG
      01000871H   CODE     ---       ?C?COPYP2
      01000A2AH   CODE     ---       ?C?CSTOPTR
      010005A5H   CODE     ---       ?C?CSTPTR
      010001DEH   CODE     ---       ?C?FCASTC
      010001D9H   CODE     ---       ?C?FCASTI
      010001D4H   CODE     ---       ?C?FCASTL
      010003DCH   CODE     ---       ?C?FPADD
      010002D0H   CODE     ---       ?C?FPCONVERT
      01000137H   CODE     ---       ?C?FPDIV
      01000249H   CODE     ---       ?C?FPGETOPN2
      0100002EH   CODE     ---       ?C?FPMUL
      0100027EH   CODE     ---       ?C?FPNANRESULT
      01000288H   CODE     ---       ?C?FPOVERFLOW
      01000260H   CODE     ---       ?C?FPRESULT
      01000274H   CODE     ---       ?C?FPRESULT2
      01000293H   CODE     ---       ?C?FPROUND
      010003D8H   CODE     ---       ?C?FPSUB
      01000285H   CODE     ---       ?C?FPUNDERFLOW
      010004FDH   CODE     ---       ?C?FTNPWR
      01000773H   CODE     ---       ?C?ICALL
      01000777H   CODE     ---       ?C?ICALL2
      0100061EH   CODE     ---       ?C?IILDX
      01000A4CH   CODE     ---       ?C?ILDIX
      01000634H   CODE     ---       ?C?ILDOPTR
      010005B7H   CODE     ---       ?C?IMUL
      0100066CH   CODE     ---       ?C?LNEG
      0100067AH   CODE     ---       ?C?LSTKXDATA
      01000779H   CODE     ---       ?C?MEMSET
      010006ABH   CODE     ---       ?C?OFFX256
      010006BCH   CODE     ---       ?C?OFFXADD
      010006F1H   CODE     ---       ?C?PLDCODE
      01000A62H   CODE     ---       ?C?PLDIDATA
      010006D1H   CODE     ---       ?C?PLDIXDATA
      0100071DH   CODE     ---       ?C?PLDOPTR
      01000A6BH   CODE     ---       ?C?PLDPDATA
      010006FDH   CODE     ---       ?C?PLDPTR
      010006C8H   CODE     ---       ?C?PLDXDATA
      010006E8H   CODE     ---       ?C?PSTXDATA
      0100053DH   CODE     ---       ?C?SCDIV
      01000A0DH   CODE     ---       ?C?STRCMPP2
      010005C9H   CODE     ---       ?C?UIDIV
      00000000H   NUMBER   ---       ?C?XDATASEG
      01005E0DH   CODE     ---       ?C_START
      01000000H   CODE     NEAR LAB  ?C_STARTUP
      0000001DH   DATA     ---       ?C_XBP
      00000020H.0 BIT      BIT       ?clock_display?BIT
      00000020H.2 BIT      BIT       ?clock_enable_interrupt?BIT
      00000020H.0 BIT      BIT       ?clock_set_hour_12?BIT
      00000020H.0 BIT      BIT       ?debug_onoff?BIT
      00000020H.1 BIT      BIT       ?fuse_enable?BIT
      00000020H.0 BIT      BIT       ?fuse_set_tripwire_broke?BIT
      00000020H.0 BIT      BIT       ?fuse_trigger?BIT
      00000020H.1 BIT      BIT       ?hg_enable?BIT
LX51 LINKER/LOCATER V4.66.87.0                                                        05/29/2018  21:11:03  PAGE 53


      00000020H.2 BIT      BIT       ?I2C_PutAck?BIT
      00000020H.0 BIT      BIT       ?lt_timer_display?BIT
      00000020H.0 BIT      BIT       ?lt_timer_get_relative?BIT
      00000020H.1 BIT      BIT       ?mpu_enable?BIT
      00000020H.1 BIT      BIT       ?power_5v_enable?BIT
      00000020H.0 BIT      BIT       ?rtc_alarm_set_hour_12?BIT
      00000020H.0 BIT      BIT       ?rtc_set_lt_timer?BIT
      00000020H.0 BIT      BIT       ?rtc_time_set_hour_12?BIT
      00000020H.1 BIT      BIT       ?thermo_enable?BIT
      00000020H.0 BIT      BIT       ?timer_set_led_autorefresh?BIT
      02000014H   XDATA    BYTE      ?timer_set_led_autorefresh?BYTE
      010051A7H   CODE     ---       _alarm0_set_enable
      01006D13H   CODE     ---       _alarm0_test_enable
      01006F08H   CODE     ---       _alarm_proc
      01002FA4H   CODE     ---       _atoi
      01007877H   CODE     ---       _clock_get_mon_date
      01007DEAH   CODE     ---       _clock_is_leap_year
      0100878EH   CODE     ---       _clock_switch_display_mode
      01005208H   CODE     ---       _clock_sync_from_rtc
      01004E02H   CODE     ---       _clock_sync_to_rtc
      01002702H   CODE     ---       _clock_yymmdd_to_day
      01002C0BH   CODE     ---       _cmd_beeper
      010060F0H   CODE     ---       _cmd_dbg
      01005AE3H   CODE     ---       _cmd_help
      01006A9BH   CODE     ---       _cmd_i2c
      01006741H   CODE     ---       _cmd_int
      01004996H   CODE     ---       _cmd_mpu
      010061C0H   CODE     ---       _cmd_reboot
      01003AD5H   CODE     ---       _cmd_serial
      010025EFH   CODE     ---       _cmd_sm
      010036A0H   CODE     ---       _cmd_task
      010024A3H   CODE     ---       _cmd_thermo
      01006859H   CODE     ---       _debug_printf
      01008432H   CODE     ---       _delay_10us
      01008440H   CODE     ---       _delay_ms
      01005F84H   CODE     ---       _delay_task_reg
      010050DFH   CODE     ---       _display_logo
      01007BB8H   CODE     ---       _fuse_proc
      01006405H   CODE     ---       _fuse_set_fuse_broke
      010082F4H   CODE     ---       _getkey
      01002CF9H   CODE     ---       _gets
      01007D8EH   CODE     ---       _I2C_Get
      01004C4FH   CODE     ---       _I2C_Gets
      01008031H   CODE     ---       _I2C_Put
      01005A39H   CODE     ---       _I2C_Puts
      0100774CH   CODE     ---       _I2C_Write
      01000EF7H   CODE     ---       _int_hub_dump_ext_status
      010071D2H   CODE     ---       _int_hub_test_bit
      010083F9H   CODE     ---       _isdigit
      010080F9H   CODE     ---       _isspace
      01007DA5H   CODE     ---       _led_clr_blink
      01008363H   CODE     ---       _led_clr_dp
      01007ECAH   CODE     ---       _led_set_blink
      01005D6FH   CODE     ---       _led_set_code
      01008372H   CODE     ---       _led_set_dp
      010057D8H   CODE     ---       _lt_timer_save_to_rom
      01005CCFH   CODE     ---       _mod_proc
      01006890H   CODE     ---       _mod_set_proc
      01008258H   CODE     ---       _mpu_threshold_inc
      01008478H   CODE     ---       _mpu_threshold_set
      01008812H   CODE     ---       _null_proc
      01007B9EH   CODE     ---       _power_proc
      01000ADFH   CODE     ---       _PRINTF
      01006CB5H   CODE     ---       _putbuf
      01007C3AH   CODE     ---       _putchar
LX51 LINKER/LOCATER V4.66.87.0                                                        05/29/2018  21:11:03  PAGE 54


      0100699AH   CODE     ---       _rom_read
      01006B63H   CODE     ---       _rom_write
      01007B6AH   CODE     ---       _rtc_alarm_set_date
      01007E88H   CODE     ---       _rtc_alarm_set_day
      01008133H   CODE     ---       _rtc_alarm_set_hour
      01008146H   CODE     ---       _rtc_alarm_set_min
      01004298H   CODE     ---       _rtc_alarm_set_mode
      01007E9EH   CODE     ---       _rtc_alarm_set_sec
      01007D77H   CODE     ---       _rtc_clr_alarm_int_flag
      01003CC0H   CODE     ---       _rtc_date_set_date
      01008192H   CODE     ---       _rtc_date_set_day
      01008714H   CODE     ---       _rtc_date_set_month
      0100870CH   CODE     ---       _rtc_date_set_year
      01007351H   CODE     ---       _rtc_enable_alarm_int
      01003F31H   CODE     ---       _rtc_get_temperature
      01005726H   CODE     ---       _rtc_read_data
      01007820H   CODE     ---       _rtc_test_alarm_int
      0100783DH   CODE     ---       _rtc_test_alarm_int_flag
      01008752H   CODE     ---       _rtc_time_set_hour
      01008630H   CODE     ---       _rtc_time_set_min
      01008758H   CODE     ---       _rtc_time_set_sec
      01005830H   CODE     ---       _rtc_write_data
      01001AA9H   CODE     ---       _run_state_machine
      010045C0H   CODE     ---       _scan_fuse
      01004A0EH   CODE     ---       _scan_hg
      010053E9H   CODE     ---       _scan_int_hub_proc
      0100280EH   CODE     ---       _scan_key_proc
      01006C25H   CODE     ---       _serial_set_ctl_bit
      01006D9FH   CODE     ---       _serial_test_ctl_bit
      01005D1FH   CODE     ---       _set_proc
      01005FCDH   CODE     ---       _shell_search_cmd_by_name
      01004AF8H   CODE     ---       _sm_clock_alarm
      01007FB7H   CODE     ---       _sm_clock_counter_init
      0100405AH   CODE     ---       _sm_clock_counter_submod0
      0100555FH   CODE     ---       _sm_clock_counter_submod1
      01005448H   CODE     ---       _sm_clock_counter_submod2
      010062CAH   CODE     ---       _sm_clock_counter_submod3
      010074B8H   CODE     ---       _sm_clock_counter_submod4
      010072E0H   CODE     ---       _sm_clock_counter_submod5
      01007406H   CODE     ---       _sm_clock_display_init
      01006016H   CODE     ---       _sm_clock_display_submod0
      01006E83H   CODE     ---       _sm_clock_display_submod1
      0100742AH   CODE     ---       _sm_clock_display_submod2
      01007109H   CODE     ---       _sm_clock_display_submod3
      010083BDH   CODE     ---       _sm_clock_mod_alarm_init
      010052C9H   CODE     ---       _sm_clock_mod_alarm_submod0
      010055BBH   CODE     ---       _sm_clock_mod_alarm_submod1
      010058DEH   CODE     ---       _sm_clock_mod_alarm_submod2
      01006F8CH   CODE     ---       _sm_clock_mod_alarm_submod3
      01006FB7H   CODE     ---       _sm_clock_mod_alarm_submod4
      01007C06H   CODE     ---       _sm_clock_mod_time_init
      01006F60H   CODE     ---       _sm_clock_mod_time_submod0
      01007C85H   CODE     ---       _sm_clock_mod_time_submod1
      010078EAH   CODE     ---       _sm_clock_mod_time_submod2
      01007906H   CODE     ---       _sm_clock_mod_time_submod3
      01007922H   CODE     ---       _sm_clock_mod_time_submod4
      0100793EH   CODE     ---       _sm_clock_mod_time_submod5
      01006B00H   CODE     ---       _sm_clock_powersave
      01007BECH   CODE     ---       _sm_clock_timer_init
      010060A8H   CODE     ---       _sm_clock_timer_submod0
      01004B6DH   CODE     ---       _sm_clock_timer_submod1
      01005503H   CODE     ---       _sm_clock_timer_submod2
      010083CCH   CODE     ---       _sm_fuse_detonate_init
      01005389H   CODE     ---       _sm_fuse_detonate_submod0
      0100744EH   CODE     ---       _sm_fuse_param_init
LX51 LINKER/LOCATER V4.66.87.0                                                        05/29/2018  21:11:03  PAGE 55


      0100605FH   CODE     ---       _sm_fuse_param_submod0
      01007A3AH   CODE     ---       _sm_fuse_param_submod1
      01007A56H   CODE     ---       _sm_fuse_param_submod2
      01007A72H   CODE     ---       _sm_fuse_param_submod3
      01007A8EH   CODE     ---       _sm_fuse_param_submod4
      01007AAAH   CODE     ---       _sm_fuse_param_submod5
      0100417CH   CODE     ---       _sm_fuse_param_submod6
      01008626H   CODE     ---       _sm_fuse_powersave_init
      0100778AH   CODE     ---       _sm_fuse_powersave_submod0
      010080BDH   CODE     ---       _sm_fuse_powersave_submod1
      01006388H   CODE     ---       _sm_fuse_test_init
      0100208BH   CODE     ---       _sm_fuse_test_submod0
      0100795AH   CODE     ---       _sm_fuse_test_submod1
      01007976H   CODE     ---       _sm_fuse_test_submod2
      01007992H   CODE     ---       _sm_fuse_test_submod3
      010079AEH   CODE     ---       _sm_fuse_test_submod4
      010079CAH   CODE     ---       _sm_fuse_test_submod5
      010079E6H   CODE     ---       _sm_fuse_test_submod6
      01007A02H   CODE     ---       _sm_fuse_test_submod7
      01007A1EH   CODE     ---       _sm_fuse_test_submod8
      010078B1H   CODE     ---       _sm_fuse_timer_init
      01002914H   CODE     ---       _sm_fuse_timer_submod0
      01005935H   CODE     ---       _sm_fuse_timer_submod1
      01003219H   CODE     ---       _sm_fuse_timer_submod2
      01007247H   CODE     ---       _sm_fuse_timer_submod3
      01007AC6H   CODE     ---       _sm_fuse_timer_submod4
      01007FCCH   CODE     ---       _sm_global_flag_mod_init
      01007C9EH   CODE     ---       _sm_global_flag_mod_submod0
      01007CB7H   CODE     ---       _sm_global_flag_mod_submod1
      01007AE2H   CODE     ---       _sm_global_flag_mod_submod2
      01007D30H   CODE     ---       _sm_power_pack_display_init
      01005B37H   CODE     ---       _sm_power_pack_display_submod0
      0100854FH   CODE     ---       _sm_power_pack_powersave_init
      01007894H   CODE     ---       _sm_power_pack_powersave_submod0
      0100307FH   CODE     ---       _sm_set_state_by_name
      01004437H   CODE     ---       _sm_set_sub_state_by_name
      01003816H   CODE     ---       _sm_set_table_by_name
      01000AD9H   CODE     ---       _SPRINTF
      010054A7H   CODE     ---       _thermo_hi_threshold_set
      01004F42H   CODE     ---       _thermo_lo_threshold_set
      01007F22H   CODE     ---       _thermo_proc
      01006289H   CODE     ---       _thermo_threshold_inc
      0100810DH   CODE     ---       _time_proc
      0100806DH   CODE     ---       _timer_get_hour
      01008081H   CODE     ---       _timer_get_min
      01007542H   CODE     ---       _timer_get_ms10
      01008095H   CODE     ---       _timer_get_sec
      010078CEH   CODE     ---       _timer_inc_hour
      01007CE8H   CODE     ---       _timer_inc_min
      01007D00H   CODE     ---       _timer_inc_sec
      01007037H   CODE     ---       _timer_save
      010087A6H   CODE     ---       _timer_set_mode
      01006931H   CODE     ---       _VPRINTF
*SFR* 000000D0H.6 DATA     BIT       AC
*SFR* 000000E0H   DATA     BYTE      ACC
      01008764H   CODE     ---       alarm0_get_day_mask
      01008770H   CODE     ---       alarm0_get_hour
      01008818H   CODE     ---       alarm0_get_hour_12
      0100876AH   CODE     ---       alarm0_get_min
      01008424H   CODE     ---       alarm0_inc_hour
      01008416H   CODE     ---       alarm0_inc_min
      01000026H   CODE     ---       alarm0_set_hour_12
      01005BDDH   CODE     ---       alarm0_sync_to_rtc
      010087BEH   CODE     ---       alarm1_set_enable
      01006A35H   CODE     ---       alarm1_sync_to_rtc
LX51 LINKER/LOCATER V4.66.87.0                                                        05/29/2018  21:11:03  PAGE 56


      0100881BH   CODE     ---       alarm1_test_enable
      0100507AH   CODE     ---       alarm_dump
      0100864BH   CODE     ---       alarm_enter_powersave
      01008381H   CODE     ---       alarm_initialize
      01008654H   CODE     ---       alarm_leave_powersave
      0100764CH   CODE     ---       alarm_switch_off
      01008390H   CODE     ---       alarm_switch_on
*SFR* 0000008EH   DATA     BYTE      AUXR
*SFR* 000000A2H   DATA     BYTE      AUXR1
*SFR* 000000F0H   DATA     BYTE      B
      0100700DH   CODE     ---       beeper_beep
      01006247H   CODE     ---       beeper_beep_beep
      01006349H   CODE     ---       beeper_beep_beep_always
      01008666H   CODE     ---       beeper_enter_powersave
      0100882AH   CODE     ---       beeper_get_beep_enable
      01008788H   CODE     ---       beeper_get_music_index
      01008782H   CODE     ---       beeper_get_music_to
      01007DD3H   CODE     ---       beeper_inc_music_index
      01008059H   CODE     ---       beeper_inc_music_to
      01006204H   CODE     ---       beeper_initialize
      0100866FH   CODE     ---       beeper_leave_powersave
*SFR* 00000090H.0 DATA     BIT       beeper_out
      01007520H   CODE     ---       beeper_play_music
      010087C3H   CODE     ---       beeper_set_beep_enable
      0100882DH   CODE     ---       beeper_stop_music
*SFR* 000000C8H.1 DATA     BIT       C_T2
      010087E1H   CODE     ---       clock_clr_sec
      010087C8H   CODE     ---       clock_display
      01003FC7H   CODE     ---       clock_dump
      01008678H   CODE     ---       clock_enable_interrupt
      0100845CH   CODE     ---       clock_enter_powersave
      01008833H   CODE     ---       clock_enter_shell
      01008794H   CODE     ---       clock_get_date
      0100879AH   CODE     ---       clock_get_day
      010087EBH   CODE     ---       clock_get_hour
      01008830H   CODE     ---       clock_get_hour_12
      010087E6H   CODE     ---       clock_get_min
      010087A0H   CODE     ---       clock_get_month
      010087D2H   CODE     ---       clock_get_ms39
      010087DCH   CODE     ---       clock_get_sec
      010087D7H   CODE     ---       clock_get_sec_256
      010087F0H   CODE     ---       clock_get_year
      0100766CH   CODE     ---       clock_inc_date
      0100857CH   CODE     ---       clock_inc_hour
      01008571H   CODE     ---       clock_inc_min
      01007EE0H   CODE     ---       clock_inc_month
      01007F8DH   CODE     ---       clock_inc_year
      01006E56H   CODE     ---       clock_initialize
      01007CD0H   CODE     ---       clock_leave_powersave
      01007EF6H   CODE     ---       clock_leave_shell
      010087CDH   CODE     ---       clock_set_hour_12
      010098ADH   CONST    ---       cmds
      01008408H   CODE     ---       com_enter_powersave
      01007132H   CODE     ---       com_initialize
      01000016H   CODE     ---       com_leave_powersave
      01007FE1H   CODE     ---       com_try_get_key
      020000D8H   XDATA    BYTE      common_state
*SFR* 000000C8H.0 DATA     BIT       CP_RL2
*SFR* 000000D0H.7 DATA     BIT       CY
      01008839H   CODE     ---       debug_initialize
      01008809H   CODE     ---       debug_onoff
      01005C2EH   CODE     ---       delay_task_call
      010086C0H   CODE     ---       delay_task_initialize
*SFR* 00000083H   DATA     BYTE      DPH
*SFR* 00000082H   DATA     BYTE      DPL
LX51 LINKER/LOCATER V4.66.87.0                                                        05/29/2018  21:11:03  PAGE 57


      010064FBH   CODE     ---       dump_rtc
*SFR* 000000A8H.7 DATA     BIT       EA
*SFR* 000000A8H.6 DATA     BIT       EC
*SFR* 000000A8H.4 DATA     BIT       ES
*SFR* 000000A8H.1 DATA     BIT       ET0
*SFR* 000000A8H.3 DATA     BIT       ET1
*SFR* 000000A8H.5 DATA     BIT       ET2
      0000004EH   IDATA    WORD      ev_bits0
      00000050H   IDATA    WORD      ev_bits1
*SFR* 000000A8H.0 DATA     BIT       EX0
*SFR* 000000A8H.2 DATA     BIT       EX1
*SFR* 000000C8H.3 DATA     BIT       EXEN2
*SFR* 000000C8H.6 DATA     BIT       EXF2
*SFR* 00000090H.4 DATA     BIT       EXT_INT
*SFR* 000000D0H.5 DATA     BIT       F0
*SFR* 00000098H.7 DATA     BIT       FE
      01007182H   CODE     ---       fuse_enable
      0100868AH   CODE     ---       fuse_enter_powersave
      010084EFH   CODE     ---       fuse_initialize
      01008693H   CODE     ---       fuse_leave_powersave
      010072BAH   CODE     ---       fuse_set_tripwire_broke
      010068C6H   CODE     ---       fuse_trigger
      010080E5H   CODE     ---       GETCHAR
      010071AAH   CODE     ---       hg_enable
      0100869CH   CODE     ---       hg_enter_powersave
      010081DAH   CODE     ---       hg_get_state
      01008507H   CODE     ---       hg_initialize
      010086A5H   CODE     ---       hg_leave_powersave
      010082A7H   CODE     ---       I2C_Delay
      010074FEH   CODE     ---       I2C_GetAck
      010085EAH   CODE     ---       I2C_Init
      010081A4H   CODE     ---       I2C_PutAck
      01006CE4H   CODE     ---       I2C_Read
*SFR* 00000090H.7 DATA     BIT       I2C_SCL
*SFR* 00000090H.6 DATA     BIT       I2C_SDA
      01008566H   CODE     ---       I2C_Start
      01007EB4H   CODE     ---       I2C_Stop
*SFR* 000000A8H   DATA     BYTE      IE
*SFR* 00000088H.1 DATA     BIT       IE0
*SFR* 00000088H.3 DATA     BIT       IE1
*SFR* 000000B0H.2 DATA     BIT       INT0
*SFR* 000000B0H.3 DATA     BIT       INT1
*SFR* 000000B0H.3 DATA     BIT       INT_BIT
      01005269H   CODE     ---       int_hub_dump
      01005144H   CODE     ---       int_hub_get_status
      01004D2AH   CODE     ---       int_hub_initialize
*SFR* 000000B8H   DATA     BYTE      IP
*SFR* 000000B7H   DATA     BYTE      IPH
*SFR* 000000E3H   DATA     BYTE      ISP_ADDRH
*SFR* 000000E4H   DATA     BYTE      ISP_ADDRL
*SFR* 000000E5H   DATA     BYTE      ISP_CMD
*SFR* 000000E7H   DATA     BYTE      ISP_CONTR
*SFR* 000000E2H   DATA     BYTE      ISP_DATA
*SFR* 000000E6H   DATA     BYTE      ISP_TRIG
*SFR* 00000088H.0 DATA     BIT       IT0
*SFR* 00000088H.2 DATA     BIT       IT1
      01008639H   CODE     ---       key_enter_powersave
      01007C53H   CODE     ---       key_initialize
      01008642H   CODE     ---       key_leave_powersave
      020000DAH   XDATA    BYTE      last_display_s
      00000036H   IDATA    BYTE      led_blink
      010082C1H   CODE     ---       led_clear
      0100C8ABH   CONST    ---       led_code
      00000038H   IDATA    ---       led_data
      010082D2H   CODE     ---       led_enter_powersave
LX51 LINKER/LOCATER V4.66.87.0                                                        05/29/2018  21:11:03  PAGE 58


      010065ADH   CODE     ---       led_initialize
      01007F63H   CODE     ---       led_leave_powersave
      00000024H.3 BIT      BIT       led_powersave
      01007294H   CODE     ---       led_restore
      0100726EH   CODE     ---       led_save
      00000022H.6 BIT      BIT       lpress_lock_day_sec
      00000022H.4 BIT      BIT       lpress_lock_month_min
      00000022H.5 BIT      BIT       lpress_lock_year_hour
      020000D9H   XDATA    BYTE      lpress_start
      01003DFBH   CODE     ---       lt_timer_dec_sec
      01007BD2H   CODE     ---       lt_timer_display
      01007FA2H   CODE     ---       lt_timer_enter_powersave
      010087B2H   CODE     ---       lt_timer_get_date
      010087FAH   CODE     ---       lt_timer_get_hour
      010087FFH   CODE     ---       lt_timer_get_min
      010087ACH   CODE     ---       lt_timer_get_month
      01004FABH   CODE     ---       lt_timer_get_relative
      01008804H   CODE     ---       lt_timer_get_sec
      010087F5H   CODE     ---       lt_timer_get_year
      0100816CH   CODE     ---       lt_timer_inc_date
      010085A8H   CODE     ---       lt_timer_inc_hour
      010085B3H   CODE     ---       lt_timer_inc_min
      0100859DH   CODE     ---       lt_timer_inc_month
      010085BEH   CODE     ---       lt_timer_inc_sec
      01008592H   CODE     ---       lt_timer_inc_year
      010081ECH   CODE     ---       lt_timer_initialize
      01007472H   CODE     ---       lt_timer_leave_powersave
      01006822H   CODE     ---       lt_timer_load_from_rom
      0100839FH   CODE     ---       lt_timer_reset
      0100846AH   CODE     ---       lt_timer_start_ram
      010077A9H   CODE     ---       lt_timer_start_rtc
      01008513H   CODE     ---       lt_timer_stop_ram
      010077C7H   CODE     ---       lt_timer_stop_rtc
      01007E01H   CODE     ---       lt_timer_switch_display
      0100768CH   CODE     ---       lt_timer_switch_off
      010081FEH   CODE     ---       lt_timer_switch_on
      01006537H   CODE     ---       lt_timer_sync_to_rtc
      01005E0DH   CODE     ---       main
*SFR* 000000A0H.6 DATA     BIT       MOD_KEY
      0100776BH   CODE     ---       mpu_enable
      010086C9H   CODE     ---       mpu_enter_powersave
      010083AEH   CODE     ---       mpu_initialize
*SFR* 00000090H.2 DATA     BIT       MPU_INT
      010086D2H   CODE     ---       mpu_leave_powersave
      010073E2H   CODE     ---       mpu_read_int_status
      010087B8H   CODE     ---       mpu_threshold_get
      0100873CH   CODE     ---       mpu_threshold_reset
*SFR* 000000D0H.2 DATA     BIT       OV
*SFR* 000000D0H.0 DATA     BIT       P
*SFR* 00000080H   DATA     BYTE      P0
*SFR* 00000080H.0 DATA     BIT       P00
*SFR* 00000080H.1 DATA     BIT       P01
*SFR* 00000080H.2 DATA     BIT       P02
*SFR* 00000080H.3 DATA     BIT       P03
*SFR* 00000080H.4 DATA     BIT       P04
*SFR* 00000080H.5 DATA     BIT       P05
*SFR* 00000080H.6 DATA     BIT       P06
*SFR* 00000080H.7 DATA     BIT       P07
*SFR* 00000090H   DATA     BYTE      P1
*SFR* 00000090H.0 DATA     BIT       P10
*SFR* 00000090H.1 DATA     BIT       P11
*SFR* 00000090H.2 DATA     BIT       P12
*SFR* 00000090H.3 DATA     BIT       P13
*SFR* 00000090H.4 DATA     BIT       P14
*SFR* 00000090H.5 DATA     BIT       P15
LX51 LINKER/LOCATER V4.66.87.0                                                        05/29/2018  21:11:03  PAGE 59


*SFR* 00000090H.6 DATA     BIT       P16
*SFR* 00000090H.7 DATA     BIT       P17
*SFR* 000000A0H   DATA     BYTE      P2
*SFR* 000000A0H.0 DATA     BIT       P20
*SFR* 000000A0H.1 DATA     BIT       P21
*SFR* 000000A0H.2 DATA     BIT       P22
*SFR* 000000A0H.3 DATA     BIT       P23
*SFR* 000000A0H.4 DATA     BIT       P24
*SFR* 000000A0H.5 DATA     BIT       P25
*SFR* 000000A0H.6 DATA     BIT       P26
*SFR* 000000A0H.7 DATA     BIT       P27
*SFR* 000000B0H   DATA     BYTE      P3
*SFR* 000000B0H.0 DATA     BIT       P30
*SFR* 000000B0H.1 DATA     BIT       P31
*SFR* 000000B0H.2 DATA     BIT       P32
*SFR* 000000B0H.3 DATA     BIT       P33
*SFR* 000000B0H.4 DATA     BIT       P34
*SFR* 000000B0H.5 DATA     BIT       P35
*SFR* 000000B0H.6 DATA     BIT       P36
*SFR* 000000B0H.7 DATA     BIT       P37
*SFR* 000000E8H   DATA     BYTE      P4
*SFR* 000000E8H.0 DATA     BIT       P40
*SFR* 000000E8H.1 DATA     BIT       P41
*SFR* 000000E8H.2 DATA     BIT       P42
*SFR* 000000E8H.3 DATA     BIT       P43
*SFR* 000000E8H.4 DATA     BIT       P44
*SFR* 000000E8H.5 DATA     BIT       P45
*SFR* 000000E8H.6 DATA     BIT       P46
*SFR* 00000087H   DATA     BYTE      PCON
*SFR* 000000B0H.6 DATA     BIT       POWER_5V_EN
      01007AFEH   CODE     ---       power_5v_enable
      0100880EH   CODE     ---       power_5v_get_enable
      01008824H   CODE     ---       power_clr_flag
      01005E59H   CODE     ---       power_enter_powersave
      01007DBCH   CODE     ---       power_get_powersave_to
      01008776H   CODE     ---       power_get_powersave_to_s
      01008827H   CODE     ---       power_get_volume
      0100739AH   CODE     ---       power_inc_powersave_to
      01006A68H   CODE     ---       power_initialize
      01006BC5H   CODE     ---       power_leave_powersave
      0100865DH   CODE     ---       power_reset_powersave_to
      01008821H   CODE     ---       power_set_flag
      0100881EH   CODE     ---       power_test_flag
      01006BF5H   CODE     ---       power_test_powersave_to
      00000024H.4 BIT      BIT       powersave_flag
*SFR* 000000A0H   DATA     BYTE      PPAGE_SFR
*SFR* 000000B8H.4 DATA     BIT       PS
*SFR* 000000D0H   DATA     BYTE      PSW
*SFR* 000000B8H.1 DATA     BIT       PT0
*SFR* 000000B8H.3 DATA     BIT       PT1
*SFR* 000000B8H.5 DATA     BIT       PT2
*SFR* 000000B8H.0 DATA     BIT       PX0
*SFR* 000000B8H.2 DATA     BIT       PX1
*SFR* 00000098H.2 DATA     BIT       RB8
*SFR* 000000CBH   DATA     BYTE      RCAP2H
*SFR* 000000CAH   DATA     BYTE      RCAP2L
*SFR* 000000C8H.5 DATA     BIT       RCLK
*SFR* 000000B0H.7 DATA     BIT       RD
      01005673H   CODE     ---       refresh_led
*SFR* 00000098H.4 DATA     BIT       REN
*SFR* 00000098H.0 DATA     BIT       RI
      01006443H   CODE     ---       rom_initialize
      01008734H   CODE     ---       rom_is_factory_reset
*SFR* 000000B0H.7 DATA     BIT       ROM_RESET
*SFR* 000000D0H.3 DATA     BIT       RS0
LX51 LINKER/LOCATER V4.66.87.0                                                        05/29/2018  21:11:03  PAGE 60


*SFR* 000000D0H.4 DATA     BIT       RS1
      01007F4EH   CODE     ---       rtc_alarm_get_date
      01007FF5H   CODE     ---       rtc_alarm_get_day
      01007E46H   CODE     ---       rtc_alarm_get_hour
      01007E5CH   CODE     ---       rtc_alarm_get_hour_12
      01007E72H   CODE     ---       rtc_alarm_get_min
      0100314DH   CODE     ---       rtc_alarm_get_mode
      01008009H   CODE     ---       rtc_alarm_get_sec
      01007803H   CODE     ---       rtc_alarm_set_hour_12
      0100871CH   CODE     ---       rtc_date_get_date
      0100875EH   CODE     ---       rtc_date_get_day
      010084D7H   CODE     ---       rtc_date_get_month
      010084CBH   CODE     ---       rtc_date_get_year
      01007B84H   CODE     ---       rtc_enter_powersave
      010021F4H   CODE     ---       rtc_initialize
*SFR* 00000090H.1 DATA     BIT       RTC_INT
      01008815H   CODE     ---       rtc_is_lt_timer
      0100801DH   CODE     ---       rtc_leave_powersave
      01000006H   CODE     ---       rtc_set_lt_timer
      010086ECH   CODE     ---       rtc_time_get_hour
      010086F4H   CODE     ---       rtc_time_get_hour_12
      010086FCH   CODE     ---       rtc_time_get_min
      01008704H   CODE     ---       rtc_time_get_sec
      01008304H   CODE     ---       rtc_time_set_hour_12
      01002350H   CODE     ---       run_shell
      01003A2EH   CODE     ---       run_task
*SFR* 000000B0H.0 DATA     BIT       RXD
*SFR* 000000A9H   DATA     BYTE      SADDR
*SFR* 000000B9H   DATA     BYTE      SADEN
      020000BBH   XDATA    BYTE      saved_led_blink
      020000BDH   XDATA    ---       saved_led_data
*SFR* 00000099H   DATA     BYTE      SBUF
      010048A6H   CODE     ---       scan_alarm
      01005EF1H   CODE     ---       scan_lt_timer
      01006D42H   CODE     ---       scan_mpu
      01008120H   CODE     ---       scan_rtc
      01004D96H   CODE     ---       scan_thermo
*SFR* 00000098H   DATA     BYTE      SCON
      00000023H.2 BIT      BIT       sendactive
      00000023H.3 BIT      BIT       sendfull
      01007B4FH   CODE     ---       serial_ctl_out
      0100115DH   CODE     ---       serial_dump
      0100665BH   CODE     ---       serial_hub_initialize
*SFR* 000000A0H.7 DATA     BIT       SET_KEY
      0200007DH   XDATA    ---       shell_buf
      010068FCH   CODE     ---       shell_dump_cmd
*SFR* 00000098H.7 DATA     BIT       SM0
*SFR* 00000098H.6 DATA     BIT       SM1
*SFR* 00000098H.5 DATA     BIT       SM2
      0100CA45H   CONST    ---       sm_clock_alarm_ss_name
      0100B453H   CONST    ---       sm_clock_counter_ss_name
      0100BDBEH   CONST    ---       sm_clock_display_ss_name
      0100B7F3H   CONST    ---       sm_clock_mod_alarm_ss_name
      0100B076H   CONST    ---       sm_clock_mod_time_name
      0100CA9CH   CONST    ---       sm_clock_powersave_ss_name
      0100C0F1H   CONST    ---       sm_clock_timer_ss_name
      020000D3H   XDATA    BYTE      sm_curr_table
      01002B17H   CODE     ---       sm_dump
      01005C7FH   CODE     ---       sm_dump_state
      010056CDH   CODE     ---       sm_dump_sub_state
      0100677AH   CODE     ---       sm_dump_table
      0100C708H   CONST    ---       sm_fuse_detonate_ss_name
      0100B269H   CONST    ---       sm_fuse_param_ss_name
      0100C454H   CONST    ---       sm_fuse_powersave_ss_name
      0100A562H   CONST    ---       sm_fuse_test_ss_name
LX51 LINKER/LOCATER V4.66.87.0                                                        05/29/2018  21:11:03  PAGE 61


      0100AE73H   CONST    ---       sm_fuse_timer_ss_name
      0100BEF0H   CONST    ---       sm_global_flag_mod_ss_name
      0100732CH   CODE     ---       sm_initialize
      020000D4H   XDATA    BYTE      sm_new_table
      0100C585H   CONST    ---       sm_power_pack_display_ss_name
      0100C4F2H   CONST    ---       sm_power_pack_powersave_ss_name
      0100630AH   CODE     ---       sm_show_current
*SFR* 00000081H   DATA     BYTE      SP
*SFR* 000000B0H.4 DATA     BIT       T0
*SFR* 000000B0H.5 DATA     BIT       T1
*SFR* 00000090H.0 DATA     BIT       T2
*SFR* 000000C8H   DATA     BYTE      T2CON
*SFR* 00000090H.1 DATA     BIT       T2EX
*SFR* 000000C9H   DATA     BYTE      T2MOD
      010047B2H   CODE     ---       task_dump
      01008045H   CODE     ---       task_initialize
      0100A9B4H   CONST    ---       task_name
*SFR* 00000098H.3 DATA     BIT       TB8
*SFR* 000000C8H.4 DATA     BIT       TCLK
*SFR* 00000088H   DATA     BYTE      TCON
*SFR* 00000088H.5 DATA     BIT       TF0
*SFR* 00000088H.7 DATA     BIT       TF1
*SFR* 000000C8H.7 DATA     BIT       TF2
*SFR* 0000008CH   DATA     BYTE      TH0
*SFR* 0000008DH   DATA     BYTE      TH1
*SFR* 000000CDH   DATA     BYTE      TH2
      01008608H   CODE     ---       thermo_enable
      010086AEH   CODE     ---       thermo_enter_powersave
      01006B32H   CODE     ---       thermo_get_current
      01008210H   CODE     ---       thermo_hi_threshold_dec
      010075A8H   CODE     ---       thermo_hi_threshold_get
      01008222H   CODE     ---       thermo_hi_threshold_inc
      010085C9H   CODE     ---       thermo_hi_threshold_reach_bottom
      0100852BH   CODE     ---       thermo_hi_threshold_reach_top
      01008724H   CODE     ---       thermo_hi_threshold_reset
      0100851FH   CODE     ---       thermo_initialize
*SFR* 00000090H.3 DATA     BIT       THERMO_INT
      010086B7H   CODE     ---       thermo_leave_powersave
      01008234H   CODE     ---       thermo_lo_threshold_dec
      01007495H   CODE     ---       thermo_lo_threshold_get
      01008246H   CODE     ---       thermo_lo_threshold_inc
      010085D4H   CODE     ---       thermo_lo_threshold_reach_bottom
      01008537H   CODE     ---       thermo_lo_threshold_reach_top
      0100872CH   CODE     ---       thermo_lo_threshold_reset
*SFR* 00000098H.1 DATA     BIT       TI
      01007D18H   CODE     ---       timer_clr
      010084E3H   CODE     ---       timer_enter_powersave
      01002A1AH   CODE     ---       timer_inc_ms39
      010081B6H   CODE     ---       timer_initialize
      01008681H   CODE     ---       timer_leave_powersave
      01008314H   CODE     ---       timer_set_led_autorefresh
      01007F0CH   CODE     ---       timer_start
      01008836H   CODE     ---       timer_stop
*SFR* 0000008AH   DATA     BYTE      TL0
*SFR* 0000008BH   DATA     BYTE      TL1
*SFR* 000000CCH   DATA     BYTE      TL2
*SFR* 00000089H   DATA     BYTE      TMOD
*SFR* 00000088H.4 DATA     BIT       TR0
*SFR* 00000088H.6 DATA     BIT       TR1
*SFR* 000000C8H.2 DATA     BIT       TR2
*SFR* 000000B0H.1 DATA     BIT       TXD
*SFR* 000000E1H   DATA     BYTE      WDT_CONTR
*SFR* 000000B0H.6 DATA     BIT       WR
*SFR* 000000C0H   DATA     BYTE      XICON

LX51 LINKER/LOCATER V4.66.87.0                                                        05/29/2018  21:11:03  PAGE 62




SYMBOL TABLE OF MODULE:  Clock (SM)

      VALUE       REP       CLASS    TYPE      SYMBOL NAME
      ====================================================
      ---         MODULE    ---      ---       SM
      020000D4H   PUBLIC    XDATA    BYTE      sm_new_table
      020000D3H   PUBLIC    XDATA    BYTE      sm_curr_table
      01004437H   PUBLIC    CODE     ---       _sm_set_sub_state_by_name
      0100307FH   PUBLIC    CODE     ---       _sm_set_state_by_name
      01003816H   PUBLIC    CODE     ---       _sm_set_table_by_name
      010056CDH   PUBLIC    CODE     ---       sm_dump_sub_state
      01005C7FH   PUBLIC    CODE     ---       sm_dump_state
      0100677AH   PUBLIC    CODE     ---       sm_dump_table
      01002B17H   PUBLIC    CODE     ---       sm_dump
      0100630AH   PUBLIC    CODE     ---       sm_show_current
      0100732CH   PUBLIC    CODE     ---       sm_initialize
      01001AA9H   PUBLIC    CODE     ---       _run_state_machine
      01008812H   PUBLIC    CODE     ---       _null_proc
      0100810DH   PUBLIC    CODE     ---       _time_proc
      010091D9H   SYMBOL    CONST    ---       sm_group_power_pack
      010091E1H   SYMBOL    CONST    ---       sm_group_fuse
      01008FF6H   SYMBOL    CONST    ---       sm_trans_fuse_timer
      01008B18H   SYMBOL    CONST    ---       sm_trans_clock_mod_time
      0100828EH   SYMBOL    CODE     ---       _sm_set_state
      01008C8BH   SYMBOL    CONST    ---       sm_trans_clock_powersave
      01008DFEH   SYMBOL    CONST    ---       sm_trans_fuse_test
      01009259H   SYMBOL    CONST    ---       sm_global_flag_names
      01008A70H   SYMBOL    CONST    ---       sm_trans_clock_display
      0100910EH   SYMBOL    CONST    ---       sm_trans_fuse_detonate
      0100855BH   SYMBOL    CODE     ---       _sm_set_sub_state
      01008D10H   SYMBOL    CONST    ---       sm_trans_clock_counter
      01008DE9H   SYMBOL    CONST    ---       sm_trans_power_pack_powersave
      010091F5H   SYMBOL    CONST    ---       sm_group_global_flag
      01009131H   SYMBOL    CONST    ---       sm_trans_fuse_powersave
      01009205H   SYMBOL    CONST    ---       sm_clock_names
      01008CAEH   SYMBOL    CONST    ---       sm_trans_clock_alarm
      01009277H   SYMBOL    CONST    ---       sm_names
      010091F9H   SYMBOL    CONST    ---       sm_trans_table
      01008DB8H   SYMBOL    CONST    ---       sm_trans_power_pack_display
      010091BDH   SYMBOL    CONST    ---       sm_group_clock
      01009185H   SYMBOL    CONST    ---       sm_trans_global_flag_mod
      01008CD1H   SYMBOL    CONST    ---       sm_trans_clock_timer
      020000D2H   SYMBOL    XDATA    BYTE      sm_state
      01009265H   SYMBOL    CONST    ---       sm_power_pack_names
      01009235H   SYMBOL    CONST    ---       sm_fuse_names
      01008C0DH   SYMBOL    CONST    ---       sm_trans_clock_mod_alarm
      01008F16H   SYMBOL    CONST    ---       sm_trans_fuse_param

      01001DAFH   BLOCK     CODE     ---       LVL=0
      ---         BLOCKEND  ---      ---       LVL=0

      0100810DH   BLOCK     CODE     ---       LVL=0
      0200000CH   SYMBOL    XDATA    BYTE      ev
      0100810DH   LINE      CODE     ---       #729
      01008112H   LINE      CODE     ---       #730
      01008112H   LINE      CODE     ---       #731
      01008115H   LINE      CODE     ---       #732
      01008118H   LINE      CODE     ---       #734
      ---         BLOCKEND  ---      ---       LVL=0

      01008812H   BLOCK     CODE     ---       LVL=0
      00000007H   SYMBOL    DATA     BYTE      ev
      01008812H   LINE      CODE     ---       #738
LX51 LINKER/LOCATER V4.66.87.0                                                        05/29/2018  21:11:03  PAGE 63


      01008812H   LINE      CODE     ---       #739
      01008812H   LINE      CODE     ---       #740
      ---         BLOCKEND  ---      ---       LVL=0

      01001AA9H   BLOCK     CODE     ---       LVL=0
      0200000DH   SYMBOL    XDATA    BYTE      ev
      01001AAEH   BLOCK     CODE     NEAR LAB  LVL=1
      0200000EH   SYMBOL    XDATA    BYTE      c
      0200000FH   SYMBOL    XDATA    BYTE      newstate
      02000010H   SYMBOL    XDATA    BYTE      index
      ---         BLOCKEND  ---      ---       LVL=1
      01001AA9H   LINE      CODE     ---       #743
      01001AAEH   LINE      CODE     ---       #744
      01001AAEH   LINE      CODE     ---       #749
      01001AB9H   LINE      CODE     ---       #750
      01001AF0H   LINE      CODE     ---       #751
      01001B37H   LINE      CODE     ---       #753
      01001B37H   LINE      CODE     ---       #754
      01001B48H   LINE      CODE     ---       #755
      01001B52H   LINE      CODE     ---       #756
      01001BEEH   LINE      CODE     ---       #765
      01001C20H   LINE      CODE     ---       #766
      01001C28H   LINE      CODE     ---       #767
      01001C30H   LINE      CODE     ---       #768
      01001C31H   LINE      CODE     ---       #769
      01001C31H   LINE      CODE     ---       #770
      01001C3AH   LINE      CODE     ---       #772
      ---         BLOCKEND  ---      ---       LVL=0

      0100732CH   BLOCK     CODE     ---       LVL=0
      0100732CH   LINE      CODE     ---       #775
      0100732CH   LINE      CODE     ---       #776
      0100732CH   LINE      CODE     ---       #777
      01007335H   LINE      CODE     ---       #778
      0100733AH   LINE      CODE     ---       #779
      0100733CH   LINE      CODE     ---       #781
      0100733FH   LINE      CODE     ---       #782
      01007342H   LINE      CODE     ---       #783
      01007347H   LINE      CODE     ---       #785
      01007350H   LINE      CODE     ---       #786
      ---         BLOCKEND  ---      ---       LVL=0

      0100630AH   BLOCK     CODE     ---       LVL=0
      0100630AH   LINE      CODE     ---       #788
      0100630AH   LINE      CODE     ---       #789
      0100630AH   LINE      CODE     ---       #790
      ---         BLOCKEND  ---      ---       LVL=0

      01002B17H   BLOCK     CODE     ---       LVL=0
      01002B17H   BLOCK     CODE     NEAR LAB  LVL=1
      0200000AH   SYMBOL    XDATA    CHAR      i
      0200000BH   SYMBOL    XDATA    CHAR      j
      0200000CH   SYMBOL    XDATA    CHAR      k
      ---         BLOCKEND  ---      ---       LVL=1
      01002B17H   LINE      CODE     ---       #797
      01002B17H   LINE      CODE     ---       #798
      01002B17H   LINE      CODE     ---       #801
      01002B2AH   LINE      CODE     ---       #802
      01002B49H   LINE      CODE     ---       #803
      01002B69H   LINE      CODE     ---       #804
      01002BA4H   LINE      CODE     ---       #805
      01002BB1H   LINE      CODE     ---       #806
      01002BF0H   LINE      CODE     ---       #808
      01002BF8H   LINE      CODE     ---       #809
      01002C01H   LINE      CODE     ---       #810
LX51 LINKER/LOCATER V4.66.87.0                                                        05/29/2018  21:11:03  PAGE 64


      01002C0AH   LINE      CODE     ---       #811
      ---         BLOCKEND  ---      ---       LVL=0

      0100677AH   BLOCK     CODE     ---       LVL=0
      0100677AH   BLOCK     CODE     NEAR LAB  LVL=1
      0200000AH   SYMBOL    XDATA    CHAR      i
      ---         BLOCKEND  ---      ---       LVL=1
      0100677AH   LINE      CODE     ---       #813
      0100677AH   LINE      CODE     ---       #814
      0100677AH   LINE      CODE     ---       #816
      0100678AH   LINE      CODE     ---       #817
      010067A9H   LINE      CODE     ---       #818
      010067B1H   LINE      CODE     ---       #819
      ---         BLOCKEND  ---      ---       LVL=0

      01005C7FH   BLOCK     CODE     ---       LVL=0
      01005C7FH   BLOCK     CODE     NEAR LAB  LVL=1
      0200000AH   SYMBOL    XDATA    CHAR      i
      ---         BLOCKEND  ---      ---       LVL=1
      01005C7FH   LINE      CODE     ---       #821
      01005C7FH   LINE      CODE     ---       #822
      01005C7FH   LINE      CODE     ---       #824
      01005C9AH   LINE      CODE     ---       #825
      01005CC6H   LINE      CODE     ---       #826
      01005CCEH   LINE      CODE     ---       #827
      ---         BLOCKEND  ---      ---       LVL=0

      010056CDH   BLOCK     CODE     ---       LVL=0
      010056CDH   BLOCK     CODE     NEAR LAB  LVL=1
      0200000AH   SYMBOL    XDATA    CHAR      i
      ---         BLOCKEND  ---      ---       LVL=1
      010056CDH   LINE      CODE     ---       #829
      010056CDH   LINE      CODE     ---       #830
      010056CDH   LINE      CODE     ---       #832
      010056EBH   LINE      CODE     ---       #833
      0100571DH   LINE      CODE     ---       #835
      01005725H   LINE      CODE     ---       #836
      ---         BLOCKEND  ---      ---       LVL=0

      01003816H   BLOCK     CODE     ---       LVL=0
      0200000AH   SYMBOL    XDATA    ---       table_name
      0100381CH   BLOCK     CODE     NEAR LAB  LVL=1
      0200000DH   SYMBOL    XDATA    CHAR      i
      ---         BLOCKEND  ---      ---       LVL=1
      01003816H   LINE      CODE     ---       #839
      0100381CH   LINE      CODE     ---       #840
      0100381CH   LINE      CODE     ---       #842
      01003836H   LINE      CODE     ---       #843
      0100384EH   LINE      CODE     ---       #844
      01003868H   LINE      CODE     ---       #845
      0100388EH   LINE      CODE     ---       #849
      010038B0H   LINE      CODE     ---       #853
      010038BCH   LINE      CODE     ---       #854
      010038C1H   LINE      CODE     ---       #855
      010038C3H   LINE      CODE     ---       #856
      010038C3H   LINE      CODE     ---       #857
      010038CCH   LINE      CODE     ---       #858
      010038CDH   LINE      CODE     ---       #859
      ---         BLOCKEND  ---      ---       LVL=0

      0100828EH   BLOCK     CODE     ---       LVL=0
      00000007H   SYMBOL    DATA     BYTE      state
      0100828EH   LINE      CODE     ---       #861
      0100828EH   LINE      CODE     ---       #862
      0100828EH   LINE      CODE     ---       #863
LX51 LINKER/LOCATER V4.66.87.0                                                        05/29/2018  21:11:03  PAGE 65


      01008296H   LINE      CODE     ---       #864
      0100829EH   LINE      CODE     ---       #865
      ---         BLOCKEND  ---      ---       LVL=0

      0100855BH   BLOCK     CODE     ---       LVL=0
      00000007H   SYMBOL    DATA     BYTE      sub_state
      0100855BH   LINE      CODE     ---       #867
      0100855BH   LINE      CODE     ---       #868
      0100855BH   LINE      CODE     ---       #869
      01008560H   LINE      CODE     ---       #870
      01008565H   LINE      CODE     ---       #871
      ---         BLOCKEND  ---      ---       LVL=0

      0100307FH   BLOCK     CODE     ---       LVL=0
      0200000AH   SYMBOL    XDATA    ---       state_name
      01003085H   BLOCK     CODE     NEAR LAB  LVL=1
      0200000DH   SYMBOL    XDATA    CHAR      i
      ---         BLOCKEND  ---      ---       LVL=1
      0100307FH   LINE      CODE     ---       #873
      01003085H   LINE      CODE     ---       #874
      01003085H   LINE      CODE     ---       #876
      010030A7H   LINE      CODE     ---       #877
      010030CEH   LINE      CODE     ---       #878
      010030FDH   LINE      CODE     ---       #881
      01003133H   LINE      CODE     ---       #885
      0100313BH   LINE      CODE     ---       #886
      01003140H   LINE      CODE     ---       #887
      01003142H   LINE      CODE     ---       #888
      01003142H   LINE      CODE     ---       #889
      0100314BH   LINE      CODE     ---       #890
      0100314CH   LINE      CODE     ---       #891
      ---         BLOCKEND  ---      ---       LVL=0

      01004437H   BLOCK     CODE     ---       LVL=0
      0200000AH   SYMBOL    XDATA    ---       sub_state_name
      0100443DH   BLOCK     CODE     NEAR LAB  LVL=1
      0200000DH   SYMBOL    XDATA    CHAR      i
      ---         BLOCKEND  ---      ---       LVL=1
      01004437H   LINE      CODE     ---       #893
      0100443DH   LINE      CODE     ---       #894
      0100443DH   LINE      CODE     ---       #896
      01004453H   LINE      CODE     ---       #897
      01004477H   LINE      CODE     ---       #898
      010044AAH   LINE      CODE     ---       #902
      010044B2H   LINE      CODE     ---       #903
      010044B4H   LINE      CODE     ---       #904
      010044B4H   LINE      CODE     ---       #905
      010044BCH   LINE      CODE     ---       #906
      010044BDH   LINE      CODE     ---       #907
      ---         BLOCKEND  ---      ---       LVL=0

      ---         MODULE    ---      ---       MAIN
      01005E0DH   PUBLIC    CODE     ---       main
      00000080H   SFRSYM    DATA     BYTE      P0
      00000090H   SFRSYM    DATA     BYTE      P1
      000000A0H   SFRSYM    DATA     BYTE      P2
      000000B0H   SFRSYM    DATA     BYTE      P3
      000000C0H   SFRSYM    DATA     BYTE      XICON
      000000B0H.4 SFRSYM    DATA     BIT       T0
      000000D0H.6 SFRSYM    DATA     BIT       AC
      000000E8H   SFRSYM    DATA     BYTE      P4
      000000B0H.5 SFRSYM    DATA     BIT       T1
      000000E6H   SFRSYM    DATA     BYTE      ISP_TRIG
      00000090H.0 SFRSYM    DATA     BIT       T2
      000000A8H.7 SFRSYM    DATA     BIT       EA
LX51 LINKER/LOCATER V4.66.87.0                                                        05/29/2018  21:11:03  PAGE 66


      000000A8H.6 SFRSYM    DATA     BIT       EC
      00000098H.7 SFRSYM    DATA     BIT       FE
      000000A8H   SFRSYM    DATA     BYTE      IE
      000000C8H.6 SFRSYM    DATA     BIT       EXF2
      000000B0H.7 SFRSYM    DATA     BIT       RD
      000000A8H.4 SFRSYM    DATA     BIT       ES
      000000B8H   SFRSYM    DATA     BYTE      IP
      00000098H.0 SFRSYM    DATA     BIT       RI
      000000B0H.2 SFRSYM    DATA     BIT       INT0
      000000D0H.7 SFRSYM    DATA     BIT       CY
      00000098H.1 SFRSYM    DATA     BIT       TI
      000000B0H.3 SFRSYM    DATA     BIT       INT1
      000000CBH   SFRSYM    DATA     BYTE      RCAP2H
      000000E5H   SFRSYM    DATA     BYTE      ISP_CMD
      000000B8H.4 SFRSYM    DATA     BIT       PS
      00000081H   SFRSYM    DATA     BYTE      SP
      00000090H.1 SFRSYM    DATA     BIT       T2EX
      000000D0H.2 SFRSYM    DATA     BIT       OV
      000000CAH   SFRSYM    DATA     BYTE      RCAP2L
      000000C8H.1 SFRSYM    DATA     BIT       C_T2
      000000B0H.6 SFRSYM    DATA     BIT       WR
      000000C8H.5 SFRSYM    DATA     BIT       RCLK
      000000C8H.4 SFRSYM    DATA     BIT       TCLK
      00000080H.0 SFRSYM    DATA     BIT       P00
      00000099H   SFRSYM    DATA     BYTE      SBUF
      00000087H   SFRSYM    DATA     BYTE      PCON
      00000090H.0 SFRSYM    DATA     BIT       P10
      00000080H.1 SFRSYM    DATA     BIT       P01
      000000A0H.0 SFRSYM    DATA     BIT       P20
      00000090H.1 SFRSYM    DATA     BIT       P11
      00000080H.2 SFRSYM    DATA     BIT       P02
      000000E3H   SFRSYM    DATA     BYTE      ISP_ADDRH
      000000B0H.0 SFRSYM    DATA     BIT       P30
      000000A0H.1 SFRSYM    DATA     BIT       P21
      00000090H.2 SFRSYM    DATA     BIT       P12
      00000080H.3 SFRSYM    DATA     BIT       P03
      00000098H   SFRSYM    DATA     BYTE      SCON
      000000B0H.1 SFRSYM    DATA     BIT       P31
      000000A0H.2 SFRSYM    DATA     BIT       P22
      00000090H.3 SFRSYM    DATA     BIT       P13
      00000080H.4 SFRSYM    DATA     BIT       P04
      000000E8H.0 SFRSYM    DATA     BIT       P40
      00000089H   SFRSYM    DATA     BYTE      TMOD
      00000088H   SFRSYM    DATA     BYTE      TCON
      000000B0H.2 SFRSYM    DATA     BIT       P32
      000000A0H.3 SFRSYM    DATA     BIT       P23
      00000090H.4 SFRSYM    DATA     BIT       P14
      00000080H.5 SFRSYM    DATA     BIT       P05
      000000E8H.1 SFRSYM    DATA     BIT       P41
      000000B0H.3 SFRSYM    DATA     BIT       P33
      000000A0H.4 SFRSYM    DATA     BIT       P24
      00000090H.5 SFRSYM    DATA     BIT       P15
      00000080H.6 SFRSYM    DATA     BIT       P06
      000000E4H   SFRSYM    DATA     BYTE      ISP_ADDRL
      000000E8H.2 SFRSYM    DATA     BIT       P42
      000000B0H.4 SFRSYM    DATA     BIT       P34
      000000A0H.5 SFRSYM    DATA     BIT       P25
      00000090H.6 SFRSYM    DATA     BIT       P16
      00000080H.7 SFRSYM    DATA     BIT       P07
      000000E8H.3 SFRSYM    DATA     BIT       P43
      000000B0H.5 SFRSYM    DATA     BIT       P35
      000000A0H.6 SFRSYM    DATA     BIT       P26
      00000090H.7 SFRSYM    DATA     BIT       P17
      000000E8H.4 SFRSYM    DATA     BIT       P44
      000000B0H.6 SFRSYM    DATA     BIT       P36
LX51 LINKER/LOCATER V4.66.87.0                                                        05/29/2018  21:11:03  PAGE 67


      000000A0H.7 SFRSYM    DATA     BIT       P27
      000000E8H.5 SFRSYM    DATA     BIT       P45
      000000B0H.7 SFRSYM    DATA     BIT       P37
      000000E8H.6 SFRSYM    DATA     BIT       P46
      00000088H.1 SFRSYM    DATA     BIT       IE0
      00000088H.3 SFRSYM    DATA     BIT       IE1
      0000008EH   SFRSYM    DATA     BYTE      AUXR
      000000F0H   SFRSYM    DATA     BYTE      B
      000000C8H.0 SFRSYM    DATA     BIT       CP_RL2
      000000E0H   SFRSYM    DATA     BYTE      ACC
      000000A8H.1 SFRSYM    DATA     BIT       ET0
      000000A8H.3 SFRSYM    DATA     BIT       ET1
      00000088H.5 SFRSYM    DATA     BIT       TF0
      000000A8H.5 SFRSYM    DATA     BIT       ET2
      00000088H.7 SFRSYM    DATA     BIT       TF1
      000000C8H.7 SFRSYM    DATA     BIT       TF2
      00000098H.2 SFRSYM    DATA     BIT       RB8
      0000008CH   SFRSYM    DATA     BYTE      TH0
      000000A8H.0 SFRSYM    DATA     BIT       EX0
      00000088H.0 SFRSYM    DATA     BIT       IT0
      0000008DH   SFRSYM    DATA     BYTE      TH1
      00000098H.3 SFRSYM    DATA     BIT       TB8
      000000A8H.2 SFRSYM    DATA     BIT       EX1
      00000088H.2 SFRSYM    DATA     BIT       IT1
      000000CDH   SFRSYM    DATA     BYTE      TH2
      000000D0H.0 SFRSYM    DATA     BIT       P
      00000098H.7 SFRSYM    DATA     BIT       SM0
      0000008AH   SFRSYM    DATA     BYTE      TL0
      00000098H.6 SFRSYM    DATA     BIT       SM1
      0000008BH   SFRSYM    DATA     BYTE      TL1
      00000098H.5 SFRSYM    DATA     BIT       SM2
      000000CCH   SFRSYM    DATA     BYTE      TL2
      000000B8H.1 SFRSYM    DATA     BIT       PT0
      000000B8H.3 SFRSYM    DATA     BIT       PT1
      000000D0H.3 SFRSYM    DATA     BIT       RS0
      000000E7H   SFRSYM    DATA     BYTE      ISP_CONTR
      000000B8H.5 SFRSYM    DATA     BIT       PT2
      00000088H.4 SFRSYM    DATA     BIT       TR0
      000000D0H.4 SFRSYM    DATA     BIT       RS1
      00000088H.6 SFRSYM    DATA     BIT       TR1
      000000C8H.2 SFRSYM    DATA     BIT       TR2
      000000B8H.0 SFRSYM    DATA     BIT       PX0
      000000E1H   SFRSYM    DATA     BYTE      WDT_CONTR
      000000B8H.2 SFRSYM    DATA     BIT       PX1
      00000083H   SFRSYM    DATA     BYTE      DPH
      00000082H   SFRSYM    DATA     BYTE      DPL
      000000B7H   SFRSYM    DATA     BYTE      IPH
      000000C8H.3 SFRSYM    DATA     BIT       EXEN2
      00000098H.4 SFRSYM    DATA     BIT       REN
      000000C9H   SFRSYM    DATA     BYTE      T2MOD
      000000C8H   SFRSYM    DATA     BYTE      T2CON
      000000E2H   SFRSYM    DATA     BYTE      ISP_DATA
      000000B9H   SFRSYM    DATA     BYTE      SADEN
      000000B0H.0 SFRSYM    DATA     BIT       RXD
      000000A9H   SFRSYM    DATA     BYTE      SADDR
      000000B0H.1 SFRSYM    DATA     BIT       TXD
      000000A2H   SFRSYM    DATA     BYTE      AUXR1
      000000D0H.5 SFRSYM    DATA     BIT       F0
      000000D0H   SFRSYM    DATA     BYTE      PSW
      01006D71H   SYMBOL    CODE     ---       show_version

      01006D71H   BLOCK     CODE     ---       LVL=0
      01006D71H   LINE      CODE     ---       #32
      01006D71H   LINE      CODE     ---       #33
      01006D71H   LINE      CODE     ---       #35
LX51 LINKER/LOCATER V4.66.87.0                                                        05/29/2018  21:11:03  PAGE 68


      01006D7AH   LINE      CODE     ---       #36
      01006D8DH   LINE      CODE     ---       #37
      01006D96H   LINE      CODE     ---       #38
      ---         BLOCKEND  ---      ---       LVL=0

      01005E0DH   BLOCK     CODE     ---       LVL=0
      01005E0DH   LINE      CODE     ---       #42
      01005E0DH   LINE      CODE     ---       #43
      01005E0DH   LINE      CODE     ---       #44
      01005E0FH   LINE      CODE     ---       #45
      01005E12H   LINE      CODE     ---       #46
      01005E15H   LINE      CODE     ---       #47
      01005E18H   LINE      CODE     ---       #48
      01005E1BH   LINE      CODE     ---       #49
      01005E1EH   LINE      CODE     ---       #50
      01005E21H   LINE      CODE     ---       #51
      01005E24H   LINE      CODE     ---       #52
      01005E27H   LINE      CODE     ---       #53
      01005E2AH   LINE      CODE     ---       #54
      01005E2DH   LINE      CODE     ---       #55
      01005E30H   LINE      CODE     ---       #56
      01005E33H   LINE      CODE     ---       #57
      01005E36H   LINE      CODE     ---       #58
      01005E39H   LINE      CODE     ---       #59
      01005E3CH   LINE      CODE     ---       #60
      01005E3FH   LINE      CODE     ---       #61
      01005E42H   LINE      CODE     ---       #62
      01005E45H   LINE      CODE     ---       #63
      01005E48H   LINE      CODE     ---       #64
      01005E4BH   LINE      CODE     ---       #65
      01005E4EH   LINE      CODE     ---       #66
      01005E51H   LINE      CODE     ---       #67
      01005E51H   LINE      CODE     ---       #68
      01005E54H   LINE      CODE     ---       #69
      01005E57H   LINE      CODE     ---       #70
      ---         BLOCKEND  ---      ---       LVL=0

      ---         MODULE    ---      ---       ?C_STARTUP
      01000000H   PUBLIC    CODE     NEAR LAB  ?C_STARTUP
      000000E0H   SFRSYM    DATA     BYTE      ACC
      000000F0H   SFRSYM    DATA     BYTE      B
      00000083H   SFRSYM    DATA     BYTE      DPH
      00000082H   SFRSYM    DATA     BYTE      DPL
      000000A0H   SFRSYM    DATA     BYTE      PPAGE_SFR
      00000081H   SFRSYM    DATA     BYTE      SP
      00000000H   SYMBOL    NUMBER   ---       IBPSTACK
      00000100H   SYMBOL    NUMBER   ---       IBPSTACKTOP
      00000080H   SYMBOL    NUMBER   ---       IDATALEN
      0100762FH   SYMBOL    CODE     NEAR LAB  IDATALOOP
      00000000H   SYMBOL    NUMBER   ---       PBPSTACK
      00000100H   SYMBOL    NUMBER   ---       PBPSTACKTOP
      00000000H   SYMBOL    NUMBER   ---       PDATALEN
      00000000H   SYMBOL    NUMBER   ---       PDATASTART
      00000000H   SYMBOL    NUMBER   ---       PPAGE
      00000000H   SYMBOL    NUMBER   ---       PPAGEENABLE
      0100762CH   SYMBOL    CODE     NEAR LAB  STARTUP1
      00000001H   SYMBOL    NUMBER   ---       XBPSTACK
      00010000H   SYMBOL    NUMBER   ---       XBPSTACKTOP
      00000400H   SYMBOL    NUMBER   ---       XDATALEN
      0100763AH   SYMBOL    CODE     NEAR LAB  XDATALOOP
      00000000H   SYMBOL    NUMBER   ---       XDATASTART

      01000000H   BLOCK     CODE     NEAR LAB  LVL=0
      01000000H   LINE      CODE     ---       #126
      ---         BLOCKEND  ---      ---       LVL=0
LX51 LINKER/LOCATER V4.66.87.0                                                        05/29/2018  21:11:03  PAGE 69



      0100762CH   BLOCK     CODE     NEAR LAB  LVL=0
      0100762CH   LINE      CODE     ---       #133
      0100762EH   LINE      CODE     ---       #134
      0100762FH   LINE      CODE     ---       #135
      01007630H   LINE      CODE     ---       #136
      01007632H   LINE      CODE     ---       #140
      01007635H   LINE      CODE     ---       #141
      01007637H   LINE      CODE     ---       #145
      01007639H   LINE      CODE     ---       #147
      0100763AH   LINE      CODE     ---       #148
      0100763BH   LINE      CODE     ---       #149
      0100763CH   LINE      CODE     ---       #150
      0100763EH   LINE      CODE     ---       #151
      01007640H   LINE      CODE     ---       #176
      01007643H   LINE      CODE     ---       #177
      01007646H   LINE      CODE     ---       #185
      01007649H   LINE      CODE     ---       #196
      ---         BLOCKEND  ---      ---       LVL=0

      ---         MODULE    ---      ---       COM
      00000023H.3 PUBLIC    BIT      BIT       sendfull
      00000023H.2 PUBLIC    BIT      BIT       sendactive
      01000016H   PUBLIC    CODE     ---       com_leave_powersave
      01008408H   PUBLIC    CODE     ---       com_enter_powersave
      01007FE1H   PUBLIC    CODE     ---       com_try_get_key
      010082F4H   PUBLIC    CODE     ---       _getkey
      01007C3AH   PUBLIC    CODE     ---       _putchar
      01006CB5H   PUBLIC    CODE     ---       _putbuf
      01007132H   PUBLIC    CODE     ---       com_initialize
      00000080H   SFRSYM    DATA     BYTE      P0
      00000090H   SFRSYM    DATA     BYTE      P1
      000000A0H   SFRSYM    DATA     BYTE      P2
      000000B0H   SFRSYM    DATA     BYTE      P3
      000000C0H   SFRSYM    DATA     BYTE      XICON
      000000B0H.4 SFRSYM    DATA     BIT       T0
      000000D0H.6 SFRSYM    DATA     BIT       AC
      000000E8H   SFRSYM    DATA     BYTE      P4
      000000B0H.5 SFRSYM    DATA     BIT       T1
      000000E6H   SFRSYM    DATA     BYTE      ISP_TRIG
      00000090H.0 SFRSYM    DATA     BIT       T2
      000000A8H.7 SFRSYM    DATA     BIT       EA
      000000A8H.6 SFRSYM    DATA     BIT       EC
      00000098H.7 SFRSYM    DATA     BIT       FE
      000000A8H   SFRSYM    DATA     BYTE      IE
      000000C8H.6 SFRSYM    DATA     BIT       EXF2
      000000B0H.7 SFRSYM    DATA     BIT       RD
      000000A8H.4 SFRSYM    DATA     BIT       ES
      000000B8H   SFRSYM    DATA     BYTE      IP
      00000098H.0 SFRSYM    DATA     BIT       RI
      000000B0H.2 SFRSYM    DATA     BIT       INT0
      000000D0H.7 SFRSYM    DATA     BIT       CY
      00000098H.1 SFRSYM    DATA     BIT       TI
      000000B0H.3 SFRSYM    DATA     BIT       INT1
      000000CBH   SFRSYM    DATA     BYTE      RCAP2H
      000000E5H   SFRSYM    DATA     BYTE      ISP_CMD
      000000B8H.4 SFRSYM    DATA     BIT       PS
      00000081H   SFRSYM    DATA     BYTE      SP
      00000090H.1 SFRSYM    DATA     BIT       T2EX
      000000D0H.2 SFRSYM    DATA     BIT       OV
      000000CAH   SFRSYM    DATA     BYTE      RCAP2L
      000000C8H.1 SFRSYM    DATA     BIT       C_T2
      000000B0H.6 SFRSYM    DATA     BIT       WR
      000000C8H.5 SFRSYM    DATA     BIT       RCLK
      000000C8H.4 SFRSYM    DATA     BIT       TCLK
LX51 LINKER/LOCATER V4.66.87.0                                                        05/29/2018  21:11:03  PAGE 70


      00000080H.0 SFRSYM    DATA     BIT       P00
      00000099H   SFRSYM    DATA     BYTE      SBUF
      00000087H   SFRSYM    DATA     BYTE      PCON
      00000090H.0 SFRSYM    DATA     BIT       P10
      00000080H.1 SFRSYM    DATA     BIT       P01
      000000A0H.0 SFRSYM    DATA     BIT       P20
      00000090H.1 SFRSYM    DATA     BIT       P11
      00000080H.2 SFRSYM    DATA     BIT       P02
      000000E3H   SFRSYM    DATA     BYTE      ISP_ADDRH
      000000B0H.0 SFRSYM    DATA     BIT       P30
      000000A0H.1 SFRSYM    DATA     BIT       P21
      00000090H.2 SFRSYM    DATA     BIT       P12
      00000080H.3 SFRSYM    DATA     BIT       P03
      00000098H   SFRSYM    DATA     BYTE      SCON
      000000B0H.1 SFRSYM    DATA     BIT       P31
      000000A0H.2 SFRSYM    DATA     BIT       P22
      00000090H.3 SFRSYM    DATA     BIT       P13
      00000080H.4 SFRSYM    DATA     BIT       P04
      000000E8H.0 SFRSYM    DATA     BIT       P40
      00000089H   SFRSYM    DATA     BYTE      TMOD
      00000088H   SFRSYM    DATA     BYTE      TCON
      000000B0H.2 SFRSYM    DATA     BIT       P32
      000000A0H.3 SFRSYM    DATA     BIT       P23
      00000090H.4 SFRSYM    DATA     BIT       P14
      00000080H.5 SFRSYM    DATA     BIT       P05
      000000E8H.1 SFRSYM    DATA     BIT       P41
      000000B0H.3 SFRSYM    DATA     BIT       P33
      000000A0H.4 SFRSYM    DATA     BIT       P24
      00000090H.5 SFRSYM    DATA     BIT       P15
      00000080H.6 SFRSYM    DATA     BIT       P06
      000000E4H   SFRSYM    DATA     BYTE      ISP_ADDRL
      000000E8H.2 SFRSYM    DATA     BIT       P42
      000000B0H.4 SFRSYM    DATA     BIT       P34
      000000A0H.5 SFRSYM    DATA     BIT       P25
      00000090H.6 SFRSYM    DATA     BIT       P16
      00000080H.7 SFRSYM    DATA     BIT       P07
      000000E8H.3 SFRSYM    DATA     BIT       P43
      000000B0H.5 SFRSYM    DATA     BIT       P35
      000000A0H.6 SFRSYM    DATA     BIT       P26
      00000090H.7 SFRSYM    DATA     BIT       P17
      000000E8H.4 SFRSYM    DATA     BIT       P44
      000000B0H.6 SFRSYM    DATA     BIT       P36
      000000A0H.7 SFRSYM    DATA     BIT       P27
      000000E8H.5 SFRSYM    DATA     BIT       P45
      000000B0H.7 SFRSYM    DATA     BIT       P37
      000000E8H.6 SFRSYM    DATA     BIT       P46
      00000088H.1 SFRSYM    DATA     BIT       IE0
      00000088H.3 SFRSYM    DATA     BIT       IE1
      0000008EH   SFRSYM    DATA     BYTE      AUXR
      000000F0H   SFRSYM    DATA     BYTE      B
      000000C8H.0 SFRSYM    DATA     BIT       CP_RL2
      000000E0H   SFRSYM    DATA     BYTE      ACC
      000000A8H.1 SFRSYM    DATA     BIT       ET0
      000000A8H.3 SFRSYM    DATA     BIT       ET1
      00000088H.5 SFRSYM    DATA     BIT       TF0
      000000A8H.5 SFRSYM    DATA     BIT       ET2
      00000088H.7 SFRSYM    DATA     BIT       TF1
      000000C8H.7 SFRSYM    DATA     BIT       TF2
      00000098H.2 SFRSYM    DATA     BIT       RB8
      0000008CH   SFRSYM    DATA     BYTE      TH0
      000000A8H.0 SFRSYM    DATA     BIT       EX0
      00000088H.0 SFRSYM    DATA     BIT       IT0
      0000008DH   SFRSYM    DATA     BYTE      TH1
      00000098H.3 SFRSYM    DATA     BIT       TB8
      000000A8H.2 SFRSYM    DATA     BIT       EX1
LX51 LINKER/LOCATER V4.66.87.0                                                        05/29/2018  21:11:03  PAGE 71


      00000088H.2 SFRSYM    DATA     BIT       IT1
      000000CDH   SFRSYM    DATA     BYTE      TH2
      000000D0H.0 SFRSYM    DATA     BIT       P
      00000098H.7 SFRSYM    DATA     BIT       SM0
      0000008AH   SFRSYM    DATA     BYTE      TL0
      00000098H.6 SFRSYM    DATA     BIT       SM1
      0000008BH   SFRSYM    DATA     BYTE      TL1
      00000098H.5 SFRSYM    DATA     BIT       SM2
      000000CCH   SFRSYM    DATA     BYTE      TL2
      000000B8H.1 SFRSYM    DATA     BIT       PT0
      000000B8H.3 SFRSYM    DATA     BIT       PT1
      000000D0H.3 SFRSYM    DATA     BIT       RS0
      000000E7H   SFRSYM    DATA     BYTE      ISP_CONTR
      000000B8H.5 SFRSYM    DATA     BIT       PT2
      00000088H.4 SFRSYM    DATA     BIT       TR0
      000000D0H.4 SFRSYM    DATA     BIT       RS1
      00000088H.6 SFRSYM    DATA     BIT       TR1
      000000C8H.2 SFRSYM    DATA     BIT       TR2
      000000B8H.0 SFRSYM    DATA     BIT       PX0
      000000E1H   SFRSYM    DATA     BYTE      WDT_CONTR
      000000B8H.2 SFRSYM    DATA     BIT       PX1
      00000083H   SFRSYM    DATA     BYTE      DPH
      00000082H   SFRSYM    DATA     BYTE      DPL
      000000B7H   SFRSYM    DATA     BYTE      IPH
      000000C8H.3 SFRSYM    DATA     BIT       EXEN2
      00000098H.4 SFRSYM    DATA     BIT       REN
      000000C9H   SFRSYM    DATA     BYTE      T2MOD
      000000C8H   SFRSYM    DATA     BYTE      T2CON
      000000E2H   SFRSYM    DATA     BYTE      ISP_DATA
      000000B9H   SFRSYM    DATA     BYTE      SADEN
      000000B0H.0 SFRSYM    DATA     BIT       RXD
      000000A9H   SFRSYM    DATA     BYTE      SADDR
      000000B0H.1 SFRSYM    DATA     BIT       TXD
      000000A2H   SFRSYM    DATA     BYTE      AUXR1
      000000D0H.5 SFRSYM    DATA     BIT       F0
      000000D0H   SFRSYM    DATA     BYTE      PSW
      00000026H   SYMBOL    IDATA    ---       inbuf
      0000002EH   SYMBOL    IDATA    ---       outbuf
      020000CEH   SYMBOL    XDATA    BYTE      istart
      020000CFH   SYMBOL    XDATA    BYTE      ostart
      020000D0H   SYMBOL    XDATA    BYTE      iend
      020000D1H   SYMBOL    XDATA    BYTE      oend
      01004CBDH   SYMBOL    CODE     ---       com_isr

      01007D60H   BLOCK     CODE     ---       LVL=0
      ---         BLOCKEND  ---      ---       LVL=0

      01004CBDH   BLOCK     CODE     ---       LVL=0
      01004CCFH   BLOCK     CODE     NEAR LAB  LVL=1
      00000017H   SYMBOL    DATA     CHAR      c
      ---         BLOCKEND  ---      ---       LVL=1
      01004CBDH   LINE      CODE     ---       #31
      01004CCFH   LINE      CODE     ---       #36
      01004CD2H   LINE      CODE     ---       #37
      01004CD4H   LINE      CODE     ---       #38
      01004CD6H   LINE      CODE     ---       #39
      01004CEAH   LINE      CODE     ---       #40
      01004CF6H   LINE      CODE     ---       #41
      01004CF6H   LINE      CODE     ---       #42
      01004CF6H   LINE      CODE     ---       #45
      01004CF9H   LINE      CODE     ---       #46
      01004CFBH   LINE      CODE     ---       #47
      01004D07H   LINE      CODE     ---       #48
      01004D14H   LINE      CODE     ---       #49
      01004D16H   LINE      CODE     ---       #50
LX51 LINKER/LOCATER V4.66.87.0                                                        05/29/2018  21:11:03  PAGE 72


      01004D18H   LINE      CODE     ---       #51
      01004D18H   LINE      CODE     ---       #52
      01004D1AH   LINE      CODE     ---       #53
      01004D1AH   LINE      CODE     ---       #54
      01004D1AH   LINE      CODE     ---       #55
      ---         BLOCKEND  ---      ---       LVL=0

      01007132H   BLOCK     CODE     ---       LVL=0
      01007132H   LINE      CODE     ---       #61
      01007132H   LINE      CODE     ---       #62
      01007137H   LINE      CODE     ---       #63
      0100713BH   LINE      CODE     ---       #64
      0100713FH   LINE      CODE     ---       #65
      01007143H   LINE      CODE     ---       #66
      01007145H   LINE      CODE     ---       #67
      01007147H   LINE      CODE     ---       #69
      0100714AH   LINE      CODE     ---       #71
      0100714DH   LINE      CODE     ---       #72
      01007150H   LINE      CODE     ---       #74
      01007153H   LINE      CODE     ---       #75
      01007155H   LINE      CODE     ---       #76
      01007157H   LINE      CODE     ---       #77
      01007159H   LINE      CODE     ---       #78
      ---         BLOCKEND  ---      ---       LVL=0

      01006CB5H   BLOCK     CODE     ---       LVL=0
      00000007H   SYMBOL    DATA     CHAR      c
      01006CB5H   LINE      CODE     ---       #89
      01006CB5H   LINE      CODE     ---       #90
      01006CB8H   LINE      CODE     ---       #91
      01006CBBH   LINE      CODE     ---       #92
      01006CBDH   LINE      CODE     ---       #93
      01006CBFH   LINE      CODE     ---       #94
      01006CC0H   LINE      CODE     ---       #95
      01006CC0H   LINE      CODE     ---       #96
      01006CC2H   LINE      CODE     ---       #97
      01006CD1H   LINE      CODE     ---       #98
      01006CDFH   LINE      CODE     ---       #99
      01006CE1H   LINE      CODE     ---       #100
      01006CE1H   LINE      CODE     ---       #101
      01006CE3H   LINE      CODE     ---       #102
      01006CE3H   LINE      CODE     ---       #103
      01006CE3H   LINE      CODE     ---       #104
      ---         BLOCKEND  ---      ---       LVL=0

      01007C3AH   BLOCK     CODE     ---       LVL=0
      00000005H   SYMBOL    DATA     CHAR      c
      01007C3AH   LINE      CODE     ---       #111
      01007C3CH   LINE      CODE     ---       #112
      01007C40H   LINE      CODE     ---       #113
      01007C43H   LINE      CODE     ---       #114
      01007C48H   LINE      CODE     ---       #115
      01007C48H   LINE      CODE     ---       #116
      01007C4BH   LINE      CODE     ---       #117
      01007C50H   LINE      CODE     ---       #118
      01007C52H   LINE      CODE     ---       #119
      ---         BLOCKEND  ---      ---       LVL=0

      010082F4H   BLOCK     CODE     ---       LVL=0
      010082F4H   BLOCK     CODE     NEAR LAB  LVL=1
      00000007H   SYMBOL    DATA     CHAR      c
      ---         BLOCKEND  ---      ---       LVL=1
      010082F4H   LINE      CODE     ---       #126
      010082F4H   LINE      CODE     ---       #128
      010082FAH   LINE      CODE     ---       #130
LX51 LINKER/LOCATER V4.66.87.0                                                        05/29/2018  21:11:03  PAGE 73


      010082FAH   LINE      CODE     ---       #131
      010082FCH   LINE      CODE     ---       #132
      01008300H   LINE      CODE     ---       #133
      01008303H   LINE      CODE     ---       #134
      01008303H   LINE      CODE     ---       #135
      ---         BLOCKEND  ---      ---       LVL=0

      01007FE1H   BLOCK     CODE     ---       LVL=0
      01007FE1H   BLOCK     CODE     NEAR LAB  LVL=1
      00000007H   SYMBOL    DATA     CHAR      c
      ---         BLOCKEND  ---      ---       LVL=1
      01007FE1H   LINE      CODE     ---       #137
      01007FE1H   LINE      CODE     ---       #138
      01007FE1H   LINE      CODE     ---       #140
      01007FE7H   LINE      CODE     ---       #141
      01007FEAH   LINE      CODE     ---       #142
      01007FEAH   LINE      CODE     ---       #143
      01007FECH   LINE      CODE     ---       #144
      01007FF1H   LINE      CODE     ---       #145
      01007FF4H   LINE      CODE     ---       #146
      01007FF4H   LINE      CODE     ---       #147
      ---         BLOCKEND  ---      ---       LVL=0

      01008408H   BLOCK     CODE     ---       LVL=0
      01008408H   LINE      CODE     ---       #149
      01008408H   LINE      CODE     ---       #150
      01008408H   LINE      CODE     ---       #151
      01008411H   LINE      CODE     ---       #152
      01008413H   LINE      CODE     ---       #153
      01008415H   LINE      CODE     ---       #154
      ---         BLOCKEND  ---      ---       LVL=0

      01000016H   BLOCK     CODE     ---       LVL=0
      01000016H   LINE      CODE     ---       #156
      01000016H   LINE      CODE     ---       #157
      01000016H   LINE      CODE     ---       #158
      01000018H   LINE      CODE     ---       #159
      0100001AH   LINE      CODE     ---       #160
      ---         BLOCKEND  ---      ---       LVL=0

      ---         MODULE    ---      ---       RTC
      0100801DH   PUBLIC    CODE     ---       rtc_leave_powersave
      01007B84H   PUBLIC    CODE     ---       rtc_enter_powersave
      0100783DH   PUBLIC    CODE     ---       _rtc_test_alarm_int_flag
      01007D77H   PUBLIC    CODE     ---       _rtc_clr_alarm_int_flag
      01007820H   PUBLIC    CODE     ---       _rtc_test_alarm_int
      00000020H.1 PUBLIC    BIT      BIT       ?_rtc_enable_alarm_int?BIT
      01007351H   PUBLIC    CODE     ---       _rtc_enable_alarm_int
      02000014H   PUBLIC    XDATA    BYTE      ?_rtc_get_temperature?BYTE
      01003F31H   PUBLIC    CODE     ---       _rtc_get_temperature
      01004298H   PUBLIC    CODE     ---       _rtc_alarm_set_mode
      0100314DH   PUBLIC    CODE     ---       rtc_alarm_get_mode
      01007E9EH   PUBLIC    CODE     ---       _rtc_alarm_set_sec
      01008009H   PUBLIC    CODE     ---       rtc_alarm_get_sec
      01007B6AH   PUBLIC    CODE     ---       _rtc_alarm_set_date
      01007F4EH   PUBLIC    CODE     ---       rtc_alarm_get_date
      01007E88H   PUBLIC    CODE     ---       _rtc_alarm_set_day
      01007FF5H   PUBLIC    CODE     ---       rtc_alarm_get_day
      01008146H   PUBLIC    CODE     ---       _rtc_alarm_set_min
      01007E72H   PUBLIC    CODE     ---       rtc_alarm_get_min
      01008133H   PUBLIC    CODE     ---       _rtc_alarm_set_hour
      00000020H.0 PUBLIC    BIT      BIT       ?rtc_alarm_set_hour_12?BIT
      01007803H   PUBLIC    CODE     ---       rtc_alarm_set_hour_12
      01007E5CH   PUBLIC    CODE     ---       rtc_alarm_get_hour_12
      01007E46H   PUBLIC    CODE     ---       rtc_alarm_get_hour
LX51 LINKER/LOCATER V4.66.87.0                                                        05/29/2018  21:11:03  PAGE 74


      01008192H   PUBLIC    CODE     ---       _rtc_date_set_day
      0100875EH   PUBLIC    CODE     ---       rtc_date_get_day
      01003CC0H   PUBLIC    CODE     ---       _rtc_date_set_date
      0100871CH   PUBLIC    CODE     ---       rtc_date_get_date
      01008714H   PUBLIC    CODE     ---       _rtc_date_set_month
      010084D7H   PUBLIC    CODE     ---       rtc_date_get_month
      0100870CH   PUBLIC    CODE     ---       _rtc_date_set_year
      010084CBH   PUBLIC    CODE     ---       rtc_date_get_year
      01008758H   PUBLIC    CODE     ---       _rtc_time_set_sec
      01008704H   PUBLIC    CODE     ---       rtc_time_get_sec
      01008630H   PUBLIC    CODE     ---       _rtc_time_set_min
      010086FCH   PUBLIC    CODE     ---       rtc_time_get_min
      010086F4H   PUBLIC    CODE     ---       rtc_time_get_hour_12
      00000020H.0 PUBLIC    BIT      BIT       ?rtc_time_set_hour_12?BIT
      01008304H   PUBLIC    CODE     ---       rtc_time_set_hour_12
      01008752H   PUBLIC    CODE     ---       _rtc_time_set_hour
      010086ECH   PUBLIC    CODE     ---       rtc_time_get_hour
      01005830H   PUBLIC    CODE     ---       _rtc_write_data
      01005726H   PUBLIC    CODE     ---       _rtc_read_data
      010021F4H   PUBLIC    CODE     ---       rtc_initialize
      01008120H   PUBLIC    CODE     ---       scan_rtc
      00000020H.0 PUBLIC    BIT      BIT       ?rtc_set_lt_timer?BIT
      01000006H   PUBLIC    CODE     ---       rtc_set_lt_timer
      01008815H   PUBLIC    CODE     ---       rtc_is_lt_timer
      010064FBH   PUBLIC    CODE     ---       dump_rtc
      00000080H   SFRSYM    DATA     BYTE      P0
      00000090H   SFRSYM    DATA     BYTE      P1
      000000A0H   SFRSYM    DATA     BYTE      P2
      000000B0H   SFRSYM    DATA     BYTE      P3
      000000C0H   SFRSYM    DATA     BYTE      XICON
      000000B0H.4 SFRSYM    DATA     BIT       T0
      000000D0H.6 SFRSYM    DATA     BIT       AC
      000000E8H   SFRSYM    DATA     BYTE      P4
      000000B0H.5 SFRSYM    DATA     BIT       T1
      000000E6H   SFRSYM    DATA     BYTE      ISP_TRIG
      00000090H.0 SFRSYM    DATA     BIT       T2
      000000A8H.7 SFRSYM    DATA     BIT       EA
      000000A8H.6 SFRSYM    DATA     BIT       EC
      00000098H.7 SFRSYM    DATA     BIT       FE
      000000A8H   SFRSYM    DATA     BYTE      IE
      000000C8H.6 SFRSYM    DATA     BIT       EXF2
      000000B0H.7 SFRSYM    DATA     BIT       RD
      000000A8H.4 SFRSYM    DATA     BIT       ES
      000000B8H   SFRSYM    DATA     BYTE      IP
      00000098H.0 SFRSYM    DATA     BIT       RI
      000000B0H.2 SFRSYM    DATA     BIT       INT0
      000000D0H.7 SFRSYM    DATA     BIT       CY
      00000098H.1 SFRSYM    DATA     BIT       TI
      000000B0H.3 SFRSYM    DATA     BIT       INT1
      000000CBH   SFRSYM    DATA     BYTE      RCAP2H
      000000E5H   SFRSYM    DATA     BYTE      ISP_CMD
      000000B8H.4 SFRSYM    DATA     BIT       PS
      00000081H   SFRSYM    DATA     BYTE      SP
      00000090H.1 SFRSYM    DATA     BIT       T2EX
      000000D0H.2 SFRSYM    DATA     BIT       OV
      000000CAH   SFRSYM    DATA     BYTE      RCAP2L
      000000C8H.1 SFRSYM    DATA     BIT       C_T2
      000000B0H.6 SFRSYM    DATA     BIT       WR
      000000C8H.5 SFRSYM    DATA     BIT       RCLK
      000000C8H.4 SFRSYM    DATA     BIT       TCLK
      00000080H.0 SFRSYM    DATA     BIT       P00
      00000099H   SFRSYM    DATA     BYTE      SBUF
      00000087H   SFRSYM    DATA     BYTE      PCON
      00000090H.0 SFRSYM    DATA     BIT       P10
      00000080H.1 SFRSYM    DATA     BIT       P01
LX51 LINKER/LOCATER V4.66.87.0                                                        05/29/2018  21:11:03  PAGE 75


      000000A0H.0 SFRSYM    DATA     BIT       P20
      00000090H.1 SFRSYM    DATA     BIT       P11
      00000080H.2 SFRSYM    DATA     BIT       P02
      000000E3H   SFRSYM    DATA     BYTE      ISP_ADDRH
      000000B0H.0 SFRSYM    DATA     BIT       P30
      000000A0H.1 SFRSYM    DATA     BIT       P21
      00000090H.2 SFRSYM    DATA     BIT       P12
      00000080H.3 SFRSYM    DATA     BIT       P03
      00000098H   SFRSYM    DATA     BYTE      SCON
      000000B0H.1 SFRSYM    DATA     BIT       P31
      000000A0H.2 SFRSYM    DATA     BIT       P22
      00000090H.3 SFRSYM    DATA     BIT       P13
      00000080H.4 SFRSYM    DATA     BIT       P04
      000000E8H.0 SFRSYM    DATA     BIT       P40
      00000089H   SFRSYM    DATA     BYTE      TMOD
      00000088H   SFRSYM    DATA     BYTE      TCON
      000000B0H.2 SFRSYM    DATA     BIT       P32
      000000A0H.3 SFRSYM    DATA     BIT       P23
      00000090H.4 SFRSYM    DATA     BIT       P14
      00000080H.5 SFRSYM    DATA     BIT       P05
      000000E8H.1 SFRSYM    DATA     BIT       P41
      000000B0H.3 SFRSYM    DATA     BIT       P33
      000000A0H.4 SFRSYM    DATA     BIT       P24
      00000090H.5 SFRSYM    DATA     BIT       P15
      00000080H.6 SFRSYM    DATA     BIT       P06
      000000E4H   SFRSYM    DATA     BYTE      ISP_ADDRL
      000000E8H.2 SFRSYM    DATA     BIT       P42
      000000B0H.4 SFRSYM    DATA     BIT       P34
      000000A0H.5 SFRSYM    DATA     BIT       P25
      00000090H.6 SFRSYM    DATA     BIT       P16
      00000080H.7 SFRSYM    DATA     BIT       P07
      000000E8H.3 SFRSYM    DATA     BIT       P43
      000000B0H.5 SFRSYM    DATA     BIT       P35
      000000A0H.6 SFRSYM    DATA     BIT       P26
      00000090H.7 SFRSYM    DATA     BIT       P17
      000000E8H.4 SFRSYM    DATA     BIT       P44
      000000B0H.6 SFRSYM    DATA     BIT       P36
      000000A0H.7 SFRSYM    DATA     BIT       P27
      000000E8H.5 SFRSYM    DATA     BIT       P45
      000000B0H.7 SFRSYM    DATA     BIT       P37
      000000E8H.6 SFRSYM    DATA     BIT       P46
      00000088H.1 SFRSYM    DATA     BIT       IE0
      00000088H.3 SFRSYM    DATA     BIT       IE1
      0000008EH   SFRSYM    DATA     BYTE      AUXR
      000000F0H   SFRSYM    DATA     BYTE      B
      000000C8H.0 SFRSYM    DATA     BIT       CP_RL2
      000000E0H   SFRSYM    DATA     BYTE      ACC
      000000A8H.1 SFRSYM    DATA     BIT       ET0
      000000A8H.3 SFRSYM    DATA     BIT       ET1
      00000088H.5 SFRSYM    DATA     BIT       TF0
      000000A8H.5 SFRSYM    DATA     BIT       ET2
      00000088H.7 SFRSYM    DATA     BIT       TF1
      000000C8H.7 SFRSYM    DATA     BIT       TF2
      00000098H.2 SFRSYM    DATA     BIT       RB8
      0000008CH   SFRSYM    DATA     BYTE      TH0
      000000A8H.0 SFRSYM    DATA     BIT       EX0
      00000088H.0 SFRSYM    DATA     BIT       IT0
      0000008DH   SFRSYM    DATA     BYTE      TH1
      00000098H.3 SFRSYM    DATA     BIT       TB8
      000000A8H.2 SFRSYM    DATA     BIT       EX1
      00000088H.2 SFRSYM    DATA     BIT       IT1
      000000CDH   SFRSYM    DATA     BYTE      TH2
      000000D0H.0 SFRSYM    DATA     BIT       P
      00000098H.7 SFRSYM    DATA     BIT       SM0
      0000008AH   SFRSYM    DATA     BYTE      TL0
LX51 LINKER/LOCATER V4.66.87.0                                                        05/29/2018  21:11:03  PAGE 76


      00000098H.6 SFRSYM    DATA     BIT       SM1
      0000008BH   SFRSYM    DATA     BYTE      TL1
      00000098H.5 SFRSYM    DATA     BIT       SM2
      000000CCH   SFRSYM    DATA     BYTE      TL2
      000000B8H.1 SFRSYM    DATA     BIT       PT0
      000000B8H.3 SFRSYM    DATA     BIT       PT1
      000000D0H.3 SFRSYM    DATA     BIT       RS0
      000000E7H   SFRSYM    DATA     BYTE      ISP_CONTR
      000000B8H.5 SFRSYM    DATA     BIT       PT2
      00000088H.4 SFRSYM    DATA     BIT       TR0
      000000D0H.4 SFRSYM    DATA     BIT       RS1
      00000088H.6 SFRSYM    DATA     BIT       TR1
      000000C8H.2 SFRSYM    DATA     BIT       TR2
      000000B8H.0 SFRSYM    DATA     BIT       PX0
      000000E1H   SFRSYM    DATA     BYTE      WDT_CONTR
      000000B8H.2 SFRSYM    DATA     BIT       PX1
      00000083H   SFRSYM    DATA     BYTE      DPH
      00000082H   SFRSYM    DATA     BYTE      DPL
      000000B7H   SFRSYM    DATA     BYTE      IPH
      000000C8H.3 SFRSYM    DATA     BIT       EXEN2
      00000098H.4 SFRSYM    DATA     BIT       REN
      000000C9H   SFRSYM    DATA     BYTE      T2MOD
      000000C8H   SFRSYM    DATA     BYTE      T2CON
      000000E2H   SFRSYM    DATA     BYTE      ISP_DATA
      000000B9H   SFRSYM    DATA     BYTE      SADEN
      000000B0H.0 SFRSYM    DATA     BIT       RXD
      000000A9H   SFRSYM    DATA     BYTE      SADDR
      000000B0H.1 SFRSYM    DATA     BIT       TXD
      000000A2H   SFRSYM    DATA     BYTE      AUXR1
      000000D0H.5 SFRSYM    DATA     BIT       F0
      000000D0H   SFRSYM    DATA     BYTE      PSW
      010086E4H   SYMBOL    CODE     ---       __rtc_get_min_sec
      01006EB0H   SYMBOL    CODE     ---       __rtc_set_min_sec
      00000024H.2 SYMBOL    BIT      BIT       is_lt_timer_mode
      01008744H   SYMBOL    CODE     ---       __rtc_get_hour_12
      020000C4H   SYMBOL    XDATA    BYTE      last_read
      0100715AH   SYMBOL    CODE     ---       _rtc_set_hour_12
      020000C5H   SYMBOL    XDATA    ---       rtc_data
      0100000EH   SYMBOL    CODE     ---       __rtc_get_date
      01006EDCH   SYMBOL    CODE     ---       __rtc_set_date
      01007376H   SYMBOL    CODE     ---       __rtc_get_hour
      010063C7H   SYMBOL    CODE     ---       __rtc_set_hour

      01003526H   BLOCK     CODE     ---       LVL=0
      ---         BLOCKEND  ---      ---       LVL=0

      010064FBH   BLOCK     CODE     ---       LVL=0
      010064FBH   BLOCK     CODE     NEAR LAB  LVL=1
      02000002H   SYMBOL    XDATA    BYTE      addr
      02000003H   SYMBOL    XDATA    BYTE      c
      ---         BLOCKEND  ---      ---       LVL=1
      010064FBH   LINE      CODE     ---       #29
      010064FBH   LINE      CODE     ---       #30
      010064FBH   LINE      CODE     ---       #34
      0100650AH   LINE      CODE     ---       #35
      01006515H   LINE      CODE     ---       #36
      0100652EH   LINE      CODE     ---       #37
      01006536H   LINE      CODE     ---       #38
      ---         BLOCKEND  ---      ---       LVL=0

      01008815H   BLOCK     CODE     ---       LVL=0
      01008815H   LINE      CODE     ---       #40
      01008815H   LINE      CODE     ---       #41
      01008815H   LINE      CODE     ---       #42
      01008817H   LINE      CODE     ---       #43
LX51 LINKER/LOCATER V4.66.87.0                                                        05/29/2018  21:11:03  PAGE 77


      ---         BLOCKEND  ---      ---       LVL=0

      01000006H   BLOCK     CODE     ---       LVL=0
      00000020H.0 SYMBOL    BIT      BIT       enable
      01000006H   LINE      CODE     ---       #45
      01000006H   LINE      CODE     ---       #46
      01000006H   LINE      CODE     ---       #47
      0100000AH   LINE      CODE     ---       #48
      ---         BLOCKEND  ---      ---       LVL=0

      01008120H   BLOCK     CODE     ---       LVL=0
      01008120H   LINE      CODE     ---       #50
      01008120H   LINE      CODE     ---       #51
      01008120H   LINE      CODE     ---       #52
      01008129H   LINE      CODE     ---       #54
      0100812CH   LINE      CODE     ---       #55
      0100812FH   LINE      CODE     ---       #56
      0100812FH   LINE      CODE     ---       #57
      01008132H   LINE      CODE     ---       #58
      01008132H   LINE      CODE     ---       #59
      ---         BLOCKEND  ---      ---       LVL=0

      010021F4H   BLOCK     CODE     ---       LVL=0
      010021F4H   BLOCK     CODE     NEAR LAB  LVL=1
      02000000H   SYMBOL    XDATA    BYTE      count
      02000001H   SYMBOL    XDATA    BYTE      is12
      ---         BLOCKEND  ---      ---       LVL=1
      010021F4H   LINE      CODE     ---       #61
      010021F4H   LINE      CODE     ---       #62
      010021F4H   LINE      CODE     ---       #66
      010021FDH   LINE      CODE     ---       #68
      010021FFH   LINE      CODE     ---       #70
      0100220BH   LINE      CODE     ---       #73
      01002215H   LINE      CODE     ---       #75
      01002218H   LINE      CODE     ---       #76
      0100221DH   LINE      CODE     ---       #77
      01002224H   LINE      CODE     ---       #80
      0100222CH   LINE      CODE     ---       #81
      01002235H   LINE      CODE     ---       #82
      0100223DH   LINE      CODE     ---       #85
      0100223DH   LINE      CODE     ---       #86
      0100223DH   LINE      CODE     ---       #87
      01002240H   LINE      CODE     ---       #90
      01002245H   LINE      CODE     ---       #91
      01002245H   LINE      CODE     ---       #92
      01002245H   LINE      CODE     ---       #93
      01002248H   LINE      CODE     ---       #94
      01002248H   LINE      CODE     ---       #96
      0100224FH   LINE      CODE     ---       #97
      01002254H   LINE      CODE     ---       #99
      01002259H   LINE      CODE     ---       #100
      01002260H   LINE      CODE     ---       #103
      01002260H   LINE      CODE     ---       #104
      01002260H   LINE      CODE     ---       #105
      01002263H   LINE      CODE     ---       #108
      01002268H   LINE      CODE     ---       #109
      01002268H   LINE      CODE     ---       #110
      01002268H   LINE      CODE     ---       #111
      0100226BH   LINE      CODE     ---       #112
      0100226BH   LINE      CODE     ---       #114
      0100228BH   LINE      CODE     ---       #119
      01002292H   LINE      CODE     ---       #120
      01002297H   LINE      CODE     ---       #123
      0100229CH   LINE      CODE     ---       #124
      010022A3H   LINE      CODE     ---       #125
LX51 LINKER/LOCATER V4.66.87.0                                                        05/29/2018  21:11:03  PAGE 78


      010022A8H   LINE      CODE     ---       #126
      010022AFH   LINE      CODE     ---       #127
      010022B4H   LINE      CODE     ---       #128
      010022B9H   LINE      CODE     ---       #131
      010022C6H   LINE      CODE     ---       #132
      010022CDH   LINE      CODE     ---       #133
      010022D6H   LINE      CODE     ---       #136
      010022DBH   LINE      CODE     ---       #137
      010022DBH   LINE      CODE     ---       #138
      010022E1H   LINE      CODE     ---       #140
      010022E4H   LINE      CODE     ---       #142
      ---         BLOCKEND  ---      ---       LVL=0

      01005726H   BLOCK     CODE     ---       LVL=0
      00000007H   SYMBOL    DATA     BYTE      type
      01005726H   BLOCK     CODE     NEAR LAB  LVL=1
      02000017H   SYMBOL    XDATA    BYTE      offset
      ---         BLOCKEND  ---      ---       LVL=1
      01005726H   LINE      CODE     ---       #145
      01005726H   LINE      CODE     ---       #146
      01005726H   LINE      CODE     ---       #148
      0100573AH   LINE      CODE     ---       #149
      0100573AH   LINE      CODE     ---       #150
      01005741H   LINE      CODE     ---       #151
      01005741H   LINE      CODE     ---       #152
      01005749H   LINE      CODE     ---       #153
      01005749H   LINE      CODE     ---       #154
      01005751H   LINE      CODE     ---       #155
      01005751H   LINE      CODE     ---       #156
      01005759H   LINE      CODE     ---       #157
      01005759H   LINE      CODE     ---       #158
      01005761H   LINE      CODE     ---       #159
      01005761H   LINE      CODE     ---       #160
      01005767H   LINE      CODE     ---       #161
      01005767H   LINE      CODE     ---       #163
      0100576CH   LINE      CODE     ---       #165
      ---         BLOCKEND  ---      ---       LVL=0

      01005830H   BLOCK     CODE     ---       LVL=0
      00000007H   SYMBOL    DATA     BYTE      type
      01005830H   BLOCK     CODE     NEAR LAB  LVL=1
      02000017H   SYMBOL    XDATA    BYTE      offset
      ---         BLOCKEND  ---      ---       LVL=1
      01005830H   LINE      CODE     ---       #169
      01005830H   LINE      CODE     ---       #170
      01005830H   LINE      CODE     ---       #172
      01005844H   LINE      CODE     ---       #173
      01005844H   LINE      CODE     ---       #174
      0100584BH   LINE      CODE     ---       #175
      0100584BH   LINE      CODE     ---       #176
      01005853H   LINE      CODE     ---       #177
      01005853H   LINE      CODE     ---       #178
      0100585BH   LINE      CODE     ---       #179
      0100585BH   LINE      CODE     ---       #180
      01005863H   LINE      CODE     ---       #181
      01005863H   LINE      CODE     ---       #182
      0100586BH   LINE      CODE     ---       #183
      0100586BH   LINE      CODE     ---       #184
      01005871H   LINE      CODE     ---       #185
      01005871H   LINE      CODE     ---       #186
      01005874H   LINE      CODE     ---       #187
      ---         BLOCKEND  ---      ---       LVL=0

      01007376H   BLOCK     CODE     ---       LVL=0
      00000007H   SYMBOL    DATA     BYTE      hour
LX51 LINKER/LOCATER V4.66.87.0                                                        05/29/2018  21:11:03  PAGE 79


      01007376H   BLOCK     CODE     NEAR LAB  LVL=1
      00000006H   SYMBOL    DATA     BYTE      ret
      ---         BLOCKEND  ---      ---       LVL=1
      01007376H   LINE      CODE     ---       #190
      01007376H   LINE      CODE     ---       #191
      01007376H   LINE      CODE     ---       #193
      0100737AH   LINE      CODE     ---       #194
      01007389H   LINE      CODE     ---       #195
      0100738DH   LINE      CODE     ---       #196
      01007391H   LINE      CODE     ---       #197
      01007391H   LINE      CODE     ---       #198
      01007393H   LINE      CODE     ---       #199
      01007397H   LINE      CODE     ---       #200
      01007397H   LINE      CODE     ---       #201
      01007399H   LINE      CODE     ---       #202
      ---         BLOCKEND  ---      ---       LVL=0

      010063C7H   BLOCK     CODE     ---       LVL=0
      00000007H   SYMBOL    DATA     BYTE      hour
      0200001AH   SYMBOL    XDATA    ---       dat
      010063C7H   LINE      CODE     ---       #205
      010063CDH   LINE      CODE     ---       #206
      010063CDH   LINE      CODE     ---       #207
      010063D4H   LINE      CODE     ---       #208
      010063DAH   LINE      CODE     ---       #209
      010063E0H   LINE      CODE     ---       #210
      010063E4H   LINE      CODE     ---       #211
      010063E6H   LINE      CODE     ---       #212
      010063EEH   LINE      CODE     ---       #213
      010063EEH   LINE      CODE     ---       #214
      010063EEH   LINE      CODE     ---       #215
      010063EEH   LINE      CODE     ---       #216
      010063F3H   LINE      CODE     ---       #217
      010063F3H   LINE      CODE     ---       #218
      010063F5H   LINE      CODE     ---       #220
      010063F5H   LINE      CODE     ---       #221
      010063F5H   LINE      CODE     ---       #222
      010063FAH   LINE      CODE     ---       #223
      01006404H   LINE      CODE     ---       #224
      01006404H   LINE      CODE     ---       #225
      ---         BLOCKEND  ---      ---       LVL=0

      0100715AH   BLOCK     CODE     ---       LVL=0
      00000020H.1 SYMBOL    BIT      BIT       enable
      02000017H   SYMBOL    XDATA    ---       dat
      0100715AH   BLOCK     CODE     NEAR LAB  LVL=1
      00000007H   SYMBOL    DATA     BYTE      hour
      ---         BLOCKEND  ---      ---       LVL=1
      0100715AH   LINE      CODE     ---       #227
      0100715AH   LINE      CODE     ---       #228
      0100715AH   LINE      CODE     ---       #230
      01007164H   LINE      CODE     ---       #231
      0100716AH   LINE      CODE     ---       #232
      0100716FH   LINE      CODE     ---       #233
      01007171H   LINE      CODE     ---       #234
      01007179H   LINE      CODE     ---       #235
      01007179H   LINE      CODE     ---       #236
      ---         BLOCKEND  ---      ---       LVL=0

      01008744H   BLOCK     CODE     ---       LVL=0
      00000007H   SYMBOL    DATA     BYTE      hour
      01008744H   LINE      CODE     ---       #239
      01008744H   LINE      CODE     ---       #240
      01008744H   LINE      CODE     ---       #241
      0100874AH   LINE      CODE     ---       #242
LX51 LINKER/LOCATER V4.66.87.0                                                        05/29/2018  21:11:03  PAGE 80


      ---         BLOCKEND  ---      ---       LVL=0

      010086E4H   BLOCK     CODE     ---       LVL=0
      00000007H   SYMBOL    DATA     BYTE      min
      010086E4H   LINE      CODE     ---       #244
      010086E4H   LINE      CODE     ---       #245
      010086E4H   LINE      CODE     ---       #246
      010086EBH   LINE      CODE     ---       #247
      ---         BLOCKEND  ---      ---       LVL=0

      01006EB0H   BLOCK     CODE     ---       LVL=0
      00000007H   SYMBOL    DATA     BYTE      min
      02000017H   SYMBOL    XDATA    ---       dat
      01006EB0H   LINE      CODE     ---       #249
      01006EB6H   LINE      CODE     ---       #250
      01006EB6H   LINE      CODE     ---       #251
      01006EBEH   LINE      CODE     ---       #252
      01006EC7H   LINE      CODE     ---       #253
      01006ECFH   LINE      CODE     ---       #254
      ---         BLOCKEND  ---      ---       LVL=0

      010086ECH   BLOCK     CODE     ---       LVL=0
      010086ECH   LINE      CODE     ---       #259
      010086ECH   LINE      CODE     ---       #260
      010086ECH   LINE      CODE     ---       #261
      ---         BLOCKEND  ---      ---       LVL=0

      01008752H   BLOCK     CODE     ---       LVL=0
      00000007H   SYMBOL    DATA     BYTE      hour
      01008752H   LINE      CODE     ---       #266
      01008752H   LINE      CODE     ---       #267
      01008752H   LINE      CODE     ---       #268
      ---         BLOCKEND  ---      ---       LVL=0

      01008304H   BLOCK     CODE     ---       LVL=0
      00000020H.0 SYMBOL    BIT      BIT       enable
      01008304H   LINE      CODE     ---       #271
      01008304H   LINE      CODE     ---       #272
      01008304H   LINE      CODE     ---       #273
      ---         BLOCKEND  ---      ---       LVL=0

      010086F4H   BLOCK     CODE     ---       LVL=0
      010086F4H   LINE      CODE     ---       #276
      010086F4H   LINE      CODE     ---       #277
      010086F4H   LINE      CODE     ---       #278
      ---         BLOCKEND  ---      ---       LVL=0

      010086FCH   BLOCK     CODE     ---       LVL=0
      010086FCH   LINE      CODE     ---       #281
      010086FCH   LINE      CODE     ---       #282
      010086FCH   LINE      CODE     ---       #283
      ---         BLOCKEND  ---      ---       LVL=0

      01008630H   BLOCK     CODE     ---       LVL=0
      00000007H   SYMBOL    DATA     BYTE      min
      01008630H   LINE      CODE     ---       #286
      01008630H   LINE      CODE     ---       #287
      01008630H   LINE      CODE     ---       #288
      ---         BLOCKEND  ---      ---       LVL=0

      01008704H   BLOCK     CODE     ---       LVL=0
      01008704H   LINE      CODE     ---       #291
      01008704H   LINE      CODE     ---       #292
      01008704H   LINE      CODE     ---       #293
      ---         BLOCKEND  ---      ---       LVL=0
LX51 LINKER/LOCATER V4.66.87.0                                                        05/29/2018  21:11:03  PAGE 81



      01008758H   BLOCK     CODE     ---       LVL=0
      00000007H   SYMBOL    DATA     BYTE      sec
      01008758H   LINE      CODE     ---       #296
      01008758H   LINE      CODE     ---       #297
      01008758H   LINE      CODE     ---       #298
      ---         BLOCKEND  ---      ---       LVL=0

      010084CBH   BLOCK     CODE     ---       LVL=0
      010084CBH   LINE      CODE     ---       #302
      010084CBH   LINE      CODE     ---       #303
      010084CBH   LINE      CODE     ---       #304
      010084D6H   LINE      CODE     ---       #305
      ---         BLOCKEND  ---      ---       LVL=0

      0100870CH   BLOCK     CODE     ---       LVL=0
      00000007H   SYMBOL    DATA     BYTE      year
      0100870CH   LINE      CODE     ---       #307
      0100870CH   LINE      CODE     ---       #308
      0100870CH   LINE      CODE     ---       #309
      0100870FH   LINE      CODE     ---       #310
      0100870FH   LINE      CODE     ---       #311
      0100870FH   LINE      CODE     ---       #312
      01008713H   LINE      CODE     ---       #313
      ---         BLOCKEND  ---      ---       LVL=0

      010084D7H   BLOCK     CODE     ---       LVL=0
      010084D7H   LINE      CODE     ---       #315
      010084D7H   LINE      CODE     ---       #316
      010084D7H   LINE      CODE     ---       #317
      010084E2H   LINE      CODE     ---       #318
      ---         BLOCKEND  ---      ---       LVL=0

      01008714H   BLOCK     CODE     ---       LVL=0
      00000007H   SYMBOL    DATA     BYTE      month
      01008714H   LINE      CODE     ---       #320
      01008714H   LINE      CODE     ---       #321
      01008714H   LINE      CODE     ---       #322
      01008717H   LINE      CODE     ---       #323
      01008717H   LINE      CODE     ---       #324
      01008717H   LINE      CODE     ---       #325
      0100871BH   LINE      CODE     ---       #326
      ---         BLOCKEND  ---      ---       LVL=0

      0100000EH   BLOCK     CODE     ---       LVL=0
      00000007H   SYMBOL    DATA     BYTE      date
      0100000EH   LINE      CODE     ---       #328
      0100000EH   LINE      CODE     ---       #329
      0100000EH   LINE      CODE     ---       #330
      01000012H   LINE      CODE     ---       #331
      ---         BLOCKEND  ---      ---       LVL=0

      01006EDCH   BLOCK     CODE     ---       LVL=0
      00000007H   SYMBOL    DATA     BYTE      date
      02000019H   SYMBOL    XDATA    ---       dat
      01006EDCH   LINE      CODE     ---       #333
      01006EE2H   LINE      CODE     ---       #334
      01006EE2H   LINE      CODE     ---       #335
      01006EEAH   LINE      CODE     ---       #336
      01006EF3H   LINE      CODE     ---       #337
      01006EFBH   LINE      CODE     ---       #338
      ---         BLOCKEND  ---      ---       LVL=0

      0100871CH   BLOCK     CODE     ---       LVL=0
      0100871CH   LINE      CODE     ---       #341
LX51 LINKER/LOCATER V4.66.87.0                                                        05/29/2018  21:11:03  PAGE 82


      0100871CH   LINE      CODE     ---       #342
      0100871CH   LINE      CODE     ---       #343
      ---         BLOCKEND  ---      ---       LVL=0

      01003CC0H   BLOCK     CODE     ---       LVL=0
      02000017H   SYMBOL    XDATA    BYTE      date
      01003CC5H   BLOCK     CODE     NEAR LAB  LVL=1
      02000018H   SYMBOL    XDATA    CHAR      mon
      ---         BLOCKEND  ---      ---       LVL=1
      01003CC0H   LINE      CODE     ---       #347
      01003CC5H   LINE      CODE     ---       #348
      01003CC5H   LINE      CODE     ---       #349
      01003CCDH   LINE      CODE     ---       #351
      01003CD6H   LINE      CODE     ---       #352
      01003CFCH   LINE      CODE     ---       #353
      01003CFCH   LINE      CODE     ---       #354
      01003D07H   LINE      CODE     ---       #355
      01003D07H   LINE      CODE     ---       #356
      01003D12H   LINE      CODE     ---       #357
      01003D21H   LINE      CODE     ---       #358
      01003D2BH   LINE      CODE     ---       #359
      01003D3AH   LINE      CODE     ---       #360
      01003D45H   LINE      CODE     ---       #361
      01003D45H   LINE      CODE     ---       #362
      01003D45H   LINE      CODE     ---       #364
      01003D4EH   LINE      CODE     ---       #365
      01003D5CH   LINE      CODE     ---       #367
      01003D5DH   LINE      CODE     ---       #368
      ---         BLOCKEND  ---      ---       LVL=0

      0100875EH   BLOCK     CODE     ---       LVL=0
      0100875EH   LINE      CODE     ---       #370
      0100875EH   LINE      CODE     ---       #371
      0100875EH   LINE      CODE     ---       #372
      01008763H   LINE      CODE     ---       #373
      ---         BLOCKEND  ---      ---       LVL=0

      01008192H   BLOCK     CODE     ---       LVL=0
      00000007H   SYMBOL    DATA     BYTE      day
      01008192H   LINE      CODE     ---       #375
      01008192H   LINE      CODE     ---       #376
      01008192H   LINE      CODE     ---       #377
      0100819EH   LINE      CODE     ---       #378
      010081A3H   LINE      CODE     ---       #379
      010081A3H   LINE      CODE     ---       #380
      ---         BLOCKEND  ---      ---       LVL=0

      01007E46H   BLOCK     CODE     ---       LVL=0
      01007E46H   LINE      CODE     ---       #383
      01007E46H   LINE      CODE     ---       #384
      01007E46H   LINE      CODE     ---       #385
      ---         BLOCKEND  ---      ---       LVL=0

      01007E5CH   BLOCK     CODE     ---       LVL=0
      01007E5CH   LINE      CODE     ---       #388
      01007E5CH   LINE      CODE     ---       #389
      01007E5CH   LINE      CODE     ---       #390
      ---         BLOCKEND  ---      ---       LVL=0

      01007803H   BLOCK     CODE     ---       LVL=0
      00000020H.0 SYMBOL    BIT      BIT       enable
      01007803H   LINE      CODE     ---       #393
      01007803H   LINE      CODE     ---       #394
      01007803H   LINE      CODE     ---       #395
      ---         BLOCKEND  ---      ---       LVL=0
LX51 LINKER/LOCATER V4.66.87.0                                                        05/29/2018  21:11:03  PAGE 83



      01008133H   BLOCK     CODE     ---       LVL=0
      00000007H   SYMBOL    DATA     BYTE      hour
      01008133H   LINE      CODE     ---       #398
      01008133H   LINE      CODE     ---       #399
      01008133H   LINE      CODE     ---       #400
      ---         BLOCKEND  ---      ---       LVL=0

      01007E72H   BLOCK     CODE     ---       LVL=0
      01007E72H   LINE      CODE     ---       #403
      01007E72H   LINE      CODE     ---       #404
      01007E72H   LINE      CODE     ---       #405
      ---         BLOCKEND  ---      ---       LVL=0

      01008146H   BLOCK     CODE     ---       LVL=0
      00000007H   SYMBOL    DATA     BYTE      min
      01008146H   LINE      CODE     ---       #408
      01008146H   LINE      CODE     ---       #409
      01008146H   LINE      CODE     ---       #410
      ---         BLOCKEND  ---      ---       LVL=0

      01007FF5H   BLOCK     CODE     ---       LVL=0
      01007FF5H   LINE      CODE     ---       #413
      01007FF5H   LINE      CODE     ---       #414
      01007FF5H   LINE      CODE     ---       #415
      01008008H   LINE      CODE     ---       #416
      ---         BLOCKEND  ---      ---       LVL=0

      01007E88H   BLOCK     CODE     ---       LVL=0
      00000007H   SYMBOL    DATA     BYTE      day
      01007E88H   LINE      CODE     ---       #418
      01007E88H   LINE      CODE     ---       #419
      01007E88H   LINE      CODE     ---       #420
      01007E8FH   LINE      CODE     ---       #421
      01007E92H   LINE      CODE     ---       #422
      01007E92H   LINE      CODE     ---       #423
      01007E94H   LINE      CODE     ---       #424
      01007E9BH   LINE      CODE     ---       #425
      01007E9DH   LINE      CODE     ---       #426
      01007E9DH   LINE      CODE     ---       #427
      ---         BLOCKEND  ---      ---       LVL=0

      01007F4EH   BLOCK     CODE     ---       LVL=0
      01007F4EH   LINE      CODE     ---       #429
      01007F4EH   LINE      CODE     ---       #430
      01007F4EH   LINE      CODE     ---       #431
      01007F62H   LINE      CODE     ---       #433
      ---         BLOCKEND  ---      ---       LVL=0

      01007B6AH   BLOCK     CODE     ---       LVL=0
      00000006H   SYMBOL    DATA     BYTE      date
      01007B6AH   LINE      CODE     ---       #435
      01007B6CH   LINE      CODE     ---       #436
      01007B6CH   LINE      CODE     ---       #437
      01007B83H   LINE      CODE     ---       #439
      ---         BLOCKEND  ---      ---       LVL=0

      01008009H   BLOCK     CODE     ---       LVL=0
      01008009H   LINE      CODE     ---       #441
      01008009H   LINE      CODE     ---       #442
      01008009H   LINE      CODE     ---       #443
      01008010H   LINE      CODE     ---       #444
      0100801AH   LINE      CODE     ---       #445
      0100801AH   LINE      CODE     ---       #446
      0100801CH   LINE      CODE     ---       #447
LX51 LINKER/LOCATER V4.66.87.0                                                        05/29/2018  21:11:03  PAGE 84


      ---         BLOCKEND  ---      ---       LVL=0

      01007E9EH   BLOCK     CODE     ---       LVL=0
      00000007H   SYMBOL    DATA     BYTE      sec
      01007E9EH   LINE      CODE     ---       #450
      01007E9EH   LINE      CODE     ---       #451
      01007E9EH   LINE      CODE     ---       #452
      01007EA3H   LINE      CODE     ---       #453
      01007EA9H   LINE      CODE     ---       #454
      01007EADH   LINE      CODE     ---       #455
      01007EAFH   LINE      CODE     ---       #456
      01007EB3H   LINE      CODE     ---       #457
      01007EB3H   LINE      CODE     ---       #458
      ---         BLOCKEND  ---      ---       LVL=0

      0100314DH   BLOCK     CODE     ---       LVL=0
      0100314DH   BLOCK     CODE     NEAR LAB  LVL=1
      00000003H   SYMBOL    DATA     BYTE      dy
      00000007H   SYMBOL    DATA     BYTE      a1m1
      00000004H   SYMBOL    DATA     BYTE      a1m2
      00000005H   SYMBOL    DATA     BYTE      a1m3
      00000006H   SYMBOL    DATA     BYTE      a1m4
      ---         BLOCKEND  ---      ---       LVL=1
      0100314DH   LINE      CODE     ---       #474
      0100314DH   LINE      CODE     ---       #475
      0100314DH   LINE      CODE     ---       #477
      01003152H   LINE      CODE     ---       #478
      01003157H   LINE      CODE     ---       #479
      0100315BH   LINE      CODE     ---       #480
      01003160H   LINE      CODE     ---       #481
      01003165H   LINE      CODE     ---       #482
      01003169H   LINE      CODE     ---       #483
      01003175H   LINE      CODE     ---       #484
      01003178H   LINE      CODE     ---       #485
      01003184H   LINE      CODE     ---       #486
      01003187H   LINE      CODE     ---       #487
      01003193H   LINE      CODE     ---       #488
      01003196H   LINE      CODE     ---       #489
      010031A2H   LINE      CODE     ---       #490
      010031A5H   LINE      CODE     ---       #491
      010031B4H   LINE      CODE     ---       #492
      010031B7H   LINE      CODE     ---       #493
      010031B7H   LINE      CODE     ---       #494
      010031BAH   LINE      CODE     ---       #495
      010031BAH   LINE      CODE     ---       #496
      010031C2H   LINE      CODE     ---       #497
      010031C7H   LINE      CODE     ---       #498
      010031CBH   LINE      CODE     ---       #499
      010031D0H   LINE      CODE     ---       #500
      010031D4H   LINE      CODE     ---       #501
      010031DDH   LINE      CODE     ---       #502
      010031E0H   LINE      CODE     ---       #503
      010031E9H   LINE      CODE     ---       #504
      010031ECH   LINE      CODE     ---       #505
      010031F5H   LINE      CODE     ---       #506
      010031F8H   LINE      CODE     ---       #507
      01003201H   LINE      CODE     ---       #508
      01003204H   LINE      CODE     ---       #509
      01003210H   LINE      CODE     ---       #510
      01003213H   LINE      CODE     ---       #511
      01003213H   LINE      CODE     ---       #512
      01003216H   LINE      CODE     ---       #513
      01003216H   LINE      CODE     ---       #514
      01003216H   LINE      CODE     ---       #515
      01003218H   LINE      CODE     ---       #516
LX51 LINKER/LOCATER V4.66.87.0                                                        05/29/2018  21:11:03  PAGE 85


      ---         BLOCKEND  ---      ---       LVL=0

      01004298H   BLOCK     CODE     ---       LVL=0
      00000005H   SYMBOL    DATA     BYTE      mode
      01004298H   LINE      CODE     ---       #517
      0100429AH   LINE      CODE     ---       #518
      0100429AH   LINE      CODE     ---       #519
      010042A5H   LINE      CODE     ---       #520
      010042A5H   LINE      CODE     ---       #521
      010042A5H   LINE      CODE     ---       #522
      010042A8H   LINE      CODE     ---       #523
      010042ADH   LINE      CODE     ---       #524
      010042B0H   LINE      CODE     ---       #525
      010042C2H   LINE      CODE     ---       #526
      010042C2H   LINE      CODE     ---       #527
      010042C9H   LINE      CODE     ---       #528
      010042C9H   LINE      CODE     ---       #529
      010042D0H   LINE      CODE     ---       #530
      010042D0H   LINE      CODE     ---       #531
      010042D7H   LINE      CODE     ---       #532
      010042D7H   LINE      CODE     ---       #533
      010042DAH   LINE      CODE     ---       #534
      010042DAH   LINE      CODE     ---       #535
      010042DCH   LINE      CODE     ---       #536
      010042DCH   LINE      CODE     ---       #537
      010042DFH   LINE      CODE     ---       #538
      010042DFH   LINE      CODE     ---       #539
      010042EFH   LINE      CODE     ---       #540
      010042EFH   LINE      CODE     ---       #541
      010042EFH   LINE      CODE     ---       #542
      010042F2H   LINE      CODE     ---       #543
      010042F5H   LINE      CODE     ---       #544
      01004305H   LINE      CODE     ---       #545
      01004305H   LINE      CODE     ---       #546
      0100430CH   LINE      CODE     ---       #547
      0100430CH   LINE      CODE     ---       #548
      01004313H   LINE      CODE     ---       #549
      01004313H   LINE      CODE     ---       #550
      0100431AH   LINE      CODE     ---       #551
      0100431AH   LINE      CODE     ---       #552
      0100431BH   LINE      CODE     ---       #553
      0100431BH   LINE      CODE     ---       #554
      01004322H   LINE      CODE     ---       #555
      01004322H   LINE      CODE     ---       #556
      01004322H   LINE      CODE     ---       #557
      ---         BLOCKEND  ---      ---       LVL=0

      01003F31H   BLOCK     CODE     ---       LVL=0
      02000014H   SYMBOL    XDATA    ---       integer
      02000017H   SYMBOL    XDATA    ---       flt
      01003F37H   BLOCK     CODE     NEAR LAB  LVL=1
      0200001AH   SYMBOL    XDATA    FLOAT     ret
      00000020H.1 SYMBOL    BIT      BIT       sign
      ---         BLOCKEND  ---      ---       LVL=1
      01003F31H   LINE      CODE     ---       #560
      01003F37H   LINE      CODE     ---       #561
      01003F37H   LINE      CODE     ---       #562
      01003F41H   LINE      CODE     ---       #563
      01003F4DH   LINE      CODE     ---       #566
      01003F50H   LINE      CODE     ---       #567
      01003F56H   LINE      CODE     ---       #568
      01003F57H   LINE      CODE     ---       #569
      01003F5AH   LINE      CODE     ---       #570
      01003F5DH   LINE      CODE     ---       #571
      01003F60H   LINE      CODE     ---       #572
LX51 LINKER/LOCATER V4.66.87.0                                                        05/29/2018  21:11:03  PAGE 86


      01003F62H   LINE      CODE     ---       #573
      01003F68H   LINE      CODE     ---       #574
      01003F68H   LINE      CODE     ---       #575
      01003F6AH   LINE      CODE     ---       #576
      01003F6DH   LINE      CODE     ---       #577
      01003F70H   LINE      CODE     ---       #578
      01003F70H   LINE      CODE     ---       #580
      01003F7FH   LINE      CODE     ---       #582
      01003F89H   LINE      CODE     ---       #583
      01003F91H   LINE      CODE     ---       #584
      01003F96H   LINE      CODE     ---       #585
      01003F9EH   LINE      CODE     ---       #586
      01003FA6H   LINE      CODE     ---       #587
      01003FABH   LINE      CODE     ---       #588
      01003FADH   LINE      CODE     ---       #589
      01003FB4H   LINE      CODE     ---       #590
      01003FB4H   LINE      CODE     ---       #592
      01003FC4H   LINE      CODE     ---       #594
      01003FC6H   LINE      CODE     ---       #595
      ---         BLOCKEND  ---      ---       LVL=0

      01007351H   BLOCK     CODE     ---       LVL=0
      00000007H   SYMBOL    DATA     BYTE      index
      00000020H.1 SYMBOL    BIT      BIT       enable
      01007351H   LINE      CODE     ---       #598
      01007351H   LINE      CODE     ---       #599
      01007351H   LINE      CODE     ---       #600
      01007354H   LINE      CODE     ---       #601
      0100735BH   LINE      CODE     ---       #602
      0100735FH   LINE      CODE     ---       #604
      01007362H   LINE      CODE     ---       #605
      01007367H   LINE      CODE     ---       #606
      0100736EH   LINE      CODE     ---       #607
      01007372H   LINE      CODE     ---       #609
      01007375H   LINE      CODE     ---       #610
      01007375H   LINE      CODE     ---       #611
      ---         BLOCKEND  ---      ---       LVL=0

      01007820H   BLOCK     CODE     ---       LVL=0
      00000007H   SYMBOL    DATA     BYTE      index
      01007820H   LINE      CODE     ---       #613
      01007820H   LINE      CODE     ---       #614
      01007820H   LINE      CODE     ---       #615
      01007823H   LINE      CODE     ---       #616
      0100782DH   LINE      CODE     ---       #617
      01007831H   LINE      CODE     ---       #618
      0100783BH   LINE      CODE     ---       #619
      0100783BH   LINE      CODE     ---       #620
      0100783CH   LINE      CODE     ---       #621
      ---         BLOCKEND  ---      ---       LVL=0

      01007D77H   BLOCK     CODE     ---       LVL=0
      00000007H   SYMBOL    DATA     BYTE      index
      01007D77H   LINE      CODE     ---       #623
      01007D77H   LINE      CODE     ---       #624
      01007D77H   LINE      CODE     ---       #625
      01007D7AH   LINE      CODE     ---       #626
      01007D81H   LINE      CODE     ---       #627
      01007D86H   LINE      CODE     ---       #628
      01007D8DH   LINE      CODE     ---       #629
      01007D8DH   LINE      CODE     ---       #630
      ---         BLOCKEND  ---      ---       LVL=0

      0100783DH   BLOCK     CODE     ---       LVL=0
      00000007H   SYMBOL    DATA     BYTE      index
LX51 LINKER/LOCATER V4.66.87.0                                                        05/29/2018  21:11:03  PAGE 87


      0100783DH   LINE      CODE     ---       #632
      0100783DH   LINE      CODE     ---       #633
      0100783DH   LINE      CODE     ---       #634
      01007840H   LINE      CODE     ---       #635
      0100784AH   LINE      CODE     ---       #636
      0100784EH   LINE      CODE     ---       #637
      01007858H   LINE      CODE     ---       #638
      01007858H   LINE      CODE     ---       #639
      01007859H   LINE      CODE     ---       #640
      ---         BLOCKEND  ---      ---       LVL=0

      01007B84H   BLOCK     CODE     ---       LVL=0
      01007B84H   LINE      CODE     ---       #642
      01007B84H   LINE      CODE     ---       #643
      01007B84H   LINE      CODE     ---       #645
      01007B8DH   LINE      CODE     ---       #647
      01007B92H   LINE      CODE     ---       #648
      01007B99H   LINE      CODE     ---       #649
      ---         BLOCKEND  ---      ---       LVL=0

      0100801DH   BLOCK     CODE     ---       LVL=0
      0100801DH   LINE      CODE     ---       #653
      0100801DH   LINE      CODE     ---       #654
      0100801DH   LINE      CODE     ---       #655
      01008026H   LINE      CODE     ---       #657
      0100802BH   LINE      CODE     ---       #658
      0100802BH   LINE      CODE     ---       #659
      ---         BLOCKEND  ---      ---       LVL=0

      ---         MODULE    ---      ---       I2C
      01007D8EH   PUBLIC    CODE     ---       _I2C_Get
      0200001DH   PUBLIC    XDATA    BYTE      ?_I2C_Gets?BYTE
      01004C4FH   PUBLIC    CODE     ---       _I2C_Gets
      01008031H   PUBLIC    CODE     ---       _I2C_Put
      0200001AH   PUBLIC    XDATA    BYTE      ?_I2C_Puts?BYTE
      01005A39H   PUBLIC    CODE     ---       _I2C_Puts
      00000020H.2 PUBLIC    BIT      BIT       ?I2C_PutAck?BIT
      010081A4H   PUBLIC    CODE     ---       I2C_PutAck
      010074FEH   PUBLIC    CODE     ---       I2C_GetAck
      01006CE4H   PUBLIC    CODE     ---       I2C_Read
      0100774CH   PUBLIC    CODE     ---       _I2C_Write
      01007EB4H   PUBLIC    CODE     ---       I2C_Stop
      01008566H   PUBLIC    CODE     ---       I2C_Start
      010085EAH   PUBLIC    CODE     ---       I2C_Init
      010082A7H   PUBLIC    CODE     ---       I2C_Delay
      00000080H   SFRSYM    DATA     BYTE      P0
      00000090H   SFRSYM    DATA     BYTE      P1
      00000090H.7 SFRSYM    DATA     BIT       I2C_SCL
      000000A0H   SFRSYM    DATA     BYTE      P2
      000000B0H   SFRSYM    DATA     BYTE      P3
      000000C0H   SFRSYM    DATA     BYTE      XICON
      000000B0H.4 SFRSYM    DATA     BIT       T0
      000000D0H.6 SFRSYM    DATA     BIT       AC
      000000E8H   SFRSYM    DATA     BYTE      P4
      000000B0H.5 SFRSYM    DATA     BIT       T1
      000000E6H   SFRSYM    DATA     BYTE      ISP_TRIG
      00000090H.0 SFRSYM    DATA     BIT       T2
      000000A8H.7 SFRSYM    DATA     BIT       EA
      000000A8H.6 SFRSYM    DATA     BIT       EC
      00000098H.7 SFRSYM    DATA     BIT       FE
      000000A8H   SFRSYM    DATA     BYTE      IE
      000000C8H.6 SFRSYM    DATA     BIT       EXF2
      000000B0H.7 SFRSYM    DATA     BIT       RD
      000000A8H.4 SFRSYM    DATA     BIT       ES
      000000B8H   SFRSYM    DATA     BYTE      IP
LX51 LINKER/LOCATER V4.66.87.0                                                        05/29/2018  21:11:03  PAGE 88


      00000098H.0 SFRSYM    DATA     BIT       RI
      000000B0H.2 SFRSYM    DATA     BIT       INT0
      000000D0H.7 SFRSYM    DATA     BIT       CY
      00000098H.1 SFRSYM    DATA     BIT       TI
      000000B0H.3 SFRSYM    DATA     BIT       INT1
      000000CBH   SFRSYM    DATA     BYTE      RCAP2H
      000000E5H   SFRSYM    DATA     BYTE      ISP_CMD
      000000B8H.4 SFRSYM    DATA     BIT       PS
      00000081H   SFRSYM    DATA     BYTE      SP
      00000090H.1 SFRSYM    DATA     BIT       T2EX
      000000D0H.2 SFRSYM    DATA     BIT       OV
      000000CAH   SFRSYM    DATA     BYTE      RCAP2L
      000000C8H.1 SFRSYM    DATA     BIT       C_T2
      000000B0H.6 SFRSYM    DATA     BIT       WR
      000000C8H.5 SFRSYM    DATA     BIT       RCLK
      000000C8H.4 SFRSYM    DATA     BIT       TCLK
      00000080H.0 SFRSYM    DATA     BIT       P00
      00000099H   SFRSYM    DATA     BYTE      SBUF
      00000087H   SFRSYM    DATA     BYTE      PCON
      00000090H.0 SFRSYM    DATA     BIT       P10
      00000080H.1 SFRSYM    DATA     BIT       P01
      000000A0H.0 SFRSYM    DATA     BIT       P20
      00000090H.1 SFRSYM    DATA     BIT       P11
      00000080H.2 SFRSYM    DATA     BIT       P02
      000000E3H   SFRSYM    DATA     BYTE      ISP_ADDRH
      000000B0H.0 SFRSYM    DATA     BIT       P30
      000000A0H.1 SFRSYM    DATA     BIT       P21
      00000090H.2 SFRSYM    DATA     BIT       P12
      00000080H.3 SFRSYM    DATA     BIT       P03
      00000098H   SFRSYM    DATA     BYTE      SCON
      000000B0H.1 SFRSYM    DATA     BIT       P31
      000000A0H.2 SFRSYM    DATA     BIT       P22
      00000090H.3 SFRSYM    DATA     BIT       P13
      00000080H.4 SFRSYM    DATA     BIT       P04
      000000E8H.0 SFRSYM    DATA     BIT       P40
      00000089H   SFRSYM    DATA     BYTE      TMOD
      00000088H   SFRSYM    DATA     BYTE      TCON
      000000B0H.2 SFRSYM    DATA     BIT       P32
      000000A0H.3 SFRSYM    DATA     BIT       P23
      00000090H.4 SFRSYM    DATA     BIT       P14
      00000080H.5 SFRSYM    DATA     BIT       P05
      000000E8H.1 SFRSYM    DATA     BIT       P41
      000000B0H.3 SFRSYM    DATA     BIT       P33
      000000A0H.4 SFRSYM    DATA     BIT       P24
      00000090H.5 SFRSYM    DATA     BIT       P15
      00000080H.6 SFRSYM    DATA     BIT       P06
      000000E4H   SFRSYM    DATA     BYTE      ISP_ADDRL
      000000E8H.2 SFRSYM    DATA     BIT       P42
      000000B0H.4 SFRSYM    DATA     BIT       P34
      000000A0H.5 SFRSYM    DATA     BIT       P25
      00000090H.6 SFRSYM    DATA     BIT       P16
      00000080H.7 SFRSYM    DATA     BIT       P07
      000000E8H.3 SFRSYM    DATA     BIT       P43
      000000B0H.5 SFRSYM    DATA     BIT       P35
      000000A0H.6 SFRSYM    DATA     BIT       P26
      00000090H.7 SFRSYM    DATA     BIT       P17
      000000E8H.4 SFRSYM    DATA     BIT       P44
      000000B0H.6 SFRSYM    DATA     BIT       P36
      000000A0H.7 SFRSYM    DATA     BIT       P27
      000000E8H.5 SFRSYM    DATA     BIT       P45
      000000B0H.7 SFRSYM    DATA     BIT       P37
      000000E8H.6 SFRSYM    DATA     BIT       P46
      00000088H.1 SFRSYM    DATA     BIT       IE0
      00000088H.3 SFRSYM    DATA     BIT       IE1
      0000008EH   SFRSYM    DATA     BYTE      AUXR
LX51 LINKER/LOCATER V4.66.87.0                                                        05/29/2018  21:11:03  PAGE 89


      000000F0H   SFRSYM    DATA     BYTE      B
      000000C8H.0 SFRSYM    DATA     BIT       CP_RL2
      000000E0H   SFRSYM    DATA     BYTE      ACC
      000000A8H.1 SFRSYM    DATA     BIT       ET0
      000000A8H.3 SFRSYM    DATA     BIT       ET1
      00000088H.5 SFRSYM    DATA     BIT       TF0
      000000A8H.5 SFRSYM    DATA     BIT       ET2
      00000088H.7 SFRSYM    DATA     BIT       TF1
      000000C8H.7 SFRSYM    DATA     BIT       TF2
      00000098H.2 SFRSYM    DATA     BIT       RB8
      0000008CH   SFRSYM    DATA     BYTE      TH0
      000000A8H.0 SFRSYM    DATA     BIT       EX0
      00000088H.0 SFRSYM    DATA     BIT       IT0
      0000008DH   SFRSYM    DATA     BYTE      TH1
      00000098H.3 SFRSYM    DATA     BIT       TB8
      000000A8H.2 SFRSYM    DATA     BIT       EX1
      00000088H.2 SFRSYM    DATA     BIT       IT1
      000000CDH   SFRSYM    DATA     BYTE      TH2
      000000D0H.0 SFRSYM    DATA     BIT       P
      00000098H.7 SFRSYM    DATA     BIT       SM0
      0000008AH   SFRSYM    DATA     BYTE      TL0
      00000098H.6 SFRSYM    DATA     BIT       SM1
      0000008BH   SFRSYM    DATA     BYTE      TL1
      00000098H.5 SFRSYM    DATA     BIT       SM2
      000000CCH   SFRSYM    DATA     BYTE      TL2
      000000B8H.1 SFRSYM    DATA     BIT       PT0
      000000B8H.3 SFRSYM    DATA     BIT       PT1
      000000D0H.3 SFRSYM    DATA     BIT       RS0
      000000E7H   SFRSYM    DATA     BYTE      ISP_CONTR
      000000B8H.5 SFRSYM    DATA     BIT       PT2
      00000088H.4 SFRSYM    DATA     BIT       TR0
      000000D0H.4 SFRSYM    DATA     BIT       RS1
      00000088H.6 SFRSYM    DATA     BIT       TR1
      000000C8H.2 SFRSYM    DATA     BIT       TR2
      000000B8H.0 SFRSYM    DATA     BIT       PX0
      000000E1H   SFRSYM    DATA     BYTE      WDT_CONTR
      000000B8H.2 SFRSYM    DATA     BIT       PX1
      00000083H   SFRSYM    DATA     BYTE      DPH
      00000082H   SFRSYM    DATA     BYTE      DPL
      000000B7H   SFRSYM    DATA     BYTE      IPH
      000000C8H.3 SFRSYM    DATA     BIT       EXEN2
      00000098H.4 SFRSYM    DATA     BIT       REN
      000000C9H   SFRSYM    DATA     BYTE      T2MOD
      000000C8H   SFRSYM    DATA     BYTE      T2CON
      000000E2H   SFRSYM    DATA     BYTE      ISP_DATA
      000000B9H   SFRSYM    DATA     BYTE      SADEN
      000000B0H.0 SFRSYM    DATA     BIT       RXD
      000000A9H   SFRSYM    DATA     BYTE      SADDR
      000000B0H.1 SFRSYM    DATA     BIT       TXD
      000000A2H   SFRSYM    DATA     BYTE      AUXR1
      000000D0H.5 SFRSYM    DATA     BIT       F0
      00000090H.6 SFRSYM    DATA     BIT       I2C_SDA
      000000D0H   SFRSYM    DATA     BYTE      PSW

      010085F4H   BLOCK     CODE     ---       LVL=0
      ---         BLOCKEND  ---      ---       LVL=0

      0100829FH   BLOCK     CODE     ---       LVL=0
      ---         BLOCKEND  ---      ---       LVL=0

      010082A7H   BLOCK     CODE     ---       LVL=0
      00000007H   SYMBOL    DATA     BYTE      c
      010082A7H   BLOCK     CODE     NEAR LAB  LVL=1
      00000007H   SYMBOL    DATA     BYTE      c
      ---         BLOCKEND  ---      ---       LVL=1
LX51 LINKER/LOCATER V4.66.87.0                                                        05/29/2018  21:11:03  PAGE 90


      010082A7H   LINE      CODE     ---       #5
      010082A7H   LINE      CODE     ---       #6
      010082A7H   LINE      CODE     ---       #8
      010082A9H   LINE      CODE     ---       #9
      010082AFH   LINE      CODE     ---       #10
      ---         BLOCKEND  ---      ---       LVL=0

      010085EAH   BLOCK     CODE     ---       LVL=0
      010085EAH   LINE      CODE     ---       #15
      010085EAH   LINE      CODE     ---       #16
      010085EAH   LINE      CODE     ---       #17
      010085ECH   LINE      CODE     ---       #18
      010085EFH   LINE      CODE     ---       #19
      010085F1H   LINE      CODE     ---       #20
      ---         BLOCKEND  ---      ---       LVL=0

      01008566H   BLOCK     CODE     ---       LVL=0
      01008566H   LINE      CODE     ---       #24
      01008566H   LINE      CODE     ---       #25
      01008566H   LINE      CODE     ---       #28
      01008566H   LINE      CODE     ---       #29
      01008566H   LINE      CODE     ---       #30
      01008566H   LINE      CODE     ---       #31
      01008569H   LINE      CODE     ---       #32
      0100856BH   LINE      CODE     ---       #33
      0100856BH   LINE      CODE     ---       #34
      0100856BH   LINE      CODE     ---       #35
      0100856BH   LINE      CODE     ---       #36
      0100856EH   LINE      CODE     ---       #37
      ---         BLOCKEND  ---      ---       LVL=0

      01007EB4H   BLOCK     CODE     ---       LVL=0
      01007EB4H   BLOCK     CODE     NEAR LAB  LVL=1
      00000004H   SYMBOL    DATA     WORD      t
      ---         BLOCKEND  ---      ---       LVL=1
      01007EB4H   LINE      CODE     ---       #40
      01007EB4H   LINE      CODE     ---       #41
      01007EB4H   LINE      CODE     ---       #42
      01007EB8H   LINE      CODE     ---       #44
      01007EBAH   LINE      CODE     ---       #45
      01007EBDH   LINE      CODE     ---       #47
      01007EBDH   LINE      CODE     ---       #48
      01007EBDH   LINE      CODE     ---       #49
      01007EBDH   LINE      CODE     ---       #50
      01007EC0H   LINE      CODE     ---       #54
      01007EC9H   LINE      CODE     ---       #55
      ---         BLOCKEND  ---      ---       LVL=0

      0100774CH   BLOCK     CODE     ---       LVL=0
      00000006H   SYMBOL    DATA     BYTE      dat
      0100774EH   BLOCK     CODE     NEAR LAB  LVL=1
      00000005H   SYMBOL    DATA     BYTE      t
      ---         BLOCKEND  ---      ---       LVL=1
      0100774CH   LINE      CODE     ---       #59
      0100774EH   LINE      CODE     ---       #60
      0100774EH   LINE      CODE     ---       #63
      01007750H   LINE      CODE     ---       #64
      01007750H   LINE      CODE     ---       #66
      01007754H   LINE      CODE     ---       #67
      01007757H   LINE      CODE     ---       #68
      01007759H   LINE      CODE     ---       #69
      0100775CH   LINE      CODE     ---       #70
      0100775EH   LINE      CODE     ---       #71
      01007761H   LINE      CODE     ---       #72
      01007765H   LINE      CODE     ---       #73
LX51 LINKER/LOCATER V4.66.87.0                                                        05/29/2018  21:11:03  PAGE 91


      0100776AH   LINE      CODE     ---       #76
      ---         BLOCKEND  ---      ---       LVL=0

      01006CE4H   BLOCK     CODE     ---       LVL=0
      01006CE4H   BLOCK     CODE     NEAR LAB  LVL=1
      00000006H   SYMBOL    DATA     BYTE      dat
      00000005H   SYMBOL    DATA     BYTE      t
      00000020H.2 SYMBOL    BIT      BIT       temp
      ---         BLOCKEND  ---      ---       LVL=1
      01006CE4H   LINE      CODE     ---       #78
      01006CE4H   LINE      CODE     ---       #79
      01006CE4H   LINE      CODE     ---       #80
      01006CE6H   LINE      CODE     ---       #83
      01006CE9H   LINE      CODE     ---       #84
      01006CE9H   LINE      CODE     ---       #85
      01006CE9H   LINE      CODE     ---       #87
      01006CECH   LINE      CODE     ---       #89
      01006CEEH   LINE      CODE     ---       #90
      01006CEEH   LINE      CODE     ---       #91
      01006CF0H   LINE      CODE     ---       #92
      01006CF3H   LINE      CODE     ---       #93
      01006CF5H   LINE      CODE     ---       #94
      01006CF8H   LINE      CODE     ---       #95
      01006CFCH   LINE      CODE     ---       #96
      01006D00H   LINE      CODE     ---       #97
      01006D06H   LINE      CODE     ---       #98
      01006D0BH   LINE      CODE     ---       #100
      01006D0DH   LINE      CODE     ---       #101
      01006D10H   LINE      CODE     ---       #103
      01006D12H   LINE      CODE     ---       #104
      ---         BLOCKEND  ---      ---       LVL=0

      010074FEH   BLOCK     CODE     ---       LVL=0
      010074FEH   BLOCK     CODE     NEAR LAB  LVL=1
      00000020H.2 SYMBOL    BIT      BIT       ack
      00000006H   SYMBOL    DATA     BYTE      Error_time
      ---         BLOCKEND  ---      ---       LVL=1
      010074FEH   LINE      CODE     ---       #108
      010074FEH   LINE      CODE     ---       #109
      010074FEH   LINE      CODE     ---       #111
      01007500H   LINE      CODE     ---       #113
      01007500H   LINE      CODE     ---       #114
      01007500H   LINE      CODE     ---       #115
      01007503H   LINE      CODE     ---       #116
      01007505H   LINE      CODE     ---       #117
      01007508H   LINE      CODE     ---       #119
      01007508H   LINE      CODE     ---       #120
      0100750CH   LINE      CODE     ---       #121
      0100750EH   LINE      CODE     ---       #122
      0100750EH   LINE      CODE     ---       #123
      0100750EH   LINE      CODE     ---       #124
      01007510H   LINE      CODE     ---       #125
      01007513H   LINE      CODE     ---       #126
      01007515H   LINE      CODE     ---       #127
      01007515H   LINE      CODE     ---       #128
      01007518H   LINE      CODE     ---       #131
      01007518H   LINE      CODE     ---       #132
      01007518H   LINE      CODE     ---       #133
      0100751BH   LINE      CODE     ---       #134
      0100751EH   LINE      CODE     ---       #135
      0100751FH   LINE      CODE     ---       #136
      ---         BLOCKEND  ---      ---       LVL=0

      010081A4H   BLOCK     CODE     ---       LVL=0
      00000020H.2 SYMBOL    BIT      BIT       ack
LX51 LINKER/LOCATER V4.66.87.0                                                        05/29/2018  21:11:03  PAGE 92


      010081A4H   LINE      CODE     ---       #138
      010081A4H   LINE      CODE     ---       #139
      010081A4H   LINE      CODE     ---       #141
      010081A8H   LINE      CODE     ---       #142
      010081ABH   LINE      CODE     ---       #143
      010081ADH   LINE      CODE     ---       #144
      010081ADH   LINE      CODE     ---       #146
      010081ADH   LINE      CODE     ---       #147
      010081ADH   LINE      CODE     ---       #148
      010081B0H   LINE      CODE     ---       #149
      010081B3H   LINE      CODE     ---       #150
      ---         BLOCKEND  ---      ---       LVL=0

      01005A39H   BLOCK     CODE     ---       LVL=0
      00000006H   SYMBOL    DATA     BYTE      SlaveAddr
      00000004H   SYMBOL    DATA     BYTE      SubAddr
      0200001CH   SYMBOL    XDATA    BYTE      Size
      0200001DH   SYMBOL    XDATA    ---       dat
      01005A39H   LINE      CODE     ---       #219
      01005A42H   LINE      CODE     ---       #220
      01005A42H   LINE      CODE     ---       #222
      01005A46H   LINE      CODE     ---       #224
      01005A4AH   LINE      CODE     ---       #226
      01005A4DH   LINE      CODE     ---       #228
      01005A4FH   LINE      CODE     ---       #229
      01005A54H   LINE      CODE     ---       #230
      01005A54H   LINE      CODE     ---       #231
      01005A54H   LINE      CODE     ---       #232
      01005A56H   LINE      CODE     ---       #233
      01005A56H   LINE      CODE     ---       #235
      01005A58H   LINE      CODE     ---       #236
      01005A5DH   LINE      CODE     ---       #237
      01005A5DH   LINE      CODE     ---       #238
      01005A5DH   LINE      CODE     ---       #239
      01005A5FH   LINE      CODE     ---       #240
      01005A5FH   LINE      CODE     ---       #243
      01005A5FH   LINE      CODE     ---       #244
      01005A70H   LINE      CODE     ---       #245
      01005A75H   LINE      CODE     ---       #246
      01005A75H   LINE      CODE     ---       #247
      01005A78H   LINE      CODE     ---       #248
      01005A7AH   LINE      CODE     ---       #249
      01005A7AH   LINE      CODE     ---       #250
      01005A82H   LINE      CODE     ---       #252
      01005A85H   LINE      CODE     ---       #253
      01005A86H   LINE      CODE     ---       #254
      ---         BLOCKEND  ---      ---       LVL=0

      01008031H   BLOCK     CODE     ---       LVL=0
      00000007H   SYMBOL    DATA     BYTE      SlaveAddr
      00000005H   SYMBOL    DATA     BYTE      SubAddr
      02000019H   SYMBOL    XDATA    CHAR      dat
      01008031H   LINE      CODE     ---       #256
      01008036H   LINE      CODE     ---       #257
      01008036H   LINE      CODE     ---       #258
      ---         BLOCKEND  ---      ---       LVL=0

      01004C4FH   BLOCK     CODE     ---       LVL=0
      00000004H   SYMBOL    DATA     BYTE      SlaveAddr
      00000001H   SYMBOL    DATA     BYTE      SubAddr
      0200001FH   SYMBOL    XDATA    BYTE      Size
      02000020H   SYMBOL    XDATA    ---       dat
      01004C4FH   LINE      CODE     ---       #262
      01004C58H   LINE      CODE     ---       #263
      01004C58H   LINE      CODE     ---       #264
LX51 LINKER/LOCATER V4.66.87.0                                                        05/29/2018  21:11:03  PAGE 93


      01004C5CH   LINE      CODE     ---       #266
      01004C60H   LINE      CODE     ---       #268
      01004C63H   LINE      CODE     ---       #270
      01004C65H   LINE      CODE     ---       #271
      01004C6AH   LINE      CODE     ---       #272
      01004C6AH   LINE      CODE     ---       #273
      01004C6AH   LINE      CODE     ---       #274
      01004C6CH   LINE      CODE     ---       #275
      01004C6CH   LINE      CODE     ---       #277
      01004C6EH   LINE      CODE     ---       #278
      01004C73H   LINE      CODE     ---       #279
      01004C73H   LINE      CODE     ---       #280
      01004C73H   LINE      CODE     ---       #281
      01004C75H   LINE      CODE     ---       #282
      01004C75H   LINE      CODE     ---       #284
      01004C78H   LINE      CODE     ---       #286
      01004C7CH   LINE      CODE     ---       #287
      01004C80H   LINE      CODE     ---       #288
      01004C85H   LINE      CODE     ---       #289
      01004C85H   LINE      CODE     ---       #290
      01004C88H   LINE      CODE     ---       #291
      01004C8AH   LINE      CODE     ---       #292
      01004C8AH   LINE      CODE     ---       #294
      01004C8AH   LINE      CODE     ---       #295
      01004C8AH   LINE      CODE     ---       #296
      01004C9BH   LINE      CODE     ---       #297
      01004CA3H   LINE      CODE     ---       #298
      01004CA3H   LINE      CODE     ---       #299
      01004CA8H   LINE      CODE     ---       #300
      01004CAAH   LINE      CODE     ---       #301
      01004CAAH   LINE      CODE     ---       #302
      01004CAFH   LINE      CODE     ---       #303
      01004CB1H   LINE      CODE     ---       #305
      01004CB4H   LINE      CODE     ---       #306
      01004CB5H   LINE      CODE     ---       #307
      ---         BLOCKEND  ---      ---       LVL=0

      01007D8EH   BLOCK     CODE     ---       LVL=0
      00000007H   SYMBOL    DATA     BYTE      SlaveAddr
      00000005H   SYMBOL    DATA     BYTE      SubAddr
      0200001AH   SYMBOL    XDATA    ---       dat
      01007D8EH   LINE      CODE     ---       #309
      01007D94H   LINE      CODE     ---       #310
      01007D94H   LINE      CODE     ---       #311
      ---         BLOCKEND  ---      ---       LVL=0

      ---         MODULE    ---      ---       KEY
      01008642H   PUBLIC    CODE     ---       key_leave_powersave
      01008639H   PUBLIC    CODE     ---       key_enter_powersave
      01007C53H   PUBLIC    CODE     ---       key_initialize
      01006890H   PUBLIC    CODE     ---       _mod_set_proc
      01005D1FH   PUBLIC    CODE     ---       _set_proc
      01005CCFH   PUBLIC    CODE     ---       _mod_proc
      0100280EH   PUBLIC    CODE     ---       _scan_key_proc
      00000080H   SFRSYM    DATA     BYTE      P0
      00000090H   SFRSYM    DATA     BYTE      P1
      000000A0H   SFRSYM    DATA     BYTE      P2
      000000B0H   SFRSYM    DATA     BYTE      P3
      000000C0H   SFRSYM    DATA     BYTE      XICON
      000000B0H.4 SFRSYM    DATA     BIT       T0
      000000D0H.6 SFRSYM    DATA     BIT       AC
      000000E8H   SFRSYM    DATA     BYTE      P4
      000000B0H.5 SFRSYM    DATA     BIT       T1
      000000E6H   SFRSYM    DATA     BYTE      ISP_TRIG
      00000090H.0 SFRSYM    DATA     BIT       T2
LX51 LINKER/LOCATER V4.66.87.0                                                        05/29/2018  21:11:03  PAGE 94


      000000A8H.7 SFRSYM    DATA     BIT       EA
      000000A8H.6 SFRSYM    DATA     BIT       EC
      00000098H.7 SFRSYM    DATA     BIT       FE
      000000A8H   SFRSYM    DATA     BYTE      IE
      000000C8H.6 SFRSYM    DATA     BIT       EXF2
      000000B0H.7 SFRSYM    DATA     BIT       RD
      000000A8H.4 SFRSYM    DATA     BIT       ES
      000000B8H   SFRSYM    DATA     BYTE      IP
      00000098H.0 SFRSYM    DATA     BIT       RI
      000000B0H.2 SFRSYM    DATA     BIT       INT0
      000000D0H.7 SFRSYM    DATA     BIT       CY
      00000098H.1 SFRSYM    DATA     BIT       TI
      000000B0H.3 SFRSYM    DATA     BIT       INT1
      000000CBH   SFRSYM    DATA     BYTE      RCAP2H
      000000E5H   SFRSYM    DATA     BYTE      ISP_CMD
      000000B8H.4 SFRSYM    DATA     BIT       PS
      00000081H   SFRSYM    DATA     BYTE      SP
      00000090H.1 SFRSYM    DATA     BIT       T2EX
      000000D0H.2 SFRSYM    DATA     BIT       OV
      000000CAH   SFRSYM    DATA     BYTE      RCAP2L
      000000C8H.1 SFRSYM    DATA     BIT       C_T2
      000000B0H.6 SFRSYM    DATA     BIT       WR
      000000A0H.6 SFRSYM    DATA     BIT       MOD_KEY
      000000C8H.5 SFRSYM    DATA     BIT       RCLK
      000000C8H.4 SFRSYM    DATA     BIT       TCLK
      00000080H.0 SFRSYM    DATA     BIT       P00
      00000099H   SFRSYM    DATA     BYTE      SBUF
      00000087H   SFRSYM    DATA     BYTE      PCON
      00000090H.0 SFRSYM    DATA     BIT       P10
      00000080H.1 SFRSYM    DATA     BIT       P01
      000000A0H.0 SFRSYM    DATA     BIT       P20
      00000090H.1 SFRSYM    DATA     BIT       P11
      00000080H.2 SFRSYM    DATA     BIT       P02
      000000E3H   SFRSYM    DATA     BYTE      ISP_ADDRH
      000000B0H.0 SFRSYM    DATA     BIT       P30
      000000A0H.1 SFRSYM    DATA     BIT       P21
      00000090H.2 SFRSYM    DATA     BIT       P12
      00000080H.3 SFRSYM    DATA     BIT       P03
      00000098H   SFRSYM    DATA     BYTE      SCON
      000000B0H.1 SFRSYM    DATA     BIT       P31
      000000A0H.2 SFRSYM    DATA     BIT       P22
      00000090H.3 SFRSYM    DATA     BIT       P13
      00000080H.4 SFRSYM    DATA     BIT       P04
      000000E8H.0 SFRSYM    DATA     BIT       P40
      00000089H   SFRSYM    DATA     BYTE      TMOD
      00000088H   SFRSYM    DATA     BYTE      TCON
      000000B0H.2 SFRSYM    DATA     BIT       P32
      000000A0H.3 SFRSYM    DATA     BIT       P23
      00000090H.4 SFRSYM    DATA     BIT       P14
      00000080H.5 SFRSYM    DATA     BIT       P05
      000000E8H.1 SFRSYM    DATA     BIT       P41
      000000B0H.3 SFRSYM    DATA     BIT       P33
      000000A0H.4 SFRSYM    DATA     BIT       P24
      00000090H.5 SFRSYM    DATA     BIT       P15
      00000080H.6 SFRSYM    DATA     BIT       P06
      000000E4H   SFRSYM    DATA     BYTE      ISP_ADDRL
      000000E8H.2 SFRSYM    DATA     BIT       P42
      000000A0H.7 SFRSYM    DATA     BIT       SET_KEY
      000000B0H.4 SFRSYM    DATA     BIT       P34
      000000A0H.5 SFRSYM    DATA     BIT       P25
      00000090H.6 SFRSYM    DATA     BIT       P16
      00000080H.7 SFRSYM    DATA     BIT       P07
      000000E8H.3 SFRSYM    DATA     BIT       P43
      000000B0H.5 SFRSYM    DATA     BIT       P35
      000000A0H.6 SFRSYM    DATA     BIT       P26
LX51 LINKER/LOCATER V4.66.87.0                                                        05/29/2018  21:11:03  PAGE 95


      00000090H.7 SFRSYM    DATA     BIT       P17
      000000E8H.4 SFRSYM    DATA     BIT       P44
      000000B0H.6 SFRSYM    DATA     BIT       P36
      000000A0H.7 SFRSYM    DATA     BIT       P27
      000000E8H.5 SFRSYM    DATA     BIT       P45
      000000B0H.7 SFRSYM    DATA     BIT       P37
      000000E8H.6 SFRSYM    DATA     BIT       P46
      00000088H.1 SFRSYM    DATA     BIT       IE0
      00000088H.3 SFRSYM    DATA     BIT       IE1
      0000008EH   SFRSYM    DATA     BYTE      AUXR
      000000F0H   SFRSYM    DATA     BYTE      B
      000000C8H.0 SFRSYM    DATA     BIT       CP_RL2
      000000E0H   SFRSYM    DATA     BYTE      ACC
      000000A8H.1 SFRSYM    DATA     BIT       ET0
      000000A8H.3 SFRSYM    DATA     BIT       ET1
      00000088H.5 SFRSYM    DATA     BIT       TF0
      000000A8H.5 SFRSYM    DATA     BIT       ET2
      00000088H.7 SFRSYM    DATA     BIT       TF1
      000000C8H.7 SFRSYM    DATA     BIT       TF2
      00000098H.2 SFRSYM    DATA     BIT       RB8
      0000008CH   SFRSYM    DATA     BYTE      TH0
      000000A8H.0 SFRSYM    DATA     BIT       EX0
      00000088H.0 SFRSYM    DATA     BIT       IT0
      0000008DH   SFRSYM    DATA     BYTE      TH1
      00000098H.3 SFRSYM    DATA     BIT       TB8
      000000A8H.2 SFRSYM    DATA     BIT       EX1
      00000088H.2 SFRSYM    DATA     BIT       IT1
      000000CDH   SFRSYM    DATA     BYTE      TH2
      000000D0H.0 SFRSYM    DATA     BIT       P
      00000098H.7 SFRSYM    DATA     BIT       SM0
      0000008AH   SFRSYM    DATA     BYTE      TL0
      00000098H.6 SFRSYM    DATA     BIT       SM1
      0000008BH   SFRSYM    DATA     BYTE      TL1
      00000098H.5 SFRSYM    DATA     BIT       SM2
      000000CCH   SFRSYM    DATA     BYTE      TL2
      000000B8H.1 SFRSYM    DATA     BIT       PT0
      000000B8H.3 SFRSYM    DATA     BIT       PT1
      000000D0H.3 SFRSYM    DATA     BIT       RS0
      000000E7H   SFRSYM    DATA     BYTE      ISP_CONTR
      000000B8H.5 SFRSYM    DATA     BIT       PT2
      00000088H.4 SFRSYM    DATA     BIT       TR0
      000000D0H.4 SFRSYM    DATA     BIT       RS1
      00000088H.6 SFRSYM    DATA     BIT       TR1
      000000C8H.2 SFRSYM    DATA     BIT       TR2
      000000B8H.0 SFRSYM    DATA     BIT       PX0
      000000E1H   SFRSYM    DATA     BYTE      WDT_CONTR
      000000B8H.2 SFRSYM    DATA     BIT       PX1
      00000083H   SFRSYM    DATA     BYTE      DPH
      00000082H   SFRSYM    DATA     BYTE      DPL
      000000B7H   SFRSYM    DATA     BYTE      IPH
      000000C8H.3 SFRSYM    DATA     BIT       EXEN2
      00000098H.4 SFRSYM    DATA     BIT       REN
      000000C9H   SFRSYM    DATA     BYTE      T2MOD
      000000C8H   SFRSYM    DATA     BYTE      T2CON
      000000E2H   SFRSYM    DATA     BYTE      ISP_DATA
      000000B9H   SFRSYM    DATA     BYTE      SADEN
      000000B0H.0 SFRSYM    DATA     BIT       RXD
      000000A9H   SFRSYM    DATA     BYTE      SADDR
      000000B0H.1 SFRSYM    DATA     BIT       TXD
      000000A2H   SFRSYM    DATA     BYTE      AUXR1
      000000D0H.5 SFRSYM    DATA     BIT       F0
      000000D0H   SFRSYM    DATA     BYTE      PSW
      020000DEH   SYMBOL    XDATA    BYTE      last_mod_tmr_count
      020000DFH   SYMBOL    XDATA    BYTE      last_set_tmr_count
      01006ACEH   SYMBOL    CODE     ---       int0_ISR
LX51 LINKER/LOCATER V4.66.87.0                                                        05/29/2018  21:11:03  PAGE 96


      00000023H.4 SYMBOL    BIT      BIT       mod_press
      00000023H.5 SYMBOL    BIT      BIT       set_press

      010082B0H   BLOCK     CODE     ---       LVL=0
      ---         BLOCKEND  ---      ---       LVL=0

      01006ACEH   BLOCK     CODE     ---       LVL=0
      01006ACEH   LINE      CODE     ---       #26
      01006AE0H   LINE      CODE     ---       #28
      01006AE2H   LINE      CODE     ---       #29
      01006AE7H   LINE      CODE     ---       #30
      01006AEAH   LINE      CODE     ---       #31
      01006AEDH   LINE      CODE     ---       #32
      01006AEDH   LINE      CODE     ---       #33
      01006AF0H   LINE      CODE     ---       #35
      ---         BLOCKEND  ---      ---       LVL=0

      0100280EH   BLOCK     CODE     ---       LVL=0
      02000000H   SYMBOL    XDATA    BYTE      ev
      0100280EH   LINE      CODE     ---       #37
      0100280EH   LINE      CODE     ---       #38
      0100280EH   LINE      CODE     ---       #39
      0100280EH   LINE      CODE     ---       #40
      01002814H   LINE      CODE     ---       #41
      01002819H   LINE      CODE     ---       #42
      0100281CH   LINE      CODE     ---       #43
      01002822H   LINE      CODE     ---       #44
      01002824H   LINE      CODE     ---       #45
      0100282CH   LINE      CODE     ---       #46
      0100282CH   LINE      CODE     ---       #47
      01002834H   LINE      CODE     ---       #48
      0100283BH   LINE      CODE     ---       #49
      01002843H   LINE      CODE     ---       #50
      01002843H   LINE      CODE     ---       #51
      01002849H   LINE      CODE     ---       #52
      0100284FH   LINE      CODE     ---       #53
      01002851H   LINE      CODE     ---       #54
      01002858H   LINE      CODE     ---       #55
      0100285EH   LINE      CODE     ---       #56
      01002861H   LINE      CODE     ---       #57
      01002869H   LINE      CODE     ---       #58
      01002869H   LINE      CODE     ---       #59
      01002869H   LINE      CODE     ---       #60
      01002869H   LINE      CODE     ---       #62
      0100286FH   LINE      CODE     ---       #63
      01002874H   LINE      CODE     ---       #64
      01002877H   LINE      CODE     ---       #65
      0100287DH   LINE      CODE     ---       #66
      0100287FH   LINE      CODE     ---       #67
      01002887H   LINE      CODE     ---       #68
      01002887H   LINE      CODE     ---       #69
      0100288FH   LINE      CODE     ---       #70
      01002896H   LINE      CODE     ---       #71
      010028A1H   LINE      CODE     ---       #72
      010028A1H   LINE      CODE     ---       #73
      010028A7H   LINE      CODE     ---       #74
      010028B0H   LINE      CODE     ---       #75
      010028B7H   LINE      CODE     ---       #76
      010028BAH   LINE      CODE     ---       #77
      010028BDH   LINE      CODE     ---       #78
      010028C5H   LINE      CODE     ---       #79
      010028C5H   LINE      CODE     ---       #80
      010028C5H   LINE      CODE     ---       #81
      010028C7H   LINE      CODE     ---       #82
      010028C7H   LINE      CODE     ---       #84
LX51 LINKER/LOCATER V4.66.87.0                                                        05/29/2018  21:11:03  PAGE 97


      010028D3H   LINE      CODE     ---       #85
      010028D3H   LINE      CODE     ---       #87
      010028F0H   LINE      CODE     ---       #88
      010028F9H   LINE      CODE     ---       #89
      010028F9H   LINE      CODE     ---       #90
      010028F9H   LINE      CODE     ---       #91
      ---         BLOCKEND  ---      ---       LVL=0

      01005CCFH   BLOCK     CODE     ---       LVL=0
      0200000CH   SYMBOL    XDATA    BYTE      ev
      01005CCFH   LINE      CODE     ---       #93
      01005CD4H   LINE      CODE     ---       #94
      01005CD4H   LINE      CODE     ---       #95
      01005CDEH   LINE      CODE     ---       #97
      01005CF0H   LINE      CODE     ---       #98
      01005CF0H   LINE      CODE     ---       #99
      01005CF9H   LINE      CODE     ---       #100
      01005CFCH   LINE      CODE     ---       #101
      01005CFEH   LINE      CODE     ---       #102
      01005CFEH   LINE      CODE     ---       #103
      01005D04H   LINE      CODE     ---       #104
      01005D06H   LINE      CODE     ---       #105
      01005D06H   LINE      CODE     ---       #106
      01005D0CH   LINE      CODE     ---       #107
      01005D0EH   LINE      CODE     ---       #108
      01005D0EH   LINE      CODE     ---       #109
      01005D17H   LINE      CODE     ---       #110
      01005D17H   LINE      CODE     ---       #111
      01005D17H   LINE      CODE     ---       #113
      ---         BLOCKEND  ---      ---       LVL=0

      01005D1FH   BLOCK     CODE     ---       LVL=0
      0200000CH   SYMBOL    XDATA    BYTE      ev
      01005D1FH   LINE      CODE     ---       #117
      01005D24H   LINE      CODE     ---       #118
      01005D24H   LINE      CODE     ---       #119
      01005D2EH   LINE      CODE     ---       #121
      01005D40H   LINE      CODE     ---       #122
      01005D40H   LINE      CODE     ---       #123
      01005D49H   LINE      CODE     ---       #124
      01005D4CH   LINE      CODE     ---       #125
      01005D4EH   LINE      CODE     ---       #126
      01005D4EH   LINE      CODE     ---       #127
      01005D54H   LINE      CODE     ---       #128
      01005D56H   LINE      CODE     ---       #129
      01005D56H   LINE      CODE     ---       #130
      01005D5CH   LINE      CODE     ---       #131
      01005D5EH   LINE      CODE     ---       #132
      01005D5EH   LINE      CODE     ---       #133
      01005D67H   LINE      CODE     ---       #134
      01005D67H   LINE      CODE     ---       #135
      01005D67H   LINE      CODE     ---       #137
      ---         BLOCKEND  ---      ---       LVL=0

      01006890H   BLOCK     CODE     ---       LVL=0
      0200000CH   SYMBOL    XDATA    BYTE      ev
      01006890H   LINE      CODE     ---       #140
      01006895H   LINE      CODE     ---       #141
      01006895H   LINE      CODE     ---       #142
      010068A2H   LINE      CODE     ---       #144
      010068ADH   LINE      CODE     ---       #145
      010068ADH   LINE      CODE     ---       #146
      010068B3H   LINE      CODE     ---       #147
      010068B5H   LINE      CODE     ---       #148
      010068B5H   LINE      CODE     ---       #149
LX51 LINKER/LOCATER V4.66.87.0                                                        05/29/2018  21:11:03  PAGE 98


      010068BEH   LINE      CODE     ---       #150
      010068BEH   LINE      CODE     ---       #151
      010068BEH   LINE      CODE     ---       #153
      ---         BLOCKEND  ---      ---       LVL=0

      01007C53H   BLOCK     CODE     ---       LVL=0
      01007C53H   LINE      CODE     ---       #156
      01007C53H   LINE      CODE     ---       #157
      01007C53H   LINE      CODE     ---       #158
      01007C5CH   LINE      CODE     ---       #160
      01007C61H   LINE      CODE     ---       #161
      01007C63H   LINE      CODE     ---       #163
      01007C65H   LINE      CODE     ---       #164
      01007C67H   LINE      CODE     ---       #166
      01007C69H   LINE      CODE     ---       #167
      01007C6BH   LINE      CODE     ---       #168
      ---         BLOCKEND  ---      ---       LVL=0

      01008639H   BLOCK     CODE     ---       LVL=0
      01008639H   LINE      CODE     ---       #170
      01008639H   LINE      CODE     ---       #171
      01008639H   LINE      CODE     ---       #172
      ---         BLOCKEND  ---      ---       LVL=0

      01008642H   BLOCK     CODE     ---       LVL=0
      01008642H   LINE      CODE     ---       #175
      01008642H   LINE      CODE     ---       #176
      01008642H   LINE      CODE     ---       #177
      ---         BLOCKEND  ---      ---       LVL=0

      ---         MODULE    ---      ---       TASK
      00000050H   PUBLIC    IDATA    WORD      ev_bits1
      0000004EH   PUBLIC    IDATA    WORD      ev_bits0
      0100A9B4H   PUBLIC    CONST    ---       task_name
      010047B2H   PUBLIC    CODE     ---       task_dump
      01003A2EH   PUBLIC    CODE     ---       run_task
      01008045H   PUBLIC    CODE     ---       task_initialize
      0100AA08H   SYMBOL    CONST    ---       task_procs

      01008354H   BLOCK     CODE     ---       LVL=0
      ---         BLOCKEND  ---      ---       LVL=0

      01008045H   BLOCK     CODE     ---       LVL=0
      01008045H   LINE      CODE     ---       #143
      01008045H   LINE      CODE     ---       #144
      01008045H   LINE      CODE     ---       #145
      0100804EH   LINE      CODE     ---       #146
      01008054H   LINE      CODE     ---       #147
      01008058H   LINE      CODE     ---       #148
      ---         BLOCKEND  ---      ---       LVL=0

      01003A2EH   BLOCK     CODE     ---       LVL=0
      01003A2EH   BLOCK     CODE     NEAR LAB  LVL=1
      02000000H   SYMBOL    XDATA    BYTE      c
      ---         BLOCKEND  ---      ---       LVL=1
      01003A2EH   LINE      CODE     ---       #150
      01003A2EH   LINE      CODE     ---       #151
      01003A2EH   LINE      CODE     ---       #154
      01003A37H   LINE      CODE     ---       #155
      01003A45H   LINE      CODE     ---       #156
      01003A77H   LINE      CODE     ---       #157
      01003AADH   LINE      CODE     ---       #158
      01003ACBH   LINE      CODE     ---       #159
      01003ACBH   LINE      CODE     ---       #160
      01003AD4H   LINE      CODE     ---       #161
LX51 LINKER/LOCATER V4.66.87.0                                                        05/29/2018  21:11:03  PAGE 99


      01003AD4H   LINE      CODE     ---       #163
      ---         BLOCKEND  ---      ---       LVL=0

      010047B2H   BLOCK     CODE     ---       LVL=0
      010047B2H   BLOCK     CODE     NEAR LAB  LVL=1
      0200000BH   SYMBOL    XDATA    BYTE      i
      ---         BLOCKEND  ---      ---       LVL=1
      010047B2H   LINE      CODE     ---       #165
      010047B2H   LINE      CODE     ---       #166
      010047B2H   LINE      CODE     ---       #168
      010047C1H   LINE      CODE     ---       #169
      01004823H   LINE      CODE     ---       #170
      0100482BH   LINE      CODE     ---       #171
      ---         BLOCKEND  ---      ---       LVL=0

      ---         MODULE    ---      ---       LED
      00000024H.3 PUBLIC    BIT      BIT       led_powersave
      00000038H   PUBLIC    IDATA    ---       led_data
      00000036H   PUBLIC    IDATA    BYTE      led_blink
      020000BDH   PUBLIC    XDATA    ---       saved_led_data
      020000BBH   PUBLIC    XDATA    BYTE      saved_led_blink
      0100C8ABH   PUBLIC    CONST    ---       led_code
      01007294H   PUBLIC    CODE     ---       led_restore
      0100726EH   PUBLIC    CODE     ---       led_save
      01007F63H   PUBLIC    CODE     ---       led_leave_powersave
      010082D2H   PUBLIC    CODE     ---       led_enter_powersave
      01005D6FH   PUBLIC    CODE     ---       _led_set_code
      01008372H   PUBLIC    CODE     ---       _led_set_dp
      01008363H   PUBLIC    CODE     ---       _led_clr_dp
      01007DA5H   PUBLIC    CODE     ---       _led_clr_blink
      01007ECAH   PUBLIC    CODE     ---       _led_set_blink
      010082C1H   PUBLIC    CODE     ---       led_clear
      010065ADH   PUBLIC    CODE     ---       led_initialize
      01005673H   PUBLIC    CODE     ---       refresh_led
      00000080H   SFRSYM    DATA     BYTE      P0
      00000090H   SFRSYM    DATA     BYTE      P1
      000000A0H   SFRSYM    DATA     BYTE      P2
      000000B0H   SFRSYM    DATA     BYTE      P3
      000000C0H   SFRSYM    DATA     BYTE      XICON
      000000B0H.4 SFRSYM    DATA     BIT       T0
      000000D0H.6 SFRSYM    DATA     BIT       AC
      000000E8H   SFRSYM    DATA     BYTE      P4
      000000B0H.5 SFRSYM    DATA     BIT       T1
      000000E6H   SFRSYM    DATA     BYTE      ISP_TRIG
      00000090H.0 SFRSYM    DATA     BIT       T2
      000000A8H.7 SFRSYM    DATA     BIT       EA
      000000A8H.6 SFRSYM    DATA     BIT       EC
      00000098H.7 SFRSYM    DATA     BIT       FE
      000000A8H   SFRSYM    DATA     BYTE      IE
      000000C8H.6 SFRSYM    DATA     BIT       EXF2
      000000B0H.7 SFRSYM    DATA     BIT       RD
      000000A8H.4 SFRSYM    DATA     BIT       ES
      000000B8H   SFRSYM    DATA     BYTE      IP
      00000098H.0 SFRSYM    DATA     BIT       RI
      000000B0H.2 SFRSYM    DATA     BIT       INT0
      000000D0H.7 SFRSYM    DATA     BIT       CY
      00000098H.1 SFRSYM    DATA     BIT       TI
      000000B0H.3 SFRSYM    DATA     BIT       INT1
      000000CBH   SFRSYM    DATA     BYTE      RCAP2H
      000000E5H   SFRSYM    DATA     BYTE      ISP_CMD
      000000B8H.4 SFRSYM    DATA     BIT       PS
      00000081H   SFRSYM    DATA     BYTE      SP
      00000090H.1 SFRSYM    DATA     BIT       T2EX
      000000D0H.2 SFRSYM    DATA     BIT       OV
      000000CAH   SFRSYM    DATA     BYTE      RCAP2L
LX51 LINKER/LOCATER V4.66.87.0                                                        05/29/2018  21:11:03  PAGE 100


      000000C8H.1 SFRSYM    DATA     BIT       C_T2
      000000B0H.6 SFRSYM    DATA     BIT       WR
      000000C8H.5 SFRSYM    DATA     BIT       RCLK
      000000C8H.4 SFRSYM    DATA     BIT       TCLK
      00000080H.0 SFRSYM    DATA     BIT       P00
      00000099H   SFRSYM    DATA     BYTE      SBUF
      00000087H   SFRSYM    DATA     BYTE      PCON
      00000090H.0 SFRSYM    DATA     BIT       P10
      00000080H.1 SFRSYM    DATA     BIT       P01
      000000A0H.0 SFRSYM    DATA     BIT       P20
      00000090H.1 SFRSYM    DATA     BIT       P11
      00000080H.2 SFRSYM    DATA     BIT       P02
      000000E3H   SFRSYM    DATA     BYTE      ISP_ADDRH
      000000B0H.0 SFRSYM    DATA     BIT       P30
      000000A0H.1 SFRSYM    DATA     BIT       P21
      00000090H.2 SFRSYM    DATA     BIT       P12
      00000080H.3 SFRSYM    DATA     BIT       P03
      00000098H   SFRSYM    DATA     BYTE      SCON
      000000B0H.1 SFRSYM    DATA     BIT       P31
      000000A0H.2 SFRSYM    DATA     BIT       P22
      00000090H.3 SFRSYM    DATA     BIT       P13
      00000080H.4 SFRSYM    DATA     BIT       P04
      000000E8H.0 SFRSYM    DATA     BIT       P40
      00000089H   SFRSYM    DATA     BYTE      TMOD
      00000088H   SFRSYM    DATA     BYTE      TCON
      000000B0H.2 SFRSYM    DATA     BIT       P32
      000000A0H.3 SFRSYM    DATA     BIT       P23
      00000090H.4 SFRSYM    DATA     BIT       P14
      00000080H.5 SFRSYM    DATA     BIT       P05
      000000E8H.1 SFRSYM    DATA     BIT       P41
      000000B0H.3 SFRSYM    DATA     BIT       P33
      000000A0H.4 SFRSYM    DATA     BIT       P24
      00000090H.5 SFRSYM    DATA     BIT       P15
      00000080H.6 SFRSYM    DATA     BIT       P06
      000000E4H   SFRSYM    DATA     BYTE      ISP_ADDRL
      000000E8H.2 SFRSYM    DATA     BIT       P42
      000000B0H.4 SFRSYM    DATA     BIT       P34
      000000A0H.5 SFRSYM    DATA     BIT       P25
      00000090H.6 SFRSYM    DATA     BIT       P16
      00000080H.7 SFRSYM    DATA     BIT       P07
      000000E8H.3 SFRSYM    DATA     BIT       P43
      000000B0H.5 SFRSYM    DATA     BIT       P35
      000000A0H.6 SFRSYM    DATA     BIT       P26
      00000090H.7 SFRSYM    DATA     BIT       P17
      000000E8H.4 SFRSYM    DATA     BIT       P44
      000000B0H.6 SFRSYM    DATA     BIT       P36
      000000A0H.7 SFRSYM    DATA     BIT       P27
      000000E8H.5 SFRSYM    DATA     BIT       P45
      000000B0H.7 SFRSYM    DATA     BIT       P37
      000000E8H.6 SFRSYM    DATA     BIT       P46
      00000088H.1 SFRSYM    DATA     BIT       IE0
      00000088H.3 SFRSYM    DATA     BIT       IE1
      0000008EH   SFRSYM    DATA     BYTE      AUXR
      000000F0H   SFRSYM    DATA     BYTE      B
      000000C8H.0 SFRSYM    DATA     BIT       CP_RL2
      000000E0H   SFRSYM    DATA     BYTE      ACC
      000000A8H.1 SFRSYM    DATA     BIT       ET0
      000000A8H.3 SFRSYM    DATA     BIT       ET1
      00000088H.5 SFRSYM    DATA     BIT       TF0
      000000A8H.5 SFRSYM    DATA     BIT       ET2
      00000088H.7 SFRSYM    DATA     BIT       TF1
      000000C8H.7 SFRSYM    DATA     BIT       TF2
      00000098H.2 SFRSYM    DATA     BIT       RB8
      0000008CH   SFRSYM    DATA     BYTE      TH0
      000000A8H.0 SFRSYM    DATA     BIT       EX0
LX51 LINKER/LOCATER V4.66.87.0                                                        05/29/2018  21:11:03  PAGE 101


      00000088H.0 SFRSYM    DATA     BIT       IT0
      0000008DH   SFRSYM    DATA     BYTE      TH1
      00000098H.3 SFRSYM    DATA     BIT       TB8
      000000A8H.2 SFRSYM    DATA     BIT       EX1
      00000088H.2 SFRSYM    DATA     BIT       IT1
      000000CDH   SFRSYM    DATA     BYTE      TH2
      000000D0H.0 SFRSYM    DATA     BIT       P
      00000098H.7 SFRSYM    DATA     BIT       SM0
      0000008AH   SFRSYM    DATA     BYTE      TL0
      00000098H.6 SFRSYM    DATA     BIT       SM1
      0000008BH   SFRSYM    DATA     BYTE      TL1
      00000098H.5 SFRSYM    DATA     BIT       SM2
      000000CCH   SFRSYM    DATA     BYTE      TL2
      000000B8H.1 SFRSYM    DATA     BIT       PT0
      000000B8H.3 SFRSYM    DATA     BIT       PT1
      000000D0H.3 SFRSYM    DATA     BIT       RS0
      000000E7H   SFRSYM    DATA     BYTE      ISP_CONTR
      000000B8H.5 SFRSYM    DATA     BIT       PT2
      00000088H.4 SFRSYM    DATA     BIT       TR0
      000000D0H.4 SFRSYM    DATA     BIT       RS1
      00000088H.6 SFRSYM    DATA     BIT       TR1
      000000C8H.2 SFRSYM    DATA     BIT       TR2
      000000B8H.0 SFRSYM    DATA     BIT       PX0
      000000E1H   SFRSYM    DATA     BYTE      WDT_CONTR
      000000B8H.2 SFRSYM    DATA     BIT       PX1
      00000083H   SFRSYM    DATA     BYTE      DPH
      00000082H   SFRSYM    DATA     BYTE      DPL
      000000B7H   SFRSYM    DATA     BYTE      IPH
      000000C8H.3 SFRSYM    DATA     BIT       EXEN2
      00000098H.4 SFRSYM    DATA     BIT       REN
      000000C9H   SFRSYM    DATA     BYTE      T2MOD
      000000C8H   SFRSYM    DATA     BYTE      T2CON
      000000E2H   SFRSYM    DATA     BYTE      ISP_DATA
      000000B9H   SFRSYM    DATA     BYTE      SADEN
      000000B0H.0 SFRSYM    DATA     BIT       RXD
      000000A9H   SFRSYM    DATA     BYTE      SADDR
      000000B0H.1 SFRSYM    DATA     BIT       TXD
      000000A2H   SFRSYM    DATA     BYTE      AUXR1
      000000D0H.5 SFRSYM    DATA     BIT       F0
      000000D0H   SFRSYM    DATA     BYTE      PSW
      020000BCH   SYMBOL    XDATA    BYTE      saved_led_index
      00000037H   SYMBOL    IDATA    BYTE      led_index
      0100C8DAH   SYMBOL    CONST    ---       led_scan
      020000C3H   SYMBOL    XDATA    BYTE      saved_scan_loop_cnt
      0000003EH   SYMBOL    IDATA    BYTE      scan_loop_cnt

      0100785AH   BLOCK     CODE     ---       LVL=0
      ---         BLOCKEND  ---      ---       LVL=0

      01005673H   BLOCK     CODE     ---       LVL=0
      01005673H   LINE      CODE     ---       #94
      01005673H   LINE      CODE     ---       #95
      01005673H   LINE      CODE     ---       #96
      01005676H   LINE      CODE     ---       #98
      01005679H   LINE      CODE     ---       #100
      01005697H   LINE      CODE     ---       #101
      0100569FH   LINE      CODE     ---       #102
      010056AAH   LINE      CODE     ---       #103
      010056ACH   LINE      CODE     ---       #107
      010056B5H   LINE      CODE     ---       #108
      010056B5H   LINE      CODE     ---       #110
      010056BEH   LINE      CODE     ---       #112
      010056BFH   LINE      CODE     ---       #113
      010056C3H   LINE      CODE     ---       #114
      010056C5H   LINE      CODE     ---       #115
LX51 LINKER/LOCATER V4.66.87.0                                                        05/29/2018  21:11:03  PAGE 102


      010056CCH   LINE      CODE     ---       #116
      010056CCH   LINE      CODE     ---       #117
      ---         BLOCKEND  ---      ---       LVL=0

      010065ADH   BLOCK     CODE     ---       LVL=0
      010065ADH   BLOCK     CODE     NEAR LAB  LVL=1
      00000004H   SYMBOL    DATA     BYTE      i
      00000002H   SYMBOL    DATA     BYTE      j
      ---         BLOCKEND  ---      ---       LVL=1
      010065ADH   LINE      CODE     ---       #120
      010065ADH   LINE      CODE     ---       #121
      010065ADH   LINE      CODE     ---       #123
      010065B6H   LINE      CODE     ---       #125
      010065B8H   LINE      CODE     ---       #126
      010065B8H   LINE      CODE     ---       #127
      010065B8H   LINE      CODE     ---       #128
      010065B8H   LINE      CODE     ---       #129
      010065B8H   LINE      CODE     ---       #131
      010065B8H   LINE      CODE     ---       #132
      010065BBH   LINE      CODE     ---       #134
      010065BDH   LINE      CODE     ---       #135
      010065C5H   LINE      CODE     ---       #136
      010065C7H   LINE      CODE     ---       #137
      010065C9H   LINE      CODE     ---       #138
      010065CBH   LINE      CODE     ---       #139
      010065CDH   LINE      CODE     ---       #140
      010065CFH   LINE      CODE     ---       #141
      010065D1H   LINE      CODE     ---       #142
      010065D4H   LINE      CODE     ---       #143
      010065D9H   LINE      CODE     ---       #144
      010065DEH   LINE      CODE     ---       #145
      010065E3H   LINE      CODE     ---       #147
      010065E3H   LINE      CODE     ---       #148
      010065E3H   LINE      CODE     ---       #149
      010065E3H   LINE      CODE     ---       #150
      010065E3H   LINE      CODE     ---       #152
      010065E3H   LINE      CODE     ---       #153
      010065E6H   LINE      CODE     ---       #154
      ---         BLOCKEND  ---      ---       LVL=0

      010082C1H   BLOCK     CODE     ---       LVL=0
      010082C1H   LINE      CODE     ---       #156
      010082C1H   LINE      CODE     ---       #157
      010082C1H   LINE      CODE     ---       #158
      010082C5H   LINE      CODE     ---       #159
      ---         BLOCKEND  ---      ---       LVL=0

      01007ECAH   BLOCK     CODE     ---       LVL=0
      00000007H   SYMBOL    DATA     BYTE      i
      01007ECAH   LINE      CODE     ---       #162
      01007ECAH   LINE      CODE     ---       #163
      01007ECAH   LINE      CODE     ---       #164
      01007ED0H   LINE      CODE     ---       #165
      01007EDFH   LINE      CODE     ---       #166
      01007EDFH   LINE      CODE     ---       #167
      ---         BLOCKEND  ---      ---       LVL=0

      01007DA5H   BLOCK     CODE     ---       LVL=0
      00000007H   SYMBOL    DATA     BYTE      i
      01007DA5H   LINE      CODE     ---       #169
      01007DA5H   LINE      CODE     ---       #170
      01007DA5H   LINE      CODE     ---       #171
      01007DABH   LINE      CODE     ---       #172
      01007DBBH   LINE      CODE     ---       #173
      01007DBBH   LINE      CODE     ---       #174
LX51 LINKER/LOCATER V4.66.87.0                                                        05/29/2018  21:11:03  PAGE 103


      ---         BLOCKEND  ---      ---       LVL=0

      01008363H   BLOCK     CODE     ---       LVL=0
      00000007H   SYMBOL    DATA     BYTE      i
      01008363H   LINE      CODE     ---       #176
      01008363H   LINE      CODE     ---       #177
      01008363H   LINE      CODE     ---       #178
      01008369H   LINE      CODE     ---       #179
      01008371H   LINE      CODE     ---       #180
      01008371H   LINE      CODE     ---       #181
      ---         BLOCKEND  ---      ---       LVL=0

      01008372H   BLOCK     CODE     ---       LVL=0
      00000007H   SYMBOL    DATA     BYTE      i
      01008372H   LINE      CODE     ---       #183
      01008372H   LINE      CODE     ---       #184
      01008372H   LINE      CODE     ---       #185
      01008378H   LINE      CODE     ---       #186
      01008380H   LINE      CODE     ---       #187
      01008380H   LINE      CODE     ---       #188
      ---         BLOCKEND  ---      ---       LVL=0

      01005D6FH   BLOCK     CODE     ---       LVL=0
      00000007H   SYMBOL    DATA     BYTE      i
      00000005H   SYMBOL    DATA     CHAR      c
      01005D6FH   LINE      CODE     ---       #192
      01005D6FH   LINE      CODE     ---       #193
      01005D6FH   LINE      CODE     ---       #194
      01005D75H   LINE      CODE     ---       #195
      01005D7DH   LINE      CODE     ---       #196
      01005D80H   LINE      CODE     ---       #197
      01005D8BH   LINE      CODE     ---       #198
      01005D8CH   LINE      CODE     ---       #199
      01005D9CH   LINE      CODE     ---       #200
      01005DB5H   LINE      CODE     ---       #201
      01005DB6H   LINE      CODE     ---       #202
      01005DBEH   LINE      CODE     ---       #203
      01005DBEH   LINE      CODE     ---       #204
      01005DBEH   LINE      CODE     ---       #205
      ---         BLOCKEND  ---      ---       LVL=0

      010082D2H   BLOCK     CODE     ---       LVL=0
      010082D2H   LINE      CODE     ---       #207
      010082D2H   LINE      CODE     ---       #208
      010082D2H   LINE      CODE     ---       #209
      010082DBH   LINE      CODE     ---       #211
      010082DDH   LINE      CODE     ---       #213
      010082DDH   LINE      CODE     ---       #214
      010082E0H   LINE      CODE     ---       #215
      ---         BLOCKEND  ---      ---       LVL=0

      01007F63H   BLOCK     CODE     ---       LVL=0
      01007F63H   LINE      CODE     ---       #218
      01007F63H   LINE      CODE     ---       #219
      01007F63H   LINE      CODE     ---       #220
      01007F6CH   LINE      CODE     ---       #222
      01007F6FH   LINE      CODE     ---       #223
      01007F72H   LINE      CODE     ---       #224
      01007F75H   LINE      CODE     ---       #226
      01007F77H   LINE      CODE     ---       #227
      ---         BLOCKEND  ---      ---       LVL=0

      0100726EH   BLOCK     CODE     ---       LVL=0
      0100726EH   LINE      CODE     ---       #229
      0100726EH   LINE      CODE     ---       #230
LX51 LINKER/LOCATER V4.66.87.0                                                        05/29/2018  21:11:03  PAGE 104


      0100726EH   LINE      CODE     ---       #231
      01007281H   LINE      CODE     ---       #232
      01007288H   LINE      CODE     ---       #233
      0100728CH   LINE      CODE     ---       #234
      01007293H   LINE      CODE     ---       #235
      ---         BLOCKEND  ---      ---       LVL=0

      01007294H   BLOCK     CODE     ---       LVL=0
      01007294H   LINE      CODE     ---       #237
      01007294H   LINE      CODE     ---       #238
      01007294H   LINE      CODE     ---       #239
      010072A7H   LINE      CODE     ---       #240
      010072AEH   LINE      CODE     ---       #241
      010072B2H   LINE      CODE     ---       #242
      010072B9H   LINE      CODE     ---       #243
      ---         BLOCKEND  ---      ---       LVL=0

      ---         MODULE    ---      ---       ALARM
      01006A35H   PUBLIC    CODE     ---       alarm1_sync_to_rtc
      00000020H.0 PUBLIC    BIT      BIT       ?alarm1_set_enable?BIT
      010087BEH   PUBLIC    CODE     ---       alarm1_set_enable
      0100881BH   PUBLIC    CODE     ---       alarm1_test_enable
      01005BDDH   PUBLIC    CODE     ---       alarm0_sync_to_rtc
      01008424H   PUBLIC    CODE     ---       alarm0_inc_hour
      01008770H   PUBLIC    CODE     ---       alarm0_get_hour
      01008416H   PUBLIC    CODE     ---       alarm0_inc_min
      0100876AH   PUBLIC    CODE     ---       alarm0_get_min
      00000020H.0 PUBLIC    BIT      BIT       ?alarm0_set_hour_12?BIT
      01000026H   PUBLIC    CODE     ---       alarm0_set_hour_12
      01008818H   PUBLIC    CODE     ---       alarm0_get_hour_12
      01008764H   PUBLIC    CODE     ---       alarm0_get_day_mask
      00000020H.0 PUBLIC    BIT      BIT       ?_alarm0_set_enable?BIT
      010051A7H   PUBLIC    CODE     ---       _alarm0_set_enable
      01006D13H   PUBLIC    CODE     ---       _alarm0_test_enable
      01008654H   PUBLIC    CODE     ---       alarm_leave_powersave
      0100864BH   PUBLIC    CODE     ---       alarm_enter_powersave
      0100507AH   PUBLIC    CODE     ---       alarm_dump
      0100764CH   PUBLIC    CODE     ---       alarm_switch_off
      01008390H   PUBLIC    CODE     ---       alarm_switch_on
      01008381H   PUBLIC    CODE     ---       alarm_initialize
      010048A6H   PUBLIC    CODE     ---       scan_alarm
      01006F08H   PUBLIC    CODE     ---       _alarm_proc
      00000023H.6 SYMBOL    BIT      BIT       alarm1_enable
      020000D5H   SYMBOL    XDATA    ---       alarm0
      01006A02H   SYMBOL    CODE     ---       alarm_load_rom
      01006966H   SYMBOL    CODE     ---       alarm_save_rom
      00000023H.7 SYMBOL    BIT      BIT       alarm0_is12

      01007F78H   BLOCK     CODE     ---       LVL=0
      ---         BLOCKEND  ---      ---       LVL=0

      01006F08H   BLOCK     CODE     ---       LVL=0
      0200000CH   SYMBOL    XDATA    BYTE      ev
      01006F08H   LINE      CODE     ---       #15
      01006F0DH   LINE      CODE     ---       #16
      01006F0DH   LINE      CODE     ---       #18
      01006F10H   LINE      CODE     ---       #19
      01006F19H   LINE      CODE     ---       #20
      01006F1EH   LINE      CODE     ---       #21
      01006F1EH   LINE      CODE     ---       #23
      01006F25H   LINE      CODE     ---       #24
      01006F2EH   LINE      CODE     ---       #25
      01006F33H   LINE      CODE     ---       #26
      01006F33H   LINE      CODE     ---       #27
      ---         BLOCKEND  ---      ---       LVL=0
LX51 LINKER/LOCATER V4.66.87.0                                                        05/29/2018  21:11:03  PAGE 105



      010048A6H   BLOCK     CODE     ---       LVL=0
      010048A6H   BLOCK     CODE     NEAR LAB  LVL=1
      00000020H.0 SYMBOL    BIT      BIT       alarm0_hit
      00000020H.1 SYMBOL    BIT      BIT       alarm1_hit
      ---         BLOCKEND  ---      ---       LVL=1
      010048A6H   LINE      CODE     ---       #29
      010048A6H   LINE      CODE     ---       #30
      010048A6H   LINE      CODE     ---       #33
      010048ABH   LINE      CODE     ---       #34
      010048B2H   LINE      CODE     ---       #35
      010048B8H   LINE      CODE     ---       #36
      010048BCH   LINE      CODE     ---       #37
      010048C0H   LINE      CODE     ---       #38
      010048C5H   LINE      CODE     ---       #40
      010048C8H   LINE      CODE     ---       #41
      010048E2H   LINE      CODE     ---       #42
      010048E7H   LINE      CODE     ---       #43
      010048EAH   LINE      CODE     ---       #44
      010048EAH   LINE      CODE     ---       #45
      010048F3H   LINE      CODE     ---       #46
      010048F6H   LINE      CODE     ---       #47
      010048F8H   LINE      CODE     ---       #48
      010048F8H   LINE      CODE     ---       #49
      010048F8H   LINE      CODE     ---       #50
      010048F8H   LINE      CODE     ---       #53
      010048FBH   LINE      CODE     ---       #54
      01004900H   LINE      CODE     ---       #55
      0100490CH   LINE      CODE     ---       #56
      0100490CH   LINE      CODE     ---       #57
      01004911H   LINE      CODE     ---       #58
      01004914H   LINE      CODE     ---       #59
      01004914H   LINE      CODE     ---       #60
      0100491DH   LINE      CODE     ---       #61
      0100491DH   LINE      CODE     ---       #62
      0100491DH   LINE      CODE     ---       #63
      ---         BLOCKEND  ---      ---       LVL=0

      01006A02H   BLOCK     CODE     ---       LVL=0
      01006A02H   LINE      CODE     ---       #65
      01006A02H   LINE      CODE     ---       #66
      01006A02H   LINE      CODE     ---       #67
      01006A0CH   LINE      CODE     ---       #68
      01006A16H   LINE      CODE     ---       #69
      01006A20H   LINE      CODE     ---       #70
      01006A2AH   LINE      CODE     ---       #71
      01006A34H   LINE      CODE     ---       #72
      ---         BLOCKEND  ---      ---       LVL=0

      01006966H   BLOCK     CODE     ---       LVL=0
      01006966H   LINE      CODE     ---       #74
      01006966H   LINE      CODE     ---       #75
      01006966H   LINE      CODE     ---       #76
      01006970H   LINE      CODE     ---       #77
      0100697AH   LINE      CODE     ---       #78
      01006984H   LINE      CODE     ---       #79
      01006990H   LINE      CODE     ---       #80
      ---         BLOCKEND  ---      ---       LVL=0

      01008381H   BLOCK     CODE     ---       LVL=0
      01008381H   LINE      CODE     ---       #83
      01008381H   LINE      CODE     ---       #84
      01008381H   LINE      CODE     ---       #85
      0100838AH   LINE      CODE     ---       #87
      0100838DH   LINE      CODE     ---       #88
LX51 LINKER/LOCATER V4.66.87.0                                                        05/29/2018  21:11:03  PAGE 106


      ---         BLOCKEND  ---      ---       LVL=0

      01008390H   BLOCK     CODE     ---       LVL=0
      01008390H   LINE      CODE     ---       #91
      01008390H   LINE      CODE     ---       #92
      01008390H   LINE      CODE     ---       #93
      01008399H   LINE      CODE     ---       #94
      0100839CH   LINE      CODE     ---       #95
      ---         BLOCKEND  ---      ---       LVL=0

      0100764CH   BLOCK     CODE     ---       LVL=0
      0100764CH   LINE      CODE     ---       #98
      0100764CH   LINE      CODE     ---       #99
      0100764CH   LINE      CODE     ---       #100
      01007655H   LINE      CODE     ---       #101
      0100765AH   LINE      CODE     ---       #102
      01007661H   LINE      CODE     ---       #103
      01007667H   LINE      CODE     ---       #104
      ---         BLOCKEND  ---      ---       LVL=0

      0100507AH   BLOCK     CODE     ---       LVL=0
      0100507AH   LINE      CODE     ---       #107
      0100507AH   LINE      CODE     ---       #108
      0100507AH   LINE      CODE     ---       #109
      01005084H   LINE      CODE     ---       #110
      0100508EH   LINE      CODE     ---       #111
      01005098H   LINE      CODE     ---       #112
      010050B6H   LINE      CODE     ---       #113
      010050D4H   LINE      CODE     ---       #114
      ---         BLOCKEND  ---      ---       LVL=0

      0100864BH   BLOCK     CODE     ---       LVL=0
      0100864BH   LINE      CODE     ---       #116
      0100864BH   LINE      CODE     ---       #117
      0100864BH   LINE      CODE     ---       #118
      ---         BLOCKEND  ---      ---       LVL=0

      01008654H   BLOCK     CODE     ---       LVL=0
      01008654H   LINE      CODE     ---       #121
      01008654H   LINE      CODE     ---       #122
      01008654H   LINE      CODE     ---       #123
      ---         BLOCKEND  ---      ---       LVL=0

      01006D13H   BLOCK     CODE     ---       LVL=0
      02000019H   SYMBOL    XDATA    BYTE      day
      01006D13H   LINE      CODE     ---       #127
      01006D18H   LINE      CODE     ---       #128
      01006D18H   LINE      CODE     ---       #129
      01006D25H   LINE      CODE     ---       #130
      01006D41H   LINE      CODE     ---       #131
      ---         BLOCKEND  ---      ---       LVL=0

      010051A7H   BLOCK     CODE     ---       LVL=0
      02000014H   SYMBOL    XDATA    BYTE      day
      00000020H.0 SYMBOL    BIT      BIT       enable
      010051A7H   LINE      CODE     ---       #134
      010051ACH   LINE      CODE     ---       #135
      010051ACH   LINE      CODE     ---       #136
      010051CEH   LINE      CODE     ---       #137
      010051E3H   LINE      CODE     ---       #138
      010051EFH   LINE      CODE     ---       #139
      010051F2H   LINE      CODE     ---       #140
      010051F4H   LINE      CODE     ---       #141
      010051FCH   LINE      CODE     ---       #142
      010051FCH   LINE      CODE     ---       #143
LX51 LINKER/LOCATER V4.66.87.0                                                        05/29/2018  21:11:03  PAGE 107


      ---         BLOCKEND  ---      ---       LVL=0

      01008764H   BLOCK     CODE     ---       LVL=0
      01008764H   LINE      CODE     ---       #147
      01008764H   LINE      CODE     ---       #148
      01008764H   LINE      CODE     ---       #149
      01008769H   LINE      CODE     ---       #150
      ---         BLOCKEND  ---      ---       LVL=0

      01008818H   BLOCK     CODE     ---       LVL=0
      01008818H   LINE      CODE     ---       #152
      01008818H   LINE      CODE     ---       #153
      01008818H   LINE      CODE     ---       #154
      0100881AH   LINE      CODE     ---       #155
      ---         BLOCKEND  ---      ---       LVL=0

      01000026H   BLOCK     CODE     ---       LVL=0
      00000020H.0 SYMBOL    BIT      BIT       enable
      01000026H   LINE      CODE     ---       #157
      01000026H   LINE      CODE     ---       #158
      01000026H   LINE      CODE     ---       #159
      0100002AH   LINE      CODE     ---       #160
      ---         BLOCKEND  ---      ---       LVL=0

      0100876AH   BLOCK     CODE     ---       LVL=0
      0100876AH   LINE      CODE     ---       #163
      0100876AH   LINE      CODE     ---       #164
      0100876AH   LINE      CODE     ---       #165
      0100876FH   LINE      CODE     ---       #166
      ---         BLOCKEND  ---      ---       LVL=0

      01008416H   BLOCK     CODE     ---       LVL=0
      01008416H   LINE      CODE     ---       #168
      01008416H   LINE      CODE     ---       #169
      01008416H   LINE      CODE     ---       #170
      01008423H   LINE      CODE     ---       #171
      ---         BLOCKEND  ---      ---       LVL=0

      01008770H   BLOCK     CODE     ---       LVL=0
      01008770H   LINE      CODE     ---       #173
      01008770H   LINE      CODE     ---       #174
      01008770H   LINE      CODE     ---       #175
      01008775H   LINE      CODE     ---       #176
      ---         BLOCKEND  ---      ---       LVL=0

      01008424H   BLOCK     CODE     ---       LVL=0
      01008424H   LINE      CODE     ---       #178
      01008424H   LINE      CODE     ---       #179
      01008424H   LINE      CODE     ---       #180
      01008431H   LINE      CODE     ---       #181
      ---         BLOCKEND  ---      ---       LVL=0

      01005BDDH   BLOCK     CODE     ---       LVL=0
      01005BDDH   LINE      CODE     ---       #183
      01005BDDH   LINE      CODE     ---       #184
      01005BDDH   LINE      CODE     ---       #185
      01005BE6H   LINE      CODE     ---       #186
      01005BEBH   LINE      CODE     ---       #187
      01005BF0H   LINE      CODE     ---       #188
      01005BF8H   LINE      CODE     ---       #189
      01005C00H   LINE      CODE     ---       #190
      01005C05H   LINE      CODE     ---       #191
      01005C0CH   LINE      CODE     ---       #192
      01005C11H   LINE      CODE     ---       #194
      01005C16H   LINE      CODE     ---       #195
LX51 LINKER/LOCATER V4.66.87.0                                                        05/29/2018  21:11:03  PAGE 108


      01005C25H   LINE      CODE     ---       #196
      01005C29H   LINE      CODE     ---       #197
      ---         BLOCKEND  ---      ---       LVL=0

      0100881BH   BLOCK     CODE     ---       LVL=0
      0100881BH   LINE      CODE     ---       #200
      0100881BH   LINE      CODE     ---       #201
      0100881BH   LINE      CODE     ---       #202
      0100881DH   LINE      CODE     ---       #203
      ---         BLOCKEND  ---      ---       LVL=0

      010087BEH   BLOCK     CODE     ---       LVL=0
      00000020H.0 SYMBOL    BIT      BIT       enable
      010087BEH   LINE      CODE     ---       #205
      010087BEH   LINE      CODE     ---       #206
      010087BEH   LINE      CODE     ---       #207
      010087C2H   LINE      CODE     ---       #208
      ---         BLOCKEND  ---      ---       LVL=0

      01006A35H   BLOCK     CODE     ---       LVL=0
      01006A35H   LINE      CODE     ---       #210
      01006A35H   LINE      CODE     ---       #211
      01006A35H   LINE      CODE     ---       #212
      01006A3EH   LINE      CODE     ---       #213
      01006A43H   LINE      CODE     ---       #214
      01006A48H   LINE      CODE     ---       #215
      01006A4DH   LINE      CODE     ---       #216
      01006A52H   LINE      CODE     ---       #218
      01006A57H   LINE      CODE     ---       #219
      01006A60H   LINE      CODE     ---       #220
      01006A63H   LINE      CODE     ---       #221
      ---         BLOCKEND  ---      ---       LVL=0

      ---         MODULE    ---      ---       POWER
      00000024H.4 PUBLIC    BIT      BIT       powersave_flag
      01008827H   PUBLIC    CODE     ---       power_get_volume
      0100880EH   PUBLIC    CODE     ---       power_5v_get_enable
      00000020H.1 PUBLIC    BIT      BIT       ?power_5v_enable?BIT
      01007AFEH   PUBLIC    CODE     ---       power_5v_enable
      0100865DH   PUBLIC    CODE     ---       power_reset_powersave_to
      01008824H   PUBLIC    CODE     ---       power_clr_flag
      01008821H   PUBLIC    CODE     ---       power_set_flag
      0100881EH   PUBLIC    CODE     ---       power_test_flag
      01006BF5H   PUBLIC    CODE     ---       power_test_powersave_to
      0100739AH   PUBLIC    CODE     ---       power_inc_powersave_to
      01007DBCH   PUBLIC    CODE     ---       power_get_powersave_to
      01008776H   PUBLIC    CODE     ---       power_get_powersave_to_s
      01006BC5H   PUBLIC    CODE     ---       power_leave_powersave
      01005E59H   PUBLIC    CODE     ---       power_enter_powersave
      01007B9EH   PUBLIC    CODE     ---       _power_proc
      01006A68H   PUBLIC    CODE     ---       power_initialize
      00000080H   SFRSYM    DATA     BYTE      P0
      00000090H   SFRSYM    DATA     BYTE      P1
      000000A0H   SFRSYM    DATA     BYTE      P2
      000000B0H   SFRSYM    DATA     BYTE      P3
      000000C0H   SFRSYM    DATA     BYTE      XICON
      000000B0H.4 SFRSYM    DATA     BIT       T0
      000000D0H.6 SFRSYM    DATA     BIT       AC
      000000E8H   SFRSYM    DATA     BYTE      P4
      000000B0H.5 SFRSYM    DATA     BIT       T1
      000000E6H   SFRSYM    DATA     BYTE      ISP_TRIG
      00000090H.0 SFRSYM    DATA     BIT       T2
      000000A8H.7 SFRSYM    DATA     BIT       EA
      000000A8H.6 SFRSYM    DATA     BIT       EC
      00000098H.7 SFRSYM    DATA     BIT       FE
LX51 LINKER/LOCATER V4.66.87.0                                                        05/29/2018  21:11:03  PAGE 109


      000000A8H   SFRSYM    DATA     BYTE      IE
      000000C8H.6 SFRSYM    DATA     BIT       EXF2
      000000B0H.7 SFRSYM    DATA     BIT       RD
      000000A8H.4 SFRSYM    DATA     BIT       ES
      000000B8H   SFRSYM    DATA     BYTE      IP
      00000098H.0 SFRSYM    DATA     BIT       RI
      000000B0H.2 SFRSYM    DATA     BIT       INT0
      000000D0H.7 SFRSYM    DATA     BIT       CY
      00000098H.1 SFRSYM    DATA     BIT       TI
      000000B0H.3 SFRSYM    DATA     BIT       INT1
      000000CBH   SFRSYM    DATA     BYTE      RCAP2H
      000000E5H   SFRSYM    DATA     BYTE      ISP_CMD
      000000B8H.4 SFRSYM    DATA     BIT       PS
      00000081H   SFRSYM    DATA     BYTE      SP
      00000090H.1 SFRSYM    DATA     BIT       T2EX
      000000D0H.2 SFRSYM    DATA     BIT       OV
      000000CAH   SFRSYM    DATA     BYTE      RCAP2L
      000000C8H.1 SFRSYM    DATA     BIT       C_T2
      000000B0H.6 SFRSYM    DATA     BIT       WR
      000000C8H.5 SFRSYM    DATA     BIT       RCLK
      000000C8H.4 SFRSYM    DATA     BIT       TCLK
      00000080H.0 SFRSYM    DATA     BIT       P00
      00000099H   SFRSYM    DATA     BYTE      SBUF
      00000087H   SFRSYM    DATA     BYTE      PCON
      00000090H.0 SFRSYM    DATA     BIT       P10
      00000080H.1 SFRSYM    DATA     BIT       P01
      000000A0H.0 SFRSYM    DATA     BIT       P20
      00000090H.1 SFRSYM    DATA     BIT       P11
      00000080H.2 SFRSYM    DATA     BIT       P02
      000000E3H   SFRSYM    DATA     BYTE      ISP_ADDRH
      000000B0H.0 SFRSYM    DATA     BIT       P30
      000000A0H.1 SFRSYM    DATA     BIT       P21
      00000090H.2 SFRSYM    DATA     BIT       P12
      00000080H.3 SFRSYM    DATA     BIT       P03
      00000098H   SFRSYM    DATA     BYTE      SCON
      000000B0H.1 SFRSYM    DATA     BIT       P31
      000000A0H.2 SFRSYM    DATA     BIT       P22
      00000090H.3 SFRSYM    DATA     BIT       P13
      00000080H.4 SFRSYM    DATA     BIT       P04
      000000E8H.0 SFRSYM    DATA     BIT       P40
      00000089H   SFRSYM    DATA     BYTE      TMOD
      00000088H   SFRSYM    DATA     BYTE      TCON
      000000B0H.2 SFRSYM    DATA     BIT       P32
      000000A0H.3 SFRSYM    DATA     BIT       P23
      00000090H.4 SFRSYM    DATA     BIT       P14
      00000080H.5 SFRSYM    DATA     BIT       P05
      000000E8H.1 SFRSYM    DATA     BIT       P41
      000000B0H.3 SFRSYM    DATA     BIT       P33
      000000A0H.4 SFRSYM    DATA     BIT       P24
      00000090H.5 SFRSYM    DATA     BIT       P15
      00000080H.6 SFRSYM    DATA     BIT       P06
      000000E4H   SFRSYM    DATA     BYTE      ISP_ADDRL
      000000E8H.2 SFRSYM    DATA     BIT       P42
      000000B0H.4 SFRSYM    DATA     BIT       P34
      000000A0H.5 SFRSYM    DATA     BIT       P25
      00000090H.6 SFRSYM    DATA     BIT       P16
      00000080H.7 SFRSYM    DATA     BIT       P07
      000000E8H.3 SFRSYM    DATA     BIT       P43
      000000B0H.5 SFRSYM    DATA     BIT       P35
      000000A0H.6 SFRSYM    DATA     BIT       P26
      00000090H.7 SFRSYM    DATA     BIT       P17
      000000E8H.4 SFRSYM    DATA     BIT       P44
      000000B0H.6 SFRSYM    DATA     BIT       P36
      000000A0H.7 SFRSYM    DATA     BIT       P27
      000000E8H.5 SFRSYM    DATA     BIT       P45
LX51 LINKER/LOCATER V4.66.87.0                                                        05/29/2018  21:11:03  PAGE 110


      000000B0H.7 SFRSYM    DATA     BIT       P37
      000000E8H.6 SFRSYM    DATA     BIT       P46
      00000088H.1 SFRSYM    DATA     BIT       IE0
      00000088H.3 SFRSYM    DATA     BIT       IE1
      0000008EH   SFRSYM    DATA     BYTE      AUXR
      000000F0H   SFRSYM    DATA     BYTE      B
      000000C8H.0 SFRSYM    DATA     BIT       CP_RL2
      000000E0H   SFRSYM    DATA     BYTE      ACC
      000000A8H.1 SFRSYM    DATA     BIT       ET0
      000000A8H.3 SFRSYM    DATA     BIT       ET1
      00000088H.5 SFRSYM    DATA     BIT       TF0
      000000A8H.5 SFRSYM    DATA     BIT       ET2
      00000088H.7 SFRSYM    DATA     BIT       TF1
      000000C8H.7 SFRSYM    DATA     BIT       TF2
      00000098H.2 SFRSYM    DATA     BIT       RB8
      0000008CH   SFRSYM    DATA     BYTE      TH0
      000000A8H.0 SFRSYM    DATA     BIT       EX0
      00000088H.0 SFRSYM    DATA     BIT       IT0
      0000008DH   SFRSYM    DATA     BYTE      TH1
      00000098H.3 SFRSYM    DATA     BIT       TB8
      000000A8H.2 SFRSYM    DATA     BIT       EX1
      00000088H.2 SFRSYM    DATA     BIT       IT1
      000000CDH   SFRSYM    DATA     BYTE      TH2
      000000D0H.0 SFRSYM    DATA     BIT       P
      00000098H.7 SFRSYM    DATA     BIT       SM0
      0000008AH   SFRSYM    DATA     BYTE      TL0
      00000098H.6 SFRSYM    DATA     BIT       SM1
      0000008BH   SFRSYM    DATA     BYTE      TL1
      00000098H.5 SFRSYM    DATA     BIT       SM2
      000000CCH   SFRSYM    DATA     BYTE      TL2
      000000B8H.1 SFRSYM    DATA     BIT       PT0
      000000B8H.3 SFRSYM    DATA     BIT       PT1
      000000D0H.3 SFRSYM    DATA     BIT       RS0
      000000E7H   SFRSYM    DATA     BYTE      ISP_CONTR
      000000B8H.5 SFRSYM    DATA     BIT       PT2
      00000088H.4 SFRSYM    DATA     BIT       TR0
      000000D0H.4 SFRSYM    DATA     BIT       RS1
      00000088H.6 SFRSYM    DATA     BIT       TR1
      000000C8H.2 SFRSYM    DATA     BIT       TR2
      000000B8H.0 SFRSYM    DATA     BIT       PX0
      000000E1H   SFRSYM    DATA     BYTE      WDT_CONTR
      000000B8H.2 SFRSYM    DATA     BIT       PX1
      00000083H   SFRSYM    DATA     BYTE      DPH
      00000082H   SFRSYM    DATA     BYTE      DPL
      000000B7H   SFRSYM    DATA     BYTE      IPH
      000000C8H.3 SFRSYM    DATA     BIT       EXEN2
      00000098H.4 SFRSYM    DATA     BIT       REN
      000000C9H   SFRSYM    DATA     BYTE      T2MOD
      000000C8H   SFRSYM    DATA     BYTE      T2CON
      000000E2H   SFRSYM    DATA     BYTE      ISP_DATA
      000000B9H   SFRSYM    DATA     BYTE      SADEN
      000000B0H.6 SFRSYM    DATA     BIT       POWER_5V_EN
      000000B0H.0 SFRSYM    DATA     BIT       RXD
      000000A9H   SFRSYM    DATA     BYTE      SADDR
      000000B0H.1 SFRSYM    DATA     BIT       TXD
      000000A2H   SFRSYM    DATA     BYTE      AUXR1
      000000D0H.5 SFRSYM    DATA     BIT       F0
      000000D0H   SFRSYM    DATA     BYTE      PSW
      020000E0H   SYMBOL    XDATA    BYTE      last_ps_s
      020000E1H   SYMBOL    XDATA    BYTE      powersave_to_s

      01006A68H   BLOCK     CODE     ---       LVL=0
      01006A68H   BLOCK     CODE     NEAR LAB  LVL=1
      00000007H   SYMBOL    DATA     BYTE      powersave_to
      ---         BLOCKEND  ---      ---       LVL=1
LX51 LINKER/LOCATER V4.66.87.0                                                        05/29/2018  21:11:03  PAGE 111


      01006A68H   LINE      CODE     ---       #31
      01006A68H   LINE      CODE     ---       #32
      01006A68H   LINE      CODE     ---       #34
      01006A71H   LINE      CODE     ---       #35
      01006A76H   LINE      CODE     ---       #36
      01006A81H   LINE      CODE     ---       #37
      01006A88H   LINE      CODE     ---       #38
      01006A90H   LINE      CODE     ---       #39
      01006A96H   LINE      CODE     ---       #40
      01006A96H   LINE      CODE     ---       #41
      01006A98H   LINE      CODE     ---       #42
      01006A9AH   LINE      CODE     ---       #43
      ---         BLOCKEND  ---      ---       LVL=0

      01007B9EH   BLOCK     CODE     ---       LVL=0
      0200000CH   SYMBOL    XDATA    BYTE      ev
      01007B9EH   LINE      CODE     ---       #45
      01007BA3H   LINE      CODE     ---       #46
      01007BA3H   LINE      CODE     ---       #47
      01007BB0H   LINE      CODE     ---       #48
      ---         BLOCKEND  ---      ---       LVL=0

      01005E59H   BLOCK     CODE     ---       LVL=0
      01005E59H   LINE      CODE     ---       #51
      01005E59H   LINE      CODE     ---       #52
      01005E59H   LINE      CODE     ---       #53
      01005E62H   LINE      CODE     ---       #54
      01005E65H   LINE      CODE     ---       #55
      01005E68H   LINE      CODE     ---       #56
      01005E6BH   LINE      CODE     ---       #57
      01005E6EH   LINE      CODE     ---       #58
      01005E71H   LINE      CODE     ---       #59
      01005E74H   LINE      CODE     ---       #60
      01005E77H   LINE      CODE     ---       #61
      01005E7AH   LINE      CODE     ---       #62
      01005E7DH   LINE      CODE     ---       #63
      01005E80H   LINE      CODE     ---       #64
      01005E83H   LINE      CODE     ---       #65
      01005E86H   LINE      CODE     ---       #66
      01005E89H   LINE      CODE     ---       #67
      01005E8CH   LINE      CODE     ---       #68
      01005E91H   LINE      CODE     ---       #70
      01005E94H   LINE      CODE     ---       #74
      01005E97H   LINE      CODE     ---       #75
      01005E9CH   LINE      CODE     ---       #76
      01005E9FH   LINE      CODE     ---       #77
      01005EA4H   LINE      CODE     ---       #78
      01005EA4H   LINE      CODE     ---       #79
      01005EA4H   LINE      CODE     ---       #80
      01005EA4H   LINE      CODE     ---       #81
      ---         BLOCKEND  ---      ---       LVL=0

      01006BC5H   BLOCK     CODE     ---       LVL=0
      01006BC5H   LINE      CODE     ---       #83
      01006BC5H   LINE      CODE     ---       #84
      01006BC5H   LINE      CODE     ---       #86
      01006BC8H   LINE      CODE     ---       #87
      01006BCBH   LINE      CODE     ---       #88
      01006BCEH   LINE      CODE     ---       #89
      01006BD1H   LINE      CODE     ---       #90
      01006BD4H   LINE      CODE     ---       #91
      01006BD7H   LINE      CODE     ---       #92
      01006BDAH   LINE      CODE     ---       #93
      01006BDDH   LINE      CODE     ---       #94
      01006BE0H   LINE      CODE     ---       #95
LX51 LINKER/LOCATER V4.66.87.0                                                        05/29/2018  21:11:03  PAGE 112


      01006BE3H   LINE      CODE     ---       #96
      01006BE6H   LINE      CODE     ---       #97
      01006BE9H   LINE      CODE     ---       #98
      01006BECH   LINE      CODE     ---       #99
      ---         BLOCKEND  ---      ---       LVL=0

      01008776H   BLOCK     CODE     ---       LVL=0
      01008776H   LINE      CODE     ---       #102
      01008776H   LINE      CODE     ---       #103
      01008776H   LINE      CODE     ---       #104
      0100877BH   LINE      CODE     ---       #105
      ---         BLOCKEND  ---      ---       LVL=0

      01007DBCH   BLOCK     CODE     ---       LVL=0
      01007DBCH   LINE      CODE     ---       #107
      01007DBCH   LINE      CODE     ---       #108
      01007DBCH   LINE      CODE     ---       #109
      01007DCAH   LINE      CODE     ---       #110
      01007DCDH   LINE      CODE     ---       #111
      01007DD0H   LINE      CODE     ---       #112
      01007DD3H   LINE      CODE     ---       #113
      ---         BLOCKEND  ---      ---       LVL=0

      0100739AH   BLOCK     CODE     ---       LVL=0
      0100739AH   LINE      CODE     ---       #117
      0100739AH   LINE      CODE     ---       #118
      0100739AH   LINE      CODE     ---       #119
      010073AAH   LINE      CODE     ---       #120
      010073AAH   LINE      CODE     ---       #121
      010073B1H   LINE      CODE     ---       #122
      010073B1H   LINE      CODE     ---       #123
      010073B8H   LINE      CODE     ---       #124
      010073B8H   LINE      CODE     ---       #125
      010073BDH   LINE      CODE     ---       #126
      010073BDH   LINE      CODE     ---       #127
      ---         BLOCKEND  ---      ---       LVL=0

      01006BF5H   BLOCK     CODE     ---       LVL=0
      01006BF5H   LINE      CODE     ---       #129
      01006BF5H   LINE      CODE     ---       #130
      01006BF5H   LINE      CODE     ---       #132
      01006C0FH   LINE      CODE     ---       #133
      01006C18H   LINE      CODE     ---       #134
      01006C21H   LINE      CODE     ---       #135
      01006C23H   LINE      CODE     ---       #136
      01006C23H   LINE      CODE     ---       #137
      01006C24H   LINE      CODE     ---       #138
      ---         BLOCKEND  ---      ---       LVL=0

      0100881EH   BLOCK     CODE     ---       LVL=0
      0100881EH   LINE      CODE     ---       #140
      0100881EH   LINE      CODE     ---       #141
      0100881EH   LINE      CODE     ---       #142
      01008820H   LINE      CODE     ---       #143
      ---         BLOCKEND  ---      ---       LVL=0

      01008821H   BLOCK     CODE     ---       LVL=0
      01008821H   LINE      CODE     ---       #145
      01008821H   LINE      CODE     ---       #146
      01008821H   LINE      CODE     ---       #147
      01008823H   LINE      CODE     ---       #148
      ---         BLOCKEND  ---      ---       LVL=0

      01008824H   BLOCK     CODE     ---       LVL=0
      01008824H   LINE      CODE     ---       #150
LX51 LINKER/LOCATER V4.66.87.0                                                        05/29/2018  21:11:03  PAGE 113


      01008824H   LINE      CODE     ---       #151
      01008824H   LINE      CODE     ---       #152
      01008826H   LINE      CODE     ---       #153
      ---         BLOCKEND  ---      ---       LVL=0

      0100865DH   BLOCK     CODE     ---       LVL=0
      0100865DH   LINE      CODE     ---       #155
      0100865DH   LINE      CODE     ---       #156
      0100865DH   LINE      CODE     ---       #157
      01008665H   LINE      CODE     ---       #158
      ---         BLOCKEND  ---      ---       LVL=0

      01007AFEH   BLOCK     CODE     ---       LVL=0
      00000020H.1 SYMBOL    BIT      BIT       enable
      01007AFEH   LINE      CODE     ---       #160
      01007AFEH   LINE      CODE     ---       #161
      01007AFEH   LINE      CODE     ---       #162
      01007B13H   LINE      CODE     ---       #164
      01007B18H   LINE      CODE     ---       #165
      ---         BLOCKEND  ---      ---       LVL=0

      0100880EH   BLOCK     CODE     ---       LVL=0
      0100880EH   LINE      CODE     ---       #167
      0100880EH   LINE      CODE     ---       #168
      0100880EH   LINE      CODE     ---       #169
      01008811H   LINE      CODE     ---       #170
      ---         BLOCKEND  ---      ---       LVL=0

      01008827H   BLOCK     CODE     ---       LVL=0
      01008827H   LINE      CODE     ---       #173
      01008827H   LINE      CODE     ---       #174
      01008827H   LINE      CODE     ---       #176
      01008829H   LINE      CODE     ---       #181
      ---         BLOCKEND  ---      ---       LVL=0

      ---         MODULE    ---      ---       MISC
      01008440H   PUBLIC    CODE     ---       _delay_ms
      01008432H   PUBLIC    CODE     ---       _delay_10us
      0100877CH   SYMBOL    CODE     ---       internal_delay_10us
      010085FEH   SYMBOL    CODE     ---       internal_delay_ms

      0100877CH   BLOCK     CODE     ---       LVL=0
      0100877CH   BLOCK     CODE     NEAR LAB  LVL=1
      00000007H   SYMBOL    DATA     BYTE      i
      ---         BLOCKEND  ---      ---       LVL=1
      0100877CH   LINE      CODE     ---       #7
      0100877CH   LINE      CODE     ---       #8
      0100877CH   LINE      CODE     ---       #11
      0100877DH   LINE      CODE     ---       #12
      0100877FH   LINE      CODE     ---       #13
      01008781H   LINE      CODE     ---       #14
      ---         BLOCKEND  ---      ---       LVL=0

      010085FEH   BLOCK     CODE     ---       LVL=0
      010085FEH   BLOCK     CODE     NEAR LAB  LVL=1
      00000007H   SYMBOL    DATA     BYTE      i
      00000006H   SYMBOL    DATA     BYTE      j
      ---         BLOCKEND  ---      ---       LVL=1
      010085FEH   LINE      CODE     ---       #16
      010085FEH   LINE      CODE     ---       #17
      010085FEH   LINE      CODE     ---       #20
      010085FFH   LINE      CODE     ---       #21
      01008601H   LINE      CODE     ---       #22
      01008603H   LINE      CODE     ---       #24
      01008603H   LINE      CODE     ---       #25
LX51 LINKER/LOCATER V4.66.87.0                                                        05/29/2018  21:11:03  PAGE 114


      01008605H   LINE      CODE     ---       #26
      01008607H   LINE      CODE     ---       #27
      ---         BLOCKEND  ---      ---       LVL=0

      01008432H   BLOCK     CODE     ---       LVL=0
      00000006H   SYMBOL    DATA     BYTE      t
      01008432H   LINE      CODE     ---       #53
      01008434H   LINE      CODE     ---       #54
      01008434H   LINE      CODE     ---       #55
      0100843AH   LINE      CODE     ---       #56
      0100843DH   LINE      CODE     ---       #57
      0100843FH   LINE      CODE     ---       #58
      ---         BLOCKEND  ---      ---       LVL=0

      01008440H   BLOCK     CODE     ---       LVL=0
      00000005H   SYMBOL    DATA     BYTE      t
      01008440H   LINE      CODE     ---       #60
      01008442H   LINE      CODE     ---       #61
      01008442H   LINE      CODE     ---       #62
      01008448H   LINE      CODE     ---       #63
      0100844BH   LINE      CODE     ---       #64
      0100844DH   LINE      CODE     ---       #65
      ---         BLOCKEND  ---      ---       LVL=0

      ---         MODULE    ---      ---       MOD_COMMON
      00000022H.6 PUBLIC    BIT      BIT       lpress_lock_day_sec
      020000DAH   PUBLIC    XDATA    BYTE      last_display_s
      00000022H.5 PUBLIC    BIT      BIT       lpress_lock_year_hour
      00000022H.4 PUBLIC    BIT      BIT       lpress_lock_month_min
      020000D9H   PUBLIC    XDATA    BYTE      lpress_start
      020000D8H   PUBLIC    XDATA    BYTE      common_state
      010050DFH   PUBLIC    CODE     ---       _display_logo

      010050DFH   BLOCK     CODE     ---       LVL=0
      02000012H   SYMBOL    XDATA    BYTE      type
      02000013H   SYMBOL    XDATA    BYTE      num
      010050DFH   LINE      CODE     ---       #16
      010050E7H   LINE      CODE     ---       #17
      010050E7H   LINE      CODE     ---       #18
      010050F8H   LINE      CODE     ---       #20
      010050FBH   LINE      CODE     ---       #22
      0100510CH   LINE      CODE     ---       #23
      0100510CH   LINE      CODE     ---       #24
      0100510EH   LINE      CODE     ---       #25
      01005110H   LINE      CODE     ---       #26
      01005110H   LINE      CODE     ---       #27
      01005112H   LINE      CODE     ---       #28
      01005114H   LINE      CODE     ---       #29
      01005114H   LINE      CODE     ---       #30
      01005116H   LINE      CODE     ---       #31
      01005118H   LINE      CODE     ---       #32
      01005118H   LINE      CODE     ---       #33
      0100511FH   LINE      CODE     ---       #34
      0100511FH   LINE      CODE     ---       #35
      0100511FH   LINE      CODE     ---       #36
      0100512FH   LINE      CODE     ---       #37
      01005141H   LINE      CODE     ---       #38
      ---         BLOCKEND  ---      ---       LVL=0

      ---         MODULE    ---      ---       BEEPER
      0100882DH   PUBLIC    CODE     ---       beeper_stop_music
      01007520H   PUBLIC    CODE     ---       beeper_play_music
      01006247H   PUBLIC    CODE     ---       beeper_beep_beep
      01006349H   PUBLIC    CODE     ---       beeper_beep_beep_always
      0100700DH   PUBLIC    CODE     ---       beeper_beep
LX51 LINKER/LOCATER V4.66.87.0                                                        05/29/2018  21:11:03  PAGE 115


      01008788H   PUBLIC    CODE     ---       beeper_get_music_index
      01007DD3H   PUBLIC    CODE     ---       beeper_inc_music_index
      01008059H   PUBLIC    CODE     ---       beeper_inc_music_to
      01008782H   PUBLIC    CODE     ---       beeper_get_music_to
      00000020H.0 PUBLIC    BIT      BIT       ?beeper_set_beep_enable?BIT
      010087C3H   PUBLIC    CODE     ---       beeper_set_beep_enable
      0100882AH   PUBLIC    CODE     ---       beeper_get_beep_enable
      0100866FH   PUBLIC    CODE     ---       beeper_leave_powersave
      01008666H   PUBLIC    CODE     ---       beeper_enter_powersave
      01006204H   PUBLIC    CODE     ---       beeper_initialize
      00000080H   SFRSYM    DATA     BYTE      P0
      00000090H   SFRSYM    DATA     BYTE      P1
      000000A0H   SFRSYM    DATA     BYTE      P2
      000000B0H   SFRSYM    DATA     BYTE      P3
      000000C0H   SFRSYM    DATA     BYTE      XICON
      000000B0H.4 SFRSYM    DATA     BIT       T0
      000000D0H.6 SFRSYM    DATA     BIT       AC
      000000E8H   SFRSYM    DATA     BYTE      P4
      000000B0H.5 SFRSYM    DATA     BIT       T1
      000000E6H   SFRSYM    DATA     BYTE      ISP_TRIG
      00000090H.0 SFRSYM    DATA     BIT       T2
      000000A8H.7 SFRSYM    DATA     BIT       EA
      000000A8H.6 SFRSYM    DATA     BIT       EC
      00000098H.7 SFRSYM    DATA     BIT       FE
      000000A8H   SFRSYM    DATA     BYTE      IE
      000000C8H.6 SFRSYM    DATA     BIT       EXF2
      000000B0H.7 SFRSYM    DATA     BIT       RD
      000000A8H.4 SFRSYM    DATA     BIT       ES
      000000B8H   SFRSYM    DATA     BYTE      IP
      00000098H.0 SFRSYM    DATA     BIT       RI
      000000B0H.2 SFRSYM    DATA     BIT       INT0
      000000D0H.7 SFRSYM    DATA     BIT       CY
      00000098H.1 SFRSYM    DATA     BIT       TI
      000000B0H.3 SFRSYM    DATA     BIT       INT1
      000000CBH   SFRSYM    DATA     BYTE      RCAP2H
      000000E5H   SFRSYM    DATA     BYTE      ISP_CMD
      000000B8H.4 SFRSYM    DATA     BIT       PS
      00000081H   SFRSYM    DATA     BYTE      SP
      00000090H.1 SFRSYM    DATA     BIT       T2EX
      000000D0H.2 SFRSYM    DATA     BIT       OV
      000000CAH   SFRSYM    DATA     BYTE      RCAP2L
      000000C8H.1 SFRSYM    DATA     BIT       C_T2
      000000B0H.6 SFRSYM    DATA     BIT       WR
      000000C8H.5 SFRSYM    DATA     BIT       RCLK
      000000C8H.4 SFRSYM    DATA     BIT       TCLK
      00000080H.0 SFRSYM    DATA     BIT       P00
      00000090H.0 SFRSYM    DATA     BIT       beeper_out
      00000099H   SFRSYM    DATA     BYTE      SBUF
      00000087H   SFRSYM    DATA     BYTE      PCON
      00000090H.0 SFRSYM    DATA     BIT       P10
      00000080H.1 SFRSYM    DATA     BIT       P01
      000000A0H.0 SFRSYM    DATA     BIT       P20
      00000090H.1 SFRSYM    DATA     BIT       P11
      00000080H.2 SFRSYM    DATA     BIT       P02
      000000E3H   SFRSYM    DATA     BYTE      ISP_ADDRH
      000000B0H.0 SFRSYM    DATA     BIT       P30
      000000A0H.1 SFRSYM    DATA     BIT       P21
      00000090H.2 SFRSYM    DATA     BIT       P12
      00000080H.3 SFRSYM    DATA     BIT       P03
      00000098H   SFRSYM    DATA     BYTE      SCON
      000000B0H.1 SFRSYM    DATA     BIT       P31
      000000A0H.2 SFRSYM    DATA     BIT       P22
      00000090H.3 SFRSYM    DATA     BIT       P13
      00000080H.4 SFRSYM    DATA     BIT       P04
      000000E8H.0 SFRSYM    DATA     BIT       P40
LX51 LINKER/LOCATER V4.66.87.0                                                        05/29/2018  21:11:03  PAGE 116


      00000089H   SFRSYM    DATA     BYTE      TMOD
      00000088H   SFRSYM    DATA     BYTE      TCON
      000000B0H.2 SFRSYM    DATA     BIT       P32
      000000A0H.3 SFRSYM    DATA     BIT       P23
      00000090H.4 SFRSYM    DATA     BIT       P14
      00000080H.5 SFRSYM    DATA     BIT       P05
      000000E8H.1 SFRSYM    DATA     BIT       P41
      000000B0H.3 SFRSYM    DATA     BIT       P33
      000000A0H.4 SFRSYM    DATA     BIT       P24
      00000090H.5 SFRSYM    DATA     BIT       P15
      00000080H.6 SFRSYM    DATA     BIT       P06
      000000E4H   SFRSYM    DATA     BYTE      ISP_ADDRL
      000000E8H.2 SFRSYM    DATA     BIT       P42
      000000B0H.4 SFRSYM    DATA     BIT       P34
      000000A0H.5 SFRSYM    DATA     BIT       P25
      00000090H.6 SFRSYM    DATA     BIT       P16
      00000080H.7 SFRSYM    DATA     BIT       P07
      000000E8H.3 SFRSYM    DATA     BIT       P43
      000000B0H.5 SFRSYM    DATA     BIT       P35
      000000A0H.6 SFRSYM    DATA     BIT       P26
      00000090H.7 SFRSYM    DATA     BIT       P17
      000000E8H.4 SFRSYM    DATA     BIT       P44
      000000B0H.6 SFRSYM    DATA     BIT       P36
      000000A0H.7 SFRSYM    DATA     BIT       P27
      000000E8H.5 SFRSYM    DATA     BIT       P45
      000000B0H.7 SFRSYM    DATA     BIT       P37
      000000E8H.6 SFRSYM    DATA     BIT       P46
      00000088H.1 SFRSYM    DATA     BIT       IE0
      00000088H.3 SFRSYM    DATA     BIT       IE1
      0000008EH   SFRSYM    DATA     BYTE      AUXR
      000000F0H   SFRSYM    DATA     BYTE      B
      000000C8H.0 SFRSYM    DATA     BIT       CP_RL2
      000000E0H   SFRSYM    DATA     BYTE      ACC
      000000A8H.1 SFRSYM    DATA     BIT       ET0
      000000A8H.3 SFRSYM    DATA     BIT       ET1
      00000088H.5 SFRSYM    DATA     BIT       TF0
      000000A8H.5 SFRSYM    DATA     BIT       ET2
      00000088H.7 SFRSYM    DATA     BIT       TF1
      000000C8H.7 SFRSYM    DATA     BIT       TF2
      00000098H.2 SFRSYM    DATA     BIT       RB8
      0000008CH   SFRSYM    DATA     BYTE      TH0
      000000A8H.0 SFRSYM    DATA     BIT       EX0
      00000088H.0 SFRSYM    DATA     BIT       IT0
      0000008DH   SFRSYM    DATA     BYTE      TH1
      00000098H.3 SFRSYM    DATA     BIT       TB8
      000000A8H.2 SFRSYM    DATA     BIT       EX1
      00000088H.2 SFRSYM    DATA     BIT       IT1
      000000CDH   SFRSYM    DATA     BYTE      TH2
      000000D0H.0 SFRSYM    DATA     BIT       P
      00000098H.7 SFRSYM    DATA     BIT       SM0
      0000008AH   SFRSYM    DATA     BYTE      TL0
      00000098H.6 SFRSYM    DATA     BIT       SM1
      0000008BH   SFRSYM    DATA     BYTE      TL1
      00000098H.5 SFRSYM    DATA     BIT       SM2
      000000CCH   SFRSYM    DATA     BYTE      TL2
      000000B8H.1 SFRSYM    DATA     BIT       PT0
      000000B8H.3 SFRSYM    DATA     BIT       PT1
      000000D0H.3 SFRSYM    DATA     BIT       RS0
      000000E7H   SFRSYM    DATA     BYTE      ISP_CONTR
      000000B8H.5 SFRSYM    DATA     BIT       PT2
      00000088H.4 SFRSYM    DATA     BIT       TR0
      000000D0H.4 SFRSYM    DATA     BIT       RS1
      00000088H.6 SFRSYM    DATA     BIT       TR1
      000000C8H.2 SFRSYM    DATA     BIT       TR2
      000000B8H.0 SFRSYM    DATA     BIT       PX0
LX51 LINKER/LOCATER V4.66.87.0                                                        05/29/2018  21:11:03  PAGE 117


      000000E1H   SFRSYM    DATA     BYTE      WDT_CONTR
      000000B8H.2 SFRSYM    DATA     BIT       PX1
      00000083H   SFRSYM    DATA     BYTE      DPH
      00000082H   SFRSYM    DATA     BYTE      DPL
      000000B7H   SFRSYM    DATA     BYTE      IPH
      000000C8H.3 SFRSYM    DATA     BIT       EXEN2
      00000098H.4 SFRSYM    DATA     BIT       REN
      000000C9H   SFRSYM    DATA     BYTE      T2MOD
      000000C8H   SFRSYM    DATA     BYTE      T2CON
      000000E2H   SFRSYM    DATA     BYTE      ISP_DATA
      000000B9H   SFRSYM    DATA     BYTE      SADEN
      000000B0H.0 SFRSYM    DATA     BIT       RXD
      000000A9H   SFRSYM    DATA     BYTE      SADDR
      000000B0H.1 SFRSYM    DATA     BIT       TXD
      000000A2H   SFRSYM    DATA     BYTE      AUXR1
      000000D0H.5 SFRSYM    DATA     BIT       F0
      000000D0H   SFRSYM    DATA     BYTE      PSW
      0100A23BH   SYMBOL    CONST    ---       music_table
      0100844EH   SYMBOL    CODE     ---       _beeper_stop_play
      00000024H.0 SYMBOL    BIT      BIT       beeper_stop
      020000DBH   SYMBOL    XDATA    BYTE      pai
      020000DCH   SYMBOL    XDATA    BYTE      beeper_music_to
      01009FA3H   SYMBOL    CONST    ---       music_table0
      0100A065H   SYMBOL    CONST    ---       music_table1
      0100A13FH   SYMBOL    CONST    ---       music_table2
      0100A1F7H   SYMBOL    CONST    ---       music_table3
      01006E29H   SYMBOL    CODE     ---       beeper_ISR
      01003C20H   SYMBOL    CODE     ---       __beepler_play
      00000024H.1 SYMBOL    BIT      BIT       beep_enable
      020000DDH   SYMBOL    XDATA    BYTE      beeper_music_index

      01007B19H   BLOCK     CODE     ---       LVL=0
      ---         BLOCKEND  ---      ---       LVL=0

      01006E29H   BLOCK     CODE     ---       LVL=0
      01006E29H   LINE      CODE     ---       #115
      01006E38H   LINE      CODE     ---       #118
      01006E41H   LINE      CODE     ---       #119
      01006E44H   LINE      CODE     ---       #120
      01006E46H   LINE      CODE     ---       #121
      ---         BLOCKEND  ---      ---       LVL=0

      01006204H   BLOCK     CODE     ---       LVL=0
      01006204H   LINE      CODE     ---       #124
      01006204H   LINE      CODE     ---       #125
      01006204H   LINE      CODE     ---       #126
      0100620DH   LINE      CODE     ---       #133
      01006210H   LINE      CODE     ---       #137
      01006213H   LINE      CODE     ---       #138
      01006216H   LINE      CODE     ---       #139
      01006219H   LINE      CODE     ---       #140
      0100621CH   LINE      CODE     ---       #149
      0100621EH   LINE      CODE     ---       #151
      01006220H   LINE      CODE     ---       #153
      01006222H   LINE      CODE     ---       #155
      0100622EH   LINE      CODE     ---       #156
      01006230H   LINE      CODE     ---       #157
      0100623AH   LINE      CODE     ---       #158
      01006244H   LINE      CODE     ---       #159
      01006246H   LINE      CODE     ---       #160
      ---         BLOCKEND  ---      ---       LVL=0

      01008666H   BLOCK     CODE     ---       LVL=0
      01008666H   LINE      CODE     ---       #162
      01008666H   LINE      CODE     ---       #163
LX51 LINKER/LOCATER V4.66.87.0                                                        05/29/2018  21:11:03  PAGE 118


      01008666H   LINE      CODE     ---       #164
      ---         BLOCKEND  ---      ---       LVL=0

      0100866FH   BLOCK     CODE     ---       LVL=0
      0100866FH   LINE      CODE     ---       #167
      0100866FH   LINE      CODE     ---       #168
      0100866FH   LINE      CODE     ---       #169
      ---         BLOCKEND  ---      ---       LVL=0

      0100882AH   BLOCK     CODE     ---       LVL=0
      0100882AH   LINE      CODE     ---       #172
      0100882AH   LINE      CODE     ---       #173
      0100882AH   LINE      CODE     ---       #174
      0100882CH   LINE      CODE     ---       #175
      ---         BLOCKEND  ---      ---       LVL=0

      010087C3H   BLOCK     CODE     ---       LVL=0
      00000020H.0 SYMBOL    BIT      BIT       enable
      010087C3H   LINE      CODE     ---       #177
      010087C3H   LINE      CODE     ---       #178
      010087C3H   LINE      CODE     ---       #179
      010087C7H   LINE      CODE     ---       #180
      ---         BLOCKEND  ---      ---       LVL=0

      01008782H   BLOCK     CODE     ---       LVL=0
      01008782H   LINE      CODE     ---       #182
      01008782H   LINE      CODE     ---       #183
      01008782H   LINE      CODE     ---       #184
      01008787H   LINE      CODE     ---       #185
      ---         BLOCKEND  ---      ---       LVL=0

      01008059H   BLOCK     CODE     ---       LVL=0
      01008059H   LINE      CODE     ---       #188
      01008059H   LINE      CODE     ---       #189
      01008059H   LINE      CODE     ---       #190
      0100806CH   LINE      CODE     ---       #191
      ---         BLOCKEND  ---      ---       LVL=0

      01007DD3H   BLOCK     CODE     ---       LVL=0
      01007DD3H   LINE      CODE     ---       #193
      01007DD3H   LINE      CODE     ---       #194
      01007DD3H   LINE      CODE     ---       #195
      01007DDCH   LINE      CODE     ---       #196
      ---         BLOCKEND  ---      ---       LVL=0

      01008788H   BLOCK     CODE     ---       LVL=0
      01008788H   LINE      CODE     ---       #199
      01008788H   LINE      CODE     ---       #200
      01008788H   LINE      CODE     ---       #201
      0100878DH   LINE      CODE     ---       #202
      ---         BLOCKEND  ---      ---       LVL=0

      0100844EH   BLOCK     CODE     ---       LVL=0
      0100844EH   LINE      CODE     ---       #204
      0100844EH   LINE      CODE     ---       #205
      0100844EH   LINE      CODE     ---       #206
      01008450H   LINE      CODE     ---       #207
      01008452H   LINE      CODE     ---       #208
      01008457H   LINE      CODE     ---       #209
      01008459H   LINE      CODE     ---       #210
      0100845BH   LINE      CODE     ---       #211
      ---         BLOCKEND  ---      ---       LVL=0

      01003C20H   BLOCK     CODE     ---       LVL=0
      02000013H   SYMBOL    XDATA    ---       music
LX51 LINKER/LOCATER V4.66.87.0                                                        05/29/2018  21:11:03  PAGE 119


      00000020H.0 SYMBOL    BIT      BIT       once
      01003C26H   BLOCK     CODE     NEAR LAB  LVL=1
      02000016H   SYMBOL    XDATA    BYTE      cm
      02000017H   SYMBOL    XDATA    BYTE      tune
      02000018H   SYMBOL    XDATA    BYTE      start_s
      ---         BLOCKEND  ---      ---       LVL=1
      01003C20H   LINE      CODE     ---       #213
      01003C26H   LINE      CODE     ---       #214
      01003C26H   LINE      CODE     ---       #219
      01003C26H   LINE      CODE     ---       #220
      01003C26H   LINE      CODE     ---       #221
      01003C29H   LINE      CODE     ---       #222
      01003C2BH   LINE      CODE     ---       #223
      01003C31H   LINE      CODE     ---       #225
      01003C34H   LINE      CODE     ---       #226
      01003C34H   LINE      CODE     ---       #227
      01003C49H   LINE      CODE     ---       #228
      01003C49H   LINE      CODE     ---       #229
      01003C49H   LINE      CODE     ---       #230
      01003C49H   LINE      CODE     ---       #231
      01003C4CH   LINE      CODE     ---       #232
      01003C4FH   LINE      CODE     ---       #233
      01003C52H   LINE      CODE     ---       #234
      01003C54H   LINE      CODE     ---       #235
      01003C54H   LINE      CODE     ---       #237
      01003C59H   LINE      CODE     ---       #238
      01003C59H   LINE      CODE     ---       #239
      01003C5BH   LINE      CODE     ---       #240
      01003C5BH   LINE      CODE     ---       #241
      01003C5BH   LINE      CODE     ---       #242
      01003C5BH   LINE      CODE     ---       #243
      01003C60H   LINE      CODE     ---       #244
      01003C63H   LINE      CODE     ---       #245
      01003C63H   LINE      CODE     ---       #246
      01003C63H   LINE      CODE     ---       #247
      01003C6AH   LINE      CODE     ---       #248
      01003C6FH   LINE      CODE     ---       #249
      01003C71H   LINE      CODE     ---       #250
      01003C71H   LINE      CODE     ---       #251
      01003C7EH   LINE      CODE     ---       #252
      01003C85H   LINE      CODE     ---       #253
      01003C87H   LINE      CODE     ---       #254
      01003C89H   LINE      CODE     ---       #255
      01003C8BH   LINE      CODE     ---       #256
      01003C94H   LINE      CODE     ---       #257
      01003C96H   LINE      CODE     ---       #258
      01003CA0H   LINE      CODE     ---       #259
      01003CA2H   LINE      CODE     ---       #260
      01003CA4H   LINE      CODE     ---       #261
      01003CA4H   LINE      CODE     ---       #262
      01003CA6H   LINE      CODE     ---       #263
      01003CA9H   LINE      CODE     ---       #264
      01003CAAH   LINE      CODE     ---       #265
      ---         BLOCKEND  ---      ---       LVL=0

      0100700DH   BLOCK     CODE     ---       LVL=0
      0100700DH   BLOCK     CODE     NEAR LAB  LVL=1
      0200000DH   SYMBOL    XDATA    BYTE      c
      ---         BLOCKEND  ---      ---       LVL=1
      0100700DH   LINE      CODE     ---       #267
      0100700DH   LINE      CODE     ---       #268
      0100700DH   LINE      CODE     ---       #269
      01007013H   LINE      CODE     ---       #270
      0100701CH   LINE      CODE     ---       #271
      0100701FH   LINE      CODE     ---       #273
LX51 LINKER/LOCATER V4.66.87.0                                                        05/29/2018  21:11:03  PAGE 120


      01007021H   LINE      CODE     ---       #274
      0100702BH   LINE      CODE     ---       #275
      0100702DH   LINE      CODE     ---       #276
      01007032H   LINE      CODE     ---       #277
      01007034H   LINE      CODE     ---       #278
      01007036H   LINE      CODE     ---       #279
      ---         BLOCKEND  ---      ---       LVL=0

      01006349H   BLOCK     CODE     ---       LVL=0
      01006349H   BLOCK     CODE     NEAR LAB  LVL=1
      02000014H   SYMBOL    XDATA    BYTE      c
      ---         BLOCKEND  ---      ---       LVL=1
      01006349H   LINE      CODE     ---       #281
      01006349H   LINE      CODE     ---       #282
      01006349H   LINE      CODE     ---       #283
      0100634FH   LINE      CODE     ---       #284
      01006358H   LINE      CODE     ---       #285
      0100635AH   LINE      CODE     ---       #286
      01006364H   LINE      CODE     ---       #287
      01006366H   LINE      CODE     ---       #288
      0100636BH   LINE      CODE     ---       #289
      0100636DH   LINE      CODE     ---       #291
      01006372H   LINE      CODE     ---       #293
      0100637CH   LINE      CODE     ---       #294
      0100637EH   LINE      CODE     ---       #295
      01006383H   LINE      CODE     ---       #296
      01006385H   LINE      CODE     ---       #297
      01006387H   LINE      CODE     ---       #298
      ---         BLOCKEND  ---      ---       LVL=0

      01006247H   BLOCK     CODE     ---       LVL=0
      01006247H   BLOCK     CODE     NEAR LAB  LVL=1
      0200000BH   SYMBOL    XDATA    BYTE      c
      ---         BLOCKEND  ---      ---       LVL=1
      01006247H   LINE      CODE     ---       #300
      01006247H   LINE      CODE     ---       #301
      01006247H   LINE      CODE     ---       #302
      0100624DH   LINE      CODE     ---       #303
      01006256H   LINE      CODE     ---       #304
      01006259H   LINE      CODE     ---       #306
      0100625BH   LINE      CODE     ---       #307
      01006265H   LINE      CODE     ---       #308
      01006267H   LINE      CODE     ---       #309
      0100626CH   LINE      CODE     ---       #310
      0100626EH   LINE      CODE     ---       #312
      01006273H   LINE      CODE     ---       #314
      0100627DH   LINE      CODE     ---       #315
      0100627FH   LINE      CODE     ---       #316
      01006284H   LINE      CODE     ---       #317
      01006286H   LINE      CODE     ---       #318
      01006288H   LINE      CODE     ---       #319
      ---         BLOCKEND  ---      ---       LVL=0

      01007520H   BLOCK     CODE     ---       LVL=0
      01007520H   LINE      CODE     ---       #321
      01007520H   LINE      CODE     ---       #322
      01007520H   LINE      CODE     ---       #324
      01007529H   LINE      CODE     ---       #325
      ---         BLOCKEND  ---      ---       LVL=0

      0100882DH   BLOCK     CODE     ---       LVL=0
      0100882DH   LINE      CODE     ---       #328
      0100882DH   LINE      CODE     ---       #329
      0100882DH   LINE      CODE     ---       #330
      ---         BLOCKEND  ---      ---       LVL=0
LX51 LINKER/LOCATER V4.66.87.0                                                        05/29/2018  21:11:03  PAGE 121



      ---         MODULE    ---      ---       CLOCK
      01007EF6H   PUBLIC    CODE     ---       clock_leave_shell
      01008833H   PUBLIC    CODE     ---       clock_enter_shell
      01007CD0H   PUBLIC    CODE     ---       clock_leave_powersave
      0100845CH   PUBLIC    CODE     ---       clock_enter_powersave
      01006E56H   PUBLIC    CODE     ---       clock_initialize
      00000020H.2 PUBLIC    BIT      BIT       ?clock_enable_interrupt?BIT
      01008678H   PUBLIC    CODE     ---       clock_enable_interrupt
      01007877H   PUBLIC    CODE     ---       _clock_get_mon_date
      01007DEAH   PUBLIC    CODE     ---       _clock_is_leap_year
      01004E02H   PUBLIC    CODE     ---       _clock_sync_to_rtc
      01005208H   PUBLIC    CODE     ---       _clock_sync_from_rtc
      01007F8DH   PUBLIC    CODE     ---       clock_inc_year
      010087F0H   PUBLIC    CODE     ---       clock_get_year
      01007EE0H   PUBLIC    CODE     ---       clock_inc_month
      010087A0H   PUBLIC    CODE     ---       clock_get_month
      0100879AH   PUBLIC    CODE     ---       clock_get_day
      0100766CH   PUBLIC    CODE     ---       clock_inc_date
      01008794H   PUBLIC    CODE     ---       clock_get_date
      0100857CH   PUBLIC    CODE     ---       clock_inc_hour
      010087EBH   PUBLIC    CODE     ---       clock_get_hour
      01008571H   PUBLIC    CODE     ---       clock_inc_min
      010087E6H   PUBLIC    CODE     ---       clock_get_min
      010087E1H   PUBLIC    CODE     ---       clock_clr_sec
      010087DCH   PUBLIC    CODE     ---       clock_get_sec
      010087D7H   PUBLIC    CODE     ---       clock_get_sec_256
      010087D2H   PUBLIC    CODE     ---       clock_get_ms39
      00000020H.0 PUBLIC    BIT      BIT       ?clock_set_hour_12?BIT
      010087CDH   PUBLIC    CODE     ---       clock_set_hour_12
      01008830H   PUBLIC    CODE     ---       clock_get_hour_12
      01002702H   PUBLIC    CODE     ---       _clock_yymmdd_to_day
      01003FC7H   PUBLIC    CODE     ---       clock_dump
      0100878EH   PUBLIC    CODE     ---       _clock_switch_display_mode
      00000020H.0 PUBLIC    BIT      BIT       ?clock_display?BIT
      010087C8H   PUBLIC    CODE     ---       clock_display
      00000080H   SFRSYM    DATA     BYTE      P0
      00000090H   SFRSYM    DATA     BYTE      P1
      000000A0H   SFRSYM    DATA     BYTE      P2
      000000B0H   SFRSYM    DATA     BYTE      P3
      000000C0H   SFRSYM    DATA     BYTE      XICON
      000000B0H.4 SFRSYM    DATA     BIT       T0
      000000D0H.6 SFRSYM    DATA     BIT       AC
      000000E8H   SFRSYM    DATA     BYTE      P4
      000000B0H.5 SFRSYM    DATA     BIT       T1
      000000E6H   SFRSYM    DATA     BYTE      ISP_TRIG
      00000090H.0 SFRSYM    DATA     BIT       T2
      000000A8H.7 SFRSYM    DATA     BIT       EA
      000000A8H.6 SFRSYM    DATA     BIT       EC
      00000098H.7 SFRSYM    DATA     BIT       FE
      000000A8H   SFRSYM    DATA     BYTE      IE
      000000C8H.6 SFRSYM    DATA     BIT       EXF2
      000000B0H.7 SFRSYM    DATA     BIT       RD
      000000A8H.4 SFRSYM    DATA     BIT       ES
      000000B8H   SFRSYM    DATA     BYTE      IP
      00000098H.0 SFRSYM    DATA     BIT       RI
      000000B0H.2 SFRSYM    DATA     BIT       INT0
      000000D0H.7 SFRSYM    DATA     BIT       CY
      00000098H.1 SFRSYM    DATA     BIT       TI
      000000B0H.3 SFRSYM    DATA     BIT       INT1
      000000CBH   SFRSYM    DATA     BYTE      RCAP2H
      000000E5H   SFRSYM    DATA     BYTE      ISP_CMD
      000000B8H.4 SFRSYM    DATA     BIT       PS
      00000081H   SFRSYM    DATA     BYTE      SP
      00000090H.1 SFRSYM    DATA     BIT       T2EX
LX51 LINKER/LOCATER V4.66.87.0                                                        05/29/2018  21:11:03  PAGE 122


      000000D0H.2 SFRSYM    DATA     BIT       OV
      000000CAH   SFRSYM    DATA     BYTE      RCAP2L
      000000C8H.1 SFRSYM    DATA     BIT       C_T2
      000000B0H.6 SFRSYM    DATA     BIT       WR
      000000C8H.5 SFRSYM    DATA     BIT       RCLK
      000000C8H.4 SFRSYM    DATA     BIT       TCLK
      00000080H.0 SFRSYM    DATA     BIT       P00
      00000099H   SFRSYM    DATA     BYTE      SBUF
      00000087H   SFRSYM    DATA     BYTE      PCON
      00000090H.0 SFRSYM    DATA     BIT       P10
      00000080H.1 SFRSYM    DATA     BIT       P01
      000000A0H.0 SFRSYM    DATA     BIT       P20
      00000090H.1 SFRSYM    DATA     BIT       P11
      00000080H.2 SFRSYM    DATA     BIT       P02
      000000E3H   SFRSYM    DATA     BYTE      ISP_ADDRH
      000000B0H.0 SFRSYM    DATA     BIT       P30
      000000A0H.1 SFRSYM    DATA     BIT       P21
      00000090H.2 SFRSYM    DATA     BIT       P12
      00000080H.3 SFRSYM    DATA     BIT       P03
      00000098H   SFRSYM    DATA     BYTE      SCON
      000000B0H.1 SFRSYM    DATA     BIT       P31
      000000A0H.2 SFRSYM    DATA     BIT       P22
      00000090H.3 SFRSYM    DATA     BIT       P13
      00000080H.4 SFRSYM    DATA     BIT       P04
      000000E8H.0 SFRSYM    DATA     BIT       P40
      00000089H   SFRSYM    DATA     BYTE      TMOD
      00000088H   SFRSYM    DATA     BYTE      TCON
      000000B0H.2 SFRSYM    DATA     BIT       P32
      000000A0H.3 SFRSYM    DATA     BIT       P23
      00000090H.4 SFRSYM    DATA     BIT       P14
      00000080H.5 SFRSYM    DATA     BIT       P05
      000000E8H.1 SFRSYM    DATA     BIT       P41
      000000B0H.3 SFRSYM    DATA     BIT       P33
      000000A0H.4 SFRSYM    DATA     BIT       P24
      00000090H.5 SFRSYM    DATA     BIT       P15
      00000080H.6 SFRSYM    DATA     BIT       P06
      000000E4H   SFRSYM    DATA     BYTE      ISP_ADDRL
      000000E8H.2 SFRSYM    DATA     BIT       P42
      000000B0H.4 SFRSYM    DATA     BIT       P34
      000000A0H.5 SFRSYM    DATA     BIT       P25
      00000090H.6 SFRSYM    DATA     BIT       P16
      00000080H.7 SFRSYM    DATA     BIT       P07
      000000E8H.3 SFRSYM    DATA     BIT       P43
      000000B0H.5 SFRSYM    DATA     BIT       P35
      000000A0H.6 SFRSYM    DATA     BIT       P26
      00000090H.7 SFRSYM    DATA     BIT       P17
      000000E8H.4 SFRSYM    DATA     BIT       P44
      000000B0H.6 SFRSYM    DATA     BIT       P36
      000000A0H.7 SFRSYM    DATA     BIT       P27
      000000E8H.5 SFRSYM    DATA     BIT       P45
      000000B0H.7 SFRSYM    DATA     BIT       P37
      000000E8H.6 SFRSYM    DATA     BIT       P46
      00000088H.1 SFRSYM    DATA     BIT       IE0
      00000088H.3 SFRSYM    DATA     BIT       IE1
      0000008EH   SFRSYM    DATA     BYTE      AUXR
      000000F0H   SFRSYM    DATA     BYTE      B
      000000C8H.0 SFRSYM    DATA     BIT       CP_RL2
      000000E0H   SFRSYM    DATA     BYTE      ACC
      000000A8H.1 SFRSYM    DATA     BIT       ET0
      000000A8H.3 SFRSYM    DATA     BIT       ET1
      00000088H.5 SFRSYM    DATA     BIT       TF0
      000000A8H.5 SFRSYM    DATA     BIT       ET2
      00000088H.7 SFRSYM    DATA     BIT       TF1
      000000C8H.7 SFRSYM    DATA     BIT       TF2
      00000098H.2 SFRSYM    DATA     BIT       RB8
LX51 LINKER/LOCATER V4.66.87.0                                                        05/29/2018  21:11:03  PAGE 123


      0000008CH   SFRSYM    DATA     BYTE      TH0
      000000A8H.0 SFRSYM    DATA     BIT       EX0
      00000088H.0 SFRSYM    DATA     BIT       IT0
      0000008DH   SFRSYM    DATA     BYTE      TH1
      00000098H.3 SFRSYM    DATA     BIT       TB8
      000000A8H.2 SFRSYM    DATA     BIT       EX1
      00000088H.2 SFRSYM    DATA     BIT       IT1
      000000CDH   SFRSYM    DATA     BYTE      TH2
      000000D0H.0 SFRSYM    DATA     BIT       P
      00000098H.7 SFRSYM    DATA     BIT       SM0
      0000008AH   SFRSYM    DATA     BYTE      TL0
      00000098H.6 SFRSYM    DATA     BIT       SM1
      0000008BH   SFRSYM    DATA     BYTE      TL1
      00000098H.5 SFRSYM    DATA     BIT       SM2
      000000CCH   SFRSYM    DATA     BYTE      TL2
      000000B8H.1 SFRSYM    DATA     BIT       PT0
      000000B8H.3 SFRSYM    DATA     BIT       PT1
      000000D0H.3 SFRSYM    DATA     BIT       RS0
      000000E7H   SFRSYM    DATA     BYTE      ISP_CONTR
      000000B8H.5 SFRSYM    DATA     BIT       PT2
      00000088H.4 SFRSYM    DATA     BIT       TR0
      000000D0H.4 SFRSYM    DATA     BIT       RS1
      00000088H.6 SFRSYM    DATA     BIT       TR1
      000000C8H.2 SFRSYM    DATA     BIT       TR2
      000000B8H.0 SFRSYM    DATA     BIT       PX0
      000000E1H   SFRSYM    DATA     BYTE      WDT_CONTR
      000000B8H.2 SFRSYM    DATA     BIT       PX1
      00000083H   SFRSYM    DATA     BYTE      DPH
      00000082H   SFRSYM    DATA     BYTE      DPL
      000000B7H   SFRSYM    DATA     BYTE      IPH
      000000C8H.3 SFRSYM    DATA     BIT       EXEN2
      00000098H.4 SFRSYM    DATA     BIT       REN
      000000C9H   SFRSYM    DATA     BYTE      T2MOD
      000000C8H   SFRSYM    DATA     BYTE      T2CON
      000000E2H   SFRSYM    DATA     BYTE      ISP_DATA
      000000B9H   SFRSYM    DATA     BYTE      SADEN
      000000B0H.0 SFRSYM    DATA     BIT       RXD
      000000A9H   SFRSYM    DATA     BYTE      SADDR
      000000B0H.1 SFRSYM    DATA     BIT       TXD
      000000A2H   SFRSYM    DATA     BYTE      AUXR1
      000000D0H.5 SFRSYM    DATA     BIT       F0
      000000D0H   SFRSYM    DATA     BYTE      PSW
      020000E6H   SYMBOL    XDATA    BYTE      display_mode
      01009A46H   SYMBOL    CONST    ---       date_table
      010067B2H   SYMBOL    CODE     ---       clock0_ISR
      0000003FH   SYMBOL    IDATA    BYTE      sec_256
      00000040H   SYMBOL    IDATA    ---       clk
      00000022H.7 SYMBOL    BIT      BIT       display_enable
      00000023H.0 SYMBOL    BIT      BIT       in_shell
      01001F1EH   SYMBOL    CODE     ---       clock_inc_ms39
      00000023H.1 SYMBOL    BIT      BIT       clk_is12

      0100482CH   BLOCK     CODE     ---       LVL=0
      ---         BLOCKEND  ---      ---       LVL=0

      010087C8H   BLOCK     CODE     ---       LVL=0
      00000020H.0 SYMBOL    BIT      BIT       enable
      010087C8H   LINE      CODE     ---       #129
      010087C8H   LINE      CODE     ---       #130
      010087C8H   LINE      CODE     ---       #131
      010087CCH   LINE      CODE     ---       #132
      ---         BLOCKEND  ---      ---       LVL=0

      0100878EH   BLOCK     CODE     ---       LVL=0
      00000007H   SYMBOL    DATA     BYTE      mode
LX51 LINKER/LOCATER V4.66.87.0                                                        05/29/2018  21:11:03  PAGE 124


      0100878EH   LINE      CODE     ---       #134
      0100878EH   LINE      CODE     ---       #135
      0100878EH   LINE      CODE     ---       #136
      01008793H   LINE      CODE     ---       #137
      ---         BLOCKEND  ---      ---       LVL=0

      01001F1EH   BLOCK     CODE     ---       LVL=0
      01001F1EH   BLOCK     CODE     NEAR LAB  LVL=1
      00000005H   SYMBOL    DATA     BYTE      hour
      00000021H.3 SYMBOL    BIT      BIT       is_pm
      ---         BLOCKEND  ---      ---       LVL=1
      01001F1EH   LINE      CODE     ---       #140
      01001F1EH   LINE      CODE     ---       #141
      01001F1EH   LINE      CODE     ---       #145
      01001F21H   LINE      CODE     ---       #147
      01001F2BH   LINE      CODE     ---       #148
      01001F31H   LINE      CODE     ---       #149
      01001F31H   LINE      CODE     ---       #151
      01001F36H   LINE      CODE     ---       #152
      01001F3CH   LINE      CODE     ---       #153
      01001F3CH   LINE      CODE     ---       #155
      01001F41H   LINE      CODE     ---       #156
      01001F4BH   LINE      CODE     ---       #157
      01001F4EH   LINE      CODE     ---       #158
      01001F51H   LINE      CODE     ---       #159
      01001F57H   LINE      CODE     ---       #160
      01001F5CH   LINE      CODE     ---       #161
      01001F61H   LINE      CODE     ---       #162
      01001F66H   LINE      CODE     ---       #163
      01001F6BH   LINE      CODE     ---       #164
      01001F70H   LINE      CODE     ---       #165
      01001F8CH   LINE      CODE     ---       #166
      01001F96H   LINE      CODE     ---       #167
      01001F99H   LINE      CODE     ---       #168
      01001FA4H   LINE      CODE     ---       #169
      01001FA7H   LINE      CODE     ---       #170
      01001FB1H   LINE      CODE     ---       #171
      01001FB1H   LINE      CODE     ---       #172
      01001FB1H   LINE      CODE     ---       #173
      01001FB1H   LINE      CODE     ---       #174
      01001FB1H   LINE      CODE     ---       #175
      01001FB1H   LINE      CODE     ---       #176
      01001FB1H   LINE      CODE     ---       #177
      01001FBDH   LINE      CODE     ---       #178
      01001FC4H   LINE      CODE     ---       #179
      01001FC9H   LINE      CODE     ---       #180
      01001FCBH   LINE      CODE     ---       #181
      01001FD3H   LINE      CODE     ---       #182
      01001FD7H   LINE      CODE     ---       #183
      01001FD9H   LINE      CODE     ---       #184
      01001FE2H   LINE      CODE     ---       #185
      01001FE4H   LINE      CODE     ---       #186
      01001FE4H   LINE      CODE     ---       #188
      01001FEBH   LINE      CODE     ---       #189
      01001FF9H   LINE      CODE     ---       #190
      01001FFBH   LINE      CODE     ---       #191
      01002008H   LINE      CODE     ---       #192
      01002008H   LINE      CODE     ---       #193
      01002013H   LINE      CODE     ---       #194
      01002018H   LINE      CODE     ---       #195
      0100201EH   LINE      CODE     ---       #196
      01002023H   LINE      CODE     ---       #197
      0100202BH   LINE      CODE     ---       #198
      01002031H   LINE      CODE     ---       #199
      01002042H   LINE      CODE     ---       #200
LX51 LINKER/LOCATER V4.66.87.0                                                        05/29/2018  21:11:03  PAGE 125


      01002049H   LINE      CODE     ---       #201
      01002050H   LINE      CODE     ---       #202
      0100205AH   LINE      CODE     ---       #203
      0100205CH   LINE      CODE     ---       #204
      0100205CH   LINE      CODE     ---       #205
      0100205EH   LINE      CODE     ---       #206
      01002068H   LINE      CODE     ---       #207
      0100206EH   LINE      CODE     ---       #208
      01002074H   LINE      CODE     ---       #209
      0100207AH   LINE      CODE     ---       #210
      01002081H   LINE      CODE     ---       #211
      0100208AH   LINE      CODE     ---       #212
      0100208AH   LINE      CODE     ---       #213
      0100208AH   LINE      CODE     ---       #214
      ---         BLOCKEND  ---      ---       LVL=0

      01003FC7H   BLOCK     CODE     ---       LVL=0
      01003FC7H   LINE      CODE     ---       #217
      01003FC7H   LINE      CODE     ---       #218
      01003FC7H   LINE      CODE     ---       #219
      01003FCDH   LINE      CODE     ---       #220
      01003FD9H   LINE      CODE     ---       #221
      01003FDFH   LINE      CODE     ---       #222
      01003FEBH   LINE      CODE     ---       #223
      01003FF1H   LINE      CODE     ---       #224
      01004002H   LINE      CODE     ---       #225
      01004008H   LINE      CODE     ---       #226
      01004019H   LINE      CODE     ---       #227
      01004037H   LINE      CODE     ---       #228
      ---         BLOCKEND  ---      ---       LVL=0

      01002702H   BLOCK     CODE     ---       LVL=0
      00000004H   SYMBOL    DATA     BYTE      year
      00000005H   SYMBOL    DATA     BYTE      mon
      00000003H   SYMBOL    DATA     BYTE      date
      01002704H   BLOCK     CODE     NEAR LAB  LVL=1
      02000017H   SYMBOL    XDATA    WORD      d
      02000019H   SYMBOL    XDATA    WORD      m
      0200001BH   SYMBOL    XDATA    WORD      y
      0200001DH   SYMBOL    XDATA    WORD      c
      ---         BLOCKEND  ---      ---       LVL=1
      01002702H   LINE      CODE     ---       #235
      01002704H   LINE      CODE     ---       #236
      01002704H   LINE      CODE     ---       #238
      01002711H   LINE      CODE     ---       #239
      0100271EH   LINE      CODE     ---       #240
      0100272AH   LINE      CODE     ---       #242
      01002733H   LINE      CODE     ---       #243
      0100273DH   LINE      CODE     ---       #244
      01002747H   LINE      CODE     ---       #245
      01002747H   LINE      CODE     ---       #247
      01002756H   LINE      CODE     ---       #248
      0100276CH   LINE      CODE     ---       #250
      010027E3H   LINE      CODE     ---       #251
      01002800H   LINE      CODE     ---       #253
      01002803H   LINE      CODE     ---       #254
      01002806H   LINE      CODE     ---       #255
      01002806H   LINE      CODE     ---       #257
      0100280DH   LINE      CODE     ---       #258
      ---         BLOCKEND  ---      ---       LVL=0

      01008830H   BLOCK     CODE     ---       LVL=0
      01008830H   LINE      CODE     ---       #260
      01008830H   LINE      CODE     ---       #261
      01008830H   LINE      CODE     ---       #262
LX51 LINKER/LOCATER V4.66.87.0                                                        05/29/2018  21:11:03  PAGE 126


      01008832H   LINE      CODE     ---       #263
      ---         BLOCKEND  ---      ---       LVL=0

      010087CDH   BLOCK     CODE     ---       LVL=0
      00000020H.0 SYMBOL    BIT      BIT       enable
      010087CDH   LINE      CODE     ---       #264
      010087CDH   LINE      CODE     ---       #265
      010087CDH   LINE      CODE     ---       #266
      010087D1H   LINE      CODE     ---       #267
      ---         BLOCKEND  ---      ---       LVL=0

      010087D2H   BLOCK     CODE     ---       LVL=0
      010087D2H   LINE      CODE     ---       #269
      010087D2H   LINE      CODE     ---       #270
      010087D2H   LINE      CODE     ---       #271
      010087D6H   LINE      CODE     ---       #272
      ---         BLOCKEND  ---      ---       LVL=0

      010087D7H   BLOCK     CODE     ---       LVL=0
      010087D7H   LINE      CODE     ---       #274
      010087D7H   LINE      CODE     ---       #275
      010087D7H   LINE      CODE     ---       #276
      010087DBH   LINE      CODE     ---       #277
      ---         BLOCKEND  ---      ---       LVL=0

      010087DCH   BLOCK     CODE     ---       LVL=0
      010087DCH   LINE      CODE     ---       #279
      010087DCH   LINE      CODE     ---       #280
      010087DCH   LINE      CODE     ---       #281
      010087E0H   LINE      CODE     ---       #282
      ---         BLOCKEND  ---      ---       LVL=0

      010087E1H   BLOCK     CODE     ---       LVL=0
      010087E1H   LINE      CODE     ---       #283
      010087E1H   LINE      CODE     ---       #284
      010087E1H   LINE      CODE     ---       #285
      010087E5H   LINE      CODE     ---       #286
      ---         BLOCKEND  ---      ---       LVL=0

      010087E6H   BLOCK     CODE     ---       LVL=0
      010087E6H   LINE      CODE     ---       #288
      010087E6H   LINE      CODE     ---       #289
      010087E6H   LINE      CODE     ---       #290
      010087EAH   LINE      CODE     ---       #291
      ---         BLOCKEND  ---      ---       LVL=0

      01008571H   BLOCK     CODE     ---       LVL=0
      01008571H   LINE      CODE     ---       #292
      01008571H   LINE      CODE     ---       #293
      01008571H   LINE      CODE     ---       #294
      0100857BH   LINE      CODE     ---       #295
      ---         BLOCKEND  ---      ---       LVL=0

      010087EBH   BLOCK     CODE     ---       LVL=0
      010087EBH   LINE      CODE     ---       #297
      010087EBH   LINE      CODE     ---       #298
      010087EBH   LINE      CODE     ---       #299
      010087EFH   LINE      CODE     ---       #300
      ---         BLOCKEND  ---      ---       LVL=0

      0100857CH   BLOCK     CODE     ---       LVL=0
      0100857CH   LINE      CODE     ---       #301
      0100857CH   LINE      CODE     ---       #302
      0100857CH   LINE      CODE     ---       #303
      01008586H   LINE      CODE     ---       #304
LX51 LINKER/LOCATER V4.66.87.0                                                        05/29/2018  21:11:03  PAGE 127


      ---         BLOCKEND  ---      ---       LVL=0

      01008794H   BLOCK     CODE     ---       LVL=0
      01008794H   LINE      CODE     ---       #307
      01008794H   LINE      CODE     ---       #308
      01008794H   LINE      CODE     ---       #309
      01008799H   LINE      CODE     ---       #310
      ---         BLOCKEND  ---      ---       LVL=0

      0100766CH   BLOCK     CODE     ---       LVL=0
      0100766CH   LINE      CODE     ---       #311
      0100766CH   LINE      CODE     ---       #312
      0100766CH   LINE      CODE     ---       #313
      0100767FH   LINE      CODE     ---       #314
      0100768BH   LINE      CODE     ---       #315
      ---         BLOCKEND  ---      ---       LVL=0

      0100879AH   BLOCK     CODE     ---       LVL=0
      0100879AH   LINE      CODE     ---       #317
      0100879AH   LINE      CODE     ---       #318
      0100879AH   LINE      CODE     ---       #319
      0100879FH   LINE      CODE     ---       #320
      ---         BLOCKEND  ---      ---       LVL=0

      010087A0H   BLOCK     CODE     ---       LVL=0
      010087A0H   LINE      CODE     ---       #322
      010087A0H   LINE      CODE     ---       #323
      010087A0H   LINE      CODE     ---       #324
      010087A5H   LINE      CODE     ---       #325
      ---         BLOCKEND  ---      ---       LVL=0

      01007EE0H   BLOCK     CODE     ---       LVL=0
      01007EE0H   LINE      CODE     ---       #326
      01007EE0H   LINE      CODE     ---       #327
      01007EE0H   LINE      CODE     ---       #328
      01007EEAH   LINE      CODE     ---       #329
      01007EF5H   LINE      CODE     ---       #330
      ---         BLOCKEND  ---      ---       LVL=0

      010087F0H   BLOCK     CODE     ---       LVL=0
      010087F0H   LINE      CODE     ---       #332
      010087F0H   LINE      CODE     ---       #333
      010087F0H   LINE      CODE     ---       #334
      010087F4H   LINE      CODE     ---       #335
      ---         BLOCKEND  ---      ---       LVL=0

      01007F8DH   BLOCK     CODE     ---       LVL=0
      01007F8DH   LINE      CODE     ---       #336
      01007F8DH   LINE      CODE     ---       #337
      01007F8DH   LINE      CODE     ---       #338
      01007F97H   LINE      CODE     ---       #339
      01007FA1H   LINE      CODE     ---       #340
      ---         BLOCKEND  ---      ---       LVL=0

      01005208H   BLOCK     CODE     ---       LVL=0
      02000013H   SYMBOL    XDATA    BYTE      type
      01005208H   LINE      CODE     ---       #342
      0100520DH   LINE      CODE     ---       #343
      0100520DH   LINE      CODE     ---       #344
      0100521AH   LINE      CODE     ---       #345
      01005220H   LINE      CODE     ---       #346
      01005224H   LINE      CODE     ---       #347
      0100522BH   LINE      CODE     ---       #348
      01005231H   LINE      CODE     ---       #349
      01005237H   LINE      CODE     ---       #350
LX51 LINKER/LOCATER V4.66.87.0                                                        05/29/2018  21:11:03  PAGE 128


      0100523AH   LINE      CODE     ---       #351
      0100523FH   LINE      CODE     ---       #352
      01005247H   LINE      CODE     ---       #353
      0100524CH   LINE      CODE     ---       #354
      01005253H   LINE      CODE     ---       #355
      0100525AH   LINE      CODE     ---       #356
      01005261H   LINE      CODE     ---       #357
      01005268H   LINE      CODE     ---       #358
      01005268H   LINE      CODE     ---       #359
      ---         BLOCKEND  ---      ---       LVL=0

      01004E02H   BLOCK     CODE     ---       LVL=0
      02000016H   SYMBOL    XDATA    BYTE      type
      01004E02H   LINE      CODE     ---       #361
      01004E07H   LINE      CODE     ---       #362
      01004E07H   LINE      CODE     ---       #363
      01004E14H   LINE      CODE     ---       #364
      01004E19H   LINE      CODE     ---       #365
      01004E1FH   LINE      CODE     ---       #366
      01004E23H   LINE      CODE     ---       #367
      01004E2AH   LINE      CODE     ---       #368
      01004E30H   LINE      CODE     ---       #369
      01004E36H   LINE      CODE     ---       #370
      01004E3DH   LINE      CODE     ---       #371
      01004E3FH   LINE      CODE     ---       #372
      01004E49H   LINE      CODE     ---       #373
      01004E4EH   LINE      CODE     ---       #374
      01004E55H   LINE      CODE     ---       #375
      01004E5CH   LINE      CODE     ---       #376
      01004E63H   LINE      CODE     ---       #377
      01004E68H   LINE      CODE     ---       #378
      01004E68H   LINE      CODE     ---       #379
      ---         BLOCKEND  ---      ---       LVL=0

      010067B2H   BLOCK     CODE     ---       LVL=0
      010067B2H   LINE      CODE     ---       #382
      010067C6H   LINE      CODE     ---       #384
      010067C9H   LINE      CODE     ---       #385
      010067CDH   LINE      CODE     ---       #387
      010067CDH   LINE      CODE     ---       #389
      010067D0H   LINE      CODE     ---       #390
      010067D3H   LINE      CODE     ---       #392
      010067D6H   LINE      CODE     ---       #394
      010067D8H   LINE      CODE     ---       #395
      ---         BLOCKEND  ---      ---       LVL=0

      01007DEAH   BLOCK     CODE     ---       LVL=0
      00000007H   SYMBOL    DATA     BYTE      year
      01007DEAH   LINE      CODE     ---       #399
      01007DEAH   LINE      CODE     ---       #400
      01007DEAH   LINE      CODE     ---       #401
      01007DF2H   LINE      CODE     ---       #402
      01007E00H   LINE      CODE     ---       #403
      ---         BLOCKEND  ---      ---       LVL=0

      01007877H   BLOCK     CODE     ---       LVL=0
      00000007H   SYMBOL    DATA     BYTE      year
      00000005H   SYMBOL    DATA     BYTE      mon
      01007877H   LINE      CODE     ---       #405
      01007877H   LINE      CODE     ---       #406
      01007877H   LINE      CODE     ---       #407
      0100787FH   LINE      CODE     ---       #408
      01007887H   LINE      CODE     ---       #409
      01007893H   LINE      CODE     ---       #410
      ---         BLOCKEND  ---      ---       LVL=0
LX51 LINKER/LOCATER V4.66.87.0                                                        05/29/2018  21:11:03  PAGE 129



      01008678H   BLOCK     CODE     ---       LVL=0
      00000020H.2 SYMBOL    BIT      BIT       enable
      01008678H   LINE      CODE     ---       #412
      01008678H   LINE      CODE     ---       #413
      01008678H   LINE      CODE     ---       #414
      0100867CH   LINE      CODE     ---       #415
      01008680H   LINE      CODE     ---       #416
      ---         BLOCKEND  ---      ---       LVL=0

      01006E56H   BLOCK     CODE     ---       LVL=0
      01006E56H   LINE      CODE     ---       #418
      01006E56H   LINE      CODE     ---       #419
      01006E56H   LINE      CODE     ---       #420
      01006E5FH   LINE      CODE     ---       #421
      01006E64H   LINE      CODE     ---       #422
      01006E69H   LINE      CODE     ---       #427
      01006E6CH   LINE      CODE     ---       #428
      01006E6FH   LINE      CODE     ---       #429
      01006E72H   LINE      CODE     ---       #430
      01006E74H   LINE      CODE     ---       #431
      01006E79H   LINE      CODE     ---       #432
      01006E7BH   LINE      CODE     ---       #434
      01006E80H   LINE      CODE     ---       #436
      ---         BLOCKEND  ---      ---       LVL=0

      0100845CH   BLOCK     CODE     ---       LVL=0
      0100845CH   LINE      CODE     ---       #440
      0100845CH   LINE      CODE     ---       #441
      0100845CH   LINE      CODE     ---       #442
      01008465H   LINE      CODE     ---       #443
      ---         BLOCKEND  ---      ---       LVL=0

      01007CD0H   BLOCK     CODE     ---       LVL=0
      01007CD0H   LINE      CODE     ---       #446
      01007CD0H   LINE      CODE     ---       #447
      01007CD0H   LINE      CODE     ---       #448
      01007CD9H   LINE      CODE     ---       #449
      01007CDEH   LINE      CODE     ---       #450
      01007CE3H   LINE      CODE     ---       #451
      ---         BLOCKEND  ---      ---       LVL=0

      01008833H   BLOCK     CODE     ---       LVL=0
      01008833H   LINE      CODE     ---       #454
      01008833H   LINE      CODE     ---       #455
      01008833H   LINE      CODE     ---       #456
      01008835H   LINE      CODE     ---       #457
      ---         BLOCKEND  ---      ---       LVL=0

      01007EF6H   BLOCK     CODE     ---       LVL=0
      01007EF6H   LINE      CODE     ---       #459
      01007EF6H   LINE      CODE     ---       #460
      01007EF6H   LINE      CODE     ---       #461
      01007EF8H   LINE      CODE     ---       #462
      01007EFDH   LINE      CODE     ---       #463
      01007F02H   LINE      CODE     ---       #464
      01007F07H   LINE      CODE     ---       #465
      ---         BLOCKEND  ---      ---       LVL=0

      ---         MODULE    ---      ---       TIMER
      01007D18H   PUBLIC    CODE     ---       timer_clr
      01008836H   PUBLIC    CODE     ---       timer_stop
      01007542H   PUBLIC    CODE     ---       _timer_get_ms10
      01007D00H   PUBLIC    CODE     ---       _timer_inc_sec
      01008095H   PUBLIC    CODE     ---       _timer_get_sec
LX51 LINKER/LOCATER V4.66.87.0                                                        05/29/2018  21:11:03  PAGE 130


      01007CE8H   PUBLIC    CODE     ---       _timer_inc_min
      01008081H   PUBLIC    CODE     ---       _timer_get_min
      010078CEH   PUBLIC    CODE     ---       _timer_inc_hour
      0100806DH   PUBLIC    CODE     ---       _timer_get_hour
      01007037H   PUBLIC    CODE     ---       _timer_save
      01007F0CH   PUBLIC    CODE     ---       timer_start
      010087A6H   PUBLIC    CODE     ---       _timer_set_mode
      00000020H.0 PUBLIC    BIT      BIT       ?timer_set_led_autorefresh?BIT
      02000014H   PUBLIC    XDATA    BYTE      ?timer_set_led_autorefresh?BYTE
      01008314H   PUBLIC    CODE     ---       timer_set_led_autorefresh
      01008681H   PUBLIC    CODE     ---       timer_leave_powersave
      010084E3H   PUBLIC    CODE     ---       timer_enter_powersave
      010081B6H   PUBLIC    CODE     ---       timer_initialize
      01002A1AH   PUBLIC    CODE     ---       timer_inc_ms39
      00000021H.4 SYMBOL    BIT      BIT       tmr_display
      00000021H.5 SYMBOL    BIT      BIT       tmr_countdown_stop
      020000A6H   SYMBOL    XDATA    ---       tmr
      020000BAH   SYMBOL    XDATA    BYTE      tmr_mode
      00000021H.6 SYMBOL    BIT      BIT       tmr_start
      00000021H.7 SYMBOL    BIT      BIT       tmr_disp_mmssms

      01004ED8H   BLOCK     CODE     ---       LVL=0
      ---         BLOCKEND  ---      ---       LVL=0

      01002A1AH   BLOCK     CODE     ---       LVL=0
      01002A1AH   BLOCK     CODE     NEAR LAB  LVL=1
      00000007H   SYMBOL    DATA     BYTE      ms10
      ---         BLOCKEND  ---      ---       LVL=1
      01002A1AH   LINE      CODE     ---       #18
      01002A1AH   LINE      CODE     ---       #19
      01002A1AH   LINE      CODE     ---       #22
      01002A20H   LINE      CODE     ---       #25
      01002A26H   LINE      CODE     ---       #26
      01002A2CH   LINE      CODE     ---       #27
      01002A32H   LINE      CODE     ---       #28
      01002A3BH   LINE      CODE     ---       #29
      01002A3EH   LINE      CODE     ---       #30
      01002A47H   LINE      CODE     ---       #31
      01002A4AH   LINE      CODE     ---       #32
      01002A57H   LINE      CODE     ---       #33
      01002A57H   LINE      CODE     ---       #34
      01002A57H   LINE      CODE     ---       #35
      01002A57H   LINE      CODE     ---       #36
      01002A59H   LINE      CODE     ---       #37
      01002A5CH   LINE      CODE     ---       #38
      01002A74H   LINE      CODE     ---       #41
      01002A74H   LINE      CODE     ---       #42
      01002A7AH   LINE      CODE     ---       #43
      01002A7EH   LINE      CODE     ---       #44
      01002A84H   LINE      CODE     ---       #45
      01002A88H   LINE      CODE     ---       #46
      01002A8BH   LINE      CODE     ---       #47
      01002A91H   LINE      CODE     ---       #48
      01002A95H   LINE      CODE     ---       #49
      01002A98H   LINE      CODE     ---       #50
      01002AA1H   LINE      CODE     ---       #51
      01002AA4H   LINE      CODE     ---       #52
      01002AA4H   LINE      CODE     ---       #53
      01002AA4H   LINE      CODE     ---       #54
      01002AA4H   LINE      CODE     ---       #55
      01002AA4H   LINE      CODE     ---       #56
      01002AA6H   LINE      CODE     ---       #57
      01002AA8H   LINE      CODE     ---       #58
      01002AB1H   LINE      CODE     ---       #59
      01002AB1H   LINE      CODE     ---       #60
LX51 LINKER/LOCATER V4.66.87.0                                                        05/29/2018  21:11:03  PAGE 131


      01002AB1H   LINE      CODE     ---       #61
      01002AB1H   LINE      CODE     ---       #62
      01002AB4H   LINE      CODE     ---       #63
      01002ABDH   LINE      CODE     ---       #64
      01002AC0H   LINE      CODE     ---       #65
      01002ACAH   LINE      CODE     ---       #66
      01002ACEH   LINE      CODE     ---       #67
      01002AD7H   LINE      CODE     ---       #68
      01002ADBH   LINE      CODE     ---       #69
      01002AE0H   LINE      CODE     ---       #70
      01002AE0H   LINE      CODE     ---       #71
      01002AE2H   LINE      CODE     ---       #72
      01002AEDH   LINE      CODE     ---       #73
      01002AF0H   LINE      CODE     ---       #74
      01002AFAH   LINE      CODE     ---       #75
      01002AFDH   LINE      CODE     ---       #76
      01002B07H   LINE      CODE     ---       #77
      01002B0AH   LINE      CODE     ---       #78
      01002B0AH   LINE      CODE     ---       #79
      01002B10H   LINE      CODE     ---       #80
      01002B16H   LINE      CODE     ---       #81
      01002B16H   LINE      CODE     ---       #82
      ---         BLOCKEND  ---      ---       LVL=0

      010081B6H   BLOCK     CODE     ---       LVL=0
      010081B6H   LINE      CODE     ---       #85
      010081B6H   LINE      CODE     ---       #86
      010081B6H   LINE      CODE     ---       #87
      010081BFH   LINE      CODE     ---       #89
      010081C1H   LINE      CODE     ---       #90
      010081C3H   LINE      CODE     ---       #91
      010081C5H   LINE      CODE     ---       #92
      010081C7H   LINE      CODE     ---       #93
      ---         BLOCKEND  ---      ---       LVL=0

      010084E3H   BLOCK     CODE     ---       LVL=0
      010084E3H   LINE      CODE     ---       #95
      010084E3H   LINE      CODE     ---       #96
      010084E3H   LINE      CODE     ---       #97
      010084ECH   LINE      CODE     ---       #98
      ---         BLOCKEND  ---      ---       LVL=0

      01008681H   BLOCK     CODE     ---       LVL=0
      01008681H   LINE      CODE     ---       #101
      01008681H   LINE      CODE     ---       #102
      01008681H   LINE      CODE     ---       #103
      ---         BLOCKEND  ---      ---       LVL=0

      01008314H   BLOCK     CODE     ---       LVL=0
      00000020H.0 SYMBOL    BIT      BIT       enable
      02000014H   SYMBOL    XDATA    BYTE      mode
      01008314H   LINE      CODE     ---       #106
      01008314H   LINE      CODE     ---       #107
      01008314H   LINE      CODE     ---       #108
      01008318H   LINE      CODE     ---       #109
      0100831EH   LINE      CODE     ---       #110
      01008320H   LINE      CODE     ---       #111
      01008321H   LINE      CODE     ---       #112
      01008323H   LINE      CODE     ---       #113
      01008323H   LINE      CODE     ---       #114
      ---         BLOCKEND  ---      ---       LVL=0

      010087A6H   BLOCK     CODE     ---       LVL=0
      00000007H   SYMBOL    DATA     BYTE      mode
      010087A6H   LINE      CODE     ---       #116
LX51 LINKER/LOCATER V4.66.87.0                                                        05/29/2018  21:11:03  PAGE 132


      010087A6H   LINE      CODE     ---       #117
      010087A6H   LINE      CODE     ---       #118
      010087ABH   LINE      CODE     ---       #119
      ---         BLOCKEND  ---      ---       LVL=0

      01007F0CH   BLOCK     CODE     ---       LVL=0
      01007F0CH   LINE      CODE     ---       #121
      01007F0CH   LINE      CODE     ---       #122
      01007F0CH   LINE      CODE     ---       #123
      01007F1DH   LINE      CODE     ---       #124
      01007F1FH   LINE      CODE     ---       #125
      01007F21H   LINE      CODE     ---       #126
      ---         BLOCKEND  ---      ---       LVL=0

      01007037H   BLOCK     CODE     ---       LVL=0
      00000007H   SYMBOL    DATA     BYTE      slot
      01007037H   LINE      CODE     ---       #128
      01007037H   LINE      CODE     ---       #129
      01007037H   LINE      CODE     ---       #130
      01007042H   LINE      CODE     ---       #131
      01007060H   LINE      CODE     ---       #132
      01007060H   LINE      CODE     ---       #133
      ---         BLOCKEND  ---      ---       LVL=0

      0100806DH   BLOCK     CODE     ---       LVL=0
      00000007H   SYMBOL    DATA     BYTE      slot
      0100806DH   LINE      CODE     ---       #135
      0100806DH   LINE      CODE     ---       #136
      0100806DH   LINE      CODE     ---       #137
      01008078H   LINE      CODE     ---       #138
      0100807EH   LINE      CODE     ---       #139
      0100807EH   LINE      CODE     ---       #140
      01008080H   LINE      CODE     ---       #141
      ---         BLOCKEND  ---      ---       LVL=0

      010078CEH   BLOCK     CODE     ---       LVL=0
      00000007H   SYMBOL    DATA     BYTE      slot
      010078CEH   LINE      CODE     ---       #142
      010078CEH   LINE      CODE     ---       #143
      010078CEH   LINE      CODE     ---       #144
      010078D9H   LINE      CODE     ---       #145
      010078E9H   LINE      CODE     ---       #146
      010078E9H   LINE      CODE     ---       #147
      ---         BLOCKEND  ---      ---       LVL=0

      01008081H   BLOCK     CODE     ---       LVL=0
      00000007H   SYMBOL    DATA     BYTE      slot
      01008081H   LINE      CODE     ---       #149
      01008081H   LINE      CODE     ---       #150
      01008081H   LINE      CODE     ---       #151
      0100808CH   LINE      CODE     ---       #152
      01008092H   LINE      CODE     ---       #153
      01008092H   LINE      CODE     ---       #154
      01008094H   LINE      CODE     ---       #155
      ---         BLOCKEND  ---      ---       LVL=0

      01007CE8H   BLOCK     CODE     ---       LVL=0
      00000007H   SYMBOL    DATA     BYTE      slot
      01007CE8H   LINE      CODE     ---       #156
      01007CE8H   LINE      CODE     ---       #157
      01007CE8H   LINE      CODE     ---       #158
      01007CF3H   LINE      CODE     ---       #159
      01007CFFH   LINE      CODE     ---       #160
      01007CFFH   LINE      CODE     ---       #161
      ---         BLOCKEND  ---      ---       LVL=0
LX51 LINKER/LOCATER V4.66.87.0                                                        05/29/2018  21:11:03  PAGE 133



      01008095H   BLOCK     CODE     ---       LVL=0
      00000007H   SYMBOL    DATA     BYTE      slot
      01008095H   LINE      CODE     ---       #164
      01008095H   LINE      CODE     ---       #165
      01008095H   LINE      CODE     ---       #166
      010080A0H   LINE      CODE     ---       #167
      010080A6H   LINE      CODE     ---       #168
      010080A6H   LINE      CODE     ---       #169
      010080A8H   LINE      CODE     ---       #170
      ---         BLOCKEND  ---      ---       LVL=0

      01007D00H   BLOCK     CODE     ---       LVL=0
      00000007H   SYMBOL    DATA     BYTE      slot
      01007D00H   LINE      CODE     ---       #171
      01007D00H   LINE      CODE     ---       #172
      01007D00H   LINE      CODE     ---       #173
      01007D0BH   LINE      CODE     ---       #174
      01007D17H   LINE      CODE     ---       #175
      01007D17H   LINE      CODE     ---       #176
      ---         BLOCKEND  ---      ---       LVL=0

      01007542H   BLOCK     CODE     ---       LVL=0
      00000007H   SYMBOL    DATA     BYTE      slot
      01007542H   LINE      CODE     ---       #178
      01007542H   LINE      CODE     ---       #179
      01007542H   LINE      CODE     ---       #181
      0100754DH   LINE      CODE     ---       #182
      01007561H   LINE      CODE     ---       #183
      01007561H   LINE      CODE     ---       #184
      01007563H   LINE      CODE     ---       #185
      ---         BLOCKEND  ---      ---       LVL=0

      01008836H   BLOCK     CODE     ---       LVL=0
      01008836H   LINE      CODE     ---       #187
      01008836H   LINE      CODE     ---       #188
      01008836H   LINE      CODE     ---       #189
      01008838H   LINE      CODE     ---       #190
      ---         BLOCKEND  ---      ---       LVL=0

      01007D18H   BLOCK     CODE     ---       LVL=0
      01007D18H   LINE      CODE     ---       #192
      01007D18H   LINE      CODE     ---       #193
      01007D18H   LINE      CODE     ---       #194
      01007D27H   LINE      CODE     ---       #196
      01007D29H   LINE      CODE     ---       #197
      01007D2BH   LINE      CODE     ---       #198
      01007D2DH   LINE      CODE     ---       #199
      01007D2FH   LINE      CODE     ---       #200
      ---         BLOCKEND  ---      ---       LVL=0

      ---         MODULE    ---      ---       INT_HUB
      010053E9H   PUBLIC    CODE     ---       _scan_int_hub_proc
      01000EF7H   PUBLIC    CODE     ---       _int_hub_dump_ext_status
      01005144H   PUBLIC    CODE     ---       int_hub_get_status
      01005269H   PUBLIC    CODE     ---       int_hub_dump
      010071D2H   PUBLIC    CODE     ---       _int_hub_test_bit
      01004D2AH   PUBLIC    CODE     ---       int_hub_initialize
      00000080H   SFRSYM    DATA     BYTE      P0
      00000090H   SFRSYM    DATA     BYTE      P1
      000000A0H   SFRSYM    DATA     BYTE      P2
      000000B0H   SFRSYM    DATA     BYTE      P3
      000000C0H   SFRSYM    DATA     BYTE      XICON
      000000B0H.4 SFRSYM    DATA     BIT       T0
      000000D0H.6 SFRSYM    DATA     BIT       AC
LX51 LINKER/LOCATER V4.66.87.0                                                        05/29/2018  21:11:03  PAGE 134


      000000E8H   SFRSYM    DATA     BYTE      P4
      000000B0H.5 SFRSYM    DATA     BIT       T1
      000000E6H   SFRSYM    DATA     BYTE      ISP_TRIG
      00000090H.0 SFRSYM    DATA     BIT       T2
      000000A8H.7 SFRSYM    DATA     BIT       EA
      000000A8H.6 SFRSYM    DATA     BIT       EC
      00000098H.7 SFRSYM    DATA     BIT       FE
      000000A8H   SFRSYM    DATA     BYTE      IE
      000000C8H.6 SFRSYM    DATA     BIT       EXF2
      000000B0H.7 SFRSYM    DATA     BIT       RD
      000000A8H.4 SFRSYM    DATA     BIT       ES
      000000B8H   SFRSYM    DATA     BYTE      IP
      00000098H.0 SFRSYM    DATA     BIT       RI
      000000B0H.2 SFRSYM    DATA     BIT       INT0
      000000D0H.7 SFRSYM    DATA     BIT       CY
      00000098H.1 SFRSYM    DATA     BIT       TI
      000000B0H.3 SFRSYM    DATA     BIT       INT1
      00000090H.3 SFRSYM    DATA     BIT       THERMO_INT
      000000CBH   SFRSYM    DATA     BYTE      RCAP2H
      000000E5H   SFRSYM    DATA     BYTE      ISP_CMD
      000000B8H.4 SFRSYM    DATA     BIT       PS
      00000081H   SFRSYM    DATA     BYTE      SP
      00000090H.1 SFRSYM    DATA     BIT       T2EX
      000000D0H.2 SFRSYM    DATA     BIT       OV
      000000CAH   SFRSYM    DATA     BYTE      RCAP2L
      000000C8H.1 SFRSYM    DATA     BIT       C_T2
      000000B0H.6 SFRSYM    DATA     BIT       WR
      000000B0H.3 SFRSYM    DATA     BIT       INT_BIT
      000000C8H.5 SFRSYM    DATA     BIT       RCLK
      000000C8H.4 SFRSYM    DATA     BIT       TCLK
      00000080H.0 SFRSYM    DATA     BIT       P00
      00000099H   SFRSYM    DATA     BYTE      SBUF
      00000087H   SFRSYM    DATA     BYTE      PCON
      00000090H.0 SFRSYM    DATA     BIT       P10
      00000080H.1 SFRSYM    DATA     BIT       P01
      000000A0H.0 SFRSYM    DATA     BIT       P20
      00000090H.1 SFRSYM    DATA     BIT       P11
      00000080H.2 SFRSYM    DATA     BIT       P02
      000000E3H   SFRSYM    DATA     BYTE      ISP_ADDRH
      000000B0H.0 SFRSYM    DATA     BIT       P30
      000000A0H.1 SFRSYM    DATA     BIT       P21
      00000090H.2 SFRSYM    DATA     BIT       P12
      00000080H.3 SFRSYM    DATA     BIT       P03
      00000098H   SFRSYM    DATA     BYTE      SCON
      000000B0H.1 SFRSYM    DATA     BIT       P31
      000000A0H.2 SFRSYM    DATA     BIT       P22
      00000090H.3 SFRSYM    DATA     BIT       P13
      00000080H.4 SFRSYM    DATA     BIT       P04
      000000E8H.0 SFRSYM    DATA     BIT       P40
      00000089H   SFRSYM    DATA     BYTE      TMOD
      00000088H   SFRSYM    DATA     BYTE      TCON
      000000B0H.2 SFRSYM    DATA     BIT       P32
      000000A0H.3 SFRSYM    DATA     BIT       P23
      00000090H.4 SFRSYM    DATA     BIT       P14
      00000080H.5 SFRSYM    DATA     BIT       P05
      000000E8H.1 SFRSYM    DATA     BIT       P41
      00000090H.1 SFRSYM    DATA     BIT       RTC_INT
      000000B0H.3 SFRSYM    DATA     BIT       P33
      000000A0H.4 SFRSYM    DATA     BIT       P24
      00000090H.5 SFRSYM    DATA     BIT       P15
      00000080H.6 SFRSYM    DATA     BIT       P06
      000000E4H   SFRSYM    DATA     BYTE      ISP_ADDRL
      000000E8H.2 SFRSYM    DATA     BIT       P42
      000000B0H.4 SFRSYM    DATA     BIT       P34
      000000A0H.5 SFRSYM    DATA     BIT       P25
LX51 LINKER/LOCATER V4.66.87.0                                                        05/29/2018  21:11:03  PAGE 135


      00000090H.6 SFRSYM    DATA     BIT       P16
      00000080H.7 SFRSYM    DATA     BIT       P07
      000000E8H.3 SFRSYM    DATA     BIT       P43
      000000B0H.5 SFRSYM    DATA     BIT       P35
      000000A0H.6 SFRSYM    DATA     BIT       P26
      00000090H.7 SFRSYM    DATA     BIT       P17
      000000E8H.4 SFRSYM    DATA     BIT       P44
      000000B0H.6 SFRSYM    DATA     BIT       P36
      000000A0H.7 SFRSYM    DATA     BIT       P27
      000000E8H.5 SFRSYM    DATA     BIT       P45
      000000B0H.7 SFRSYM    DATA     BIT       P37
      000000E8H.6 SFRSYM    DATA     BIT       P46
      00000090H.4 SFRSYM    DATA     BIT       EXT_INT
      00000088H.1 SFRSYM    DATA     BIT       IE0
      00000090H.2 SFRSYM    DATA     BIT       MPU_INT
      00000088H.3 SFRSYM    DATA     BIT       IE1
      0000008EH   SFRSYM    DATA     BYTE      AUXR
      000000F0H   SFRSYM    DATA     BYTE      B
      000000C8H.0 SFRSYM    DATA     BIT       CP_RL2
      000000E0H   SFRSYM    DATA     BYTE      ACC
      000000A8H.1 SFRSYM    DATA     BIT       ET0
      000000A8H.3 SFRSYM    DATA     BIT       ET1
      00000088H.5 SFRSYM    DATA     BIT       TF0
      000000A8H.5 SFRSYM    DATA     BIT       ET2
      00000088H.7 SFRSYM    DATA     BIT       TF1
      000000C8H.7 SFRSYM    DATA     BIT       TF2
      00000098H.2 SFRSYM    DATA     BIT       RB8
      0000008CH   SFRSYM    DATA     BYTE      TH0
      000000A8H.0 SFRSYM    DATA     BIT       EX0
      00000088H.0 SFRSYM    DATA     BIT       IT0
      0000008DH   SFRSYM    DATA     BYTE      TH1
      00000098H.3 SFRSYM    DATA     BIT       TB8
      000000A8H.2 SFRSYM    DATA     BIT       EX1
      00000088H.2 SFRSYM    DATA     BIT       IT1
      000000CDH   SFRSYM    DATA     BYTE      TH2
      000000D0H.0 SFRSYM    DATA     BIT       P
      00000098H.7 SFRSYM    DATA     BIT       SM0
      0000008AH   SFRSYM    DATA     BYTE      TL0
      00000098H.6 SFRSYM    DATA     BIT       SM1
      0000008BH   SFRSYM    DATA     BYTE      TL1
      00000098H.5 SFRSYM    DATA     BIT       SM2
      000000CCH   SFRSYM    DATA     BYTE      TL2
      000000B8H.1 SFRSYM    DATA     BIT       PT0
      000000B8H.3 SFRSYM    DATA     BIT       PT1
      000000D0H.3 SFRSYM    DATA     BIT       RS0
      000000E7H   SFRSYM    DATA     BYTE      ISP_CONTR
      000000B8H.5 SFRSYM    DATA     BIT       PT2
      00000088H.4 SFRSYM    DATA     BIT       TR0
      000000D0H.4 SFRSYM    DATA     BIT       RS1
      00000088H.6 SFRSYM    DATA     BIT       TR1
      000000C8H.2 SFRSYM    DATA     BIT       TR2
      000000B8H.0 SFRSYM    DATA     BIT       PX0
      000000E1H   SFRSYM    DATA     BYTE      WDT_CONTR
      000000B8H.2 SFRSYM    DATA     BIT       PX1
      00000083H   SFRSYM    DATA     BYTE      DPH
      00000082H   SFRSYM    DATA     BYTE      DPL
      000000B7H   SFRSYM    DATA     BYTE      IPH
      000000C8H.3 SFRSYM    DATA     BIT       EXEN2
      00000098H.4 SFRSYM    DATA     BIT       REN
      000000C9H   SFRSYM    DATA     BYTE      T2MOD
      000000C8H   SFRSYM    DATA     BYTE      T2CON
      000000E2H   SFRSYM    DATA     BYTE      ISP_DATA
      000000B9H   SFRSYM    DATA     BYTE      SADEN
      000000B0H.0 SFRSYM    DATA     BIT       RXD
      000000A9H   SFRSYM    DATA     BYTE      SADDR
LX51 LINKER/LOCATER V4.66.87.0                                                        05/29/2018  21:11:03  PAGE 136


      000000B0H.1 SFRSYM    DATA     BIT       TXD
      000000A2H   SFRSYM    DATA     BYTE      AUXR1
      000000D0H.5 SFRSYM    DATA     BIT       F0
      000000D0H   SFRSYM    DATA     BYTE      PSW
      010082E3H   SYMBOL    CODE     ---       int1_ISR

      01008159H   BLOCK     CODE     ---       LVL=0
      ---         BLOCKEND  ---      ---       LVL=0

      010082E3H   BLOCK     CODE     ---       LVL=0
      010082E3H   LINE      CODE     ---       #29
      010082EAH   LINE      CODE     ---       #31
      010082ECH   LINE      CODE     ---       #32
      010082EFH   LINE      CODE     ---       #33
      ---         BLOCKEND  ---      ---       LVL=0

      01004D2AH   BLOCK     CODE     ---       LVL=0
      01004D2AH   BLOCK     CODE     NEAR LAB  LVL=1
      02000000H   SYMBOL    XDATA    BYTE      val
      ---         BLOCKEND  ---      ---       LVL=1
      01004D2AH   LINE      CODE     ---       #35
      01004D2AH   LINE      CODE     ---       #36
      01004D2AH   LINE      CODE     ---       #38
      01004D33H   LINE      CODE     ---       #40
      01004D3CH   LINE      CODE     ---       #42
      01004D3EH   LINE      CODE     ---       #46
      01004D48H   LINE      CODE     ---       #47
      01004D4FH   LINE      CODE     ---       #50
      01004D58H   LINE      CODE     ---       #52
      01004D5AH   LINE      CODE     ---       #55
      01004D64H   LINE      CODE     ---       #56
      01004D6BH   LINE      CODE     ---       #58
      01004D6DH   LINE      CODE     ---       #59
      01004D6FH   LINE      CODE     ---       #60
      01004D71H   LINE      CODE     ---       #61
      01004D73H   LINE      CODE     ---       #62
      01004D75H   LINE      CODE     ---       #64
      01004D77H   LINE      CODE     ---       #65
      01004D79H   LINE      CODE     ---       #66
      ---         BLOCKEND  ---      ---       LVL=0

      010071D2H   BLOCK     CODE     ---       LVL=0
      00000007H   SYMBOL    DATA     BYTE      index
      00000004H   SYMBOL    DATA     WORD      status
      010071D2H   LINE      CODE     ---       #69
      010071D2H   LINE      CODE     ---       #70
      010071D2H   LINE      CODE     ---       #71
      010071D8H   LINE      CODE     ---       #72
      010071D9H   LINE      CODE     ---       #74
      010071F8H   LINE      CODE     ---       #75
      ---         BLOCKEND  ---      ---       LVL=0

      01005269H   BLOCK     CODE     ---       LVL=0
      01005269H   LINE      CODE     ---       #77
      01005269H   LINE      CODE     ---       #78
      01005269H   LINE      CODE     ---       #80
      01005272H   LINE      CODE     ---       #81
      0100527FH   LINE      CODE     ---       #82
      0100528DH   LINE      CODE     ---       #83
      0100529BH   LINE      CODE     ---       #84
      010052A9H   LINE      CODE     ---       #85
      010052B3H   LINE      CODE     ---       #86
      ---         BLOCKEND  ---      ---       LVL=0

      01005144H   BLOCK     CODE     ---       LVL=0
LX51 LINKER/LOCATER V4.66.87.0                                                        05/29/2018  21:11:03  PAGE 137


      01005144H   BLOCK     CODE     NEAR LAB  LVL=1
      02000016H   SYMBOL    XDATA    WORD      status
      02000018H   SYMBOL    XDATA    BYTE      val
      ---         BLOCKEND  ---      ---       LVL=1
      01005144H   LINE      CODE     ---       #88
      01005144H   LINE      CODE     ---       #89
      01005144H   LINE      CODE     ---       #90
      0100514BH   LINE      CODE     ---       #93
      01005158H   LINE      CODE     ---       #94
      0100515CH   LINE      CODE     ---       #95
      01005164H   LINE      CODE     ---       #97
      0100516DH   LINE      CODE     ---       #98
      0100517AH   LINE      CODE     ---       #99
      0100517EH   LINE      CODE     ---       #100
      01005190H   LINE      CODE     ---       #102
      01005190H   LINE      CODE     ---       #103
      ---         BLOCKEND  ---      ---       LVL=0

      01000EF7H   BLOCK     CODE     ---       LVL=0
      02000016H   SYMBOL    XDATA    WORD      status
      01000EF7H   LINE      CODE     ---       #105
      01000EFFH   LINE      CODE     ---       #106
      01000EFFH   LINE      CODE     ---       #107
      01000F08H   LINE      CODE     ---       #108
      01000F29H   LINE      CODE     ---       #109
      01000F41H   LINE      CODE     ---       #110
      01000F59H   LINE      CODE     ---       #111
      01000F71H   LINE      CODE     ---       #112
      01000F89H   LINE      CODE     ---       #113
      01000FA1H   LINE      CODE     ---       #114
      01000FB9H   LINE      CODE     ---       #115
      01000FD1H   LINE      CODE     ---       #116
      01000FE9H   LINE      CODE     ---       #117
      01001001H   LINE      CODE     ---       #118
      01001019H   LINE      CODE     ---       #119
      01001031H   LINE      CODE     ---       #120
      01001049H   LINE      CODE     ---       #121
      01001061H   LINE      CODE     ---       #122
      0100107CH   LINE      CODE     ---       #123
      0100109CH   LINE      CODE     ---       #124
      010010A5H   LINE      CODE     ---       #125
      ---         BLOCKEND  ---      ---       LVL=0

      010053E9H   BLOCK     CODE     ---       LVL=0
      02000013H   SYMBOL    XDATA    BYTE      ev
      010053EEH   BLOCK     CODE     NEAR LAB  LVL=1
      02000014H   SYMBOL    XDATA    WORD      status
      ---         BLOCKEND  ---      ---       LVL=1
      010053E9H   LINE      CODE     ---       #127
      010053EEH   LINE      CODE     ---       #128
      010053EEH   LINE      CODE     ---       #129
      010053F3H   LINE      CODE     ---       #130
      010053FCH   LINE      CODE     ---       #132
      010053FCH   LINE      CODE     ---       #134
      010053FFH   LINE      CODE     ---       #136
      01005402H   LINE      CODE     ---       #137
      01005405H   LINE      CODE     ---       #138
      01005405H   LINE      CODE     ---       #141
      01005408H   LINE      CODE     ---       #149
      01005413H   LINE      CODE     ---       #150
      01005416H   LINE      CODE     ---       #151
      01005421H   LINE      CODE     ---       #152
      0100542CH   LINE      CODE     ---       #153
      0100542CH   LINE      CODE     ---       #156
      0100542FH   LINE      CODE     ---       #157
LX51 LINKER/LOCATER V4.66.87.0                                                        05/29/2018  21:11:03  PAGE 138


      01005432H   LINE      CODE     ---       #158
      01005432H   LINE      CODE     ---       #160
      01005435H   LINE      CODE     ---       #161
      01005438H   LINE      CODE     ---       #162
      01005438H   LINE      CODE     ---       #164
      01005444H   LINE      CODE     ---       #165
      01005447H   LINE      CODE     ---       #166
      01005447H   LINE      CODE     ---       #167
      ---         BLOCKEND  ---      ---       LVL=0

      ---         MODULE    ---      ---       FUSE
      00000020H.1 PUBLIC    BIT      BIT       ?fuse_enable?BIT
      01007182H   PUBLIC    CODE     ---       fuse_enable
      00000020H.0 PUBLIC    BIT      BIT       ?fuse_set_tripwire_broke?BIT
      010072BAH   PUBLIC    CODE     ---       fuse_set_tripwire_broke
      00000020H.0 PUBLIC    BIT      BIT       ?_fuse_set_fuse_broke?BIT
      01006405H   PUBLIC    CODE     ---       _fuse_set_fuse_broke
      01007BB8H   PUBLIC    CODE     ---       _fuse_proc
      010045C0H   PUBLIC    CODE     ---       _scan_fuse
      01008693H   PUBLIC    CODE     ---       fuse_leave_powersave
      0100868AH   PUBLIC    CODE     ---       fuse_enter_powersave
      00000020H.0 PUBLIC    BIT      BIT       ?fuse_trigger?BIT
      010068C6H   PUBLIC    CODE     ---       fuse_trigger
      010084EFH   PUBLIC    CODE     ---       fuse_initialize
      00000080H   SFRSYM    DATA     BYTE      P0
      00000090H   SFRSYM    DATA     BYTE      P1
      000000A0H   SFRSYM    DATA     BYTE      P2
      000000B0H   SFRSYM    DATA     BYTE      P3
      000000C0H   SFRSYM    DATA     BYTE      XICON
      000000B0H.4 SFRSYM    DATA     BIT       T0
      000000D0H.6 SFRSYM    DATA     BIT       AC
      000000E8H   SFRSYM    DATA     BYTE      P4
      000000B0H.5 SFRSYM    DATA     BIT       T1
      000000E6H   SFRSYM    DATA     BYTE      ISP_TRIG
      00000090H.0 SFRSYM    DATA     BIT       T2
      000000A8H.7 SFRSYM    DATA     BIT       EA
      000000A8H.6 SFRSYM    DATA     BIT       EC
      00000098H.7 SFRSYM    DATA     BIT       FE
      000000A8H   SFRSYM    DATA     BYTE      IE
      000000C8H.6 SFRSYM    DATA     BIT       EXF2
      000000B0H.7 SFRSYM    DATA     BIT       RD
      000000A8H.4 SFRSYM    DATA     BIT       ES
      000000B8H   SFRSYM    DATA     BYTE      IP
      00000098H.0 SFRSYM    DATA     BIT       RI
      000000B0H.2 SFRSYM    DATA     BIT       INT0
      000000D0H.7 SFRSYM    DATA     BIT       CY
      00000098H.1 SFRSYM    DATA     BIT       TI
      000000B0H.3 SFRSYM    DATA     BIT       INT1
      000000CBH   SFRSYM    DATA     BYTE      RCAP2H
      000000E5H   SFRSYM    DATA     BYTE      ISP_CMD
      000000B8H.4 SFRSYM    DATA     BIT       PS
      00000081H   SFRSYM    DATA     BYTE      SP
      00000090H.1 SFRSYM    DATA     BIT       T2EX
      000000D0H.2 SFRSYM    DATA     BIT       OV
      000000CAH   SFRSYM    DATA     BYTE      RCAP2L
      000000C8H.1 SFRSYM    DATA     BIT       C_T2
      000000B0H.6 SFRSYM    DATA     BIT       WR
      000000C8H.5 SFRSYM    DATA     BIT       RCLK
      000000C8H.4 SFRSYM    DATA     BIT       TCLK
      00000080H.0 SFRSYM    DATA     BIT       P00
      00000099H   SFRSYM    DATA     BYTE      SBUF
      00000087H   SFRSYM    DATA     BYTE      PCON
      00000090H.0 SFRSYM    DATA     BIT       P10
      00000080H.1 SFRSYM    DATA     BIT       P01
      000000A0H.0 SFRSYM    DATA     BIT       P20
LX51 LINKER/LOCATER V4.66.87.0                                                        05/29/2018  21:11:03  PAGE 139


      00000090H.1 SFRSYM    DATA     BIT       P11
      00000080H.2 SFRSYM    DATA     BIT       P02
      000000E3H   SFRSYM    DATA     BYTE      ISP_ADDRH
      000000B0H.0 SFRSYM    DATA     BIT       P30
      000000A0H.1 SFRSYM    DATA     BIT       P21
      00000090H.2 SFRSYM    DATA     BIT       P12
      00000080H.3 SFRSYM    DATA     BIT       P03
      00000098H   SFRSYM    DATA     BYTE      SCON
      000000B0H.1 SFRSYM    DATA     BIT       P31
      000000A0H.2 SFRSYM    DATA     BIT       P22
      00000090H.3 SFRSYM    DATA     BIT       P13
      00000080H.4 SFRSYM    DATA     BIT       P04
      000000E8H.0 SFRSYM    DATA     BIT       P40
      00000089H   SFRSYM    DATA     BYTE      TMOD
      00000088H   SFRSYM    DATA     BYTE      TCON
      000000B0H.2 SFRSYM    DATA     BIT       P32
      000000A0H.3 SFRSYM    DATA     BIT       P23
      00000090H.4 SFRSYM    DATA     BIT       P14
      00000080H.5 SFRSYM    DATA     BIT       P05
      000000E8H.1 SFRSYM    DATA     BIT       P41
      000000B0H.3 SFRSYM    DATA     BIT       P33
      000000A0H.4 SFRSYM    DATA     BIT       P24
      00000090H.5 SFRSYM    DATA     BIT       P15
      00000080H.6 SFRSYM    DATA     BIT       P06
      000000E4H   SFRSYM    DATA     BYTE      ISP_ADDRL
      000000E8H.2 SFRSYM    DATA     BIT       P42
      000000B0H.4 SFRSYM    DATA     BIT       P34
      000000A0H.5 SFRSYM    DATA     BIT       P25
      00000090H.6 SFRSYM    DATA     BIT       P16
      00000080H.7 SFRSYM    DATA     BIT       P07
      000000E8H.3 SFRSYM    DATA     BIT       P43
      000000B0H.5 SFRSYM    DATA     BIT       P35
      000000A0H.6 SFRSYM    DATA     BIT       P26
      00000090H.7 SFRSYM    DATA     BIT       P17
      000000E8H.4 SFRSYM    DATA     BIT       P44
      000000B0H.6 SFRSYM    DATA     BIT       P36
      000000A0H.7 SFRSYM    DATA     BIT       P27
      000000E8H.5 SFRSYM    DATA     BIT       P45
      000000B0H.7 SFRSYM    DATA     BIT       P37
      000000E8H.6 SFRSYM    DATA     BIT       P46
      00000088H.1 SFRSYM    DATA     BIT       IE0
      00000088H.3 SFRSYM    DATA     BIT       IE1
      0000008EH   SFRSYM    DATA     BYTE      AUXR
      000000F0H   SFRSYM    DATA     BYTE      B
      000000C8H.0 SFRSYM    DATA     BIT       CP_RL2
      000000E0H   SFRSYM    DATA     BYTE      ACC
      000000A8H.1 SFRSYM    DATA     BIT       ET0
      000000A8H.3 SFRSYM    DATA     BIT       ET1
      00000088H.5 SFRSYM    DATA     BIT       TF0
      000000A8H.5 SFRSYM    DATA     BIT       ET2
      00000088H.7 SFRSYM    DATA     BIT       TF1
      000000C8H.7 SFRSYM    DATA     BIT       TF2
      00000098H.2 SFRSYM    DATA     BIT       RB8
      0000008CH   SFRSYM    DATA     BYTE      TH0
      000000A8H.0 SFRSYM    DATA     BIT       EX0
      00000088H.0 SFRSYM    DATA     BIT       IT0
      0000008DH   SFRSYM    DATA     BYTE      TH1
      00000098H.3 SFRSYM    DATA     BIT       TB8
      000000A8H.2 SFRSYM    DATA     BIT       EX1
      00000088H.2 SFRSYM    DATA     BIT       IT1
      000000CDH   SFRSYM    DATA     BYTE      TH2
      000000D0H.0 SFRSYM    DATA     BIT       P
      00000098H.7 SFRSYM    DATA     BIT       SM0
      0000008AH   SFRSYM    DATA     BYTE      TL0
      00000098H.6 SFRSYM    DATA     BIT       SM1
LX51 LINKER/LOCATER V4.66.87.0                                                        05/29/2018  21:11:03  PAGE 140


      0000008BH   SFRSYM    DATA     BYTE      TL1
      00000098H.5 SFRSYM    DATA     BIT       SM2
      000000CCH   SFRSYM    DATA     BYTE      TL2
      000000B8H.1 SFRSYM    DATA     BIT       PT0
      000000B8H.3 SFRSYM    DATA     BIT       PT1
      000000D0H.3 SFRSYM    DATA     BIT       RS0
      000000E7H   SFRSYM    DATA     BYTE      ISP_CONTR
      000000B8H.5 SFRSYM    DATA     BIT       PT2
      00000088H.4 SFRSYM    DATA     BIT       TR0
      000000D0H.4 SFRSYM    DATA     BIT       RS1
      00000088H.6 SFRSYM    DATA     BIT       TR1
      000000C8H.2 SFRSYM    DATA     BIT       TR2
      000000B8H.0 SFRSYM    DATA     BIT       PX0
      000000E1H   SFRSYM    DATA     BYTE      WDT_CONTR
      000000B8H.2 SFRSYM    DATA     BIT       PX1
      00000083H   SFRSYM    DATA     BYTE      DPH
      00000082H   SFRSYM    DATA     BYTE      DPL
      000000B7H   SFRSYM    DATA     BYTE      IPH
      000000C8H.3 SFRSYM    DATA     BIT       EXEN2
      00000098H.4 SFRSYM    DATA     BIT       REN
      000000C9H   SFRSYM    DATA     BYTE      T2MOD
      000000C8H   SFRSYM    DATA     BYTE      T2CON
      000000E2H   SFRSYM    DATA     BYTE      ISP_DATA
      000000B9H   SFRSYM    DATA     BYTE      SADEN
      000000B0H.0 SFRSYM    DATA     BIT       RXD
      000000A9H   SFRSYM    DATA     BYTE      SADDR
      000000B0H.1 SFRSYM    DATA     BIT       TXD
      000000A2H   SFRSYM    DATA     BYTE      AUXR1
      000000D0H.5 SFRSYM    DATA     BIT       F0
      000000D0H   SFRSYM    DATA     BYTE      PSW
      010071F9H   SYMBOL    CODE     ---       fuse_power_on
      01007220H   SYMBOL    CODE     ---       fuse_power_off
      00000024H.5 SYMBOL    BIT      BIT       fuse_enabled

      010071F9H   BLOCK     CODE     ---       LVL=0
      010071F9H   LINE      CODE     ---       #17
      010071F9H   LINE      CODE     ---       #18
      010071F9H   LINE      CODE     ---       #19
      01007200H   LINE      CODE     ---       #20
      01007207H   LINE      CODE     ---       #21
      01007207H   LINE      CODE     ---       #22
      0100720AH   LINE      CODE     ---       #23
      0100720AH   LINE      CODE     ---       #24
      0100720DH   LINE      CODE     ---       #25
      01007210H   LINE      CODE     ---       #26
      01007212H   LINE      CODE     ---       #27
      ---         BLOCKEND  ---      ---       LVL=0

      01007220H   BLOCK     CODE     ---       LVL=0
      01007220H   LINE      CODE     ---       #29
      01007220H   LINE      CODE     ---       #30
      01007220H   LINE      CODE     ---       #31
      01007227H   LINE      CODE     ---       #32
      0100722EH   LINE      CODE     ---       #33
      0100722EH   LINE      CODE     ---       #34
      01007231H   LINE      CODE     ---       #35
      01007231H   LINE      CODE     ---       #36
      01007234H   LINE      CODE     ---       #37
      01007237H   LINE      CODE     ---       #38
      01007239H   LINE      CODE     ---       #39
      ---         BLOCKEND  ---      ---       LVL=0

      010084EFH   BLOCK     CODE     ---       LVL=0
      010084EFH   LINE      CODE     ---       #41
      010084EFH   LINE      CODE     ---       #42
LX51 LINKER/LOCATER V4.66.87.0                                                        05/29/2018  21:11:03  PAGE 141


      010084EFH   LINE      CODE     ---       #43
      010084F8H   LINE      CODE     ---       #44
      ---         BLOCKEND  ---      ---       LVL=0

      010068C6H   BLOCK     CODE     ---       LVL=0
      00000020H.0 SYMBOL    BIT      BIT       enable
      010068C6H   LINE      CODE     ---       #48
      010068C6H   LINE      CODE     ---       #49
      010068C6H   LINE      CODE     ---       #50
      010068DBH   LINE      CODE     ---       #52
      010068DEH   LINE      CODE     ---       #55
      010068E5H   LINE      CODE     ---       #58
      010068EFH   LINE      CODE     ---       #59
      010068F8H   LINE      CODE     ---       #60
      010068FBH   LINE      CODE     ---       #61
      ---         BLOCKEND  ---      ---       LVL=0

      0100868AH   BLOCK     CODE     ---       LVL=0
      0100868AH   LINE      CODE     ---       #63
      0100868AH   LINE      CODE     ---       #64
      0100868AH   LINE      CODE     ---       #65
      ---         BLOCKEND  ---      ---       LVL=0

      01008693H   BLOCK     CODE     ---       LVL=0
      01008693H   LINE      CODE     ---       #68
      01008693H   LINE      CODE     ---       #69
      01008693H   LINE      CODE     ---       #70
      ---         BLOCKEND  ---      ---       LVL=0

      010045C0H   BLOCK     CODE     ---       LVL=0
      02000016H   SYMBOL    XDATA    WORD      status
      010045C8H   BLOCK     CODE     NEAR LAB  LVL=1
      00000020H.0 SYMBOL    BIT      BIT       has_event
      ---         BLOCKEND  ---      ---       LVL=1
      010045C0H   LINE      CODE     ---       #73
      010045C8H   LINE      CODE     ---       #74
      010045C8H   LINE      CODE     ---       #75
      010045CAH   LINE      CODE     ---       #76
      010045DBH   LINE      CODE     ---       #78
      010045E2H   LINE      CODE     ---       #79
      010045EBH   LINE      CODE     ---       #80
      010045EEH   LINE      CODE     ---       #81
      010045F7H   LINE      CODE     ---       #82
      010045F9H   LINE      CODE     ---       #83
      010045F9H   LINE      CODE     ---       #85
      01004600H   LINE      CODE     ---       #86
      01004609H   LINE      CODE     ---       #87
      0100460CH   LINE      CODE     ---       #88
      01004615H   LINE      CODE     ---       #89
      01004617H   LINE      CODE     ---       #90
      01004617H   LINE      CODE     ---       #92
      0100461EH   LINE      CODE     ---       #93
      01004627H   LINE      CODE     ---       #94
      0100462AH   LINE      CODE     ---       #95
      01004630H   LINE      CODE     ---       #96
      01004632H   LINE      CODE     ---       #97
      01004632H   LINE      CODE     ---       #99
      0100463AH   LINE      CODE     ---       #100
      0100463DH   LINE      CODE     ---       #101
      0100463DH   LINE      CODE     ---       #102
      ---         BLOCKEND  ---      ---       LVL=0

      01007BB8H   BLOCK     CODE     ---       LVL=0
      0200000CH   SYMBOL    XDATA    BYTE      ev
      01007BB8H   LINE      CODE     ---       #104
LX51 LINKER/LOCATER V4.66.87.0                                                        05/29/2018  21:11:03  PAGE 142


      01007BBDH   LINE      CODE     ---       #105
      01007BBDH   LINE      CODE     ---       #106
      01007BCAH   LINE      CODE     ---       #107
      ---         BLOCKEND  ---      ---       LVL=0

      01006405H   BLOCK     CODE     ---       LVL=0
      02000012H   SYMBOL    XDATA    BYTE      index
      00000020H.0 SYMBOL    BIT      BIT       enable
      01006405H   LINE      CODE     ---       #111
      0100640AH   LINE      CODE     ---       #112
      0100640AH   LINE      CODE     ---       #113
      01006423H   LINE      CODE     ---       #115
      01006426H   LINE      CODE     ---       #117
      0100642CH   LINE      CODE     ---       #118
      01006435H   LINE      CODE     ---       #120
      0100643FH   LINE      CODE     ---       #122
      01006442H   LINE      CODE     ---       #123
      ---         BLOCKEND  ---      ---       LVL=0

      010072BAH   BLOCK     CODE     ---       LVL=0
      00000020H.0 SYMBOL    BIT      BIT       broke
      010072BAH   LINE      CODE     ---       #125
      010072BAH   LINE      CODE     ---       #126
      010072BAH   LINE      CODE     ---       #127
      010072CFH   LINE      CODE     ---       #129
      010072D2H   LINE      CODE     ---       #131
      010072DCH   LINE      CODE     ---       #132
      010072DFH   LINE      CODE     ---       #133
      ---         BLOCKEND  ---      ---       LVL=0

      01007182H   BLOCK     CODE     ---       LVL=0
      00000020H.1 SYMBOL    BIT      BIT       enable
      01007182H   LINE      CODE     ---       #135
      01007182H   LINE      CODE     ---       #136
      01007182H   LINE      CODE     ---       #137
      01007197H   LINE      CODE     ---       #139
      0100719DH   LINE      CODE     ---       #140
      010071A0H   LINE      CODE     ---       #141
      010071A6H   LINE      CODE     ---       #142
      010071A9H   LINE      CODE     ---       #143
      010071A9H   LINE      CODE     ---       #144
      ---         BLOCKEND  ---      ---       LVL=0

      ---         MODULE    ---      ---       HG
      010081DAH   PUBLIC    CODE     ---       hg_get_state
      00000020H.1 PUBLIC    BIT      BIT       ?hg_enable?BIT
      010071AAH   PUBLIC    CODE     ---       hg_enable
      01008507H   PUBLIC    CODE     ---       hg_initialize
      01004A0EH   PUBLIC    CODE     ---       _scan_hg
      010086A5H   PUBLIC    CODE     ---       hg_leave_powersave
      0100869CH   PUBLIC    CODE     ---       hg_enter_powersave
      00000024H.6 SYMBOL    BIT      BIT       hg_enabled
      01007B34H   SYMBOL    CODE     ---       hg_power_on
      020000E7H   SYMBOL    XDATA    BYTE      hg_state
      010081C8H   SYMBOL    CODE     ---       __hg_get_state
      010084FBH   SYMBOL    CODE     ---       hg_cb_set_enable
      010084BEH   SYMBOL    CODE     ---       hg_power_off

      01008587H   BLOCK     CODE     ---       LVL=0
      ---         BLOCKEND  ---      ---       LVL=0

      0100869CH   BLOCK     CODE     ---       LVL=0
      0100869CH   LINE      CODE     ---       #15
      0100869CH   LINE      CODE     ---       #16
      0100869CH   LINE      CODE     ---       #17
LX51 LINKER/LOCATER V4.66.87.0                                                        05/29/2018  21:11:03  PAGE 143


      ---         BLOCKEND  ---      ---       LVL=0

      010086A5H   BLOCK     CODE     ---       LVL=0
      010086A5H   LINE      CODE     ---       #20
      010086A5H   LINE      CODE     ---       #21
      010086A5H   LINE      CODE     ---       #22
      ---         BLOCKEND  ---      ---       LVL=0

      010081C8H   BLOCK     CODE     ---       LVL=0
      00000006H   SYMBOL    DATA     WORD      status
      010081C8H   LINE      CODE     ---       #25
      010081C8H   LINE      CODE     ---       #26
      010081C8H   LINE      CODE     ---       #27
      010081D9H   LINE      CODE     ---       #28
      ---         BLOCKEND  ---      ---       LVL=0

      010084FBH   BLOCK     CODE     ---       LVL=0
      010084FBH   LINE      CODE     ---       #30
      010084FBH   LINE      CODE     ---       #31
      010084FBH   LINE      CODE     ---       #32
      01008504H   LINE      CODE     ---       #33
      01008506H   LINE      CODE     ---       #34
      ---         BLOCKEND  ---      ---       LVL=0

      01004A0EH   BLOCK     CODE     ---       LVL=0
      02000016H   SYMBOL    XDATA    WORD      status
      01004A16H   BLOCK     CODE     NEAR LAB  LVL=1
      02000018H   SYMBOL    XDATA    BYTE      hg_new_state
      ---         BLOCKEND  ---      ---       LVL=1
      01004A0EH   LINE      CODE     ---       #36
      01004A16H   LINE      CODE     ---       #37
      01004A16H   LINE      CODE     ---       #39
      01004A27H   LINE      CODE     ---       #41
      01004A35H   LINE      CODE     ---       #43
      01004A42H   LINE      CODE     ---       #45
      01004A4EH   LINE      CODE     ---       #46
      01004A51H   LINE      CODE     ---       #47
      01004A5AH   LINE      CODE     ---       #48
      01004A60H   LINE      CODE     ---       #49
      01004A60H   LINE      CODE     ---       #50
      01004A65H   LINE      CODE     ---       #51
      01004A68H   LINE      CODE     ---       #52
      01004A68H   LINE      CODE     ---       #54
      01004A7AH   LINE      CODE     ---       #55
      01004A82H   LINE      CODE     ---       #56
      01004A82H   LINE      CODE     ---       #58
      ---         BLOCKEND  ---      ---       LVL=0

      01007B34H   BLOCK     CODE     ---       LVL=0
      01007B34H   LINE      CODE     ---       #60
      01007B34H   LINE      CODE     ---       #61
      01007B34H   LINE      CODE     ---       #62
      01007B3BH   LINE      CODE     ---       #63
      01007B3EH   LINE      CODE     ---       #64
      01007B44H   LINE      CODE     ---       #65
      ---         BLOCKEND  ---      ---       LVL=0

      010084BEH   BLOCK     CODE     ---       LVL=0
      010084BEH   LINE      CODE     ---       #68
      010084BEH   LINE      CODE     ---       #69
      010084BEH   LINE      CODE     ---       #70
      010084C5H   LINE      CODE     ---       #71
      010084C8H   LINE      CODE     ---       #72
      010084CAH   LINE      CODE     ---       #73
      ---         BLOCKEND  ---      ---       LVL=0
LX51 LINKER/LOCATER V4.66.87.0                                                        05/29/2018  21:11:03  PAGE 144



      01008507H   BLOCK     CODE     ---       LVL=0
      01008507H   LINE      CODE     ---       #75
      01008507H   LINE      CODE     ---       #76
      01008507H   LINE      CODE     ---       #77
      01008510H   LINE      CODE     ---       #78
      ---         BLOCKEND  ---      ---       LVL=0

      010071AAH   BLOCK     CODE     ---       LVL=0
      00000020H.1 SYMBOL    BIT      BIT       enable
      010071AAH   LINE      CODE     ---       #81
      010071AAH   LINE      CODE     ---       #82
      010071AAH   LINE      CODE     ---       #83
      010071BFH   LINE      CODE     ---       #84
      010071C5H   LINE      CODE     ---       #85
      010071C8H   LINE      CODE     ---       #87
      010071CEH   LINE      CODE     ---       #88
      010071D1H   LINE      CODE     ---       #89
      010071D1H   LINE      CODE     ---       #90
      ---         BLOCKEND  ---      ---       LVL=0

      010081DAH   BLOCK     CODE     ---       LVL=0
      010081DAH   LINE      CODE     ---       #92
      010081DAH   LINE      CODE     ---       #93
      010081DAH   LINE      CODE     ---       #94
      010081E6H   LINE      CODE     ---       #95
      010081EBH   LINE      CODE     ---       #96
      ---         BLOCKEND  ---      ---       LVL=0

      ---         MODULE    ---      ---       LT_TIMER
      01006537H   PUBLIC    CODE     ---       lt_timer_sync_to_rtc
      00000020H.0 PUBLIC    BIT      BIT       ?lt_timer_get_relative?BIT
      01004FABH   PUBLIC    CODE     ---       lt_timer_get_relative
      010057D8H   PUBLIC    CODE     ---       _lt_timer_save_to_rom
      01006822H   PUBLIC    CODE     ---       lt_timer_load_from_rom
      01003DFBH   PUBLIC    CODE     ---       lt_timer_dec_sec
      0100839FH   PUBLIC    CODE     ---       lt_timer_reset
      00000020H.0 PUBLIC    BIT      BIT       ?lt_timer_display?BIT
      01007BD2H   PUBLIC    CODE     ---       lt_timer_display
      01007E01H   PUBLIC    CODE     ---       lt_timer_switch_display
      01008513H   PUBLIC    CODE     ---       lt_timer_stop_ram
      0100846AH   PUBLIC    CODE     ---       lt_timer_start_ram
      010077C7H   PUBLIC    CODE     ---       lt_timer_stop_rtc
      010077A9H   PUBLIC    CODE     ---       lt_timer_start_rtc
      010087B2H   PUBLIC    CODE     ---       lt_timer_get_date
      01008804H   PUBLIC    CODE     ---       lt_timer_get_sec
      010087FFH   PUBLIC    CODE     ---       lt_timer_get_min
      010087FAH   PUBLIC    CODE     ---       lt_timer_get_hour
      010087ACH   PUBLIC    CODE     ---       lt_timer_get_month
      010087F5H   PUBLIC    CODE     ---       lt_timer_get_year
      010085BEH   PUBLIC    CODE     ---       lt_timer_inc_sec
      010085B3H   PUBLIC    CODE     ---       lt_timer_inc_min
      010085A8H   PUBLIC    CODE     ---       lt_timer_inc_hour
      0100816CH   PUBLIC    CODE     ---       lt_timer_inc_date
      0100859DH   PUBLIC    CODE     ---       lt_timer_inc_month
      01008592H   PUBLIC    CODE     ---       lt_timer_inc_year
      01005EF1H   PUBLIC    CODE     ---       scan_lt_timer
      0100768CH   PUBLIC    CODE     ---       lt_timer_switch_off
      010081FEH   PUBLIC    CODE     ---       lt_timer_switch_on
      01007472H   PUBLIC    CODE     ---       lt_timer_leave_powersave
      01007FA2H   PUBLIC    CODE     ---       lt_timer_enter_powersave
      010081ECH   PUBLIC    CODE     ---       lt_timer_initialize
      01003467H   SYMBOL    CODE     ---       lt_timer_sub_date
      00000022H.0 SYMBOL    BIT      BIT       lt_tmr_start
      0100AC4DH   SYMBOL    CONST    ---       leap_month
LX51 LINKER/LOCATER V4.66.87.0                                                        05/29/2018  21:11:03  PAGE 145


      01006621H   SYMBOL    CODE     ---       lt_timer_sub_hour_date
      00000022H.1 SYMBOL    BIT      BIT       lt_tmr_disp_day
      00000048H   SYMBOL    IDATA    ---       ltm
      010077E5H   SYMBOL    CODE     ---       lt_timer_sub_sec_min
      010065E7H   SYMBOL    CODE     ---       lt_timer_sub_min_hour
      00000022H.2 SYMBOL    BIT      BIT       lt_tmr_display
      00000022H.3 SYMBOL    BIT      BIT       lt_tmr_stopped

      01004A83H   BLOCK     CODE     ---       LVL=0
      ---         BLOCKEND  ---      ---       LVL=0

      010081ECH   BLOCK     CODE     ---       LVL=0
      010081ECH   LINE      CODE     ---       #21
      010081ECH   LINE      CODE     ---       #22
      010081ECH   LINE      CODE     ---       #23
      010081F5H   LINE      CODE     ---       #24
      010081F7H   LINE      CODE     ---       #25
      010081F9H   LINE      CODE     ---       #26
      010081FBH   LINE      CODE     ---       #27
      010081FDH   LINE      CODE     ---       #28
      ---         BLOCKEND  ---      ---       LVL=0

      01007FA2H   BLOCK     CODE     ---       LVL=0
      01007FA2H   LINE      CODE     ---       #30
      01007FA2H   LINE      CODE     ---       #31
      01007FA2H   LINE      CODE     ---       #32
      01007FABH   LINE      CODE     ---       #33
      01007FB0H   LINE      CODE     ---       #34
      01007FB3H   LINE      CODE     ---       #35
      01007FB6H   LINE      CODE     ---       #36
      01007FB6H   LINE      CODE     ---       #37
      ---         BLOCKEND  ---      ---       LVL=0

      01007472H   BLOCK     CODE     ---       LVL=0
      01007472H   LINE      CODE     ---       #39
      01007472H   LINE      CODE     ---       #40
      01007472H   LINE      CODE     ---       #41
      0100747BH   LINE      CODE     ---       #42
      01007480H   LINE      CODE     ---       #43
      01007483H   LINE      CODE     ---       #44
      01007486H   LINE      CODE     ---       #45
      0100748DH   LINE      CODE     ---       #46
      0100748DH   LINE      CODE     ---       #47
      01007490H   LINE      CODE     ---       #48
      01007491H   LINE      CODE     ---       #49
      01007494H   LINE      CODE     ---       #50
      01007494H   LINE      CODE     ---       #51
      01007494H   LINE      CODE     ---       #52
      ---         BLOCKEND  ---      ---       LVL=0

      010081FEH   BLOCK     CODE     ---       LVL=0
      010081FEH   LINE      CODE     ---       #54
      010081FEH   LINE      CODE     ---       #55
      010081FEH   LINE      CODE     ---       #56
      01008207H   LINE      CODE     ---       #57
      0100820AH   LINE      CODE     ---       #58
      0100820DH   LINE      CODE     ---       #59
      ---         BLOCKEND  ---      ---       LVL=0

      0100768CH   BLOCK     CODE     ---       LVL=0
      0100768CH   LINE      CODE     ---       #62
      0100768CH   LINE      CODE     ---       #63
      0100768CH   LINE      CODE     ---       #64
      01007695H   LINE      CODE     ---       #65
      0100769AH   LINE      CODE     ---       #66
LX51 LINKER/LOCATER V4.66.87.0                                                        05/29/2018  21:11:03  PAGE 146


      010076A1H   LINE      CODE     ---       #67
      010076A7H   LINE      CODE     ---       #68
      ---         BLOCKEND  ---      ---       LVL=0

      01005EF1H   BLOCK     CODE     ---       LVL=0
      01005EF1H   BLOCK     CODE     NEAR LAB  LVL=1
      00000020H.0 SYMBOL    BIT      BIT       alarm0_hit
      ---         BLOCKEND  ---      ---       LVL=1
      01005EF1H   LINE      CODE     ---       #71
      01005EF1H   LINE      CODE     ---       #72
      01005EF1H   LINE      CODE     ---       #75
      01005EFAH   LINE      CODE     ---       #77
      01005EFFH   LINE      CODE     ---       #78
      01005F06H   LINE      CODE     ---       #79
      01005F0AH   LINE      CODE     ---       #80
      01005F0FH   LINE      CODE     ---       #82
      01005F12H   LINE      CODE     ---       #83
      01005F17H   LINE      CODE     ---       #84
      01005F2FH   LINE      CODE     ---       #85
      01005F2FH   LINE      CODE     ---       #86
      01005F34H   LINE      CODE     ---       #87
      01005F37H   LINE      CODE     ---       #88
      01005F37H   LINE      CODE     ---       #89
      01005F3AH   LINE      CODE     ---       #90
      01005F3AH   LINE      CODE     ---       #91
      01005F3AH   LINE      CODE     ---       #92
      ---         BLOCKEND  ---      ---       LVL=0

      01008592H   BLOCK     CODE     ---       LVL=0
      01008592H   LINE      CODE     ---       #94
      01008592H   LINE      CODE     ---       #95
      01008592H   LINE      CODE     ---       #96
      0100859CH   LINE      CODE     ---       #97
      ---         BLOCKEND  ---      ---       LVL=0

      0100859DH   BLOCK     CODE     ---       LVL=0
      0100859DH   LINE      CODE     ---       #99
      0100859DH   LINE      CODE     ---       #100
      0100859DH   LINE      CODE     ---       #101
      010085A7H   LINE      CODE     ---       #102
      ---         BLOCKEND  ---      ---       LVL=0

      0100816CH   BLOCK     CODE     ---       LVL=0
      0100816CH   LINE      CODE     ---       #104
      0100816CH   LINE      CODE     ---       #105
      0100816CH   LINE      CODE     ---       #106
      0100817EH   LINE      CODE     ---       #107
      ---         BLOCKEND  ---      ---       LVL=0

      010085A8H   BLOCK     CODE     ---       LVL=0
      010085A8H   LINE      CODE     ---       #109
      010085A8H   LINE      CODE     ---       #110
      010085A8H   LINE      CODE     ---       #111
      010085B2H   LINE      CODE     ---       #112
      ---         BLOCKEND  ---      ---       LVL=0

      010085B3H   BLOCK     CODE     ---       LVL=0
      010085B3H   LINE      CODE     ---       #114
      010085B3H   LINE      CODE     ---       #115
      010085B3H   LINE      CODE     ---       #116
      010085BDH   LINE      CODE     ---       #117
      ---         BLOCKEND  ---      ---       LVL=0

      010085BEH   BLOCK     CODE     ---       LVL=0
      010085BEH   LINE      CODE     ---       #119
LX51 LINKER/LOCATER V4.66.87.0                                                        05/29/2018  21:11:03  PAGE 147


      010085BEH   LINE      CODE     ---       #120
      010085BEH   LINE      CODE     ---       #121
      010085C8H   LINE      CODE     ---       #122
      ---         BLOCKEND  ---      ---       LVL=0

      010087F5H   BLOCK     CODE     ---       LVL=0
      010087F5H   LINE      CODE     ---       #124
      010087F5H   LINE      CODE     ---       #125
      010087F5H   LINE      CODE     ---       #126
      010087F9H   LINE      CODE     ---       #127
      ---         BLOCKEND  ---      ---       LVL=0

      010087ACH   BLOCK     CODE     ---       LVL=0
      010087ACH   LINE      CODE     ---       #129
      010087ACH   LINE      CODE     ---       #130
      010087ACH   LINE      CODE     ---       #131
      010087B1H   LINE      CODE     ---       #132
      ---         BLOCKEND  ---      ---       LVL=0

      010087FAH   BLOCK     CODE     ---       LVL=0
      010087FAH   LINE      CODE     ---       #134
      010087FAH   LINE      CODE     ---       #135
      010087FAH   LINE      CODE     ---       #136
      010087FEH   LINE      CODE     ---       #137
      ---         BLOCKEND  ---      ---       LVL=0

      010087FFH   BLOCK     CODE     ---       LVL=0
      010087FFH   LINE      CODE     ---       #139
      010087FFH   LINE      CODE     ---       #140
      010087FFH   LINE      CODE     ---       #141
      01008803H   LINE      CODE     ---       #142
      ---         BLOCKEND  ---      ---       LVL=0

      01008804H   BLOCK     CODE     ---       LVL=0
      01008804H   LINE      CODE     ---       #144
      01008804H   LINE      CODE     ---       #145
      01008804H   LINE      CODE     ---       #146
      01008808H   LINE      CODE     ---       #147
      ---         BLOCKEND  ---      ---       LVL=0

      010087B2H   BLOCK     CODE     ---       LVL=0
      010087B2H   LINE      CODE     ---       #149
      010087B2H   LINE      CODE     ---       #150
      010087B2H   LINE      CODE     ---       #151
      010087B7H   LINE      CODE     ---       #152
      ---         BLOCKEND  ---      ---       LVL=0

      010077A9H   BLOCK     CODE     ---       LVL=0
      010077A9H   LINE      CODE     ---       #154
      010077A9H   LINE      CODE     ---       #155
      010077A9H   LINE      CODE     ---       #156
      010077B2H   LINE      CODE     ---       #157
      010077B7H   LINE      CODE     ---       #158
      010077BEH   LINE      CODE     ---       #159
      010077C2H   LINE      CODE     ---       #160
      ---         BLOCKEND  ---      ---       LVL=0

      010077C7H   BLOCK     CODE     ---       LVL=0
      010077C7H   LINE      CODE     ---       #163
      010077C7H   LINE      CODE     ---       #164
      010077C7H   LINE      CODE     ---       #165
      010077D0H   LINE      CODE     ---       #166
      010077D5H   LINE      CODE     ---       #167
      010077DCH   LINE      CODE     ---       #168
      010077E0H   LINE      CODE     ---       #169
LX51 LINKER/LOCATER V4.66.87.0                                                        05/29/2018  21:11:03  PAGE 148


      ---         BLOCKEND  ---      ---       LVL=0

      0100846AH   BLOCK     CODE     ---       LVL=0
      0100846AH   LINE      CODE     ---       #172
      0100846AH   LINE      CODE     ---       #173
      0100846AH   LINE      CODE     ---       #174
      01008473H   LINE      CODE     ---       #175
      01008475H   LINE      CODE     ---       #176
      01008477H   LINE      CODE     ---       #177
      ---         BLOCKEND  ---      ---       LVL=0

      01008513H   BLOCK     CODE     ---       LVL=0
      01008513H   LINE      CODE     ---       #179
      01008513H   LINE      CODE     ---       #180
      01008513H   LINE      CODE     ---       #181
      0100851CH   LINE      CODE     ---       #182
      0100851EH   LINE      CODE     ---       #183
      ---         BLOCKEND  ---      ---       LVL=0

      01007E01H   BLOCK     CODE     ---       LVL=0
      01007E01H   LINE      CODE     ---       #185
      01007E01H   LINE      CODE     ---       #186
      01007E01H   LINE      CODE     ---       #187
      01007E03H   LINE      CODE     ---       #188
      ---         BLOCKEND  ---      ---       LVL=0

      01007BD2H   BLOCK     CODE     ---       LVL=0
      00000020H.0 SYMBOL    BIT      BIT       enable
      01007BD2H   LINE      CODE     ---       #191
      01007BD2H   LINE      CODE     ---       #192
      01007BD2H   LINE      CODE     ---       #193
      01007BE7H   LINE      CODE     ---       #194
      01007BEBH   LINE      CODE     ---       #195
      ---         BLOCKEND  ---      ---       LVL=0

      0100839FH   BLOCK     CODE     ---       LVL=0
      0100839FH   LINE      CODE     ---       #197
      0100839FH   LINE      CODE     ---       #198
      0100839FH   LINE      CODE     ---       #199
      010083A2H   LINE      CODE     ---       #200
      010083A5H   LINE      CODE     ---       #201
      010083A7H   LINE      CODE     ---       #202
      010083A9H   LINE      CODE     ---       #203
      010083ABH   LINE      CODE     ---       #204
      010083ADH   LINE      CODE     ---       #205
      ---         BLOCKEND  ---      ---       LVL=0

      010077E5H   BLOCK     CODE     ---       LVL=0
      010077E5H   BLOCK     CODE     NEAR LAB  LVL=1
      00000020H.2 SYMBOL    BIT      BIT       borrow_min
      ---         BLOCKEND  ---      ---       LVL=1
      010077E5H   LINE      CODE     ---       #209
      010077E5H   LINE      CODE     ---       #210
      010077E5H   LINE      CODE     ---       #212
      010077E7H   LINE      CODE     ---       #214
      010077F1H   LINE      CODE     ---       #216
      010077F5H   LINE      CODE     ---       #217
      010077F7H   LINE      CODE     ---       #218
      010077F7H   LINE      CODE     ---       #220
      01007800H   LINE      CODE     ---       #222
      01007802H   LINE      CODE     ---       #223
      ---         BLOCKEND  ---      ---       LVL=0

      010065E7H   BLOCK     CODE     ---       LVL=0
      00000020H.2 SYMBOL    BIT      BIT       borrow_min
LX51 LINKER/LOCATER V4.66.87.0                                                        05/29/2018  21:11:03  PAGE 149


      010065E7H   BLOCK     CODE     NEAR LAB  LVL=1
      00000020H.3 SYMBOL    BIT      BIT       borrow_hour
      ---         BLOCKEND  ---      ---       LVL=1
      010065E7H   LINE      CODE     ---       #227
      010065E7H   LINE      CODE     ---       #228
      010065E7H   LINE      CODE     ---       #230
      010065E9H   LINE      CODE     ---       #232
      01006600H   LINE      CODE     ---       #234
      01006606H   LINE      CODE     ---       #235
      01006608H   LINE      CODE     ---       #236
      01006608H   LINE      CODE     ---       #238
      01006611H   LINE      CODE     ---       #239
      0100661EH   LINE      CODE     ---       #241
      01006620H   LINE      CODE     ---       #242
      ---         BLOCKEND  ---      ---       LVL=0

      01006621H   BLOCK     CODE     ---       LVL=0
      00000020H.2 SYMBOL    BIT      BIT       borrow_hour
      01006621H   BLOCK     CODE     NEAR LAB  LVL=1
      00000020H.3 SYMBOL    BIT      BIT       borrow_date
      ---         BLOCKEND  ---      ---       LVL=1
      01006621H   LINE      CODE     ---       #245
      01006621H   LINE      CODE     ---       #246
      01006621H   LINE      CODE     ---       #248
      01006623H   LINE      CODE     ---       #250
      0100663AH   LINE      CODE     ---       #252
      01006640H   LINE      CODE     ---       #253
      01006642H   LINE      CODE     ---       #254
      01006642H   LINE      CODE     ---       #256
      0100664BH   LINE      CODE     ---       #257
      01006658H   LINE      CODE     ---       #259
      0100665AH   LINE      CODE     ---       #260
      ---         BLOCKEND  ---      ---       LVL=0

      01003467H   BLOCK     CODE     ---       LVL=0
      00000020H.2 SYMBOL    BIT      BIT       borrow_date
      01003467H   BLOCK     CODE     NEAR LAB  LVL=1
      00000006H   SYMBOL    DATA     BYTE      i
      00000005H   SYMBOL    DATA     BYTE      j
      02000015H   SYMBOL    XDATA    INT       day
      ---         BLOCKEND  ---      ---       LVL=1
      01003467H   LINE      CODE     ---       #264
      01003467H   LINE      CODE     ---       #265
      01003467H   LINE      CODE     ---       #269
      0100346EH   LINE      CODE     ---       #272
      0100347CH   LINE      CODE     ---       #273
      01003492H   LINE      CODE     ---       #275
      0100349FH   LINE      CODE     ---       #277
      010034AAH   LINE      CODE     ---       #278
      010034B4H   LINE      CODE     ---       #280
      010034C1H   LINE      CODE     ---       #281
      010034D5H   LINE      CODE     ---       #283
      010034F9H   LINE      CODE     ---       #285
      010034FCH   LINE      CODE     ---       #286
      01003506H   LINE      CODE     ---       #288
      01003516H   LINE      CODE     ---       #289
      0100351AH   LINE      CODE     ---       #290
      0100351CH   LINE      CODE     ---       #291
      0100351EH   LINE      CODE     ---       #292
      01003520H   LINE      CODE     ---       #293
      01003521H   LINE      CODE     ---       #294
      01003525H   LINE      CODE     ---       #295
      01003525H   LINE      CODE     ---       #296
      ---         BLOCKEND  ---      ---       LVL=0

LX51 LINKER/LOCATER V4.66.87.0                                                        05/29/2018  21:11:03  PAGE 150


      01003DFBH   BLOCK     CODE     ---       LVL=0
      01003DFBH   LINE      CODE     ---       #365
      01003DFBH   LINE      CODE     ---       #366
      01003DFBH   LINE      CODE     ---       #367
      01003E01H   LINE      CODE     ---       #370
      01003E04H   LINE      CODE     ---       #371
      01003E11H   LINE      CODE     ---       #373
      01003E11H   LINE      CODE     ---       #374
      01003E14H   LINE      CODE     ---       #375
      01003E18H   LINE      CODE     ---       #376
      01003E1AH   LINE      CODE     ---       #377
      01003E1CH   LINE      CODE     ---       #378
      01003E20H   LINE      CODE     ---       #379
      01003E22H   LINE      CODE     ---       #380
      01003E24H   LINE      CODE     ---       #381
      01003E28H   LINE      CODE     ---       #382
      01003E2AH   LINE      CODE     ---       #383
      01003E31H   LINE      CODE     ---       #384
      01003E32H   LINE      CODE     ---       #385
      01003E32H   LINE      CODE     ---       #386
      01003E32H   LINE      CODE     ---       #387
      01003E32H   LINE      CODE     ---       #388
      01003E32H   LINE      CODE     ---       #389
      01003E34H   LINE      CODE     ---       #390
      01003E34H   LINE      CODE     ---       #391
      01003E37H   LINE      CODE     ---       #392
      01003E37H   LINE      CODE     ---       #393
      01003E37H   LINE      CODE     ---       #395
      01003E3DH   LINE      CODE     ---       #396
      01003E40H   LINE      CODE     ---       #397
      01003E4AH   LINE      CODE     ---       #398
      01003E50H   LINE      CODE     ---       #399
      01003E56H   LINE      CODE     ---       #400
      01003E5CH   LINE      CODE     ---       #401
      01003E65H   LINE      CODE     ---       #402
      01003E6CH   LINE      CODE     ---       #403
      01003E6DH   LINE      CODE     ---       #404
      01003E74H   LINE      CODE     ---       #405
      01003E79H   LINE      CODE     ---       #406
      01003E7EH   LINE      CODE     ---       #407
      01003E83H   LINE      CODE     ---       #408
      01003E88H   LINE      CODE     ---       #409
      01003E8DH   LINE      CODE     ---       #410
      01003E90H   LINE      CODE     ---       #411
      01003E96H   LINE      CODE     ---       #412
      01003E96H   LINE      CODE     ---       #413
      01003E96H   LINE      CODE     ---       #414
      ---         BLOCKEND  ---      ---       LVL=0

      01006822H   BLOCK     CODE     ---       LVL=0
      01006822H   LINE      CODE     ---       #419
      01006822H   LINE      CODE     ---       #420
      01006822H   LINE      CODE     ---       #421
      0100682BH   LINE      CODE     ---       #422
      01006834H   LINE      CODE     ---       #423
      0100683DH   LINE      CODE     ---       #424
      01006846H   LINE      CODE     ---       #425
      0100684FH   LINE      CODE     ---       #426
      01006858H   LINE      CODE     ---       #427
      ---         BLOCKEND  ---      ---       LVL=0

      010057D8H   BLOCK     CODE     ---       LVL=0
      02000016H   SYMBOL    XDATA    BYTE      type
      010057D8H   LINE      CODE     ---       #430
      010057DDH   LINE      CODE     ---       #431
LX51 LINKER/LOCATER V4.66.87.0                                                        05/29/2018  21:11:03  PAGE 151


      010057DDH   LINE      CODE     ---       #432
      010057E7H   LINE      CODE     ---       #433
      010057FEH   LINE      CODE     ---       #434
      010057FEH   LINE      CODE     ---       #435
      01005804H   LINE      CODE     ---       #436
      01005806H   LINE      CODE     ---       #437
      01005806H   LINE      CODE     ---       #438
      0100580CH   LINE      CODE     ---       #439
      0100580EH   LINE      CODE     ---       #440
      0100580EH   LINE      CODE     ---       #441
      01005814H   LINE      CODE     ---       #442
      01005816H   LINE      CODE     ---       #443
      01005816H   LINE      CODE     ---       #444
      0100581CH   LINE      CODE     ---       #445
      0100581EH   LINE      CODE     ---       #446
      0100581EH   LINE      CODE     ---       #447
      01005824H   LINE      CODE     ---       #448
      01005826H   LINE      CODE     ---       #449
      01005826H   LINE      CODE     ---       #450
      0100582FH   LINE      CODE     ---       #451
      0100582FH   LINE      CODE     ---       #453
      0100582FH   LINE      CODE     ---       #454
      ---         BLOCKEND  ---      ---       LVL=0

      01004FABH   BLOCK     CODE     ---       LVL=0
      00000020H.0 SYMBOL    BIT      BIT       too_close_check
      01004FABH   BLOCK     CODE     NEAR LAB  LVL=1
      00000020H.1 SYMBOL    BIT      BIT       borrow
      ---         BLOCKEND  ---      ---       LVL=1
      01004FABH   LINE      CODE     ---       #458
      01004FABH   LINE      CODE     ---       #459
      01004FABH   LINE      CODE     ---       #463
      01004FB0H   LINE      CODE     ---       #464
      01004FB5H   LINE      CODE     ---       #465
      01004FBEH   LINE      CODE     ---       #466
      01004FC7H   LINE      CODE     ---       #467
      01004FCEH   LINE      CODE     ---       #468
      01004FD3H   LINE      CODE     ---       #470
      01004FE2H   LINE      CODE     ---       #474
      01004FEFH   LINE      CODE     ---       #475
      01004FF3H   LINE      CODE     ---       #476
      01004FF9H   LINE      CODE     ---       #477
      01004FFBH   LINE      CODE     ---       #478
      01005006H   LINE      CODE     ---       #479
      0100500FH   LINE      CODE     ---       #480
      01005011H   LINE      CODE     ---       #481
      01005011H   LINE      CODE     ---       #482
      01005011H   LINE      CODE     ---       #484
      01005012H   LINE      CODE     ---       #485
      ---         BLOCKEND  ---      ---       LVL=0

      01006537H   BLOCK     CODE     ---       LVL=0
      01006537H   LINE      CODE     ---       #488
      01006537H   LINE      CODE     ---       #489
      01006537H   LINE      CODE     ---       #490
      01006549H   LINE      CODE     ---       #493
      0100654EH   LINE      CODE     ---       #494
      01006553H   LINE      CODE     ---       #495
      0100655BH   LINE      CODE     ---       #496
      01006561H   LINE      CODE     ---       #497
      01006567H   LINE      CODE     ---       #498
      0100656DH   LINE      CODE     ---       #499
      ---         BLOCKEND  ---      ---       LVL=0

      ---         MODULE    ---      ---       SERIAL_HUB
LX51 LINKER/LOCATER V4.66.87.0                                                        05/29/2018  21:11:03  PAGE 152


      0100665BH   PUBLIC    CODE     ---       serial_hub_initialize
      01006D9FH   PUBLIC    CODE     ---       _serial_test_ctl_bit
      00000020H.2 PUBLIC    BIT      BIT       ?_serial_set_ctl_bit?BIT
      01006C25H   PUBLIC    CODE     ---       _serial_set_ctl_bit
      01007B4FH   PUBLIC    CODE     ---       serial_ctl_out
      0100115DH   PUBLIC    CODE     ---       serial_dump
      00000080H   SFRSYM    DATA     BYTE      P0
      00000090H   SFRSYM    DATA     BYTE      P1
      000000A0H   SFRSYM    DATA     BYTE      P2
      000000B0H   SFRSYM    DATA     BYTE      P3
      000000C0H   SFRSYM    DATA     BYTE      XICON
      000000B0H.4 SFRSYM    DATA     BIT       T0
      000000D0H.6 SFRSYM    DATA     BIT       AC
      000000E8H   SFRSYM    DATA     BYTE      P4
      000000B0H.5 SFRSYM    DATA     BIT       T1
      000000E6H   SFRSYM    DATA     BYTE      ISP_TRIG
      00000090H.0 SFRSYM    DATA     BIT       T2
      000000A8H.7 SFRSYM    DATA     BIT       EA
      000000A8H.6 SFRSYM    DATA     BIT       EC
      00000098H.7 SFRSYM    DATA     BIT       FE
      000000A8H   SFRSYM    DATA     BYTE      IE
      000000C8H.6 SFRSYM    DATA     BIT       EXF2
      000000B0H.7 SFRSYM    DATA     BIT       RD
      000000A8H.4 SFRSYM    DATA     BIT       ES
      000000B8H   SFRSYM    DATA     BYTE      IP
      00000098H.0 SFRSYM    DATA     BIT       RI
      000000B0H.2 SFRSYM    DATA     BIT       INT0
      000000D0H.7 SFRSYM    DATA     BIT       CY
      00000098H.1 SFRSYM    DATA     BIT       TI
      000000B0H.3 SFRSYM    DATA     BIT       INT1
      000000CBH   SFRSYM    DATA     BYTE      RCAP2H
      000000E5H   SFRSYM    DATA     BYTE      ISP_CMD
      000000B8H.4 SFRSYM    DATA     BIT       PS
      00000081H   SFRSYM    DATA     BYTE      SP
      00000090H.1 SFRSYM    DATA     BIT       T2EX
      000000D0H.2 SFRSYM    DATA     BIT       OV
      000000CAH   SFRSYM    DATA     BYTE      RCAP2L
      000000C8H.1 SFRSYM    DATA     BIT       C_T2
      000000B0H.6 SFRSYM    DATA     BIT       WR
      000000C8H.5 SFRSYM    DATA     BIT       RCLK
      000000C8H.4 SFRSYM    DATA     BIT       TCLK
      00000080H.0 SFRSYM    DATA     BIT       P00
      00000099H   SFRSYM    DATA     BYTE      SBUF
      00000087H   SFRSYM    DATA     BYTE      PCON
      00000090H.0 SFRSYM    DATA     BIT       P10
      00000080H.1 SFRSYM    DATA     BIT       P01
      000000A0H.0 SFRSYM    DATA     BIT       P20
      00000090H.1 SFRSYM    DATA     BIT       P11
      00000080H.2 SFRSYM    DATA     BIT       P02
      000000E3H   SFRSYM    DATA     BYTE      ISP_ADDRH
      000000B0H.0 SFRSYM    DATA     BIT       P30
      000000A0H.1 SFRSYM    DATA     BIT       P21
      00000090H.2 SFRSYM    DATA     BIT       P12
      00000080H.3 SFRSYM    DATA     BIT       P03
      00000098H   SFRSYM    DATA     BYTE      SCON
      000000B0H.1 SFRSYM    DATA     BIT       P31
      000000A0H.2 SFRSYM    DATA     BIT       P22
      00000090H.3 SFRSYM    DATA     BIT       P13
      00000080H.4 SFRSYM    DATA     BIT       P04
      000000E8H.0 SFRSYM    DATA     BIT       P40
      00000089H   SFRSYM    DATA     BYTE      TMOD
      00000088H   SFRSYM    DATA     BYTE      TCON
      000000B0H.2 SFRSYM    DATA     BIT       P32
      000000A0H.3 SFRSYM    DATA     BIT       P23
      00000090H.4 SFRSYM    DATA     BIT       P14
LX51 LINKER/LOCATER V4.66.87.0                                                        05/29/2018  21:11:03  PAGE 153


      00000080H.5 SFRSYM    DATA     BIT       P05
      000000E8H.1 SFRSYM    DATA     BIT       P41
      000000B0H.3 SFRSYM    DATA     BIT       P33
      000000A0H.4 SFRSYM    DATA     BIT       P24
      00000090H.5 SFRSYM    DATA     BIT       P15
      00000080H.6 SFRSYM    DATA     BIT       P06
      000000E4H   SFRSYM    DATA     BYTE      ISP_ADDRL
      000000E8H.2 SFRSYM    DATA     BIT       P42
      000000B0H.4 SFRSYM    DATA     BIT       P34
      000000A0H.5 SFRSYM    DATA     BIT       P25
      00000090H.6 SFRSYM    DATA     BIT       P16
      00000080H.7 SFRSYM    DATA     BIT       P07
      000000E8H.3 SFRSYM    DATA     BIT       P43
      000000B0H.5 SFRSYM    DATA     BIT       P35
      000000A0H.6 SFRSYM    DATA     BIT       P26
      00000090H.7 SFRSYM    DATA     BIT       P17
      000000E8H.4 SFRSYM    DATA     BIT       P44
      000000B0H.6 SFRSYM    DATA     BIT       P36
      000000A0H.7 SFRSYM    DATA     BIT       P27
      000000E8H.5 SFRSYM    DATA     BIT       P45
      000000B0H.7 SFRSYM    DATA     BIT       P37
      000000E8H.6 SFRSYM    DATA     BIT       P46
      00000088H.1 SFRSYM    DATA     BIT       IE0
      00000088H.3 SFRSYM    DATA     BIT       IE1
      0000008EH   SFRSYM    DATA     BYTE      AUXR
      000000F0H   SFRSYM    DATA     BYTE      B
      000000C8H.0 SFRSYM    DATA     BIT       CP_RL2
      000000E0H   SFRSYM    DATA     BYTE      ACC
      000000A8H.1 SFRSYM    DATA     BIT       ET0
      000000A8H.3 SFRSYM    DATA     BIT       ET1
      00000088H.5 SFRSYM    DATA     BIT       TF0
      000000A8H.5 SFRSYM    DATA     BIT       ET2
      00000088H.7 SFRSYM    DATA     BIT       TF1
      000000C8H.7 SFRSYM    DATA     BIT       TF2
      00000098H.2 SFRSYM    DATA     BIT       RB8
      0000008CH   SFRSYM    DATA     BYTE      TH0
      000000A8H.0 SFRSYM    DATA     BIT       EX0
      00000088H.0 SFRSYM    DATA     BIT       IT0
      0000008DH   SFRSYM    DATA     BYTE      TH1
      00000098H.3 SFRSYM    DATA     BIT       TB8
      000000A8H.2 SFRSYM    DATA     BIT       EX1
      00000088H.2 SFRSYM    DATA     BIT       IT1
      000000CDH   SFRSYM    DATA     BYTE      TH2
      000000D0H.0 SFRSYM    DATA     BIT       P
      00000098H.7 SFRSYM    DATA     BIT       SM0
      0000008AH   SFRSYM    DATA     BYTE      TL0
      00000098H.6 SFRSYM    DATA     BIT       SM1
      0000008BH   SFRSYM    DATA     BYTE      TL1
      00000098H.5 SFRSYM    DATA     BIT       SM2
      000000CCH   SFRSYM    DATA     BYTE      TL2
      000000B8H.1 SFRSYM    DATA     BIT       PT0
      000000B8H.3 SFRSYM    DATA     BIT       PT1
      000000D0H.3 SFRSYM    DATA     BIT       RS0
      000000E7H   SFRSYM    DATA     BYTE      ISP_CONTR
      000000B8H.5 SFRSYM    DATA     BIT       PT2
      00000088H.4 SFRSYM    DATA     BIT       TR0
      000000D0H.4 SFRSYM    DATA     BIT       RS1
      00000088H.6 SFRSYM    DATA     BIT       TR1
      000000C8H.2 SFRSYM    DATA     BIT       TR2
      000000B8H.0 SFRSYM    DATA     BIT       PX0
      000000E1H   SFRSYM    DATA     BYTE      WDT_CONTR
      000000B8H.2 SFRSYM    DATA     BIT       PX1
      00000083H   SFRSYM    DATA     BYTE      DPH
      00000082H   SFRSYM    DATA     BYTE      DPL
      000000B7H   SFRSYM    DATA     BYTE      IPH
LX51 LINKER/LOCATER V4.66.87.0                                                        05/29/2018  21:11:03  PAGE 154


      000000C8H.3 SFRSYM    DATA     BIT       EXEN2
      00000098H.4 SFRSYM    DATA     BIT       REN
      000000C9H   SFRSYM    DATA     BYTE      T2MOD
      000000C8H   SFRSYM    DATA     BYTE      T2CON
      000000E2H   SFRSYM    DATA     BYTE      ISP_DATA
      000000B9H   SFRSYM    DATA     BYTE      SADEN
      000000B0H.0 SFRSYM    DATA     BIT       RXD
      000000A9H   SFRSYM    DATA     BYTE      SADDR
      000000B0H.1 SFRSYM    DATA     BIT       TXD
      000000A2H   SFRSYM    DATA     BYTE      AUXR1
      000000D0H.5 SFRSYM    DATA     BIT       F0
      000000D0H   SFRSYM    DATA     BYTE      PSW
      020000E2H   SYMBOL    XDATA    ---       ctl_buffer

      01007C6CH   BLOCK     CODE     ---       LVL=0
      ---         BLOCKEND  ---      ---       LVL=0

      0100115DH   BLOCK     CODE     ---       LVL=0
      0100115DH   LINE      CODE     ---       #15
      0100115DH   LINE      CODE     ---       #16
      0100115DH   LINE      CODE     ---       #17
      01001166H   LINE      CODE     ---       #18
      0100117FH   LINE      CODE     ---       #19
      01001197H   LINE      CODE     ---       #20
      010011AFH   LINE      CODE     ---       #21
      010011C7H   LINE      CODE     ---       #22
      010011DFH   LINE      CODE     ---       #23
      010011F7H   LINE      CODE     ---       #24
      0100120FH   LINE      CODE     ---       #25
      01001227H   LINE      CODE     ---       #26
      0100123FH   LINE      CODE     ---       #27
      01001257H   LINE      CODE     ---       #28
      0100126FH   LINE      CODE     ---       #29
      01001287H   LINE      CODE     ---       #30
      0100129FH   LINE      CODE     ---       #31
      010012B7H   LINE      CODE     ---       #32
      010012CFH   LINE      CODE     ---       #33
      010012E7H   LINE      CODE     ---       #34
      01001303H   LINE      CODE     ---       #35
      0100130CH   LINE      CODE     ---       #36
      ---         BLOCKEND  ---      ---       LVL=0

      01007B4FH   BLOCK     CODE     ---       LVL=0
      01007B4FH   LINE      CODE     ---       #38
      01007B4FH   LINE      CODE     ---       #39
      01007B4FH   LINE      CODE     ---       #40
      01007B5BH   LINE      CODE     ---       #41
      01007B67H   LINE      CODE     ---       #43
      ---         BLOCKEND  ---      ---       LVL=0

      01006C25H   BLOCK     CODE     ---       LVL=0
      00000007H   SYMBOL    DATA     BYTE      index
      00000020H.2 SYMBOL    BIT      BIT       what
      01006C25H   LINE      CODE     ---       #46
      01006C25H   LINE      CODE     ---       #47
      01006C25H   LINE      CODE     ---       #48
      01006C2BH   LINE      CODE     ---       #51
      01006C4BH   LINE      CODE     ---       #52
      01006C4EH   LINE      CODE     ---       #53
      01006C54H   LINE      CODE     ---       #54
      ---         BLOCKEND  ---      ---       LVL=0

      01006D9FH   BLOCK     CODE     ---       LVL=0
      00000007H   SYMBOL    DATA     BYTE      index
      01006D9FH   LINE      CODE     ---       #56
LX51 LINKER/LOCATER V4.66.87.0                                                        05/29/2018  21:11:03  PAGE 155


      01006D9FH   LINE      CODE     ---       #57
      01006D9FH   LINE      CODE     ---       #58
      01006DA5H   LINE      CODE     ---       #59
      01006DA6H   LINE      CODE     ---       #61
      01006DCCH   LINE      CODE     ---       #62
      ---         BLOCKEND  ---      ---       LVL=0

      0100665BH   BLOCK     CODE     ---       LVL=0
      0100665BH   LINE      CODE     ---       #65
      0100665BH   LINE      CODE     ---       #66
      0100665BH   LINE      CODE     ---       #67
      01006664H   LINE      CODE     ---       #69
      0100666EH   LINE      CODE     ---       #72
      01006677H   LINE      CODE     ---       #75
      01006680H   LINE      CODE     ---       #78
      01006689H   LINE      CODE     ---       #81
      01006692H   LINE      CODE     ---       #83
      ---         BLOCKEND  ---      ---       LVL=0

      ---         MODULE    ---      ---       THERMO
      010086B7H   PUBLIC    CODE     ---       thermo_leave_powersave
      010086AEH   PUBLIC    CODE     ---       thermo_enter_powersave
      01007F22H   PUBLIC    CODE     ---       _thermo_proc
      0100872CH   PUBLIC    CODE     ---       thermo_lo_threshold_reset
      01008724H   PUBLIC    CODE     ---       thermo_hi_threshold_reset
      00000020H.1 PUBLIC    BIT      BIT       ?thermo_enable?BIT
      01008608H   PUBLIC    CODE     ---       thermo_enable
      01008537H   PUBLIC    CODE     ---       thermo_lo_threshold_reach_top
      010085D4H   PUBLIC    CODE     ---       thermo_lo_threshold_reach_bottom
      0100852BH   PUBLIC    CODE     ---       thermo_hi_threshold_reach_top
      010085C9H   PUBLIC    CODE     ---       thermo_hi_threshold_reach_bottom
      01006289H   PUBLIC    CODE     ---       _thermo_threshold_inc
      01008246H   PUBLIC    CODE     ---       thermo_lo_threshold_inc
      01008234H   PUBLIC    CODE     ---       thermo_lo_threshold_dec
      01008222H   PUBLIC    CODE     ---       thermo_hi_threshold_inc
      01008210H   PUBLIC    CODE     ---       thermo_hi_threshold_dec
      01004F42H   PUBLIC    CODE     ---       _thermo_lo_threshold_set
      010054A7H   PUBLIC    CODE     ---       _thermo_hi_threshold_set
      01007495H   PUBLIC    CODE     ---       thermo_lo_threshold_get
      010075A8H   PUBLIC    CODE     ---       thermo_hi_threshold_get
      01006B32H   PUBLIC    CODE     ---       thermo_get_current
      01004D96H   PUBLIC    CODE     ---       scan_thermo
      0100851FH   PUBLIC    CODE     ---       thermo_initialize
      020000E4H   SYMBOL    XDATA    CHAR      thermo_threshold_lo
      010073BEH   SYMBOL    CODE     ---       _thermo_hex_to_temp
      0100617CH   SYMBOL    CODE     ---       _thermo_temp_to_hex
      01005F3BH   SYMBOL    CODE     ---       thermo_power_off
      01005887H   SYMBOL    CODE     ---       thermo_power_on
      01006481H   SYMBOL    CODE     ---       thermo_load_config
      020000E5H   SYMBOL    XDATA    CHAR      thermo_threshold_hi

      010059E3H   BLOCK     CODE     ---       LVL=0
      ---         BLOCKEND  ---      ---       LVL=0

      01006481H   BLOCK     CODE     ---       LVL=0
      01006481H   LINE      CODE     ---       #35
      01006481H   LINE      CODE     ---       #36
      01006481H   LINE      CODE     ---       #37
      0100648AH   LINE      CODE     ---       #39
      01006494H   LINE      CODE     ---       #40
      0100649EH   LINE      CODE     ---       #41
      010064ADH   LINE      CODE     ---       #42
      ---         BLOCKEND  ---      ---       LVL=0

      01005F3BH   BLOCK     CODE     ---       LVL=0
LX51 LINKER/LOCATER V4.66.87.0                                                        05/29/2018  21:11:03  PAGE 156


      01005F3BH   BLOCK     CODE     NEAR LAB  LVL=1
      02000015H   SYMBOL    XDATA    BYTE      val
      ---         BLOCKEND  ---      ---       LVL=1
      01005F3BH   LINE      CODE     ---       #45
      01005F3BH   LINE      CODE     ---       #46
      01005F3BH   LINE      CODE     ---       #49
      01005F3EH   LINE      CODE     ---       #56
      01005F43H   LINE      CODE     ---       #59
      01005F4CH   LINE      CODE     ---       #62
      01005F4FH   LINE      CODE     ---       #63
      01005F52H   LINE      CODE     ---       #66
      01005F57H   LINE      CODE     ---       #67
      01005F60H   LINE      CODE     ---       #71
      01005F69H   LINE      CODE     ---       #74
      01005F72H   LINE      CODE     ---       #77
      01005F7CH   LINE      CODE     ---       #92
      ---         BLOCKEND  ---      ---       LVL=0

      0100851FH   BLOCK     CODE     ---       LVL=0
      0100851FH   LINE      CODE     ---       #95
      0100851FH   LINE      CODE     ---       #96
      0100851FH   LINE      CODE     ---       #97
      01008528H   LINE      CODE     ---       #98
      ---         BLOCKEND  ---      ---       LVL=0

      01005887H   BLOCK     CODE     ---       LVL=0
      01005887H   BLOCK     CODE     NEAR LAB  LVL=1
      02000015H   SYMBOL    XDATA    BYTE      val
      ---         BLOCKEND  ---      ---       LVL=1
      01005887H   LINE      CODE     ---       #101
      01005887H   LINE      CODE     ---       #102
      01005887H   LINE      CODE     ---       #105
      0100588AH   LINE      CODE     ---       #111
      0100588FH   LINE      CODE     ---       #114
      01005898H   LINE      CODE     ---       #117
      0100589BH   LINE      CODE     ---       #118
      0100589EH   LINE      CODE     ---       #121
      010058A3H   LINE      CODE     ---       #122
      010058ACH   LINE      CODE     ---       #124
      010058B1H   LINE      CODE     ---       #128
      010058BAH   LINE      CODE     ---       #131
      010058C3H   LINE      CODE     ---       #134
      010058CDH   LINE      CODE     ---       #136
      010058D6H   LINE      CODE     ---       #156
      ---         BLOCKEND  ---      ---       LVL=0

      01004D96H   BLOCK     CODE     ---       LVL=0
      01004D96H   BLOCK     CODE     NEAR LAB  LVL=1
      02000016H   SYMBOL    XDATA    BYTE      val
      02000017H   SYMBOL    XDATA    CHAR      hi
      02000018H   SYMBOL    XDATA    CHAR      lo
      02000019H   SYMBOL    XDATA    CHAR      current
      00000020H.0 SYMBOL    BIT      BIT       has_event
      ---         BLOCKEND  ---      ---       LVL=1
      01004D96H   LINE      CODE     ---       #158
      01004D96H   LINE      CODE     ---       #159
      01004D96H   LINE      CODE     ---       #163
      01004D98H   LINE      CODE     ---       #166
      01004D98H   LINE      CODE     ---       #167
      01004D98H   LINE      CODE     ---       #168
      01004D98H   LINE      CODE     ---       #169
      01004DA1H   LINE      CODE     ---       #172
      01004DAEH   LINE      CODE     ---       #173
      01004DB7H   LINE      CODE     ---       #175
      01004DC6H   LINE      CODE     ---       #176
LX51 LINKER/LOCATER V4.66.87.0                                                        05/29/2018  21:11:03  PAGE 157


      01004DCFH   LINE      CODE     ---       #177
      01004DD4H   LINE      CODE     ---       #178
      01004DD4H   LINE      CODE     ---       #179
      01004DE5H   LINE      CODE     ---       #180
      01004DEEH   LINE      CODE     ---       #181
      01004DF4H   LINE      CODE     ---       #182
      01004DF6H   LINE      CODE     ---       #183
      01004DF6H   LINE      CODE     ---       #202
      01004DFEH   LINE      CODE     ---       #203
      01004E01H   LINE      CODE     ---       #204
      01004E01H   LINE      CODE     ---       #205
      ---         BLOCKEND  ---      ---       LVL=0

      0100617CH   BLOCK     CODE     ---       LVL=0
      00000005H   SYMBOL    DATA     CHAR      temp
      0100617EH   BLOCK     CODE     NEAR LAB  LVL=1
      02000019H   SYMBOL    XDATA    WORD      ret
      ---         BLOCKEND  ---      ---       LVL=1
      0100617CH   LINE      CODE     ---       #207
      0100617EH   LINE      CODE     ---       #208
      0100617EH   LINE      CODE     ---       #209
      01006189H   LINE      CODE     ---       #210
      01006191H   LINE      CODE     ---       #211
      0100619AH   LINE      CODE     ---       #212
      010061B7H   LINE      CODE     ---       #213
      010061BFH   LINE      CODE     ---       #214
      ---         BLOCKEND  ---      ---       LVL=0

      010073BEH   BLOCK     CODE     ---       LVL=0
      00000004H   SYMBOL    DATA     WORD      val
      010073C2H   BLOCK     CODE     NEAR LAB  LVL=1
      02000017H   SYMBOL    XDATA    CHAR      temp
      ---         BLOCKEND  ---      ---       LVL=1
      010073BEH   LINE      CODE     ---       #216
      010073C2H   LINE      CODE     ---       #217
      010073C2H   LINE      CODE     ---       #219
      010073C7H   LINE      CODE     ---       #220
      010073DCH   LINE      CODE     ---       #221
      010073E1H   LINE      CODE     ---       #222
      ---         BLOCKEND  ---      ---       LVL=0

      01006B32H   BLOCK     CODE     ---       LVL=0
      01006B32H   BLOCK     CODE     NEAR LAB  LVL=1
      0200000BH   SYMBOL    XDATA    WORD      val
      0200000DH   SYMBOL    XDATA    BYTE      tmp
      ---         BLOCKEND  ---      ---       LVL=1
      01006B32H   LINE      CODE     ---       #225
      01006B32H   LINE      CODE     ---       #226
      01006B32H   LINE      CODE     ---       #230
      01006B32H   LINE      CODE     ---       #231
      01006B40H   LINE      CODE     ---       #232
      01006B58H   LINE      CODE     ---       #234
      ---         BLOCKEND  ---      ---       LVL=0

      010075A8H   BLOCK     CODE     ---       LVL=0
      010075A8H   BLOCK     CODE     NEAR LAB  LVL=1
      02000015H   SYMBOL    XDATA    WORD      val
      00000007H   SYMBOL    DATA     CHAR      ret
      ---         BLOCKEND  ---      ---       LVL=1
      010075A8H   LINE      CODE     ---       #250
      010075A8H   LINE      CODE     ---       #251
      010075A8H   LINE      CODE     ---       #255
      010075B6H   LINE      CODE     ---       #259
      010075C1H   LINE      CODE     ---       #260
      010075C5H   LINE      CODE     ---       #261
LX51 LINKER/LOCATER V4.66.87.0                                                        05/29/2018  21:11:03  PAGE 158


      010075C8H   LINE      CODE     ---       #263
      010075C8H   LINE      CODE     ---       #264
      ---         BLOCKEND  ---      ---       LVL=0

      01007495H   BLOCK     CODE     ---       LVL=0
      01007495H   BLOCK     CODE     NEAR LAB  LVL=1
      02000015H   SYMBOL    XDATA    WORD      val
      00000007H   SYMBOL    DATA     CHAR      ret
      ---         BLOCKEND  ---      ---       LVL=1
      01007495H   LINE      CODE     ---       #266
      01007495H   LINE      CODE     ---       #267
      01007495H   LINE      CODE     ---       #271
      010074A5H   LINE      CODE     ---       #275
      010074B0H   LINE      CODE     ---       #276
      010074B4H   LINE      CODE     ---       #277
      010074B7H   LINE      CODE     ---       #279
      010074B7H   LINE      CODE     ---       #280
      ---         BLOCKEND  ---      ---       LVL=0

      010054A7H   BLOCK     CODE     ---       LVL=0
      02000016H   SYMBOL    XDATA    CHAR      temp
      010054ACH   BLOCK     CODE     NEAR LAB  LVL=1
      02000017H   SYMBOL    XDATA    WORD      val
      ---         BLOCKEND  ---      ---       LVL=1
      010054A7H   LINE      CODE     ---       #283
      010054ACH   LINE      CODE     ---       #284
      010054ACH   LINE      CODE     ---       #286
      010054B6H   LINE      CODE     ---       #288
      010054BEH   LINE      CODE     ---       #289
      010054C3H   LINE      CODE     ---       #290
      010054C3H   LINE      CODE     ---       #291
      010054CBH   LINE      CODE     ---       #292
      010054D1H   LINE      CODE     ---       #294
      010054DCH   LINE      CODE     ---       #295
      010054DFH   LINE      CODE     ---       #296
      010054DFH   LINE      CODE     ---       #297
      010054EFH   LINE      CODE     ---       #299
      010054F9H   LINE      CODE     ---       #300
      ---         BLOCKEND  ---      ---       LVL=0

      01004F42H   BLOCK     CODE     ---       LVL=0
      02000016H   SYMBOL    XDATA    CHAR      temp
      01004F47H   BLOCK     CODE     NEAR LAB  LVL=1
      02000017H   SYMBOL    XDATA    WORD      val
      ---         BLOCKEND  ---      ---       LVL=1
      01004F42H   LINE      CODE     ---       #306
      01004F47H   LINE      CODE     ---       #307
      01004F47H   LINE      CODE     ---       #309
      01004F54H   LINE      CODE     ---       #311
      01004F5CH   LINE      CODE     ---       #312
      01004F61H   LINE      CODE     ---       #313
      01004F61H   LINE      CODE     ---       #314
      01004F69H   LINE      CODE     ---       #315
      01004F6FH   LINE      CODE     ---       #317
      01004F7AH   LINE      CODE     ---       #318
      01004F7DH   LINE      CODE     ---       #319
      01004F7DH   LINE      CODE     ---       #321
      01004F8DH   LINE      CODE     ---       #323
      01004F9BH   LINE      CODE     ---       #324
      ---         BLOCKEND  ---      ---       LVL=0

      01008210H   BLOCK     CODE     ---       LVL=0
      01008210H   BLOCK     CODE     NEAR LAB  LVL=1
      00000007H   SYMBOL    DATA     CHAR      val
      ---         BLOCKEND  ---      ---       LVL=1
LX51 LINKER/LOCATER V4.66.87.0                                                        05/29/2018  21:11:03  PAGE 159


      01008210H   LINE      CODE     ---       #331
      01008210H   LINE      CODE     ---       #332
      01008210H   LINE      CODE     ---       #334
      01008213H   LINE      CODE     ---       #336
      01008218H   LINE      CODE     ---       #339
      0100821DH   LINE      CODE     ---       #340
      0100821EH   LINE      CODE     ---       #341
      01008221H   LINE      CODE     ---       #342
      01008221H   LINE      CODE     ---       #343
      ---         BLOCKEND  ---      ---       LVL=0

      01008222H   BLOCK     CODE     ---       LVL=0
      01008222H   BLOCK     CODE     NEAR LAB  LVL=1
      00000007H   SYMBOL    DATA     CHAR      val
      ---         BLOCKEND  ---      ---       LVL=1
      01008222H   LINE      CODE     ---       #345
      01008222H   LINE      CODE     ---       #346
      01008222H   LINE      CODE     ---       #348
      01008225H   LINE      CODE     ---       #350
      0100822AH   LINE      CODE     ---       #353
      0100822FH   LINE      CODE     ---       #354
      01008230H   LINE      CODE     ---       #355
      01008233H   LINE      CODE     ---       #356
      01008233H   LINE      CODE     ---       #357
      ---         BLOCKEND  ---      ---       LVL=0

      01008234H   BLOCK     CODE     ---       LVL=0
      01008234H   BLOCK     CODE     NEAR LAB  LVL=1
      00000007H   SYMBOL    DATA     CHAR      val
      ---         BLOCKEND  ---      ---       LVL=1
      01008234H   LINE      CODE     ---       #359
      01008234H   LINE      CODE     ---       #360
      01008234H   LINE      CODE     ---       #362
      01008237H   LINE      CODE     ---       #364
      0100823CH   LINE      CODE     ---       #367
      01008241H   LINE      CODE     ---       #368
      01008242H   LINE      CODE     ---       #369
      01008245H   LINE      CODE     ---       #370
      01008245H   LINE      CODE     ---       #371
      ---         BLOCKEND  ---      ---       LVL=0

      01008246H   BLOCK     CODE     ---       LVL=0
      01008246H   BLOCK     CODE     NEAR LAB  LVL=1
      00000007H   SYMBOL    DATA     CHAR      val
      ---         BLOCKEND  ---      ---       LVL=1
      01008246H   LINE      CODE     ---       #373
      01008246H   LINE      CODE     ---       #374
      01008246H   LINE      CODE     ---       #376
      01008249H   LINE      CODE     ---       #378
      0100824EH   LINE      CODE     ---       #381
      01008253H   LINE      CODE     ---       #382
      01008254H   LINE      CODE     ---       #383
      01008257H   LINE      CODE     ---       #384
      01008257H   LINE      CODE     ---       #385
      ---         BLOCKEND  ---      ---       LVL=0

      01006289H   BLOCK     CODE     ---       LVL=0
      00000007H   SYMBOL    DATA     BYTE      thres
      01006289H   BLOCK     CODE     NEAR LAB  LVL=1
      00000006H   SYMBOL    DATA     CHAR      value
      02000016H   SYMBOL    XDATA    BYTE      ret
      ---         BLOCKEND  ---      ---       LVL=1
      01006289H   LINE      CODE     ---       #387
      01006289H   LINE      CODE     ---       #388
      01006289H   LINE      CODE     ---       #391
LX51 LINKER/LOCATER V4.66.87.0                                                        05/29/2018  21:11:03  PAGE 160


      0100628EH   LINE      CODE     ---       #392
      01006290H   LINE      CODE     ---       #393
      01006298H   LINE      CODE     ---       #394
      01006299H   LINE      CODE     ---       #395
      0100629EH   LINE      CODE     ---       #396
      010062A0H   LINE      CODE     ---       #397
      010062A6H   LINE      CODE     ---       #398
      010062A6H   LINE      CODE     ---       #399
      010062A8H   LINE      CODE     ---       #400
      010062AEH   LINE      CODE     ---       #401
      010062AEH   LINE      CODE     ---       #402
      010062C4H   LINE      CODE     ---       #403
      010062C9H   LINE      CODE     ---       #404
      ---         BLOCKEND  ---      ---       LVL=0

      010085C9H   BLOCK     CODE     ---       LVL=0
      010085C9H   LINE      CODE     ---       #406
      010085C9H   LINE      CODE     ---       #407
      010085C9H   LINE      CODE     ---       #408
      010085D3H   LINE      CODE     ---       #409
      ---         BLOCKEND  ---      ---       LVL=0

      0100852BH   BLOCK     CODE     ---       LVL=0
      0100852BH   LINE      CODE     ---       #411
      0100852BH   LINE      CODE     ---       #412
      0100852BH   LINE      CODE     ---       #413
      01008536H   LINE      CODE     ---       #414
      ---         BLOCKEND  ---      ---       LVL=0

      010085D4H   BLOCK     CODE     ---       LVL=0
      010085D4H   LINE      CODE     ---       #416
      010085D4H   LINE      CODE     ---       #417
      010085D4H   LINE      CODE     ---       #418
      010085DEH   LINE      CODE     ---       #419
      ---         BLOCKEND  ---      ---       LVL=0

      01008537H   BLOCK     CODE     ---       LVL=0
      01008537H   LINE      CODE     ---       #421
      01008537H   LINE      CODE     ---       #422
      01008537H   LINE      CODE     ---       #423
      01008542H   LINE      CODE     ---       #424
      ---         BLOCKEND  ---      ---       LVL=0

      01008608H   BLOCK     CODE     ---       LVL=0
      00000020H.1 SYMBOL    BIT      BIT       enable
      01008608H   LINE      CODE     ---       #426
      01008608H   LINE      CODE     ---       #427
      01008608H   LINE      CODE     ---       #428
      0100860BH   LINE      CODE     ---       #429
      0100860EH   LINE      CODE     ---       #430
      0100860EH   LINE      CODE     ---       #431
      01008611H   LINE      CODE     ---       #432
      01008611H   LINE      CODE     ---       #433
      ---         BLOCKEND  ---      ---       LVL=0

      01008724H   BLOCK     CODE     ---       LVL=0
      01008724H   LINE      CODE     ---       #435
      01008724H   LINE      CODE     ---       #436
      01008724H   LINE      CODE     ---       #437
      ---         BLOCKEND  ---      ---       LVL=0

      0100872CH   BLOCK     CODE     ---       LVL=0
      0100872CH   LINE      CODE     ---       #440
      0100872CH   LINE      CODE     ---       #441
      0100872CH   LINE      CODE     ---       #442
LX51 LINKER/LOCATER V4.66.87.0                                                        05/29/2018  21:11:03  PAGE 161


      ---         BLOCKEND  ---      ---       LVL=0

      01007F22H   BLOCK     CODE     ---       LVL=0
      0200000CH   SYMBOL    XDATA    BYTE      ev
      01007F22H   LINE      CODE     ---       #445
      01007F27H   LINE      CODE     ---       #446
      01007F27H   LINE      CODE     ---       #447
      01007F30H   LINE      CODE     ---       #448
      ---         BLOCKEND  ---      ---       LVL=0

      010086AEH   BLOCK     CODE     ---       LVL=0
      010086AEH   LINE      CODE     ---       #451
      010086AEH   LINE      CODE     ---       #452
      010086AEH   LINE      CODE     ---       #453
      ---         BLOCKEND  ---      ---       LVL=0

      010086B7H   BLOCK     CODE     ---       LVL=0
      010086B7H   LINE      CODE     ---       #456
      010086B7H   LINE      CODE     ---       #457
      010086B7H   LINE      CODE     ---       #458
      ---         BLOCKEND  ---      ---       LVL=0

      ---         MODULE    ---      ---       ROM
      01006443H   PUBLIC    CODE     ---       rom_initialize
      01008734H   PUBLIC    CODE     ---       rom_is_factory_reset
      01006B63H   PUBLIC    CODE     ---       _rom_write
      0100699AH   PUBLIC    CODE     ---       _rom_read
      00000080H   SFRSYM    DATA     BYTE      P0
      00000090H   SFRSYM    DATA     BYTE      P1
      000000A0H   SFRSYM    DATA     BYTE      P2
      000000B0H   SFRSYM    DATA     BYTE      P3
      000000C0H   SFRSYM    DATA     BYTE      XICON
      000000B0H.4 SFRSYM    DATA     BIT       T0
      000000D0H.6 SFRSYM    DATA     BIT       AC
      000000E8H   SFRSYM    DATA     BYTE      P4
      000000B0H.5 SFRSYM    DATA     BIT       T1
      000000E6H   SFRSYM    DATA     BYTE      ISP_TRIG
      00000090H.0 SFRSYM    DATA     BIT       T2
      000000A8H.7 SFRSYM    DATA     BIT       EA
      000000A8H.6 SFRSYM    DATA     BIT       EC
      00000098H.7 SFRSYM    DATA     BIT       FE
      000000A8H   SFRSYM    DATA     BYTE      IE
      000000C8H.6 SFRSYM    DATA     BIT       EXF2
      000000B0H.7 SFRSYM    DATA     BIT       RD
      000000A8H.4 SFRSYM    DATA     BIT       ES
      000000B8H   SFRSYM    DATA     BYTE      IP
      00000098H.0 SFRSYM    DATA     BIT       RI
      000000B0H.2 SFRSYM    DATA     BIT       INT0
      000000D0H.7 SFRSYM    DATA     BIT       CY
      00000098H.1 SFRSYM    DATA     BIT       TI
      000000B0H.3 SFRSYM    DATA     BIT       INT1
      000000CBH   SFRSYM    DATA     BYTE      RCAP2H
      000000E5H   SFRSYM    DATA     BYTE      ISP_CMD
      000000B8H.4 SFRSYM    DATA     BIT       PS
      00000081H   SFRSYM    DATA     BYTE      SP
      00000090H.1 SFRSYM    DATA     BIT       T2EX
      000000D0H.2 SFRSYM    DATA     BIT       OV
      000000CAH   SFRSYM    DATA     BYTE      RCAP2L
      000000C8H.1 SFRSYM    DATA     BIT       C_T2
      000000B0H.6 SFRSYM    DATA     BIT       WR
      000000C8H.5 SFRSYM    DATA     BIT       RCLK
      000000C8H.4 SFRSYM    DATA     BIT       TCLK
      00000080H.0 SFRSYM    DATA     BIT       P00
      00000099H   SFRSYM    DATA     BYTE      SBUF
      00000087H   SFRSYM    DATA     BYTE      PCON
LX51 LINKER/LOCATER V4.66.87.0                                                        05/29/2018  21:11:03  PAGE 162


      00000090H.0 SFRSYM    DATA     BIT       P10
      00000080H.1 SFRSYM    DATA     BIT       P01
      000000A0H.0 SFRSYM    DATA     BIT       P20
      00000090H.1 SFRSYM    DATA     BIT       P11
      00000080H.2 SFRSYM    DATA     BIT       P02
      000000E3H   SFRSYM    DATA     BYTE      ISP_ADDRH
      000000B0H.0 SFRSYM    DATA     BIT       P30
      000000A0H.1 SFRSYM    DATA     BIT       P21
      00000090H.2 SFRSYM    DATA     BIT       P12
      00000080H.3 SFRSYM    DATA     BIT       P03
      00000098H   SFRSYM    DATA     BYTE      SCON
      000000B0H.1 SFRSYM    DATA     BIT       P31
      000000A0H.2 SFRSYM    DATA     BIT       P22
      00000090H.3 SFRSYM    DATA     BIT       P13
      00000080H.4 SFRSYM    DATA     BIT       P04
      000000E8H.0 SFRSYM    DATA     BIT       P40
      00000089H   SFRSYM    DATA     BYTE      TMOD
      00000088H   SFRSYM    DATA     BYTE      TCON
      000000B0H.2 SFRSYM    DATA     BIT       P32
      000000A0H.3 SFRSYM    DATA     BIT       P23
      00000090H.4 SFRSYM    DATA     BIT       P14
      00000080H.5 SFRSYM    DATA     BIT       P05
      000000E8H.1 SFRSYM    DATA     BIT       P41
      000000B0H.3 SFRSYM    DATA     BIT       P33
      000000A0H.4 SFRSYM    DATA     BIT       P24
      00000090H.5 SFRSYM    DATA     BIT       P15
      00000080H.6 SFRSYM    DATA     BIT       P06
      000000E4H   SFRSYM    DATA     BYTE      ISP_ADDRL
      000000E8H.2 SFRSYM    DATA     BIT       P42
      000000B0H.4 SFRSYM    DATA     BIT       P34
      000000A0H.5 SFRSYM    DATA     BIT       P25
      00000090H.6 SFRSYM    DATA     BIT       P16
      00000080H.7 SFRSYM    DATA     BIT       P07
      000000E8H.3 SFRSYM    DATA     BIT       P43
      000000B0H.5 SFRSYM    DATA     BIT       P35
      000000A0H.6 SFRSYM    DATA     BIT       P26
      00000090H.7 SFRSYM    DATA     BIT       P17
      000000E8H.4 SFRSYM    DATA     BIT       P44
      000000B0H.6 SFRSYM    DATA     BIT       P36
      000000A0H.7 SFRSYM    DATA     BIT       P27
      000000E8H.5 SFRSYM    DATA     BIT       P45
      000000B0H.7 SFRSYM    DATA     BIT       P37
      000000E8H.6 SFRSYM    DATA     BIT       P46
      00000088H.1 SFRSYM    DATA     BIT       IE0
      00000088H.3 SFRSYM    DATA     BIT       IE1
      0000008EH   SFRSYM    DATA     BYTE      AUXR
      000000F0H   SFRSYM    DATA     BYTE      B
      000000C8H.0 SFRSYM    DATA     BIT       CP_RL2
      000000E0H   SFRSYM    DATA     BYTE      ACC
      000000A8H.1 SFRSYM    DATA     BIT       ET0
      000000A8H.3 SFRSYM    DATA     BIT       ET1
      00000088H.5 SFRSYM    DATA     BIT       TF0
      000000A8H.5 SFRSYM    DATA     BIT       ET2
      00000088H.7 SFRSYM    DATA     BIT       TF1
      000000C8H.7 SFRSYM    DATA     BIT       TF2
      00000098H.2 SFRSYM    DATA     BIT       RB8
      0000008CH   SFRSYM    DATA     BYTE      TH0
      000000A8H.0 SFRSYM    DATA     BIT       EX0
      00000088H.0 SFRSYM    DATA     BIT       IT0
      0000008DH   SFRSYM    DATA     BYTE      TH1
      00000098H.3 SFRSYM    DATA     BIT       TB8
      000000A8H.2 SFRSYM    DATA     BIT       EX1
      00000088H.2 SFRSYM    DATA     BIT       IT1
      000000CDH   SFRSYM    DATA     BYTE      TH2
      000000D0H.0 SFRSYM    DATA     BIT       P
LX51 LINKER/LOCATER V4.66.87.0                                                        05/29/2018  21:11:03  PAGE 163


      00000098H.7 SFRSYM    DATA     BIT       SM0
      0000008AH   SFRSYM    DATA     BYTE      TL0
      00000098H.6 SFRSYM    DATA     BIT       SM1
      0000008BH   SFRSYM    DATA     BYTE      TL1
      00000098H.5 SFRSYM    DATA     BIT       SM2
      000000CCH   SFRSYM    DATA     BYTE      TL2
      000000B0H.7 SFRSYM    DATA     BIT       ROM_RESET
      000000B8H.1 SFRSYM    DATA     BIT       PT0
      000000B8H.3 SFRSYM    DATA     BIT       PT1
      000000D0H.3 SFRSYM    DATA     BIT       RS0
      000000E7H   SFRSYM    DATA     BYTE      ISP_CONTR
      000000B8H.5 SFRSYM    DATA     BIT       PT2
      00000088H.4 SFRSYM    DATA     BIT       TR0
      000000D0H.4 SFRSYM    DATA     BIT       RS1
      00000088H.6 SFRSYM    DATA     BIT       TR1
      000000C8H.2 SFRSYM    DATA     BIT       TR2
      000000B8H.0 SFRSYM    DATA     BIT       PX0
      000000E1H   SFRSYM    DATA     BYTE      WDT_CONTR
      000000B8H.2 SFRSYM    DATA     BIT       PX1
      00000083H   SFRSYM    DATA     BYTE      DPH
      00000082H   SFRSYM    DATA     BYTE      DPL
      000000B7H   SFRSYM    DATA     BYTE      IPH
      000000C8H.3 SFRSYM    DATA     BIT       EXEN2
      00000098H.4 SFRSYM    DATA     BIT       REN
      000000C9H   SFRSYM    DATA     BYTE      T2MOD
      000000C8H   SFRSYM    DATA     BYTE      T2CON
      000000E2H   SFRSYM    DATA     BYTE      ISP_DATA
      000000B9H   SFRSYM    DATA     BYTE      SADEN
      000000B0H.0 SFRSYM    DATA     BIT       RXD
      000000A9H   SFRSYM    DATA     BYTE      SADDR
      000000B0H.1 SFRSYM    DATA     BIT       TXD
      000000A2H   SFRSYM    DATA     BYTE      AUXR1
      000000D0H.5 SFRSYM    DATA     BIT       F0
      000000D0H   SFRSYM    DATA     BYTE      PSW
      0100397FH   SYMBOL    CODE     ---       rom_reset
      0100463EH   SYMBOL    CODE     ---       rom_dump

      0100699AH   BLOCK     CODE     ---       LVL=0
      02000016H   SYMBOL    XDATA    BYTE      addr
      0100699FH   BLOCK     CODE     NEAR LAB  LVL=1
      02000017H   SYMBOL    XDATA    BYTE      dat
      ---         BLOCKEND  ---      ---       LVL=1
      0100699AH   LINE      CODE     ---       #11
      0100699FH   LINE      CODE     ---       #12
      0100699FH   LINE      CODE     ---       #14
      010069A2H   LINE      CODE     ---       #15
      010069AFH   LINE      CODE     ---       #16
      010069C8H   LINE      CODE     ---       #17
      010069CDH   LINE      CODE     ---       #18
      ---         BLOCKEND  ---      ---       LVL=0

      01006B63H   BLOCK     CODE     ---       LVL=0
      02000017H   SYMBOL    XDATA    BYTE      addr
      02000018H   SYMBOL    XDATA    BYTE      val
      01006B63H   LINE      CODE     ---       #20
      01006B6BH   LINE      CODE     ---       #21
      01006B6BH   LINE      CODE     ---       #22
      01006B6EH   LINE      CODE     ---       #23
      01006B7BH   LINE      CODE     ---       #24
      ---         BLOCKEND  ---      ---       LVL=0

      0100463EH   BLOCK     CODE     ---       LVL=0
      0100463EH   LINE      CODE     ---       #27
      0100463EH   LINE      CODE     ---       #28
      0100463EH   LINE      CODE     ---       #29
LX51 LINKER/LOCATER V4.66.87.0                                                        05/29/2018  21:11:03  PAGE 164


      01004643H   LINE      CODE     ---       #30
      01004648H   LINE      CODE     ---       #31
      0100464DH   LINE      CODE     ---       #32
      01004652H   LINE      CODE     ---       #33
      01004657H   LINE      CODE     ---       #35
      0100465CH   LINE      CODE     ---       #36
      01004661H   LINE      CODE     ---       #37
      01004666H   LINE      CODE     ---       #39
      0100466BH   LINE      CODE     ---       #41
      01004670H   LINE      CODE     ---       #42
      01004675H   LINE      CODE     ---       #43
      0100467AH   LINE      CODE     ---       #44
      0100467FH   LINE      CODE     ---       #46
      01004684H   LINE      CODE     ---       #47
      01004689H   LINE      CODE     ---       #48
      0100468EH   LINE      CODE     ---       #49
      01004693H   LINE      CODE     ---       #50
      01004698H   LINE      CODE     ---       #51
      0100469DH   LINE      CODE     ---       #53
      010046A2H   LINE      CODE     ---       #54
      010046A7H   LINE      CODE     ---       #55
      010046ACH   LINE      CODE     ---       #56
      010046B1H   LINE      CODE     ---       #57
      010046B6H   LINE      CODE     ---       #58
      ---         BLOCKEND  ---      ---       LVL=0

      0100397FH   BLOCK     CODE     ---       LVL=0
      0100397FH   LINE      CODE     ---       #61
      0100397FH   LINE      CODE     ---       #62
      0100397FH   LINE      CODE     ---       #63
      01003986H   LINE      CODE     ---       #64
      0100398DH   LINE      CODE     ---       #65
      01003994H   LINE      CODE     ---       #66
      01003996H   LINE      CODE     ---       #67
      0100399EH   LINE      CODE     ---       #69
      010039A5H   LINE      CODE     ---       #70
      010039ACH   LINE      CODE     ---       #71
      010039B3H   LINE      CODE     ---       #74
      010039B5H   LINE      CODE     ---       #76
      010039BDH   LINE      CODE     ---       #77
      010039C4H   LINE      CODE     ---       #78
      010039CBH   LINE      CODE     ---       #79
      010039D2H   LINE      CODE     ---       #81
      010039D9H   LINE      CODE     ---       #82
      010039E0H   LINE      CODE     ---       #83
      010039E7H   LINE      CODE     ---       #84
      010039EEH   LINE      CODE     ---       #85
      010039F5H   LINE      CODE     ---       #86
      010039FCH   LINE      CODE     ---       #88
      01003A03H   LINE      CODE     ---       #89
      01003A0AH   LINE      CODE     ---       #90
      01003A11H   LINE      CODE     ---       #91
      01003A18H   LINE      CODE     ---       #92
      01003A1FH   LINE      CODE     ---       #93
      01003A26H   LINE      CODE     ---       #94
      ---         BLOCKEND  ---      ---       LVL=0

      01008734H   BLOCK     CODE     ---       LVL=0
      01008734H   LINE      CODE     ---       #96
      01008734H   LINE      CODE     ---       #97
      01008734H   LINE      CODE     ---       #98
      0100873BH   LINE      CODE     ---       #99
      ---         BLOCKEND  ---      ---       LVL=0

      01006443H   BLOCK     CODE     ---       LVL=0
LX51 LINKER/LOCATER V4.66.87.0                                                        05/29/2018  21:11:03  PAGE 165


      01006443H   LINE      CODE     ---       #101
      01006443H   LINE      CODE     ---       #102
      01006443H   LINE      CODE     ---       #103
      0100646DH   LINE      CODE     ---       #104
      01006472H   LINE      CODE     ---       #105
      0100647BH   LINE      CODE     ---       #106
      0100647EH   LINE      CODE     ---       #107
      0100647EH   LINE      CODE     ---       #109
      ---         BLOCKEND  ---      ---       LVL=0

      ---         MODULE    ---      ---       DELAY_TASK
      01005C2EH   PUBLIC    CODE     ---       delay_task_call
      01005F84H   PUBLIC    CODE     ---       _delay_task_reg
      010086C0H   PUBLIC    CODE     ---       delay_task_initialize
      020000C9H   SYMBOL    XDATA    ---       delay_tasks
      020000CCH   SYMBOL    XDATA    ---       task

      010076ACH   BLOCK     CODE     ---       LVL=0
      ---         BLOCKEND  ---      ---       LVL=0

      010086C0H   BLOCK     CODE     ---       LVL=0
      010086C0H   LINE      CODE     ---       #9
      010086C0H   LINE      CODE     ---       #10
      010086C0H   LINE      CODE     ---       #11
      ---         BLOCKEND  ---      ---       LVL=0

      01005F84H   BLOCK     CODE     ---       LVL=0
      02000015H   SYMBOL    XDATA    BYTE      index
      02000016H   SYMBOL    XDATA    ---       task
      02000018H   SYMBOL    XDATA    BYTE      delay_sec
      01005F84H   LINE      CODE     ---       #14
      01005F97H   LINE      CODE     ---       #15
      01005F97H   LINE      CODE     ---       #16
      01005FA8H   LINE      CODE     ---       #17
      01005FB2H   LINE      CODE     ---       #19
      01005FB2H   LINE      CODE     ---       #21
      01005FC1H   LINE      CODE     ---       #22
      01005FCCH   LINE      CODE     ---       #23
      ---         BLOCKEND  ---      ---       LVL=0

      01005C2EH   BLOCK     CODE     ---       LVL=0
      01005C2EH   BLOCK     CODE     NEAR LAB  LVL=1
      0200000DH   SYMBOL    XDATA    BYTE      i
      ---         BLOCKEND  ---      ---       LVL=1
      01005C2EH   LINE      CODE     ---       #26
      01005C2EH   LINE      CODE     ---       #27
      01005C2EH   LINE      CODE     ---       #30
      01005C3DH   LINE      CODE     ---       #31
      01005C54H   LINE      CODE     ---       #32
      01005C62H   LINE      CODE     ---       #33
      01005C6FH   LINE      CODE     ---       #34
      01005C76H   LINE      CODE     ---       #35
      01005C76H   LINE      CODE     ---       #36
      01005C7EH   LINE      CODE     ---       #37
      ---         BLOCKEND  ---      ---       LVL=0

      ---         MODULE    ---      ---       SHELL
      0200007DH   PUBLIC    XDATA    ---       shell_buf
      010098ADH   PUBLIC    CONST    ---       cmds
      01002350H   PUBLIC    CODE     ---       run_shell
      010068FCH   PUBLIC    CODE     ---       shell_dump_cmd
      01005FCDH   PUBLIC    CODE     ---       _shell_search_cmd_by_name
      010046BBH   SYMBOL    CODE     ---       _call_cmd
      01008543H   SYMBOL    CODE     ---       _cmd_null

LX51 LINKER/LOCATER V4.66.87.0                                                        05/29/2018  21:11:03  PAGE 166


      01005DBFH   BLOCK     CODE     ---       LVL=0
      ---         BLOCKEND  ---      ---       LVL=0

      01008543H   BLOCK     CODE     ---       LVL=0
      02000000H   SYMBOL    XDATA    CHAR      arg1
      02000001H   SYMBOL    XDATA    CHAR      arg2
      01008543H   LINE      CODE     ---       #26
      01008543H   LINE      CODE     ---       #27
      01008543H   LINE      CODE     ---       #28
      01008543H   LINE      CODE     ---       #29
      01008543H   LINE      CODE     ---       #30
      0100854CH   LINE      CODE     ---       #31
      0100854EH   LINE      CODE     ---       #32
      ---         BLOCKEND  ---      ---       LVL=0

      01005FCDH   BLOCK     CODE     ---       LVL=0
      02000009H   SYMBOL    XDATA    ---       cmd
      01005FD3H   BLOCK     CODE     NEAR LAB  LVL=1
      0200000CH   SYMBOL    XDATA    CHAR      i
      ---         BLOCKEND  ---      ---       LVL=1
      01005FCDH   LINE      CODE     ---       #81
      01005FD3H   LINE      CODE     ---       #82
      01005FD3H   LINE      CODE     ---       #84
      01005FE4H   LINE      CODE     ---       #85
      01006005H   LINE      CODE     ---       #86
      0100600BH   LINE      CODE     ---       #87
      0100600BH   LINE      CODE     ---       #88
      01006013H   LINE      CODE     ---       #89
      01006015H   LINE      CODE     ---       #90
      ---         BLOCKEND  ---      ---       LVL=0

      010046BBH   BLOCK     CODE     ---       LVL=0
      02000002H   SYMBOL    XDATA    ---       buf
      02000005H   SYMBOL    XDATA    CHAR      arg1
      02000006H   SYMBOL    XDATA    CHAR      arg2
      010046C6H   BLOCK     CODE     NEAR LAB  LVL=1
      02000007H   SYMBOL    XDATA    CHAR      i
      ---         BLOCKEND  ---      ---       LVL=1
      010046BBH   LINE      CODE     ---       #92
      010046C6H   LINE      CODE     ---       #93
      010046C6H   LINE      CODE     ---       #95
      010046D2H   LINE      CODE     ---       #96
      010046E0H   LINE      CODE     ---       #97
      010046E3H   LINE      CODE     ---       #98
      0100470BH   LINE      CODE     ---       #99
      01004728H   LINE      CODE     ---       #100
      01004728H   LINE      CODE     ---       #101
      0100472AH   LINE      CODE     ---       #102
      01004736H   LINE      CODE     ---       #103
      01004736H   LINE      CODE     ---       #104
      ---         BLOCKEND  ---      ---       LVL=0

      010068FCH   BLOCK     CODE     ---       LVL=0
      010068FCH   BLOCK     CODE     NEAR LAB  LVL=1
      02000009H   SYMBOL    XDATA    CHAR      i
      ---         BLOCKEND  ---      ---       LVL=1
      010068FCH   LINE      CODE     ---       #106
      010068FCH   LINE      CODE     ---       #107
      010068FCH   LINE      CODE     ---       #109
      0100690DH   LINE      CODE     ---       #110
      01006928H   LINE      CODE     ---       #111
      01006930H   LINE      CODE     ---       #112
      ---         BLOCKEND  ---      ---       LVL=0

      01002350H   BLOCK     CODE     ---       LVL=0
LX51 LINKER/LOCATER V4.66.87.0                                                        05/29/2018  21:11:03  PAGE 167


      01002350H   BLOCK     CODE     NEAR LAB  LVL=1
      02000000H   SYMBOL    XDATA    CHAR      arg1_pos
      02000001H   SYMBOL    XDATA    CHAR      arg2_pos
      ---         BLOCKEND  ---      ---       LVL=1
      01002350H   LINE      CODE     ---       #114
      01002350H   LINE      CODE     ---       #115
      01002350H   LINE      CODE     ---       #118
      01002353H   LINE      CODE     ---       #119
      0100235CH   LINE      CODE     ---       #120
      0100235FH   LINE      CODE     ---       #123
      01002362H   LINE      CODE     ---       #124
      01002365H   LINE      CODE     ---       #125
      01002368H   LINE      CODE     ---       #126
      0100236FH   LINE      CODE     ---       #127
      01002376H   LINE      CODE     ---       #128
      0100237DH   LINE      CODE     ---       #129
      01002384H   LINE      CODE     ---       #130
      01002389H   LINE      CODE     ---       #131
      01002389H   LINE      CODE     ---       #132
      01002392H   LINE      CODE     ---       #134
      0100239FH   LINE      CODE     ---       #136
      010023A4H   LINE      CODE     ---       #138
      010023ADH   LINE      CODE     ---       #139
      010023ADH   LINE      CODE     ---       #141
      010023B2H   LINE      CODE     ---       #142
      010023B4H   LINE      CODE     ---       #144
      010023C9H   LINE      CODE     ---       #146
      010023D4H   LINE      CODE     ---       #147
      010023D4H   LINE      CODE     ---       #148
      010023D6H   LINE      CODE     ---       #149
      010023D6H   LINE      CODE     ---       #151
      010023E2H   LINE      CODE     ---       #152
      010023E7H   LINE      CODE     ---       #153
      010023EDH   LINE      CODE     ---       #154
      010023EFH   LINE      CODE     ---       #156
      010023FAH   LINE      CODE     ---       #157
      01002406H   LINE      CODE     ---       #158
      01002408H   LINE      CODE     ---       #159
      01002408H   LINE      CODE     ---       #161
      0100240EH   LINE      CODE     ---       #163
      01002426H   LINE      CODE     ---       #165
      01002431H   LINE      CODE     ---       #166
      01002439H   LINE      CODE     ---       #167
      0100243BH   LINE      CODE     ---       #168
      0100243BH   LINE      CODE     ---       #170
      0100244AH   LINE      CODE     ---       #171
      0100244FH   LINE      CODE     ---       #172
      01002455H   LINE      CODE     ---       #173
      01002457H   LINE      CODE     ---       #175
      01002465H   LINE      CODE     ---       #176
      0100246DH   LINE      CODE     ---       #177
      0100246FH   LINE      CODE     ---       #178
      0100246FH   LINE      CODE     ---       #180
      0100247BH   LINE      CODE     ---       #182
      01002490H   LINE      CODE     ---       #184
      01002493H   LINE      CODE     ---       #185
      01002496H   LINE      CODE     ---       #186
      01002499H   LINE      CODE     ---       #187
      ---         BLOCKEND  ---      ---       LVL=0

      ---         MODULE    ---      ---       DEBUG
      0200001CH   PUBLIC    XDATA    BYTE      ?_debug_printf?BYTE
      01006859H   PUBLIC    CODE     ---       _debug_printf
      00000020H.0 PUBLIC    BIT      BIT       ?debug_onoff?BIT
      01008809H   PUBLIC    CODE     ---       debug_onoff
LX51 LINKER/LOCATER V4.66.87.0                                                        05/29/2018  21:11:03  PAGE 168


      01008839H   PUBLIC    CODE     ---       debug_initialize
      00000024H.7 SYMBOL    BIT      BIT       debug_is_on

      01008839H   BLOCK     CODE     ---       LVL=0
      01008839H   LINE      CODE     ---       #7
      01008839H   LINE      CODE     ---       #8
      01008839H   LINE      CODE     ---       #9
      0100883BH   LINE      CODE     ---       #10
      ---         BLOCKEND  ---      ---       LVL=0

      01008809H   BLOCK     CODE     ---       LVL=0
      00000020H.0 SYMBOL    BIT      BIT       enable
      01008809H   LINE      CODE     ---       #12
      01008809H   LINE      CODE     ---       #13
      01008809H   LINE      CODE     ---       #14
      0100880DH   LINE      CODE     ---       #15
      ---         BLOCKEND  ---      ---       LVL=0

      01006859H   BLOCK     CODE     ---       LVL=0
      0200001CH   SYMBOL    XDATA    ---       fmt
      0100685FH   BLOCK     CODE     NEAR LAB  LVL=1
      0200001FH   SYMBOL    XDATA    ---       ellipsis_40
      02000047H   SYMBOL    XDATA    ---       arg_ptr
      ---         BLOCKEND  ---      ---       LVL=1
      01006859H   LINE      CODE     ---       #17
      0100685FH   LINE      CODE     ---       #18
      0100685FH   LINE      CODE     ---       #21
      01006862H   LINE      CODE     ---       #22
      0100686EH   LINE      CODE     ---       #23
      01006883H   LINE      CODE     ---       #24
      0100688FH   LINE      CODE     ---       #25
      0100688FH   LINE      CODE     ---       #26
      ---         BLOCKEND  ---      ---       LVL=0

      ---         MODULE    ---      ---       MPU
      010073E2H   PUBLIC    CODE     ---       mpu_read_int_status
      01008478H   PUBLIC    CODE     ---       _mpu_threshold_set
      010087B8H   PUBLIC    CODE     ---       mpu_threshold_get
      01008258H   PUBLIC    CODE     ---       _mpu_threshold_inc
      0100873CH   PUBLIC    CODE     ---       mpu_threshold_reset
      00000020H.1 PUBLIC    BIT      BIT       ?mpu_enable?BIT
      0100776BH   PUBLIC    CODE     ---       mpu_enable
      01006D42H   PUBLIC    CODE     ---       scan_mpu
      010086D2H   PUBLIC    CODE     ---       mpu_leave_powersave
      010086C9H   PUBLIC    CODE     ---       mpu_enter_powersave
      010083AEH   PUBLIC    CODE     ---       mpu_initialize
      01006DCDH   SYMBOL    CODE     ---       mpu_power_off
      020000E8H   SYMBOL    XDATA    BYTE      mpu_threshold
      01006B94H   SYMBOL    CODE     ---       mpu_power_on
      010076CCH   SYMBOL    CODE     ---       mpu_load_config

      0100817FH   BLOCK     CODE     ---       LVL=0
      ---         BLOCKEND  ---      ---       LVL=0

      010076CCH   BLOCK     CODE     ---       LVL=0
      010076CCH   LINE      CODE     ---       #19
      010076CCH   LINE      CODE     ---       #20
      010076CCH   LINE      CODE     ---       #21
      010076D5H   LINE      CODE     ---       #22
      010076DFH   LINE      CODE     ---       #23
      ---         BLOCKEND  ---      ---       LVL=0

      01006B94H   BLOCK     CODE     ---       LVL=0
      01006B94H   BLOCK     CODE     NEAR LAB  LVL=1
      02000015H   SYMBOL    XDATA    BYTE      val
LX51 LINKER/LOCATER V4.66.87.0                                                        05/29/2018  21:11:03  PAGE 169


      ---         BLOCKEND  ---      ---       LVL=1
      01006B94H   LINE      CODE     ---       #26
      01006B94H   LINE      CODE     ---       #27
      01006B94H   LINE      CODE     ---       #29
      01006B9DH   LINE      CODE     ---       #31
      01006BA0H   LINE      CODE     ---       #35
      01006BA9H   LINE      CODE     ---       #38
      01006BB2H   LINE      CODE     ---       #41
      01006BBCH   LINE      CODE     ---       #43
      ---         BLOCKEND  ---      ---       LVL=0

      01006DCDH   BLOCK     CODE     ---       LVL=0
      01006DCDH   BLOCK     CODE     NEAR LAB  LVL=1
      02000015H   SYMBOL    XDATA    BYTE      val
      ---         BLOCKEND  ---      ---       LVL=1
      01006DCDH   LINE      CODE     ---       #119
      01006DCDH   LINE      CODE     ---       #120
      01006DCDH   LINE      CODE     ---       #122
      01006DD6H   LINE      CODE     ---       #125
      01006DDFH   LINE      CODE     ---       #128
      01006DE8H   LINE      CODE     ---       #131
      01006DF2H   LINE      CODE     ---       #133
      ---         BLOCKEND  ---      ---       LVL=0

      010083AEH   BLOCK     CODE     ---       LVL=0
      010083AEH   LINE      CODE     ---       #157
      010083AEH   LINE      CODE     ---       #158
      010083AEH   LINE      CODE     ---       #159
      010083B7H   LINE      CODE     ---       #161
      010083BAH   LINE      CODE     ---       #163
      ---         BLOCKEND  ---      ---       LVL=0

      010086C9H   BLOCK     CODE     ---       LVL=0
      010086C9H   LINE      CODE     ---       #166
      010086C9H   LINE      CODE     ---       #167
      010086C9H   LINE      CODE     ---       #168
      ---         BLOCKEND  ---      ---       LVL=0

      010086D2H   BLOCK     CODE     ---       LVL=0
      010086D2H   LINE      CODE     ---       #171
      010086D2H   LINE      CODE     ---       #172
      010086D2H   LINE      CODE     ---       #173
      ---         BLOCKEND  ---      ---       LVL=0

      01006D42H   BLOCK     CODE     ---       LVL=0
      01006D42H   BLOCK     CODE     NEAR LAB  LVL=1
      00000007H   SYMBOL    DATA     BYTE      val
      00000020H.0 SYMBOL    BIT      BIT       has_event
      ---         BLOCKEND  ---      ---       LVL=1
      01006D42H   LINE      CODE     ---       #176
      01006D42H   LINE      CODE     ---       #177
      01006D42H   LINE      CODE     ---       #179
      01006D44H   LINE      CODE     ---       #181
      01006D4DH   LINE      CODE     ---       #182
      01006D50H   LINE      CODE     ---       #185
      01006D54H   LINE      CODE     ---       #189
      01006D5DH   LINE      CODE     ---       #190
      01006D63H   LINE      CODE     ---       #191
      01006D65H   LINE      CODE     ---       #192
      01006D65H   LINE      CODE     ---       #194
      01006D6DH   LINE      CODE     ---       #195
      01006D70H   LINE      CODE     ---       #196
      01006D70H   LINE      CODE     ---       #197
      ---         BLOCKEND  ---      ---       LVL=0

LX51 LINKER/LOCATER V4.66.87.0                                                        05/29/2018  21:11:03  PAGE 170


      0100776BH   BLOCK     CODE     ---       LVL=0
      00000020H.1 SYMBOL    BIT      BIT       enable
      0100776BH   LINE      CODE     ---       #199
      0100776BH   LINE      CODE     ---       #200
      0100776BH   LINE      CODE     ---       #201
      01007780H   LINE      CODE     ---       #202
      01007783H   LINE      CODE     ---       #203
      01007786H   LINE      CODE     ---       #204
      01007786H   LINE      CODE     ---       #205
      01007789H   LINE      CODE     ---       #206
      01007789H   LINE      CODE     ---       #208
      ---         BLOCKEND  ---      ---       LVL=0

      0100873CH   BLOCK     CODE     ---       LVL=0
      0100873CH   LINE      CODE     ---       #210
      0100873CH   LINE      CODE     ---       #211
      0100873CH   LINE      CODE     ---       #212
      ---         BLOCKEND  ---      ---       LVL=0

      01008258H   BLOCK     CODE     ---       LVL=0
      00000007H   SYMBOL    DATA     BYTE      thres
      01008258H   LINE      CODE     ---       #216
      01008258H   LINE      CODE     ---       #217
      01008258H   LINE      CODE     ---       #218
      0100825CH   LINE      CODE     ---       #219
      01008262H   LINE      CODE     ---       #220
      01008263H   LINE      CODE     ---       #221
      01008264H   LINE      CODE     ---       #222
      01008264H   LINE      CODE     ---       #223
      01008267H   LINE      CODE     ---       #224
      01008267H   LINE      CODE     ---       #225
      01008267H   LINE      CODE     ---       #226
      01008269H   LINE      CODE     ---       #227
      01008269H   LINE      CODE     ---       #228
      ---         BLOCKEND  ---      ---       LVL=0

      010087B8H   BLOCK     CODE     ---       LVL=0
      010087B8H   LINE      CODE     ---       #230
      010087B8H   LINE      CODE     ---       #231
      010087B8H   LINE      CODE     ---       #233
      010087BDH   LINE      CODE     ---       #239
      ---         BLOCKEND  ---      ---       LVL=0

      01008478H   BLOCK     CODE     ---       LVL=0
      00000007H   SYMBOL    DATA     BYTE      val
      01008478H   LINE      CODE     ---       #241
      01008478H   LINE      CODE     ---       #242
      01008478H   LINE      CODE     ---       #243
      ---         BLOCKEND  ---      ---       LVL=0

      010073E2H   BLOCK     CODE     ---       LVL=0
      010073E2H   BLOCK     CODE     NEAR LAB  LVL=1
      02000016H   SYMBOL    XDATA    BYTE      val
      ---         BLOCKEND  ---      ---       LVL=1
      010073E2H   LINE      CODE     ---       #261
      010073E2H   LINE      CODE     ---       #262
      010073E2H   LINE      CODE     ---       #265
      010073EFH   LINE      CODE     ---       #269
      01007400H   LINE      CODE     ---       #270
      01007405H   LINE      CODE     ---       #271
      ---         BLOCKEND  ---      ---       LVL=0

      ---         MODULE    ---      ---       SM_CLOCK_TIMER
      0100C0F1H   PUBLIC    CONST    ---       sm_clock_timer_ss_name
      01005503H   PUBLIC    CODE     ---       _sm_clock_timer_submod2
LX51 LINKER/LOCATER V4.66.87.0                                                        05/29/2018  21:11:03  PAGE 171


      01004B6DH   PUBLIC    CODE     ---       _sm_clock_timer_submod1
      010060A8H   PUBLIC    CODE     ---       _sm_clock_timer_submod0
      01007BECH   PUBLIC    CODE     ---       _sm_clock_timer_init
      01004541H   SYMBOL    CODE     ---       _display_slot
      010066CFH   SYMBOL    CODE     ---       _show_slot_title

      010075C9H   BLOCK     CODE     ---       LVL=0
      ---         BLOCKEND  ---      ---       LVL=0

      010066CFH   BLOCK     CODE     ---       LVL=0
      02000012H   SYMBOL    XDATA    BYTE      slot
      010066CFH   LINE      CODE     ---       #20
      010066D4H   LINE      CODE     ---       #21
      010066D4H   LINE      CODE     ---       #22
      010066D7H   LINE      CODE     ---       #23
      010066DEH   LINE      CODE     ---       #24
      010066E5H   LINE      CODE     ---       #25
      010066ECH   LINE      CODE     ---       #26
      010066FCH   LINE      CODE     ---       #27
      ---         BLOCKEND  ---      ---       LVL=0

      01004541H   BLOCK     CODE     ---       LVL=0
      02000014H   SYMBOL    XDATA    BYTE      slot
      01004541H   LINE      CODE     ---       #30
      01004546H   LINE      CODE     ---       #31
      01004546H   LINE      CODE     ---       #32
      01004549H   LINE      CODE     ---       #34
      0100454EH   LINE      CODE     ---       #35
      01004552H   LINE      CODE     ---       #36
      01004556H   LINE      CODE     ---       #37
      0100455AH   LINE      CODE     ---       #38
      01004565H   LINE      CODE     ---       #39
      0100456EH   LINE      CODE     ---       #40
      01004577H   LINE      CODE     ---       #41
      01004585H   LINE      CODE     ---       #42
      01004590H   LINE      CODE     ---       #43
      0100459EH   LINE      CODE     ---       #44
      ---         BLOCKEND  ---      ---       LVL=0

      01007BECH   BLOCK     CODE     ---       LVL=0
      00000007H   SYMBOL    DATA     BYTE      from
      00000005H   SYMBOL    DATA     BYTE      to
      00000006H   SYMBOL    DATA     BYTE      ev
      01007BECH   LINE      CODE     ---       #46
      01007BEEH   LINE      CODE     ---       #47
      01007BEEH   LINE      CODE     ---       #48
      01007BFAH   LINE      CODE     ---       #49
      01007BFFH   LINE      CODE     ---       #50
      ---         BLOCKEND  ---      ---       LVL=0

      010060A8H   BLOCK     CODE     ---       LVL=0
      02000011H   SYMBOL    XDATA    BYTE      from
      02000012H   SYMBOL    XDATA    BYTE      to
      02000013H   SYMBOL    XDATA    BYTE      ev
      010060A8H   LINE      CODE     ---       #53
      010060B3H   LINE      CODE     ---       #54
      010060B3H   LINE      CODE     ---       #55
      010060BDH   LINE      CODE     ---       #57
      010060D2H   LINE      CODE     ---       #59
      010060D2H   LINE      CODE     ---       #60
      010060D7H   LINE      CODE     ---       #61
      010060DCH   LINE      CODE     ---       #62
      010060E0H   LINE      CODE     ---       #64
      010060E0H   LINE      CODE     ---       #67
      010060E7H   LINE      CODE     ---       #68
LX51 LINKER/LOCATER V4.66.87.0                                                        05/29/2018  21:11:03  PAGE 172


      010060EAH   LINE      CODE     ---       #69
      010060EFH   LINE      CODE     ---       #71
      010060EFH   LINE      CODE     ---       #72
      ---         BLOCKEND  ---      ---       LVL=0

      01004B6DH   BLOCK     CODE     ---       LVL=0
      00000007H   SYMBOL    DATA     BYTE      from
      00000005H   SYMBOL    DATA     BYTE      to
      02000011H   SYMBOL    XDATA    BYTE      ev
      01004B6DH   LINE      CODE     ---       #74
      01004B72H   LINE      CODE     ---       #75
      01004B72H   LINE      CODE     ---       #76
      01004B7CH   LINE      CODE     ---       #78
      01004B83H   LINE      CODE     ---       #79
      01004B86H   LINE      CODE     ---       #80
      01004B89H   LINE      CODE     ---       #81
      01004B8DH   LINE      CODE     ---       #83
      01004B8DH   LINE      CODE     ---       #86
      01004B94H   LINE      CODE     ---       #87
      01004B9DH   LINE      CODE     ---       #88
      01004BA8H   LINE      CODE     ---       #89
      01004BB0H   LINE      CODE     ---       #90
      01004BB0H   LINE      CODE     ---       #92
      01004BB0H   LINE      CODE     ---       #94
      01004BB7H   LINE      CODE     ---       #95
      01004BC0H   LINE      CODE     ---       #96
      01004BC3H   LINE      CODE     ---       #97
      01004BCBH   LINE      CODE     ---       #98
      01004BD1H   LINE      CODE     ---       #99
      01004BD1H   LINE      CODE     ---       #101
      01004BD1H   LINE      CODE     ---       #102
      ---         BLOCKEND  ---      ---       LVL=0

      01005503H   BLOCK     CODE     ---       LVL=0
      00000007H   SYMBOL    DATA     BYTE      from
      00000005H   SYMBOL    DATA     BYTE      to
      02000011H   SYMBOL    XDATA    BYTE      ev
      01005503H   LINE      CODE     ---       #104
      01005509H   LINE      CODE     ---       #105
      01005509H   LINE      CODE     ---       #106
      01005515H   LINE      CODE     ---       #108
      0100551CH   LINE      CODE     ---       #109
      0100551FH   LINE      CODE     ---       #110
      0100552AH   LINE      CODE     ---       #111
      0100552FH   LINE      CODE     ---       #112
      01005533H   LINE      CODE     ---       #114
      01005533H   LINE      CODE     ---       #117
      0100553AH   LINE      CODE     ---       #118
      01005542H   LINE      CODE     ---       #120
      01005542H   LINE      CODE     ---       #122
      01005549H   LINE      CODE     ---       #123
      01005551H   LINE      CODE     ---       #124
      0100555EH   LINE      CODE     ---       #126
      0100555EH   LINE      CODE     ---       #127
      ---         BLOCKEND  ---      ---       LVL=0

      ---         MODULE    ---      ---       SM_CLOCK_COUNTER
      0100B453H   PUBLIC    CONST    ---       sm_clock_counter_ss_name
      010072E0H   PUBLIC    CODE     ---       _sm_clock_counter_submod5
      010074B8H   PUBLIC    CODE     ---       _sm_clock_counter_submod4
      010062CAH   PUBLIC    CODE     ---       _sm_clock_counter_submod3
      01005448H   PUBLIC    CODE     ---       _sm_clock_counter_submod2
      0100555FH   PUBLIC    CODE     ---       _sm_clock_counter_submod1
      0100405AH   PUBLIC    CODE     ---       _sm_clock_counter_submod0
      01007FB7H   PUBLIC    CODE     ---       _sm_clock_counter_init
LX51 LINKER/LOCATER V4.66.87.0                                                        05/29/2018  21:11:03  PAGE 173


      01007061H   SYMBOL    CODE     ---       _enter_hhmmss
      01006F34H   SYMBOL    CODE     ---       _write_only
      01008612H   SYMBOL    CODE     ---       _inc_and_write
      01006137H   SYMBOL    CODE     ---       _inc_only
      01003D5EH   SYMBOL    CODE     ---       update_hhmmss

      0100708BH   BLOCK     CODE     ---       LVL=0
      ---         BLOCKEND  ---      ---       LVL=0

      01006137H   BLOCK     CODE     ---       LVL=0
      00000007H   SYMBOL    DATA     BYTE      what
      01006137H   LINE      CODE     ---       #21
      01006137H   LINE      CODE     ---       #22
      01006137H   LINE      CODE     ---       #23
      01006142H   LINE      CODE     ---       #24
      01006142H   LINE      CODE     ---       #25
      01006145H   LINE      CODE     ---       #26
      01006147H   LINE      CODE     ---       #27
      01006149H   LINE      CODE     ---       #28
      0100614CH   LINE      CODE     ---       #29
      0100614CH   LINE      CODE     ---       #30
      01006151H   LINE      CODE     ---       #31
      01006151H   LINE      CODE     ---       #32
      01006151H   LINE      CODE     ---       #33
      01006154H   LINE      CODE     ---       #34
      01006156H   LINE      CODE     ---       #35
      01006158H   LINE      CODE     ---       #36
      0100615BH   LINE      CODE     ---       #37
      0100615BH   LINE      CODE     ---       #38
      01006160H   LINE      CODE     ---       #39
      01006160H   LINE      CODE     ---       #40
      01006160H   LINE      CODE     ---       #41
      01006163H   LINE      CODE     ---       #42
      01006165H   LINE      CODE     ---       #43
      0100616AH   LINE      CODE     ---       #44
      0100616EH   LINE      CODE     ---       #45
      0100616EH   LINE      CODE     ---       #46
      01006173H   LINE      CODE     ---       #47
      01006173H   LINE      CODE     ---       #48
      01006173H   LINE      CODE     ---       #49
      ---         BLOCKEND  ---      ---       LVL=0

      01006F34H   BLOCK     CODE     ---       LVL=0
      00000007H   SYMBOL    DATA     BYTE      what
      01006F34H   LINE      CODE     ---       #51
      01006F34H   LINE      CODE     ---       #52
      01006F34H   LINE      CODE     ---       #53
      01006F3FH   LINE      CODE     ---       #54
      01006F3FH   LINE      CODE     ---       #55
      01006F42H   LINE      CODE     ---       #56
      01006F44H   LINE      CODE     ---       #57
      01006F46H   LINE      CODE     ---       #58
      01006F46H   LINE      CODE     ---       #59
      01006F46H   LINE      CODE     ---       #60
      01006F48H   LINE      CODE     ---       #61
      01006F48H   LINE      CODE     ---       #62
      01006F4BH   LINE      CODE     ---       #63
      01006F4DH   LINE      CODE     ---       #64
      01006F4FH   LINE      CODE     ---       #65
      01006F4FH   LINE      CODE     ---       #66
      01006F4FH   LINE      CODE     ---       #67
      01006F51H   LINE      CODE     ---       #68
      01006F51H   LINE      CODE     ---       #69
      01006F54H   LINE      CODE     ---       #70
      01006F56H   LINE      CODE     ---       #71
LX51 LINKER/LOCATER V4.66.87.0                                                        05/29/2018  21:11:03  PAGE 174


      01006F5BH   LINE      CODE     ---       #72
      01006F5FH   LINE      CODE     ---       #73
      01006F5FH   LINE      CODE     ---       #74
      01006F5FH   LINE      CODE     ---       #75
      01006F5FH   LINE      CODE     ---       #76
      ---         BLOCKEND  ---      ---       LVL=0

      01008612H   BLOCK     CODE     ---       LVL=0
      00000006H   SYMBOL    DATA     BYTE      what
      01008612H   LINE      CODE     ---       #78
      01008614H   LINE      CODE     ---       #79
      01008614H   LINE      CODE     ---       #80
      01008617H   LINE      CODE     ---       #81
      ---         BLOCKEND  ---      ---       LVL=0

      01003D5EH   BLOCK     CODE     ---       LVL=0
      01003D5EH   BLOCK     CODE     NEAR LAB  LVL=1
      02000015H   SYMBOL    XDATA    BYTE      hour
      02000016H   SYMBOL    XDATA    BYTE      min
      02000017H   SYMBOL    XDATA    BYTE      sec
      ---         BLOCKEND  ---      ---       LVL=1
      01003D5EH   LINE      CODE     ---       #84
      01003D5EH   LINE      CODE     ---       #85
      01003D5EH   LINE      CODE     ---       #88
      01003D68H   LINE      CODE     ---       #89
      01003D72H   LINE      CODE     ---       #90
      01003D7CH   LINE      CODE     ---       #93
      01003D81H   LINE      CODE     ---       #94
      01003D85H   LINE      CODE     ---       #95
      01003D89H   LINE      CODE     ---       #96
      01003D8DH   LINE      CODE     ---       #98
      01003DAEH   LINE      CODE     ---       #100
      01003DB6H   LINE      CODE     ---       #101
      01003DC1H   LINE      CODE     ---       #102
      01003DC9H   LINE      CODE     ---       #103
      01003DD4H   LINE      CODE     ---       #104
      01003DE4H   LINE      CODE     ---       #105
      01003DEFH   LINE      CODE     ---       #107
      ---         BLOCKEND  ---      ---       LVL=0

      01007061H   BLOCK     CODE     ---       LVL=0
      02000014H   SYMBOL    XDATA    BYTE      what
      01007061H   LINE      CODE     ---       #109
      01007066H   LINE      CODE     ---       #110
      01007066H   LINE      CODE     ---       #111
      01007069H   LINE      CODE     ---       #112
      01007077H   LINE      CODE     ---       #113
      01007077H   LINE      CODE     ---       #114
      01007079H   LINE      CODE     ---       #115
      01007079H   LINE      CODE     ---       #116
      0100707BH   LINE      CODE     ---       #117
      0100707BH   LINE      CODE     ---       #118
      0100707DH   LINE      CODE     ---       #119
      0100707DH   LINE      CODE     ---       #120
      0100707FH   LINE      CODE     ---       #121
      0100707FH   LINE      CODE     ---       #122
      01007084H   LINE      CODE     ---       #123
      01007088H   LINE      CODE     ---       #124
      01007088H   LINE      CODE     ---       #125
      01007088H   LINE      CODE     ---       #126
      ---         BLOCKEND  ---      ---       LVL=0

      01007FB7H   BLOCK     CODE     ---       LVL=0
      00000007H   SYMBOL    DATA     BYTE      from
      00000005H   SYMBOL    DATA     BYTE      to
LX51 LINKER/LOCATER V4.66.87.0                                                        05/29/2018  21:11:03  PAGE 175


      00000006H   SYMBOL    DATA     BYTE      ev
      01007FB7H   LINE      CODE     ---       #129
      01007FB9H   LINE      CODE     ---       #130
      01007FB9H   LINE      CODE     ---       #131
      01007FC5H   LINE      CODE     ---       #132
      ---         BLOCKEND  ---      ---       LVL=0

      0100405AH   BLOCK     CODE     ---       LVL=0
      02000011H   SYMBOL    XDATA    BYTE      from
      02000012H   SYMBOL    XDATA    BYTE      to
      02000013H   SYMBOL    XDATA    BYTE      ev
      0100405AH   LINE      CODE     ---       #135
      01004065H   LINE      CODE     ---       #136
      01004065H   LINE      CODE     ---       #137
      0100406FH   LINE      CODE     ---       #139
      01004084H   LINE      CODE     ---       #141
      01004084H   LINE      CODE     ---       #142
      01004089H   LINE      CODE     ---       #143
      0100408CH   LINE      CODE     ---       #144
      01004091H   LINE      CODE     ---       #145
      01004097H   LINE      CODE     ---       #147
      01004097H   LINE      CODE     ---       #150
      0100409DH   LINE      CODE     ---       #151
      010040A0H   LINE      CODE     ---       #153
      010040A0H   LINE      CODE     ---       #156
      010040A8H   LINE      CODE     ---       #157
      010040ADH   LINE      CODE     ---       #159
      010040ADH   LINE      CODE     ---       #162
      010040B1H   LINE      CODE     ---       #163
      010040B8H   LINE      CODE     ---       #164
      010040BDH   LINE      CODE     ---       #165
      010040BDH   LINE      CODE     ---       #166
      010040BDH   LINE      CODE     ---       #167
      010040C6H   LINE      CODE     ---       #169
      010040C6H   LINE      CODE     ---       #172
      010040CEH   LINE      CODE     ---       #173
      010040D3H   LINE      CODE     ---       #174
      010040D9H   LINE      CODE     ---       #176
      010040D9H   LINE      CODE     ---       #179
      010040DDH   LINE      CODE     ---       #180
      010040E3H   LINE      CODE     ---       #181
      010040E6H   LINE      CODE     ---       #182
      010040EBH   LINE      CODE     ---       #184
      010040EBH   LINE      CODE     ---       #185
      ---         BLOCKEND  ---      ---       LVL=0

      0100555FH   BLOCK     CODE     ---       LVL=0
      00000007H   SYMBOL    DATA     BYTE      from
      00000005H   SYMBOL    DATA     BYTE      to
      02000011H   SYMBOL    XDATA    BYTE      ev
      0100555FH   LINE      CODE     ---       #187
      01005564H   LINE      CODE     ---       #188
      01005564H   LINE      CODE     ---       #189
      0100556EH   LINE      CODE     ---       #191
      01005574H   LINE      CODE     ---       #192
      01005577H   LINE      CODE     ---       #194
      01005577H   LINE      CODE     ---       #197
      0100557EH   LINE      CODE     ---       #198
      01005583H   LINE      CODE     ---       #200
      01005583H   LINE      CODE     ---       #203
      0100558BH   LINE      CODE     ---       #204
      01005590H   LINE      CODE     ---       #206
      01005590H   LINE      CODE     ---       #209
      01005594H   LINE      CODE     ---       #210
      0100559BH   LINE      CODE     ---       #211
LX51 LINKER/LOCATER V4.66.87.0                                                        05/29/2018  21:11:03  PAGE 176


      010055A0H   LINE      CODE     ---       #212
      010055A0H   LINE      CODE     ---       #213
      010055A0H   LINE      CODE     ---       #214
      010055A9H   LINE      CODE     ---       #216
      010055A9H   LINE      CODE     ---       #219
      010055B0H   LINE      CODE     ---       #220
      010055B5H   LINE      CODE     ---       #221
      010055BAH   LINE      CODE     ---       #223
      010055BAH   LINE      CODE     ---       #224
      ---         BLOCKEND  ---      ---       LVL=0

      01005448H   BLOCK     CODE     ---       LVL=0
      00000007H   SYMBOL    DATA     BYTE      from
      00000005H   SYMBOL    DATA     BYTE      to
      02000011H   SYMBOL    XDATA    BYTE      ev
      01005448H   LINE      CODE     ---       #226
      0100544EH   LINE      CODE     ---       #227
      0100544EH   LINE      CODE     ---       #228
      0100545AH   LINE      CODE     ---       #230
      01005460H   LINE      CODE     ---       #231
      01005463H   LINE      CODE     ---       #233
      01005463H   LINE      CODE     ---       #236
      0100546AH   LINE      CODE     ---       #237
      0100546FH   LINE      CODE     ---       #239
      0100546FH   LINE      CODE     ---       #242
      01005477H   LINE      CODE     ---       #243
      0100547CH   LINE      CODE     ---       #245
      0100547CH   LINE      CODE     ---       #248
      01005480H   LINE      CODE     ---       #249
      01005487H   LINE      CODE     ---       #250
      0100548CH   LINE      CODE     ---       #251
      0100548CH   LINE      CODE     ---       #252
      0100548CH   LINE      CODE     ---       #253
      01005495H   LINE      CODE     ---       #255
      01005495H   LINE      CODE     ---       #258
      0100549CH   LINE      CODE     ---       #259
      010054A1H   LINE      CODE     ---       #260
      010054A6H   LINE      CODE     ---       #262
      010054A6H   LINE      CODE     ---       #263
      ---         BLOCKEND  ---      ---       LVL=0

      010062CAH   BLOCK     CODE     ---       LVL=0
      00000007H   SYMBOL    DATA     BYTE      from
      00000005H   SYMBOL    DATA     BYTE      to
      02000011H   SYMBOL    XDATA    BYTE      ev
      010062CAH   LINE      CODE     ---       #265
      010062D0H   LINE      CODE     ---       #266
      010062D0H   LINE      CODE     ---       #267
      010062DCH   LINE      CODE     ---       #270
      010062E3H   LINE      CODE     ---       #271
      010062E6H   LINE      CODE     ---       #272
      010062EBH   LINE      CODE     ---       #273
      010062EFH   LINE      CODE     ---       #274
      010062F1H   LINE      CODE     ---       #276
      010062F1H   LINE      CODE     ---       #279
      010062F8H   LINE      CODE     ---       #280
      010062FBH   LINE      CODE     ---       #281
      010062FEH   LINE      CODE     ---       #283
      010062FEH   LINE      CODE     ---       #284
      ---         BLOCKEND  ---      ---       LVL=0

      010074B8H   BLOCK     CODE     ---       LVL=0
      00000007H   SYMBOL    DATA     BYTE      from
      00000005H   SYMBOL    DATA     BYTE      to
      02000011H   SYMBOL    XDATA    BYTE      ev
LX51 LINKER/LOCATER V4.66.87.0                                                        05/29/2018  21:11:03  PAGE 177


      010074B8H   LINE      CODE     ---       #286
      010074BEH   LINE      CODE     ---       #287
      010074BEH   LINE      CODE     ---       #288
      010074CAH   LINE      CODE     ---       #291
      010074D1H   LINE      CODE     ---       #292
      010074D4H   LINE      CODE     ---       #293
      010074DAH   LINE      CODE     ---       #295
      010074DAH   LINE      CODE     ---       #296
      ---         BLOCKEND  ---      ---       LVL=0

      010072E0H   BLOCK     CODE     ---       LVL=0
      00000007H   SYMBOL    DATA     BYTE      from
      00000005H   SYMBOL    DATA     BYTE      to
      02000011H   SYMBOL    XDATA    BYTE      ev
      010072E0H   LINE      CODE     ---       #298
      010072E6H   LINE      CODE     ---       #299
      010072E6H   LINE      CODE     ---       #300
      010072F2H   LINE      CODE     ---       #302
      010072F9H   LINE      CODE     ---       #303
      010072FFH   LINE      CODE     ---       #304
      01007302H   LINE      CODE     ---       #305
      01007305H   LINE      CODE     ---       #307
      01007305H   LINE      CODE     ---       #308
      ---         BLOCKEND  ---      ---       LVL=0

      ---         MODULE    ---      ---       SM_CLOCK_DISPLAY
      0100BDBEH   PUBLIC    CONST    ---       sm_clock_display_ss_name
      01007109H   PUBLIC    CODE     ---       _sm_clock_display_submod3
      0100742AH   PUBLIC    CODE     ---       _sm_clock_display_submod2
      01006E83H   PUBLIC    CODE     ---       _sm_clock_display_submod1
      01006016H   PUBLIC    CODE     ---       _sm_clock_display_submod0
      01007406H   PUBLIC    CODE     ---       _sm_clock_display_init
      01004323H   SYMBOL    CODE     ---       display_temp
      010086DBH   SYMBOL    CODE     ---       reset_auto_switch
      010076ECH   SYMBOL    CODE     ---       test_autoswitch

      0100770CH   BLOCK     CODE     ---       LVL=0
      ---         BLOCKEND  ---      ---       LVL=0

      01004323H   BLOCK     CODE     ---       LVL=0
      01004323H   BLOCK     CODE     NEAR LAB  LVL=1
      02000012H   SYMBOL    XDATA    BYTE      inti
      02000013H   SYMBOL    XDATA    BYTE      flt
      00000020H.0 SYMBOL    BIT      BIT       sign
      ---         BLOCKEND  ---      ---       LVL=1
      01004323H   LINE      CODE     ---       #26
      01004323H   LINE      CODE     ---       #27
      01004323H   LINE      CODE     ---       #31
      01004328H   LINE      CODE     ---       #32
      0100433CH   LINE      CODE     ---       #34
      01004361H   LINE      CODE     ---       #36
      01004364H   LINE      CODE     ---       #38
      01004369H   LINE      CODE     ---       #40
      01004370H   LINE      CODE     ---       #41
      0100437CH   LINE      CODE     ---       #42
      01004384H   LINE      CODE     ---       #43
      0100438FH   LINE      CODE     ---       #44
      01004397H   LINE      CODE     ---       #45
      010043A2H   LINE      CODE     ---       #46
      ---         BLOCKEND  ---      ---       LVL=0

      010086DBH   BLOCK     CODE     ---       LVL=0
      010086DBH   LINE      CODE     ---       #48
      010086DBH   LINE      CODE     ---       #49
      010086DBH   LINE      CODE     ---       #50
LX51 LINKER/LOCATER V4.66.87.0                                                        05/29/2018  21:11:03  PAGE 178


      010086E3H   LINE      CODE     ---       #51
      ---         BLOCKEND  ---      ---       LVL=0

      010076ECH   BLOCK     CODE     ---       LVL=0
      010076ECH   LINE      CODE     ---       #54
      010076ECH   LINE      CODE     ---       #55
      010076ECH   LINE      CODE     ---       #56
      010076FCH   LINE      CODE     ---       #57
      01007705H   LINE      CODE     ---       #58
      0100770BH   LINE      CODE     ---       #59
      0100770BH   LINE      CODE     ---       #60
      ---         BLOCKEND  ---      ---       LVL=0

      01007406H   BLOCK     CODE     ---       LVL=0
      00000007H   SYMBOL    DATA     BYTE      from
      00000005H   SYMBOL    DATA     BYTE      to
      00000006H   SYMBOL    DATA     BYTE      ev
      01007406H   LINE      CODE     ---       #62
      01007408H   LINE      CODE     ---       #63
      01007408H   LINE      CODE     ---       #64
      01007414H   LINE      CODE     ---       #65
      01007417H   LINE      CODE     ---       #66
      0100741AH   LINE      CODE     ---       #67
      0100741FH   LINE      CODE     ---       #68
      01007424H   LINE      CODE     ---       #69
      ---         BLOCKEND  ---      ---       LVL=0

      01006016H   BLOCK     CODE     ---       LVL=0
      02000011H   SYMBOL    XDATA    BYTE      from
      00000005H   SYMBOL    DATA     BYTE      to
      02000012H   SYMBOL    XDATA    BYTE      ev
      01006016H   LINE      CODE     ---       #72
      0100601EH   LINE      CODE     ---       #73
      0100601EH   LINE      CODE     ---       #74
      01006028H   LINE      CODE     ---       #77
      01006035H   LINE      CODE     ---       #78
      01006035H   LINE      CODE     ---       #79
      01006038H   LINE      CODE     ---       #80
      01006038H   LINE      CODE     ---       #81
      01006038H   LINE      CODE     ---       #82
      0100603AH   LINE      CODE     ---       #84
      0100603AH   LINE      CODE     ---       #87
      01006047H   LINE      CODE     ---       #88
      0100604CH   LINE      CODE     ---       #89
      01006051H   LINE      CODE     ---       #90
      01006054H   LINE      CODE     ---       #92
      01006054H   LINE      CODE     ---       #95
      0100605BH   LINE      CODE     ---       #96
      0100605EH   LINE      CODE     ---       #98
      0100605EH   LINE      CODE     ---       #99
      ---         BLOCKEND  ---      ---       LVL=0

      01006E83H   BLOCK     CODE     ---       LVL=0
      00000007H   SYMBOL    DATA     BYTE      from
      00000005H   SYMBOL    DATA     BYTE      to
      02000011H   SYMBOL    XDATA    BYTE      ev
      01006E83H   LINE      CODE     ---       #101
      01006E89H   LINE      CODE     ---       #102
      01006E89H   LINE      CODE     ---       #103
      01006E95H   LINE      CODE     ---       #105
      01006E9DH   LINE      CODE     ---       #107
      01006EA2H   LINE      CODE     ---       #108
      01006EA5H   LINE      CODE     ---       #109
      01006EA8H   LINE      CODE     ---       #111
      01006EA8H   LINE      CODE     ---       #114
LX51 LINKER/LOCATER V4.66.87.0                                                        05/29/2018  21:11:03  PAGE 179


      01006EACH   LINE      CODE     ---       #115
      01006EAFH   LINE      CODE     ---       #117
      01006EAFH   LINE      CODE     ---       #118
      ---         BLOCKEND  ---      ---       LVL=0

      0100742AH   BLOCK     CODE     ---       LVL=0
      00000007H   SYMBOL    DATA     BYTE      from
      00000005H   SYMBOL    DATA     BYTE      to
      02000011H   SYMBOL    XDATA    BYTE      ev
      0100742AH   LINE      CODE     ---       #120
      0100742DH   LINE      CODE     ---       #121
      0100742DH   LINE      CODE     ---       #122
      01007433H   LINE      CODE     ---       #124
      0100743BH   LINE      CODE     ---       #126
      01007440H   LINE      CODE     ---       #127
      01007443H   LINE      CODE     ---       #128
      01007446H   LINE      CODE     ---       #130
      01007446H   LINE      CODE     ---       #133
      0100744AH   LINE      CODE     ---       #134
      0100744DH   LINE      CODE     ---       #136
      0100744DH   LINE      CODE     ---       #137
      ---         BLOCKEND  ---      ---       LVL=0

      01007109H   BLOCK     CODE     ---       LVL=0
      00000007H   SYMBOL    DATA     BYTE      from
      00000005H   SYMBOL    DATA     BYTE      to
      02000011H   SYMBOL    XDATA    BYTE      ev
      01007109H   LINE      CODE     ---       #139
      0100710CH   LINE      CODE     ---       #140
      0100710CH   LINE      CODE     ---       #141
      01007112H   LINE      CODE     ---       #143
      01007119H   LINE      CODE     ---       #144
      0100711EH   LINE      CODE     ---       #145
      01007121H   LINE      CODE     ---       #146
      01007124H   LINE      CODE     ---       #147
      01007127H   LINE      CODE     ---       #149
      01007127H   LINE      CODE     ---       #152
      0100712EH   LINE      CODE     ---       #153
      01007131H   LINE      CODE     ---       #155
      01007131H   LINE      CODE     ---       #156
      ---         BLOCKEND  ---      ---       LVL=0

      ---         MODULE    ---      ---       SM_CLOCK_POWERSAVE
      0100CA9CH   PUBLIC    CONST    ---       sm_clock_powersave_ss_name
      01006B00H   PUBLIC    CODE     ---       _sm_clock_powersave

      01006B00H   BLOCK     CODE     ---       LVL=0
      00000007H   SYMBOL    DATA     BYTE      from
      02000011H   SYMBOL    XDATA    BYTE      to
      02000012H   SYMBOL    XDATA    BYTE      ev
      01006B00H   LINE      CODE     ---       #17
      01006B09H   LINE      CODE     ---       #18
      01006B09H   LINE      CODE     ---       #19
      01006B1DH   LINE      CODE     ---       #22
      01006B2BH   LINE      CODE     ---       #24
      01006B2EH   LINE      CODE     ---       #25
      01006B31H   LINE      CODE     ---       #27
      01006B31H   LINE      CODE     ---       #29
      ---         BLOCKEND  ---      ---       LVL=0

      ---         MODULE    ---      ---       SM_CLOCK_MOD_ALARM
      0100B7F3H   PUBLIC    CONST    ---       sm_clock_mod_alarm_ss_name
      01006FB7H   PUBLIC    CODE     ---       _sm_clock_mod_alarm_submod4
      01006F8CH   PUBLIC    CODE     ---       _sm_clock_mod_alarm_submod3
      010058DEH   PUBLIC    CODE     ---       _sm_clock_mod_alarm_submod2
LX51 LINKER/LOCATER V4.66.87.0                                                        05/29/2018  21:11:03  PAGE 180


      010055BBH   PUBLIC    CODE     ---       _sm_clock_mod_alarm_submod1
      010052C9H   PUBLIC    CODE     ---       _sm_clock_mod_alarm_submod0
      010083BDH   PUBLIC    CODE     ---       _sm_clock_mod_alarm_init
      01006695H   SYMBOL    CODE     ---       _enter_alarm
      010075EAH   SYMBOL    CODE     ---       toggle_alarm_bs
      01008324H   SYMBOL    CODE     ---       _inc_write
      01005EA5H   SYMBOL    CODE     ---       _write_only
      010069CEH   SYMBOL    CODE     ---       _inc_only
      01007564H   SYMBOL    CODE     ---       _toggle_alarm
      0100190FH   SYMBOL    CODE     ---       _update_alarm
      010080A9H   SYMBOL    CODE     ---       toggle_alarm_music

      0100826AH   BLOCK     CODE     ---       LVL=0
      ---         BLOCKEND  ---      ---       LVL=0

      0100190FH   BLOCK     CODE     ---       LVL=0
      02000015H   SYMBOL    XDATA    BYTE      what
      02000016H   SYMBOL    XDATA    BYTE      day
      01001919H   BLOCK     CODE     NEAR LAB  LVL=1
      02000017H   SYMBOL    XDATA    BYTE      hour
      02000018H   SYMBOL    XDATA    BYTE      min
      ---         BLOCKEND  ---      ---       LVL=1
      0100190FH   LINE      CODE     ---       #23
      01001919H   LINE      CODE     ---       #24
      01001919H   LINE      CODE     ---       #26
      01001923H   LINE      CODE     ---       #27
      01001923H   LINE      CODE     ---       #28
      01001926H   LINE      CODE     ---       #29
      0100192EH   LINE      CODE     ---       #30
      01001936H   LINE      CODE     ---       #31
      0100193BH   LINE      CODE     ---       #32
      0100193FH   LINE      CODE     ---       #35
      0100194CH   LINE      CODE     ---       #36
      01001950H   LINE      CODE     ---       #37
      01001954H   LINE      CODE     ---       #38
      01001962H   LINE      CODE     ---       #39
      01001967H   LINE      CODE     ---       #40
      01001969H   LINE      CODE     ---       #41
      0100196EH   LINE      CODE     ---       #42
      0100196EH   LINE      CODE     ---       #44
      01001987H   LINE      CODE     ---       #46
      01001991H   LINE      CODE     ---       #47
      01001994H   LINE      CODE     ---       #48
      01001996H   LINE      CODE     ---       #49
      0100199DH   LINE      CODE     ---       #50
      0100199DH   LINE      CODE     ---       #51
      010019A9H   LINE      CODE     ---       #52
      010019AEH   LINE      CODE     ---       #53
      010019B5H   LINE      CODE     ---       #55
      010019C0H   LINE      CODE     ---       #56
      010019E3H   LINE      CODE     ---       #57
      010019E3H   LINE      CODE     ---       #58
      010019E6H   LINE      CODE     ---       #59
      010019F2H   LINE      CODE     ---       #60
      010019FCH   LINE      CODE     ---       #61
      010019FCH   LINE      CODE     ---       #62
      010019FCH   LINE      CODE     ---       #63
      010019FFH   LINE      CODE     ---       #64
      01001A01H   LINE      CODE     ---       #65
      01001A01H   LINE      CODE     ---       #66
      01001A04H   LINE      CODE     ---       #67
      01001A04H   LINE      CODE     ---       #68
      01001A04H   LINE      CODE     ---       #69
      01001A0EH   LINE      CODE     ---       #70
      01001A15H   LINE      CODE     ---       #71
LX51 LINKER/LOCATER V4.66.87.0                                                        05/29/2018  21:11:03  PAGE 181


      01001A1CH   LINE      CODE     ---       #72
      01001A21H   LINE      CODE     ---       #73
      01001A21H   LINE      CODE     ---       #74
      01001A21H   LINE      CODE     ---       #75
      01001A24H   LINE      CODE     ---       #76
      01001A26H   LINE      CODE     ---       #77
      01001A26H   LINE      CODE     ---       #78
      01001A29H   LINE      CODE     ---       #79
      01001A29H   LINE      CODE     ---       #80
      01001A29H   LINE      CODE     ---       #81
      01001A2BH   LINE      CODE     ---       #82
      01001A32H   LINE      CODE     ---       #83
      01001A39H   LINE      CODE     ---       #84
      01001A40H   LINE      CODE     ---       #85
      01001A47H   LINE      CODE     ---       #86
      01001A4EH   LINE      CODE     ---       #87
      01001A5FH   LINE      CODE     ---       #88
      01001A6BH   LINE      CODE     ---       #89
      01001A6BH   LINE      CODE     ---       #90
      ---         BLOCKEND  ---      ---       LVL=0

      01006695H   BLOCK     CODE     ---       LVL=0
      02000013H   SYMBOL    XDATA    BYTE      what
      02000014H   SYMBOL    XDATA    BYTE      day
      01006695H   LINE      CODE     ---       #94
      0100669DH   LINE      CODE     ---       #95
      0100669DH   LINE      CODE     ---       #96
      010066A0H   LINE      CODE     ---       #97
      010066AFH   LINE      CODE     ---       #98
      010066AFH   LINE      CODE     ---       #99
      010066B1H   LINE      CODE     ---       #100
      010066B1H   LINE      CODE     ---       #101
      010066B3H   LINE      CODE     ---       #102
      010066B3H   LINE      CODE     ---       #103
      010066B5H   LINE      CODE     ---       #104
      010066B5H   LINE      CODE     ---       #105
      010066B7H   LINE      CODE     ---       #106
      010066B7H   LINE      CODE     ---       #107
      010066BCH   LINE      CODE     ---       #108
      010066C0H   LINE      CODE     ---       #109
      010066C4H   LINE      CODE     ---       #110
      010066C4H   LINE      CODE     ---       #111
      010066C4H   LINE      CODE     ---       #112
      ---         BLOCKEND  ---      ---       LVL=0

      01005EA5H   BLOCK     CODE     ---       LVL=0
      02000014H   SYMBOL    XDATA    BYTE      what
      01005EA5H   LINE      CODE     ---       #116
      01005EAAH   LINE      CODE     ---       #117
      01005EAAH   LINE      CODE     ---       #118
      01005EADH   LINE      CODE     ---       #119
      01005EBCH   LINE      CODE     ---       #120
      01005EBCH   LINE      CODE     ---       #121
      01005EBFH   LINE      CODE     ---       #122
      01005EC1H   LINE      CODE     ---       #123
      01005EC6H   LINE      CODE     ---       #124
      01005ECAH   LINE      CODE     ---       #125
      01005ECAH   LINE      CODE     ---       #126
      01005ECDH   LINE      CODE     ---       #127
      01005ECFH   LINE      CODE     ---       #128
      01005ECFH   LINE      CODE     ---       #129
      01005ED2H   LINE      CODE     ---       #130
      01005ED4H   LINE      CODE     ---       #131
      01005ED9H   LINE      CODE     ---       #132
      01005EDDH   LINE      CODE     ---       #133
LX51 LINKER/LOCATER V4.66.87.0                                                        05/29/2018  21:11:03  PAGE 182


      01005EDDH   LINE      CODE     ---       #134
      01005EE4H   LINE      CODE     ---       #135
      01005EE6H   LINE      CODE     ---       #136
      01005EE6H   LINE      CODE     ---       #137
      01005EF0H   LINE      CODE     ---       #138
      01005EF0H   LINE      CODE     ---       #139
      01005EF0H   LINE      CODE     ---       #140
      ---         BLOCKEND  ---      ---       LVL=0

      01007564H   BLOCK     CODE     ---       LVL=0
      02000013H   SYMBOL    XDATA    BYTE      day
      01007564H   LINE      CODE     ---       #142
      01007569H   LINE      CODE     ---       #143
      01007569H   LINE      CODE     ---       #144
      01007577H   LINE      CODE     ---       #145
      01007581H   LINE      CODE     ---       #146
      ---         BLOCKEND  ---      ---       LVL=0

      010069CEH   BLOCK     CODE     ---       LVL=0
      00000006H   SYMBOL    DATA     BYTE      what
      010069CEH   LINE      CODE     ---       #149
      010069D0H   LINE      CODE     ---       #150
      010069D0H   LINE      CODE     ---       #151
      010069D7H   LINE      CODE     ---       #152
      010069D7H   LINE      CODE     ---       #153
      010069DAH   LINE      CODE     ---       #154
      010069DCH   LINE      CODE     ---       #155
      010069E1H   LINE      CODE     ---       #156
      010069E5H   LINE      CODE     ---       #157
      010069E5H   LINE      CODE     ---       #158
      010069E8H   LINE      CODE     ---       #159
      010069EAH   LINE      CODE     ---       #160
      010069EAH   LINE      CODE     ---       #161
      010069EDH   LINE      CODE     ---       #162
      010069EFH   LINE      CODE     ---       #163
      010069F4H   LINE      CODE     ---       #164
      010069F8H   LINE      CODE     ---       #165
      010069F8H   LINE      CODE     ---       #166
      010069FBH   LINE      CODE     ---       #167
      010069FBH   LINE      CODE     ---       #168
      010069FBH   LINE      CODE     ---       #169
      ---         BLOCKEND  ---      ---       LVL=0

      01008324H   BLOCK     CODE     ---       LVL=0
      02000013H   SYMBOL    XDATA    BYTE      what
      01008324H   LINE      CODE     ---       #172
      01008329H   LINE      CODE     ---       #173
      01008329H   LINE      CODE     ---       #174
      0100832CH   LINE      CODE     ---       #175
      ---         BLOCKEND  ---      ---       LVL=0

      010075EAH   BLOCK     CODE     ---       LVL=0
      010075EAH   LINE      CODE     ---       #178
      010075EAH   LINE      CODE     ---       #179
      010075EAH   LINE      CODE     ---       #180
      010075F3H   LINE      CODE     ---       #181
      010075F6H   LINE      CODE     ---       #182
      01007604H   LINE      CODE     ---       #183
      ---         BLOCKEND  ---      ---       LVL=0

      010080A9H   BLOCK     CODE     ---       LVL=0
      010080A9H   LINE      CODE     ---       #186
      010080A9H   LINE      CODE     ---       #187
      010080A9H   LINE      CODE     ---       #188
      010080ACH   LINE      CODE     ---       #189
LX51 LINKER/LOCATER V4.66.87.0                                                        05/29/2018  21:11:03  PAGE 183


      010080B6H   LINE      CODE     ---       #190
      ---         BLOCKEND  ---      ---       LVL=0

      010083BDH   BLOCK     CODE     ---       LVL=0
      00000007H   SYMBOL    DATA     BYTE      from
      00000005H   SYMBOL    DATA     BYTE      to
      00000006H   SYMBOL    DATA     BYTE      ev
      010083BDH   LINE      CODE     ---       #193
      010083BFH   LINE      CODE     ---       #194
      010083BFH   LINE      CODE     ---       #195
      010083C5H   LINE      CODE     ---       #196
      ---         BLOCKEND  ---      ---       LVL=0

      010052C9H   BLOCK     CODE     ---       LVL=0
      02000011H   SYMBOL    XDATA    BYTE      from
      00000005H   SYMBOL    DATA     BYTE      to
      02000012H   SYMBOL    XDATA    BYTE      ev
      010052C9H   LINE      CODE     ---       #199
      010052D2H   LINE      CODE     ---       #200
      010052D2H   LINE      CODE     ---       #201
      010052D8H   LINE      CODE     ---       #203
      010052E5H   LINE      CODE     ---       #204
      010052E5H   LINE      CODE     ---       #205
      010052EBH   LINE      CODE     ---       #207
      010052EBH   LINE      CODE     ---       #210
      010052F2H   LINE      CODE     ---       #211
      010052F7H   LINE      CODE     ---       #213
      010052F7H   LINE      CODE     ---       #216
      010052FEH   LINE      CODE     ---       #217
      01005305H   LINE      CODE     ---       #218
      0100530AH   LINE      CODE     ---       #219
      0100530AH   LINE      CODE     ---       #220
      01005310H   LINE      CODE     ---       #221
      01005317H   LINE      CODE     ---       #223
      01005317H   LINE      CODE     ---       #226
      0100531EH   LINE      CODE     ---       #227
      01005323H   LINE      CODE     ---       #228
      01005328H   LINE      CODE     ---       #230
      01005328H   LINE      CODE     ---       #231
      ---         BLOCKEND  ---      ---       LVL=0

      010055BBH   BLOCK     CODE     ---       LVL=0
      00000007H   SYMBOL    DATA     BYTE      from
      00000005H   SYMBOL    DATA     BYTE      to
      02000011H   SYMBOL    XDATA    BYTE      ev
      010055BBH   LINE      CODE     ---       #233
      010055C1H   LINE      CODE     ---       #234
      010055C1H   LINE      CODE     ---       #235
      010055CBH   LINE      CODE     ---       #237
      010055D2H   LINE      CODE     ---       #238
      010055D9H   LINE      CODE     ---       #240
      010055D9H   LINE      CODE     ---       #244
      010055E0H   LINE      CODE     ---       #245
      010055E5H   LINE      CODE     ---       #247
      010055E5H   LINE      CODE     ---       #250
      010055ECH   LINE      CODE     ---       #251
      010055F3H   LINE      CODE     ---       #252
      010055F8H   LINE      CODE     ---       #253
      010055F8H   LINE      CODE     ---       #254
      010055FEH   LINE      CODE     ---       #255
      01005605H   LINE      CODE     ---       #257
      01005605H   LINE      CODE     ---       #260
      0100560CH   LINE      CODE     ---       #261
      01005611H   LINE      CODE     ---       #262
      01005616H   LINE      CODE     ---       #264
LX51 LINKER/LOCATER V4.66.87.0                                                        05/29/2018  21:11:03  PAGE 184


      01005616H   LINE      CODE     ---       #265
      ---         BLOCKEND  ---      ---       LVL=0

      010058DEH   BLOCK     CODE     ---       LVL=0
      02000011H   SYMBOL    XDATA    BYTE      from
      00000005H   SYMBOL    DATA     BYTE      to
      02000012H   SYMBOL    XDATA    BYTE      ev
      010058DEH   LINE      CODE     ---       #267
      010058E7H   LINE      CODE     ---       #268
      010058E7H   LINE      CODE     ---       #269
      010058F3H   LINE      CODE     ---       #271
      010058FDH   LINE      CODE     ---       #272
      01005903H   LINE      CODE     ---       #273
      01005906H   LINE      CODE     ---       #275
      01005906H   LINE      CODE     ---       #277
      0100590DH   LINE      CODE     ---       #278
      01005915H   LINE      CODE     ---       #279
      01005915H   LINE      CODE     ---       #281
      0100591CH   LINE      CODE     ---       #282
      01005922H   LINE      CODE     ---       #283
      01005929H   LINE      CODE     ---       #284
      0100592EH   LINE      CODE     ---       #285
      0100592EH   LINE      CODE     ---       #286
      01005934H   LINE      CODE     ---       #287
      01005934H   LINE      CODE     ---       #288
      01005934H   LINE      CODE     ---       #289
      ---         BLOCKEND  ---      ---       LVL=0

      01006F8CH   BLOCK     CODE     ---       LVL=0
      00000007H   SYMBOL    DATA     BYTE      from
      00000005H   SYMBOL    DATA     BYTE      to
      02000011H   SYMBOL    XDATA    BYTE      ev
      01006F8CH   LINE      CODE     ---       #291
      01006F92H   LINE      CODE     ---       #292
      01006F92H   LINE      CODE     ---       #293
      01006F9EH   LINE      CODE     ---       #295
      01006FA5H   LINE      CODE     ---       #296
      01006FACH   LINE      CODE     ---       #297
      01006FACH   LINE      CODE     ---       #299
      01006FB3H   LINE      CODE     ---       #300
      01006FB6H   LINE      CODE     ---       #301
      01006FB6H   LINE      CODE     ---       #302
      ---         BLOCKEND  ---      ---       LVL=0

      01006FB7H   BLOCK     CODE     ---       LVL=0
      00000007H   SYMBOL    DATA     BYTE      from
      00000005H   SYMBOL    DATA     BYTE      to
      02000011H   SYMBOL    XDATA    BYTE      ev
      01006FB7H   LINE      CODE     ---       #304
      01006FBDH   LINE      CODE     ---       #305
      01006FBDH   LINE      CODE     ---       #306
      01006FC9H   LINE      CODE     ---       #308
      01006FD0H   LINE      CODE     ---       #309
      01006FD7H   LINE      CODE     ---       #310
      01006FD7H   LINE      CODE     ---       #312
      01006FDEH   LINE      CODE     ---       #313
      01006FE1H   LINE      CODE     ---       #314
      01006FE1H   LINE      CODE     ---       #315
      ---         BLOCKEND  ---      ---       LVL=0

      ---         MODULE    ---      ---       SM_CLOCK_ALARM
      0100CA45H   PUBLIC    CONST    ---       sm_clock_alarm_ss_name
      01004AF8H   PUBLIC    CODE     ---       _sm_clock_alarm
      01002EC6H   SYMBOL    CODE     ---       _display_alarm

LX51 LINKER/LOCATER V4.66.87.0                                                        05/29/2018  21:11:03  PAGE 185


      0100874BH   BLOCK     CODE     ---       LVL=0
      ---         BLOCKEND  ---      ---       LVL=0

      01002EC6H   BLOCK     CODE     ---       LVL=0
      02000013H   SYMBOL    XDATA    BYTE      what
      01002ECBH   BLOCK     CODE     NEAR LAB  LVL=1
      02000014H   SYMBOL    XDATA    BYTE      hour
      02000015H   SYMBOL    XDATA    BYTE      min
      00000020H.0 SYMBOL    BIT      BIT       is12
      ---         BLOCKEND  ---      ---       LVL=1
      01002EC6H   LINE      CODE     ---       #19
      01002ECBH   LINE      CODE     ---       #20
      01002ECBH   LINE      CODE     ---       #23
      01002ECEH   LINE      CODE     ---       #24
      01002EDDH   LINE      CODE     ---       #25
      01002EDDH   LINE      CODE     ---       #26
      01002EDDH   LINE      CODE     ---       #27
      01002EE1H   LINE      CODE     ---       #28
      01002EE8H   LINE      CODE     ---       #29
      01002EEAH   LINE      CODE     ---       #30
      01002EECH   LINE      CODE     ---       #31
      01002EF3H   LINE      CODE     ---       #32
      01002EFAH   LINE      CODE     ---       #33
      01002EFAH   LINE      CODE     ---       #34
      01002F01H   LINE      CODE     ---       #35
      01002F09H   LINE      CODE     ---       #36
      01002F11H   LINE      CODE     ---       #37
      01002F16H   LINE      CODE     ---       #38
      01002F18H   LINE      CODE     ---       #39
      01002F20H   LINE      CODE     ---       #40
      01002F26H   LINE      CODE     ---       #41
      01002F2BH   LINE      CODE     ---       #42
      01002F2BH   LINE      CODE     ---       #43
      01002F30H   LINE      CODE     ---       #44
      01002F34H   LINE      CODE     ---       #45
      01002F40H   LINE      CODE     ---       #46
      01002F44H   LINE      CODE     ---       #47
      01002F48H   LINE      CODE     ---       #48
      01002F54H   LINE      CODE     ---       #49
      01002F59H   LINE      CODE     ---       #50
      01002F5BH   LINE      CODE     ---       #51
      01002F60H   LINE      CODE     ---       #52
      01002F60H   LINE      CODE     ---       #53
      01002F6AH   LINE      CODE     ---       #54
      01002F6DH   LINE      CODE     ---       #55
      01002F6FH   LINE      CODE     ---       #56
      01002F76H   LINE      CODE     ---       #57
      01002F76H   LINE      CODE     ---       #58
      01002F82H   LINE      CODE     ---       #59
      01002F87H   LINE      CODE     ---       #60
      01002F94H   LINE      CODE     ---       #61
      01002F94H   LINE      CODE     ---       #62
      01002F94H   LINE      CODE     ---       #63
      ---         BLOCKEND  ---      ---       LVL=0

      01004AF8H   BLOCK     CODE     ---       LVL=0
      00000007H   SYMBOL    DATA     BYTE      from
      02000011H   SYMBOL    XDATA    BYTE      to
      02000012H   SYMBOL    XDATA    BYTE      ev
      01004AF8H   LINE      CODE     ---       #65
      01004B01H   LINE      CODE     ---       #66
      01004B01H   LINE      CODE     ---       #67
      01004B15H   LINE      CODE     ---       #70
      01004B1FH   LINE      CODE     ---       #71
      01004B24H   LINE      CODE     ---       #72
LX51 LINKER/LOCATER V4.66.87.0                                                        05/29/2018  21:11:03  PAGE 186


      01004B29H   LINE      CODE     ---       #73
      01004B2EH   LINE      CODE     ---       #75
      01004B30H   LINE      CODE     ---       #76
      01004B30H   LINE      CODE     ---       #78
      01004B30H   LINE      CODE     ---       #81
      01004B3CH   LINE      CODE     ---       #82
      01004B41H   LINE      CODE     ---       #83
      01004B46H   LINE      CODE     ---       #84
      01004B49H   LINE      CODE     ---       #85
      01004B4FH   LINE      CODE     ---       #87
      01004B4FH   LINE      CODE     ---       #89
      01004B5BH   LINE      CODE     ---       #90
      01004B66H   LINE      CODE     ---       #91
      01004B6CH   LINE      CODE     ---       #92
      01004B6CH   LINE      CODE     ---       #94
      01004B6CH   LINE      CODE     ---       #95
      ---         BLOCKEND  ---      ---       LVL=0

      ---         MODULE    ---      ---       SM_CLOCK_MOD_TIME
      0100B076H   PUBLIC    CONST    ---       sm_clock_mod_time_name
      0100793EH   PUBLIC    CODE     ---       _sm_clock_mod_time_submod5
      01007922H   PUBLIC    CODE     ---       _sm_clock_mod_time_submod4
      01007906H   PUBLIC    CODE     ---       _sm_clock_mod_time_submod3
      010078EAH   PUBLIC    CODE     ---       _sm_clock_mod_time_submod2
      01007C85H   PUBLIC    CODE     ---       _sm_clock_mod_time_submod1
      01006F60H   PUBLIC    CODE     ---       _sm_clock_mod_time_submod0
      01007C06H   PUBLIC    CODE     ---       _sm_clock_mod_time_init
      0100420CH   SYMBOL    CODE     ---       update_yymmdd
      0100375CH   SYMBOL    CODE     ---       _sm_clock_mod_time
      010070B5H   SYMBOL    CODE     ---       _enter_hhmmss
      01006FE2H   SYMBOL    CODE     ---       _enter_yymmdd
      01005013H   SYMBOL    CODE     ---       _write_only
      01008334H   SYMBOL    CODE     ---       _inc_and_write
      01003E97H   SYMBOL    CODE     ---       _inc_only
      010033A5H   SYMBOL    CODE     ---       update_hhmmss

      010074DBH   BLOCK     CODE     ---       LVL=0
      ---         BLOCKEND  ---      ---       LVL=0

      010033A5H   BLOCK     CODE     ---       LVL=0
      010033A5H   BLOCK     CODE     NEAR LAB  LVL=1
      02000017H   SYMBOL    XDATA    BYTE      hour
      02000018H   SYMBOL    XDATA    BYTE      min
      02000019H   SYMBOL    XDATA    BYTE      sec
      ---         BLOCKEND  ---      ---       LVL=1
      010033A5H   LINE      CODE     ---       #21
      010033A5H   LINE      CODE     ---       #22
      010033A5H   LINE      CODE     ---       #25
      010033ADH   LINE      CODE     ---       #26
      010033B3H   LINE      CODE     ---       #27
      010033B9H   LINE      CODE     ---       #30
      010033BEH   LINE      CODE     ---       #31
      010033C2H   LINE      CODE     ---       #32
      010033C6H   LINE      CODE     ---       #33
      010033CAH   LINE      CODE     ---       #36
      010033D7H   LINE      CODE     ---       #37
      010033DBH   LINE      CODE     ---       #38
      010033DFH   LINE      CODE     ---       #39
      010033EDH   LINE      CODE     ---       #40
      010033F2H   LINE      CODE     ---       #41
      010033F4H   LINE      CODE     ---       #42
      010033F9H   LINE      CODE     ---       #43
      010033F9H   LINE      CODE     ---       #46
      0100341AH   LINE      CODE     ---       #48
      01003424H   LINE      CODE     ---       #49
LX51 LINKER/LOCATER V4.66.87.0                                                        05/29/2018  21:11:03  PAGE 187


      01003427H   LINE      CODE     ---       #50
      01003429H   LINE      CODE     ---       #51
      01003430H   LINE      CODE     ---       #52
      01003430H   LINE      CODE     ---       #53
      0100343BH   LINE      CODE     ---       #54
      01003446H   LINE      CODE     ---       #55
      01003451H   LINE      CODE     ---       #56
      0100345CH   LINE      CODE     ---       #57
      ---         BLOCKEND  ---      ---       LVL=0

      0100420CH   BLOCK     CODE     ---       LVL=0
      0100420CH   BLOCK     CODE     NEAR LAB  LVL=1
      02000017H   SYMBOL    XDATA    BYTE      year
      02000018H   SYMBOL    XDATA    BYTE      mon
      02000019H   SYMBOL    XDATA    BYTE      date
      ---         BLOCKEND  ---      ---       LVL=1
      0100420CH   LINE      CODE     ---       #60
      0100420CH   LINE      CODE     ---       #61
      0100420CH   LINE      CODE     ---       #65
      01004214H   LINE      CODE     ---       #66
      0100421AH   LINE      CODE     ---       #67
      01004220H   LINE      CODE     ---       #69
      01004225H   LINE      CODE     ---       #70
      0100422AH   LINE      CODE     ---       #72
      0100424BH   LINE      CODE     ---       #74
      01004255H   LINE      CODE     ---       #75
      01004258H   LINE      CODE     ---       #76
      0100425AH   LINE      CODE     ---       #77
      01004261H   LINE      CODE     ---       #78
      01004261H   LINE      CODE     ---       #79
      0100426CH   LINE      CODE     ---       #80
      01004277H   LINE      CODE     ---       #81
      01004282H   LINE      CODE     ---       #82
      0100428DH   LINE      CODE     ---       #83
      ---         BLOCKEND  ---      ---       LVL=0

      01003E97H   BLOCK     CODE     ---       LVL=0
      02000016H   SYMBOL    XDATA    BYTE      what
      01003E97H   LINE      CODE     ---       #87
      01003E9CH   LINE      CODE     ---       #88
      01003E9CH   LINE      CODE     ---       #89
      01003EAFH   LINE      CODE     ---       #90
      01003EAFH   LINE      CODE     ---       #91
      01003EAFH   LINE      CODE     ---       #92
      01003EB2H   LINE      CODE     ---       #93
      01003EB4H   LINE      CODE     ---       #94
      01003EB6H   LINE      CODE     ---       #95
      01003EB9H   LINE      CODE     ---       #96
      01003EB9H   LINE      CODE     ---       #97
      01003EBFH   LINE      CODE     ---       #98
      01003EC2H   LINE      CODE     ---       #99
      01003EC4H   LINE      CODE     ---       #100
      01003EC7H   LINE      CODE     ---       #101
      01003EC7H   LINE      CODE     ---       #102
      01003EC9H   LINE      CODE     ---       #103
      01003EC9H   LINE      CODE     ---       #104
      01003EC9H   LINE      CODE     ---       #105
      01003ECCH   LINE      CODE     ---       #106
      01003ECEH   LINE      CODE     ---       #107
      01003ED0H   LINE      CODE     ---       #108
      01003ED3H   LINE      CODE     ---       #109
      01003ED3H   LINE      CODE     ---       #110
      01003EDAH   LINE      CODE     ---       #111
      01003EDDH   LINE      CODE     ---       #112
      01003EDFH   LINE      CODE     ---       #113
LX51 LINKER/LOCATER V4.66.87.0                                                        05/29/2018  21:11:03  PAGE 188


      01003EE2H   LINE      CODE     ---       #114
      01003EE2H   LINE      CODE     ---       #115
      01003EE4H   LINE      CODE     ---       #116
      01003EE4H   LINE      CODE     ---       #117
      01003EE4H   LINE      CODE     ---       #118
      01003EE7H   LINE      CODE     ---       #119
      01003EE9H   LINE      CODE     ---       #120
      01003EEEH   LINE      CODE     ---       #121
      01003EF2H   LINE      CODE     ---       #122
      01003EF2H   LINE      CODE     ---       #123
      01003EF9H   LINE      CODE     ---       #124
      01003EFCH   LINE      CODE     ---       #125
      01003EFEH   LINE      CODE     ---       #126
      01003F01H   LINE      CODE     ---       #127
      01003F01H   LINE      CODE     ---       #128
      01003F01H   LINE      CODE     ---       #129
      01003F01H   LINE      CODE     ---       #131
      01003F10H   LINE      CODE     ---       #133
      01003F10H   LINE      CODE     ---       #134
      01003F13H   LINE      CODE     ---       #135
      01003F25H   LINE      CODE     ---       #137
      01003F25H   LINE      CODE     ---       #138
      01003F28H   LINE      CODE     ---       #139
      01003F28H   LINE      CODE     ---       #140
      ---         BLOCKEND  ---      ---       LVL=0

      01005013H   BLOCK     CODE     ---       LVL=0
      00000007H   SYMBOL    DATA     BYTE      what
      01005013H   LINE      CODE     ---       #142
      01005013H   LINE      CODE     ---       #143
      01005013H   LINE      CODE     ---       #144
      01005027H   LINE      CODE     ---       #145
      01005027H   LINE      CODE     ---       #146
      0100502AH   LINE      CODE     ---       #147
      0100502CH   LINE      CODE     ---       #148
      0100502CH   LINE      CODE     ---       #149
      0100502CH   LINE      CODE     ---       #150
      0100502CH   LINE      CODE     ---       #151
      0100502CH   LINE      CODE     ---       #152
      0100502EH   LINE      CODE     ---       #153
      0100502EH   LINE      CODE     ---       #154
      01005031H   LINE      CODE     ---       #155
      01005036H   LINE      CODE     ---       #156
      01005038H   LINE      CODE     ---       #157
      0100503AH   LINE      CODE     ---       #158
      0100503AH   LINE      CODE     ---       #159
      0100503AH   LINE      CODE     ---       #160
      0100503CH   LINE      CODE     ---       #161
      0100503CH   LINE      CODE     ---       #162
      0100503FH   LINE      CODE     ---       #163
      01005044H   LINE      CODE     ---       #164
      01005046H   LINE      CODE     ---       #165
      01005048H   LINE      CODE     ---       #166
      01005048H   LINE      CODE     ---       #167
      01005048H   LINE      CODE     ---       #168
      0100504AH   LINE      CODE     ---       #169
      0100504AH   LINE      CODE     ---       #170
      0100504DH   LINE      CODE     ---       #171
      01005052H   LINE      CODE     ---       #172
      01005054H   LINE      CODE     ---       #173
      01005056H   LINE      CODE     ---       #174
      01005056H   LINE      CODE     ---       #175
      01005056H   LINE      CODE     ---       #176
      01005058H   LINE      CODE     ---       #177
      01005058H   LINE      CODE     ---       #178
LX51 LINKER/LOCATER V4.66.87.0                                                        05/29/2018  21:11:03  PAGE 189


      0100505BH   LINE      CODE     ---       #179
      01005060H   LINE      CODE     ---       #180
      01005062H   LINE      CODE     ---       #181
      01005064H   LINE      CODE     ---       #182
      01005064H   LINE      CODE     ---       #183
      01005064H   LINE      CODE     ---       #184
      01005066H   LINE      CODE     ---       #185
      01005066H   LINE      CODE     ---       #186
      01005069H   LINE      CODE     ---       #187
      0100506EH   LINE      CODE     ---       #188
      01005070H   LINE      CODE     ---       #189
      01005075H   LINE      CODE     ---       #190
      01005079H   LINE      CODE     ---       #191
      01005079H   LINE      CODE     ---       #192
      01005079H   LINE      CODE     ---       #193
      01005079H   LINE      CODE     ---       #195
      ---         BLOCKEND  ---      ---       LVL=0

      01008334H   BLOCK     CODE     ---       LVL=0
      02000015H   SYMBOL    XDATA    BYTE      what
      01008334H   LINE      CODE     ---       #197
      01008339H   LINE      CODE     ---       #198
      01008339H   LINE      CODE     ---       #199
      0100833CH   LINE      CODE     ---       #200
      ---         BLOCKEND  ---      ---       LVL=0

      010070B5H   BLOCK     CODE     ---       LVL=0
      02000015H   SYMBOL    XDATA    BYTE      what
      010070B5H   LINE      CODE     ---       #204
      010070BAH   LINE      CODE     ---       #205
      010070BAH   LINE      CODE     ---       #206
      010070BDH   LINE      CODE     ---       #207
      010070CBH   LINE      CODE     ---       #208
      010070CBH   LINE      CODE     ---       #209
      010070CDH   LINE      CODE     ---       #210
      010070CDH   LINE      CODE     ---       #211
      010070CFH   LINE      CODE     ---       #212
      010070CFH   LINE      CODE     ---       #213
      010070D1H   LINE      CODE     ---       #214
      010070D1H   LINE      CODE     ---       #215
      010070D3H   LINE      CODE     ---       #216
      010070D3H   LINE      CODE     ---       #217
      010070D8H   LINE      CODE     ---       #218
      010070DCH   LINE      CODE     ---       #219
      010070DCH   LINE      CODE     ---       #220
      010070DCH   LINE      CODE     ---       #221
      ---         BLOCKEND  ---      ---       LVL=0

      01006FE2H   BLOCK     CODE     ---       LVL=0
      02000015H   SYMBOL    XDATA    BYTE      what
      01006FE2H   LINE      CODE     ---       #225
      01006FE7H   LINE      CODE     ---       #226
      01006FE7H   LINE      CODE     ---       #227
      01006FEAH   LINE      CODE     ---       #228
      01006FF9H   LINE      CODE     ---       #229
      01006FF9H   LINE      CODE     ---       #230
      01006FFBH   LINE      CODE     ---       #231
      01006FFBH   LINE      CODE     ---       #232
      01006FFDH   LINE      CODE     ---       #233
      01006FFDH   LINE      CODE     ---       #234
      01006FFFH   LINE      CODE     ---       #235
      01006FFFH   LINE      CODE     ---       #236
      01007001H   LINE      CODE     ---       #237
      01007001H   LINE      CODE     ---       #238
      01007006H   LINE      CODE     ---       #239
LX51 LINKER/LOCATER V4.66.87.0                                                        05/29/2018  21:11:03  PAGE 190


      0100700AH   LINE      CODE     ---       #240
      0100700AH   LINE      CODE     ---       #241
      0100700AH   LINE      CODE     ---       #242
      ---         BLOCKEND  ---      ---       LVL=0

      01007C06H   BLOCK     CODE     ---       LVL=0
      00000007H   SYMBOL    DATA     BYTE      from
      00000005H   SYMBOL    DATA     BYTE      to
      00000006H   SYMBOL    DATA     BYTE      ev
      01007C06H   LINE      CODE     ---       #245
      01007C08H   LINE      CODE     ---       #246
      01007C08H   LINE      CODE     ---       #247
      01007C14H   LINE      CODE     ---       #248
      01007C19H   LINE      CODE     ---       #249
      ---         BLOCKEND  ---      ---       LVL=0

      0100375CH   BLOCK     CODE     ---       LVL=0
      02000013H   SYMBOL    XDATA    BYTE      what
      02000014H   SYMBOL    XDATA    BYTE      ev
      0100375CH   LINE      CODE     ---       #252
      01003764H   LINE      CODE     ---       #253
      01003764H   LINE      CODE     ---       #255
      01003768H   LINE      CODE     ---       #256
      01003777H   LINE      CODE     ---       #258
      01003777H   LINE      CODE     ---       #259
      0100377AH   LINE      CODE     ---       #260
      01003790H   LINE      CODE     ---       #262
      01003790H   LINE      CODE     ---       #263
      01003798H   LINE      CODE     ---       #264
      01003798H   LINE      CODE     ---       #266
      01003798H   LINE      CODE     ---       #268
      0100379FH   LINE      CODE     ---       #269
      010037A7H   LINE      CODE     ---       #271
      010037A7H   LINE      CODE     ---       #274
      010037AEH   LINE      CODE     ---       #275
      010037B5H   LINE      CODE     ---       #276
      010037BDH   LINE      CODE     ---       #277
      010037BDH   LINE      CODE     ---       #278
      010037C3H   LINE      CODE     ---       #279
      010037CAH   LINE      CODE     ---       #281
      010037CAH   LINE      CODE     ---       #284
      010037D1H   LINE      CODE     ---       #285
      010037D9H   LINE      CODE     ---       #286
      010037DFH   LINE      CODE     ---       #288
      010037DFH   LINE      CODE     ---       #291
      010037E5H   LINE      CODE     ---       #292
      010037EEH   LINE      CODE     ---       #294
      010037EEH   LINE      CODE     ---       #296
      010037EEH   LINE      CODE     ---       #297
      010037FDH   LINE      CODE     ---       #299
      010037FDH   LINE      CODE     ---       #300
      01003800H   LINE      CODE     ---       #301
      01003812H   LINE      CODE     ---       #303
      01003812H   LINE      CODE     ---       #304
      01003815H   LINE      CODE     ---       #305
      01003815H   LINE      CODE     ---       #307
      01003815H   LINE      CODE     ---       #308
      ---         BLOCKEND  ---      ---       LVL=0

      01006F60H   BLOCK     CODE     ---       LVL=0
      02000011H   SYMBOL    XDATA    BYTE      from
      00000005H   SYMBOL    DATA     BYTE      to
      02000012H   SYMBOL    XDATA    BYTE      ev
      01006F60H   LINE      CODE     ---       #310
      01006F68H   LINE      CODE     ---       #311
LX51 LINKER/LOCATER V4.66.87.0                                                        05/29/2018  21:11:03  PAGE 191


      01006F68H   LINE      CODE     ---       #312
      01006F72H   LINE      CODE     ---       #314
      01006F7FH   LINE      CODE     ---       #315
      01006F7FH   LINE      CODE     ---       #316
      01006F82H   LINE      CODE     ---       #317
      01006F82H   LINE      CODE     ---       #319
      ---         BLOCKEND  ---      ---       LVL=0

      01007C85H   BLOCK     CODE     ---       LVL=0
      00000007H   SYMBOL    DATA     BYTE      from
      00000005H   SYMBOL    DATA     BYTE      to
      02000011H   SYMBOL    XDATA    BYTE      ev
      01007C85H   LINE      CODE     ---       #322
      01007C8AH   LINE      CODE     ---       #323
      01007C8AH   LINE      CODE     ---       #324
      01007C94H   LINE      CODE     ---       #326
      ---         BLOCKEND  ---      ---       LVL=0

      010078EAH   BLOCK     CODE     ---       LVL=0
      00000007H   SYMBOL    DATA     BYTE      from
      00000005H   SYMBOL    DATA     BYTE      to
      02000011H   SYMBOL    XDATA    BYTE      ev
      010078EAH   LINE      CODE     ---       #329
      010078F0H   LINE      CODE     ---       #330
      010078F0H   LINE      CODE     ---       #331
      010078FCH   LINE      CODE     ---       #333
      ---         BLOCKEND  ---      ---       LVL=0

      01007906H   BLOCK     CODE     ---       LVL=0
      00000007H   SYMBOL    DATA     BYTE      from
      00000005H   SYMBOL    DATA     BYTE      to
      02000011H   SYMBOL    XDATA    BYTE      ev
      01007906H   LINE      CODE     ---       #336
      0100790CH   LINE      CODE     ---       #337
      0100790CH   LINE      CODE     ---       #338
      01007918H   LINE      CODE     ---       #340
      ---         BLOCKEND  ---      ---       LVL=0

      01007922H   BLOCK     CODE     ---       LVL=0
      00000007H   SYMBOL    DATA     BYTE      from
      00000005H   SYMBOL    DATA     BYTE      to
      02000011H   SYMBOL    XDATA    BYTE      ev
      01007922H   LINE      CODE     ---       #343
      01007928H   LINE      CODE     ---       #344
      01007928H   LINE      CODE     ---       #345
      01007934H   LINE      CODE     ---       #347
      ---         BLOCKEND  ---      ---       LVL=0

      0100793EH   BLOCK     CODE     ---       LVL=0
      00000007H   SYMBOL    DATA     BYTE      from
      00000005H   SYMBOL    DATA     BYTE      to
      02000011H   SYMBOL    XDATA    BYTE      ev
      0100793EH   LINE      CODE     ---       #350
      01007944H   LINE      CODE     ---       #351
      01007944H   LINE      CODE     ---       #352
      01007950H   LINE      CODE     ---       #354
      ---         BLOCKEND  ---      ---       LVL=0

      ---         MODULE    ---      ---       SM_POWER_PACK_DISPLAY
      0100C585H   PUBLIC    CONST    ---       sm_power_pack_display_ss_name
      01005B37H   PUBLIC    CODE     ---       _sm_power_pack_display_submod0
      01007D30H   PUBLIC    CODE     ---       _sm_power_pack_display_init
      01005A8EH   SYMBOL    CODE     ---       display_power_volume

      01008486H   BLOCK     CODE     ---       LVL=0
LX51 LINKER/LOCATER V4.66.87.0                                                        05/29/2018  21:11:03  PAGE 192


      ---         BLOCKEND  ---      ---       LVL=0

      01005A8EH   BLOCK     CODE     ---       LVL=0
      01005A8EH   BLOCK     CODE     NEAR LAB  LVL=1
      02000012H   SYMBOL    XDATA    BYTE      val
      ---         BLOCKEND  ---      ---       LVL=1
      01005A8EH   LINE      CODE     ---       #15
      01005A8EH   LINE      CODE     ---       #16
      01005A8EH   LINE      CODE     ---       #18
      01005A96H   LINE      CODE     ---       #19
      01005A99H   LINE      CODE     ---       #20
      01005AA0H   LINE      CODE     ---       #21
      01005AA6H   LINE      CODE     ---       #22
      01005AADH   LINE      CODE     ---       #23
      01005AB6H   LINE      CODE     ---       #24
      01005AC0H   LINE      CODE     ---       #25
      01005AD3H   LINE      CODE     ---       #26
      ---         BLOCKEND  ---      ---       LVL=0

      01007D30H   BLOCK     CODE     ---       LVL=0
      00000007H   SYMBOL    DATA     BYTE      from
      00000005H   SYMBOL    DATA     BYTE      to
      00000006H   SYMBOL    DATA     BYTE      ev
      01007D30H   LINE      CODE     ---       #28
      01007D32H   LINE      CODE     ---       #29
      01007D32H   LINE      CODE     ---       #30
      01007D3CH   LINE      CODE     ---       #31
      01007D41H   LINE      CODE     ---       #32
      ---         BLOCKEND  ---      ---       LVL=0

      01005B37H   BLOCK     CODE     ---       LVL=0
      00000007H   SYMBOL    DATA     BYTE      from
      00000005H   SYMBOL    DATA     BYTE      to
      02000011H   SYMBOL    XDATA    BYTE      ev
      01005B37H   LINE      CODE     ---       #35
      01005B3DH   LINE      CODE     ---       #36
      01005B3DH   LINE      CODE     ---       #37
      01005B47H   LINE      CODE     ---       #38
      01005B54H   LINE      CODE     ---       #39
      01005B59H   LINE      CODE     ---       #40
      01005B5CH   LINE      CODE     ---       #42
      01005B5CH   LINE      CODE     ---       #44
      01005B69H   LINE      CODE     ---       #45
      01005B6CH   LINE      CODE     ---       #46
      01005B73H   LINE      CODE     ---       #47
      01005B7CH   LINE      CODE     ---       #48
      01005B7CH   LINE      CODE     ---       #49
      01005B7CH   LINE      CODE     ---       #51
      01005B83H   LINE      CODE     ---       #52
      01005B86H   LINE      CODE     ---       #53
      01005B89H   LINE      CODE     ---       #55
      01005B89H   LINE      CODE     ---       #57
      ---         BLOCKEND  ---      ---       LVL=0

      ---         MODULE    ---      ---       SM_POWER_PACK_POWERSAVE
      0100C4F2H   PUBLIC    CONST    ---       sm_power_pack_powersave_ss_name
      01007894H   PUBLIC    CODE     ---       _sm_power_pack_powersave_submod0
      0100854FH   PUBLIC    CODE     ---       _sm_power_pack_powersave_init

      01008494H   BLOCK     CODE     ---       LVL=0
      ---         BLOCKEND  ---      ---       LVL=0

      0100854FH   BLOCK     CODE     ---       LVL=0
      00000007H   SYMBOL    DATA     BYTE      from
      00000005H   SYMBOL    DATA     BYTE      to
LX51 LINKER/LOCATER V4.66.87.0                                                        05/29/2018  21:11:03  PAGE 193


      00000006H   SYMBOL    DATA     BYTE      ev
      0100854FH   LINE      CODE     ---       #11
      01008551H   LINE      CODE     ---       #12
      01008551H   LINE      CODE     ---       #13
      ---         BLOCKEND  ---      ---       LVL=0

      01007894H   BLOCK     CODE     ---       LVL=0
      00000007H   SYMBOL    DATA     BYTE      from
      00000005H   SYMBOL    DATA     BYTE      to
      02000011H   SYMBOL    XDATA    BYTE      ev
      01007894H   LINE      CODE     ---       #16
      0100789AH   LINE      CODE     ---       #17
      0100789AH   LINE      CODE     ---       #18
      010078A4H   LINE      CODE     ---       #20
      010078AAH   LINE      CODE     ---       #21
      010078ADH   LINE      CODE     ---       #22
      010078B0H   LINE      CODE     ---       #24
      010078B0H   LINE      CODE     ---       #25
      ---         BLOCKEND  ---      ---       LVL=0

      ---         MODULE    ---      ---       SM_FUSE_TEST
      0100A562H   PUBLIC    CONST    ---       sm_fuse_test_ss_name
      01007A1EH   PUBLIC    CODE     ---       _sm_fuse_test_submod8
      01007A02H   PUBLIC    CODE     ---       _sm_fuse_test_submod7
      010079E6H   PUBLIC    CODE     ---       _sm_fuse_test_submod6
      010079CAH   PUBLIC    CODE     ---       _sm_fuse_test_submod5
      010079AEH   PUBLIC    CODE     ---       _sm_fuse_test_submod4
      01007992H   PUBLIC    CODE     ---       _sm_fuse_test_submod3
      01007976H   PUBLIC    CODE     ---       _sm_fuse_test_submod2
      0100795AH   PUBLIC    CODE     ---       _sm_fuse_test_submod1
      0100208BH   PUBLIC    CODE     ---       _sm_fuse_test_submod0
      01006388H   PUBLIC    CODE     ---       _sm_fuse_test_init
      01001598H   SYMBOL    CODE     ---       _sm_fuse_test_hg_mpu
      01001760H   SYMBOL    CODE     ---       _sm_fuse_test_thermo
      0100138CH   SYMBOL    CODE     ---       _display_test
      01005617H   SYMBOL    CODE     ---       _sm_fuse_set
      010035E4H   SYMBOL    CODE     ---       _update_set
      01005B8AH   SYMBOL    CODE     ---       _update_hg_mask
      01007586H   SYMBOL    CODE     ---       _inc_write
      010040ECH   SYMBOL    CODE     ---       _enter_set
      0100577FH   SYMBOL    CODE     ---       _write_only
      01005329H   SYMBOL    CODE     ---       _inc_only

      010044BEH   BLOCK     CODE     ---       LVL=0
      ---         BLOCKEND  ---      ---       LVL=0

      01006388H   BLOCK     CODE     ---       LVL=0
      00000007H   SYMBOL    DATA     BYTE      from
      00000005H   SYMBOL    DATA     BYTE      to
      02000011H   SYMBOL    XDATA    BYTE      ev
      01006388H   LINE      CODE     ---       #51
      0100638DH   LINE      CODE     ---       #52
      0100638DH   LINE      CODE     ---       #53
      01006397H   LINE      CODE     ---       #54
      0100639CH   LINE      CODE     ---       #55
      010063A3H   LINE      CODE     ---       #56
      010063A6H   LINE      CODE     ---       #57
      010063A9H   LINE      CODE     ---       #58
      010063AEH   LINE      CODE     ---       #59
      010063B3H   LINE      CODE     ---       #60
      010063B3H   LINE      CODE     ---       #61
      010063B6H   LINE      CODE     ---       #62
      010063BDH   LINE      CODE     ---       #63
      010063C6H   LINE      CODE     ---       #64
      010063C6H   LINE      CODE     ---       #65
LX51 LINKER/LOCATER V4.66.87.0                                                        05/29/2018  21:11:03  PAGE 194


      ---         BLOCKEND  ---      ---       LVL=0

      01005B8AH   BLOCK     CODE     ---       LVL=0
      02000015H   SYMBOL    XDATA    BYTE      state
      02000016H   SYMBOL    XDATA    BYTE      mask
      01005B94H   BLOCK     CODE     NEAR LAB  LVL=1
      00000005H   SYMBOL    DATA     BYTE      val
      ---         BLOCKEND  ---      ---       LVL=1
      01005B8AH   LINE      CODE     ---       #67
      01005B94H   LINE      CODE     ---       #68
      01005B94H   LINE      CODE     ---       #70
      01005BA2H   LINE      CODE     ---       #71
      01005BADH   LINE      CODE     ---       #72
      01005BB1H   LINE      CODE     ---       #73
      01005BB5H   LINE      CODE     ---       #74
      01005BB9H   LINE      CODE     ---       #75
      01005BBFH   LINE      CODE     ---       #76
      01005BCFH   LINE      CODE     ---       #77
      01005BD2H   LINE      CODE     ---       #78
      ---         BLOCKEND  ---      ---       LVL=0

      0100138CH   BLOCK     CODE     ---       LVL=0
      02000015H   SYMBOL    XDATA    BYTE      what
      02000016H   SYMBOL    XDATA    BYTE      stage
      02000017H   SYMBOL    XDATA    BYTE      val
      02000018H   SYMBOL    XDATA    BYTE      errcode
      01001397H   BLOCK     CODE     NEAR LAB  LVL=1
      00000003H   SYMBOL    DATA     CHAR      tmp
      ---         BLOCKEND  ---      ---       LVL=1
      0100138CH   LINE      CODE     ---       #80
      01001397H   LINE      CODE     ---       #81
      01001397H   LINE      CODE     ---       #83
      010013A9H   LINE      CODE     ---       #85
      010013ACH   LINE      CODE     ---       #87
      010013B1H   LINE      CODE     ---       #88
      010013B5H   LINE      CODE     ---       #90
      010013BCH   LINE      CODE     ---       #91
      010013C1H   LINE      CODE     ---       #92
      010013C8H   LINE      CODE     ---       #93
      010013CFH   LINE      CODE     ---       #94
      010013CFH   LINE      CODE     ---       #95
      010013D5H   LINE      CODE     ---       #96
      010013D8H   LINE      CODE     ---       #97
      010013DFH   LINE      CODE     ---       #98
      010013E1H   LINE      CODE     ---       #99
      010013EAH   LINE      CODE     ---       #100
      010013EDH   LINE      CODE     ---       #101
      010013F4H   LINE      CODE     ---       #102
      010013FBH   LINE      CODE     ---       #103
      010013FBH   LINE      CODE     ---       #105
      0100141CH   LINE      CODE     ---       #106
      0100141CH   LINE      CODE     ---       #107
      0100141CH   LINE      CODE     ---       #108
      0100141CH   LINE      CODE     ---       #109
      01001423H   LINE      CODE     ---       #110
      0100142AH   LINE      CODE     ---       #111
      01001433H   LINE      CODE     ---       #112
      01001433H   LINE      CODE     ---       #113
      01001433H   LINE      CODE     ---       #114
      01001433H   LINE      CODE     ---       #115
      01001433H   LINE      CODE     ---       #116
      01001433H   LINE      CODE     ---       #117
      01001433H   LINE      CODE     ---       #118
      01001433H   LINE      CODE     ---       #119
      01001446H   LINE      CODE     ---       #120
LX51 LINKER/LOCATER V4.66.87.0                                                        05/29/2018  21:11:03  PAGE 195


      0100144EH   LINE      CODE     ---       #121
      01001454H   LINE      CODE     ---       #122
      0100145DH   LINE      CODE     ---       #123
      01001460H   LINE      CODE     ---       #124
      01001462H   LINE      CODE     ---       #125
      01001465H   LINE      CODE     ---       #126
      01001465H   LINE      CODE     ---       #127
      0100146CH   LINE      CODE     ---       #128
      0100146CH   LINE      CODE     ---       #129
      0100146FH   LINE      CODE     ---       #130
      0100146FH   LINE      CODE     ---       #131
      0100146FH   LINE      CODE     ---       #132
      01001476H   LINE      CODE     ---       #133
      0100147DH   LINE      CODE     ---       #134
      0100147FH   LINE      CODE     ---       #135
      01001481H   LINE      CODE     ---       #136
      01001488H   LINE      CODE     ---       #137
      01001488H   LINE      CODE     ---       #138
      01001493H   LINE      CODE     ---       #139
      0100149CH   LINE      CODE     ---       #140
      010014A5H   LINE      CODE     ---       #141
      010014A7H   LINE      CODE     ---       #142
      010014AFH   LINE      CODE     ---       #143
      010014B6H   LINE      CODE     ---       #144
      010014BAH   LINE      CODE     ---       #145
      010014BAH   LINE      CODE     ---       #146
      010014C3H   LINE      CODE     ---       #147
      010014D0H   LINE      CODE     ---       #148
      010014D3H   LINE      CODE     ---       #149
      010014DAH   LINE      CODE     ---       #150
      010014E1H   LINE      CODE     ---       #151
      010014E3H   LINE      CODE     ---       #152
      010014E3H   LINE      CODE     ---       #153
      010014E3H   LINE      CODE     ---       #154
      010014E6H   LINE      CODE     ---       #155
      010014E6H   LINE      CODE     ---       #156
      010014E6H   LINE      CODE     ---       #157
      010014EAH   LINE      CODE     ---       #158
      010014F1H   LINE      CODE     ---       #159
      010014F2H   LINE      CODE     ---       #160
      010014F4H   LINE      CODE     ---       #161
      010014FBH   LINE      CODE     ---       #162
      01001502H   LINE      CODE     ---       #163
      01001502H   LINE      CODE     ---       #164
      0100150BH   LINE      CODE     ---       #165
      01001512H   LINE      CODE     ---       #166
      01001515H   LINE      CODE     ---       #167
      0100151AH   LINE      CODE     ---       #168
      0100151FH   LINE      CODE     ---       #169
      01001524H   LINE      CODE     ---       #170
      01001528H   LINE      CODE     ---       #171
      0100152CH   LINE      CODE     ---       #172
      01001531H   LINE      CODE     ---       #173
      01001533H   LINE      CODE     ---       #174
      01001536H   LINE      CODE     ---       #176
      01001543H   LINE      CODE     ---       #177
      01001546H   LINE      CODE     ---       #178
      01001548H   LINE      CODE     ---       #179
      01001557H   LINE      CODE     ---       #180
      01001557H   LINE      CODE     ---       #181
      01001563H   LINE      CODE     ---       #182
      01001566H   LINE      CODE     ---       #183
      01001568H   LINE      CODE     ---       #184
      01001576H   LINE      CODE     ---       #185
      01001576H   LINE      CODE     ---       #186
LX51 LINKER/LOCATER V4.66.87.0                                                        05/29/2018  21:11:03  PAGE 196


      01001576H   LINE      CODE     ---       #187
      01001576H   LINE      CODE     ---       #188
      01001576H   LINE      CODE     ---       #189
      ---         BLOCKEND  ---      ---       LVL=0

      010035E4H   BLOCK     CODE     ---       LVL=0
      00000007H   SYMBOL    DATA     BYTE      what
      010035E4H   BLOCK     CODE     NEAR LAB  LVL=1
      00000004H   SYMBOL    DATA     CHAR      val
      ---         BLOCKEND  ---      ---       LVL=1
      010035E4H   LINE      CODE     ---       #191
      010035E4H   LINE      CODE     ---       #192
      010035E4H   LINE      CODE     ---       #195
      010035F6H   LINE      CODE     ---       #196
      010035F6H   LINE      CODE     ---       #197
      010035F6H   LINE      CODE     ---       #198
      010035FBH   LINE      CODE     ---       #199
      010035FEH   LINE      CODE     ---       #200
      010035FEH   LINE      CODE     ---       #201
      01003601H   LINE      CODE     ---       #202
      01003601H   LINE      CODE     ---       #203
      01003603H   LINE      CODE     ---       #204
      0100360BH   LINE      CODE     ---       #205
      01003612H   LINE      CODE     ---       #206
      01003616H   LINE      CODE     ---       #207
      01003618H   LINE      CODE     ---       #208
      0100361BH   LINE      CODE     ---       #209
      0100361BH   LINE      CODE     ---       #210
      01003627H   LINE      CODE     ---       #211
      01003632H   LINE      CODE     ---       #212
      01003632H   LINE      CODE     ---       #213
      01003634H   LINE      CODE     ---       #214
      01003634H   LINE      CODE     ---       #215
      0100363AH   LINE      CODE     ---       #216
      0100363DH   LINE      CODE     ---       #217
      01003644H   LINE      CODE     ---       #218
      01003645H   LINE      CODE     ---       #219
      01003647H   LINE      CODE     ---       #220
      01003647H   LINE      CODE     ---       #221
      0100364AH   LINE      CODE     ---       #222
      0100364AH   LINE      CODE     ---       #223
      0100364AH   LINE      CODE     ---       #224
      0100364CH   LINE      CODE     ---       #225
      0100364CH   LINE      CODE     ---       #226
      01003653H   LINE      CODE     ---       #227
      0100365AH   LINE      CODE     ---       #228
      01003661H   LINE      CODE     ---       #229
      01003661H   LINE      CODE     ---       #230
      01003663H   LINE      CODE     ---       #231
      01003667H   LINE      CODE     ---       #232
      0100366FH   LINE      CODE     ---       #233
      0100367CH   LINE      CODE     ---       #234
      0100367CH   LINE      CODE     ---       #235
      0100367CH   LINE      CODE     ---       #236
      0100367CH   LINE      CODE     ---       #237
      ---         BLOCKEND  ---      ---       LVL=0

      010040ECH   BLOCK     CODE     ---       LVL=0
      02000014H   SYMBOL    XDATA    BYTE      what
      010040ECH   LINE      CODE     ---       #240
      010040F1H   LINE      CODE     ---       #241
      010040F1H   LINE      CODE     ---       #242
      010040FBH   LINE      CODE     ---       #243
      010040FEH   LINE      CODE     ---       #244
      01004103H   LINE      CODE     ---       #245
LX51 LINKER/LOCATER V4.66.87.0                                                        05/29/2018  21:11:03  PAGE 197


      01004107H   LINE      CODE     ---       #246
      0100410BH   LINE      CODE     ---       #247
      0100410FH   LINE      CODE     ---       #248
      01004113H   LINE      CODE     ---       #249
      01004125H   LINE      CODE     ---       #250
      01004125H   LINE      CODE     ---       #251
      01004125H   LINE      CODE     ---       #252
      0100412CH   LINE      CODE     ---       #253
      01004133H   LINE      CODE     ---       #254
      01004135H   LINE      CODE     ---       #255
      01004137H   LINE      CODE     ---       #256
      0100413EH   LINE      CODE     ---       #257
      0100413EH   LINE      CODE     ---       #258
      01004149H   LINE      CODE     ---       #260
      0100414BH   LINE      CODE     ---       #261
      0100414BH   LINE      CODE     ---       #262
      01004152H   LINE      CODE     ---       #263
      01004158H   LINE      CODE     ---       #264
      0100415AH   LINE      CODE     ---       #265
      0100415CH   LINE      CODE     ---       #266
      0100415CH   LINE      CODE     ---       #267
      01004163H   LINE      CODE     ---       #268
      0100416AH   LINE      CODE     ---       #269
      01004174H   LINE      CODE     ---       #270
      01004174H   LINE      CODE     ---       #271
      01004174H   LINE      CODE     ---       #272
      ---         BLOCKEND  ---      ---       LVL=0

      01005329H   BLOCK     CODE     ---       LVL=0
      02000015H   SYMBOL    XDATA    BYTE      what
      01005329H   LINE      CODE     ---       #275
      0100532EH   LINE      CODE     ---       #276
      0100532EH   LINE      CODE     ---       #278
      01005338H   LINE      CODE     ---       #280
      0100533BH   LINE      CODE     ---       #281
      0100533DH   LINE      CODE     ---       #282
      01005342H   LINE      CODE     ---       #283
      01005346H   LINE      CODE     ---       #284
      0100534AH   LINE      CODE     ---       #285
      0100534AH   LINE      CODE     ---       #287
      0100535CH   LINE      CODE     ---       #288
      0100535CH   LINE      CODE     ---       #289
      0100535CH   LINE      CODE     ---       #290
      01005364H   LINE      CODE     ---       #291
      01005366H   LINE      CODE     ---       #292
      01005366H   LINE      CODE     ---       #293
      01005375H   LINE      CODE     ---       #294
      01005377H   LINE      CODE     ---       #295
      01005377H   LINE      CODE     ---       #296
      01005381H   LINE      CODE     ---       #297
      01005381H   LINE      CODE     ---       #298
      01005381H   LINE      CODE     ---       #299
      ---         BLOCKEND  ---      ---       LVL=0

      0100577FH   BLOCK     CODE     ---       LVL=0
      02000015H   SYMBOL    XDATA    BYTE      what
      0100577FH   LINE      CODE     ---       #302
      01005784H   LINE      CODE     ---       #303
      01005784H   LINE      CODE     ---       #304
      0100578EH   LINE      CODE     ---       #306
      01005791H   LINE      CODE     ---       #307
      01005793H   LINE      CODE     ---       #308
      01005798H   LINE      CODE     ---       #309
      0100579CH   LINE      CODE     ---       #310
      010057A0H   LINE      CODE     ---       #311
LX51 LINKER/LOCATER V4.66.87.0                                                        05/29/2018  21:11:03  PAGE 198


      010057A0H   LINE      CODE     ---       #313
      010057B2H   LINE      CODE     ---       #314
      010057B2H   LINE      CODE     ---       #315
      010057B9H   LINE      CODE     ---       #316
      010057BBH   LINE      CODE     ---       #317
      010057BBH   LINE      CODE     ---       #318
      010057C2H   LINE      CODE     ---       #319
      010057C4H   LINE      CODE     ---       #320
      010057C4H   LINE      CODE     ---       #321
      010057CBH   LINE      CODE     ---       #322
      010057CDH   LINE      CODE     ---       #323
      010057CDH   LINE      CODE     ---       #324
      010057D7H   LINE      CODE     ---       #325
      010057D7H   LINE      CODE     ---       #326
      010057D7H   LINE      CODE     ---       #327
      ---         BLOCKEND  ---      ---       LVL=0

      01007586H   BLOCK     CODE     ---       LVL=0
      02000014H   SYMBOL    XDATA    BYTE      what
      01007586H   LINE      CODE     ---       #329
      0100758BH   LINE      CODE     ---       #330
      0100758BH   LINE      CODE     ---       #331
      01007598H   LINE      CODE     ---       #332
      010075A0H   LINE      CODE     ---       #333
      ---         BLOCKEND  ---      ---       LVL=0

      01001760H   BLOCK     CODE     ---       LVL=0
      02000012H   SYMBOL    XDATA    BYTE      what
      02000013H   SYMBOL    XDATA    BYTE      ev
      01001768H   BLOCK     CODE     NEAR LAB  LVL=1
      02000014H   SYMBOL    XDATA    BYTE      val
      ---         BLOCKEND  ---      ---       LVL=1
      01001760H   LINE      CODE     ---       #336
      01001768H   LINE      CODE     ---       #337
      01001768H   LINE      CODE     ---       #339
      0100176CH   LINE      CODE     ---       #341
      0100176CH   LINE      CODE     ---       #342
      0100176FH   LINE      CODE     ---       #343
      01001774H   LINE      CODE     ---       #344
      0100178BH   LINE      CODE     ---       #348
      0100178BH   LINE      CODE     ---       #350
      01001799H   LINE      CODE     ---       #352
      010017A0H   LINE      CODE     ---       #353
      010017A4H   LINE      CODE     ---       #355
      010017AEH   LINE      CODE     ---       #356
      010017BFH   LINE      CODE     ---       #357
      010017C7H   LINE      CODE     ---       #359
      010017C9H   LINE      CODE     ---       #360
      010017CCH   LINE      CODE     ---       #361
      010017D1H   LINE      CODE     ---       #362
      010017E4H   LINE      CODE     ---       #365
      010017E7H   LINE      CODE     ---       #367
      010017FDH   LINE      CODE     ---       #370
      01001800H   LINE      CODE     ---       #372
      01001800H   LINE      CODE     ---       #374
      0100180EH   LINE      CODE     ---       #375
      01001813H   LINE      CODE     ---       #377
      01001829H   LINE      CODE     ---       #380
      01001829H   LINE      CODE     ---       #381
      01001829H   LINE      CODE     ---       #382
      01001833H   LINE      CODE     ---       #384
      01001851H   LINE      CODE     ---       #387
      01001851H   LINE      CODE     ---       #388
      01001851H   LINE      CODE     ---       #389
      01001854H   LINE      CODE     ---       #391
LX51 LINKER/LOCATER V4.66.87.0                                                        05/29/2018  21:11:03  PAGE 199


      01001854H   LINE      CODE     ---       #393
      0100185FH   LINE      CODE     ---       #394
      01001864H   LINE      CODE     ---       #395
      0100186FH   LINE      CODE     ---       #396
      01001871H   LINE      CODE     ---       #397
      01001874H   LINE      CODE     ---       #398
      01001892H   LINE      CODE     ---       #401
      01001892H   LINE      CODE     ---       #402
      01001899H   LINE      CODE     ---       #403
      010018A1H   LINE      CODE     ---       #404
      010018A6H   LINE      CODE     ---       #405
      010018A9H   LINE      CODE     ---       #406
      010018B6H   LINE      CODE     ---       #407
      010018B8H   LINE      CODE     ---       #408
      010018C5H   LINE      CODE     ---       #409
      010018C5H   LINE      CODE     ---       #410
      010018C5H   LINE      CODE     ---       #411
      010018C5H   LINE      CODE     ---       #412
      010018CFH   LINE      CODE     ---       #413
      010018D4H   LINE      CODE     ---       #414
      010018D7H   LINE      CODE     ---       #415
      010018E7H   LINE      CODE     ---       #416
      010018E7H   LINE      CODE     ---       #417
      010018F7H   LINE      CODE     ---       #418
      010018FCH   LINE      CODE     ---       #419
      01001901H   LINE      CODE     ---       #420
      01001901H   LINE      CODE     ---       #421
      01001901H   LINE      CODE     ---       #422
      01001901H   LINE      CODE     ---       #424
      01001901H   LINE      CODE     ---       #425
      ---         BLOCKEND  ---      ---       LVL=0

      01005617H   BLOCK     CODE     ---       LVL=0
      02000012H   SYMBOL    XDATA    BYTE      what
      02000013H   SYMBOL    XDATA    BYTE      ev
      01005617H   LINE      CODE     ---       #427
      0100561FH   LINE      CODE     ---       #428
      0100561FH   LINE      CODE     ---       #429
      01005622H   LINE      CODE     ---       #430
      0100562AH   LINE      CODE     ---       #431
      0100562CH   LINE      CODE     ---       #433
      0100562CH   LINE      CODE     ---       #435
      01005633H   LINE      CODE     ---       #436
      0100563BH   LINE      CODE     ---       #438
      0100563BH   LINE      CODE     ---       #440
      01005642H   LINE      CODE     ---       #441
      01005649H   LINE      CODE     ---       #442
      01005651H   LINE      CODE     ---       #443
      01005651H   LINE      CODE     ---       #444
      01005657H   LINE      CODE     ---       #445
      0100565EH   LINE      CODE     ---       #447
      0100565EH   LINE      CODE     ---       #449
      01005665H   LINE      CODE     ---       #450
      0100566DH   LINE      CODE     ---       #451
      01005672H   LINE      CODE     ---       #453
      01005672H   LINE      CODE     ---       #454
      ---         BLOCKEND  ---      ---       LVL=0

      0100208BH   BLOCK     CODE     ---       LVL=0
      00000007H   SYMBOL    DATA     BYTE      from
      00000005H   SYMBOL    DATA     BYTE      to
      02000011H   SYMBOL    XDATA    BYTE      ev
      0100208BH   LINE      CODE     ---       #462
      01002091H   LINE      CODE     ---       #463
      01002091H   LINE      CODE     ---       #464
LX51 LINKER/LOCATER V4.66.87.0                                                        05/29/2018  21:11:03  PAGE 200


      0100209DH   LINE      CODE     ---       #466
      010020AAH   LINE      CODE     ---       #468
      010020AAH   LINE      CODE     ---       #469
      010020ADH   LINE      CODE     ---       #470
      010020AFH   LINE      CODE     ---       #471
      010020B1H   LINE      CODE     ---       #473
      010020B1H   LINE      CODE     ---       #475
      010020BFH   LINE      CODE     ---       #477
      010020C1H   LINE      CODE     ---       #478
      010020C9H   LINE      CODE     ---       #479
      010020CEH   LINE      CODE     ---       #480
      010020D1H   LINE      CODE     ---       #482
      010020D1H   LINE      CODE     ---       #484
      010020D9H   LINE      CODE     ---       #486
      010020DEH   LINE      CODE     ---       #488
      010020E1H   LINE      CODE     ---       #489
      010020E8H   LINE      CODE     ---       #490
      010020ECH   LINE      CODE     ---       #491
      010020EFH   LINE      CODE     ---       #492
      010020EFH   LINE      CODE     ---       #493
      010020F2H   LINE      CODE     ---       #495
      010020F7H   LINE      CODE     ---       #496
      010020F7H   LINE      CODE     ---       #497
      010020F7H   LINE      CODE     ---       #498
      010020FAH   LINE      CODE     ---       #500
      010020FAH   LINE      CODE     ---       #502
      01002102H   LINE      CODE     ---       #504
      0100210AH   LINE      CODE     ---       #506
      0100210DH   LINE      CODE     ---       #507
      01002114H   LINE      CODE     ---       #508
      01002119H   LINE      CODE     ---       #509
      01002121H   LINE      CODE     ---       #510
      0100212BH   LINE      CODE     ---       #511
      0100212DH   LINE      CODE     ---       #513
      01002132H   LINE      CODE     ---       #514
      01002132H   LINE      CODE     ---       #515
      01002132H   LINE      CODE     ---       #516
      01002135H   LINE      CODE     ---       #518
      01002135H   LINE      CODE     ---       #520
      0100213DH   LINE      CODE     ---       #522
      01002144H   LINE      CODE     ---       #525
      01002144H   LINE      CODE     ---       #526
      01002147H   LINE      CODE     ---       #527
      0100214FH   LINE      CODE     ---       #528
      01002151H   LINE      CODE     ---       #530
      01002156H   LINE      CODE     ---       #531
      01002156H   LINE      CODE     ---       #532
      01002156H   LINE      CODE     ---       #533
      01002158H   LINE      CODE     ---       #535
      01002158H   LINE      CODE     ---       #537
      01002160H   LINE      CODE     ---       #539
      01002165H   LINE      CODE     ---       #540
      0100216DH   LINE      CODE     ---       #541
      01002173H   LINE      CODE     ---       #542
      01002177H   LINE      CODE     ---       #543
      0100217AH   LINE      CODE     ---       #544
      01002187H   LINE      CODE     ---       #545
      01002187H   LINE      CODE     ---       #546
      0100218CH   LINE      CODE     ---       #547
      01002194H   LINE      CODE     ---       #549
      0100219EH   LINE      CODE     ---       #550
      0100219EH   LINE      CODE     ---       #551
      0100219EH   LINE      CODE     ---       #552
      0100219EH   LINE      CODE     ---       #553
      010021A8H   LINE      CODE     ---       #554
LX51 LINKER/LOCATER V4.66.87.0                                                        05/29/2018  21:11:03  PAGE 201


      010021B0H   LINE      CODE     ---       #556
      010021BAH   LINE      CODE     ---       #557
      010021BAH   LINE      CODE     ---       #558
      010021BAH   LINE      CODE     ---       #559
      010021BAH   LINE      CODE     ---       #560
      010021C4H   LINE      CODE     ---       #561
      010021CCH   LINE      CODE     ---       #563
      010021D9H   LINE      CODE     ---       #564
      010021D9H   LINE      CODE     ---       #565
      010021DCH   LINE      CODE     ---       #566
      010021DCH   LINE      CODE     ---       #567
      010021DCH   LINE      CODE     ---       #569
      010021DCH   LINE      CODE     ---       #570
      ---         BLOCKEND  ---      ---       LVL=0

      0100795AH   BLOCK     CODE     ---       LVL=0
      00000007H   SYMBOL    DATA     BYTE      from
      00000005H   SYMBOL    DATA     BYTE      to
      02000011H   SYMBOL    XDATA    BYTE      ev
      0100795AH   LINE      CODE     ---       #572
      01007960H   LINE      CODE     ---       #573
      01007960H   LINE      CODE     ---       #574
      0100796CH   LINE      CODE     ---       #575
      ---         BLOCKEND  ---      ---       LVL=0

      01007976H   BLOCK     CODE     ---       LVL=0
      00000007H   SYMBOL    DATA     BYTE      from
      00000005H   SYMBOL    DATA     BYTE      to
      02000011H   SYMBOL    XDATA    BYTE      ev
      01007976H   LINE      CODE     ---       #583
      0100797CH   LINE      CODE     ---       #584
      0100797CH   LINE      CODE     ---       #585
      01007988H   LINE      CODE     ---       #586
      ---         BLOCKEND  ---      ---       LVL=0

      01007992H   BLOCK     CODE     ---       LVL=0
      00000007H   SYMBOL    DATA     BYTE      from
      00000005H   SYMBOL    DATA     BYTE      to
      02000011H   SYMBOL    XDATA    BYTE      ev
      01007992H   LINE      CODE     ---       #589
      01007998H   LINE      CODE     ---       #590
      01007998H   LINE      CODE     ---       #591
      010079A4H   LINE      CODE     ---       #592
      ---         BLOCKEND  ---      ---       LVL=0

      010079AEH   BLOCK     CODE     ---       LVL=0
      00000007H   SYMBOL    DATA     BYTE      from
      00000005H   SYMBOL    DATA     BYTE      to
      02000011H   SYMBOL    XDATA    BYTE      ev
      010079AEH   LINE      CODE     ---       #595
      010079B4H   LINE      CODE     ---       #596
      010079B4H   LINE      CODE     ---       #597
      010079C0H   LINE      CODE     ---       #598
      ---         BLOCKEND  ---      ---       LVL=0

      010079CAH   BLOCK     CODE     ---       LVL=0
      00000007H   SYMBOL    DATA     BYTE      from
      00000005H   SYMBOL    DATA     BYTE      to
      02000011H   SYMBOL    XDATA    BYTE      ev
      010079CAH   LINE      CODE     ---       #601
      010079D0H   LINE      CODE     ---       #602
      010079D0H   LINE      CODE     ---       #603
      010079DCH   LINE      CODE     ---       #604
      ---         BLOCKEND  ---      ---       LVL=0

LX51 LINKER/LOCATER V4.66.87.0                                                        05/29/2018  21:11:03  PAGE 202


      01001598H   BLOCK     CODE     ---       LVL=0
      02000012H   SYMBOL    XDATA    BYTE      what
      02000013H   SYMBOL    XDATA    BYTE      ev
      010015A0H   BLOCK     CODE     NEAR LAB  LVL=1
      02000014H   SYMBOL    XDATA    BYTE      val
      ---         BLOCKEND  ---      ---       LVL=1
      01001598H   LINE      CODE     ---       #607
      010015A0H   LINE      CODE     ---       #608
      010015A0H   LINE      CODE     ---       #611
      010015A4H   LINE      CODE     ---       #613
      010015A8H   LINE      CODE     ---       #614
      010015ACH   LINE      CODE     ---       #615
      010015B0H   LINE      CODE     ---       #616
      010015B7H   LINE      CODE     ---       #617
      010015BCH   LINE      CODE     ---       #618
      010015BEH   LINE      CODE     ---       #619
      010015C3H   LINE      CODE     ---       #620
      010015C3H   LINE      CODE     ---       #621
      010015CAH   LINE      CODE     ---       #623
      010015CAH   LINE      CODE     ---       #625
      010015D8H   LINE      CODE     ---       #626
      010015EDH   LINE      CODE     ---       #627
      010015FDH   LINE      CODE     ---       #629
      010015FEH   LINE      CODE     ---       #630
      01001601H   LINE      CODE     ---       #631
      01001606H   LINE      CODE     ---       #632
      01001609H   LINE      CODE     ---       #633
      01001611H   LINE      CODE     ---       #634
      01001623H   LINE      CODE     ---       #635
      01001625H   LINE      CODE     ---       #636
      01001628H   LINE      CODE     ---       #637
      0100162DH   LINE      CODE     ---       #638
      01001630H   LINE      CODE     ---       #639
      01001638H   LINE      CODE     ---       #640
      0100163BH   LINE      CODE     ---       #642
      01001649H   LINE      CODE     ---       #643
      0100164CH   LINE      CODE     ---       #645
      0100164CH   LINE      CODE     ---       #647
      01001654H   LINE      CODE     ---       #648
      01001659H   LINE      CODE     ---       #649
      01001664H   LINE      CODE     ---       #650
      0100166FH   LINE      CODE     ---       #651
      0100167DH   LINE      CODE     ---       #653
      01001680H   LINE      CODE     ---       #654
      01001680H   LINE      CODE     ---       #655
      01001680H   LINE      CODE     ---       #656
      01001680H   LINE      CODE     ---       #657
      0100168EH   LINE      CODE     ---       #659
      01001696H   LINE      CODE     ---       #660
      01001699H   LINE      CODE     ---       #661
      01001699H   LINE      CODE     ---       #662
      0100169CH   LINE      CODE     ---       #664
      0100169CH   LINE      CODE     ---       #666
      010016A4H   LINE      CODE     ---       #667
      010016ACH   LINE      CODE     ---       #669
      010016AFH   LINE      CODE     ---       #670
      010016AFH   LINE      CODE     ---       #671
      010016AFH   LINE      CODE     ---       #672
      010016BDH   LINE      CODE     ---       #674
      010016C5H   LINE      CODE     ---       #675
      010016C8H   LINE      CODE     ---       #676
      010016C8H   LINE      CODE     ---       #677
      010016CAH   LINE      CODE     ---       #679
      010016CAH   LINE      CODE     ---       #681
      010016D2H   LINE      CODE     ---       #682
LX51 LINKER/LOCATER V4.66.87.0                                                        05/29/2018  21:11:03  PAGE 203


      010016D7H   LINE      CODE     ---       #683
      010016DFH   LINE      CODE     ---       #685
      010016E5H   LINE      CODE     ---       #686
      010016EDH   LINE      CODE     ---       #687
      010016F4H   LINE      CODE     ---       #688
      010016F8H   LINE      CODE     ---       #689
      010016FAH   LINE      CODE     ---       #690
      01001702H   LINE      CODE     ---       #691
      01001702H   LINE      CODE     ---       #692
      0100170BH   LINE      CODE     ---       #693
      0100170BH   LINE      CODE     ---       #694
      01001710H   LINE      CODE     ---       #695
      01001720H   LINE      CODE     ---       #697
      01001729H   LINE      CODE     ---       #698
      0100172EH   LINE      CODE     ---       #699
      01001735H   LINE      CODE     ---       #700
      0100173AH   LINE      CODE     ---       #701
      0100173AH   LINE      CODE     ---       #702
      0100173FH   LINE      CODE     ---       #703
      0100173FH   LINE      CODE     ---       #704
      0100173FH   LINE      CODE     ---       #705
      0100173FH   LINE      CODE     ---       #707
      0100173FH   LINE      CODE     ---       #708
      ---         BLOCKEND  ---      ---       LVL=0

      010079E6H   BLOCK     CODE     ---       LVL=0
      00000007H   SYMBOL    DATA     BYTE      from
      00000005H   SYMBOL    DATA     BYTE      to
      02000011H   SYMBOL    XDATA    BYTE      ev
      010079E6H   LINE      CODE     ---       #714
      010079ECH   LINE      CODE     ---       #715
      010079ECH   LINE      CODE     ---       #716
      010079F8H   LINE      CODE     ---       #717
      ---         BLOCKEND  ---      ---       LVL=0

      01007A02H   BLOCK     CODE     ---       LVL=0
      00000007H   SYMBOL    DATA     BYTE      from
      00000005H   SYMBOL    DATA     BYTE      to
      02000011H   SYMBOL    XDATA    BYTE      ev
      01007A02H   LINE      CODE     ---       #720
      01007A08H   LINE      CODE     ---       #721
      01007A08H   LINE      CODE     ---       #722
      01007A14H   LINE      CODE     ---       #723
      ---         BLOCKEND  ---      ---       LVL=0

      01007A1EH   BLOCK     CODE     ---       LVL=0
      00000007H   SYMBOL    DATA     BYTE      from
      00000005H   SYMBOL    DATA     BYTE      to
      02000011H   SYMBOL    XDATA    BYTE      ev
      01007A1EH   LINE      CODE     ---       #727
      01007A24H   LINE      CODE     ---       #728
      01007A24H   LINE      CODE     ---       #729
      01007A30H   LINE      CODE     ---       #730
      ---         BLOCKEND  ---      ---       LVL=0

      ---         MODULE    ---      ---       SM_FUSE_PARAM
      0100B269H   PUBLIC    CONST    ---       sm_fuse_param_ss_name
      0100417CH   PUBLIC    CODE     ---       _sm_fuse_param_submod6
      01007AAAH   PUBLIC    CODE     ---       _sm_fuse_param_submod5
      01007A8EH   PUBLIC    CODE     ---       _sm_fuse_param_submod4
      01007A72H   PUBLIC    CODE     ---       _sm_fuse_param_submod3
      01007A56H   PUBLIC    CODE     ---       _sm_fuse_param_submod2
      01007A3AH   PUBLIC    CODE     ---       _sm_fuse_param_submod1
      0100605FH   PUBLIC    CODE     ---       _sm_fuse_param_submod0
      0100744EH   PUBLIC    CODE     ---       _sm_fuse_param_init
LX51 LINKER/LOCATER V4.66.87.0                                                        05/29/2018  21:11:03  PAGE 204


      01001C3BH   SYMBOL    CODE     ---       _update_time
      01004E6DH   SYMBOL    CODE     ---       _sm_fuse_param_set_time
      010067EAH   SYMBOL    CODE     ---       _enter_time
      01004737H   SYMBOL    CODE     ---       _write_only
      0100861CH   SYMBOL    CODE     ---       _inc_and_write
      01006708H   SYMBOL    CODE     ---       _update_password
      0100491EH   SYMBOL    CODE     ---       _inc_only
      01007C20H   SYMBOL    CODE     ---       _enter_password

      01007E18H   BLOCK     CODE     ---       LVL=0
      ---         BLOCKEND  ---      ---       LVL=0

      0100491EH   BLOCK     CODE     ---       LVL=0
      00000006H   SYMBOL    DATA     BYTE      what
      0100491EH   LINE      CODE     ---       #26
      01004920H   LINE      CODE     ---       #27
      01004920H   LINE      CODE     ---       #29
      0100492CH   LINE      CODE     ---       #30
      0100493AH   LINE      CODE     ---       #32
      0100493AH   LINE      CODE     ---       #34
      0100494EH   LINE      CODE     ---       #35
      0100494EH   LINE      CODE     ---       #36
      0100494EH   LINE      CODE     ---       #37
      01004951H   LINE      CODE     ---       #38
      01004953H   LINE      CODE     ---       #39
      01004955H   LINE      CODE     ---       #40
      01004958H   LINE      CODE     ---       #41
      01004958H   LINE      CODE     ---       #42
      0100495BH   LINE      CODE     ---       #43
      0100495EH   LINE      CODE     ---       #44
      0100495EH   LINE      CODE     ---       #45
      01004961H   LINE      CODE     ---       #46
      01004961H   LINE      CODE     ---       #47
      01004961H   LINE      CODE     ---       #48
      01004961H   LINE      CODE     ---       #49
      01004961H   LINE      CODE     ---       #50
      01004964H   LINE      CODE     ---       #51
      01004966H   LINE      CODE     ---       #52
      01004968H   LINE      CODE     ---       #53
      0100496BH   LINE      CODE     ---       #54
      0100496BH   LINE      CODE     ---       #55
      0100496FH   LINE      CODE     ---       #56
      01004972H   LINE      CODE     ---       #57
      01004972H   LINE      CODE     ---       #58
      01004975H   LINE      CODE     ---       #59
      01004975H   LINE      CODE     ---       #60
      01004975H   LINE      CODE     ---       #61
      01004975H   LINE      CODE     ---       #62
      01004975H   LINE      CODE     ---       #63
      01004978H   LINE      CODE     ---       #64
      0100497AH   LINE      CODE     ---       #65
      0100497FH   LINE      CODE     ---       #66
      01004983H   LINE      CODE     ---       #67
      01004983H   LINE      CODE     ---       #68
      01004987H   LINE      CODE     ---       #69
      0100498AH   LINE      CODE     ---       #70
      0100498AH   LINE      CODE     ---       #71
      0100498DH   LINE      CODE     ---       #72
      0100498DH   LINE      CODE     ---       #73
      0100498DH   LINE      CODE     ---       #74
      0100498DH   LINE      CODE     ---       #75
      ---         BLOCKEND  ---      ---       LVL=0

      01004737H   BLOCK     CODE     ---       LVL=0
      02000015H   SYMBOL    XDATA    BYTE      what
LX51 LINKER/LOCATER V4.66.87.0                                                        05/29/2018  21:11:03  PAGE 205


      0100473CH   BLOCK     CODE     NEAR LAB  LVL=1
      00000007H   SYMBOL    DATA     BYTE      i
      ---         BLOCKEND  ---      ---       LVL=1
      01004737H   LINE      CODE     ---       #77
      0100473CH   LINE      CODE     ---       #78
      0100473CH   LINE      CODE     ---       #81
      01004748H   LINE      CODE     ---       #82
      0100474BH   LINE      CODE     ---       #83
      01004756H   LINE      CODE     ---       #85
      01004756H   LINE      CODE     ---       #87
      0100476DH   LINE      CODE     ---       #88
      0100476DH   LINE      CODE     ---       #89
      01004770H   LINE      CODE     ---       #90
      01004772H   LINE      CODE     ---       #91
      01004772H   LINE      CODE     ---       #92
      01004772H   LINE      CODE     ---       #93
      01004772H   LINE      CODE     ---       #94
      01004772H   LINE      CODE     ---       #95
      01004774H   LINE      CODE     ---       #96
      01004774H   LINE      CODE     ---       #97
      01004777H   LINE      CODE     ---       #98
      01004779H   LINE      CODE     ---       #99
      01004779H   LINE      CODE     ---       #100
      01004779H   LINE      CODE     ---       #101
      01004779H   LINE      CODE     ---       #102
      01004779H   LINE      CODE     ---       #103
      0100477BH   LINE      CODE     ---       #104
      0100477BH   LINE      CODE     ---       #105
      0100477EH   LINE      CODE     ---       #106
      01004780H   LINE      CODE     ---       #107
      01004780H   LINE      CODE     ---       #108
      01004780H   LINE      CODE     ---       #109
      01004780H   LINE      CODE     ---       #110
      01004780H   LINE      CODE     ---       #111
      01004782H   LINE      CODE     ---       #112
      01004782H   LINE      CODE     ---       #113
      01004785H   LINE      CODE     ---       #114
      0100478AH   LINE      CODE     ---       #115
      0100478CH   LINE      CODE     ---       #116
      0100478EH   LINE      CODE     ---       #117
      0100478EH   LINE      CODE     ---       #118
      0100478EH   LINE      CODE     ---       #119
      01004790H   LINE      CODE     ---       #120
      01004790H   LINE      CODE     ---       #121
      01004793H   LINE      CODE     ---       #122
      01004798H   LINE      CODE     ---       #123
      0100479AH   LINE      CODE     ---       #124
      0100479CH   LINE      CODE     ---       #125
      0100479CH   LINE      CODE     ---       #126
      0100479CH   LINE      CODE     ---       #127
      0100479EH   LINE      CODE     ---       #128
      0100479EH   LINE      CODE     ---       #129
      010047A1H   LINE      CODE     ---       #130
      010047A6H   LINE      CODE     ---       #131
      010047A8H   LINE      CODE     ---       #132
      010047ADH   LINE      CODE     ---       #133
      010047B1H   LINE      CODE     ---       #134
      010047B1H   LINE      CODE     ---       #135
      010047B1H   LINE      CODE     ---       #136
      010047B1H   LINE      CODE     ---       #138
      ---         BLOCKEND  ---      ---       LVL=0

      0100861CH   BLOCK     CODE     ---       LVL=0
      00000004H   SYMBOL    DATA     BYTE      what
      0100861CH   LINE      CODE     ---       #140
LX51 LINKER/LOCATER V4.66.87.0                                                        05/29/2018  21:11:03  PAGE 206


      0100861EH   LINE      CODE     ---       #141
      0100861EH   LINE      CODE     ---       #142
      01008621H   LINE      CODE     ---       #143
      ---         BLOCKEND  ---      ---       LVL=0

      01001C3BH   BLOCK     CODE     ---       LVL=0
      00000007H   SYMBOL    DATA     BYTE      what
      01001C3BH   BLOCK     CODE     NEAR LAB  LVL=1
      02000016H   SYMBOL    XDATA    BYTE      year
      02000017H   SYMBOL    XDATA    BYTE      mon
      02000018H   SYMBOL    XDATA    BYTE      date
      02000019H   SYMBOL    XDATA    BYTE      hour
      0200001AH   SYMBOL    XDATA    BYTE      min
      0200001BH   SYMBOL    XDATA    BYTE      sec
      ---         BLOCKEND  ---      ---       LVL=1
      01001C3BH   LINE      CODE     ---       #146
      01001C3BH   LINE      CODE     ---       #147
      01001C3BH   LINE      CODE     ---       #150
      01001C4AH   LINE      CODE     ---       #152
      01001C52H   LINE      CODE     ---       #153
      01001C58H   LINE      CODE     ---       #154
      01001C5EH   LINE      CODE     ---       #156
      01001C63H   LINE      CODE     ---       #157
      01001C68H   LINE      CODE     ---       #159
      01001C89H   LINE      CODE     ---       #161
      01001C93H   LINE      CODE     ---       #162
      01001C96H   LINE      CODE     ---       #163
      01001C98H   LINE      CODE     ---       #164
      01001C9FH   LINE      CODE     ---       #165
      01001C9FH   LINE      CODE     ---       #166
      01001CA5H   LINE      CODE     ---       #167
      01001CABH   LINE      CODE     ---       #168
      01001CB1H   LINE      CODE     ---       #169
      01001CB7H   LINE      CODE     ---       #170
      01001CBAH   LINE      CODE     ---       #171
      01001CBDH   LINE      CODE     ---       #172
      01001CC5H   LINE      CODE     ---       #173
      01001CCBH   LINE      CODE     ---       #174
      01001CD1H   LINE      CODE     ---       #177
      01001CD6H   LINE      CODE     ---       #178
      01001CDAH   LINE      CODE     ---       #179
      01001CDEH   LINE      CODE     ---       #180
      01001CE2H   LINE      CODE     ---       #183
      01001CEFH   LINE      CODE     ---       #184
      01001CF3H   LINE      CODE     ---       #185
      01001CF7H   LINE      CODE     ---       #186
      01001D05H   LINE      CODE     ---       #187
      01001D0AH   LINE      CODE     ---       #188
      01001D0CH   LINE      CODE     ---       #189
      01001D11H   LINE      CODE     ---       #190
      01001D11H   LINE      CODE     ---       #193
      01001D32H   LINE      CODE     ---       #195
      01001D3CH   LINE      CODE     ---       #196
      01001D3FH   LINE      CODE     ---       #197
      01001D41H   LINE      CODE     ---       #198
      01001D48H   LINE      CODE     ---       #199
      01001D48H   LINE      CODE     ---       #200
      01001D4EH   LINE      CODE     ---       #201
      01001D54H   LINE      CODE     ---       #202
      01001D5AH   LINE      CODE     ---       #203
      01001D60H   LINE      CODE     ---       #204
      01001D72H   LINE      CODE     ---       #205
      01001D72H   LINE      CODE     ---       #206
      ---         BLOCKEND  ---      ---       LVL=0

LX51 LINKER/LOCATER V4.66.87.0                                                        05/29/2018  21:11:03  PAGE 207


      010067EAH   BLOCK     CODE     ---       LVL=0
      02000015H   SYMBOL    XDATA    BYTE      what
      010067EAH   LINE      CODE     ---       #208
      010067EFH   LINE      CODE     ---       #209
      010067EFH   LINE      CODE     ---       #210
      010067F2H   LINE      CODE     ---       #211
      01006809H   LINE      CODE     ---       #212
      01006809H   LINE      CODE     ---       #213
      01006809H   LINE      CODE     ---       #214
      0100680BH   LINE      CODE     ---       #215
      0100680BH   LINE      CODE     ---       #216
      0100680DH   LINE      CODE     ---       #217
      0100680DH   LINE      CODE     ---       #218
      0100680DH   LINE      CODE     ---       #219
      0100680FH   LINE      CODE     ---       #220
      0100680FH   LINE      CODE     ---       #221
      01006811H   LINE      CODE     ---       #222
      01006811H   LINE      CODE     ---       #223
      01006811H   LINE      CODE     ---       #224
      01006816H   LINE      CODE     ---       #225
      0100681AH   LINE      CODE     ---       #226
      0100681AH   LINE      CODE     ---       #227
      0100681AH   LINE      CODE     ---       #228
      ---         BLOCKEND  ---      ---       LVL=0

      01006708H   BLOCK     CODE     ---       LVL=0
      00000007H   SYMBOL    DATA     BYTE      index
      01006708H   BLOCK     CODE     NEAR LAB  LVL=1
      02000014H   SYMBOL    XDATA    BYTE      i
      ---         BLOCKEND  ---      ---       LVL=1
      01006708H   LINE      CODE     ---       #231
      01006708H   LINE      CODE     ---       #232
      01006708H   LINE      CODE     ---       #234
      0100670FH   LINE      CODE     ---       #235
      01006712H   LINE      CODE     ---       #236
      01006719H   LINE      CODE     ---       #237
      0100671EH   LINE      CODE     ---       #238
      01006723H   LINE      CODE     ---       #239
      01006728H   LINE      CODE     ---       #240
      0100672DH   LINE      CODE     ---       #241
      01006732H   LINE      CODE     ---       #242
      ---         BLOCKEND  ---      ---       LVL=0

      01007C20H   BLOCK     CODE     ---       LVL=0
      02000013H   SYMBOL    XDATA    BYTE      index
      01007C25H   BLOCK     CODE     NEAR LAB  LVL=1
      00000007H   SYMBOL    DATA     BYTE      i
      ---         BLOCKEND  ---      ---       LVL=1
      01007C20H   LINE      CODE     ---       #245
      01007C25H   LINE      CODE     ---       #246
      01007C25H   LINE      CODE     ---       #248
      01007C27H   LINE      CODE     ---       #249
      01007C32H   LINE      CODE     ---       #250
      ---         BLOCKEND  ---      ---       LVL=0

      0100744EH   BLOCK     CODE     ---       LVL=0
      00000007H   SYMBOL    DATA     BYTE      from
      00000005H   SYMBOL    DATA     BYTE      to
      02000011H   SYMBOL    XDATA    BYTE      ev
      0100744EH   LINE      CODE     ---       #253
      01007453H   LINE      CODE     ---       #254
      01007453H   LINE      CODE     ---       #255
      0100745DH   LINE      CODE     ---       #256
      01007464H   LINE      CODE     ---       #258
      0100746BH   LINE      CODE     ---       #259
LX51 LINKER/LOCATER V4.66.87.0                                                        05/29/2018  21:11:03  PAGE 208


      01007471H   LINE      CODE     ---       #260
      01007471H   LINE      CODE     ---       #261
      ---         BLOCKEND  ---      ---       LVL=0

      01004E6DH   BLOCK     CODE     ---       LVL=0
      02000013H   SYMBOL    XDATA    BYTE      what
      02000014H   SYMBOL    XDATA    BYTE      ev
      01004E6DH   LINE      CODE     ---       #263
      01004E75H   LINE      CODE     ---       #264
      01004E75H   LINE      CODE     ---       #265
      01004E78H   LINE      CODE     ---       #266
      01004E80H   LINE      CODE     ---       #268
      01004E80H   LINE      CODE     ---       #270
      01004E87H   LINE      CODE     ---       #271
      01004E8FH   LINE      CODE     ---       #272
      01004E97H   LINE      CODE     ---       #274
      01004E97H   LINE      CODE     ---       #276
      01004E9FH   LINE      CODE     ---       #277
      01004EA6H   LINE      CODE     ---       #278
      01004EAEH   LINE      CODE     ---       #279
      01004EB6H   LINE      CODE     ---       #280
      01004EB6H   LINE      CODE     ---       #281
      01004EBCH   LINE      CODE     ---       #282
      01004EC3H   LINE      CODE     ---       #284
      01004EC3H   LINE      CODE     ---       #286
      01004ECAH   LINE      CODE     ---       #287
      01004ED2H   LINE      CODE     ---       #288
      01004ED7H   LINE      CODE     ---       #290
      01004ED7H   LINE      CODE     ---       #291
      ---         BLOCKEND  ---      ---       LVL=0

      0100605FH   BLOCK     CODE     ---       LVL=0
      02000011H   SYMBOL    XDATA    BYTE      from
      00000005H   SYMBOL    DATA     BYTE      to
      02000012H   SYMBOL    XDATA    BYTE      ev
      0100605FH   LINE      CODE     ---       #294
      01006067H   LINE      CODE     ---       #295
      01006067H   LINE      CODE     ---       #296
      01006071H   LINE      CODE     ---       #297
      0100608FH   LINE      CODE     ---       #298
      0100608FH   LINE      CODE     ---       #299
      01006095H   LINE      CODE     ---       #300
      01006095H   LINE      CODE     ---       #301
      0100609BH   LINE      CODE     ---       #302
      0100609EH   LINE      CODE     ---       #303
      ---         BLOCKEND  ---      ---       LVL=0

      01007A3AH   BLOCK     CODE     ---       LVL=0
      00000007H   SYMBOL    DATA     BYTE      from
      00000005H   SYMBOL    DATA     BYTE      to
      02000011H   SYMBOL    XDATA    BYTE      ev
      01007A3AH   LINE      CODE     ---       #306
      01007A40H   LINE      CODE     ---       #307
      01007A40H   LINE      CODE     ---       #308
      01007A4CH   LINE      CODE     ---       #309
      ---         BLOCKEND  ---      ---       LVL=0

      01007A56H   BLOCK     CODE     ---       LVL=0
      00000007H   SYMBOL    DATA     BYTE      from
      00000005H   SYMBOL    DATA     BYTE      to
      02000011H   SYMBOL    XDATA    BYTE      ev
      01007A56H   LINE      CODE     ---       #312
      01007A5CH   LINE      CODE     ---       #313
      01007A5CH   LINE      CODE     ---       #314
      01007A68H   LINE      CODE     ---       #315
LX51 LINKER/LOCATER V4.66.87.0                                                        05/29/2018  21:11:03  PAGE 209


      ---         BLOCKEND  ---      ---       LVL=0

      01007A72H   BLOCK     CODE     ---       LVL=0
      00000007H   SYMBOL    DATA     BYTE      from
      00000005H   SYMBOL    DATA     BYTE      to
      02000011H   SYMBOL    XDATA    BYTE      ev
      01007A72H   LINE      CODE     ---       #318
      01007A78H   LINE      CODE     ---       #319
      01007A78H   LINE      CODE     ---       #320
      01007A84H   LINE      CODE     ---       #321
      ---         BLOCKEND  ---      ---       LVL=0

      01007A8EH   BLOCK     CODE     ---       LVL=0
      00000007H   SYMBOL    DATA     BYTE      from
      00000005H   SYMBOL    DATA     BYTE      to
      02000011H   SYMBOL    XDATA    BYTE      ev
      01007A8EH   LINE      CODE     ---       #324
      01007A94H   LINE      CODE     ---       #325
      01007A94H   LINE      CODE     ---       #326
      01007AA0H   LINE      CODE     ---       #327
      ---         BLOCKEND  ---      ---       LVL=0

      01007AAAH   BLOCK     CODE     ---       LVL=0
      00000007H   SYMBOL    DATA     BYTE      from
      00000005H   SYMBOL    DATA     BYTE      to
      02000011H   SYMBOL    XDATA    BYTE      ev
      01007AAAH   LINE      CODE     ---       #330
      01007AB0H   LINE      CODE     ---       #331
      01007AB0H   LINE      CODE     ---       #332
      01007ABCH   LINE      CODE     ---       #333
      ---         BLOCKEND  ---      ---       LVL=0

      0100417CH   BLOCK     CODE     ---       LVL=0
      02000011H   SYMBOL    XDATA    BYTE      from
      00000005H   SYMBOL    DATA     BYTE      to
      02000012H   SYMBOL    XDATA    BYTE      ev
      0100417CH   LINE      CODE     ---       #336
      01004185H   LINE      CODE     ---       #337
      01004185H   LINE      CODE     ---       #338
      01004191H   LINE      CODE     ---       #341
      01004199H   LINE      CODE     ---       #342
      010041A3H   LINE      CODE     ---       #343
      010041ACH   LINE      CODE     ---       #344
      010041AFH   LINE      CODE     ---       #345
      010041B1H   LINE      CODE     ---       #346
      010041B8H   LINE      CODE     ---       #348
      010041B8H   LINE      CODE     ---       #349
      010041B8H   LINE      CODE     ---       #350
      010041BEH   LINE      CODE     ---       #352
      010041BEH   LINE      CODE     ---       #354
      010041C5H   LINE      CODE     ---       #355
      010041CBH   LINE      CODE     ---       #356
      010041D1H   LINE      CODE     ---       #358
      010041D1H   LINE      CODE     ---       #360
      010041D9H   LINE      CODE     ---       #361
      010041E0H   LINE      CODE     ---       #362
      010041E6H   LINE      CODE     ---       #363
      010041ECH   LINE      CODE     ---       #364
      010041ECH   LINE      CODE     ---       #365
      010041F2H   LINE      CODE     ---       #366
      010041F9H   LINE      CODE     ---       #368
      010041F9H   LINE      CODE     ---       #370
      01004200H   LINE      CODE     ---       #371
      01004206H   LINE      CODE     ---       #372
      0100420BH   LINE      CODE     ---       #374
LX51 LINKER/LOCATER V4.66.87.0                                                        05/29/2018  21:11:03  PAGE 210


      0100420BH   LINE      CODE     ---       #375
      ---         BLOCKEND  ---      ---       LVL=0

      ---         MODULE    ---      ---       SM_FUSE_TIMER
      0100AE73H   PUBLIC    CONST    ---       sm_fuse_timer_ss_name
      01007AC6H   PUBLIC    CODE     ---       _sm_fuse_timer_submod4
      01007247H   PUBLIC    CODE     ---       _sm_fuse_timer_submod3
      01003219H   PUBLIC    CODE     ---       _sm_fuse_timer_submod2
      01005935H   PUBLIC    CODE     ---       _sm_fuse_timer_submod1
      01002914H   PUBLIC    CODE     ---       _sm_fuse_timer_submod0
      010078B1H   PUBLIC    CODE     ---       _sm_fuse_timer_init
      010064BEH   SYMBOL    CODE     ---       _display_timer
      010084A2H   SYMBOL    CODE     ---       inc_password
      01006C55H   SYMBOL    CODE     ---       roll_back
      010038CEH   SYMBOL    CODE     ---       _check_and_set
      01006C85H   SYMBOL    CODE     ---       display_password
      01003B7BH   SYMBOL    CODE     ---       _display_prearm
      01004BDEH   SYMBOL    CODE     ---       verify_password

      01006DFBH   BLOCK     CODE     ---       LVL=0
      ---         BLOCKEND  ---      ---       LVL=0

      010038CEH   BLOCK     CODE     ---       LVL=0
      00000007H   SYMBOL    DATA     BYTE      step
      010038CEH   BLOCK     CODE     NEAR LAB  LVL=1
      02000013H   SYMBOL    XDATA    BYTE      ret
      02000014H   SYMBOL    XDATA    BYTE      val
      00000007H   SYMBOL    DATA     BYTE      val1
      ---         BLOCKEND  ---      ---       LVL=1
      010038CEH   LINE      CODE     ---       #64
      010038CEH   LINE      CODE     ---       #65
      010038CEH   LINE      CODE     ---       #66
      010038D3H   LINE      CODE     ---       #68
      010038E7H   LINE      CODE     ---       #69
      010038E7H   LINE      CODE     ---       #70
      010038ECH   LINE      CODE     ---       #71
      010038EFH   LINE      CODE     ---       #72
      010038EFH   LINE      CODE     ---       #73
      010038F4H   LINE      CODE     ---       #74
      010038FEH   LINE      CODE     ---       #75
      01003900H   LINE      CODE     ---       #76
      01003900H   LINE      CODE     ---       #77
      01003905H   LINE      CODE     ---       #78
      01003911H   LINE      CODE     ---       #79
      01003913H   LINE      CODE     ---       #80
      01003913H   LINE      CODE     ---       #81
      0100391DH   LINE      CODE     ---       #82
      01003922H   LINE      CODE     ---       #83
      0100392FH   LINE      CODE     ---       #84
      01003939H   LINE      CODE     ---       #85
      01003949H   LINE      CODE     ---       #86
      0100394FH   LINE      CODE     ---       #87
      01003951H   LINE      CODE     ---       #88
      01003951H   LINE      CODE     ---       #89
      01003951H   LINE      CODE     ---       #90
      01003956H   LINE      CODE     ---       #91
      01003956H   LINE      CODE     ---       #92
      01003958H   LINE      CODE     ---       #93
      01003958H   LINE      CODE     ---       #94
      0100395BH   LINE      CODE     ---       #95
      0100395EH   LINE      CODE     ---       #96
      01003965H   LINE      CODE     ---       #97
      0100396BH   LINE      CODE     ---       #98
      0100396DH   LINE      CODE     ---       #99
      0100396DH   LINE      CODE     ---       #100
LX51 LINKER/LOCATER V4.66.87.0                                                        05/29/2018  21:11:03  PAGE 211


      01003970H   LINE      CODE     ---       #101
      01003970H   LINE      CODE     ---       #102
      01003970H   LINE      CODE     ---       #103
      01003970H   LINE      CODE     ---       #104
      01003970H   LINE      CODE     ---       #105
      01003970H   LINE      CODE     ---       #106
      01003970H   LINE      CODE     ---       #107
      01003970H   LINE      CODE     ---       #108
      01003975H   LINE      CODE     ---       #109
      ---         BLOCKEND  ---      ---       LVL=0

      01006C55H   BLOCK     CODE     ---       LVL=0
      00000020H.0 SYMBOL    BIT      BIT       include_fuse
      01006C55H   LINE      CODE     ---       #111
      01006C55H   LINE      CODE     ---       #112
      01006C55H   LINE      CODE     ---       #113
      01006C6AH   LINE      CODE     ---       #114
      01006C6FH   LINE      CODE     ---       #115
      01006C74H   LINE      CODE     ---       #116
      01006C79H   LINE      CODE     ---       #117
      01006C7CH   LINE      CODE     ---       #118
      01006C7FH   LINE      CODE     ---       #119
      01006C84H   LINE      CODE     ---       #120
      01006C84H   LINE      CODE     ---       #121
      ---         BLOCKEND  ---      ---       LVL=0

      01003B7BH   BLOCK     CODE     ---       LVL=0
      02000013H   SYMBOL    XDATA    BYTE      step
      02000014H   SYMBOL    XDATA    BYTE      err
      01003B7BH   LINE      CODE     ---       #133
      01003B83H   LINE      CODE     ---       #134
      01003B83H   LINE      CODE     ---       #135
      01003B86H   LINE      CODE     ---       #137
      01003BAAH   LINE      CODE     ---       #138
      01003BAAH   LINE      CODE     ---       #139
      01003BACH   LINE      CODE     ---       #140
      01003BACH   LINE      CODE     ---       #141
      01003BAEH   LINE      CODE     ---       #142
      01003BAEH   LINE      CODE     ---       #143
      01003BB5H   LINE      CODE     ---       #144
      01003BB7H   LINE      CODE     ---       #145
      01003BB9H   LINE      CODE     ---       #146
      01003BB9H   LINE      CODE     ---       #147
      01003BC0H   LINE      CODE     ---       #148
      01003BC1H   LINE      CODE     ---       #149
      01003BC3H   LINE      CODE     ---       #150
      01003BC3H   LINE      CODE     ---       #151
      01003BCAH   LINE      CODE     ---       #152
      01003BCCH   LINE      CODE     ---       #153
      01003BCEH   LINE      CODE     ---       #154
      01003BCEH   LINE      CODE     ---       #155
      01003BD5H   LINE      CODE     ---       #156
      01003BD7H   LINE      CODE     ---       #157
      01003BD9H   LINE      CODE     ---       #158
      01003BD9H   LINE      CODE     ---       #159
      01003BD9H   LINE      CODE     ---       #160
      01003BD9H   LINE      CODE     ---       #161
      01003BE6H   LINE      CODE     ---       #162
      01003BF6H   LINE      CODE     ---       #163
      01003BF6H   LINE      CODE     ---       #164
      01003BFDH   LINE      CODE     ---       #165
      01003BFFH   LINE      CODE     ---       #166
      01003C07H   LINE      CODE     ---       #167
      01003C14H   LINE      CODE     ---       #168
      ---         BLOCKEND  ---      ---       LVL=0
LX51 LINKER/LOCATER V4.66.87.0                                                        05/29/2018  21:11:03  PAGE 212



      010064BEH   BLOCK     CODE     ---       LVL=0
      02000012H   SYMBOL    XDATA    BYTE      what
      010064BEH   LINE      CODE     ---       #170
      010064C3H   LINE      CODE     ---       #171
      010064C3H   LINE      CODE     ---       #172
      010064C6H   LINE      CODE     ---       #173
      010064CDH   LINE      CODE     ---       #174
      010064D4H   LINE      CODE     ---       #175
      010064DBH   LINE      CODE     ---       #176
      010064E5H   LINE      CODE     ---       #177
      010064E5H   LINE      CODE     ---       #178
      010064E7H   LINE      CODE     ---       #179
      010064E7H   LINE      CODE     ---       #180
      010064E7H   LINE      CODE     ---       #181
      010064E9H   LINE      CODE     ---       #182
      010064E9H   LINE      CODE     ---       #183
      010064F0H   LINE      CODE     ---       #184
      010064F5H   LINE      CODE     ---       #185
      010064FAH   LINE      CODE     ---       #186
      010064FAH   LINE      CODE     ---       #187
      010064FAH   LINE      CODE     ---       #188
      ---         BLOCKEND  ---      ---       LVL=0

      01004BDEH   BLOCK     CODE     ---       LVL=0
      01004BDEH   BLOCK     CODE     NEAR LAB  LVL=1
      02000013H   SYMBOL    XDATA    BYTE      res
      ---         BLOCKEND  ---      ---       LVL=1
      01004BDEH   LINE      CODE     ---       #190
      01004BDEH   LINE      CODE     ---       #191
      01004BDEH   LINE      CODE     ---       #194
      01004BEEH   LINE      CODE     ---       #196
      01004C0AH   LINE      CODE     ---       #198
      01004C12H   LINE      CODE     ---       #199
      01004C22H   LINE      CODE     ---       #200
      01004C31H   LINE      CODE     ---       #201
      01004C33H   LINE      CODE     ---       #202
      01004C4EH   LINE      CODE     ---       #203
      01004C4EH   LINE      CODE     ---       #205
      ---         BLOCKEND  ---      ---       LVL=0

      01006C85H   BLOCK     CODE     ---       LVL=0
      01006C85H   BLOCK     CODE     NEAR LAB  LVL=1
      00000004H   SYMBOL    DATA     BYTE      i
      ---         BLOCKEND  ---      ---       LVL=1
      01006C85H   LINE      CODE     ---       #207
      01006C85H   LINE      CODE     ---       #208
      01006C85H   LINE      CODE     ---       #210
      01006C88H   LINE      CODE     ---       #211
      01006C8AH   LINE      CODE     ---       #212
      01006C94H   LINE      CODE     ---       #213
      01006C98H   LINE      CODE     ---       #214
      01006C9EH   LINE      CODE     ---       #215
      01006CA6H   LINE      CODE     ---       #216
      01006CA8H   LINE      CODE     ---       #217
      01006CAFH   LINE      CODE     ---       #218
      01006CAFH   LINE      CODE     ---       #219
      01006CB4H   LINE      CODE     ---       #220
      ---         BLOCKEND  ---      ---       LVL=0

      010084A2H   BLOCK     CODE     ---       LVL=0
      010084A2H   LINE      CODE     ---       #222
      010084A2H   LINE      CODE     ---       #223
      010084A2H   LINE      CODE     ---       #224
      010084AFH   LINE      CODE     ---       #225
LX51 LINKER/LOCATER V4.66.87.0                                                        05/29/2018  21:11:03  PAGE 213


      ---         BLOCKEND  ---      ---       LVL=0

      010078B1H   BLOCK     CODE     ---       LVL=0
      00000007H   SYMBOL    DATA     BYTE      from
      00000005H   SYMBOL    DATA     BYTE      to
      00000006H   SYMBOL    DATA     BYTE      ev
      010078B1H   LINE      CODE     ---       #227
      010078B3H   LINE      CODE     ---       #228
      010078B3H   LINE      CODE     ---       #229
      010078BFH   LINE      CODE     ---       #230
      010078C6H   LINE      CODE     ---       #231
      010078CBH   LINE      CODE     ---       #232
      010078CDH   LINE      CODE     ---       #233
      ---         BLOCKEND  ---      ---       LVL=0

      01002914H   BLOCK     CODE     ---       LVL=0
      00000007H   SYMBOL    DATA     BYTE      from
      00000005H   SYMBOL    DATA     BYTE      to
      02000011H   SYMBOL    XDATA    BYTE      ev
      01002919H   BLOCK     CODE     NEAR LAB  LVL=1
      02000012H   SYMBOL    XDATA    BYTE      err
      ---         BLOCKEND  ---      ---       LVL=1
      01002914H   LINE      CODE     ---       #236
      01002919H   LINE      CODE     ---       #237
      01002919H   LINE      CODE     ---       #239
      01002923H   LINE      CODE     ---       #241
      0100292AH   LINE      CODE     ---       #242
      0100292DH   LINE      CODE     ---       #243
      01002931H   LINE      CODE     ---       #244
      01002933H   LINE      CODE     ---       #245
      01002938H   LINE      CODE     ---       #247
      01002938H   LINE      CODE     ---       #249
      01002943H   LINE      CODE     ---       #250
      0100294DH   LINE      CODE     ---       #251
      01002956H   LINE      CODE     ---       #252
      0100295EH   LINE      CODE     ---       #253
      01002964H   LINE      CODE     ---       #254
      01002964H   LINE      CODE     ---       #255
      01002964H   LINE      CODE     ---       #256
      01002967H   LINE      CODE     ---       #258
      01002967H   LINE      CODE     ---       #259
      0100296DH   LINE      CODE     ---       #260
      0100296EH   LINE      CODE     ---       #261
      01002974H   LINE      CODE     ---       #262
      01002975H   LINE      CODE     ---       #264
      01002975H   LINE      CODE     ---       #266
      010029A4H   LINE      CODE     ---       #268
      010029A4H   LINE      CODE     ---       #269
      010029C4H   LINE      CODE     ---       #270
      010029C4H   LINE      CODE     ---       #271
      010029CCH   LINE      CODE     ---       #272
      010029D4H   LINE      CODE     ---       #273
      010029DCH   LINE      CODE     ---       #274
      010029E4H   LINE      CODE     ---       #275
      010029ECH   LINE      CODE     ---       #276
      010029F4H   LINE      CODE     ---       #277
      010029FCH   LINE      CODE     ---       #278
      01002A02H   LINE      CODE     ---       #279
      01002A02H   LINE      CODE     ---       #280
      01002A0FH   LINE      CODE     ---       #281
      01002A11H   LINE      CODE     ---       #282
      01002A16H   LINE      CODE     ---       #283
      01002A19H   LINE      CODE     ---       #285
      01002A19H   LINE      CODE     ---       #286
      ---         BLOCKEND  ---      ---       LVL=0
LX51 LINKER/LOCATER V4.66.87.0                                                        05/29/2018  21:11:03  PAGE 214



      01005935H   BLOCK     CODE     ---       LVL=0
      02000011H   SYMBOL    XDATA    BYTE      from
      00000005H   SYMBOL    DATA     BYTE      to
      02000012H   SYMBOL    XDATA    BYTE      ev
      01005935H   LINE      CODE     ---       #289
      0100593DH   LINE      CODE     ---       #290
      0100593DH   LINE      CODE     ---       #291
      01005947H   LINE      CODE     ---       #293
      01005954H   LINE      CODE     ---       #294
      01005959H   LINE      CODE     ---       #296
      01005963H   LINE      CODE     ---       #297
      01005968H   LINE      CODE     ---       #298
      01005968H   LINE      CODE     ---       #299
      0100596AH   LINE      CODE     ---       #301
      0100596AH   LINE      CODE     ---       #303
      01005971H   LINE      CODE     ---       #304
      01005974H   LINE      CODE     ---       #306
      01005974H   LINE      CODE     ---       #308
      0100597BH   LINE      CODE     ---       #309
      0100597EH   LINE      CODE     ---       #310
      01005981H   LINE      CODE     ---       #312
      01005981H   LINE      CODE     ---       #314
      01005988H   LINE      CODE     ---       #315
      0100598BH   LINE      CODE     ---       #317
      0100598BH   LINE      CODE     ---       #318
      ---         BLOCKEND  ---      ---       LVL=0

      01003219H   BLOCK     CODE     ---       LVL=0
      02000011H   SYMBOL    XDATA    BYTE      from
      00000005H   SYMBOL    DATA     BYTE      to
      02000012H   SYMBOL    XDATA    BYTE      ev
      01003219H   LINE      CODE     ---       #321
      01003222H   LINE      CODE     ---       #322
      01003222H   LINE      CODE     ---       #323
      0100322EH   LINE      CODE     ---       #324
      01003239H   LINE      CODE     ---       #326
      01003243H   LINE      CODE     ---       #327
      01003249H   LINE      CODE     ---       #328
      0100324EH   LINE      CODE     ---       #329
      01003255H   LINE      CODE     ---       #330
      0100325AH   LINE      CODE     ---       #331
      0100325AH   LINE      CODE     ---       #332
      01003266H   LINE      CODE     ---       #334
      0100326FH   LINE      CODE     ---       #335
      01003272H   LINE      CODE     ---       #336
      01003277H   LINE      CODE     ---       #337
      0100327DH   LINE      CODE     ---       #338
      01003280H   LINE      CODE     ---       #339
      01003280H   LINE      CODE     ---       #343
      01003283H   LINE      CODE     ---       #344
      0100328DH   LINE      CODE     ---       #345
      01003296H   LINE      CODE     ---       #346
      01003299H   LINE      CODE     ---       #347
      010032A4H   LINE      CODE     ---       #348
      010032ADH   LINE      CODE     ---       #349
      010032B3H   LINE      CODE     ---       #350
      010032B4H   LINE      CODE     ---       #351
      010032BBH   LINE      CODE     ---       #352
      010032CBH   LINE      CODE     ---       #353
      010032D1H   LINE      CODE     ---       #354
      010032D1H   LINE      CODE     ---       #355
      010032D1H   LINE      CODE     ---       #356
      010032D2H   LINE      CODE     ---       #358
      010032D2H   LINE      CODE     ---       #360
LX51 LINKER/LOCATER V4.66.87.0                                                        05/29/2018  21:11:03  PAGE 215


      010032D9H   LINE      CODE     ---       #361
      010032DCH   LINE      CODE     ---       #362
      010032DFH   LINE      CODE     ---       #364
      010032DFH   LINE      CODE     ---       #366
      010032DFH   LINE      CODE     ---       #369
      010032DFH   LINE      CODE     ---       #370
      ---         BLOCKEND  ---      ---       LVL=0

      01007247H   BLOCK     CODE     ---       LVL=0
      00000007H   SYMBOL    DATA     BYTE      from
      00000005H   SYMBOL    DATA     BYTE      to
      02000011H   SYMBOL    XDATA    BYTE      ev
      01007247H   LINE      CODE     ---       #373
      0100724DH   LINE      CODE     ---       #374
      0100724DH   LINE      CODE     ---       #375
      01007259H   LINE      CODE     ---       #377
      01007260H   LINE      CODE     ---       #378
      01007265H   LINE      CODE     ---       #379
      01007268H   LINE      CODE     ---       #380
      0100726DH   LINE      CODE     ---       #382
      0100726DH   LINE      CODE     ---       #384
      ---         BLOCKEND  ---      ---       LVL=0

      01007AC6H   BLOCK     CODE     ---       LVL=0
      00000007H   SYMBOL    DATA     BYTE      from
      00000005H   SYMBOL    DATA     BYTE      to
      00000006H   SYMBOL    DATA     BYTE      ev
      01007AC6H   LINE      CODE     ---       #387
      01007AC8H   LINE      CODE     ---       #388
      01007AC8H   LINE      CODE     ---       #389
      01007AD4H   LINE      CODE     ---       #390
      01007AD9H   LINE      CODE     ---       #391
      01007ADEH   LINE      CODE     ---       #392
      01007AE1H   LINE      CODE     ---       #393
      ---         BLOCKEND  ---      ---       LVL=0

      ---         MODULE    ---      ---       SM_FUSE_DETONATE
      0100C708H   PUBLIC    CONST    ---       sm_fuse_detonate_ss_name
      01005389H   PUBLIC    CODE     ---       _sm_fuse_detonate_submod0
      010083CCH   PUBLIC    CODE     ---       _sm_fuse_detonate_init
      01007E2FH   SYMBOL    CODE     ---       display_detonate

      010084B0H   BLOCK     CODE     ---       LVL=0
      ---         BLOCKEND  ---      ---       LVL=0

      01007E2FH   BLOCK     CODE     ---       LVL=0
      01007E2FH   BLOCK     CODE     NEAR LAB  LVL=1
      00000004H   SYMBOL    DATA     BYTE      i
      ---         BLOCKEND  ---      ---       LVL=1
      01007E2FH   LINE      CODE     ---       #17
      01007E2FH   LINE      CODE     ---       #18
      01007E2FH   LINE      CODE     ---       #20
      01007E32H   LINE      CODE     ---       #21
      01007E34H   LINE      CODE     ---       #22
      01007E3BH   LINE      CODE     ---       #23
      01007E40H   LINE      CODE     ---       #24
      01007E45H   LINE      CODE     ---       #25
      ---         BLOCKEND  ---      ---       LVL=0

      010083CCH   BLOCK     CODE     ---       LVL=0
      00000007H   SYMBOL    DATA     BYTE      from
      00000005H   SYMBOL    DATA     BYTE      to
      00000006H   SYMBOL    DATA     BYTE      ev
      010083CCH   LINE      CODE     ---       #27
      010083CEH   LINE      CODE     ---       #28
LX51 LINKER/LOCATER V4.66.87.0                                                        05/29/2018  21:11:03  PAGE 216


      010083CEH   LINE      CODE     ---       #29
      010083D8H   LINE      CODE     ---       #30
      ---         BLOCKEND  ---      ---       LVL=0

      01005389H   BLOCK     CODE     ---       LVL=0
      00000007H   SYMBOL    DATA     BYTE      from
      00000005H   SYMBOL    DATA     BYTE      to
      02000011H   SYMBOL    XDATA    BYTE      ev
      01005389H   LINE      CODE     ---       #34
      0100538FH   LINE      CODE     ---       #35
      0100538FH   LINE      CODE     ---       #36
      01005399H   LINE      CODE     ---       #38
      0100539FH   LINE      CODE     ---       #39
      010053A4H   LINE      CODE     ---       #40
      010053AAH   LINE      CODE     ---       #42
      010053AAH   LINE      CODE     ---       #44
      010053BDH   LINE      CODE     ---       #45
      010053C7H   LINE      CODE     ---       #46
      010053CCH   LINE      CODE     ---       #48
      010053CFH   LINE      CODE     ---       #49
      010053D8H   LINE      CODE     ---       #50
      010053DDH   LINE      CODE     ---       #51
      010053E2H   LINE      CODE     ---       #52
      010053E8H   LINE      CODE     ---       #53
      010053E8H   LINE      CODE     ---       #55
      010053E8H   LINE      CODE     ---       #56
      ---         BLOCKEND  ---      ---       LVL=0

      ---         MODULE    ---      ---       SM_FUSE_POWERSAVE
      0100C454H   PUBLIC    CONST    ---       sm_fuse_powersave_ss_name
      010080BDH   PUBLIC    CODE     ---       _sm_fuse_powersave_submod1
      0100778AH   PUBLIC    CODE     ---       _sm_fuse_powersave_submod0
      01008626H   PUBLIC    CODE     ---       _sm_fuse_powersave_init
      0100827CH   SYMBOL    CODE     ---       roll_back

      01008344H   BLOCK     CODE     ---       LVL=0
      ---         BLOCKEND  ---      ---       LVL=0

      0100827CH   BLOCK     CODE     ---       LVL=0
      0100827CH   LINE      CODE     ---       #18
      0100827CH   LINE      CODE     ---       #19
      0100827CH   LINE      CODE     ---       #20
      01008281H   LINE      CODE     ---       #21
      01008286H   LINE      CODE     ---       #22
      0100828BH   LINE      CODE     ---       #23
      ---         BLOCKEND  ---      ---       LVL=0

      01008626H   BLOCK     CODE     ---       LVL=0
      00000007H   SYMBOL    DATA     BYTE      from
      00000005H   SYMBOL    DATA     BYTE      to
      00000006H   SYMBOL    DATA     BYTE      ev
      01008626H   LINE      CODE     ---       #26
      01008626H   LINE      CODE     ---       #27
      01008626H   LINE      CODE     ---       #28
      ---         BLOCKEND  ---      ---       LVL=0

      0100778AH   BLOCK     CODE     ---       LVL=0
      00000007H   SYMBOL    DATA     BYTE      from
      00000005H   SYMBOL    DATA     BYTE      to
      02000011H   SYMBOL    XDATA    BYTE      ev
      0100778AH   LINE      CODE     ---       #31
      01007790H   LINE      CODE     ---       #32
      01007790H   LINE      CODE     ---       #33
      0100779CH   LINE      CODE     ---       #34
      010077A2H   LINE      CODE     ---       #36
LX51 LINKER/LOCATER V4.66.87.0                                                        05/29/2018  21:11:03  PAGE 217


      010077A5H   LINE      CODE     ---       #37
      010077A8H   LINE      CODE     ---       #39
      010077A8H   LINE      CODE     ---       #40
      ---         BLOCKEND  ---      ---       LVL=0

      010080BDH   BLOCK     CODE     ---       LVL=0
      00000007H   SYMBOL    DATA     BYTE      from
      00000005H   SYMBOL    DATA     BYTE      to
      00000006H   SYMBOL    DATA     BYTE      ev
      010080BDH   LINE      CODE     ---       #42
      010080BDH   LINE      CODE     ---       #43
      010080BDH   LINE      CODE     ---       #44
      010080C7H   LINE      CODE     ---       #45
      010080CAH   LINE      CODE     ---       #46
      010080D0H   LINE      CODE     ---       #47
      ---         BLOCKEND  ---      ---       LVL=0

      ---         MODULE    ---      ---       SM_GLOBAL_FLAG_MOD
      0100BEF0H   PUBLIC    CONST    ---       sm_global_flag_mod_ss_name
      01007AE2H   PUBLIC    CODE     ---       _sm_global_flag_mod_submod2
      01007CB7H   PUBLIC    CODE     ---       _sm_global_flag_mod_submod1
      01007C9EH   PUBLIC    CODE     ---       _sm_global_flag_mod_submod0
      01007FCCH   PUBLIC    CODE     ---       _sm_global_flag_mod_init
      0100598CH   SYMBOL    CODE     ---       _inc_write
      01002DE6H   SYMBOL    CODE     ---       _display_global_flag
      010070DFH   SYMBOL    CODE     ---       _sm_global_flag_mod

      010083DBH   BLOCK     CODE     ---       LVL=0
      ---         BLOCKEND  ---      ---       LVL=0

      01002DE6H   BLOCK     CODE     ---       LVL=0
      02000014H   SYMBOL    XDATA    BYTE      what
      01002DE6H   LINE      CODE     ---       #20
      01002DEBH   LINE      CODE     ---       #21
      01002DEBH   LINE      CODE     ---       #23
      01002DEEH   LINE      CODE     ---       #25
      01002DFFH   LINE      CODE     ---       #27
      01002E14H   LINE      CODE     ---       #28
      01002E14H   LINE      CODE     ---       #29
      01002E1BH   LINE      CODE     ---       #30
      01002E22H   LINE      CODE     ---       #31
      01002E28H   LINE      CODE     ---       #32
      01002E2FH   LINE      CODE     ---       #33
      01002E36H   LINE      CODE     ---       #34
      01002E36H   LINE      CODE     ---       #35
      01002E39H   LINE      CODE     ---       #36
      01002E49H   LINE      CODE     ---       #37
      01002E56H   LINE      CODE     ---       #38
      01002E56H   LINE      CODE     ---       #39
      01002E58H   LINE      CODE     ---       #40
      01002E58H   LINE      CODE     ---       #41
      01002E5FH   LINE      CODE     ---       #42
      01002E66H   LINE      CODE     ---       #43
      01002E6DH   LINE      CODE     ---       #44
      01002E72H   LINE      CODE     ---       #45
      01002E79H   LINE      CODE     ---       #46
      01002E80H   LINE      CODE     ---       #47
      01002E81H   LINE      CODE     ---       #48
      01002E83H   LINE      CODE     ---       #49
      01002E8AH   LINE      CODE     ---       #50
      01002E91H   LINE      CODE     ---       #51
      01002E91H   LINE      CODE     ---       #52
      01002E91H   LINE      CODE     ---       #53
      01002E93H   LINE      CODE     ---       #54
      01002E93H   LINE      CODE     ---       #55
LX51 LINKER/LOCATER V4.66.87.0                                                        05/29/2018  21:11:03  PAGE 218


      01002E9AH   LINE      CODE     ---       #56
      01002EA1H   LINE      CODE     ---       #57
      01002EA8H   LINE      CODE     ---       #58
      01002EADH   LINE      CODE     ---       #59
      01002EB4H   LINE      CODE     ---       #60
      01002EB6H   LINE      CODE     ---       #61
      01002EB8H   LINE      CODE     ---       #62
      01002EBFH   LINE      CODE     ---       #63
      01002EC5H   LINE      CODE     ---       #64
      01002EC5H   LINE      CODE     ---       #65
      01002EC5H   LINE      CODE     ---       #66
      01002EC5H   LINE      CODE     ---       #67
      ---         BLOCKEND  ---      ---       LVL=0

      0100598CH   BLOCK     CODE     ---       LVL=0
      00000007H   SYMBOL    DATA     BYTE      what
      0100598CH   LINE      CODE     ---       #69
      0100598CH   LINE      CODE     ---       #70
      0100598CH   LINE      CODE     ---       #71
      01005998H   LINE      CODE     ---       #72
      01005998H   LINE      CODE     ---       #73
      0100599BH   LINE      CODE     ---       #74
      010059A2H   LINE      CODE     ---       #75
      010059A4H   LINE      CODE     ---       #76
      010059A4H   LINE      CODE     ---       #77
      010059ADH   LINE      CODE     ---       #78
      010059B8H   LINE      CODE     ---       #79
      010059BAH   LINE      CODE     ---       #80
      010059BAH   LINE      CODE     ---       #81
      010059C3H   LINE      CODE     ---       #82
      010059C8H   LINE      CODE     ---       #83
      010059D1H   LINE      CODE     ---       #84
      010059D4H   LINE      CODE     ---       #85
      010059E2H   LINE      CODE     ---       #86
      010059E2H   LINE      CODE     ---       #87
      010059E2H   LINE      CODE     ---       #88
      ---         BLOCKEND  ---      ---       LVL=0

      01007FCCH   BLOCK     CODE     ---       LVL=0
      00000007H   SYMBOL    DATA     BYTE      from
      00000005H   SYMBOL    DATA     BYTE      to
      00000006H   SYMBOL    DATA     BYTE      ev
      01007FCCH   LINE      CODE     ---       #90
      01007FCEH   LINE      CODE     ---       #91
      01007FCEH   LINE      CODE     ---       #92
      01007FDAH   LINE      CODE     ---       #93
      ---         BLOCKEND  ---      ---       LVL=0

      010070DFH   BLOCK     CODE     ---       LVL=0
      02000012H   SYMBOL    XDATA    BYTE      what
      02000013H   SYMBOL    XDATA    BYTE      ev
      010070DFH   LINE      CODE     ---       #96
      010070E7H   LINE      CODE     ---       #97
      010070E7H   LINE      CODE     ---       #98
      010070EFH   LINE      CODE     ---       #99
      010070F1H   LINE      CODE     ---       #101
      010070F1H   LINE      CODE     ---       #103
      010070F8H   LINE      CODE     ---       #104
      01007100H   LINE      CODE     ---       #105
      01007108H   LINE      CODE     ---       #107
      01007108H   LINE      CODE     ---       #108
      ---         BLOCKEND  ---      ---       LVL=0

      01007C9EH   BLOCK     CODE     ---       LVL=0
      00000007H   SYMBOL    DATA     BYTE      from
LX51 LINKER/LOCATER V4.66.87.0                                                        05/29/2018  21:11:03  PAGE 219


      00000005H   SYMBOL    DATA     BYTE      to
      02000011H   SYMBOL    XDATA    BYTE      ev
      01007C9EH   LINE      CODE     ---       #110
      01007CA3H   LINE      CODE     ---       #111
      01007CA3H   LINE      CODE     ---       #112
      01007CADH   LINE      CODE     ---       #113
      ---         BLOCKEND  ---      ---       LVL=0

      01007CB7H   BLOCK     CODE     ---       LVL=0
      00000007H   SYMBOL    DATA     BYTE      from
      00000005H   SYMBOL    DATA     BYTE      to
      02000011H   SYMBOL    XDATA    BYTE      ev
      01007CB7H   LINE      CODE     ---       #116
      01007CBCH   LINE      CODE     ---       #117
      01007CBCH   LINE      CODE     ---       #118
      01007CC6H   LINE      CODE     ---       #119
      ---         BLOCKEND  ---      ---       LVL=0

      01007AE2H   BLOCK     CODE     ---       LVL=0
      00000007H   SYMBOL    DATA     BYTE      from
      00000005H   SYMBOL    DATA     BYTE      to
      02000011H   SYMBOL    XDATA    BYTE      ev
      01007AE2H   LINE      CODE     ---       #122
      01007AE8H   LINE      CODE     ---       #123
      01007AE8H   LINE      CODE     ---       #124
      01007AF4H   LINE      CODE     ---       #125
      ---         BLOCKEND  ---      ---       LVL=0

      ---         MODULE    ---      ---       CMD_HELP
      01005AE3H   PUBLIC    CODE     ---       _cmd_help

      010080D1H   BLOCK     CODE     ---       LVL=0
      ---         BLOCKEND  ---      ---       LVL=0

      01005AE3H   BLOCK     CODE     ---       LVL=0
      02000008H   SYMBOL    XDATA    CHAR      arg1
      02000009H   SYMBOL    XDATA    CHAR      arg2
      01005AE8H   BLOCK     CODE     NEAR LAB  LVL=1
      00000007H   SYMBOL    DATA     CHAR      i
      ---         BLOCKEND  ---      ---       LVL=1
      01005AE3H   LINE      CODE     ---       #6
      01005AE8H   LINE      CODE     ---       #7
      01005AE8H   LINE      CODE     ---       #10
      01005AE8H   LINE      CODE     ---       #12
      01005AEAH   LINE      CODE     ---       #13
      01005AEDH   LINE      CODE     ---       #14
      01005AEFH   LINE      CODE     ---       #15
      01005AF5H   LINE      CODE     ---       #16
      01005AF9H   LINE      CODE     ---       #17
      01005B20H   LINE      CODE     ---       #18
      01005B22H   LINE      CODE     ---       #19
      01005B34H   LINE      CODE     ---       #20
      01005B34H   LINE      CODE     ---       #21
      01005B34H   LINE      CODE     ---       #22
      01005B36H   LINE      CODE     ---       #23
      ---         BLOCKEND  ---      ---       LVL=0

      ---         MODULE    ---      ---       CMD_SERIAL
      01003AD5H   PUBLIC    CODE     ---       _cmd_serial

      010085DFH   BLOCK     CODE     ---       LVL=0
      ---         BLOCKEND  ---      ---       LVL=0

      01003AD5H   BLOCK     CODE     ---       LVL=0
      02000008H   SYMBOL    XDATA    CHAR      arg1
LX51 LINKER/LOCATER V4.66.87.0                                                        05/29/2018  21:11:03  PAGE 220


      02000009H   SYMBOL    XDATA    CHAR      arg2
      01003ADFH   BLOCK     CODE     NEAR LAB  LVL=1
      0200000AH   SYMBOL    XDATA    CHAR      index
      0200000BH   SYMBOL    XDATA    CHAR      val
      ---         BLOCKEND  ---      ---       LVL=1
      01003AD5H   LINE      CODE     ---       #8
      01003ADFH   LINE      CODE     ---       #9
      01003ADFH   LINE      CODE     ---       #12
      01003AE1H   LINE      CODE     ---       #13
      01003AE4H   LINE      CODE     ---       #14
      01003AE6H   LINE      CODE     ---       #15
      01003AF1H   LINE      CODE     ---       #16
      01003AF7H   LINE      CODE     ---       #17
      01003B12H   LINE      CODE     ---       #18
      01003B14H   LINE      CODE     ---       #19
      01003B27H   LINE      CODE     ---       #20
      01003B53H   LINE      CODE     ---       #21
      01003B61H   LINE      CODE     ---       #22
      01003B64H   LINE      CODE     ---       #23
      01003B64H   LINE      CODE     ---       #24
      01003B64H   LINE      CODE     ---       #25
      01003B66H   LINE      CODE     ---       #26
      ---         BLOCKEND  ---      ---       LVL=0

      ---         MODULE    ---      ---       CMD_INT
      01006741H   PUBLIC    CODE     ---       _cmd_int

      01006741H   BLOCK     CODE     ---       LVL=0
      02000008H   SYMBOL    XDATA    CHAR      arg1
      02000009H   SYMBOL    XDATA    CHAR      arg2
      01006746H   BLOCK     CODE     NEAR LAB  LVL=1
      00000006H   SYMBOL    DATA     WORD      status
      ---         BLOCKEND  ---      ---       LVL=1
      01006741H   LINE      CODE     ---       #7
      01006746H   LINE      CODE     ---       #8
      01006746H   LINE      CODE     ---       #11
      01006746H   LINE      CODE     ---       #13
      01006748H   LINE      CODE     ---       #14
      0100674BH   LINE      CODE     ---       #15
      0100676CH   LINE      CODE     ---       #16
      0100676FH   LINE      CODE     ---       #17
      01006772H   LINE      CODE     ---       #18
      01006774H   LINE      CODE     ---       #19
      01006777H   LINE      CODE     ---       #20
      01006777H   LINE      CODE     ---       #22
      01006779H   LINE      CODE     ---       #23
      ---         BLOCKEND  ---      ---       LVL=0

      ---         MODULE    ---      ---       CMD_I2C
      01006A9BH   PUBLIC    CODE     ---       _cmd_i2c
      010032E0H   SYMBOL    CODE     ---       _i2c_write
      020000E9H   SYMBOL    XDATA    BYTE      write_addr
      010043AEH   SYMBOL    CODE     ---       _i2c_read

      0100760BH   BLOCK     CODE     ---       LVL=0
      ---         BLOCKEND  ---      ---       LVL=0

      010043AEH   BLOCK     CODE     ---       LVL=0
      00000007H   SYMBOL    DATA     CHAR      arg1
      0200000AH   SYMBOL    XDATA    CHAR      arg2
      010043B3H   BLOCK     CODE     NEAR LAB  LVL=1
      0200000BH   SYMBOL    XDATA    BYTE      addr
      0200000CH   SYMBOL    XDATA    BYTE      cmd
      0200000DH   SYMBOL    XDATA    BYTE      val
      00000020H.0 SYMBOL    BIT      BIT       ret
LX51 LINKER/LOCATER V4.66.87.0                                                        05/29/2018  21:11:03  PAGE 221


      ---         BLOCKEND  ---      ---       LVL=1
      010043AEH   LINE      CODE     ---       #10
      010043B3H   LINE      CODE     ---       #11
      010043B3H   LINE      CODE     ---       #15
      010043B9H   LINE      CODE     ---       #16
      010043BCH   LINE      CODE     ---       #18
      010043C8H   LINE      CODE     ---       #19
      010043D6H   LINE      CODE     ---       #21
      010043E5H   LINE      CODE     ---       #22
      010043E8H   LINE      CODE     ---       #24
      010043EBH   LINE      CODE     ---       #25
      010043FEH   LINE      CODE     ---       #27
      01004434H   LINE      CODE     ---       #29
      01004436H   LINE      CODE     ---       #30
      ---         BLOCKEND  ---      ---       LVL=0

      010032E0H   BLOCK     CODE     ---       LVL=0
      0200000AH   SYMBOL    XDATA    CHAR      arg1
      0200000BH   SYMBOL    XDATA    CHAR      arg2
      010032EAH   BLOCK     CODE     NEAR LAB  LVL=1
      0200000CH   SYMBOL    XDATA    BYTE      addr
      0200000DH   SYMBOL    XDATA    BYTE      cmd
      0200000EH   SYMBOL    XDATA    BYTE      val
      00000020H.0 SYMBOL    BIT      BIT       ret
      ---         BLOCKEND  ---      ---       LVL=1
      010032E0H   LINE      CODE     ---       #32
      010032EAH   LINE      CODE     ---       #33
      010032EAH   LINE      CODE     ---       #37
      010032ECH   LINE      CODE     ---       #38
      010032EFH   LINE      CODE     ---       #41
      010032F5H   LINE      CODE     ---       #42
      01003300H   LINE      CODE     ---       #43
      01003305H   LINE      CODE     ---       #44
      01003308H   LINE      CODE     ---       #45
      01003308H   LINE      CODE     ---       #46
      01003321H   LINE      CODE     ---       #47
      01003329H   LINE      CODE     ---       #48
      0100332CH   LINE      CODE     ---       #49
      0100332CH   LINE      CODE     ---       #50
      0100332CH   LINE      CODE     ---       #53
      01003337H   LINE      CODE     ---       #54
      01003345H   LINE      CODE     ---       #56
      01003354H   LINE      CODE     ---       #57
      01003357H   LINE      CODE     ---       #59
      0100335AH   LINE      CODE     ---       #60
      0100336CH   LINE      CODE     ---       #61
      010033A2H   LINE      CODE     ---       #63
      010033A4H   LINE      CODE     ---       #64
      ---         BLOCKEND  ---      ---       LVL=0

      01006A9BH   BLOCK     CODE     ---       LVL=0
      02000008H   SYMBOL    XDATA    CHAR      arg1
      02000009H   SYMBOL    XDATA    CHAR      arg2
      01006A9BH   LINE      CODE     ---       #66
      01006AA3H   LINE      CODE     ---       #67
      01006AA3H   LINE      CODE     ---       #68
      01006AACH   LINE      CODE     ---       #69
      01006AB7H   LINE      CODE     ---       #70
      01006AC0H   LINE      CODE     ---       #71
      01006ACBH   LINE      CODE     ---       #72
      01006ACBH   LINE      CODE     ---       #73
      01006ACDH   LINE      CODE     ---       #74
      ---         BLOCKEND  ---      ---       LVL=0

      ---         MODULE    ---      ---       CMD_DBG
LX51 LINKER/LOCATER V4.66.87.0                                                        05/29/2018  21:11:03  PAGE 222


      010060F0H   PUBLIC    CODE     ---       _cmd_dbg

      01007D48H   BLOCK     CODE     ---       LVL=0
      ---         BLOCKEND  ---      ---       LVL=0

      010060F0H   BLOCK     CODE     ---       LVL=0
      02000008H   SYMBOL    XDATA    CHAR      arg1
      02000009H   SYMBOL    XDATA    CHAR      arg2
      010060F0H   LINE      CODE     ---       #8
      010060F5H   LINE      CODE     ---       #9
      010060F5H   LINE      CODE     ---       #11
      010060F5H   LINE      CODE     ---       #13
      010060F7H   LINE      CODE     ---       #14
      010060FAH   LINE      CODE     ---       #16
      01006107H   LINE      CODE     ---       #17
      01006110H   LINE      CODE     ---       #18
      01006112H   LINE      CODE     ---       #19
      01006121H   LINE      CODE     ---       #20
      0100612AH   LINE      CODE     ---       #21
      0100612FH   LINE      CODE     ---       #22
      01006131H   LINE      CODE     ---       #23
      01006134H   LINE      CODE     ---       #24
      01006134H   LINE      CODE     ---       #26
      01006136H   LINE      CODE     ---       #27
      ---         BLOCKEND  ---      ---       LVL=0

      ---         MODULE    ---      ---       CMD_REBOOT
      010061C0H   PUBLIC    CODE     ---       _cmd_reboot
      00000080H   SFRSYM    DATA     BYTE      P0
      00000090H   SFRSYM    DATA     BYTE      P1
      000000A0H   SFRSYM    DATA     BYTE      P2
      000000B0H   SFRSYM    DATA     BYTE      P3
      000000C0H   SFRSYM    DATA     BYTE      XICON
      000000B0H.4 SFRSYM    DATA     BIT       T0
      000000D0H.6 SFRSYM    DATA     BIT       AC
      000000E8H   SFRSYM    DATA     BYTE      P4
      000000B0H.5 SFRSYM    DATA     BIT       T1
      000000E6H   SFRSYM    DATA     BYTE      ISP_TRIG
      00000090H.0 SFRSYM    DATA     BIT       T2
      000000A8H.7 SFRSYM    DATA     BIT       EA
      000000A8H.6 SFRSYM    DATA     BIT       EC
      00000098H.7 SFRSYM    DATA     BIT       FE
      000000A8H   SFRSYM    DATA     BYTE      IE
      000000C8H.6 SFRSYM    DATA     BIT       EXF2
      000000B0H.7 SFRSYM    DATA     BIT       RD
      000000A8H.4 SFRSYM    DATA     BIT       ES
      000000B8H   SFRSYM    DATA     BYTE      IP
      00000098H.0 SFRSYM    DATA     BIT       RI
      000000B0H.2 SFRSYM    DATA     BIT       INT0
      000000D0H.7 SFRSYM    DATA     BIT       CY
      00000098H.1 SFRSYM    DATA     BIT       TI
      000000B0H.3 SFRSYM    DATA     BIT       INT1
      000000CBH   SFRSYM    DATA     BYTE      RCAP2H
      000000E5H   SFRSYM    DATA     BYTE      ISP_CMD
      000000B8H.4 SFRSYM    DATA     BIT       PS
      00000081H   SFRSYM    DATA     BYTE      SP
      00000090H.1 SFRSYM    DATA     BIT       T2EX
      000000D0H.2 SFRSYM    DATA     BIT       OV
      000000CAH   SFRSYM    DATA     BYTE      RCAP2L
      000000C8H.1 SFRSYM    DATA     BIT       C_T2
      000000B0H.6 SFRSYM    DATA     BIT       WR
      000000C8H.5 SFRSYM    DATA     BIT       RCLK
      000000C8H.4 SFRSYM    DATA     BIT       TCLK
      00000080H.0 SFRSYM    DATA     BIT       P00
      00000099H   SFRSYM    DATA     BYTE      SBUF
LX51 LINKER/LOCATER V4.66.87.0                                                        05/29/2018  21:11:03  PAGE 223


      00000087H   SFRSYM    DATA     BYTE      PCON
      00000090H.0 SFRSYM    DATA     BIT       P10
      00000080H.1 SFRSYM    DATA     BIT       P01
      000000A0H.0 SFRSYM    DATA     BIT       P20
      00000090H.1 SFRSYM    DATA     BIT       P11
      00000080H.2 SFRSYM    DATA     BIT       P02
      000000E3H   SFRSYM    DATA     BYTE      ISP_ADDRH
      000000B0H.0 SFRSYM    DATA     BIT       P30
      000000A0H.1 SFRSYM    DATA     BIT       P21
      00000090H.2 SFRSYM    DATA     BIT       P12
      00000080H.3 SFRSYM    DATA     BIT       P03
      00000098H   SFRSYM    DATA     BYTE      SCON
      000000B0H.1 SFRSYM    DATA     BIT       P31
      000000A0H.2 SFRSYM    DATA     BIT       P22
      00000090H.3 SFRSYM    DATA     BIT       P13
      00000080H.4 SFRSYM    DATA     BIT       P04
      000000E8H.0 SFRSYM    DATA     BIT       P40
      00000089H   SFRSYM    DATA     BYTE      TMOD
      00000088H   SFRSYM    DATA     BYTE      TCON
      000000B0H.2 SFRSYM    DATA     BIT       P32
      000000A0H.3 SFRSYM    DATA     BIT       P23
      00000090H.4 SFRSYM    DATA     BIT       P14
      00000080H.5 SFRSYM    DATA     BIT       P05
      000000E8H.1 SFRSYM    DATA     BIT       P41
      000000B0H.3 SFRSYM    DATA     BIT       P33
      000000A0H.4 SFRSYM    DATA     BIT       P24
      00000090H.5 SFRSYM    DATA     BIT       P15
      00000080H.6 SFRSYM    DATA     BIT       P06
      000000E4H   SFRSYM    DATA     BYTE      ISP_ADDRL
      000000E8H.2 SFRSYM    DATA     BIT       P42
      000000B0H.4 SFRSYM    DATA     BIT       P34
      000000A0H.5 SFRSYM    DATA     BIT       P25
      00000090H.6 SFRSYM    DATA     BIT       P16
      00000080H.7 SFRSYM    DATA     BIT       P07
      000000E8H.3 SFRSYM    DATA     BIT       P43
      000000B0H.5 SFRSYM    DATA     BIT       P35
      000000A0H.6 SFRSYM    DATA     BIT       P26
      00000090H.7 SFRSYM    DATA     BIT       P17
      000000E8H.4 SFRSYM    DATA     BIT       P44
      000000B0H.6 SFRSYM    DATA     BIT       P36
      000000A0H.7 SFRSYM    DATA     BIT       P27
      000000E8H.5 SFRSYM    DATA     BIT       P45
      000000B0H.7 SFRSYM    DATA     BIT       P37
      000000E8H.6 SFRSYM    DATA     BIT       P46
      00000088H.1 SFRSYM    DATA     BIT       IE0
      00000088H.3 SFRSYM    DATA     BIT       IE1
      0000008EH   SFRSYM    DATA     BYTE      AUXR
      000000F0H   SFRSYM    DATA     BYTE      B
      000000C8H.0 SFRSYM    DATA     BIT       CP_RL2
      000000E0H   SFRSYM    DATA     BYTE      ACC
      000000A8H.1 SFRSYM    DATA     BIT       ET0
      000000A8H.3 SFRSYM    DATA     BIT       ET1
      00000088H.5 SFRSYM    DATA     BIT       TF0
      000000A8H.5 SFRSYM    DATA     BIT       ET2
      00000088H.7 SFRSYM    DATA     BIT       TF1
      000000C8H.7 SFRSYM    DATA     BIT       TF2
      00000098H.2 SFRSYM    DATA     BIT       RB8
      0000008CH   SFRSYM    DATA     BYTE      TH0
      000000A8H.0 SFRSYM    DATA     BIT       EX0
      00000088H.0 SFRSYM    DATA     BIT       IT0
      0000008DH   SFRSYM    DATA     BYTE      TH1
      00000098H.3 SFRSYM    DATA     BIT       TB8
      000000A8H.2 SFRSYM    DATA     BIT       EX1
      00000088H.2 SFRSYM    DATA     BIT       IT1
      000000CDH   SFRSYM    DATA     BYTE      TH2
LX51 LINKER/LOCATER V4.66.87.0                                                        05/29/2018  21:11:03  PAGE 224


      000000D0H.0 SFRSYM    DATA     BIT       P
      00000098H.7 SFRSYM    DATA     BIT       SM0
      0000008AH   SFRSYM    DATA     BYTE      TL0
      00000098H.6 SFRSYM    DATA     BIT       SM1
      0000008BH   SFRSYM    DATA     BYTE      TL1
      00000098H.5 SFRSYM    DATA     BIT       SM2
      000000CCH   SFRSYM    DATA     BYTE      TL2
      000000B8H.1 SFRSYM    DATA     BIT       PT0
      000000B8H.3 SFRSYM    DATA     BIT       PT1
      000000D0H.3 SFRSYM    DATA     BIT       RS0
      000000E7H   SFRSYM    DATA     BYTE      ISP_CONTR
      000000B8H.5 SFRSYM    DATA     BIT       PT2
      00000088H.4 SFRSYM    DATA     BIT       TR0
      000000D0H.4 SFRSYM    DATA     BIT       RS1
      00000088H.6 SFRSYM    DATA     BIT       TR1
      000000C8H.2 SFRSYM    DATA     BIT       TR2
      000000B8H.0 SFRSYM    DATA     BIT       PX0
      000000E1H   SFRSYM    DATA     BYTE      WDT_CONTR
      000000B8H.2 SFRSYM    DATA     BIT       PX1
      00000083H   SFRSYM    DATA     BYTE      DPH
      00000082H   SFRSYM    DATA     BYTE      DPL
      000000B7H   SFRSYM    DATA     BYTE      IPH
      000000C8H.3 SFRSYM    DATA     BIT       EXEN2
      00000098H.4 SFRSYM    DATA     BIT       REN
      000000C9H   SFRSYM    DATA     BYTE      T2MOD
      000000C8H   SFRSYM    DATA     BYTE      T2CON
      000000E2H   SFRSYM    DATA     BYTE      ISP_DATA
      000000B9H   SFRSYM    DATA     BYTE      SADEN
      000000B0H.0 SFRSYM    DATA     BIT       RXD
      000000A9H   SFRSYM    DATA     BYTE      SADDR
      000000B0H.1 SFRSYM    DATA     BIT       TXD
      000000A2H   SFRSYM    DATA     BYTE      AUXR1
      000000D0H.5 SFRSYM    DATA     BIT       F0
      000000D0H   SFRSYM    DATA     BYTE      PSW

      010061C0H   BLOCK     CODE     ---       LVL=0
      02000008H   SYMBOL    XDATA    CHAR      arg1
      02000009H   SYMBOL    XDATA    CHAR      arg2
      010061C5H   BLOCK     CODE     NEAR LAB  LVL=1
      00000006H   SYMBOL    DATA     ---       fuck
      ---         BLOCKEND  ---      ---       LVL=1
      010061C0H   LINE      CODE     ---       #9
      010061C5H   LINE      CODE     ---       #10
      010061C5H   LINE      CODE     ---       #13
      010061C5H   LINE      CODE     ---       #15
      010061C7H   LINE      CODE     ---       #17
      010061C9H   LINE      CODE     ---       #18
      010061D1H   LINE      CODE     ---       #23
      010061D4H   LINE      CODE     ---       #24
      010061F5H   LINE      CODE     ---       #26
      010061FEH   LINE      CODE     ---       #27
      01006201H   LINE      CODE     ---       #32
      01006201H   LINE      CODE     ---       #33
      01006203H   LINE      CODE     ---       #34
      ---         BLOCKEND  ---      ---       LVL=0

      ---         MODULE    ---      ---       CMD_TASK
      010036A0H   PUBLIC    CODE     ---       _cmd_task

      010083EAH   BLOCK     CODE     ---       LVL=0
      ---         BLOCKEND  ---      ---       LVL=0

      010036A0H   BLOCK     CODE     ---       LVL=0
      02000008H   SYMBOL    XDATA    CHAR      arg1
      02000009H   SYMBOL    XDATA    CHAR      arg2
LX51 LINKER/LOCATER V4.66.87.0                                                        05/29/2018  21:11:03  PAGE 225


      010036AAH   BLOCK     CODE     NEAR LAB  LVL=1
      0200000AH   SYMBOL    XDATA    BYTE      tsk
      00000007H   SYMBOL    DATA     BYTE      val
      ---         BLOCKEND  ---      ---       LVL=1
      010036A0H   LINE      CODE     ---       #6
      010036AAH   LINE      CODE     ---       #7
      010036AAH   LINE      CODE     ---       #11
      010036ACH   LINE      CODE     ---       #12
      010036AFH   LINE      CODE     ---       #13
      010036B2H   LINE      CODE     ---       #14
      010036BBH   LINE      CODE     ---       #15
      010036C3H   LINE      CODE     ---       #16
      010036C6H   LINE      CODE     ---       #18
      010036D0H   LINE      CODE     ---       #19
      010036D3H   LINE      CODE     ---       #21
      010036D6H   LINE      CODE     ---       #22
      01003707H   LINE      CODE     ---       #23
      01003709H   LINE      CODE     ---       #24
      0100373FH   LINE      CODE     ---       #25
      0100373FH   LINE      CODE     ---       #26
      01003742H   LINE      CODE     ---       #27
      01003742H   LINE      CODE     ---       #29
      01003744H   LINE      CODE     ---       #30
      ---         BLOCKEND  ---      ---       LVL=0

      ---         MODULE    ---      ---       CMD_SM
      010025EFH   PUBLIC    CODE     ---       _cmd_sm

      01006572H   BLOCK     CODE     ---       LVL=0
      ---         BLOCKEND  ---      ---       LVL=0

      010025EFH   BLOCK     CODE     ---       LVL=0
      02000008H   SYMBOL    XDATA    CHAR      arg1
      02000009H   SYMBOL    XDATA    CHAR      arg2
      010025EFH   LINE      CODE     ---       #8
      010025F9H   LINE      CODE     ---       #9
      010025F9H   LINE      CODE     ---       #10
      010025FBH   LINE      CODE     ---       #11
      010025FEH   LINE      CODE     ---       #12
      01002601H   LINE      CODE     ---       #13
      0100260FH   LINE      CODE     ---       #14
      01002612H   LINE      CODE     ---       #15
      01002629H   LINE      CODE     ---       #16
      0100262CH   LINE      CODE     ---       #17
      01002644H   LINE      CODE     ---       #18
      01002652H   LINE      CODE     ---       #19
      0100265FH   LINE      CODE     ---       #20
      0100265FH   LINE      CODE     ---       #21
      01002676H   LINE      CODE     ---       #22
      01002679H   LINE      CODE     ---       #23
      01002691H   LINE      CODE     ---       #24
      0100269CH   LINE      CODE     ---       #25
      010026A9H   LINE      CODE     ---       #26
      010026A9H   LINE      CODE     ---       #27
      010026BFH   LINE      CODE     ---       #28
      010026C2H   LINE      CODE     ---       #29
      010026DFH   LINE      CODE     ---       #30
      010026EAH   LINE      CODE     ---       #31
      010026FAH   LINE      CODE     ---       #32
      010026FAH   LINE      CODE     ---       #33
      010026FCH   LINE      CODE     ---       #34
      010026FFH   LINE      CODE     ---       #35
      010026FFH   LINE      CODE     ---       #36
      010026FFH   LINE      CODE     ---       #37
      01002701H   LINE      CODE     ---       #38
LX51 LINKER/LOCATER V4.66.87.0                                                        05/29/2018  21:11:03  PAGE 226


      ---         BLOCKEND  ---      ---       LVL=0

      ---         MODULE    ---      ---       CMD_BEEPER
      01002C0BH   PUBLIC    CODE     ---       _cmd_beeper

      01007306H   BLOCK     CODE     ---       LVL=0
      ---         BLOCKEND  ---      ---       LVL=0

      01002C0BH   BLOCK     CODE     ---       LVL=0
      02000008H   SYMBOL    XDATA    CHAR      arg1
      02000009H   SYMBOL    XDATA    CHAR      arg2
      01002C15H   BLOCK     CODE     NEAR LAB  LVL=1
      0200000AH   SYMBOL    XDATA    CHAR      index
      ---         BLOCKEND  ---      ---       LVL=1
      01002C0BH   LINE      CODE     ---       #8
      01002C15H   LINE      CODE     ---       #9
      01002C15H   LINE      CODE     ---       #11
      01002C2CH   LINE      CODE     ---       #12
      01002C2FH   LINE      CODE     ---       #13
      01002C46H   LINE      CODE     ---       #14
      01002C49H   LINE      CODE     ---       #15
      01002C60H   LINE      CODE     ---       #16
      01002C65H   LINE      CODE     ---       #17
      01002C6BH   LINE      CODE     ---       #18
      01002C84H   LINE      CODE     ---       #19
      01002C89H   LINE      CODE     ---       #20
      01002C8FH   LINE      CODE     ---       #21
      01002CA8H   LINE      CODE     ---       #22
      01002CB0H   LINE      CODE     ---       #23
      01002CB3H   LINE      CODE     ---       #24
      01002CCCH   LINE      CODE     ---       #25
      01002CE5H   LINE      CODE     ---       #26
      01002CEEH   LINE      CODE     ---       #27
      01002CF1H   LINE      CODE     ---       #28
      01002CF3H   LINE      CODE     ---       #29
      01002CF6H   LINE      CODE     ---       #30
      01002CF6H   LINE      CODE     ---       #31
      01002CF8H   LINE      CODE     ---       #32
      ---         BLOCKEND  ---      ---       LVL=0

      ---         MODULE    ---      ---       CMD_THERMO
      010024A3H   PUBLIC    CODE     ---       _cmd_thermo

      0100772CH   BLOCK     CODE     ---       LVL=0
      ---         BLOCKEND  ---      ---       LVL=0

      010024A3H   BLOCK     CODE     ---       LVL=0
      02000008H   SYMBOL    XDATA    CHAR      arg1
      02000009H   SYMBOL    XDATA    CHAR      arg2
      010024ADH   BLOCK     CODE     NEAR LAB  LVL=1
      0200000AH   SYMBOL    XDATA    CHAR      val
      ---         BLOCKEND  ---      ---       LVL=1
      010024A3H   LINE      CODE     ---       #8
      010024ADH   LINE      CODE     ---       #9
      010024ADH   LINE      CODE     ---       #11
      010024AFH   LINE      CODE     ---       #12
      010024B2H   LINE      CODE     ---       #13
      010024B9H   LINE      CODE     ---       #14
      010024C1H   LINE      CODE     ---       #15
      010024CEH   LINE      CODE     ---       #16
      010024D0H   LINE      CODE     ---       #17
      010024DFH   LINE      CODE     ---       #18
      010024E4H   LINE      CODE     ---       #19
      010024F4H   LINE      CODE     ---       #20
      010024F7H   LINE      CODE     ---       #21
LX51 LINKER/LOCATER V4.66.87.0                                                        05/29/2018  21:11:03  PAGE 227


      010024FEH   LINE      CODE     ---       #22
      0100250DH   LINE      CODE     ---       #23
      01002510H   LINE      CODE     ---       #24
      0100251EH   LINE      CODE     ---       #25
      01002521H   LINE      CODE     ---       #26
      01002524H   LINE      CODE     ---       #27
      01002524H   LINE      CODE     ---       #28
      01002524H   LINE      CODE     ---       #29
      01002531H   LINE      CODE     ---       #30
      01002541H   LINE      CODE     ---       #31
      01002544H   LINE      CODE     ---       #32
      01002557H   LINE      CODE     ---       #33
      0100255AH   LINE      CODE     ---       #34
      0100256CH   LINE      CODE     ---       #35
      0100256FH   LINE      CODE     ---       #36
      01002571H   LINE      CODE     ---       #37
      01002574H   LINE      CODE     ---       #38
      01002577H   LINE      CODE     ---       #39
      01002577H   LINE      CODE     ---       #40
      01002586H   LINE      CODE     ---       #41
      01002596H   LINE      CODE     ---       #42
      01002599H   LINE      CODE     ---       #43
      010025ABH   LINE      CODE     ---       #44
      010025AEH   LINE      CODE     ---       #45
      010025C0H   LINE      CODE     ---       #46
      010025C3H   LINE      CODE     ---       #47
      010025C5H   LINE      CODE     ---       #48
      010025C8H   LINE      CODE     ---       #49
      010025CBH   LINE      CODE     ---       #50
      010025CBH   LINE      CODE     ---       #51
      010025CDH   LINE      CODE     ---       #52
      010025D0H   LINE      CODE     ---       #53
      010025D0H   LINE      CODE     ---       #54
      010025D0H   LINE      CODE     ---       #55
      010025D2H   LINE      CODE     ---       #56
      ---         BLOCKEND  ---      ---       LVL=0

      ---         MODULE    ---      ---       CMD_MPU
      01004996H   PUBLIC    CODE     ---       _cmd_mpu

      01007F38H   BLOCK     CODE     ---       LVL=0
      ---         BLOCKEND  ---      ---       LVL=0

      01004996H   BLOCK     CODE     ---       LVL=0
      02000008H   SYMBOL    XDATA    CHAR      arg1
      02000009H   SYMBOL    XDATA    CHAR      arg2
      01004996H   LINE      CODE     ---       #10
      010049A0H   LINE      CODE     ---       #11
      010049A0H   LINE      CODE     ---       #12
      010049C2H   LINE      CODE     ---       #13
      010049C4H   LINE      CODE     ---       #14
      010049DAH   LINE      CODE     ---       #15
      010049DFH   LINE      CODE     ---       #16
      010049F5H   LINE      CODE     ---       #17
      01004A06H   LINE      CODE     ---       #18
      01004A08H   LINE      CODE     ---       #19
      01004A0BH   LINE      CODE     ---       #20
      01004A0BH   LINE      CODE     ---       #21
      01004A0DH   LINE      CODE     ---       #22
      ---         BLOCKEND  ---      ---       LVL=0

      ---         MODULE    ---      ---       ?C?FPMUL
      0100002EH   PUBLIC    CODE     ---       ?C?FPMUL

      ---         MODULE    ---      ---       ?C?FPDIV
LX51 LINKER/LOCATER V4.66.87.0                                                        05/29/2018  21:11:03  PAGE 228


      01000137H   PUBLIC    CODE     ---       ?C?FPDIV

      ---         MODULE    ---      ---       ?C?FCAST
      010001DEH   PUBLIC    CODE     ---       ?C?FCASTC
      010001D9H   PUBLIC    CODE     ---       ?C?FCASTI
      010001D4H   PUBLIC    CODE     ---       ?C?FCASTL

      ---         MODULE    ---      ---       ?C?CASTF
      01000212H   PUBLIC    CODE     ---       ?C?CASTF

      ---         MODULE    ---      ---       PRINTF
      0200004DH   PUBLIC    XDATA    ---       ?_PRINTF?BYTE
      0200004DH   PUBLIC    XDATA    ---       ?_SPRINTF?BYTE
      01000ADFH   PUBLIC    CODE     ---       _PRINTF
      01000AD9H   PUBLIC    CODE     ---       _SPRINTF

      ---         MODULE    ---      ---       VPRINTF
      02010047H   PUBLIC    XDATA    ---       ?_VPRINTF?BYTE
      01006931H   PUBLIC    CODE     ---       _VPRINTF

      ---         MODULE    ---      ---       ?C?FPGETOPN
      01000249H   PUBLIC    CODE     ---       ?C?FPGETOPN2
      0100027EH   PUBLIC    CODE     ---       ?C?FPNANRESULT
      01000288H   PUBLIC    CODE     ---       ?C?FPOVERFLOW
      01000260H   PUBLIC    CODE     ---       ?C?FPRESULT
      01000274H   PUBLIC    CODE     ---       ?C?FPRESULT2
      01000285H   PUBLIC    CODE     ---       ?C?FPUNDERFLOW

      ---         MODULE    ---      ---       ?C?FPROUND
      01000293H   PUBLIC    CODE     ---       ?C?FPROUND

      ---         MODULE    ---      ---       ?C?FPCONVERT
      010002D0H   PUBLIC    CODE     ---       ?C?FPCONVERT

      ---         MODULE    ---      ---       ?C?FPADD
      010003DCH   PUBLIC    CODE     ---       ?C?FPADD
      010003D8H   PUBLIC    CODE     ---       ?C?FPSUB

      ---         MODULE    ---      ---       ?C?FTNPWR
      010004FDH   PUBLIC    CODE     ---       ?C?FTNPWR

      ---         MODULE    ---      ---       ?C?SCDIV
      0100053DH   PUBLIC    CODE     ---       ?C?SCDIV

      ---         MODULE    ---      ---       ?C?CLDPTR
      0100055FH   PUBLIC    CODE     ---       ?C?CLDPTR

      ---         MODULE    ---      ---       ?C?CLDOPTR
      01000578H   PUBLIC    CODE     ---       ?C?CLDOPTR

      ---         MODULE    ---      ---       ?C?CSTPTR
      010005A5H   PUBLIC    CODE     ---       ?C?CSTPTR

      ---         MODULE    ---      ---       ?C?IMUL
      010005B7H   PUBLIC    CODE     ---       ?C?IMUL

      ---         MODULE    ---      ---       ?C?UIDIV
      010005C9H   PUBLIC    CODE     ---       ?C?UIDIV

      ---         MODULE    ---      ---       ?C?IILDX
      0100061EH   PUBLIC    CODE     ---       ?C?IILDX

      ---         MODULE    ---      ---       ?C?ILDOPTR
      01000634H   PUBLIC    CODE     ---       ?C?ILDOPTR

LX51 LINKER/LOCATER V4.66.87.0                                                        05/29/2018  21:11:03  PAGE 229


      ---         MODULE    ---      ---       ?C?LNEG
      0100066CH   PUBLIC    CODE     ---       ?C?LNEG

      ---         MODULE    ---      ---       ?C?LSTKXDATA
      0100067AH   PUBLIC    CODE     ---       ?C?LSTKXDATA

      ---         MODULE    ---      ---       ?C?OFFX256
      010006ABH   PUBLIC    CODE     ---       ?C?OFFX256

      ---         MODULE    ---      ---       ?C?OFFXADD
      010006BCH   PUBLIC    CODE     ---       ?C?OFFXADD

      ---         MODULE    ---      ---       ?C?PLDXDATA
      010006C8H   PUBLIC    CODE     ---       ?C?PLDXDATA

      ---         MODULE    ---      ---       ?C?PLDIXDATA
      010006D1H   PUBLIC    CODE     ---       ?C?PLDIXDATA

      ---         MODULE    ---      ---       ?C?PSTXDATA
      010006E8H   PUBLIC    CODE     ---       ?C?PSTXDATA

      ---         MODULE    ---      ---       ?C?PLDCODE
      010006F1H   PUBLIC    CODE     ---       ?C?PLDCODE

      ---         MODULE    ---      ---       ?C?PLDPTR
      010006FDH   PUBLIC    CODE     ---       ?C?PLDPTR

      ---         MODULE    ---      ---       ?C?PLDOPTR
      0100071DH   PUBLIC    CODE     ---       ?C?PLDOPTR

      ---         MODULE    ---      ---       ?C?CCASE
      0100074DH   PUBLIC    CODE     ---       ?C?CCASE

      ---         MODULE    ---      ---       ?C?ICALL
      01000773H   PUBLIC    CODE     ---       ?C?ICALL
      01000777H   PUBLIC    CODE     ---       ?C?ICALL2

      ---         MODULE    ---      ---       ?C_XBP
      0000001DH   PUBLIC    DATA     ---       ?C_XBP

      ---         MODULE    ---      ---       GETS
      01002CF9H   PUBLIC    CODE     ---       _GETS

      ---         MODULE    ---      ---       ATOI
      01002FA4H   PUBLIC    CODE     ---       _ATOI

      ---         MODULE    ---      ---       ?C?MEMSET
      01000779H   PUBLIC    CODE     ---       ?C?MEMSET

      ---         MODULE    ---      ---       ?C?COPYP2
      01000871H   PUBLIC    CODE     ---       ?C?COPYP2

      ---         MODULE    ---      ---       ?C?STRCMPP2
      01000A0DH   PUBLIC    CODE     ---       ?C?STRCMPP2

      ---         MODULE    ---      ---       ?C?CSTOPTR
      01000A2AH   PUBLIC    CODE     ---       ?C?CSTOPTR

      ---         MODULE    ---      ---       ?C?ILDIX
      01000A4CH   PUBLIC    CODE     ---       ?C?ILDIX

      ---         MODULE    ---      ---       ?C?PLDIDATA
      01000A62H   PUBLIC    CODE     ---       ?C?PLDIDATA

      ---         MODULE    ---      ---       ?C?PLDPDATA
LX51 LINKER/LOCATER V4.66.87.0                                                        05/29/2018  21:11:03  PAGE 230


      01000A6BH   PUBLIC    CODE     ---       ?C?PLDPDATA

      ---         MODULE    ---      ---       GETCHAR
      00000025H.0 PUBLIC    BIT      ---       ?C?CHARLOADED
      020000EAH   PUBLIC    XDATA    ---       ?_UNGETCHAR?BYTE
      010080E5H   PUBLIC    CODE     ---       GETCHAR

      ---         MODULE    ---      ---       ISDIGIT
      010083F9H   PUBLIC    CODE     ---       _ISDIGIT

      ---         MODULE    ---      ---       ISSPACE
      010080F9H   PUBLIC    CODE     ---       _ISSPACE



FUNCTION REGISTER MASKS


FUNCTION . . . . . . . . . . . . . . REG MASK
==============================================

_clock_get_mon_date. . . . . . . . . @0x1e000ca0
_clock_is_leap_year. . . . . . . . . @0x1e000c80
_clock_switch_display_mode . . . . . @0x0e000800
_clock_yymmdd_to_day . . . . . . . . @0x1e000cfd
_delay_10us. . . . . . . . . . . . . @0x080008c0
_delay_ms. . . . . . . . . . . . . . @0x080008e0
_getkey. . . . . . . . . . . . . . . @0x1e000881
_I2C_Write . . . . . . . . . . . . . @0x180008e0
_int_hub_test_bit. . . . . . . . . . @0x180008c1
_isdigit . . . . . . . . . . . . . . @0x18000800
_isspace . . . . . . . . . . . . . . @0x18000800
_led_clr_blink . . . . . . . . . . . @0x18000801
_led_clr_dp. . . . . . . . . . . . . @0x18000801
_led_set_blink . . . . . . . . . . . @0x18000801
_led_set_code. . . . . . . . . . . . @0x1e0008c3
_led_set_dp. . . . . . . . . . . . . @0x18000801
_mpu_threshold_inc . . . . . . . . . @0x18000880
_putbuf. . . . . . . . . . . . . . . @0x1e0008c1
_putchar . . . . . . . . . . . . . . @0x1e0008e1
_rtc_alarm_set_date. . . . . . . . . @0x1e000cce
_rtc_alarm_set_day . . . . . . . . . @0x1e000800
_rtc_alarm_set_hour. . . . . . . . . @0x1e000cce
_rtc_alarm_set_min . . . . . . . . . @0x1e000cce
_rtc_alarm_set_mode. . . . . . . . . @0x1e000820
_rtc_alarm_set_sec . . . . . . . . . @0x1e000cc0
_rtc_clr_alarm_int_flag. . . . . . . @0x1e000800
_rtc_date_set_day. . . . . . . . . . @0x1e000800
_rtc_date_set_month. . . . . . . . . @0x1e000cc0
_rtc_date_set_year . . . . . . . . . @0x1e000cc0
_rtc_enable_alarm_int. . . . . . . . @0x1e000800
_rtc_test_alarm_int. . . . . . . . . @0x1e000800
_rtc_test_alarm_int_flag . . . . . . @0x1e000800
_rtc_time_set_hour . . . . . . . . . @0x1e000cce
_rtc_time_set_min. . . . . . . . . . @0x1e000cce
_rtc_time_set_sec. . . . . . . . . . @0x1e000cce
_scan_key_proc . . . . . . . . . . . @0x1e0008c1
_serial_set_ctl_bit. . . . . . . . . @0x1e000861
_serial_test_ctl_bit . . . . . . . . @0x1e0008f1
_timer_get_hour. . . . . . . . . . . @0x1e000880
_timer_get_min . . . . . . . . . . . @0x1e000880
_timer_get_sec . . . . . . . . . . . @0x1e000880
_timer_inc_hour. . . . . . . . . . . @0x1e000c00
_timer_inc_min . . . . . . . . . . . @0x1e000c00
_timer_inc_sec . . . . . . . . . . . @0x1e000c00
LX51 LINKER/LOCATER V4.66.87.0                                                        05/29/2018  21:11:03  PAGE 231


_timer_set_mode. . . . . . . . . . . @0x0e000800
alarm0_get_day_mask. . . . . . . . . @0x0e000880
alarm0_get_hour. . . . . . . . . . . @0x0e000880
alarm0_get_hour_12 . . . . . . . . . @0x18000000
alarm0_get_min . . . . . . . . . . . @0x0e000880
alarm0_inc_hour. . . . . . . . . . . @0x1e000c00
alarm0_inc_min . . . . . . . . . . . @0x1e000c00
alarm0_set_hour_12 . . . . . . . . . @0x18000000
alarm1_set_enable. . . . . . . . . . @0x18000000
alarm1_test_enable . . . . . . . . . @0x18000000
beeper_get_beep_enable . . . . . . . @0x18000000
beeper_get_music_index . . . . . . . @0x0e000880
beeper_get_music_to. . . . . . . . . @0x0e000880
beeper_inc_music_to. . . . . . . . . @0x1e000cf1
beeper_set_beep_enable . . . . . . . @0x18000000
beeper_stop_music. . . . . . . . . . @0x0e000800
clock_clr_sec. . . . . . . . . . . . @0x08000801
clock_display. . . . . . . . . . . . @0x18000000
clock_enable_interrupt . . . . . . . @0x18000000
clock_enter_shell. . . . . . . . . . @0x80000000
clock_get_date . . . . . . . . . . . @0x08000881
clock_get_day. . . . . . . . . . . . @0x08000881
clock_get_hour . . . . . . . . . . . @0x08000881
clock_get_hour_12. . . . . . . . . . @0x18000000
clock_get_min. . . . . . . . . . . . @0x08000881
clock_get_month. . . . . . . . . . . @0x08000881
clock_get_ms39 . . . . . . . . . . . @0x08000881
clock_get_sec. . . . . . . . . . . . @0x08000881
clock_get_sec_256. . . . . . . . . . @0x08000881
clock_get_year . . . . . . . . . . . @0x08000881
clock_inc_hour . . . . . . . . . . . @0x18000c01
clock_inc_min. . . . . . . . . . . . @0x18000c01
clock_inc_month. . . . . . . . . . . @0x1e000cfd
clock_inc_year . . . . . . . . . . . @0x1e000cfd
clock_set_hour_12. . . . . . . . . . @0x18000000
com_initialize . . . . . . . . . . . @0x0e000800
com_try_get_key. . . . . . . . . . . @0x1e000881
debug_initialize . . . . . . . . . . @0x80000000
debug_onoff. . . . . . . . . . . . . @0x18000000
I2C_Delay. . . . . . . . . . . . . . @0x18000880
I2C_GetAck . . . . . . . . . . . . . @0x180008c0
I2C_Init . . . . . . . . . . . . . . @0x18000880
I2C_PutAck . . . . . . . . . . . . . @0x18000880
I2C_Read . . . . . . . . . . . . . . @0x180008e0
I2C_Start. . . . . . . . . . . . . . @0x18000880
I2C_Stop . . . . . . . . . . . . . . @0x180008b0
lt_timer_dec_sec . . . . . . . . . . @0x1e000c81
lt_timer_get_date. . . . . . . . . . @0x08000881
lt_timer_get_hour. . . . . . . . . . @0x08000881
lt_timer_get_min . . . . . . . . . . @0x08000881
lt_timer_get_month . . . . . . . . . @0x08000881
lt_timer_get_sec . . . . . . . . . . @0x08000881
lt_timer_get_year. . . . . . . . . . @0x08000881
lt_timer_inc_date. . . . . . . . . . @0x1e000ca1
lt_timer_inc_hour. . . . . . . . . . @0x18000c01
lt_timer_inc_min . . . . . . . . . . @0x18000c01
lt_timer_inc_month . . . . . . . . . @0x18000c01
lt_timer_inc_sec . . . . . . . . . . @0x18000c01
lt_timer_inc_year. . . . . . . . . . @0x18000c01
mpu_threshold_get. . . . . . . . . . @0x0e000880
power_5v_get_enable. . . . . . . . . @0x18000000
power_clr_flag . . . . . . . . . . . @0x80000000
power_get_powersave_to . . . . . . . @0x1e000880
power_get_powersave_to_s . . . . . . @0x0e000880
power_get_volume . . . . . . . . . . @0x08000080
LX51 LINKER/LOCATER V4.66.87.0                                                        05/29/2018  21:11:03  PAGE 232


power_inc_powersave_to . . . . . . . @0x1e000800
power_reset_powersave_to . . . . . . @0x0e000881
power_set_flag . . . . . . . . . . . @0x80000000
power_test_flag. . . . . . . . . . . @0x18000000
refresh_led. . . . . . . . . . . . . @0x1e0008e9
rom_is_factory_reset . . . . . . . . @0x18000000
rtc_alarm_get_date . . . . . . . . . @0x1e000cc0
rtc_alarm_get_day. . . . . . . . . . @0x1e000880
rtc_alarm_get_hour . . . . . . . . . @0x1e000ce0
rtc_alarm_get_hour_12. . . . . . . . @0x1e000880
rtc_alarm_get_min. . . . . . . . . . @0x1e000cc0
rtc_alarm_get_mode . . . . . . . . . @0x0e0008fa
rtc_alarm_get_sec. . . . . . . . . . @0x1e000cc0
rtc_alarm_set_hour_12. . . . . . . . @0x1e000cee
rtc_date_get_date. . . . . . . . . . @0x1e000cc0
rtc_date_get_day . . . . . . . . . . @0x0e000880
rtc_date_get_month . . . . . . . . . @0x1e000cc0
rtc_date_get_year. . . . . . . . . . @0x1e000cc0
rtc_is_lt_timer. . . . . . . . . . . @0x18000000
rtc_set_lt_timer . . . . . . . . . . @0x18000000
rtc_time_get_hour. . . . . . . . . . @0x1e000ce0
rtc_time_get_hour_12 . . . . . . . . @0x1e000880
rtc_time_get_min . . . . . . . . . . @0x1e000cc0
rtc_time_get_sec . . . . . . . . . . @0x1e000cc0
rtc_time_set_hour_12 . . . . . . . . @0x1e000cee
timer_set_led_autorefresh. . . . . . @0x1e000800
timer_stop . . . . . . . . . . . . . @0x80000000



*** WARNING L13: RECURSIVE CALL TO FUNCTION
    CALLED:  ?CO?TASK
    CALLER:  _RUN_STATE_MACHINE/SM

*** WARNING L13: RECURSIVE CALL TO FUNCTION
    CALLED:  ?CO?SHELL
    CALLER:  SHELL

*** WARNING L13: RECURSIVE CALL TO FUNCTION
    CALLED:  ?CO?SHELL
    CALLER:  SHELL_DUMP_CMD/SHELL

*** WARNING L13: RECURSIVE CALL TO FUNCTION
    CALLED:  ?CO?SHELL
    CALLER:  _CMD_HELP/CMD_HELP

*** WARNING L57: UNCALLED FUNCTION, IGNORED FOR OVERLAY PROCESS
    NAME:    RTC_ALARM_GET_HOUR/RTC

*** WARNING L57: UNCALLED FUNCTION, IGNORED FOR OVERLAY PROCESS
    NAME:    RTC_ALARM_GET_HOUR_12/RTC

*** WARNING L57: UNCALLED FUNCTION, IGNORED FOR OVERLAY PROCESS
    NAME:    RTC_ALARM_GET_MIN/RTC

*** WARNING L57: UNCALLED FUNCTION, IGNORED FOR OVERLAY PROCESS
    NAME:    RTC_ALARM_GET_DAY/RTC

*** WARNING L57: UNCALLED FUNCTION, IGNORED FOR OVERLAY PROCESS
    NAME:    _RTC_ALARM_SET_DAY/RTC

*** WARNING L57: UNCALLED FUNCTION, IGNORED FOR OVERLAY PROCESS
    NAME:    RTC_ALARM_GET_DATE/RTC

*** WARNING L57: UNCALLED FUNCTION, IGNORED FOR OVERLAY PROCESS
LX51 LINKER/LOCATER V4.66.87.0                                                        05/29/2018  21:11:03  PAGE 233


    NAME:    RTC_ALARM_GET_SEC/RTC

*** WARNING L57: UNCALLED FUNCTION, IGNORED FOR OVERLAY PROCESS
    NAME:    RTC_ALARM_GET_MODE/RTC

*** WARNING L57: UNCALLED FUNCTION, IGNORED FOR OVERLAY PROCESS
    NAME:    _RTC_TEST_ALARM_INT/RTC

*** WARNING L16: UNCALLED SEGMENT, IGNORED FOR OVERLAY PROCESS
    NAME:    ALARM_SAVE_ROM/ALARM

*** WARNING L57: UNCALLED FUNCTION, IGNORED FOR OVERLAY PROCESS
    NAME:    BEEPER_GET_MUSIC_TO/BEEPER

*** WARNING L57: UNCALLED FUNCTION, IGNORED FOR OVERLAY PROCESS
    NAME:    BEEPER_INC_MUSIC_TO/BEEPER

*** WARNING L57: UNCALLED FUNCTION, IGNORED FOR OVERLAY PROCESS
    NAME:    CLOCK_GET_MS39/CLOCK

*** WARNING L57: UNCALLED FUNCTION, IGNORED FOR OVERLAY PROCESS
    NAME:    THERMO_HI_THRESHOLD_REACH_TOP/THERMO

*** WARNING L57: UNCALLED FUNCTION, IGNORED FOR OVERLAY PROCESS
    NAME:    THERMO_LO_THRESHOLD_REACH_BOTTOM/THERMO

*** WARNING L57: UNCALLED FUNCTION, IGNORED FOR OVERLAY PROCESS
    NAME:    MPU_THRESHOLD_RESET/MPU

Program Size: data=81.1 xdata=235 const=17299 code=34876
LX51 RUN COMPLETE.  20 WARNING(S),  0 ERROR(S)
