LX51 LINKER/LOCATER V4.66.87.0                                                          06/04/2018  21:13:51  PAGE 1


LX51 LINKER/LOCATER V4.66.87.0, INVOKED BY:
C:\KEIL\C51\BIN\LX51.EXE sm.obj, main.obj, STARTUP.obj, com.obj, rtc.obj, i2c.obj, key.obj, task.obj, led.obj, alarm.obj
>> , power.obj, misc.obj, mod_common.obj, beeper.obj, clock.obj, timer.obj, int_hub.obj, fuse.obj, hg.obj, lt_timer.obj,
>>  serial_hub.obj, thermo.obj, rom.obj, delay_task.obj, shell.obj, debug.obj, mpu.obj, sm_clock_timer.obj, sm_clock_cou
>> nter.obj, sm_clock_display.obj, sm_clock_powersave.obj, sm_clock_mod_alarm.obj, sm_clock_alarm.obj, sm_clock_mod_time
>> .obj, sm_power_pack_display.obj, sm_power_pack_powersave.obj, sm_fuse_test.obj, sm_fuse_param.obj, sm_fuse_timer.obj,
>>  sm_fuse_detonate.obj, sm_fuse_powersave.obj, sm_global_flag_mod.obj, cmd_help.obj, cmd_serial.obj, cmd_int.obj, cmd_
>> i2c.obj, cmd_dbg.obj, cmd_reboot.obj, cmd_task.obj, cmd_sm.obj, cmd_beeper.obj, cmd_thermo.obj, cmd_mpu.obj TO Clock 
>> REGFILE (.\Clock.ORC) CLASSES (XDATA (X:0X0-X:0X3FF), HDATA (X:0X0-X:0X3FF), ECODE (C:0X0-C:0XFFFF), HCONST (C:0X0-C:
>> 0XFFFF))




PROGRAM RECURSIONS REMOVED FROM CALL TREE
=========================================
+--> ?CO?TASK
|  | _TIME_PROC/SM
<--+ _RUN_STATE_MACHINE/SM


+--> ?CO?SHELL
|  | _CMD_HELP/CMD_HELP
|  | SHELL_DUMP_CMD/SHELL
<--+ SHELL


+--> ?CO?SHELL
|  | _CMD_HELP/CMD_HELP
<--+ SHELL_DUMP_CMD/SHELL


+--> ?CO?SHELL
<--+ _CMD_HELP/CMD_HELP



CPU MODE:     8051 MODE
MEMORY MODEL: LARGE WITH FLOATING POINT ARITHMETIC


INPUT MODULES INCLUDED:
  sm.obj (SM)
         COMMENT TYPE 0: C51 V9.57.0.0
  main.obj (MAIN)
         COMMENT TYPE 0: C51 V9.57.0.0
  STARTUP.obj (?C_STARTUP)
         COMMENT TYPE 0: AX51 V3.15.3.0
  com.obj (COM)
         COMMENT TYPE 0: C51 V9.57.0.0
  rtc.obj (RTC)
         COMMENT TYPE 0: C51 V9.57.0.0
  i2c.obj (I2C)
         COMMENT TYPE 0: C51 V9.57.0.0
  key.obj (KEY)
         COMMENT TYPE 0: C51 V9.57.0.0
  task.obj (TASK)
         COMMENT TYPE 0: C51 V9.57.0.0
  led.obj (LED)
         COMMENT TYPE 0: C51 V9.57.0.0
  alarm.obj (ALARM)
         COMMENT TYPE 0: C51 V9.57.0.0
  power.obj (POWER)
         COMMENT TYPE 0: C51 V9.57.0.0
  misc.obj (MISC)
         COMMENT TYPE 0: C51 V9.57.0.0
LX51 LINKER/LOCATER V4.66.87.0                                                        06/04/2018  21:13:51  PAGE 2


  mod_common.obj (MOD_COMMON)
         COMMENT TYPE 0: C51 V9.57.0.0
  beeper.obj (BEEPER)
         COMMENT TYPE 0: C51 V9.57.0.0
  clock.obj (CLOCK)
         COMMENT TYPE 0: C51 V9.57.0.0
  timer.obj (TIMER)
         COMMENT TYPE 0: C51 V9.57.0.0
  int_hub.obj (INT_HUB)
         COMMENT TYPE 0: C51 V9.57.0.0
  fuse.obj (FUSE)
         COMMENT TYPE 0: C51 V9.57.0.0
  hg.obj (HG)
         COMMENT TYPE 0: C51 V9.57.0.0
  lt_timer.obj (LT_TIMER)
         COMMENT TYPE 0: C51 V9.57.0.0
  serial_hub.obj (SERIAL_HUB)
         COMMENT TYPE 0: C51 V9.57.0.0
  thermo.obj (THERMO)
         COMMENT TYPE 0: C51 V9.57.0.0
  rom.obj (ROM)
         COMMENT TYPE 0: C51 V9.57.0.0
  delay_task.obj (DELAY_TASK)
         COMMENT TYPE 0: C51 V9.57.0.0
  shell.obj (SHELL)
         COMMENT TYPE 0: C51 V9.57.0.0
  debug.obj (DEBUG)
         COMMENT TYPE 0: C51 V9.57.0.0
  mpu.obj (MPU)
         COMMENT TYPE 0: C51 V9.57.0.0
  sm_clock_timer.obj (SM_CLOCK_TIMER)
         COMMENT TYPE 0: C51 V9.57.0.0
  sm_clock_counter.obj (SM_CLOCK_COUNTER)
         COMMENT TYPE 0: C51 V9.57.0.0
  sm_clock_display.obj (SM_CLOCK_DISPLAY)
         COMMENT TYPE 0: C51 V9.57.0.0
  sm_clock_powersave.obj (SM_CLOCK_POWERSAVE)
         COMMENT TYPE 0: C51 V9.57.0.0
  sm_clock_mod_alarm.obj (SM_CLOCK_MOD_ALARM)
         COMMENT TYPE 0: C51 V9.57.0.0
  sm_clock_alarm.obj (SM_CLOCK_ALARM)
         COMMENT TYPE 0: C51 V9.57.0.0
  sm_clock_mod_time.obj (SM_CLOCK_MOD_TIME)
         COMMENT TYPE 0: C51 V9.57.0.0
  sm_power_pack_display.obj (SM_POWER_PACK_DISPLAY)
         COMMENT TYPE 0: C51 V9.57.0.0
  sm_power_pack_powersave.obj (SM_POWER_PACK_POWERSAVE)
         COMMENT TYPE 0: C51 V9.57.0.0
  sm_fuse_test.obj (SM_FUSE_TEST)
         COMMENT TYPE 0: C51 V9.57.0.0
  sm_fuse_param.obj (SM_FUSE_PARAM)
         COMMENT TYPE 0: C51 V9.57.0.0
  sm_fuse_timer.obj (SM_FUSE_TIMER)
         COMMENT TYPE 0: C51 V9.57.0.0
  sm_fuse_detonate.obj (SM_FUSE_DETONATE)
         COMMENT TYPE 0: C51 V9.57.0.0
  sm_fuse_powersave.obj (SM_FUSE_POWERSAVE)
         COMMENT TYPE 0: C51 V9.57.0.0
  sm_global_flag_mod.obj (SM_GLOBAL_FLAG_MOD)
         COMMENT TYPE 0: C51 V9.57.0.0
  cmd_help.obj (CMD_HELP)
         COMMENT TYPE 0: C51 V9.57.0.0
  cmd_serial.obj (CMD_SERIAL)
         COMMENT TYPE 0: C51 V9.57.0.0
  cmd_int.obj (CMD_INT)
LX51 LINKER/LOCATER V4.66.87.0                                                        06/04/2018  21:13:51  PAGE 3


         COMMENT TYPE 0: C51 V9.57.0.0
  cmd_i2c.obj (CMD_I2C)
         COMMENT TYPE 0: C51 V9.57.0.0
  cmd_dbg.obj (CMD_DBG)
         COMMENT TYPE 0: C51 V9.57.0.0
  cmd_reboot.obj (CMD_REBOOT)
         COMMENT TYPE 0: C51 V9.57.0.0
  cmd_task.obj (CMD_TASK)
         COMMENT TYPE 0: C51 V9.57.0.0
  cmd_sm.obj (CMD_SM)
         COMMENT TYPE 0: C51 V9.57.0.0
  cmd_beeper.obj (CMD_BEEPER)
         COMMENT TYPE 0: C51 V9.57.0.0
  cmd_thermo.obj (CMD_THERMO)
         COMMENT TYPE 0: C51 V9.57.0.0
  cmd_mpu.obj (CMD_MPU)
         COMMENT TYPE 0: C51 V9.57.0.0
  C:\KEIL\C51\LIB\C51FPL.LIB (?C?FPMUL)
         COMMENT TYPE 1: A51 / ASM51 Assembler
  C:\KEIL\C51\LIB\C51FPL.LIB (?C?FPDIV)
         COMMENT TYPE 1: A51 / ASM51 Assembler
  C:\KEIL\C51\LIB\C51FPL.LIB (?C?FCAST)
         COMMENT TYPE 1: A51 / ASM51 Assembler
  C:\KEIL\C51\LIB\C51FPL.LIB (?C?CASTF)
         COMMENT TYPE 1: A51 / ASM51 Assembler
  C:\KEIL\C51\LIB\C51FPL.LIB (PRINTF)
         COMMENT TYPE 1: A51 / ASM51 Assembler
  C:\KEIL\C51\LIB\C51FPL.LIB (VPRINTF)
         COMMENT TYPE 1: A51 / ASM51 Assembler
  C:\KEIL\C51\LIB\C51FPL.LIB (?C?FPGETOPN)
         COMMENT TYPE 1: A51 / ASM51 Assembler
  C:\KEIL\C51\LIB\C51FPL.LIB (?C?FPROUND)
         COMMENT TYPE 1: A51 / ASM51 Assembler
  C:\KEIL\C51\LIB\C51FPL.LIB (?C?FPCONVERT)
         COMMENT TYPE 1: A51 / ASM51 Assembler
  C:\KEIL\C51\LIB\C51FPL.LIB (?C?FPADD)
         COMMENT TYPE 1: A51 / ASM51 Assembler
  C:\KEIL\C51\LIB\C51FPL.LIB (?C?FTNPWR)
         COMMENT TYPE 1: A51 / ASM51 Assembler
  C:\KEIL\C51\LIB\C51L.LIB (?C?SCDIV)
         COMMENT TYPE 1: A51 / ASM51 Assembler
  C:\KEIL\C51\LIB\C51L.LIB (?C?CLDPTR)
         COMMENT TYPE 1: A51 / ASM51 Assembler
  C:\KEIL\C51\LIB\C51L.LIB (?C?CLDOPTR)
         COMMENT TYPE 1: A51 / ASM51 Assembler
  C:\KEIL\C51\LIB\C51L.LIB (?C?CSTPTR)
         COMMENT TYPE 1: A51 / ASM51 Assembler
  C:\KEIL\C51\LIB\C51L.LIB (?C?IMUL)
         COMMENT TYPE 1: A51 / ASM51 Assembler
  C:\KEIL\C51\LIB\C51L.LIB (?C?UIDIV)
         COMMENT TYPE 1: A51 / ASM51 Assembler
  C:\KEIL\C51\LIB\C51L.LIB (?C?IILDX)
         COMMENT TYPE 1: A51 / ASM51 Assembler
  C:\KEIL\C51\LIB\C51L.LIB (?C?ILDOPTR)
         COMMENT TYPE 1: A51 / ASM51 Assembler
  C:\KEIL\C51\LIB\C51L.LIB (?C?LADD)
         COMMENT TYPE 1: A51 / ASM51 Assembler
  C:\KEIL\C51\LIB\C51L.LIB (?C?LSUB)
         COMMENT TYPE 1: A51 / ASM51 Assembler
  C:\KEIL\C51\LIB\C51L.LIB (?C?LNEG)
         COMMENT TYPE 1: A51 / ASM51 Assembler
  C:\KEIL\C51\LIB\C51L.LIB (?C?SLCMP)
         COMMENT TYPE 1: A51 / ASM51 Assembler
  C:\KEIL\C51\LIB\C51L.LIB (?C?LLDXDATA)
         COMMENT TYPE 1: A51 / ASM51 Assembler
LX51 LINKER/LOCATER V4.66.87.0                                                        06/04/2018  21:13:51  PAGE 4


  C:\KEIL\C51\LIB\C51L.LIB (?C?LLDXDATA0)
         COMMENT TYPE 1: A51 / ASM51 Assembler
  C:\KEIL\C51\LIB\C51L.LIB (?C?LSTXDATA)
         COMMENT TYPE 1: A51 / ASM51 Assembler
  C:\KEIL\C51\LIB\C51L.LIB (?C?LSTKXDATA)
         COMMENT TYPE 1: A51 / ASM51 Assembler
  C:\KEIL\C51\LIB\C51L.LIB (?C?OFFX256)
         COMMENT TYPE 1: A51 / ASM51 Assembler
  C:\KEIL\C51\LIB\C51L.LIB (?C?OFFXADD)
         COMMENT TYPE 1: A51 / ASM51 Assembler
  C:\KEIL\C51\LIB\C51L.LIB (?C?PLDXDATA)
         COMMENT TYPE 1: A51 / ASM51 Assembler
  C:\KEIL\C51\LIB\C51L.LIB (?C?PLDIXDATA)
         COMMENT TYPE 1: A51 / ASM51 Assembler
  C:\KEIL\C51\LIB\C51L.LIB (?C?PSTXDATA)
         COMMENT TYPE 1: A51 / ASM51 Assembler
  C:\KEIL\C51\LIB\C51L.LIB (?C?PLDCODE)
         COMMENT TYPE 1: A51 / ASM51 Assembler
  C:\KEIL\C51\LIB\C51L.LIB (?C?PLDPTR)
         COMMENT TYPE 1: A51 / ASM51 Assembler
  C:\KEIL\C51\LIB\C51L.LIB (?C?PLDOPTR)
         COMMENT TYPE 1: A51 / ASM51 Assembler
  C:\KEIL\C51\LIB\C51L.LIB (?C?CCASE)
         COMMENT TYPE 1: A51 / ASM51 Assembler
  C:\KEIL\C51\LIB\C51L.LIB (?C?ICALL)
         COMMENT TYPE 1: A51 / ASM51 Assembler
  C:\KEIL\C51\LIB\C51L.LIB (?C_XBP)
         COMMENT TYPE 1: A51 / ASM51 Assembler
  C:\KEIL\C51\LIB\C51L.LIB (GETS)
         COMMENT TYPE 1: C51 Compiler
  C:\KEIL\C51\LIB\C51L.LIB (ATOI)
         COMMENT TYPE 1: C51 Compiler
  C:\KEIL\C51\LIB\C51L.LIB (?C?MEMSET)
         COMMENT TYPE 1: A51 / ASM51 Assembler
  C:\KEIL\C51\LIB\C51L.LIB (?C?COPYP2)
         COMMENT TYPE 1: A51 / ASM51 Assembler
  C:\KEIL\C51\LIB\C51L.LIB (?C?STRCMPP2)
         COMMENT TYPE 1: A51 / ASM51 Assembler
  C:\KEIL\C51\LIB\C51L.LIB (?C?CSTOPTR)
         COMMENT TYPE 1: A51 / ASM51 Assembler
  C:\KEIL\C51\LIB\C51L.LIB (?C?ILDIX)
         COMMENT TYPE 1: A51 / ASM51 Assembler
  C:\KEIL\C51\LIB\C51L.LIB (?C?PLDIDATA)
         COMMENT TYPE 1: A51 / ASM51 Assembler
  C:\KEIL\C51\LIB\C51L.LIB (?C?PLDPDATA)
         COMMENT TYPE 1: A51 / ASM51 Assembler
  C:\KEIL\C51\LIB\C51L.LIB (GETCHAR)
         COMMENT TYPE 1: A51 / ASM51 Assembler
  C:\KEIL\C51\LIB\C51L.LIB (ISDIGIT)
         COMMENT TYPE 1: C51 Compiler
  C:\KEIL\C51\LIB\C51L.LIB (ISSPACE)
         COMMENT TYPE 1: C51 Compiler


ACTIVE MEMORY CLASSES OF MODULE:  Clock (SM)

BASE        START       END         USED      MEMORY CLASS
==========================================================
X:000000H   X:000000H   X:0003FFH   0000EBH   XDATA
X:000000H   X:000000H   X:0003FFH             HDATA
C:000000H   C:000000H   C:00FFFFH             ECODE
B00:0000H   C:000000H   C:00FFFFH             HCONST
C:000000H   C:000000H   C:00FFFFH   008D57H   CODE
C:000000H   C:000000H   C:00FFFFH   004854H   CONST
I:000000H   I:000000H   I:0000FFH   00002DH   IDATA
LX51 LINKER/LOCATER V4.66.87.0                                                        06/04/2018  21:13:51  PAGE 5


I:000020H.0 I:000020H.0 I:00002FH.7 000005H.6 BIT
I:000000H   I:000000H   I:00007FH   00001FH   DATA


MEMORY MAP OF MODULE:  Clock (SM)


START     STOP      LENGTH    ALIGN  RELOC    MEMORY CLASS   SEGMENT NAME
=========================================================================

* * * * * * * * * * *   D A T A   M E M O R Y   * * * * * * * * * * * * *
000000H   000007H   000008H   ---    AT..     DATA           "REG BANK 0"
000008H   00000FH   000008H   ---    AT..     DATA           "REG BANK 1"
000010H   000017H   000008H   ---    AT..     DATA           "REG BANK 2"
000018H   00001CH   000005H   BYTE   UNIT     DATA           _DATA_GROUP_
00001DH   00001EH   000002H   BYTE   UNIT     DATA           ?C?LIB_DATA
00001FH.0 00001FH.7 000001H.0 ---    ---      **GAP**
000020H.0 000021H.3 000001H.4 BIT    UNIT     BIT            _BIT_GROUP_
000021H.4 000022H.0 000000H.5 BIT    UNIT     BIT            ?BI?LT_TIMER
000022H.1 000022H.4 000000H.4 BIT    UNIT     BIT            ?BI?TIMER
000022H.5 000022H.7 000000H.3 BIT    UNIT     BIT            ?BI?MOD_COMMON
000023H.0 000023H.2 000000H.3 BIT    UNIT     BIT            ?BI?CLOCK
000023H.3 000023H.4 000000H.2 BIT    UNIT     BIT            ?BI?COM
000023H.5 000023H.6 000000H.2 BIT    UNIT     BIT            ?BI?KEY
000023H.7 000024H.0 000000H.2 BIT    UNIT     BIT            ?BI?ALARM
000024H.1 000024H.2 000000H.2 BIT    UNIT     BIT            ?BI?BEEPER
000024H.3 000024H.3 000000H.1 BIT    UNIT     BIT            ?BI?RTC_SET_EOSC?RTC
000024H.4 000024H.4 000000H.1 BIT    UNIT     BIT            ?BI?RTC_SET_BBSQW?RTC
000024H.5 000024H.5 000000H.1 BIT    UNIT     BIT            ?BI?RTC_SET_CONV?RTC
000024H.6 000024H.6 000000H.1 BIT    UNIT     BIT            ?BI?RTC_SET_OSF?RTC
000024H.7 000024H.7 000000H.1 BIT    UNIT     BIT            ?BI?RTC
000025H.0 000025H.0 000000H.1 BIT    UNIT     BIT            ?BI?LED
000025H.1 000025H.1 000000H.1 BIT    UNIT     BIT            ?BI?POWER
000025H.2 000025H.2 000000H.1 BIT    UNIT     BIT            ?BI?FUSE
000025H.3 000025H.3 000000H.1 BIT    UNIT     BIT            ?BI?HG
000025H.4 000025H.4 000000H.1 BIT    UNIT     BIT            ?BI?DEBUG
000025H.5 000025H.5 000000H.1 BIT    UNIT     BIT            ?BI?GETCHAR
000025H.6 000025H   000000H.2 ---    ---      **GAP**
000026H   000035H   000010H   BYTE   UNIT     IDATA          ?ID?COM
000036H   00003EH   000009H   BYTE   UNIT     IDATA          ?ID?LED
00003FH   000047H   000009H   BYTE   UNIT     IDATA          ?ID?CLOCK
000048H   00004DH   000006H   BYTE   UNIT     IDATA          ?ID?LT_TIMER
00004EH   000051H   000004H   BYTE   UNIT     IDATA          ?ID?TASK
000052H   000052H   000001H   BYTE   UNIT     IDATA          ?STACK

* * * * * * * * * * *   C O D E   M E M O R Y   * * * * * * * * * * * * *
000000H   000002H   000003H   ---    OFFS..   CODE           ?CO?STARTUP?3
000003H   000005H   000003H   BYTE   OFFS..   CODE           ?KEY?00003
000006H   00000AH   000005H   BYTE   UNIT     CODE           ?PR?RTC_SET_LT_TIMER?RTC
00000BH   00000DH   000003H   BYTE   OFFS..   CODE           ?CLOCK?0000B
00000EH   000012H   000005H   BYTE   UNIT     CODE           ?PR?__RTC_GET_DATE?RTC
000013H   000015H   000003H   BYTE   OFFS..   CODE           ?INT_HUB?00013
000016H   000022H   00000DH   BYTE   UNIT     CODE           ?PR?COM_LEAVE_POWERSAVE?COM
000023H   000025H   000003H   BYTE   OFFS..   CODE           ?COM?00023
000026H   00002AH   000005H   BYTE   UNIT     CODE           ?PR?ALARM0_SET_HOUR_12?ALARM
00002BH   00002DH   000003H   BYTE   OFFS..   CODE           ?BEEPER?0002B
00002EH   000AC8H   000A9BH   BYTE   UNIT     CODE           ?C?LIB_CODE
000AC9H   000F4BH   000483H   BYTE   UNIT     CODE           ?PR?PRINTF?PRINTF
000F4CH   0011B1H   000266H   BYTE   UNIT     CODE           ?PR?_INT_HUB_DUMP_EXT_STATUS?INT_HUB
0011B2H   0013FBH   00024AH   BYTE   UNIT     CODE           ?PR?RTC_DUMP?RTC
0013FCH   00162AH   00022FH   BYTE   UNIT     CODE           ?PR?SERIAL_DUMP?SERIAL_HUB
00162BH   001836H   00020CH   BYTE   UNIT     CODE           ?PR?_DISPLAY_TEST?SM_FUSE_TEST
001837H   001A24H   0001EEH   BYTE   UNIT     CODE           ?PR?_SM_FUSE_TEST_THERMO?SM_FUSE_TEST
001A25H   001BDCH   0001B8H   BYTE   UNIT     CODE           ?PR?_SM_FUSE_TEST_HG_MPU?SM_FUSE_TEST
001BDDH   001D76H   00019AH   BYTE   UNIT     CODE           ?PR?_UPDATE_ALARM?SM_CLOCK_MOD_ALARM
LX51 LINKER/LOCATER V4.66.87.0                                                        06/04/2018  21:13:51  PAGE 6


001D77H   001F08H   000192H   BYTE   UNIT     CODE           ?PR?_RUN_STATE_MACHINE?SM
001F09H   00207CH   000174H   BYTE   UNIT     CODE           ?PR?_UPDATE_TIME?SM_FUSE_PARAM
00207DH   0021EBH   00016FH   BYTE   UNIT     CODE           ?PR?SM
0021ECH   002358H   00016DH   BYTE   UNIT     CODE           ?PR?CLOCK_INC_MS39?CLOCK
002359H   0024C4H   00016CH   BYTE   UNIT     CODE           ?PR?_CMD_THERMO?CMD_THERMO
0024C5H   00262FH   00016BH   BYTE   UNIT     CODE           ?PR?_SM_FUSE_TEST_SUBMOD0?SM_FUSE_TEST
002630H   002782H   000153H   BYTE   UNIT     CODE           ?PR?RUN_SHELL?SHELL
002783H   002895H   000113H   BYTE   UNIT     CODE           ?PR?_CMD_SM?CMD_SM
002896H   0029A6H   000111H   BYTE   UNIT     CODE           ?PR?LT_TIMER_SUB_DATE?LT_TIMER
0029A7H   002AB2H   00010CH   BYTE   UNIT     CODE           ?PR?_CLOCK_YYMMDD_TO_DAY?CLOCK
002AB3H   002BB8H   000106H   BYTE   UNIT     CODE           ?PR?_SCAN_KEY_PROC?KEY
002BB9H   002CBEH   000106H   BYTE   UNIT     CODE           ?PR?_SM_FUSE_TIMER_SUBMOD0?SM_FUSE_TIMER
002CBFH   002DC0H   000102H   BYTE   UNIT     CODE           ?PR?_DISPLAY_GLOBAL_FLAG?SM_GLOBAL_FLAG_MOD
002DC1H   002EBDH   0000FDH   BYTE   UNIT     CODE           ?PR?TIMER_INC_MS39?TIMER
002EBEH   002FB1H   0000F4H   BYTE   UNIT     CODE           ?PR?SM_DUMP?SM
002FB2H   0030A2H   0000F1H   BYTE   UNIT     CODE           ?PR?RTC_INITIALIZE?RTC
0030A3H   003192H   0000F0H   BYTE   UNIT     CODE           ?PR?__BEEPLER_PLAY?BEEPER
003193H   003280H   0000EEH   BYTE   UNIT     CODE           ?PR?_CMD_BEEPER?CMD_BEEPER
003281H   00336DH   0000EDH   BYTE   UNIT     CODE           ?PR?_GETS?GETS
00336EH   003457H   0000EAH   BYTE   UNIT     CODE           ?PR?_CHECK_AND_SET?SM_FUSE_TIMER
003458H   003535H   0000DEH   BYTE   UNIT     CODE           ?PR?_DISPLAY_ALARM?SM_CLOCK_ALARM
003536H   003610H   0000DBH   BYTE   UNIT     CODE           ?PR?_ATOI?ATOI
003611H   0036DEH   0000CEH   BYTE   UNIT     CODE           ?PR?_SM_SET_STATE_BY_NAME?SM
0036DFH   0037AAH   0000CCH   BYTE   UNIT     CODE           ?PR?RTC_ALARM_GET_MODE?RTC
0037ABH   003871H   0000C7H   BYTE   UNIT     CODE           ?PR?_SM_FUSE_TIMER_SUBMOD2?SM_FUSE_TIMER
003872H   003936H   0000C5H   BYTE   UNIT     CODE           ?PR?RTC
003937H   0039FBH   0000C5H   BYTE   UNIT     CODE           ?PR?_I2C_WRITE?CMD_I2C
0039FCH   003ABDH   0000C2H   BYTE   UNIT     CODE           ?PR?UPDATE_HHMMSS?SM_CLOCK_MOD_TIME
003ABEH   003B79H   0000BCH   BYTE   UNIT     CODE           ?PR?_UPDATE_SET?SM_FUSE_TEST
003B7AH   003C35H   0000BCH   BYTE   UNIT     CODE           ?PR?_CMD_TASK?CMD_TASK
003C36H   003CEFH   0000BAH   BYTE   UNIT     CODE           ?PR?_SM_CLOCK_MOD_TIME?SM_CLOCK_MOD_TIME
003CF0H   003DA7H   0000B8H   BYTE   UNIT     CODE           ?PR?_SM_SET_TABLE_BY_NAME?SM
003DA8H   003E56H   0000AFH   BYTE   UNIT     CODE           ?PR?ROM_RESET?ROM
003E57H   003EFDH   0000A7H   BYTE   UNIT     CODE           ?PR?RUN_TASK?TASK
003EFEH   003FA3H   0000A6H   BYTE   UNIT     CODE           ?PR?_CMD_SERIAL?CMD_SERIAL
003FA4H   004048H   0000A5H   BYTE   UNIT     CODE           ?PR?_DISPLAY_PREARM?SM_FUSE_TIMER
004049H   0040E6H   00009EH   BYTE   UNIT     CODE           ?PR?_RTC_DATE_SET_DATE?RTC
0040E7H   004183H   00009DH   BYTE   UNIT     CODE           ?PR?UPDATE_HHMMSS?SM_CLOCK_COUNTER
004184H   00421FH   00009CH   BYTE   UNIT     CODE           ?PR?LT_TIMER_DEC_SEC?LT_TIMER
004220H   0042B9H   00009AH   BYTE   UNIT     CODE           ?PR?_INC_ONLY?SM_CLOCK_MOD_TIME
0042BAH   00434FH   000096H   BYTE   UNIT     CODE           ?PR?_RTC_GET_TEMPERATURE?RTC
004350H   0043E2H   000093H   BYTE   UNIT     CODE           ?PR?CLOCK_DUMP?CLOCK
0043E3H   004474H   000092H   BYTE   UNIT     CODE           ?PR?_SM_CLOCK_COUNTER_SUBMOD0?SM_CLOCK_COUNTER
004475H   004504H   000090H   BYTE   UNIT     CODE           ?PR?_ENTER_SET?SM_FUSE_TEST
004505H   004594H   000090H   BYTE   UNIT     CODE           ?PR?_SM_FUSE_PARAM_SUBMOD6?SM_FUSE_PARAM
004595H   004622H   00008EH   BYTE   UNIT     CODE           ?PR?LT_TIMER
004623H   0046AEH   00008CH   BYTE   UNIT     CODE           ?PR?UPDATE_YYMMDD?SM_CLOCK_MOD_TIME
0046AFH   004739H   00008BH   BYTE   UNIT     CODE           ?PR?_RTC_ALARM_SET_MODE?RTC
00473AH   0047C4H   00008BH   BYTE   UNIT     CODE           ?PR?DISPLAY_TEMP?SM_CLOCK_DISPLAY
0047C5H   00484DH   000089H   BYTE   UNIT     CODE           ?PR?_I2C_READ?CMD_I2C
00484EH   0048D4H   000087H   BYTE   UNIT     CODE           ?PR?_SM_SET_SUB_STATE_BY_NAME?SM
0048D5H   004958H   000084H   BYTE   UNIT     CODE           ?PR?LT_TIMER_GET_RELATIVE?LT_TIMER
004959H   0049DBH   000083H   BYTE   UNIT     CODE           ?PR?SM_FUSE_TEST
0049DCH   004A5AH   00007FH   BYTE   UNIT     CODE           ?PR?_DISPLAY_SLOT?SM_CLOCK_TIMER
004A5BH   004AD8H   00007EH   BYTE   UNIT     CODE           ?PR?_SCAN_FUSE?FUSE
004AD9H   004B55H   00007DH   BYTE   UNIT     CODE           ?PR?ROM_DUMP?ROM
004B56H   004BD1H   00007CH   BYTE   UNIT     CODE           ?PR?_CALL_CMD?SHELL
004BD2H   004C4CH   00007BH   BYTE   UNIT     CODE           ?PR?_WRITE_ONLY?SM_FUSE_PARAM
004C4DH   004CC6H   00007AH   BYTE   UNIT     CODE           ?PR?TASK_DUMP?TASK
004CC7H   004D40H   00007AH   BYTE   UNIT     CODE           ?PR?CLOCK
004D41H   004DB8H   000078H   BYTE   UNIT     CODE           ?PR?SCAN_ALARM?ALARM
004DB9H   004E30H   000078H   BYTE   UNIT     CODE           ?PR?_INC_ONLY?SM_FUSE_PARAM
004E31H   004EA8H   000078H   BYTE   UNIT     CODE           ?PR?_CMD_MPU?CMD_MPU
004EA9H   004F1DH   000075H   BYTE   UNIT     CODE           ?PR?_SCAN_HG?HG
004F1EH   004F92H   000075H   BYTE   UNIT     CODE           ?PR?_SM_CLOCK_ALARM?SM_CLOCK_ALARM
LX51 LINKER/LOCATER V4.66.87.0                                                        06/04/2018  21:13:51  PAGE 7


004F93H   005003H   000071H   BYTE   UNIT     CODE           ?PR?_SM_CLOCK_TIMER_SUBMOD1?SM_CLOCK_TIMER
005004H   005074H   000071H   BYTE   UNIT     CODE           ?PR?VERIFY_PASSWORD?SM_FUSE_TIMER
005075H   0050E5H   000071H   BYTE   UNIT     CODE           ?PR?_INC_WRITE?SM_GLOBAL_FLAG_MOD
0050E6H   005153H   00006EH   BYTE   UNIT     CODE           ?PR?_I2C_GETS?I2C
005154H   0051C0H   00006DH   BYTE   UNIT     CODE           ?PR?COM_ISR?COM
0051C1H   00522BH   00006BH   BYTE   UNIT     CODE           ?PR?_CLOCK_SYNC_TO_RTC?CLOCK
00522CH   005296H   00006BH   BYTE   UNIT     CODE           ?PR?_SM_FUSE_PARAM_SET_TIME?SM_FUSE_PARAM
005297H   005300H   00006AH   BYTE   UNIT     CODE           ?PR?TIMER
005301H   00536AH   00006AH   BYTE   UNIT     CODE           ?PR?INT_HUB_INITIALIZE?INT_HUB
00536BH   0053D3H   000069H   BYTE   UNIT     CODE           ?PR?_THERMO_LO_THRESHOLD_SET?THERMO
0053D4H   00543AH   000067H   BYTE   UNIT     CODE           ?PR?_WRITE_ONLY?SM_CLOCK_MOD_TIME
00543BH   00549FH   000065H   BYTE   UNIT     CODE           ?PR?ALARM_DUMP?ALARM
0054A0H   005504H   000065H   BYTE   UNIT     CODE           ?PR?_DISPLAY_LOGO?MOD_COMMON
005505H   005567H   000063H   BYTE   UNIT     CODE           ?PR?INT_HUB_GET_STATUS?INT_HUB
005568H   0055C8H   000061H   BYTE   UNIT     CODE           ?PR?_ALARM0_SET_ENABLE?ALARM
0055C9H   005629H   000061H   BYTE   UNIT     CODE           ?PR?_CLOCK_SYNC_FROM_RTC?CLOCK
00562AH   005689H   000060H   BYTE   UNIT     CODE           ?PR?_SM_CLOCK_MOD_ALARM_SUBMOD0?SM_CLOCK_MOD_ALARM
00568AH   0056E9H   000060H   BYTE   UNIT     CODE           ?PR?_INC_ONLY?SM_FUSE_TEST
0056EAH   005749H   000060H   BYTE   UNIT     CODE           ?PR?_SM_FUSE_DETONATE_SUBMOD0?SM_FUSE_DETONATE
00574AH   0057A8H   00005FH   BYTE   UNIT     CODE           ?PR?_SM_CLOCK_COUNTER_SUBMOD2?SM_CLOCK_COUNTER
0057A9H   005804H   00005CH   BYTE   UNIT     CODE           ?PR?_THERMO_HI_THRESHOLD_SET?THERMO
005805H   005860H   00005CH   BYTE   UNIT     CODE           ?PR?_SM_CLOCK_TIMER_SUBMOD2?SM_CLOCK_TIMER
005861H   0058BCH   00005CH   BYTE   UNIT     CODE           ?PR?_SM_CLOCK_COUNTER_SUBMOD1?SM_CLOCK_COUNTER
0058BDH   005918H   00005CH   BYTE   UNIT     CODE           ?PR?_SM_CLOCK_MOD_ALARM_SUBMOD1?SM_CLOCK_MOD_ALARM
005919H   005974H   00005CH   BYTE   UNIT     CODE           ?PR?_SM_FUSE_SET?SM_FUSE_TEST
005975H   0059CEH   00005AH   BYTE   UNIT     CODE           ?PR?REFRESH_LED?LED
0059CFH   005A27H   000059H   BYTE   UNIT     CODE           ?PR?SM_DUMP_SUB_STATE?SM
005A28H   005A80H   000059H   BYTE   UNIT     CODE           ?PR?_RTC_READ_DATA?RTC
005A81H   005AD9H   000059H   BYTE   UNIT     CODE           ?PR?_WRITE_ONLY?SM_FUSE_TEST
005ADAH   005B31H   000058H   BYTE   UNIT     CODE           ?PR?_LT_TIMER_SAVE_TO_ROM?LT_TIMER
005B32H   005B89H   000058H   BYTE   UNIT     CODE           ?PR?_SCAN_THERMO?THERMO
005B8AH   005BE0H   000057H   BYTE   UNIT     CODE           ?PR?_RTC_WRITE_DATA?RTC
005BE1H   005C37H   000057H   BYTE   UNIT     CODE           ?PR?_SM_CLOCK_MOD_ALARM_SUBMOD2?SM_CLOCK_MOD_ALARM
005C38H   005C8EH   000057H   BYTE   UNIT     CODE           ?PR?_SM_FUSE_TIMER_SUBMOD1?SM_FUSE_TIMER
005C8FH   005CE3H   000055H   BYTE   UNIT     CODE           ?PR?_I2C_PUTS?I2C
005CE4H   005D38H   000055H   BYTE   UNIT     CODE           ?PR?DISPLAY_POWER_VOLUME?SM_POWER_PACK_DISPLAY
005D39H   005D8CH   000054H   BYTE   UNIT     CODE           ?PR?_CMD_HELP?CMD_HELP
005D8DH   005DDFH   000053H   BYTE   UNIT     CODE           ?PR?_SM_POWER_PACK_DISPLAY_SUBMOD0?SM_POWER_PACK_DISPLAY
005DE0H   005E32H   000053H   BYTE   UNIT     CODE           ?PR?_UPDATE_HG_MASK?SM_FUSE_TEST
005E33H   005E84H   000052H   BYTE   UNIT     CODE           ?PR?_SCAN_INT_HUB_PROC?INT_HUB
005E85H   005ED5H   000051H   BYTE   UNIT     CODE           ?PR?ALARM0_SYNC_TO_RTC?ALARM
005ED6H   005F26H   000051H   BYTE   UNIT     CODE           ?PR?DELAY_TASK_CALL?DELAY_TASK
005F27H   005F76H   000050H   BYTE   UNIT     CODE           ?PR?SM_DUMP_STATE?SM
005F77H   005FC6H   000050H   BYTE   UNIT     CODE           ?PR?_MOD_PROC?KEY
005FC7H   006016H   000050H   BYTE   UNIT     CODE           ?PR?_SET_PROC?KEY
006017H   006066H   000050H   BYTE   UNIT     CODE           ?PR?_LED_SET_CODE?LED
006067H   0060B4H   00004EH   BYTE   UNIT     CODE           ?PR?INT_HUB_DUMP?INT_HUB
0060B5H   006102H   00004EH   BYTE   UNIT     CODE           ?PR?SHELL
006103H   00614EH   00004CH   BYTE   UNIT     CODE           ?PR?MAIN?MAIN
00614FH   00619AH   00004CH   BYTE   UNIT     CODE           ?PR?POWER_ENTER_POWERSAVE?POWER
00619BH   0061E6H   00004CH   BYTE   UNIT     CODE           ?PR?_WRITE_ONLY?SM_CLOCK_MOD_ALARM
0061E7H   006230H   00004AH   BYTE   UNIT     CODE           ?PR?SCAN_LT_TIMER?LT_TIMER
006231H   006279H   000049H   BYTE   UNIT     CODE           ?PR?_DELAY_TASK_REG?DELAY_TASK
00627AH   0062C2H   000049H   BYTE   UNIT     CODE           ?PR?_SHELL_SEARCH_CMD_BY_NAME?SHELL
0062C3H   00630BH   000049H   BYTE   UNIT     CODE           ?PR?_SM_CLOCK_DISPLAY_SUBMOD0?SM_CLOCK_DISPLAY
00630CH   006354H   000049H   BYTE   UNIT     CODE           ?PR?_SM_FUSE_PARAM_SUBMOD0?SM_FUSE_PARAM
006355H   00639CH   000048H   BYTE   UNIT     CODE           ?PR?_SM_CLOCK_TIMER_SUBMOD0?SM_CLOCK_TIMER
00639DH   0063E3H   000047H   BYTE   UNIT     CODE           ?PR?THERMO
0063E4H   00642AH   000047H   BYTE   UNIT     CODE           ?PR?_CMD_DBG?CMD_DBG
00642BH   00646FH   000045H   BYTE   UNIT     CODE           ?PR?RTC_DUMP_RAW?RTC
006470H   0064B4H   000045H   BYTE   UNIT     CODE           ?PR?_INC_ONLY?SM_CLOCK_COUNTER
0064B5H   0064F8H   000044H   BYTE   UNIT     CODE           ?PR?_CMD_REBOOT?CMD_REBOOT
0064F9H   00653BH   000043H   BYTE   UNIT     CODE           ?PR?BEEPER_INITIALIZE?BEEPER
00653CH   00657DH   000042H   BYTE   UNIT     CODE           ?PR?BEEPER_BEEP_BEEP?BEEPER
00657EH   0065BFH   000042H   BYTE   UNIT     CODE           ?PR?LT_TIMER_SYNC_TO_RTC?LT_TIMER
LX51 LINKER/LOCATER V4.66.87.0                                                        06/04/2018  21:13:51  PAGE 8


0065C0H   006600H   000041H   BYTE   UNIT     CODE           ?PR?LT_TIMER_LOAD_FROM_ROM?LT_TIMER
006601H   006640H   000040H   BYTE   UNIT     CODE           ?PR?_THERMO_TEMP_TO_HEX?THERMO
006641H   006680H   000040H   BYTE   UNIT     CODE           ?PR?_SM_CLOCK_COUNTER_SUBMOD3?SM_CLOCK_COUNTER
006681H   0066BFH   00003FH   BYTE   UNIT     CODE           ?PR?SM_SHOW_CURRENT?SM
0066C0H   0066FEH   00003FH   BYTE   UNIT     CODE           ?PR?ALARM1_SYNC_TO_RTC?ALARM
0066FFH   00673DH   00003FH   BYTE   UNIT     CODE           ?PR?BEEPER_BEEP_BEEP_ALWAYS?BEEPER
00673EH   00677BH   00003EH   BYTE   UNIT     CODE           ?PR?__RTC_SET_HOUR?RTC
00677CH   0067B9H   00003EH   BYTE   UNIT     CODE           ?PR?_FUSE_SET_FUSE_BROKE?FUSE
0067BAH   0067F7H   00003EH   BYTE   UNIT     CODE           ?PR?ROM_INITIALIZE?ROM
0067F8H   006834H   00003DH   BYTE   UNIT     CODE           ?PR?_THERMO_THRESHOLD_INC?THERMO
006835H   006871H   00003DH   BYTE   UNIT     CODE           ?PR?_DISPLAY_TIMER?SM_FUSE_TIMER
006872H   0068ADH   00003CH   BYTE   UNIT     CODE           ?PR?_SM_FUSE_TEST_INIT?SM_FUSE_TEST
0068AEH   0068E8H   00003BH   BYTE   UNIT     CODE           ?PR?CMD_SM
0068E9H   006922H   00003AH   BYTE   UNIT     CODE           ?PR?LED_INITIALIZE?LED
006923H   00695CH   00003AH   BYTE   UNIT     CODE           ?PR?LT_TIMER_SUB_MIN_HOUR?LT_TIMER
00695DH   006996H   00003AH   BYTE   UNIT     CODE           ?PR?LT_TIMER_SUB_HOUR_DATE?LT_TIMER
006997H   0069D0H   00003AH   BYTE   UNIT     CODE           ?PR?SERIAL_HUB_INITIALIZE?SERIAL_HUB
0069D1H   006A0AH   00003AH   BYTE   UNIT     CODE           ?PR?_ENTER_ALARM?SM_CLOCK_MOD_ALARM
006A0BH   006A43H   000039H   BYTE   UNIT     CODE           ?PR?_SHOW_SLOT_TITLE?SM_CLOCK_TIMER
006A44H   006A7CH   000039H   BYTE   UNIT     CODE           ?PR?_UPDATE_PASSWORD?SM_FUSE_PARAM
006A7DH   006AB5H   000039H   BYTE   UNIT     CODE           ?PR?_CMD_INT?CMD_INT
006AB6H   006AEDH   000038H   BYTE   UNIT     CODE           ?PR?SM_DUMP_TABLE?SM
006AEEH   006B25H   000038H   BYTE   UNIT     CODE           ?PR?CLOCK0_ISR?CLOCK
006B26H   006B5DH   000038H   BYTE   UNIT     CODE           ?PR?_ENTER_TIME?SM_FUSE_PARAM
006B5EH   006B94H   000037H   BYTE   UNIT     CODE           ?PR?_DEBUG_PRINTF?DEBUG
006B95H   006BCAH   000036H   BYTE   UNIT     CODE           ?PR?_MOD_SET_PROC?KEY
006BCBH   006C00H   000036H   BYTE   UNIT     CODE           ?PR?FUSE_TRIGGER?FUSE
006C01H   006C35H   000035H   BYTE   UNIT     CODE           ?PR?SHELL_DUMP_CMD?SHELL
006C36H   006C6AH   000035H   BYTE   UNIT     CODE           ?PR?ROLL_BACK?SM_FUSE_TIMER
006C6BH   006C9FH   000035H   BYTE   UNIT     CODE           ?PR?_VPRINTF?VPRINTF
006CA0H   006CD3H   000034H   BYTE   UNIT     CODE           ?PR?ALARM_SAVE_ROM?ALARM
006CD4H   006D07H   000034H   BYTE   UNIT     CODE           ?PR?_ROM_READ?ROM
006D08H   006D3BH   000034H   BYTE   UNIT     CODE           ?PR?_INC_ONLY?SM_CLOCK_MOD_ALARM
006D3CH   006D6EH   000033H   BYTE   UNIT     CODE           ?PR?ALARM_LOAD_ROM?ALARM
006D6FH   006DA1H   000033H   BYTE   UNIT     CODE           ?PR?POWER_INITIALIZE?POWER
006DA2H   006DD4H   000033H   BYTE   UNIT     CODE           ?PR?_CMD_I2C?CMD_I2C
006DD5H   006E06H   000032H   BYTE   UNIT     CODE           ?PR?INT0_ISR?KEY
006E07H   006E38H   000032H   BYTE   UNIT     CODE           ?PR?_SM_CLOCK_POWERSAVE?SM_CLOCK_POWERSAVE
006E39H   006E69H   000031H   BYTE   UNIT     CODE           ?PR?THERMO_GET_CURRENT?THERMO
006E6AH   006E9AH   000031H   BYTE   UNIT     CODE           ?PR?_ROM_WRITE?ROM
006E9BH   006ECBH   000031H   BYTE   UNIT     CODE           ?PR?MPU_POWER_ON?MPU
006ECCH   006EFBH   000030H   BYTE   UNIT     CODE           ?PR?POWER_LEAVE_POWERSAVE?POWER
006EFCH   006F2BH   000030H   BYTE   UNIT     CODE           ?PR?POWER_TEST_POWERSAVE_TO?POWER
006F2CH   006F5BH   000030H   BYTE   UNIT     CODE           ?PR?_SERIAL_SET_CTL_BIT?SERIAL_HUB
006F5CH   006F8BH   000030H   BYTE   UNIT     CODE           ?PR?DISPLAY_PASSWORD?SM_FUSE_TIMER
006F8CH   006FBAH   00002FH   BYTE   UNIT     CODE           ?PR?_PUTBUF?COM
006FBBH   006FE9H   00002FH   BYTE   UNIT     CODE           ?PR?I2C_READ?I2C
006FEAH   007018H   00002FH   BYTE   UNIT     CODE           ?PR?_ALARM0_TEST_ENABLE?ALARM
007019H   007047H   00002FH   BYTE   UNIT     CODE           ?PR?SCAN_MPU?MPU
007048H   007075H   00002EH   BYTE   UNIT     CODE           ?PR?SHOW_VERSION?MAIN
007076H   0070A3H   00002EH   BYTE   UNIT     CODE           ?PR?_SERIAL_TEST_CTL_BIT?SERIAL_HUB
0070A4H   0070D1H   00002EH   BYTE   UNIT     CODE           ?PR?MPU_POWER_OFF?MPU
0070D2H   0070FFH   00002EH   BYTE   UNIT     CODE           ?PR?SM_FUSE_TIMER
007100H   00712CH   00002DH   BYTE   UNIT     CODE           ?PR?BEEPER_ISR?BEEPER
00712DH   007159H   00002DH   BYTE   UNIT     CODE           ?PR?CLOCK_INITIALIZE?CLOCK
00715AH   007186H   00002DH   BYTE   UNIT     CODE           ?PR?_SM_CLOCK_DISPLAY_SUBMOD1?SM_CLOCK_DISPLAY
007187H   0071B2H   00002CH   BYTE   UNIT     CODE           ?PR?__RTC_SET_MIN_SEC?RTC
0071B3H   0071DEH   00002CH   BYTE   UNIT     CODE           ?PR?__RTC_SET_DATE?RTC
0071DFH   00720AH   00002CH   BYTE   UNIT     CODE           ?PR?_ALARM_PROC?ALARM
00720BH   007236H   00002CH   BYTE   UNIT     CODE           ?PR?_WRITE_ONLY?SM_CLOCK_COUNTER
007237H   007262H   00002CH   BYTE   UNIT     CODE           ?PR?_SM_CLOCK_MOD_TIME_SUBMOD0?SM_CLOCK_MOD_TIME
007263H   00728DH   00002BH   BYTE   UNIT     CODE           ?PR?_SM_CLOCK_MOD_ALARM_SUBMOD3?SM_CLOCK_MOD_ALARM
00728EH   0072B8H   00002BH   BYTE   UNIT     CODE           ?PR?_SM_CLOCK_MOD_ALARM_SUBMOD4?SM_CLOCK_MOD_ALARM
0072B9H   0072E3H   00002BH   BYTE   UNIT     CODE           ?PR?_ENTER_YYMMDD?SM_CLOCK_MOD_TIME
0072E4H   00730DH   00002AH   BYTE   UNIT     CODE           ?PR?BEEPER_BEEP?BEEPER
LX51 LINKER/LOCATER V4.66.87.0                                                        06/04/2018  21:13:51  PAGE 9


00730EH   007337H   00002AH   BYTE   UNIT     CODE           ?PR?_TIMER_SAVE?TIMER
007338H   007361H   00002AH   BYTE   UNIT     CODE           ?PR?_ENTER_HHMMSS?SM_CLOCK_COUNTER
007362H   00738BH   00002AH   BYTE   UNIT     CODE           ?PR?SM_CLOCK_COUNTER
00738CH   0073B5H   00002AH   BYTE   UNIT     CODE           ?PR?_ENTER_HHMMSS?SM_CLOCK_MOD_TIME
0073B6H   0073DFH   00002AH   BYTE   UNIT     CODE           ?PR?_SM_GLOBAL_FLAG_MOD?SM_GLOBAL_FLAG_MOD
0073E0H   007408H   000029H   BYTE   UNIT     CODE           ?PR?_SM_CLOCK_DISPLAY_SUBMOD3?SM_CLOCK_DISPLAY
007409H   007430H   000028H   BYTE   UNIT     CODE           ?PR?COM_INITIALIZE?COM
007431H   007458H   000028H   BYTE   UNIT     CODE           ?PR?_RTC_SET_HOUR_12?RTC
007459H   007480H   000028H   BYTE   UNIT     CODE           ?PR?FUSE_ENABLE?FUSE
007481H   0074A8H   000028H   BYTE   UNIT     CODE           ?PR?HG_ENABLE?HG
0074A9H   0074CFH   000027H   BYTE   UNIT     CODE           ?PR?_INT_HUB_TEST_BIT?INT_HUB
0074D0H   0074F6H   000027H   BYTE   UNIT     CODE           ?PR?FUSE_POWER_ON?FUSE
0074F7H   00751DH   000027H   BYTE   UNIT     CODE           ?PR?FUSE_POWER_OFF?FUSE
00751EH   007544H   000027H   BYTE   UNIT     CODE           ?PR?_SM_FUSE_TIMER_SUBMOD3?SM_FUSE_TIMER
007545H   00756AH   000026H   BYTE   UNIT     CODE           ?PR?LED_SAVE?LED
00756BH   007590H   000026H   BYTE   UNIT     CODE           ?PR?LED_RESTORE?LED
007591H   0075B6H   000026H   BYTE   UNIT     CODE           ?PR?FUSE_SET_TRIPWIRE_BROKE?FUSE
0075B7H   0075DCH   000026H   BYTE   UNIT     CODE           ?PR?_SM_CLOCK_COUNTER_SUBMOD5?SM_CLOCK_COUNTER
0075DDH   007602H   000026H   BYTE   UNIT     CODE           ?PR?CMD_BEEPER
007603H   007627H   000025H   BYTE   UNIT     CODE           ?PR?SM_INITIALIZE?SM
007628H   00764CH   000025H   BYTE   UNIT     CODE           ?PR?_RTC_ENABLE_ALARM_INT?RTC
00764DH   007670H   000024H   BYTE   UNIT     CODE           ?PR?__RTC_GET_HOUR?RTC
007671H   007694H   000024H   BYTE   UNIT     CODE           ?PR?POWER_INC_POWERSAVE_TO?POWER
007695H   0076B8H   000024H   BYTE   UNIT     CODE           ?PR?LT_TIMER_LEAVE_POWERSAVE?LT_TIMER
0076B9H   0076DCH   000024H   BYTE   UNIT     CODE           ?PR?_THERMO_HEX_TO_TEMP?THERMO
0076DDH   007700H   000024H   BYTE   UNIT     CODE           ?PR?MPU_READ_INT_STATUS?MPU
007701H   007724H   000024H   BYTE   UNIT     CODE           ?PR?_SM_CLOCK_DISPLAY_INIT?SM_CLOCK_DISPLAY
007725H   007748H   000024H   BYTE   UNIT     CODE           ?PR?_SM_CLOCK_DISPLAY_SUBMOD2?SM_CLOCK_DISPLAY
007749H   00776CH   000024H   BYTE   UNIT     CODE           ?PR?_SM_FUSE_PARAM_INIT?SM_FUSE_PARAM
00776DH   00778FH   000023H   BYTE   UNIT     CODE           ?PR?ALARM_SWITCH_OFF?ALARM
007790H   0077B2H   000023H   BYTE   UNIT     CODE           ?PR?LT_TIMER_SWITCH_OFF?LT_TIMER
0077B3H   0077D5H   000023H   BYTE   UNIT     CODE           ?PR?THERMO_LO_THRESHOLD_GET?THERMO
0077D6H   0077F8H   000023H   BYTE   UNIT     CODE           ?PR?_SM_CLOCK_COUNTER_SUBMOD4?SM_CLOCK_COUNTER
0077F9H   00781BH   000023H   BYTE   UNIT     CODE           ?PR?SM_CLOCK_MOD_TIME
00781CH   00783DH   000022H   BYTE   UNIT     CODE           ?PR?I2C_GETACK?I2C
00783EH   00785FH   000022H   BYTE   UNIT     CODE           ?PR?BEEPER_PLAY_MUSIC?BEEPER
007860H   007881H   000022H   BYTE   UNIT     CODE           ?PR?_TIMER_GET_MS10?TIMER
007882H   0078A3H   000022H   BYTE   UNIT     CODE           ?PR?_TOGGLE_ALARM?SM_CLOCK_MOD_ALARM
0078A4H   0078C5H   000022H   BYTE   UNIT     CODE           ?PR?_INC_WRITE?SM_FUSE_TEST
0078C6H   0078E7H   000022H   BYTE   UNIT     CODE           ?PR?RESET_ALL?SM_FUSE_TEST
0078E8H   007908H   000021H   BYTE   UNIT     CODE           ?PR?THERMO_HI_THRESHOLD_GET?THERMO
007909H   007929H   000021H   BYTE   UNIT     CODE           ?PR?SM_CLOCK_TIMER
00792AH   00794AH   000021H   BYTE   UNIT     CODE           ?PR?TOGGLE_ALARM_BS?SM_CLOCK_MOD_ALARM
00794BH   00796BH   000021H   BYTE   UNIT     CODE           ?PR?CMD_I2C
00796CH   00798BH   000020H   BYTE   UNIT     CODE           ?C_C51STARTUP
00798CH   0079ABH   000020H   BYTE   UNIT     CODE           ?PR?CLOCK_INC_DATE?CLOCK
0079ACH   0079CBH   000020H   BYTE   UNIT     CODE           ?PR?DELAY_TASK
0079CCH   0079EBH   000020H   BYTE   UNIT     CODE           ?PR?MPU_LOAD_CONFIG?MPU
0079ECH   007A0BH   000020H   BYTE   UNIT     CODE           ?PR?TEST_AUTOSWITCH?SM_CLOCK_DISPLAY
007A0CH   007A2BH   000020H   BYTE   UNIT     CODE           ?PR?SM_CLOCK_DISPLAY
007A2CH   007A4BH   000020H   BYTE   UNIT     CODE           ?PR?CMD_THERMO
007A4CH   007A6AH   00001FH   BYTE   UNIT     CODE           ?PR?_I2C_WRITE?I2C
007A6BH   007A89H   00001FH   BYTE   UNIT     CODE           ?PR?THERMO_HI_ENABLE?THERMO
007A8AH   007AA8H   00001FH   BYTE   UNIT     CODE           ?PR?THERMO_LO_ENABLE?THERMO
007AA9H   007AC7H   00001FH   BYTE   UNIT     CODE           ?PR?MPU_ENABLE?MPU
007AC8H   007AE6H   00001FH   BYTE   UNIT     CODE           ?PR?_SM_FUSE_POWERSAVE_SUBMOD0?SM_FUSE_POWERSAVE
007AE7H   007B04H   00001EH   BYTE   UNIT     CODE           ?PR?LT_TIMER_START_RTC?LT_TIMER
007B05H   007B22H   00001EH   BYTE   UNIT     CODE           ?PR?LT_TIMER_STOP_RTC?LT_TIMER
007B23H   007B40H   00001EH   BYTE   UNIT     CODE           ?PR?LT_TIMER_SUB_SEC_MIN?LT_TIMER
007B41H   007B5DH   00001DH   BYTE   UNIT     CODE           ?PR?RTC_ALARM_SET_HOUR_12?RTC
007B5EH   007B7AH   00001DH   BYTE   UNIT     CODE           ?PR?_RTC_TEST_ALARM_INT?RTC
007B7BH   007B97H   00001DH   BYTE   UNIT     CODE           ?PR?_RTC_TEST_ALARM_INT_FLAG?RTC
007B98H   007BB4H   00001DH   BYTE   UNIT     CODE           ?PR?LED
007BB5H   007BD1H   00001DH   BYTE   UNIT     CODE           ?PR?_CLOCK_GET_MON_DATE?CLOCK
007BD2H   007BEEH   00001DH   BYTE   UNIT     CODE           ?PR?THERMO_HI_LOAD_CONFIG?THERMO
LX51 LINKER/LOCATER V4.66.87.0                                                        06/04/2018  21:13:51  PAGE 10


007BEFH   007C0BH   00001DH   BYTE   UNIT     CODE           ?PR?THERMO_LO_LOAD_CONFIG?THERMO
007C0CH   007C28H   00001DH   BYTE   UNIT     CODE           ?PR?_SM_POWER_PACK_POWERSAVE_SUBMOD0?SM_POWER_PACK_POWERSA
                                                             -VE
007C29H   007C45H   00001DH   BYTE   UNIT     CODE           ?PR?_SM_FUSE_TIMER_INIT?SM_FUSE_TIMER
007C46H   007C61H   00001CH   BYTE   UNIT     CODE           ?PR?_TIMER_INC_HOUR?TIMER
007C62H   007C7DH   00001CH   BYTE   UNIT     CODE           ?PR?INT_HUB
007C7EH   007C99H   00001CH   BYTE   UNIT     CODE           ?PR?_SM_CLOCK_MOD_TIME_SUBMOD2?SM_CLOCK_MOD_TIME
007C9AH   007CB5H   00001CH   BYTE   UNIT     CODE           ?PR?_SM_CLOCK_MOD_TIME_SUBMOD3?SM_CLOCK_MOD_TIME
007CB6H   007CD1H   00001CH   BYTE   UNIT     CODE           ?PR?_SM_CLOCK_MOD_TIME_SUBMOD4?SM_CLOCK_MOD_TIME
007CD2H   007CEDH   00001CH   BYTE   UNIT     CODE           ?PR?_SM_CLOCK_MOD_TIME_SUBMOD5?SM_CLOCK_MOD_TIME
007CEEH   007D09H   00001CH   BYTE   UNIT     CODE           ?PR?_SM_FUSE_TEST_SUBMOD1?SM_FUSE_TEST
007D0AH   007D25H   00001CH   BYTE   UNIT     CODE           ?PR?_SM_FUSE_TEST_SUBMOD2?SM_FUSE_TEST
007D26H   007D41H   00001CH   BYTE   UNIT     CODE           ?PR?_SM_FUSE_TEST_SUBMOD3?SM_FUSE_TEST
007D42H   007D5DH   00001CH   BYTE   UNIT     CODE           ?PR?_SM_FUSE_TEST_SUBMOD4?SM_FUSE_TEST
007D5EH   007D79H   00001CH   BYTE   UNIT     CODE           ?PR?_SM_FUSE_TEST_SUBMOD5?SM_FUSE_TEST
007D7AH   007D95H   00001CH   BYTE   UNIT     CODE           ?PR?_SM_FUSE_TEST_SUBMOD6?SM_FUSE_TEST
007D96H   007DB1H   00001CH   BYTE   UNIT     CODE           ?PR?_SM_FUSE_TEST_SUBMOD7?SM_FUSE_TEST
007DB2H   007DCDH   00001CH   BYTE   UNIT     CODE           ?PR?_SM_FUSE_TEST_SUBMOD8?SM_FUSE_TEST
007DCEH   007DE9H   00001CH   BYTE   UNIT     CODE           ?PR?_SM_FUSE_PARAM_SUBMOD1?SM_FUSE_PARAM
007DEAH   007E05H   00001CH   BYTE   UNIT     CODE           ?PR?_SM_FUSE_PARAM_SUBMOD2?SM_FUSE_PARAM
007E06H   007E21H   00001CH   BYTE   UNIT     CODE           ?PR?_SM_FUSE_PARAM_SUBMOD3?SM_FUSE_PARAM
007E22H   007E3DH   00001CH   BYTE   UNIT     CODE           ?PR?_SM_FUSE_PARAM_SUBMOD4?SM_FUSE_PARAM
007E3EH   007E59H   00001CH   BYTE   UNIT     CODE           ?PR?_SM_FUSE_PARAM_SUBMOD5?SM_FUSE_PARAM
007E5AH   007E75H   00001CH   BYTE   UNIT     CODE           ?PR?_SM_FUSE_TIMER_SUBMOD4?SM_FUSE_TIMER
007E76H   007E91H   00001CH   BYTE   UNIT     CODE           ?PR?_SM_GLOBAL_FLAG_MOD_SUBMOD2?SM_GLOBAL_FLAG_MOD
007E92H   007EADH   00001CH   BYTE   UNIT     CODE           ?PR?_SM_GLOBAL_FLAG_MOD_SUBMOD3?SM_GLOBAL_FLAG_MOD
007EAEH   007EC8H   00001BH   BYTE   UNIT     CODE           ?PR?POWER_5V_ENABLE?POWER
007EC9H   007EE3H   00001BH   BYTE   UNIT     CODE           ?PR?BEEPER_INC_MUSIC_TO?BEEPER
007EE4H   007EFEH   00001BH   BYTE   UNIT     CODE           ?PR?BEEPER
007EFFH   007F19H   00001BH   BYTE   UNIT     CODE           ?PR?HG_POWER_ON?HG
007F1AH   007F34H   00001BH   BYTE   UNIT     CODE           ?PR?SERIAL_CTL_OUT?SERIAL_HUB
007F35H   007F4FH   00001BH   BYTE   UNIT     CODE           ?PR?_SM_POWER_PACK_DISPLAY_INIT?SM_POWER_PACK_DISPLAY
007F50H   007F69H   00001AH   BYTE   UNIT     CODE           ?PR?_RTC_ALARM_SET_DATE?RTC
007F6AH   007F83H   00001AH   BYTE   UNIT     CODE           ?PR?_POWER_PROC?POWER
007F84H   007F9DH   00001AH   BYTE   UNIT     CODE           ?PR?_FUSE_PROC?FUSE
007F9EH   007FB7H   00001AH   BYTE   UNIT     CODE           ?PR?LT_TIMER_DISPLAY?LT_TIMER
007FB8H   007FD1H   00001AH   BYTE   UNIT     CODE           ?PR?_SM_CLOCK_TIMER_INIT?SM_CLOCK_TIMER
007FD2H   007FEBH   00001AH   BYTE   UNIT     CODE           ?PR?_SM_CLOCK_MOD_TIME_INIT?SM_CLOCK_MOD_TIME
007FECH   008005H   00001AH   BYTE   UNIT     CODE           ?PR?_ENTER_PASSWORD?SM_FUSE_PARAM
008006H   00801FH   00001AH   BYTE   UNIT     CODE           ?PR?SM_GLOBAL_FLAG_MOD
008020H   008038H   000019H   BYTE   UNIT     CODE           ?PR?_PUTCHAR?COM
008039H   008051H   000019H   BYTE   UNIT     CODE           ?PR?KEY_INITIALIZE?KEY
008052H   00806AH   000019H   BYTE   UNIT     CODE           ?PR?SERIAL_HUB
00806BH   008083H   000019H   BYTE   UNIT     CODE           ?PR?_SM_CLOCK_MOD_TIME_SUBMOD1?SM_CLOCK_MOD_TIME
008084H   00809CH   000019H   BYTE   UNIT     CODE           ?PR?_SM_GLOBAL_FLAG_MOD_SUBMOD0?SM_GLOBAL_FLAG_MOD
00809DH   0080B5H   000019H   BYTE   UNIT     CODE           ?PR?_SM_GLOBAL_FLAG_MOD_SUBMOD1?SM_GLOBAL_FLAG_MOD
0080B6H   0080CDH   000018H   BYTE   UNIT     CODE           ?PR?RTC_ENTER_POWERSAVE?RTC
0080CEH   0080E5H   000018H   BYTE   UNIT     CODE           ?PR?RTC_LEAVE_POWERSAVE?RTC
0080E6H   0080FDH   000018H   BYTE   UNIT     CODE           ?PR?ALARM_SWITCH_ON?ALARM
0080FEH   008115H   000018H   BYTE   UNIT     CODE           ?PR?CLOCK_LEAVE_POWERSAVE?CLOCK
008116H   00812DH   000018H   BYTE   UNIT     CODE           ?PR?_TIMER_INC_MIN?TIMER
00812EH   008145H   000018H   BYTE   UNIT     CODE           ?PR?_TIMER_INC_SEC?TIMER
008146H   00815DH   000018H   BYTE   UNIT     CODE           ?PR?TIMER_CLR?TIMER
00815EH   008175H   000018H   BYTE   UNIT     CODE           ?PR?THERMO_HI_POWER_OFF?THERMO
008176H   00818DH   000018H   BYTE   UNIT     CODE           ?PR?THERMO_LO_POWER_OFF?THERMO
00818EH   0081A5H   000018H   BYTE   UNIT     CODE           ?PR?THERMO_HI_POWER_ON?THERMO
0081A6H   0081BDH   000018H   BYTE   UNIT     CODE           ?PR?THERMO_LO_POWER_ON?THERMO
0081BEH   0081D5H   000018H   BYTE   UNIT     CODE           ?PR?_SM_GLOBAL_FLAG_MOD_INIT?SM_GLOBAL_FLAG_MOD
0081D6H   0081EDH   000018H   BYTE   UNIT     CODE           ?PR?CMD_DBG
0081EEH   008204H   000017H   BYTE   UNIT     CODE           ?PR?COM
008205H   00821BH   000017H   BYTE   UNIT     CODE           ?PR?_RTC_CLR_ALARM_INT_FLAG?RTC
00821CH   008232H   000017H   BYTE   UNIT     CODE           ?PR?_I2C_GET?I2C
008233H   008249H   000017H   BYTE   UNIT     CODE           ?PR?_LED_CLR_BLINK?LED
00824AH   008260H   000017H   BYTE   UNIT     CODE           ?PR?POWER_GET_POWERSAVE_TO?POWER
008261H   008277H   000017H   BYTE   UNIT     CODE           ?PR?BEEPER_INC_MUSIC_INDEX?BEEPER
LX51 LINKER/LOCATER V4.66.87.0                                                        06/04/2018  21:13:51  PAGE 11


008278H   00828EH   000017H   BYTE   UNIT     CODE           ?PR?_CLOCK_IS_LEAP_YEAR?CLOCK
00828FH   0082A5H   000017H   BYTE   UNIT     CODE           ?PR?LT_TIMER_SWITCH_DISPLAY?LT_TIMER
0082A6H   0082BCH   000017H   BYTE   UNIT     CODE           ?PR?SM_FUSE_PARAM
0082BDH   0082D3H   000017H   BYTE   UNIT     CODE           ?PR?DISPLAY_DETONATE?SM_FUSE_DETONATE
0082D4H   0082EAH   000017H   BYTE   UNIT     CODE           ?PR?ROLL_BACK?SM_FUSE_POWERSAVE
0082EBH   008300H   000016H   BYTE   UNIT     CODE           ?PR?RTC_ALARM_GET_HOUR?RTC
008301H   008316H   000016H   BYTE   UNIT     CODE           ?PR?RTC_ALARM_GET_HOUR_12?RTC
008317H   00832CH   000016H   BYTE   UNIT     CODE           ?PR?RTC_ALARM_GET_MIN?RTC
00832DH   008342H   000016H   BYTE   UNIT     CODE           ?PR?_RTC_ALARM_SET_DAY?RTC
008343H   008358H   000016H   BYTE   UNIT     CODE           ?PR?_RTC_ALARM_SET_SEC?RTC
008359H   00836EH   000016H   BYTE   UNIT     CODE           ?PR?I2C_STOP?I2C
00836FH   008384H   000016H   BYTE   UNIT     CODE           ?PR?_LED_SET_BLINK?LED
008385H   00839AH   000016H   BYTE   UNIT     CODE           ?PR?CLOCK_INC_MONTH?CLOCK
00839BH   0083B0H   000016H   BYTE   UNIT     CODE           ?PR?CLOCK_LEAVE_SHELL?CLOCK
0083B1H   0083C6H   000016H   BYTE   UNIT     CODE           ?PR?TIMER_START?TIMER
0083C7H   0083DCH   000016H   BYTE   UNIT     CODE           ?PR?_THERMO_PROC?THERMO
0083DDH   0083F2H   000016H   BYTE   UNIT     CODE           ?PR?CMD_MPU
0083F3H   008407H   000015H   BYTE   UNIT     CODE           ?PR?RTC_ALARM_GET_DATE?RTC
008408H   00841CH   000015H   BYTE   UNIT     CODE           ?PR?LED_LEAVE_POWERSAVE?LED
00841DH   008431H   000015H   BYTE   UNIT     CODE           ?PR?ALARM
008432H   008446H   000015H   BYTE   UNIT     CODE           ?PR?CLOCK_INC_YEAR?CLOCK
008447H   00845BH   000015H   BYTE   UNIT     CODE           ?PR?LT_TIMER_ENTER_POWERSAVE?LT_TIMER
00845CH   008470H   000015H   BYTE   UNIT     CODE           ?PR?LT_TIMER_SWITCH_ON?LT_TIMER
008471H   008485H   000015H   BYTE   UNIT     CODE           ?PR?_SM_CLOCK_COUNTER_INIT?SM_CLOCK_COUNTER
008486H   008499H   000014H   BYTE   UNIT     CODE           ?PR?COM_TRY_GET_KEY?COM
00849AH   0084ADH   000014H   BYTE   UNIT     CODE           ?PR?RTC_ALARM_GET_DAY?RTC
0084AEH   0084C1H   000014H   BYTE   UNIT     CODE           ?PR?RTC_ALARM_GET_SEC?RTC
0084C2H   0084D5H   000014H   BYTE   UNIT     CODE           ?PR?RTC_ALARM_GET_MOD_STR?RTC
0084D6H   0084E9H   000014H   BYTE   UNIT     CODE           ?PR?RTC_GET_SQUARE_RATE_STR?RTC
0084EAH   0084FDH   000014H   BYTE   UNIT     CODE           ?PR?_I2C_PUT?I2C
0084FEH   008511H   000014H   BYTE   UNIT     CODE           ?PR?TASK_INITIALIZE?TASK
008512H   008525H   000014H   BYTE   UNIT     CODE           ?PR?_TIMER_GET_HOUR?TIMER
008526H   008539H   000014H   BYTE   UNIT     CODE           ?PR?_TIMER_GET_MIN?TIMER
00853AH   00854DH   000014H   BYTE   UNIT     CODE           ?PR?_TIMER_GET_SEC?TIMER
00854EH   008561H   000014H   BYTE   UNIT     CODE           ?PR?LT_TIMER_INITIALIZE?LT_TIMER
008562H   008575H   000014H   BYTE   UNIT     CODE           ?PR?TOGGLE_ALARM_MUSIC?SM_CLOCK_MOD_ALARM
008576H   008589H   000014H   BYTE   UNIT     CODE           ?PR?_SM_FUSE_POWERSAVE_SUBMOD1?SM_FUSE_POWERSAVE
00858AH   00859DH   000014H   BYTE   UNIT     CODE           ?PR?CMD_HELP
00859EH   0085B1H   000014H   BYTE   UNIT     CODE           ?PR?GETCHAR?GETCHAR
0085B2H   0085C5H   000014H   BYTE   UNIT     CODE           ?PR?_ISSPACE?ISSPACE
0085C6H   0085D8H   000013H   BYTE   UNIT     CODE           ?PR?_TIME_PROC?SM
0085D9H   0085EBH   000013H   BYTE   UNIT     CODE           ?PR?SCAN_RTC?RTC
0085ECH   0085FEH   000013H   BYTE   UNIT     CODE           ?PR?_RTC_ALARM_SET_HOUR?RTC
0085FFH   008611H   000013H   BYTE   UNIT     CODE           ?PR?_RTC_ALARM_SET_MIN?RTC
008612H   008624H   000013H   BYTE   UNIT     CODE           ?PR?LT_TIMER_INC_DATE?LT_TIMER
008625H   008637H   000013H   BYTE   UNIT     CODE           ?PR?MPU
008638H   008649H   000012H   BYTE   UNIT     CODE           ?PR?_RTC_DATE_SET_DAY?RTC
00864AH   00865BH   000012H   BYTE   UNIT     CODE           ?PR?I2C_PUTACK?I2C
00865CH   00866DH   000012H   BYTE   UNIT     CODE           ?PR?TIMER_INITIALIZE?TIMER
00866EH   00867FH   000012H   BYTE   UNIT     CODE           ?PR?__HG_GET_STATE?HG
008680H   008691H   000012H   BYTE   UNIT     CODE           ?PR?HG_GET_STATE?HG
008692H   0086A3H   000012H   BYTE   UNIT     CODE           ?PR?THERMO_INITIALIZE?THERMO
0086A4H   0086B5H   000012H   BYTE   UNIT     CODE           ?PR?THERMO_HI_THRESHOLD_DEC?THERMO
0086B6H   0086C7H   000012H   BYTE   UNIT     CODE           ?PR?THERMO_HI_THRESHOLD_INC?THERMO
0086C8H   0086D9H   000012H   BYTE   UNIT     CODE           ?PR?THERMO_LO_THRESHOLD_DEC?THERMO
0086DAH   0086EBH   000012H   BYTE   UNIT     CODE           ?PR?THERMO_LO_THRESHOLD_INC?THERMO
0086ECH   0086FDH   000012H   BYTE   UNIT     CODE           ?PR?_MPU_THRESHOLD_INC?MPU
0086FEH   00870FH   000012H   BYTE   UNIT     CODE           ?PR?SM_CLOCK_MOD_ALARM
008710H   008720H   000011H   BYTE   UNIT     CODE           ?PR?_SM_SET_STATE?SM
008721H   008731H   000011H   BYTE   UNIT     CODE           ?PR?_RTC_SET_SQUARE_RATE?RTC
008732H   008742H   000011H   BYTE   UNIT     CODE           ?PR?I2C_DELAY?I2C
008743H   008753H   000011H   BYTE   UNIT     CODE           ?PR?KEY
008754H   008764H   000011H   BYTE   UNIT     CODE           ?PR?LED_CLEAR?LED
008765H   008775H   000011H   BYTE   UNIT     CODE           ?PR?LED_ENTER_POWERSAVE?LED
008776H   008786H   000011H   BYTE   UNIT     CODE           ?PR?INT1_ISR?INT_HUB
LX51 LINKER/LOCATER V4.66.87.0                                                        06/04/2018  21:13:51  PAGE 12


008787H   008796H   000010H   BYTE   UNIT     CODE           ?PR?_GETKEY?COM
008797H   0087A6H   000010H   BYTE   UNIT     CODE           ?PR?RTC_TIME_SET_HOUR_12?RTC
0087A7H   0087B6H   000010H   BYTE   UNIT     CODE           ?PR?TIMER_SET_LED_AUTOREFRESH?TIMER
0087B7H   0087C6H   000010H   BYTE   UNIT     CODE           ?PR?_INC_WRITE?SM_CLOCK_MOD_ALARM
0087C7H   0087D6H   000010H   BYTE   UNIT     CODE           ?PR?_INC_AND_WRITE?SM_CLOCK_MOD_TIME
0087D7H   0087E6H   000010H   BYTE   UNIT     CODE           ?PR?SM_FUSE_POWERSAVE
0087E7H   0087F5H   00000FH   BYTE   UNIT     CODE           ?PR?RTC_SET_EOSC?RTC
0087F6H   008804H   00000FH   BYTE   UNIT     CODE           ?PR?RTC_SET_BBSQW?RTC
008805H   008813H   00000FH   BYTE   UNIT     CODE           ?PR?RTC_SET_CONV?RTC
008814H   008822H   00000FH   BYTE   UNIT     CODE           ?PR?RTC_SET_INTCN?RTC
008823H   008831H   00000FH   BYTE   UNIT     CODE           ?PR?RTC_SET_OSF?RTC
008832H   008840H   00000FH   BYTE   UNIT     CODE           ?PR?RTC_SET_EN32KHZ?RTC
008841H   00884FH   00000FH   BYTE   UNIT     CODE           ?PR?TASK
008850H   00885EH   00000FH   BYTE   UNIT     CODE           ?PR?_LED_CLR_DP?LED
00885FH   00886DH   00000FH   BYTE   UNIT     CODE           ?PR?_LED_SET_DP?LED
00886EH   00887CH   00000FH   BYTE   UNIT     CODE           ?PR?LT_TIMER_RESET?LT_TIMER
00887DH   00888BH   00000FH   BYTE   UNIT     CODE           ?PR?MPU_INITIALIZE?MPU
00888CH   00889AH   00000FH   BYTE   UNIT     CODE           ?PR?_SM_CLOCK_MOD_ALARM_INIT?SM_CLOCK_MOD_ALARM
00889BH   0088A9H   00000FH   BYTE   UNIT     CODE           ?PR?_SM_FUSE_DETONATE_INIT?SM_FUSE_DETONATE
0088AAH   0088B8H   00000FH   BYTE   UNIT     CODE           ?PR?CMD_TASK
0088B9H   0088C7H   00000FH   BYTE   UNIT     CODE           ?PR?_ISDIGIT?ISDIGIT
0088C8H   0088D5H   00000EH   BYTE   UNIT     CODE           ?PR?COM_ENTER_POWERSAVE?COM
0088D6H   0088E3H   00000EH   BYTE   UNIT     CODE           ?PR?ALARM0_INC_MIN?ALARM
0088E4H   0088F1H   00000EH   BYTE   UNIT     CODE           ?PR?ALARM0_INC_HOUR?ALARM
0088F2H   0088FFH   00000EH   BYTE   UNIT     CODE           ?PR?_DELAY_10US?MISC
008900H   00890DH   00000EH   BYTE   UNIT     CODE           ?PR?_DELAY_MS?MISC
00890EH   00891BH   00000EH   BYTE   UNIT     CODE           ?PR?_BEEPER_STOP_PLAY?BEEPER
00891CH   008929H   00000EH   BYTE   UNIT     CODE           ?PR?CLOCK_ENTER_POWERSAVE?CLOCK
00892AH   008937H   00000EH   BYTE   UNIT     CODE           ?PR?LT_TIMER_START_RAM?LT_TIMER
008938H   008945H   00000EH   BYTE   UNIT     CODE           ?PR?_MPU_THRESHOLD_SET?MPU
008946H   008953H   00000EH   BYTE   UNIT     CODE           ?PR?SM_POWER_PACK_DISPLAY
008954H   008961H   00000EH   BYTE   UNIT     CODE           ?PR?SM_POWER_PACK_POWERSAVE
008962H   00896FH   00000EH   BYTE   UNIT     CODE           ?PR?INC_PASSWORD?SM_FUSE_TIMER
008970H   00897DH   00000EH   BYTE   UNIT     CODE           ?PR?SM_FUSE_DETONATE
00897EH   00898AH   00000DH   BYTE   UNIT     CODE           ?PR?RTC_GET_SQUARE_RATE?RTC
00898BH   008997H   00000DH   BYTE   UNIT     CODE           ?PR?HG_POWER_OFF?HG
008998H   0089A4H   00000DH   BYTE   UNIT     CODE           ?PR?THERMO_RESET?THERMO
0089A5H   0089B0H   00000CH   BYTE   UNIT     CODE           ?PR?RTC_DATE_GET_YEAR?RTC
0089B1H   0089BCH   00000CH   BYTE   UNIT     CODE           ?PR?RTC_DATE_GET_MONTH?RTC
0089BDH   0089C8H   00000CH   BYTE   UNIT     CODE           ?PR?TIMER_ENTER_POWERSAVE?TIMER
0089C9H   0089D4H   00000CH   BYTE   UNIT     CODE           ?PR?FUSE_INITIALIZE?FUSE
0089D5H   0089E0H   00000CH   BYTE   UNIT     CODE           ?PR?HG_CB_SET_ENABLE?HG
0089E1H   0089ECH   00000CH   BYTE   UNIT     CODE           ?PR?HG_INITIALIZE?HG
0089EDH   0089F8H   00000CH   BYTE   UNIT     CODE           ?PR?LT_TIMER_STOP_RAM?LT_TIMER
0089F9H   008A04H   00000CH   BYTE   UNIT     CODE           ?PR?THERMO_HI_THRESHOLD_REACH_TOP?THERMO
008A05H   008A10H   00000CH   BYTE   UNIT     CODE           ?PR?THERMO_LO_THRESHOLD_REACH_TOP?THERMO
008A11H   008A1CH   00000CH   BYTE   UNIT     CODE           ?PR?_CMD_NULL?SHELL
008A1DH   008A28H   00000CH   BYTE   UNIT     CODE           ?PR?_SM_POWER_PACK_POWERSAVE_INIT?SM_POWER_PACK_POWERSAVE
008A29H   008A33H   00000BH   BYTE   UNIT     CODE           ?PR?_SM_SET_SUB_STATE?SM
008A34H   008A3EH   00000BH   BYTE   UNIT     CODE           ?PR?I2C_START?I2C
008A3FH   008A49H   00000BH   BYTE   UNIT     CODE           ?PR?CLOCK_INC_MIN?CLOCK
008A4AH   008A54H   00000BH   BYTE   UNIT     CODE           ?PR?CLOCK_INC_HOUR?CLOCK
008A55H   008A5FH   00000BH   BYTE   UNIT     CODE           ?PR?HG
008A60H   008A6AH   00000BH   BYTE   UNIT     CODE           ?PR?LT_TIMER_INC_YEAR?LT_TIMER
008A6BH   008A75H   00000BH   BYTE   UNIT     CODE           ?PR?LT_TIMER_INC_MONTH?LT_TIMER
008A76H   008A80H   00000BH   BYTE   UNIT     CODE           ?PR?LT_TIMER_INC_HOUR?LT_TIMER
008A81H   008A8BH   00000BH   BYTE   UNIT     CODE           ?PR?LT_TIMER_INC_MIN?LT_TIMER
008A8CH   008A96H   00000BH   BYTE   UNIT     CODE           ?PR?LT_TIMER_INC_SEC?LT_TIMER
008A97H   008AA1H   00000BH   BYTE   UNIT     CODE           ?PR?THERMO_HI_THRESHOLD_REACH_BOTTOM?THERMO
008AA2H   008AACH   00000BH   BYTE   UNIT     CODE           ?PR?THERMO_LO_THRESHOLD_REACH_BOTTOM?THERMO
008AADH   008AB7H   00000BH   BYTE   UNIT     CODE           ?PR?CMD_SERIAL
008AB8H   008AC1H   00000AH   BYTE   UNIT     CODE           ?PR?RTC_TEST_EOSC?RTC
008AC2H   008ACBH   00000AH   BYTE   UNIT     CODE           ?PR?RTC_TEST_BBSQW?RTC
008ACCH   008AD5H   00000AH   BYTE   UNIT     CODE           ?PR?RTC_TEST_CONV?RTC
008AD6H   008ADFH   00000AH   BYTE   UNIT     CODE           ?PR?RTC_TEST_INTCN?RTC
LX51 LINKER/LOCATER V4.66.87.0                                                        06/04/2018  21:13:51  PAGE 13


008AE0H   008AE9H   00000AH   BYTE   UNIT     CODE           ?PR?RTC_TEST_OSF?RTC
008AEAH   008AF3H   00000AH   BYTE   UNIT     CODE           ?PR?RTC_TEST_EN32KHZ?RTC
008AF4H   008AFDH   00000AH   BYTE   UNIT     CODE           ?PR?RTC_TEST_BSY?RTC
008AFEH   008B07H   00000AH   BYTE   UNIT     CODE           ?PR?I2C_INIT?I2C
008B08H   008B11H   00000AH   BYTE   UNIT     CODE           ?PR?I2C
008B12H   008B1BH   00000AH   BYTE   UNIT     CODE           ?PR?INTERNAL_DELAY_MS?MISC
008B1CH   008B25H   00000AH   BYTE   UNIT     CODE           ?PR?_INC_AND_WRITE?SM_CLOCK_COUNTER
008B26H   008B2FH   00000AH   BYTE   UNIT     CODE           ?PR?_INC_AND_WRITE?SM_FUSE_PARAM
008B30H   008B39H   00000AH   BYTE   UNIT     CODE           ?PR?_SM_FUSE_POWERSAVE_INIT?SM_FUSE_POWERSAVE
008B3AH   008B42H   000009H   BYTE   UNIT     CODE           ?PR?_RTC_TIME_SET_MIN?RTC
008B43H   008B4BH   000009H   BYTE   UNIT     CODE           ?PR?KEY_ENTER_POWERSAVE?KEY
008B4CH   008B54H   000009H   BYTE   UNIT     CODE           ?PR?KEY_LEAVE_POWERSAVE?KEY
008B55H   008B5DH   000009H   BYTE   UNIT     CODE           ?PR?ALARM_INITIALIZE?ALARM
008B5EH   008B66H   000009H   BYTE   UNIT     CODE           ?PR?ALARM_ENTER_POWERSAVE?ALARM
008B67H   008B6FH   000009H   BYTE   UNIT     CODE           ?PR?ALARM_LEAVE_POWERSAVE?ALARM
008B70H   008B78H   000009H   BYTE   UNIT     CODE           ?PR?POWER_RESET_POWERSAVE_TO?POWER
008B79H   008B81H   000009H   BYTE   UNIT     CODE           ?PR?BEEPER_ENTER_POWERSAVE?BEEPER
008B82H   008B8AH   000009H   BYTE   UNIT     CODE           ?PR?BEEPER_LEAVE_POWERSAVE?BEEPER
008B8BH   008B93H   000009H   BYTE   UNIT     CODE           ?PR?CLOCK_ENABLE_INTERRUPT?CLOCK
008B94H   008B9CH   000009H   BYTE   UNIT     CODE           ?PR?TIMER_LEAVE_POWERSAVE?TIMER
008B9DH   008BA5H   000009H   BYTE   UNIT     CODE           ?PR?FUSE_ENTER_POWERSAVE?FUSE
008BA6H   008BAEH   000009H   BYTE   UNIT     CODE           ?PR?FUSE_LEAVE_POWERSAVE?FUSE
008BAFH   008BB7H   000009H   BYTE   UNIT     CODE           ?PR?HG_ENTER_POWERSAVE?HG
008BB8H   008BC0H   000009H   BYTE   UNIT     CODE           ?PR?HG_LEAVE_POWERSAVE?HG
008BC1H   008BC9H   000009H   BYTE   UNIT     CODE           ?PR?THERMO_ENTER_POWERSAVE?THERMO
008BCAH   008BD2H   000009H   BYTE   UNIT     CODE           ?PR?THERMO_LEAVE_POWERSAVE?THERMO
008BD3H   008BDBH   000009H   BYTE   UNIT     CODE           ?PR?DELAY_TASK_INITIALIZE?DELAY_TASK
008BDCH   008BE4H   000009H   BYTE   UNIT     CODE           ?PR?MPU_ENTER_POWERSAVE?MPU
008BE5H   008BEDH   000009H   BYTE   UNIT     CODE           ?PR?MPU_LEAVE_POWERSAVE?MPU
008BEEH   008BF6H   000009H   BYTE   UNIT     CODE           ?PR?RESET_AUTO_SWITCH?SM_CLOCK_DISPLAY
008BF7H   008BFEH   000008H   BYTE   UNIT     CODE           ?PR?__RTC_GET_MIN_SEC?RTC
008BFFH   008C06H   000008H   BYTE   UNIT     CODE           ?PR?RTC_TIME_GET_HOUR?RTC
008C07H   008C0EH   000008H   BYTE   UNIT     CODE           ?PR?RTC_TIME_GET_HOUR_12?RTC
008C0FH   008C16H   000008H   BYTE   UNIT     CODE           ?PR?RTC_TIME_GET_MIN?RTC
008C17H   008C1EH   000008H   BYTE   UNIT     CODE           ?PR?RTC_TIME_GET_SEC?RTC
008C1FH   008C26H   000008H   BYTE   UNIT     CODE           ?PR?_RTC_DATE_SET_YEAR?RTC
008C27H   008C2EH   000008H   BYTE   UNIT     CODE           ?PR?_RTC_DATE_SET_MONTH?RTC
008C2FH   008C36H   000008H   BYTE   UNIT     CODE           ?PR?RTC_DATE_GET_DATE?RTC
008C37H   008C3EH   000008H   BYTE   UNIT     CODE           ?PR?THERMO_HI_THRESHOLD_RESET?THERMO
008C3FH   008C46H   000008H   BYTE   UNIT     CODE           ?PR?THERMO_LO_THRESHOLD_RESET?THERMO
008C47H   008C4EH   000008H   BYTE   UNIT     CODE           ?PR?ROM_IS_FACTORY_RESET?ROM
008C4FH   008C56H   000008H   BYTE   UNIT     CODE           ?PR?MPU_THRESHOLD_RESET?MPU
008C57H   008C5DH   000007H   BYTE   UNIT     CODE           ?PR?__RTC_GET_HOUR_12?RTC
008C5EH   008C64H   000007H   BYTE   UNIT     CODE           ?PR?SM_CLOCK_ALARM
008C65H   008C6AH   000006H   BYTE   UNIT     CODE           ?PR?_RTC_TIME_SET_HOUR?RTC
008C6BH   008C70H   000006H   BYTE   UNIT     CODE           ?PR?_RTC_TIME_SET_SEC?RTC
008C71H   008C76H   000006H   BYTE   UNIT     CODE           ?PR?RTC_DATE_GET_DAY?RTC
008C77H   008C7CH   000006H   BYTE   UNIT     CODE           ?PR?ALARM0_GET_DAY_MASK?ALARM
008C7DH   008C82H   000006H   BYTE   UNIT     CODE           ?PR?ALARM0_GET_MIN?ALARM
008C83H   008C88H   000006H   BYTE   UNIT     CODE           ?PR?ALARM0_GET_HOUR?ALARM
008C89H   008C8EH   000006H   BYTE   UNIT     CODE           ?PR?POWER_GET_POWERSAVE_TO_S?POWER
008C8FH   008C94H   000006H   BYTE   UNIT     CODE           ?PR?INTERNAL_DELAY_10US?MISC
008C95H   008C9AH   000006H   BYTE   UNIT     CODE           ?PR?BEEPER_GET_MUSIC_TO?BEEPER
008C9BH   008CA0H   000006H   BYTE   UNIT     CODE           ?PR?BEEPER_GET_MUSIC_INDEX?BEEPER
008CA1H   008CA6H   000006H   BYTE   UNIT     CODE           ?PR?_CLOCK_SWITCH_DISPLAY_MODE?CLOCK
008CA7H   008CACH   000006H   BYTE   UNIT     CODE           ?PR?CLOCK_GET_DATE?CLOCK
008CADH   008CB2H   000006H   BYTE   UNIT     CODE           ?PR?CLOCK_GET_DAY?CLOCK
008CB3H   008CB8H   000006H   BYTE   UNIT     CODE           ?PR?CLOCK_GET_MONTH?CLOCK
008CB9H   008CBEH   000006H   BYTE   UNIT     CODE           ?PR?_TIMER_SET_MODE?TIMER
008CBFH   008CC4H   000006H   BYTE   UNIT     CODE           ?PR?LT_TIMER_GET_MONTH?LT_TIMER
008CC5H   008CCAH   000006H   BYTE   UNIT     CODE           ?PR?LT_TIMER_GET_DATE?LT_TIMER
008CCBH   008CD0H   000006H   BYTE   UNIT     CODE           ?PR?MPU_THRESHOLD_GET?MPU
008CD1H   008CD5H   000005H   BYTE   UNIT     CODE           ?PR?ALARM1_SET_ENABLE?ALARM
008CD6H   008CDAH   000005H   BYTE   UNIT     CODE           ?PR?BEEPER_SET_BEEP_ENABLE?BEEPER
008CDBH   008CDFH   000005H   BYTE   UNIT     CODE           ?PR?CLOCK_DISPLAY?CLOCK
LX51 LINKER/LOCATER V4.66.87.0                                                        06/04/2018  21:13:51  PAGE 14


008CE0H   008CE4H   000005H   BYTE   UNIT     CODE           ?PR?CLOCK_SET_HOUR_12?CLOCK
008CE5H   008CE9H   000005H   BYTE   UNIT     CODE           ?PR?CLOCK_GET_MS39?CLOCK
008CEAH   008CEEH   000005H   BYTE   UNIT     CODE           ?PR?CLOCK_GET_SEC_256?CLOCK
008CEFH   008CF3H   000005H   BYTE   UNIT     CODE           ?PR?CLOCK_GET_SEC?CLOCK
008CF4H   008CF8H   000005H   BYTE   UNIT     CODE           ?PR?CLOCK_CLR_SEC?CLOCK
008CF9H   008CFDH   000005H   BYTE   UNIT     CODE           ?PR?CLOCK_GET_MIN?CLOCK
008CFEH   008D02H   000005H   BYTE   UNIT     CODE           ?PR?CLOCK_GET_HOUR?CLOCK
008D03H   008D07H   000005H   BYTE   UNIT     CODE           ?PR?CLOCK_GET_YEAR?CLOCK
008D08H   008D0CH   000005H   BYTE   UNIT     CODE           ?PR?LT_TIMER_SET_HOUR_12?LT_TIMER
008D0DH   008D11H   000005H   BYTE   UNIT     CODE           ?PR?LT_TIMER_GET_YEAR?LT_TIMER
008D12H   008D16H   000005H   BYTE   UNIT     CODE           ?PR?LT_TIMER_GET_HOUR?LT_TIMER
008D17H   008D1BH   000005H   BYTE   UNIT     CODE           ?PR?LT_TIMER_GET_MIN?LT_TIMER
008D1CH   008D20H   000005H   BYTE   UNIT     CODE           ?PR?LT_TIMER_GET_SEC?LT_TIMER
008D21H   008D25H   000005H   BYTE   UNIT     CODE           ?PR?DEBUG_ONOFF?DEBUG
008D26H   008D29H   000004H   BYTE   UNIT     CODE           ?PR?POWER_5V_GET_ENABLE?POWER
008D2AH   008D2CH   000003H   BYTE   UNIT     CODE           ?PR?_NULL_PROC?SM
008D2DH   008D2FH   000003H   BYTE   UNIT     CODE           ?PR?RTC_IS_LT_TIMER?RTC
008D30H   008D32H   000003H   BYTE   UNIT     CODE           ?PR?ALARM0_GET_HOUR_12?ALARM
008D33H   008D35H   000003H   BYTE   UNIT     CODE           ?PR?ALARM1_TEST_ENABLE?ALARM
008D36H   008D38H   000003H   BYTE   UNIT     CODE           ?PR?POWER_TEST_FLAG?POWER
008D39H   008D3BH   000003H   BYTE   UNIT     CODE           ?PR?POWER_SET_FLAG?POWER
008D3CH   008D3EH   000003H   BYTE   UNIT     CODE           ?PR?POWER_CLR_FLAG?POWER
008D3FH   008D41H   000003H   BYTE   UNIT     CODE           ?PR?POWER_GET_VOLUME?POWER
008D42H   008D44H   000003H   BYTE   UNIT     CODE           ?PR?BEEPER_GET_BEEP_ENABLE?BEEPER
008D45H   008D47H   000003H   BYTE   UNIT     CODE           ?PR?BEEPER_STOP_MUSIC?BEEPER
008D48H   008D4AH   000003H   BYTE   UNIT     CODE           ?PR?CLOCK_GET_HOUR_12?CLOCK
008D4BH   008D4DH   000003H   BYTE   UNIT     CODE           ?PR?CLOCK_ENTER_SHELL?CLOCK
008D4EH   008D50H   000003H   BYTE   UNIT     CODE           ?PR?TIMER_STOP?TIMER
008D51H   008D53H   000003H   BYTE   UNIT     CODE           ?PR?LT_TIMER_GET_HOUR_12?LT_TIMER
008D54H   008D56H   000003H   BYTE   UNIT     CODE           ?PR?DEBUG_INITIALIZE?DEBUG
008D57H   0097BDH   000A67H   BYTE   UNIT     CONST          ?CO?SM
0097BEH   009E8DH   0006D0H   BYTE   UNIT     CONST          ?CO?SHELL
009E8EH   00A447H   0005BAH   BYTE   UNIT     CONST          ?CO?CLOCK
00A448H   00A897H   000450H   BYTE   UNIT     CONST          ?CO?RTC
00A898H   00AC25H   00038EH   BYTE   UNIT     CONST          ?CO?BEEPER
00AC26H   00AF7CH   000357H   BYTE   UNIT     CONST          ?CO?SM_FUSE_TEST
00AF7DH   00B20DH   000291H   BYTE   UNIT     CONST          ?CO?INT_HUB
00B20EH   00B45AH   00024DH   BYTE   UNIT     CONST          ?CO?LT_TIMER
00B45BH   00B68BH   000231H   BYTE   UNIT     CONST          ?CO?TASK
00B68CH   00B8B1H   000226H   BYTE   UNIT     CONST          ?CO?SM_FUSE_TIMER
00B8B2H   00BAB7H   000206H   BYTE   UNIT     CONST          ?CO?SM_CLOCK_MOD_TIME
00BAB8H   00BCADH   0001F6H   BYTE   UNIT     CONST          ?CO?SM_FUSE_PARAM
00BCAEH   00BE94H   0001E7H   BYTE   UNIT     CONST          ?CO?SM_CLOCK_COUNTER
00BE95H   00C06EH   0001DAH   BYTE   UNIT     CONST          ?CO?SERIAL_HUB
00C06FH   00C243H   0001D5H   BYTE   UNIT     CONST          ?CO?THERMO
00C244H   00C40AH   0001C7H   BYTE   UNIT     CONST          ?CO?SM_CLOCK_MOD_ALARM
00C40BH   00C58BH   000181H   BYTE   UNIT     CONST          ?CO?KEY
00C58CH   00C704H   000179H   BYTE   UNIT     CONST          ?CO?SM_GLOBAL_FLAG_MOD
00C705H   00C875H   000171H   BYTE   UNIT     CONST          ?CO?ALARM
00C876H   00C9C1H   00014CH   BYTE   UNIT     CONST          ?CO?SM_CLOCK_DISPLAY
00C9C2H   00CAB1H   0000F0H   BYTE   UNIT     CONST          ?CO?SM_CLOCK_TIMER
00CAB2H   00CB9EH   0000EDH   BYTE   UNIT     CONST          ?CO?FUSE
00CB9FH   00CC89H   0000EBH   BYTE   UNIT     CONST          ?CO?MPU
00CC8AH   00CD67H   0000DEH   BYTE   UNIT     CONST          ?CO?HG
00CD68H   00CE2FH   0000C8H   BYTE   UNIT     CONST          ?CO?SM_FUSE_POWERSAVE
00CE30H   00CECAH   00009BH   BYTE   UNIT     CONST          ?CO?SM_POWER_PACK_POWERSAVE
00CECBH   00CF5DH   000093H   BYTE   UNIT     CONST          ?CO?SM_POWER_PACK_DISPLAY
00CF5EH   00CFDFH   000082H   BYTE   UNIT     CONST          ?CO?POWER
00CFE0H   00D060H   000081H   BYTE   UNIT     CONST          ?CO?MAIN
00D061H   00D0E0H   000080H   BYTE   UNIT     CONST          ?CO?SM_FUSE_DETONATE
00D0E1H   00D15DH   00007DH   BYTE   UNIT     CONST          ?CO?CMD_I2C
00D15EH   00D1D9H   00007CH   BYTE   UNIT     CONST          ?CO?ROM
00D1DAH   00D24CH   000073H   BYTE   UNIT     CONST          ?CO?CMD_BEEPER
00D24DH   00D2BBH   00006FH   BYTE   UNIT     CONST          ?CO?LED
00D2BCH   00D31DH   000062H   BYTE   UNIT     CONST          ?CO?CMD_THERMO
LX51 LINKER/LOCATER V4.66.87.0                                                        06/04/2018  21:13:51  PAGE 15


00D31EH   00D377H   00005AH   BYTE   UNIT     CONST          ?CO?DELAY_TASK
00D378H   00D3D0H   000059H   BYTE   UNIT     CONST          ?CO?TIMER
00D3D1H   00D429H   000059H   BYTE   UNIT     CONST          ?CO?SM_CLOCK_ALARM
00D42AH   00D480H   000057H   BYTE   UNIT     CONST          ?CO?SM_CLOCK_POWERSAVE
00D481H   00D4C5H   000045H   BYTE   UNIT     CONST          ?CO?CMD_SM
00D4C6H   00D4EFH   00002AH   BYTE   UNIT     CONST          ?CO?COM
00D4F0H   00D514H   000025H   BYTE   UNIT     CONST          ?CO?CMD_REBOOT
00D515H   00D539H   000025H   BYTE   UNIT     CONST          ?CO?CMD_MPU
00D53AH   00D557H   00001EH   BYTE   UNIT     CONST          ?CO?CMD_SERIAL
00D558H   00D574H   00001DH   BYTE   UNIT     CONST          ?CO?CMD_HELP
00D575H   00D590H   00001CH   BYTE   UNIT     CONST          ?CO?CMD_DBG
00D591H   00D5A6H   000016H   BYTE   UNIT     CONST          ?CO?MOD_COMMON
00D5A7H   00D5AAH   000004H   BYTE   UNIT     CONST          ?CO?CMD_INT

* * * * * * * * * * *  X D A T A   M E M O R Y  * * * * * * * * * * * * *
000000H   00007CH   00007DH   BYTE   UNIT     XDATA          _XDATA_GROUP_
00007DH   0000A5H   000029H   BYTE   UNIT     XDATA          ?XD?SHELL
0000A6H   0000BAH   000015H   BYTE   UNIT     XDATA          ?XD?TIMER
0000BBH   0000C3H   000009H   BYTE   UNIT     XDATA          ?XD?LED
0000C4H   0000C8H   000005H   BYTE   UNIT     XDATA          ?XD?RTC
0000C9H   0000CDH   000005H   BYTE   UNIT     XDATA          ?XD?DELAY_TASK
0000CEH   0000D1H   000004H   BYTE   UNIT     XDATA          ?XD?COM
0000D2H   0000D4H   000003H   BYTE   UNIT     XDATA          ?XD?SM
0000D5H   0000D7H   000003H   BYTE   UNIT     XDATA          ?XD?ALARM
0000D8H   0000DAH   000003H   BYTE   UNIT     XDATA          ?XD?MOD_COMMON
0000DBH   0000DDH   000003H   BYTE   UNIT     XDATA          ?XD?BEEPER
0000DEH   0000DFH   000002H   BYTE   UNIT     XDATA          ?XD?KEY
0000E0H   0000E1H   000002H   BYTE   UNIT     XDATA          ?XD?POWER
0000E2H   0000E3H   000002H   BYTE   UNIT     XDATA          ?XD?SERIAL_HUB
0000E4H   0000E5H   000002H   BYTE   UNIT     XDATA          ?XD?THERMO
0000E6H   0000E6H   000001H   BYTE   UNIT     XDATA          ?XD?CLOCK
0000E7H   0000E7H   000001H   BYTE   UNIT     XDATA          ?XD?HG
0000E8H   0000E8H   000001H   BYTE   UNIT     XDATA          ?XD?MPU
0000E9H   0000E9H   000001H   BYTE   UNIT     XDATA          ?XD?CMD_I2C
0000EAH   0000EAH   000001H   BYTE   UNIT     XDATA          ?XD?GETCHAR



OVERLAY MAP OF MODULE:   Clock (SM)


FUNCTION/MODULE                                BIT_GROUP   DATA_GROUP   XDATA_GROUP
--> CALLED FUNCTION/MODULE                    START  STOP  START  STOP  START  STOP
===================================================================================
?C_C51STARTUP                                 ----- -----  ----- -----  ----- -----
  +--> MAIN/MAIN

MAIN/MAIN                                     ----- -----  ----- -----  ----- -----
  +--> DEBUG_INITIALIZE/DEBUG
  +--> COM_INITIALIZE/COM
  +--> SHOW_VERSION/MAIN
  +--> ROM_INITIALIZE/ROM
  +--> SERIAL_HUB_INITIALIZE/SERIAL_HUB
  +--> RTC_INITIALIZE/RTC
  +--> CLOCK_INITIALIZE/CLOCK
  +--> KEY_INITIALIZE/KEY
  +--> LED_INITIALIZE/LED
  +--> POWER_INITIALIZE/POWER
  +--> ALARM_INITIALIZE/ALARM
  +--> LT_TIMER_INITIALIZE/LT_TIMER
  +--> TIMER_INITIALIZE/TIMER
  +--> BEEPER_INITIALIZE/BEEPER
  +--> THERMO_INITIALIZE/THERMO
  +--> FUSE_INITIALIZE/FUSE
  +--> MPU_INITIALIZE/MPU
LX51 LINKER/LOCATER V4.66.87.0                                                        06/04/2018  21:13:51  PAGE 16


  +--> HG_INITIALIZE/HG
  +--> INT_HUB_INITIALIZE/INT_HUB
  +--> TASK_INITIALIZE/TASK
  +--> SM_INITIALIZE/SM
  +--> DELAY_TASK_INITIALIZE/DELAY_TASK
  +--> RUN_TASK/TASK
  +--> RUN_SHELL/SHELL

DEBUG_INITIALIZE/DEBUG                        ----- -----  ----- -----  ----- -----

COM_INITIALIZE/COM                            ----- -----  ----- -----  ----- -----

SHOW_VERSION/MAIN                             ----- -----  ----- -----  ----- -----
  +--> _DEBUG_PRINTF/DEBUG

_DEBUG_PRINTF/DEBUG                           ----- -----  ----- -----  001CH 0049H
  +--> _VPRINTF/VPRINTF

_VPRINTF/VPRINTF                              ----- -----  ----- -----  004AH 004CH
  +--> PRINTF/PRINTF

PRINTF/PRINTF                                 20H.2 21H.2  0018H 001CH  004DH 007CH
  +--> _PUTCHAR/COM

_PUTCHAR/COM                                  ----- -----  ----- -----  ----- -----
  +--> _PUTBUF/COM

_PUTBUF/COM                                   ----- -----  ----- -----  ----- -----

ROM_INITIALIZE/ROM                            ----- -----  ----- -----  ----- -----
  +--> _DEBUG_PRINTF/DEBUG
  +--> ROM_IS_FACTORY_RESET/ROM
  +--> ROM_RESET/ROM
  +--> ROM_DUMP/ROM

ROM_IS_FACTORY_RESET/ROM                      ----- -----  ----- -----  ----- -----

ROM_RESET/ROM                                 ----- -----  ----- -----  ----- -----
  +--> _ROM_WRITE/ROM

_ROM_WRITE/ROM                                ----- -----  ----- -----  0017H 0018H
  +--> I2C_INIT/I2C
  +--> _I2C_PUT/I2C
  +--> _DEBUG_PRINTF/DEBUG

I2C_INIT/I2C                                  ----- -----  ----- -----  ----- -----
  +--> I2C_DELAY/I2C

I2C_DELAY/I2C                                 ----- -----  ----- -----  ----- -----

_I2C_PUT/I2C                                  ----- -----  ----- -----  0019H 0019H
  +--> _I2C_PUTS/I2C

_I2C_PUTS/I2C                                 ----- -----  ----- -----  001AH 001FH
  +--> I2C_START/I2C
  +--> _I2C_WRITE/I2C
  +--> I2C_GETACK/I2C
  +--> I2C_STOP/I2C

I2C_START/I2C                                 ----- -----  ----- -----  ----- -----
  +--> I2C
  +--> I2C_DELAY/I2C

I2C                                           ----- -----  ----- -----  ----- -----
  +--> I2C_DELAY/I2C
LX51 LINKER/LOCATER V4.66.87.0                                                        06/04/2018  21:13:51  PAGE 17



_I2C_WRITE/I2C                                ----- -----  ----- -----  ----- -----
  +--> I2C_DELAY/I2C

I2C_GETACK/I2C                                20H.2 20H.2  ----- -----  ----- -----
  +--> I2C
  +--> I2C_DELAY/I2C

I2C_STOP/I2C                                  ----- -----  ----- -----  ----- -----
  +--> I2C_DELAY/I2C
  +--> I2C

ROM_DUMP/ROM                                  ----- -----  ----- -----  ----- -----
  +--> _ROM_READ/ROM

_ROM_READ/ROM                                 ----- -----  ----- -----  0017H 0018H
  +--> I2C_INIT/I2C
  +--> _I2C_GET/I2C
  +--> _DEBUG_PRINTF/DEBUG

_I2C_GET/I2C                                  ----- -----  ----- -----  0019H 001BH
  +--> _I2C_GETS/I2C

_I2C_GETS/I2C                                 ----- -----  ----- -----  001CH 0021H
  +--> I2C_START/I2C
  +--> _I2C_WRITE/I2C
  +--> I2C_GETACK/I2C
  +--> I2C_STOP/I2C
  +--> I2C_READ/I2C
  +--> I2C_PUTACK/I2C

I2C_READ/I2C                                  20H.2 20H.2  ----- -----  ----- -----
  +--> I2C_DELAY/I2C
  +--> I2C

I2C_PUTACK/I2C                                20H.2 20H.2  ----- -----  ----- -----
  +--> I2C_DELAY/I2C

SERIAL_HUB_INITIALIZE/SERIAL_HUB              ----- -----  ----- -----  ----- -----
  +--> _DEBUG_PRINTF/DEBUG
  +--> _I2C_PUT/I2C
  +--> SERIAL_CTL_OUT/SERIAL_HUB

SERIAL_CTL_OUT/SERIAL_HUB                     ----- -----  ----- -----  ----- -----
  +--> _I2C_PUT/I2C
  +--> SERIAL_DUMP/SERIAL_HUB

SERIAL_DUMP/SERIAL_HUB                        ----- -----  ----- -----  ----- -----
  +--> _DEBUG_PRINTF/DEBUG
  +--> _SERIAL_TEST_CTL_BIT/SERIAL_HUB
  +--> SERIAL_HUB

_SERIAL_TEST_CTL_BIT/SERIAL_HUB               ----- -----  ----- -----  ----- -----
  +--> SERIAL_HUB

SERIAL_HUB                                    ----- -----  ----- -----  ----- -----

RTC_INITIALIZE/RTC                            ----- -----  ----- -----  0000H 0001H
  +--> _DEBUG_PRINTF/DEBUG
  +--> RTC_DUMP_RAW/RTC
  +--> RTC_DUMP/RTC
  +--> RTC
  +--> _ROM_READ/ROM
  +--> I2C_INIT/I2C
  +--> _RTC_READ_DATA/RTC
LX51 LINKER/LOCATER V4.66.87.0                                                        06/04/2018  21:13:51  PAGE 18


  +--> RTC_TIME_GET_HOUR/RTC
  +--> RTC_TIME_SET_HOUR_12/RTC
  +--> _RTC_TIME_SET_HOUR/RTC
  +--> ROM_IS_FACTORY_RESET/ROM
  +--> _RTC_WRITE_DATA/RTC
  +--> RTC_DATE_GET_YEAR/RTC
  +--> RTC_DATE_GET_MONTH/RTC
  +--> RTC_DATE_GET_DATE/RTC
  +--> _CLOCK_YYMMDD_TO_DAY/CLOCK
  +--> _RTC_DATE_SET_DAY/RTC
  +--> _RTC_ENABLE_ALARM_INT/RTC
  +--> _RTC_CLR_ALARM_INT_FLAG/RTC
  +--> RTC_SET_INTCN/RTC
  +--> RTC_SET_EN32KHZ/RTC
  +--> _RTC_TIME_SET_MIN/RTC
  +--> _RTC_TIME_SET_SEC/RTC
  +--> _RTC_DATE_SET_YEAR/RTC
  +--> _RTC_DATE_SET_MONTH/RTC
  +--> _RTC_DATE_SET_DATE/RTC

RTC_DUMP_RAW/RTC                              ----- -----  ----- -----  0002H 0003H
  +--> _DEBUG_PRINTF/DEBUG
  +--> _I2C_GET/I2C

RTC_DUMP/RTC                                  ----- -----  ----- -----  ----- -----
  +--> _RTC_READ_DATA/RTC
  +--> RTC_DATE_GET_YEAR/RTC
  +--> RTC_DATE_GET_MONTH/RTC
  +--> RTC_DATE_GET_DATE/RTC
  +--> RTC_DATE_GET_DAY/RTC
  +--> _DEBUG_PRINTF/DEBUG
  +--> RTC_TIME_GET_HOUR/RTC
  +--> RTC_TIME_GET_MIN/RTC
  +--> RTC_TIME_GET_SEC/RTC
  +--> RTC_TIME_GET_HOUR_12/RTC
  +--> RTC_ALARM_GET_SEC/RTC
  +--> RTC
  +--> RTC_ALARM_GET_HOUR_12/RTC
  +--> _RTC_TEST_ALARM_INT/RTC
  +--> _RTC_TEST_ALARM_INT_FLAG/RTC
  +--> RTC_TEST_EOSC/RTC
  +--> RTC_TEST_BBSQW/RTC
  +--> RTC_TEST_CONV/RTC
  +--> RTC_GET_SQUARE_RATE_STR/RTC
  +--> RTC_TEST_INTCN/RTC
  +--> RTC_TEST_OSF/RTC
  +--> RTC_TEST_EN32KHZ/RTC
  +--> RTC_TEST_BSY/RTC
  +--> RTC_ALARM_GET_DAY/RTC
  +--> RTC_ALARM_GET_DATE/RTC
  +--> RTC_ALARM_GET_HOUR/RTC
  +--> RTC_ALARM_GET_MIN/RTC
  +--> RTC_ALARM_GET_MOD_STR/RTC

_RTC_READ_DATA/RTC                            ----- -----  ----- -----  0017H 0017H
  +--> RTC
  +--> _I2C_GETS/I2C

RTC                                           ----- -----  ----- -----  ----- -----

RTC_DATE_GET_YEAR/RTC                         ----- -----  ----- -----  ----- -----
  +--> RTC

RTC_DATE_GET_MONTH/RTC                        ----- -----  ----- -----  ----- -----
  +--> RTC
LX51 LINKER/LOCATER V4.66.87.0                                                        06/04/2018  21:13:51  PAGE 19



RTC_DATE_GET_DATE/RTC                         ----- -----  ----- -----  ----- -----
  +--> __RTC_GET_DATE/RTC

__RTC_GET_DATE/RTC                            ----- -----  ----- -----  ----- -----
  +--> RTC

RTC_DATE_GET_DAY/RTC                          ----- -----  ----- -----  ----- -----

RTC_TIME_GET_HOUR/RTC                         ----- -----  ----- -----  ----- -----
  +--> __RTC_GET_HOUR/RTC

__RTC_GET_HOUR/RTC                            ----- -----  ----- -----  ----- -----
  +--> RTC

RTC_TIME_GET_MIN/RTC                          ----- -----  ----- -----  ----- -----
  +--> __RTC_GET_MIN_SEC/RTC

__RTC_GET_MIN_SEC/RTC                         ----- -----  ----- -----  ----- -----
  +--> RTC

RTC_TIME_GET_SEC/RTC                          ----- -----  ----- -----  ----- -----
  +--> __RTC_GET_MIN_SEC/RTC

RTC_TIME_GET_HOUR_12/RTC                      ----- -----  ----- -----  ----- -----
  +--> __RTC_GET_HOUR_12/RTC

__RTC_GET_HOUR_12/RTC                         ----- -----  ----- -----  ----- -----

RTC_ALARM_GET_SEC/RTC                         ----- -----  ----- -----  ----- -----
  +--> RTC

RTC_ALARM_GET_HOUR_12/RTC                     ----- -----  ----- -----  ----- -----
  +--> __RTC_GET_HOUR_12/RTC

_RTC_TEST_ALARM_INT/RTC                       ----- -----  ----- -----  ----- -----

_RTC_TEST_ALARM_INT_FLAG/RTC                  ----- -----  ----- -----  ----- -----

RTC_TEST_EOSC/RTC                             ----- -----  ----- -----  ----- -----

RTC_TEST_BBSQW/RTC                            ----- -----  ----- -----  ----- -----

RTC_TEST_CONV/RTC                             ----- -----  ----- -----  ----- -----

RTC_GET_SQUARE_RATE_STR/RTC                   ----- -----  ----- -----  ----- -----
  +--> RTC_GET_SQUARE_RATE/RTC

RTC_GET_SQUARE_RATE/RTC                       ----- -----  ----- -----  ----- -----

RTC_TEST_INTCN/RTC                            ----- -----  ----- -----  ----- -----

RTC_TEST_OSF/RTC                              ----- -----  ----- -----  ----- -----

RTC_TEST_EN32KHZ/RTC                          ----- -----  ----- -----  ----- -----

RTC_TEST_BSY/RTC                              ----- -----  ----- -----  ----- -----

RTC_ALARM_GET_DAY/RTC                         ----- -----  ----- -----  ----- -----

RTC_ALARM_GET_DATE/RTC                        ----- -----  ----- -----  ----- -----
  +--> __RTC_GET_DATE/RTC

RTC_ALARM_GET_HOUR/RTC                        ----- -----  ----- -----  ----- -----
  +--> __RTC_GET_HOUR/RTC
LX51 LINKER/LOCATER V4.66.87.0                                                        06/04/2018  21:13:51  PAGE 20



RTC_ALARM_GET_MIN/RTC                         ----- -----  ----- -----  ----- -----
  +--> __RTC_GET_MIN_SEC/RTC

RTC_ALARM_GET_MOD_STR/RTC                     ----- -----  ----- -----  ----- -----
  +--> RTC_ALARM_GET_MODE/RTC

RTC_ALARM_GET_MODE/RTC                        ----- -----  ----- -----  ----- -----
  +--> RTC

RTC_TIME_SET_HOUR_12/RTC                      20H.1 20H.1  ----- -----  ----- -----
  +--> RTC
  +--> _RTC_SET_HOUR_12/RTC

_RTC_SET_HOUR_12/RTC                          20H.2 20H.2  ----- -----  0017H 0019H
  +--> RTC
  +--> __RTC_GET_HOUR/RTC
  +--> __RTC_SET_HOUR/RTC

__RTC_SET_HOUR/RTC                            ----- -----  ----- -----  001AH 001CH
  +--> RTC

_RTC_TIME_SET_HOUR/RTC                        ----- -----  ----- -----  ----- -----
  +--> RTC
  +--> __RTC_SET_HOUR/RTC

_RTC_WRITE_DATA/RTC                           ----- -----  ----- -----  0017H 0017H
  +--> I2C_INIT/I2C
  +--> RTC
  +--> _I2C_PUTS/I2C

_CLOCK_YYMMDD_TO_DAY/CLOCK                    ----- -----  ----- -----  0017H 001EH
  +--> CLOCK

CLOCK                                         ----- -----  ----- -----  ----- -----

_RTC_DATE_SET_DAY/RTC                         ----- -----  ----- -----  ----- -----

_RTC_ENABLE_ALARM_INT/RTC                     20H.1 20H.1  ----- -----  ----- -----

_RTC_CLR_ALARM_INT_FLAG/RTC                   ----- -----  ----- -----  ----- -----

RTC_SET_INTCN/RTC                             20H.0 20H.0  ----- -----  ----- -----

RTC_SET_EN32KHZ/RTC                           20H.0 20H.0  ----- -----  ----- -----

_RTC_TIME_SET_MIN/RTC                         ----- -----  ----- -----  ----- -----
  +--> __RTC_SET_MIN_SEC/RTC

__RTC_SET_MIN_SEC/RTC                         ----- -----  ----- -----  0017H 0019H
  +--> RTC

_RTC_TIME_SET_SEC/RTC                         ----- -----  ----- -----  ----- -----
  +--> RTC
  +--> __RTC_SET_MIN_SEC/RTC

_RTC_DATE_SET_YEAR/RTC                        ----- -----  ----- -----  ----- -----
  +--> RTC

_RTC_DATE_SET_MONTH/RTC                       ----- -----  ----- -----  ----- -----
  +--> RTC

_RTC_DATE_SET_DATE/RTC                        ----- -----  ----- -----  0017H 0018H
  +--> RTC_DATE_GET_MONTH/RTC
  +--> _DEBUG_PRINTF/DEBUG
LX51 LINKER/LOCATER V4.66.87.0                                                        06/04/2018  21:13:51  PAGE 21


  +--> RTC_DATE_GET_YEAR/RTC
  +--> _CLOCK_IS_LEAP_YEAR/CLOCK
  +--> __RTC_SET_DATE/RTC

_CLOCK_IS_LEAP_YEAR/CLOCK                     ----- -----  ----- -----  ----- -----
  +--> CLOCK

__RTC_SET_DATE/RTC                            ----- -----  ----- -----  0019H 001BH
  +--> RTC

CLOCK_INITIALIZE/CLOCK                        ----- -----  ----- -----  ----- -----
  +--> _DEBUG_PRINTF/DEBUG
  +--> _CLOCK_SYNC_FROM_RTC/CLOCK
  +--> CLOCK_ENABLE_INTERRUPT/CLOCK
  +--> CLOCK_DUMP/CLOCK

_CLOCK_SYNC_FROM_RTC/CLOCK                    ----- -----  ----- -----  0013H 0013H
  +--> _DEBUG_PRINTF/DEBUG
  +--> _RTC_READ_DATA/RTC
  +--> RTC_TIME_GET_HOUR/RTC
  +--> RTC_TIME_GET_MIN/RTC
  +--> RTC_TIME_GET_SEC/RTC
  +--> RTC_TIME_GET_HOUR_12/RTC
  +--> RTC_DATE_GET_YEAR/RTC
  +--> RTC_DATE_GET_MONTH/RTC
  +--> RTC_DATE_GET_DATE/RTC
  +--> RTC_DATE_GET_DAY/RTC

CLOCK_ENABLE_INTERRUPT/CLOCK                  20H.2 20H.2  ----- -----  ----- -----

CLOCK_DUMP/CLOCK                              ----- -----  ----- -----  ----- -----
  +--> _DEBUG_PRINTF/DEBUG

KEY_INITIALIZE/KEY                            ----- -----  ----- -----  ----- -----
  +--> _DEBUG_PRINTF/DEBUG

LED_INITIALIZE/LED                            ----- -----  ----- -----  ----- -----
  +--> _DEBUG_PRINTF/DEBUG
  +--> LED
  +--> REFRESH_LED/LED
  +--> _DELAY_MS/MISC

LED                                           ----- -----  ----- -----  ----- -----

REFRESH_LED/LED                               ----- -----  ----- -----  ----- -----

_DELAY_MS/MISC                                ----- -----  ----- -----  ----- -----
  +--> INTERNAL_DELAY_MS/MISC

INTERNAL_DELAY_MS/MISC                        ----- -----  ----- -----  ----- -----

POWER_INITIALIZE/POWER                        ----- -----  ----- -----  ----- -----
  +--> _DEBUG_PRINTF/DEBUG
  +--> _ROM_READ/ROM

ALARM_INITIALIZE/ALARM                        ----- -----  ----- -----  ----- -----
  +--> _DEBUG_PRINTF/DEBUG

LT_TIMER_INITIALIZE/LT_TIMER                  ----- -----  ----- -----  ----- -----
  +--> _DEBUG_PRINTF/DEBUG

TIMER_INITIALIZE/TIMER                        ----- -----  ----- -----  ----- -----
  +--> _DEBUG_PRINTF/DEBUG

BEEPER_INITIALIZE/BEEPER                      ----- -----  ----- -----  ----- -----
LX51 LINKER/LOCATER V4.66.87.0                                                        06/04/2018  21:13:51  PAGE 22


  +--> _DEBUG_PRINTF/DEBUG
  +--> _ROM_READ/ROM

THERMO_INITIALIZE/THERMO                      ----- -----  ----- -----  ----- -----
  +--> _DEBUG_PRINTF/DEBUG
  +--> THERMO_RESET/THERMO
  +--> THERMO_HI_POWER_OFF/THERMO
  +--> THERMO_LO_POWER_OFF/THERMO

THERMO_RESET/THERMO                           ----- -----  ----- -----  0000H 0000H
  +--> _I2C_GET/I2C

THERMO_HI_POWER_OFF/THERMO                    ----- -----  ----- -----  ----- -----
  +--> THERMO_HI_LOAD_CONFIG/THERMO
  +--> _I2C_PUT/I2C
  +--> THERMO_HI_THRESHOLD_RESET/THERMO

THERMO_HI_LOAD_CONFIG/THERMO                  ----- -----  ----- -----  ----- -----
  +--> _DEBUG_PRINTF/DEBUG
  +--> _ROM_READ/ROM
  +--> THERMO

THERMO                                        ----- -----  ----- -----  ----- -----

THERMO_HI_THRESHOLD_RESET/THERMO              ----- -----  ----- -----  ----- -----
  +--> _THERMO_HI_THRESHOLD_SET/THERMO

_THERMO_HI_THRESHOLD_SET/THERMO               ----- -----  ----- -----  0016H 0018H
  +--> THERMO
  +--> _DEBUG_PRINTF/DEBUG
  +--> _THERMO_TEMP_TO_HEX/THERMO
  +--> _I2C_PUTS/I2C

_THERMO_TEMP_TO_HEX/THERMO                    ----- -----  ----- -----  0019H 001AH
  +--> THERMO
  +--> _DEBUG_PRINTF/DEBUG

THERMO_LO_POWER_OFF/THERMO                    ----- -----  ----- -----  ----- -----
  +--> THERMO_LO_LOAD_CONFIG/THERMO
  +--> _I2C_PUT/I2C
  +--> THERMO_LO_THRESHOLD_RESET/THERMO

THERMO_LO_LOAD_CONFIG/THERMO                  ----- -----  ----- -----  ----- -----
  +--> _DEBUG_PRINTF/DEBUG
  +--> _ROM_READ/ROM
  +--> THERMO

THERMO_LO_THRESHOLD_RESET/THERMO              ----- -----  ----- -----  ----- -----
  +--> _THERMO_LO_THRESHOLD_SET/THERMO

_THERMO_LO_THRESHOLD_SET/THERMO               ----- -----  ----- -----  0016H 0018H
  +--> _DEBUG_PRINTF/DEBUG
  +--> _THERMO_TEMP_TO_HEX/THERMO
  +--> THERMO
  +--> _I2C_PUTS/I2C

FUSE_INITIALIZE/FUSE                          ----- -----  ----- -----  ----- -----
  +--> _DEBUG_PRINTF/DEBUG
  +--> FUSE_POWER_OFF/FUSE

FUSE_POWER_OFF/FUSE                           ----- -----  ----- -----  ----- -----
  +--> _SERIAL_SET_CTL_BIT/SERIAL_HUB
  +--> SERIAL_CTL_OUT/SERIAL_HUB

_SERIAL_SET_CTL_BIT/SERIAL_HUB                20H.2 20H.2  ----- -----  ----- -----
LX51 LINKER/LOCATER V4.66.87.0                                                        06/04/2018  21:13:51  PAGE 23


  +--> SERIAL_HUB

MPU_INITIALIZE/MPU                            ----- -----  ----- -----  ----- -----
  +--> _DEBUG_PRINTF/DEBUG
  +--> MPU_POWER_ON/MPU
  +--> MPU_POWER_OFF/MPU

MPU_POWER_ON/MPU                              ----- -----  ----- -----  0016H 0016H
  +--> _DEBUG_PRINTF/DEBUG
  +--> MPU_LOAD_CONFIG/MPU
  +--> _I2C_PUT/I2C
  +--> MPU
  +--> _I2C_GET/I2C

MPU_LOAD_CONFIG/MPU                           ----- -----  ----- -----  ----- -----
  +--> _DEBUG_PRINTF/DEBUG
  +--> _ROM_READ/ROM

MPU                                           ----- -----  ----- -----  ----- -----

MPU_POWER_OFF/MPU                             ----- -----  ----- -----  0016H 0016H
  +--> _DEBUG_PRINTF/DEBUG
  +--> _I2C_PUT/I2C
  +--> MPU
  +--> _I2C_GET/I2C

HG_INITIALIZE/HG                              ----- -----  ----- -----  ----- -----
  +--> _DEBUG_PRINTF/DEBUG
  +--> HG_POWER_OFF/HG

HG_POWER_OFF/HG                               ----- -----  ----- -----  ----- -----
  +--> _SERIAL_SET_CTL_BIT/SERIAL_HUB
  +--> SERIAL_CTL_OUT/SERIAL_HUB

INT_HUB_INITIALIZE/INT_HUB                    ----- -----  ----- -----  0000H 0000H
  +--> _DEBUG_PRINTF/DEBUG
  +--> _I2C_PUT/I2C
  +--> _I2C_GET/I2C

TASK_INITIALIZE/TASK                          ----- -----  ----- -----  ----- -----
  +--> _DEBUG_PRINTF/DEBUG

_TIME_PROC/SM                                 ----- -----  ----- -----  000CH 000CH
  +--> DELAY_TASK_CALL/DELAY_TASK
  +--> _RUN_STATE_MACHINE/SM

DELAY_TASK_CALL/DELAY_TASK                    ----- -----  ----- -----  000DH 000DH
  +--> DELAY_TASK
  +--> _DEBUG_PRINTF/DEBUG

DELAY_TASK                                    ----- -----  ----- -----  ----- -----

_RUN_STATE_MACHINE/SM                         ----- -----  ----- -----  000DH 0010H
  +--> SM
  +--> _DEBUG_PRINTF/DEBUG

SM                                            ----- -----  ----- -----  ----- -----

_SM_CLOCK_DISPLAY_SUBMOD0/SM_CLOCK_DISPL+     ----- -----  ----- -----  0011H 0012H
... AY
  +--> SM_CLOCK_DISPLAY
  +--> _DEBUG_PRINTF/DEBUG
  +--> LED_CLEAR/LED
  +--> CLOCK_DISPLAY/CLOCK
  +--> _CLOCK_SWITCH_DISPLAY_MODE/CLOCK
LX51 LINKER/LOCATER V4.66.87.0                                                        06/04/2018  21:13:51  PAGE 24


  +--> POWER_RESET_POWERSAVE_TO/POWER
  +--> POWER_TEST_POWERSAVE_TO/POWER

SM_CLOCK_DISPLAY                              ----- -----  ----- -----  ----- -----

LED_CLEAR/LED                                 ----- -----  ----- -----  ----- -----

CLOCK_DISPLAY/CLOCK                           20H.0 20H.0  ----- -----  ----- -----

_CLOCK_SWITCH_DISPLAY_MODE/CLOCK              ----- -----  ----- -----  ----- -----

POWER_RESET_POWERSAVE_TO/POWER                ----- -----  ----- -----  ----- -----
  +--> CLOCK_GET_SEC_256/CLOCK

CLOCK_GET_SEC_256/CLOCK                       ----- -----  ----- -----  ----- -----

POWER_TEST_POWERSAVE_TO/POWER                 ----- -----  ----- -----  ----- -----
  +--> CLOCK_GET_SEC_256/CLOCK
  +--> _DEBUG_PRINTF/DEBUG

_SM_CLOCK_DISPLAY_SUBMOD1/SM_CLOCK_DISPL+     ----- -----  ----- -----  0011H 0011H
... AY
  +--> SM_CLOCK_DISPLAY
  +--> _DEBUG_PRINTF/DEBUG
  +--> _CLOCK_SWITCH_DISPLAY_MODE/CLOCK
  +--> RESET_AUTO_SWITCH/SM_CLOCK_DISPLAY
  +--> POWER_RESET_POWERSAVE_TO/POWER
  +--> TEST_AUTOSWITCH/SM_CLOCK_DISPLAY

RESET_AUTO_SWITCH/SM_CLOCK_DISPLAY            ----- -----  ----- -----  ----- -----
  +--> CLOCK_GET_SEC_256/CLOCK

TEST_AUTOSWITCH/SM_CLOCK_DISPLAY              ----- -----  ----- -----  ----- -----
  +--> CLOCK_GET_SEC_256/CLOCK
  +--> _DEBUG_PRINTF/DEBUG

_SM_CLOCK_MOD_TIME_INIT/SM_CLOCK_MOD_TIM+     ----- -----  ----- -----  ----- -----
... E
  +--> SM_CLOCK_MOD_TIME
  +--> _DEBUG_PRINTF/DEBUG
  +--> CLOCK_DISPLAY/CLOCK
  +--> _DISPLAY_LOGO/MOD_COMMON

SM_CLOCK_MOD_TIME                             ----- -----  ----- -----  ----- -----

_DISPLAY_LOGO/MOD_COMMON                      ----- -----  ----- -----  0012H 0013H
  +--> _DEBUG_PRINTF/DEBUG
  +--> LED_CLEAR/LED
  +--> _LED_SET_CODE/LED
  +--> BEEPER_BEEP_BEEP_ALWAYS/BEEPER

_LED_SET_CODE/LED                             ----- -----  ----- -----  ----- -----

BEEPER_BEEP_BEEP_ALWAYS/BEEPER                ----- -----  ----- -----  0014H 0014H
  +--> _DEBUG_PRINTF/DEBUG
  +--> _DELAY_10US/MISC
  +--> _DELAY_MS/MISC

_DELAY_10US/MISC                              ----- -----  ----- -----  ----- -----
  +--> INTERNAL_DELAY_10US/MISC

INTERNAL_DELAY_10US/MISC                      ----- -----  ----- -----  ----- -----

_SM_CLOCK_ALARM/SM_CLOCK_ALARM                ----- -----  ----- -----  0011H 0012H
  +--> _DEBUG_PRINTF/DEBUG
LX51 LINKER/LOCATER V4.66.87.0                                                        06/04/2018  21:13:51  PAGE 25


  +--> SM_CLOCK_ALARM
  +--> CLOCK_DISPLAY/CLOCK
  +--> _DISPLAY_ALARM/SM_CLOCK_ALARM
  +--> BEEPER_PLAY_MUSIC/BEEPER
  +--> BEEPER_BEEP_BEEP_ALWAYS/BEEPER

SM_CLOCK_ALARM                                ----- -----  ----- -----  ----- -----

_DISPLAY_ALARM/SM_CLOCK_ALARM                 20H.0 20H.0  ----- -----  0013H 0015H
  +--> LED_CLEAR/LED
  +--> _LED_SET_CODE/LED
  +--> ALARM0_GET_HOUR/ALARM
  +--> ALARM0_GET_MIN/ALARM
  +--> ALARM0_GET_HOUR_12/ALARM
  +--> CLOCK_GET_HOUR/CLOCK
  +--> CLOCK_GET_MIN/CLOCK
  +--> CLOCK_GET_HOUR_12/CLOCK
  +--> _LED_SET_DP/LED
  +--> _LED_CLR_DP/LED

ALARM0_GET_HOUR/ALARM                         ----- -----  ----- -----  ----- -----

ALARM0_GET_MIN/ALARM                          ----- -----  ----- -----  ----- -----

ALARM0_GET_HOUR_12/ALARM                      ----- -----  ----- -----  ----- -----

CLOCK_GET_HOUR/CLOCK                          ----- -----  ----- -----  ----- -----

CLOCK_GET_MIN/CLOCK                           ----- -----  ----- -----  ----- -----

CLOCK_GET_HOUR_12/CLOCK                       ----- -----  ----- -----  ----- -----

_LED_SET_DP/LED                               ----- -----  ----- -----  ----- -----

_LED_CLR_DP/LED                               ----- -----  ----- -----  ----- -----

BEEPER_PLAY_MUSIC/BEEPER                      ----- -----  ----- -----  ----- -----
  +--> _DEBUG_PRINTF/DEBUG
  +--> __BEEPLER_PLAY/BEEPER

__BEEPLER_PLAY/BEEPER                         20H.0 20H.0  ----- -----  0013H 0018H
  +--> BEEPER
  +--> CLOCK_GET_SEC_256/CLOCK
  +--> _DEBUG_PRINTF/DEBUG
  +--> _BEEPER_STOP_PLAY/BEEPER
  +--> _DELAY_MS/MISC
  +--> _DELAY_10US/MISC

BEEPER                                        ----- -----  ----- -----  ----- -----

_BEEPER_STOP_PLAY/BEEPER                      ----- -----  ----- -----  ----- -----

_SM_CLOCK_POWERSAVE/SM_CLOCK_POWERSAVE        ----- -----  ----- -----  0011H 0012H
  +--> _DEBUG_PRINTF/DEBUG
  +--> POWER_ENTER_POWERSAVE/POWER
  +--> POWER_LEAVE_POWERSAVE/POWER

POWER_ENTER_POWERSAVE/POWER                   ----- -----  ----- -----  ----- -----
  +--> _DEBUG_PRINTF/DEBUG
  +--> POWER_SET_FLAG/POWER
  +--> LED_ENTER_POWERSAVE/LED
  +--> TIMER_ENTER_POWERSAVE/TIMER
  +--> LT_TIMER_ENTER_POWERSAVE/LT_TIMER
  +--> CLOCK_ENTER_POWERSAVE/CLOCK
  +--> RTC_ENTER_POWERSAVE/RTC
LX51 LINKER/LOCATER V4.66.87.0                                                        06/04/2018  21:13:51  PAGE 26


  +--> KEY_ENTER_POWERSAVE/KEY
  +--> ALARM_ENTER_POWERSAVE/ALARM
  +--> BEEPER_ENTER_POWERSAVE/BEEPER
  +--> FUSE_ENTER_POWERSAVE/FUSE
  +--> HG_ENTER_POWERSAVE/HG
  +--> MPU_ENTER_POWERSAVE/MPU
  +--> THERMO_ENTER_POWERSAVE/THERMO
  +--> COM_ENTER_POWERSAVE/COM
  +--> POWER_TEST_FLAG/POWER
  +--> COM_LEAVE_POWERSAVE/COM
  +--> _SCAN_INT_HUB_PROC/INT_HUB

POWER_SET_FLAG/POWER                          ----- -----  ----- -----  ----- -----

LED_ENTER_POWERSAVE/LED                       ----- -----  ----- -----  ----- -----
  +--> _DEBUG_PRINTF/DEBUG
  +--> LED
  +--> LED_CLEAR/LED

TIMER_ENTER_POWERSAVE/TIMER                   ----- -----  ----- -----  ----- -----
  +--> _DEBUG_PRINTF/DEBUG
  +--> TIMER_CLR/TIMER

TIMER_CLR/TIMER                               ----- -----  ----- -----  ----- -----

LT_TIMER_ENTER_POWERSAVE/LT_TIMER             ----- -----  ----- -----  ----- -----
  +--> _DEBUG_PRINTF/DEBUG
  +--> RTC_IS_LT_TIMER/RTC
  +--> LT_TIMER_STOP_RAM/LT_TIMER
  +--> LT_TIMER_START_RTC/LT_TIMER

RTC_IS_LT_TIMER/RTC                           ----- -----  ----- -----  ----- -----

LT_TIMER_STOP_RAM/LT_TIMER                    ----- -----  ----- -----  ----- -----
  +--> _DEBUG_PRINTF/DEBUG

LT_TIMER_START_RTC/LT_TIMER                   ----- -----  ----- -----  ----- -----
  +--> _DEBUG_PRINTF/DEBUG
  +--> _RTC_READ_DATA/RTC
  +--> _RTC_ENABLE_ALARM_INT/RTC
  +--> _RTC_CLR_ALARM_INT_FLAG/RTC
  +--> _RTC_WRITE_DATA/RTC

CLOCK_ENTER_POWERSAVE/CLOCK                   ----- -----  ----- -----  ----- -----
  +--> _DEBUG_PRINTF/DEBUG
  +--> CLOCK_ENABLE_INTERRUPT/CLOCK

RTC_ENTER_POWERSAVE/RTC                       ----- -----  ----- -----  ----- -----
  +--> _DEBUG_PRINTF/DEBUG
  +--> _RTC_READ_DATA/RTC
  +--> RTC_SET_EN32KHZ/RTC
  +--> _RTC_WRITE_DATA/RTC

KEY_ENTER_POWERSAVE/KEY                       ----- -----  ----- -----  ----- -----
  +--> _DEBUG_PRINTF/DEBUG

ALARM_ENTER_POWERSAVE/ALARM                   ----- -----  ----- -----  ----- -----
  +--> _DEBUG_PRINTF/DEBUG

BEEPER_ENTER_POWERSAVE/BEEPER                 ----- -----  ----- -----  ----- -----
  +--> _DEBUG_PRINTF/DEBUG

FUSE_ENTER_POWERSAVE/FUSE                     ----- -----  ----- -----  ----- -----
  +--> _DEBUG_PRINTF/DEBUG

LX51 LINKER/LOCATER V4.66.87.0                                                        06/04/2018  21:13:51  PAGE 27


HG_ENTER_POWERSAVE/HG                         ----- -----  ----- -----  ----- -----
  +--> _DEBUG_PRINTF/DEBUG

MPU_ENTER_POWERSAVE/MPU                       ----- -----  ----- -----  ----- -----
  +--> _DEBUG_PRINTF/DEBUG

THERMO_ENTER_POWERSAVE/THERMO                 ----- -----  ----- -----  ----- -----
  +--> _DEBUG_PRINTF/DEBUG

COM_ENTER_POWERSAVE/COM                       ----- -----  ----- -----  ----- -----
  +--> _DEBUG_PRINTF/DEBUG

POWER_TEST_FLAG/POWER                         ----- -----  ----- -----  ----- -----

COM_LEAVE_POWERSAVE/COM                       ----- -----  ----- -----  ----- -----
  +--> _DEBUG_PRINTF/DEBUG

_SCAN_INT_HUB_PROC/INT_HUB                    ----- -----  ----- -----  0013H 0015H
  +--> _DEBUG_PRINTF/DEBUG
  +--> INT_HUB_DUMP/INT_HUB
  +--> SCAN_RTC/RTC
  +--> INT_HUB_GET_STATUS/INT_HUB
  +--> _INT_HUB_DUMP_EXT_STATUS/INT_HUB
  +--> INT_HUB
  +--> _SCAN_HG/HG
  +--> _SCAN_FUSE/FUSE
  +--> _SCAN_THERMO/THERMO
  +--> SCAN_MPU/MPU

INT_HUB_DUMP/INT_HUB                          ----- -----  ----- -----  ----- -----
  +--> _DEBUG_PRINTF/DEBUG

SCAN_RTC/RTC                                  ----- -----  ----- -----  ----- -----
  +--> _DEBUG_PRINTF/DEBUG
  +--> SCAN_ALARM/ALARM
  +--> SCAN_LT_TIMER/LT_TIMER

SCAN_ALARM/ALARM                              20H.0 20H.1  ----- -----  ----- -----
  +--> _RTC_READ_DATA/RTC
  +--> _RTC_TEST_ALARM_INT_FLAG/RTC
  +--> _RTC_CLR_ALARM_INT_FLAG/RTC
  +--> _RTC_WRITE_DATA/RTC
  +--> CLOCK_GET_DAY/CLOCK
  +--> ALARM
  +--> POWER_TEST_FLAG/POWER
  +--> POWER_CLR_FLAG/POWER
  +--> RTC_TIME_GET_MIN/RTC
  +--> RTC_TIME_GET_SEC/RTC

CLOCK_GET_DAY/CLOCK                           ----- -----  ----- -----  ----- -----

ALARM                                         ----- -----  ----- -----  ----- -----

POWER_CLR_FLAG/POWER                          ----- -----  ----- -----  ----- -----

SCAN_LT_TIMER/LT_TIMER                        20H.0 20H.0  ----- -----  ----- -----
  +--> _DEBUG_PRINTF/DEBUG
  +--> _RTC_READ_DATA/RTC
  +--> _RTC_TEST_ALARM_INT_FLAG/RTC
  +--> _RTC_CLR_ALARM_INT_FLAG/RTC
  +--> _RTC_WRITE_DATA/RTC
  +--> LT_TIMER_GET_YEAR/LT_TIMER
  +--> RTC_DATE_GET_YEAR/RTC
  +--> LT_TIMER_GET_MONTH/LT_TIMER
  +--> RTC_DATE_GET_MONTH/RTC
LX51 LINKER/LOCATER V4.66.87.0                                                        06/04/2018  21:13:51  PAGE 28


  +--> POWER_TEST_FLAG/POWER
  +--> POWER_CLR_FLAG/POWER
  +--> LT_TIMER

LT_TIMER_GET_YEAR/LT_TIMER                    ----- -----  ----- -----  ----- -----

LT_TIMER_GET_MONTH/LT_TIMER                   ----- -----  ----- -----  ----- -----

LT_TIMER                                      ----- -----  ----- -----  ----- -----

INT_HUB_GET_STATUS/INT_HUB                    ----- -----  ----- -----  0016H 0018H
  +--> _I2C_GET/I2C
  +--> _DEBUG_PRINTF/DEBUG

_INT_HUB_DUMP_EXT_STATUS/INT_HUB              ----- -----  ----- -----  0016H 0017H
  +--> _DEBUG_PRINTF/DEBUG
  +--> _INT_HUB_TEST_BIT/INT_HUB
  +--> INT_HUB

_INT_HUB_TEST_BIT/INT_HUB                     ----- -----  ----- -----  ----- -----

INT_HUB                                       ----- -----  ----- -----  ----- -----

_SCAN_HG/HG                                   ----- -----  ----- -----  0016H 0018H
  +--> _DEBUG_PRINTF/DEBUG
  +--> __HG_GET_STATE/HG
  +--> HG
  +--> POWER_TEST_FLAG/POWER
  +--> POWER_CLR_FLAG/POWER

__HG_GET_STATE/HG                             ----- -----  ----- -----  ----- -----

HG                                            ----- -----  ----- -----  ----- -----

_SCAN_FUSE/FUSE                               20H.0 20H.0  ----- -----  0016H 0017H
  +--> _DEBUG_PRINTF/DEBUG
  +--> POWER_TEST_FLAG/POWER
  +--> POWER_CLR_FLAG/POWER

_SCAN_THERMO/THERMO                           20H.0 20H.0  ----- -----  0016H 0017H
  +--> _DEBUG_PRINTF/DEBUG
  +--> POWER_TEST_FLAG/POWER
  +--> POWER_CLR_FLAG/POWER

SCAN_MPU/MPU                                  20H.0 20H.0  ----- -----  ----- -----
  +--> _DEBUG_PRINTF/DEBUG
  +--> MPU_READ_INT_STATUS/MPU
  +--> POWER_TEST_FLAG/POWER
  +--> POWER_CLR_FLAG/POWER

MPU_READ_INT_STATUS/MPU                       ----- -----  ----- -----  0016H 0016H
  +--> _I2C_GET/I2C
  +--> _DEBUG_PRINTF/DEBUG

POWER_LEAVE_POWERSAVE/POWER                   ----- -----  ----- -----  ----- -----
  +--> COM_LEAVE_POWERSAVE/COM
  +--> THERMO_LEAVE_POWERSAVE/THERMO
  +--> MPU_LEAVE_POWERSAVE/MPU
  +--> HG_LEAVE_POWERSAVE/HG
  +--> FUSE_LEAVE_POWERSAVE/FUSE
  +--> BEEPER_LEAVE_POWERSAVE/BEEPER
  +--> ALARM_LEAVE_POWERSAVE/ALARM
  +--> KEY_LEAVE_POWERSAVE/KEY
  +--> RTC_LEAVE_POWERSAVE/RTC
  +--> CLOCK_LEAVE_POWERSAVE/CLOCK
LX51 LINKER/LOCATER V4.66.87.0                                                        06/04/2018  21:13:51  PAGE 29


  +--> LT_TIMER_LEAVE_POWERSAVE/LT_TIMER
  +--> TIMER_LEAVE_POWERSAVE/TIMER
  +--> LED_LEAVE_POWERSAVE/LED
  +--> _DEBUG_PRINTF/DEBUG

THERMO_LEAVE_POWERSAVE/THERMO                 ----- -----  ----- -----  ----- -----
  +--> _DEBUG_PRINTF/DEBUG

MPU_LEAVE_POWERSAVE/MPU                       ----- -----  ----- -----  ----- -----
  +--> _DEBUG_PRINTF/DEBUG

HG_LEAVE_POWERSAVE/HG                         ----- -----  ----- -----  ----- -----
  +--> _DEBUG_PRINTF/DEBUG

FUSE_LEAVE_POWERSAVE/FUSE                     ----- -----  ----- -----  ----- -----
  +--> _DEBUG_PRINTF/DEBUG

BEEPER_LEAVE_POWERSAVE/BEEPER                 ----- -----  ----- -----  ----- -----
  +--> _DEBUG_PRINTF/DEBUG

ALARM_LEAVE_POWERSAVE/ALARM                   ----- -----  ----- -----  ----- -----
  +--> _DEBUG_PRINTF/DEBUG

KEY_LEAVE_POWERSAVE/KEY                       ----- -----  ----- -----  ----- -----
  +--> _DEBUG_PRINTF/DEBUG

RTC_LEAVE_POWERSAVE/RTC                       ----- -----  ----- -----  ----- -----
  +--> _DEBUG_PRINTF/DEBUG
  +--> _RTC_READ_DATA/RTC
  +--> RTC_SET_EN32KHZ/RTC
  +--> _RTC_WRITE_DATA/RTC

CLOCK_LEAVE_POWERSAVE/CLOCK                   ----- -----  ----- -----  ----- -----
  +--> _DEBUG_PRINTF/DEBUG
  +--> _CLOCK_SYNC_FROM_RTC/CLOCK
  +--> CLOCK_ENABLE_INTERRUPT/CLOCK

LT_TIMER_LEAVE_POWERSAVE/LT_TIMER             ----- -----  ----- -----  ----- -----
  +--> _DEBUG_PRINTF/DEBUG
  +--> RTC_IS_LT_TIMER/RTC
  +--> LT_TIMER_STOP_RTC/LT_TIMER
  +--> LT_TIMER_LOAD_FROM_ROM/LT_TIMER
  +--> LT_TIMER_GET_RELATIVE/LT_TIMER
  +--> LT_TIMER
  +--> LT_TIMER_START_RAM/LT_TIMER

LT_TIMER_STOP_RTC/LT_TIMER                    ----- -----  ----- -----  ----- -----
  +--> _DEBUG_PRINTF/DEBUG
  +--> _RTC_READ_DATA/RTC
  +--> _RTC_ENABLE_ALARM_INT/RTC
  +--> _RTC_CLR_ALARM_INT_FLAG/RTC
  +--> _RTC_WRITE_DATA/RTC

LT_TIMER_LOAD_FROM_ROM/LT_TIMER               ----- -----  ----- -----  ----- -----
  +--> _ROM_READ/ROM

LT_TIMER_GET_RELATIVE/LT_TIMER                20H.0 20H.1  ----- -----  ----- -----
  +--> CLOCK_ENABLE_INTERRUPT/CLOCK
  +--> LT_TIMER_SUB_SEC_MIN/LT_TIMER
  +--> LT_TIMER_SUB_MIN_HOUR/LT_TIMER
  +--> LT_TIMER_SUB_HOUR_DATE/LT_TIMER
  +--> LT_TIMER_SUB_DATE/LT_TIMER
  +--> LT_TIMER
  +--> _DEBUG_PRINTF/DEBUG

LX51 LINKER/LOCATER V4.66.87.0                                                        06/04/2018  21:13:51  PAGE 30


LT_TIMER_SUB_SEC_MIN/LT_TIMER                 20H.2 20H.2  ----- -----  ----- -----
  +--> CLOCK_GET_SEC/CLOCK

CLOCK_GET_SEC/CLOCK                           ----- -----  ----- -----  ----- -----

LT_TIMER_SUB_MIN_HOUR/LT_TIMER                20H.2 20H.3  ----- -----  ----- -----
  +--> CLOCK_GET_MIN/CLOCK
  +--> LT_TIMER

LT_TIMER_SUB_HOUR_DATE/LT_TIMER               20H.2 20H.3  ----- -----  ----- -----
  +--> CLOCK_GET_HOUR/CLOCK
  +--> LT_TIMER

LT_TIMER_SUB_DATE/LT_TIMER                    20H.2 20H.2  ----- -----  0016H 001BH
  +--> CLOCK_GET_YEAR/CLOCK
  +--> LT_TIMER
  +--> _CLOCK_IS_LEAP_YEAR/CLOCK
  +--> CLOCK_GET_MONTH/CLOCK
  +--> CLOCK_GET_DATE/CLOCK

CLOCK_GET_YEAR/CLOCK                          ----- -----  ----- -----  ----- -----

CLOCK_GET_MONTH/CLOCK                         ----- -----  ----- -----  ----- -----

CLOCK_GET_DATE/CLOCK                          ----- -----  ----- -----  ----- -----

LT_TIMER_START_RAM/LT_TIMER                   ----- -----  ----- -----  ----- -----
  +--> _DEBUG_PRINTF/DEBUG

TIMER_LEAVE_POWERSAVE/TIMER                   ----- -----  ----- -----  ----- -----
  +--> _DEBUG_PRINTF/DEBUG

LED_LEAVE_POWERSAVE/LED                       ----- -----  ----- -----  ----- -----
  +--> _DEBUG_PRINTF/DEBUG
  +--> LED_CLEAR/LED

_SM_CLOCK_TIMER_INIT/SM_CLOCK_TIMER           ----- -----  ----- -----  ----- -----
  +--> SM_CLOCK_TIMER
  +--> _DEBUG_PRINTF/DEBUG
  +--> CLOCK_DISPLAY/CLOCK
  +--> _DISPLAY_LOGO/MOD_COMMON

SM_CLOCK_TIMER                                ----- -----  ----- -----  ----- -----

_SM_POWER_PACK_DISPLAY_INIT/SM_POWER_PAC+     ----- -----  ----- -----  ----- -----
... K_DISPLAY
  +--> SM_POWER_PACK_DISPLAY
  +--> _DEBUG_PRINTF/DEBUG
  +--> CLOCK_DISPLAY/CLOCK
  +--> ALARM_SWITCH_OFF/ALARM
  +--> _DISPLAY_LOGO/MOD_COMMON

SM_POWER_PACK_DISPLAY                         ----- -----  ----- -----  ----- -----

ALARM_SWITCH_OFF/ALARM                        ----- -----  ----- -----  ----- -----
  +--> _DEBUG_PRINTF/DEBUG
  +--> _RTC_READ_DATA/RTC
  +--> _RTC_ENABLE_ALARM_INT/RTC
  +--> _RTC_WRITE_DATA/RTC
  +--> RTC_DUMP/RTC

_SM_CLOCK_DISPLAY_SUBMOD2/SM_CLOCK_DISPL+     ----- -----  ----- -----  0011H 0011H
... AY
  +--> SM_CLOCK_DISPLAY
  +--> _DEBUG_PRINTF/DEBUG
LX51 LINKER/LOCATER V4.66.87.0                                                        06/04/2018  21:13:51  PAGE 31


  +--> _CLOCK_SWITCH_DISPLAY_MODE/CLOCK
  +--> RESET_AUTO_SWITCH/SM_CLOCK_DISPLAY
  +--> POWER_RESET_POWERSAVE_TO/POWER
  +--> TEST_AUTOSWITCH/SM_CLOCK_DISPLAY

_SM_CLOCK_DISPLAY_SUBMOD3/SM_CLOCK_DISPL+     ----- -----  ----- -----  0011H 0011H
... AY
  +--> SM_CLOCK_DISPLAY
  +--> _DEBUG_PRINTF/DEBUG
  +--> CLOCK_DISPLAY/CLOCK
  +--> DISPLAY_TEMP/SM_CLOCK_DISPLAY
  +--> RESET_AUTO_SWITCH/SM_CLOCK_DISPLAY
  +--> POWER_RESET_POWERSAVE_TO/POWER
  +--> TEST_AUTOSWITCH/SM_CLOCK_DISPLAY

DISPLAY_TEMP/SM_CLOCK_DISPLAY                 20H.0 20H.0  ----- -----  0012H 0013H
  +--> _RTC_READ_DATA/RTC
  +--> _RTC_GET_TEMPERATURE/RTC
  +--> _DEBUG_PRINTF/DEBUG
  +--> LED_CLEAR/LED
  +--> _LED_SET_DP/LED
  +--> _LED_SET_CODE/LED
  +--> SM_CLOCK_DISPLAY

_RTC_GET_TEMPERATURE/RTC                      20H.1 20H.1  ----- -----  0014H 001DH
  +--> RTC

_SM_CLOCK_MOD_TIME_SUBMOD0/SM_CLOCK_MOD_+     ----- -----  ----- -----  0011H 0012H
... TIME
  +--> SM_CLOCK_MOD_TIME
  +--> _DEBUG_PRINTF/DEBUG
  +--> _SM_CLOCK_MOD_TIME/SM_CLOCK_MOD_TIME

_SM_CLOCK_MOD_TIME/SM_CLOCK_MOD_TIME          ----- -----  ----- -----  0013H 0014H
  +--> _ENTER_HHMMSS/SM_CLOCK_MOD_TIME
  +--> _ENTER_YYMMDD/SM_CLOCK_MOD_TIME
  +--> _INC_AND_WRITE/SM_CLOCK_MOD_TIME
  +--> _INC_ONLY/SM_CLOCK_MOD_TIME
  +--> _WRITE_ONLY/SM_CLOCK_MOD_TIME
  +--> UPDATE_HHMMSS/SM_CLOCK_MOD_TIME
  +--> UPDATE_YYMMDD/SM_CLOCK_MOD_TIME

_ENTER_HHMMSS/SM_CLOCK_MOD_TIME               ----- -----  ----- -----  0015H 0015H
  +--> LED_CLEAR/LED
  +--> _LED_SET_BLINK/LED
  +--> UPDATE_HHMMSS/SM_CLOCK_MOD_TIME

_LED_SET_BLINK/LED                            ----- -----  ----- -----  ----- -----

UPDATE_HHMMSS/SM_CLOCK_MOD_TIME               ----- -----  ----- -----  0017H 0019H
  +--> CLOCK_GET_HOUR/CLOCK
  +--> CLOCK_GET_MIN/CLOCK
  +--> CLOCK_GET_SEC/CLOCK
  +--> _LED_SET_DP/LED
  +--> CLOCK_GET_HOUR_12/CLOCK
  +--> _LED_CLR_DP/LED
  +--> _DEBUG_PRINTF/DEBUG
  +--> _LED_SET_CODE/LED
  +--> SM_CLOCK_MOD_TIME

_ENTER_YYMMDD/SM_CLOCK_MOD_TIME               ----- -----  ----- -----  0015H 0015H
  +--> LED_CLEAR/LED
  +--> _LED_SET_BLINK/LED
  +--> UPDATE_YYMMDD/SM_CLOCK_MOD_TIME

LX51 LINKER/LOCATER V4.66.87.0                                                        06/04/2018  21:13:51  PAGE 32


UPDATE_YYMMDD/SM_CLOCK_MOD_TIME               ----- -----  ----- -----  0017H 0019H
  +--> CLOCK_GET_YEAR/CLOCK
  +--> CLOCK_GET_MONTH/CLOCK
  +--> CLOCK_GET_DATE/CLOCK
  +--> _LED_SET_DP/LED
  +--> _DEBUG_PRINTF/DEBUG
  +--> _LED_SET_CODE/LED
  +--> SM_CLOCK_MOD_TIME

_INC_AND_WRITE/SM_CLOCK_MOD_TIME              ----- -----  ----- -----  0015H 0015H
  +--> _INC_ONLY/SM_CLOCK_MOD_TIME
  +--> _WRITE_ONLY/SM_CLOCK_MOD_TIME

_INC_ONLY/SM_CLOCK_MOD_TIME                   ----- -----  ----- -----  0016H 0016H
  +--> CLOCK_INC_HOUR/CLOCK
  +--> CLOCK_INC_YEAR/CLOCK
  +--> CLOCK_INC_MIN/CLOCK
  +--> CLOCK_INC_MONTH/CLOCK
  +--> _LED_CLR_BLINK/LED
  +--> CLOCK_CLR_SEC/CLOCK
  +--> CLOCK_INC_DATE/CLOCK
  +--> UPDATE_HHMMSS/SM_CLOCK_MOD_TIME
  +--> UPDATE_YYMMDD/SM_CLOCK_MOD_TIME

CLOCK_INC_HOUR/CLOCK                          ----- -----  ----- -----  ----- -----

CLOCK_INC_YEAR/CLOCK                          ----- -----  ----- -----  ----- -----
  +--> CLOCK
  +--> _CLOCK_YYMMDD_TO_DAY/CLOCK

CLOCK_INC_MIN/CLOCK                           ----- -----  ----- -----  ----- -----

CLOCK_INC_MONTH/CLOCK                         ----- -----  ----- -----  ----- -----
  +--> CLOCK
  +--> _CLOCK_YYMMDD_TO_DAY/CLOCK

_LED_CLR_BLINK/LED                            ----- -----  ----- -----  ----- -----

CLOCK_CLR_SEC/CLOCK                           ----- -----  ----- -----  ----- -----

CLOCK_INC_DATE/CLOCK                          ----- -----  ----- -----  ----- -----
  +--> _CLOCK_GET_MON_DATE/CLOCK
  +--> CLOCK
  +--> _CLOCK_YYMMDD_TO_DAY/CLOCK

_CLOCK_GET_MON_DATE/CLOCK                     ----- -----  ----- -----  ----- -----
  +--> CLOCK

_WRITE_ONLY/SM_CLOCK_MOD_TIME                 ----- -----  ----- -----  ----- -----
  +--> _CLOCK_SYNC_TO_RTC/CLOCK
  +--> _LED_SET_BLINK/LED

_CLOCK_SYNC_TO_RTC/CLOCK                      ----- -----  ----- -----  0016H 0016H
  +--> _DEBUG_PRINTF/DEBUG
  +--> CLOCK_ENABLE_INTERRUPT/CLOCK
  +--> _RTC_READ_DATA/RTC
  +--> RTC_TIME_SET_HOUR_12/RTC
  +--> _RTC_TIME_SET_HOUR/RTC
  +--> _RTC_TIME_SET_MIN/RTC
  +--> _RTC_TIME_SET_SEC/RTC
  +--> _RTC_DATE_SET_YEAR/RTC
  +--> _RTC_DATE_SET_MONTH/RTC
  +--> _RTC_DATE_SET_DATE/RTC
  +--> _RTC_WRITE_DATA/RTC

LX51 LINKER/LOCATER V4.66.87.0                                                        06/04/2018  21:13:51  PAGE 33


_SM_CLOCK_MOD_TIME_SUBMOD1/SM_CLOCK_MOD_+     ----- -----  ----- -----  0011H 0011H
... TIME
  +--> SM_CLOCK_MOD_TIME
  +--> _DEBUG_PRINTF/DEBUG
  +--> _SM_CLOCK_MOD_TIME/SM_CLOCK_MOD_TIME

_SM_CLOCK_MOD_ALARM_INIT/SM_CLOCK_MOD_AL+     ----- -----  ----- -----  ----- -----
... ARM
  +--> SM_CLOCK_MOD_ALARM
  +--> _DEBUG_PRINTF/DEBUG
  +--> _DISPLAY_LOGO/MOD_COMMON

SM_CLOCK_MOD_ALARM                            ----- -----  ----- -----  ----- -----

_SM_CLOCK_MOD_TIME_SUBMOD2/SM_CLOCK_MOD_+     ----- -----  ----- -----  0011H 0011H
... TIME
  +--> SM_CLOCK_MOD_TIME
  +--> _DEBUG_PRINTF/DEBUG
  +--> _SM_CLOCK_MOD_TIME/SM_CLOCK_MOD_TIME

_SM_CLOCK_MOD_TIME_SUBMOD3/SM_CLOCK_MOD_+     ----- -----  ----- -----  0011H 0011H
... TIME
  +--> SM_CLOCK_MOD_TIME
  +--> _DEBUG_PRINTF/DEBUG
  +--> _SM_CLOCK_MOD_TIME/SM_CLOCK_MOD_TIME

_SM_CLOCK_MOD_TIME_SUBMOD4/SM_CLOCK_MOD_+     ----- -----  ----- -----  0011H 0011H
... TIME
  +--> SM_CLOCK_MOD_TIME
  +--> _DEBUG_PRINTF/DEBUG
  +--> _SM_CLOCK_MOD_TIME/SM_CLOCK_MOD_TIME

_SM_CLOCK_MOD_TIME_SUBMOD5/SM_CLOCK_MOD_+     ----- -----  ----- -----  0011H 0011H
... TIME
  +--> SM_CLOCK_MOD_TIME
  +--> _DEBUG_PRINTF/DEBUG
  +--> _SM_CLOCK_MOD_TIME/SM_CLOCK_MOD_TIME

_SM_CLOCK_MOD_ALARM_SUBMOD0/SM_CLOCK_MOD+     ----- -----  ----- -----  0011H 0012H
... _ALARM
  +--> SM_CLOCK_MOD_ALARM
  +--> _DEBUG_PRINTF/DEBUG
  +--> _ENTER_ALARM/SM_CLOCK_MOD_ALARM
  +--> _INC_WRITE/SM_CLOCK_MOD_ALARM
  +--> _INC_ONLY/SM_CLOCK_MOD_ALARM
  +--> _WRITE_ONLY/SM_CLOCK_MOD_ALARM

_ENTER_ALARM/SM_CLOCK_MOD_ALARM               ----- -----  ----- -----  0013H 0014H
  +--> LED_CLEAR/LED
  +--> _LED_SET_BLINK/LED
  +--> _UPDATE_ALARM/SM_CLOCK_MOD_ALARM

_UPDATE_ALARM/SM_CLOCK_MOD_ALARM              ----- -----  ----- -----  0015H 0018H
  +--> ALARM0_GET_HOUR/ALARM
  +--> ALARM0_GET_MIN/ALARM
  +--> _LED_SET_DP/LED
  +--> ALARM0_GET_HOUR_12/ALARM
  +--> _LED_CLR_DP/LED
  +--> _DEBUG_PRINTF/DEBUG
  +--> _LED_SET_CODE/LED
  +--> _ALARM0_TEST_ENABLE/ALARM
  +--> ALARM1_TEST_ENABLE/ALARM
  +--> BEEPER_GET_MUSIC_INDEX/BEEPER

_ALARM0_TEST_ENABLE/ALARM                     ----- -----  ----- -----  0019H 0019H
LX51 LINKER/LOCATER V4.66.87.0                                                        06/04/2018  21:13:51  PAGE 34


  +--> ALARM
  +--> _DEBUG_PRINTF/DEBUG

ALARM1_TEST_ENABLE/ALARM                      ----- -----  ----- -----  ----- -----

BEEPER_GET_MUSIC_INDEX/BEEPER                 ----- -----  ----- -----  ----- -----

_INC_WRITE/SM_CLOCK_MOD_ALARM                 ----- -----  ----- -----  0013H 0013H
  +--> _INC_ONLY/SM_CLOCK_MOD_ALARM
  +--> _WRITE_ONLY/SM_CLOCK_MOD_ALARM

_INC_ONLY/SM_CLOCK_MOD_ALARM                  ----- -----  ----- -----  ----- -----
  +--> _LED_CLR_BLINK/LED
  +--> ALARM0_INC_HOUR/ALARM
  +--> ALARM0_INC_MIN/ALARM
  +--> _UPDATE_ALARM/SM_CLOCK_MOD_ALARM

ALARM0_INC_HOUR/ALARM                         ----- -----  ----- -----  ----- -----

ALARM0_INC_MIN/ALARM                          ----- -----  ----- -----  ----- -----

_WRITE_ONLY/SM_CLOCK_MOD_ALARM                ----- -----  ----- -----  0014H 0014H
  +--> ALARM0_SYNC_TO_RTC/ALARM
  +--> _LED_SET_BLINK/LED
  +--> ALARM0_GET_HOUR/ALARM
  +--> ALARM0_GET_MIN/ALARM
  +--> ALARM0_GET_DAY_MASK/ALARM
  +--> _ROM_WRITE/ROM

ALARM0_SYNC_TO_RTC/ALARM                      ----- -----  ----- -----  ----- -----
  +--> _DEBUG_PRINTF/DEBUG
  +--> _RTC_READ_DATA/RTC
  +--> _RTC_ALARM_SET_MODE/RTC
  +--> RTC_ALARM_SET_HOUR_12/RTC
  +--> _RTC_ALARM_SET_HOUR/RTC
  +--> _RTC_ALARM_SET_MIN/RTC
  +--> _RTC_ALARM_SET_SEC/RTC
  +--> _RTC_WRITE_DATA/RTC
  +--> _RTC_ENABLE_ALARM_INT/RTC
  +--> _RTC_CLR_ALARM_INT_FLAG/RTC

_RTC_ALARM_SET_MODE/RTC                       ----- -----  ----- -----  ----- -----
  +--> RTC

RTC_ALARM_SET_HOUR_12/RTC                     20H.0 20H.0  ----- -----  ----- -----
  +--> RTC
  +--> _RTC_SET_HOUR_12/RTC

_RTC_ALARM_SET_HOUR/RTC                       ----- -----  ----- -----  ----- -----
  +--> RTC
  +--> __RTC_SET_HOUR/RTC

_RTC_ALARM_SET_MIN/RTC                        ----- -----  ----- -----  ----- -----
  +--> RTC
  +--> __RTC_SET_MIN_SEC/RTC

_RTC_ALARM_SET_SEC/RTC                        ----- -----  ----- -----  ----- -----
  +--> RTC

ALARM0_GET_DAY_MASK/ALARM                     ----- -----  ----- -----  ----- -----

_SM_CLOCK_MOD_ALARM_SUBMOD1/SM_CLOCK_MOD+     ----- -----  ----- -----  0011H 0011H
... _ALARM
  +--> SM_CLOCK_MOD_ALARM
  +--> _DEBUG_PRINTF/DEBUG
LX51 LINKER/LOCATER V4.66.87.0                                                        06/04/2018  21:13:51  PAGE 35


  +--> _ENTER_ALARM/SM_CLOCK_MOD_ALARM
  +--> _INC_WRITE/SM_CLOCK_MOD_ALARM
  +--> _INC_ONLY/SM_CLOCK_MOD_ALARM
  +--> _WRITE_ONLY/SM_CLOCK_MOD_ALARM

_SM_CLOCK_DISPLAY_INIT/SM_CLOCK_DISPLAY       ----- -----  ----- -----  ----- -----
  +--> SM_CLOCK_DISPLAY
  +--> _DEBUG_PRINTF/DEBUG
  +--> LT_TIMER_SWITCH_OFF/LT_TIMER
  +--> ALARM_SWITCH_ON/ALARM
  +--> RTC_SET_LT_TIMER/RTC
  +--> POWER_5V_ENABLE/POWER
  +--> _DISPLAY_LOGO/MOD_COMMON

LT_TIMER_SWITCH_OFF/LT_TIMER                  ----- -----  ----- -----  ----- -----
  +--> _DEBUG_PRINTF/DEBUG
  +--> _RTC_READ_DATA/RTC
  +--> _RTC_ENABLE_ALARM_INT/RTC
  +--> _RTC_WRITE_DATA/RTC
  +--> RTC_DUMP/RTC

ALARM_SWITCH_ON/ALARM                         ----- -----  ----- -----  ----- -----
  +--> _DEBUG_PRINTF/DEBUG
  +--> ALARM_LOAD_ROM/ALARM
  +--> ALARM_DUMP/ALARM
  +--> ALARM0_SYNC_TO_RTC/ALARM
  +--> ALARM1_SYNC_TO_RTC/ALARM
  +--> RTC_DUMP/RTC

ALARM_LOAD_ROM/ALARM                          ----- -----  ----- -----  ----- -----
  +--> _ROM_READ/ROM

ALARM_DUMP/ALARM                              ----- -----  ----- -----  ----- -----
  +--> ALARM
  +--> _DEBUG_PRINTF/DEBUG

ALARM1_SYNC_TO_RTC/ALARM                      ----- -----  ----- -----  ----- -----
  +--> _DEBUG_PRINTF/DEBUG
  +--> _RTC_READ_DATA/RTC
  +--> _RTC_ALARM_SET_MODE/RTC
  +--> RTC_ALARM_SET_HOUR_12/RTC
  +--> _RTC_ALARM_SET_HOUR/RTC
  +--> _RTC_ALARM_SET_MIN/RTC
  +--> _RTC_WRITE_DATA/RTC
  +--> _RTC_ENABLE_ALARM_INT/RTC
  +--> _RTC_CLR_ALARM_INT_FLAG/RTC

RTC_SET_LT_TIMER/RTC                          20H.0 20H.0  ----- -----  ----- -----

POWER_5V_ENABLE/POWER                         20H.1 20H.1  ----- -----  ----- -----
  +--> _DEBUG_PRINTF/DEBUG

_SM_CLOCK_MOD_ALARM_SUBMOD2/SM_CLOCK_MOD+     ----- -----  ----- -----  0011H 0012H
... _ALARM
  +--> SM_CLOCK_MOD_ALARM
  +--> _DEBUG_PRINTF/DEBUG
  +--> _TOGGLE_ALARM/SM_CLOCK_MOD_ALARM
  +--> _ENTER_ALARM/SM_CLOCK_MOD_ALARM

_TOGGLE_ALARM/SM_CLOCK_MOD_ALARM              ----- -----  ----- -----  0013H 0013H
  +--> _ALARM0_TEST_ENABLE/ALARM
  +--> _ALARM0_SET_ENABLE/ALARM
  +--> _UPDATE_ALARM/SM_CLOCK_MOD_ALARM
  +--> _WRITE_ONLY/SM_CLOCK_MOD_ALARM

LX51 LINKER/LOCATER V4.66.87.0                                                        06/04/2018  21:13:51  PAGE 36


_ALARM0_SET_ENABLE/ALARM                      20H.0 20H.0  ----- -----  0014H 0014H
  +--> _DEBUG_PRINTF/DEBUG
  +--> ALARM

_SM_CLOCK_MOD_ALARM_SUBMOD3/SM_CLOCK_MOD+     ----- -----  ----- -----  0011H 0011H
... _ALARM
  +--> SM_CLOCK_MOD_ALARM
  +--> _DEBUG_PRINTF/DEBUG
  +--> _ENTER_ALARM/SM_CLOCK_MOD_ALARM
  +--> TOGGLE_ALARM_BS/SM_CLOCK_MOD_ALARM

TOGGLE_ALARM_BS/SM_CLOCK_MOD_ALARM            ----- -----  ----- -----  ----- -----
  +--> ALARM1_TEST_ENABLE/ALARM
  +--> ALARM1_SET_ENABLE/ALARM
  +--> ALARM1_SYNC_TO_RTC/ALARM
  +--> _ROM_WRITE/ROM
  +--> _UPDATE_ALARM/SM_CLOCK_MOD_ALARM

ALARM1_SET_ENABLE/ALARM                       20H.0 20H.0  ----- -----  ----- -----

_SM_CLOCK_MOD_ALARM_SUBMOD4/SM_CLOCK_MOD+     ----- -----  ----- -----  0011H 0011H
... _ALARM
  +--> SM_CLOCK_MOD_ALARM
  +--> _DEBUG_PRINTF/DEBUG
  +--> _ENTER_ALARM/SM_CLOCK_MOD_ALARM
  +--> TOGGLE_ALARM_MUSIC/SM_CLOCK_MOD_ALARM

TOGGLE_ALARM_MUSIC/SM_CLOCK_MOD_ALARM         ----- -----  ----- -----  ----- -----
  +--> BEEPER_INC_MUSIC_INDEX/BEEPER
  +--> BEEPER_GET_MUSIC_INDEX/BEEPER
  +--> _ROM_WRITE/ROM
  +--> _UPDATE_ALARM/SM_CLOCK_MOD_ALARM

BEEPER_INC_MUSIC_INDEX/BEEPER                 ----- -----  ----- -----  ----- -----
  +--> _DEBUG_PRINTF/DEBUG

_SM_CLOCK_TIMER_SUBMOD0/SM_CLOCK_TIMER        ----- -----  ----- -----  0011H 0013H
  +--> SM_CLOCK_TIMER
  +--> _DEBUG_PRINTF/DEBUG
  +--> _DISPLAY_SLOT/SM_CLOCK_TIMER
  +--> _TIMER_SET_MODE/TIMER
  +--> TIMER_CLR/TIMER

_DISPLAY_SLOT/SM_CLOCK_TIMER                  ----- -----  ----- -----  0014H 0014H
  +--> LED_CLEAR/LED
  +--> _LED_SET_DP/LED
  +--> _TIMER_GET_MIN/TIMER
  +--> _TIMER_GET_SEC/TIMER
  +--> SM_CLOCK_TIMER
  +--> _LED_SET_CODE/LED
  +--> _TIMER_GET_MS10/TIMER

_TIMER_GET_MIN/TIMER                          ----- -----  ----- -----  ----- -----
  +--> TIMER

TIMER                                         ----- -----  ----- -----  ----- -----

_TIMER_GET_SEC/TIMER                          ----- -----  ----- -----  ----- -----
  +--> TIMER

_TIMER_GET_MS10/TIMER                         ----- -----  ----- -----  ----- -----
  +--> TIMER

_TIMER_SET_MODE/TIMER                         ----- -----  ----- -----  ----- -----

LX51 LINKER/LOCATER V4.66.87.0                                                        06/04/2018  21:13:51  PAGE 37


_SM_CLOCK_COUNTER_INIT/SM_CLOCK_COUNTER       ----- -----  ----- -----  ----- -----
  +--> SM_CLOCK_COUNTER
  +--> _DEBUG_PRINTF/DEBUG
  +--> _DISPLAY_LOGO/MOD_COMMON

SM_CLOCK_COUNTER                              ----- -----  ----- -----  ----- -----

_SM_CLOCK_TIMER_SUBMOD1/SM_CLOCK_TIMER        ----- -----  ----- -----  0011H 0011H
  +--> SM_CLOCK_TIMER
  +--> _DEBUG_PRINTF/DEBUG
  +--> TIMER_START/TIMER
  +--> TIMER_SET_LED_AUTOREFRESH/TIMER
  +--> _SHOW_SLOT_TITLE/SM_CLOCK_TIMER
  +--> _TIMER_SAVE/TIMER

TIMER_START/TIMER                             ----- -----  ----- -----  ----- -----
  +--> _DEBUG_PRINTF/DEBUG

TIMER_SET_LED_AUTOREFRESH/TIMER               20H.0 20H.0  ----- -----  0014H 0014H

_SHOW_SLOT_TITLE/SM_CLOCK_TIMER               ----- -----  ----- -----  0012H 0012H
  +--> LED_CLEAR/LED
  +--> _LED_SET_CODE/LED
  +--> SM_CLOCK_TIMER

_TIMER_SAVE/TIMER                             ----- -----  ----- -----  ----- -----

_SM_CLOCK_TIMER_SUBMOD2/SM_CLOCK_TIMER        ----- -----  ----- -----  0011H 0011H
  +--> SM_CLOCK_TIMER
  +--> _DEBUG_PRINTF/DEBUG
  +--> TIMER_STOP/TIMER
  +--> TIMER_SET_LED_AUTOREFRESH/TIMER
  +--> _DISPLAY_SLOT/SM_CLOCK_TIMER
  +--> _SHOW_SLOT_TITLE/SM_CLOCK_TIMER

TIMER_STOP/TIMER                              ----- -----  ----- -----  ----- -----

_SM_CLOCK_COUNTER_SUBMOD0/SM_CLOCK_COUNT+     ----- -----  ----- -----  0011H 0013H
... ER
  +--> SM_CLOCK_COUNTER
  +--> _DEBUG_PRINTF/DEBUG
  +--> _ENTER_HHMMSS/SM_CLOCK_COUNTER
  +--> TIMER_CLR/TIMER
  +--> _TIMER_SET_MODE/TIMER
  +--> TIMER_SET_LED_AUTOREFRESH/TIMER
  +--> UPDATE_HHMMSS/SM_CLOCK_COUNTER
  +--> _INC_AND_WRITE/SM_CLOCK_COUNTER
  +--> _INC_ONLY/SM_CLOCK_COUNTER
  +--> _WRITE_ONLY/SM_CLOCK_COUNTER

_ENTER_HHMMSS/SM_CLOCK_COUNTER                ----- -----  ----- -----  0014H 0014H
  +--> LED_CLEAR/LED
  +--> _LED_SET_BLINK/LED
  +--> UPDATE_HHMMSS/SM_CLOCK_COUNTER

UPDATE_HHMMSS/SM_CLOCK_COUNTER                ----- -----  ----- -----  0015H 0017H
  +--> _TIMER_GET_HOUR/TIMER
  +--> _TIMER_GET_MIN/TIMER
  +--> _TIMER_GET_SEC/TIMER
  +--> _LED_SET_DP/LED
  +--> _DEBUG_PRINTF/DEBUG
  +--> SM_CLOCK_COUNTER
  +--> _LED_SET_CODE/LED

_TIMER_GET_HOUR/TIMER                         ----- -----  ----- -----  ----- -----
LX51 LINKER/LOCATER V4.66.87.0                                                        06/04/2018  21:13:51  PAGE 38


  +--> TIMER

_INC_AND_WRITE/SM_CLOCK_COUNTER               ----- -----  ----- -----  ----- -----
  +--> _INC_ONLY/SM_CLOCK_COUNTER
  +--> _WRITE_ONLY/SM_CLOCK_COUNTER

_INC_ONLY/SM_CLOCK_COUNTER                    ----- -----  ----- -----  ----- -----
  +--> _TIMER_INC_HOUR/TIMER
  +--> _TIMER_INC_MIN/TIMER
  +--> _LED_CLR_BLINK/LED
  +--> _TIMER_INC_SEC/TIMER

_TIMER_INC_HOUR/TIMER                         ----- -----  ----- -----  ----- -----
  +--> TIMER

_TIMER_INC_MIN/TIMER                          ----- -----  ----- -----  ----- -----
  +--> TIMER

_TIMER_INC_SEC/TIMER                          ----- -----  ----- -----  ----- -----
  +--> TIMER

_WRITE_ONLY/SM_CLOCK_COUNTER                  ----- -----  ----- -----  ----- -----
  +--> _LED_SET_BLINK/LED

_SM_CLOCK_COUNTER_SUBMOD1/SM_CLOCK_COUNT+     ----- -----  ----- -----  0011H 0011H
... ER
  +--> SM_CLOCK_COUNTER
  +--> _DEBUG_PRINTF/DEBUG
  +--> UPDATE_HHMMSS/SM_CLOCK_COUNTER
  +--> _ENTER_HHMMSS/SM_CLOCK_COUNTER
  +--> _INC_AND_WRITE/SM_CLOCK_COUNTER
  +--> _INC_ONLY/SM_CLOCK_COUNTER
  +--> _WRITE_ONLY/SM_CLOCK_COUNTER

_SM_CLOCK_COUNTER_SUBMOD2/SM_CLOCK_COUNT+     ----- -----  ----- -----  0011H 0011H
... ER
  +--> SM_CLOCK_COUNTER
  +--> _DEBUG_PRINTF/DEBUG
  +--> UPDATE_HHMMSS/SM_CLOCK_COUNTER
  +--> _ENTER_HHMMSS/SM_CLOCK_COUNTER
  +--> _INC_AND_WRITE/SM_CLOCK_COUNTER
  +--> _INC_ONLY/SM_CLOCK_COUNTER
  +--> _WRITE_ONLY/SM_CLOCK_COUNTER

_SM_CLOCK_COUNTER_SUBMOD3/SM_CLOCK_COUNT+     ----- -----  ----- -----  0011H 0011H
... ER
  +--> SM_CLOCK_COUNTER
  +--> _DEBUG_PRINTF/DEBUG
  +--> _LED_CLR_BLINK/LED
  +--> TIMER_START/TIMER
  +--> TIMER_SET_LED_AUTOREFRESH/TIMER

_SM_CLOCK_COUNTER_SUBMOD4/SM_CLOCK_COUNT+     ----- -----  ----- -----  0011H 0011H
... ER
  +--> SM_CLOCK_COUNTER
  +--> _DEBUG_PRINTF/DEBUG
  +--> TIMER_STOP/TIMER
  +--> TIMER_SET_LED_AUTOREFRESH/TIMER

_SM_CLOCK_COUNTER_SUBMOD5/SM_CLOCK_COUNT+     ----- -----  ----- -----  0011H 0011H
... ER
  +--> SM_CLOCK_COUNTER
  +--> _DEBUG_PRINTF/DEBUG
  +--> TIMER_SET_LED_AUTOREFRESH/TIMER
  +--> TIMER_CLR/TIMER
LX51 LINKER/LOCATER V4.66.87.0                                                        06/04/2018  21:13:51  PAGE 39


  +--> BEEPER_BEEP_BEEP_ALWAYS/BEEPER

_SM_POWER_PACK_DISPLAY_SUBMOD0/SM_POWER_+     ----- -----  ----- -----  0011H 0011H
... PACK_DISPLAY
  +--> SM_POWER_PACK_DISPLAY
  +--> _DEBUG_PRINTF/DEBUG
  +--> POWER_5V_ENABLE/POWER
  +--> POWER_RESET_POWERSAVE_TO/POWER
  +--> POWER_5V_GET_ENABLE/POWER
  +--> DISPLAY_POWER_VOLUME/SM_POWER_PACK_DISPLAY
  +--> POWER_TEST_POWERSAVE_TO/POWER

POWER_5V_GET_ENABLE/POWER                     ----- -----  ----- -----  ----- -----

DISPLAY_POWER_VOLUME/SM_POWER_PACK_DISPL+     ----- -----  ----- -----  0012H 0012H
... AY
  +--> POWER_GET_VOLUME/POWER
  +--> LED_CLEAR/LED
  +--> _LED_SET_CODE/LED

POWER_GET_VOLUME/POWER                        ----- -----  ----- -----  ----- -----

_SM_FUSE_TEST_INIT/SM_FUSE_TEST               ----- -----  ----- -----  0011H 0011H
  +--> SM_FUSE_TEST
  +--> _DEBUG_PRINTF/DEBUG
  +--> CLOCK_DISPLAY/CLOCK
  +--> _DISPLAY_LOGO/MOD_COMMON
  +--> LT_TIMER_SWITCH_ON/LT_TIMER
  +--> RTC_SET_LT_TIMER/RTC
  +--> POWER_5V_ENABLE/POWER

SM_FUSE_TEST                                  ----- -----  ----- -----  ----- -----

LT_TIMER_SWITCH_ON/LT_TIMER                   ----- -----  ----- -----  ----- -----
  +--> _DEBUG_PRINTF/DEBUG
  +--> LT_TIMER_LOAD_FROM_ROM/LT_TIMER
  +--> LT_TIMER_SYNC_TO_RTC/LT_TIMER
  +--> LT_TIMER_STOP_RTC/LT_TIMER
  +--> RTC_DUMP/RTC

LT_TIMER_SYNC_TO_RTC/LT_TIMER                 ----- -----  ----- -----  ----- -----
  +--> LT_TIMER
  +--> _DEBUG_PRINTF/DEBUG
  +--> _RTC_READ_DATA/RTC
  +--> _RTC_ALARM_SET_MODE/RTC
  +--> RTC_ALARM_SET_HOUR_12/RTC
  +--> _RTC_ALARM_SET_DATE/RTC
  +--> _RTC_ALARM_SET_HOUR/RTC
  +--> _RTC_ALARM_SET_MIN/RTC
  +--> _RTC_ALARM_SET_SEC/RTC
  +--> _RTC_WRITE_DATA/RTC

_RTC_ALARM_SET_DATE/RTC                       ----- -----  ----- -----  ----- -----
  +--> RTC
  +--> __RTC_SET_DATE/RTC

_SM_POWER_PACK_POWERSAVE_INIT/SM_POWER_P+     ----- -----  ----- -----  ----- -----
... ACK_POWERSAVE
  +--> SM_POWER_PACK_POWERSAVE
  +--> _DEBUG_PRINTF/DEBUG

SM_POWER_PACK_POWERSAVE                       ----- -----  ----- -----  ----- -----

_SM_POWER_PACK_POWERSAVE_SUBMOD0/SM_POWE+     ----- -----  ----- -----  0011H 0011H
... R_PACK_POWERSAVE
LX51 LINKER/LOCATER V4.66.87.0                                                        06/04/2018  21:13:51  PAGE 40


  +--> SM_POWER_PACK_POWERSAVE
  +--> _DEBUG_PRINTF/DEBUG
  +--> POWER_ENTER_POWERSAVE/POWER
  +--> POWER_LEAVE_POWERSAVE/POWER

_SM_FUSE_TEST_SUBMOD0/SM_FUSE_TEST            ----- -----  ----- -----  0011H 0011H
  +--> SM_FUSE_TEST
  +--> _DEBUG_PRINTF/DEBUG
  +--> RESET_ALL/SM_FUSE_TEST
  +--> CLOCK_GET_SEC_256/CLOCK
  +--> FUSE_ENABLE/FUSE
  +--> _FUSE_SET_FUSE_BROKE/FUSE
  +--> FUSE_SET_TRIPWIRE_BROKE/FUSE
  +--> _DISPLAY_TEST/SM_FUSE_TEST

RESET_ALL/SM_FUSE_TEST                        ----- -----  ----- -----  ----- -----
  +--> _DEBUG_PRINTF/DEBUG
  +--> THERMO_HI_ENABLE/THERMO
  +--> THERMO_LO_ENABLE/THERMO
  +--> MPU_ENABLE/MPU
  +--> HG_ENABLE/HG
  +--> FUSE_ENABLE/FUSE

THERMO_HI_ENABLE/THERMO                       20H.1 20H.1  ----- -----  ----- -----
  +--> _DEBUG_PRINTF/DEBUG
  +--> THERMO_HI_POWER_ON/THERMO
  +--> THERMO_HI_POWER_OFF/THERMO

THERMO_HI_POWER_ON/THERMO                     ----- -----  ----- -----  ----- -----
  +--> THERMO_HI_LOAD_CONFIG/THERMO
  +--> _I2C_PUT/I2C
  +--> THERMO_HI_THRESHOLD_RESET/THERMO

THERMO_LO_ENABLE/THERMO                       20H.1 20H.1  ----- -----  ----- -----
  +--> _DEBUG_PRINTF/DEBUG
  +--> THERMO_LO_POWER_ON/THERMO
  +--> THERMO_LO_POWER_OFF/THERMO

THERMO_LO_POWER_ON/THERMO                     ----- -----  ----- -----  ----- -----
  +--> THERMO_LO_LOAD_CONFIG/THERMO
  +--> _I2C_PUT/I2C
  +--> THERMO_LO_THRESHOLD_RESET/THERMO

MPU_ENABLE/MPU                                20H.1 20H.1  ----- -----  ----- -----
  +--> _DEBUG_PRINTF/DEBUG
  +--> MPU_POWER_ON/MPU
  +--> MPU_POWER_OFF/MPU

HG_ENABLE/HG                                  20H.1 20H.1  ----- -----  ----- -----
  +--> _DEBUG_PRINTF/DEBUG
  +--> HG_POWER_ON/HG
  +--> HG_POWER_OFF/HG

HG_POWER_ON/HG                                ----- -----  ----- -----  ----- -----
  +--> _SERIAL_SET_CTL_BIT/SERIAL_HUB
  +--> SERIAL_CTL_OUT/SERIAL_HUB
  +--> HG_CB_SET_ENABLE/HG
  +--> _DELAY_TASK_REG/DELAY_TASK

HG_CB_SET_ENABLE/HG                           ----- -----  ----- -----  ----- -----
  +--> _DEBUG_PRINTF/DEBUG

_DELAY_TASK_REG/DELAY_TASK                    ----- -----  ----- -----  0016H 0019H
  +--> _DEBUG_PRINTF/DEBUG
  +--> DELAY_TASK
LX51 LINKER/LOCATER V4.66.87.0                                                        06/04/2018  21:13:51  PAGE 41



FUSE_ENABLE/FUSE                              20H.1 20H.1  ----- -----  ----- -----
  +--> _DEBUG_PRINTF/DEBUG
  +--> FUSE_POWER_ON/FUSE
  +--> FUSE_POWER_OFF/FUSE

FUSE_POWER_ON/FUSE                            ----- -----  ----- -----  ----- -----
  +--> _SERIAL_SET_CTL_BIT/SERIAL_HUB
  +--> SERIAL_CTL_OUT/SERIAL_HUB

_FUSE_SET_FUSE_BROKE/FUSE                     20H.0 20H.0  ----- -----  0012H 0012H
  +--> _DEBUG_PRINTF/DEBUG
  +--> _SERIAL_SET_CTL_BIT/SERIAL_HUB
  +--> SERIAL_CTL_OUT/SERIAL_HUB

FUSE_SET_TRIPWIRE_BROKE/FUSE                  20H.0 20H.0  ----- -----  ----- -----
  +--> _DEBUG_PRINTF/DEBUG
  +--> _SERIAL_SET_CTL_BIT/SERIAL_HUB
  +--> SERIAL_CTL_OUT/SERIAL_HUB

_DISPLAY_TEST/SM_FUSE_TEST                    ----- -----  ----- -----  0015H 0018H
  +--> SM_FUSE_TEST
  +--> _DEBUG_PRINTF/DEBUG
  +--> LED_CLEAR/LED
  +--> _LED_SET_DP/LED
  +--> _LED_SET_CODE/LED
  +--> _LED_SET_BLINK/LED

_SM_FUSE_TEST_SUBMOD1/SM_FUSE_TEST            ----- -----  ----- -----  0011H 0011H
  +--> SM_FUSE_TEST
  +--> _DEBUG_PRINTF/DEBUG
  +--> _SM_FUSE_SET/SM_FUSE_TEST

_SM_FUSE_SET/SM_FUSE_TEST                     ----- -----  ----- -----  0012H 0013H
  +--> _ENTER_SET/SM_FUSE_TEST
  +--> _INC_WRITE/SM_FUSE_TEST
  +--> _INC_ONLY/SM_FUSE_TEST
  +--> _WRITE_ONLY/SM_FUSE_TEST

_ENTER_SET/SM_FUSE_TEST                       ----- -----  ----- -----  0014H 0014H
  +--> SM_FUSE_TEST
  +--> _DEBUG_PRINTF/DEBUG
  +--> LED_CLEAR/LED
  +--> _LED_SET_DP/LED
  +--> _LED_SET_BLINK/LED
  +--> _LED_SET_CODE/LED
  +--> _ROM_READ/ROM
  +--> _UPDATE_SET/SM_FUSE_TEST

_UPDATE_SET/SM_FUSE_TEST                      ----- -----  ----- -----  ----- -----
  +--> _LED_SET_CODE/LED
  +--> SM_FUSE_TEST

_INC_WRITE/SM_FUSE_TEST                       ----- -----  ----- -----  0014H 0014H
  +--> _DEBUG_PRINTF/DEBUG
  +--> _INC_ONLY/SM_FUSE_TEST
  +--> _WRITE_ONLY/SM_FUSE_TEST

_INC_ONLY/SM_FUSE_TEST                        ----- -----  ----- -----  0015H 0015H
  +--> SM_FUSE_TEST
  +--> _DEBUG_PRINTF/DEBUG
  +--> _LED_CLR_BLINK/LED
  +--> _THERMO_THRESHOLD_INC/THERMO
  +--> _MPU_THRESHOLD_INC/MPU
  +--> _UPDATE_SET/SM_FUSE_TEST
LX51 LINKER/LOCATER V4.66.87.0                                                        06/04/2018  21:13:51  PAGE 42



_THERMO_THRESHOLD_INC/THERMO                  ----- -----  ----- -----  0016H 0016H
  +--> THERMO
  +--> _DEBUG_PRINTF/DEBUG

_MPU_THRESHOLD_INC/MPU                        ----- -----  ----- -----  ----- -----

_WRITE_ONLY/SM_FUSE_TEST                      ----- -----  ----- -----  0015H 0015H
  +--> SM_FUSE_TEST
  +--> _DEBUG_PRINTF/DEBUG
  +--> _LED_SET_BLINK/LED
  +--> _ROM_WRITE/ROM

_SM_FUSE_PARAM_INIT/SM_FUSE_PARAM             ----- -----  ----- -----  0011H 0011H
  +--> SM_FUSE_PARAM
  +--> _DEBUG_PRINTF/DEBUG
  +--> _DISPLAY_LOGO/MOD_COMMON

SM_FUSE_PARAM                                 ----- -----  ----- -----  ----- -----

_SM_GLOBAL_FLAG_MOD_INIT/SM_GLOBAL_FLAG_+     ----- -----  ----- -----  ----- -----
... MOD
  +--> SM_GLOBAL_FLAG_MOD
  +--> _DEBUG_PRINTF/DEBUG
  +--> LT_TIMER_SWITCH_OFF/LT_TIMER
  +--> _DISPLAY_LOGO/MOD_COMMON

SM_GLOBAL_FLAG_MOD                            ----- -----  ----- -----  ----- -----

_SM_FUSE_TEST_SUBMOD2/SM_FUSE_TEST            ----- -----  ----- -----  0011H 0011H
  +--> SM_FUSE_TEST
  +--> _DEBUG_PRINTF/DEBUG
  +--> _SM_FUSE_TEST_THERMO/SM_FUSE_TEST

_SM_FUSE_TEST_THERMO/SM_FUSE_TEST             ----- -----  ----- -----  0012H 0014H
  +--> SM_FUSE_TEST
  +--> RESET_ALL/SM_FUSE_TEST
  +--> THERMO_HI_THRESHOLD_GET/THERMO
  +--> THERMO_LO_THRESHOLD_GET/THERMO
  +--> _ROM_READ/ROM
  +--> _DEBUG_PRINTF/DEBUG
  +--> THERMO_HI_ENABLE/THERMO
  +--> THERMO_LO_ENABLE/THERMO
  +--> _DISPLAY_TEST/SM_FUSE_TEST
  +--> CLOCK_GET_SEC_256/CLOCK
  +--> THERMO_HI_THRESHOLD_REACH_BOTTOM/THERMO
  +--> THERMO_HI_THRESHOLD_DEC/THERMO
  +--> THERMO_LO_THRESHOLD_REACH_TOP/THERMO
  +--> THERMO_LO_THRESHOLD_INC/THERMO

THERMO_HI_THRESHOLD_GET/THERMO                ----- -----  ----- -----  0015H 0016H
  +--> THERMO
  +--> _I2C_GETS/I2C
  +--> _THERMO_HEX_TO_TEMP/THERMO

_THERMO_HEX_TO_TEMP/THERMO                    ----- -----  ----- -----  0017H 0017H
  +--> THERMO
  +--> _DEBUG_PRINTF/DEBUG

THERMO_LO_THRESHOLD_GET/THERMO                ----- -----  ----- -----  0015H 0016H
  +--> THERMO
  +--> _I2C_GETS/I2C
  +--> _THERMO_HEX_TO_TEMP/THERMO

THERMO_HI_THRESHOLD_REACH_BOTTOM/THERMO       ----- -----  ----- -----  ----- -----
LX51 LINKER/LOCATER V4.66.87.0                                                        06/04/2018  21:13:51  PAGE 43


  +--> THERMO_HI_THRESHOLD_GET/THERMO
  +--> THERMO

THERMO_HI_THRESHOLD_DEC/THERMO                ----- -----  ----- -----  ----- -----
  +--> THERMO_HI_THRESHOLD_GET/THERMO
  +--> THERMO
  +--> _THERMO_HI_THRESHOLD_SET/THERMO

THERMO_LO_THRESHOLD_REACH_TOP/THERMO          ----- -----  ----- -----  ----- -----
  +--> THERMO_LO_THRESHOLD_GET/THERMO
  +--> THERMO

THERMO_LO_THRESHOLD_INC/THERMO                ----- -----  ----- -----  ----- -----
  +--> THERMO_LO_THRESHOLD_GET/THERMO
  +--> THERMO
  +--> _THERMO_LO_THRESHOLD_SET/THERMO

_SM_FUSE_TEST_SUBMOD3/SM_FUSE_TEST            ----- -----  ----- -----  0011H 0011H
  +--> SM_FUSE_TEST
  +--> _DEBUG_PRINTF/DEBUG
  +--> _SM_FUSE_SET/SM_FUSE_TEST

_SM_FUSE_TEST_SUBMOD4/SM_FUSE_TEST            ----- -----  ----- -----  0011H 0011H
  +--> SM_FUSE_TEST
  +--> _DEBUG_PRINTF/DEBUG
  +--> _SM_FUSE_TEST_THERMO/SM_FUSE_TEST

_SM_FUSE_TEST_SUBMOD5/SM_FUSE_TEST            ----- -----  ----- -----  0011H 0011H
  +--> SM_FUSE_TEST
  +--> _DEBUG_PRINTF/DEBUG
  +--> _SM_FUSE_SET/SM_FUSE_TEST

_SM_FUSE_TEST_SUBMOD6/SM_FUSE_TEST            ----- -----  ----- -----  0011H 0011H
  +--> SM_FUSE_TEST
  +--> _DEBUG_PRINTF/DEBUG
  +--> _SM_FUSE_TEST_HG_MPU/SM_FUSE_TEST

_SM_FUSE_TEST_HG_MPU/SM_FUSE_TEST             ----- -----  ----- -----  0012H 0014H
  +--> RESET_ALL/SM_FUSE_TEST
  +--> SM_FUSE_TEST
  +--> _ROM_READ/ROM
  +--> HG_ENABLE/HG
  +--> MPU_ENABLE/MPU
  +--> MPU_THRESHOLD_GET/MPU
  +--> HG_GET_STATE/HG
  +--> _UPDATE_HG_MASK/SM_FUSE_TEST
  +--> _DISPLAY_TEST/SM_FUSE_TEST
  +--> CLOCK_GET_SEC_256/CLOCK

MPU_THRESHOLD_GET/MPU                         ----- -----  ----- -----  ----- -----

HG_GET_STATE/HG                               ----- -----  ----- -----  ----- -----
  +--> HG
  +--> _DEBUG_PRINTF/DEBUG

_UPDATE_HG_MASK/SM_FUSE_TEST                  ----- -----  ----- -----  0015H 0016H
  +--> SM_FUSE_TEST
  +--> _DEBUG_PRINTF/DEBUG

_SM_FUSE_TEST_SUBMOD7/SM_FUSE_TEST            ----- -----  ----- -----  0011H 0011H
  +--> SM_FUSE_TEST
  +--> _DEBUG_PRINTF/DEBUG
  +--> _SM_FUSE_SET/SM_FUSE_TEST

_SM_FUSE_TEST_SUBMOD8/SM_FUSE_TEST            ----- -----  ----- -----  0011H 0011H
LX51 LINKER/LOCATER V4.66.87.0                                                        06/04/2018  21:13:51  PAGE 44


  +--> SM_FUSE_TEST
  +--> _DEBUG_PRINTF/DEBUG
  +--> _SM_FUSE_TEST_HG_MPU/SM_FUSE_TEST

_SM_FUSE_PARAM_SUBMOD0/SM_FUSE_PARAM          ----- -----  ----- -----  0011H 0012H
  +--> SM_FUSE_PARAM
  +--> _DEBUG_PRINTF/DEBUG
  +--> LT_TIMER_LOAD_FROM_ROM/LT_TIMER
  +--> _SM_FUSE_PARAM_SET_TIME/SM_FUSE_PARAM

_SM_FUSE_PARAM_SET_TIME/SM_FUSE_PARAM         ----- -----  ----- -----  0013H 0014H
  +--> _ENTER_TIME/SM_FUSE_PARAM
  +--> _INC_AND_WRITE/SM_FUSE_PARAM
  +--> _UPDATE_TIME/SM_FUSE_PARAM
  +--> _INC_ONLY/SM_FUSE_PARAM
  +--> _WRITE_ONLY/SM_FUSE_PARAM

_ENTER_TIME/SM_FUSE_PARAM                     ----- -----  ----- -----  0015H 0015H
  +--> LED_CLEAR/LED
  +--> _LED_SET_BLINK/LED
  +--> _UPDATE_TIME/SM_FUSE_PARAM

_UPDATE_TIME/SM_FUSE_PARAM                    ----- -----  ----- -----  0016H 001BH
  +--> LT_TIMER_GET_YEAR/LT_TIMER
  +--> LT_TIMER_GET_MONTH/LT_TIMER
  +--> LT_TIMER_GET_DATE/LT_TIMER
  +--> _LED_SET_DP/LED
  +--> _DEBUG_PRINTF/DEBUG
  +--> _LED_SET_CODE/LED
  +--> LT_TIMER_GET_HOUR/LT_TIMER
  +--> LT_TIMER_GET_MIN/LT_TIMER
  +--> LT_TIMER_GET_SEC/LT_TIMER
  +--> LT_TIMER_GET_HOUR_12/LT_TIMER
  +--> _LED_CLR_DP/LED

LT_TIMER_GET_DATE/LT_TIMER                    ----- -----  ----- -----  ----- -----

LT_TIMER_GET_HOUR/LT_TIMER                    ----- -----  ----- -----  ----- -----

LT_TIMER_GET_MIN/LT_TIMER                     ----- -----  ----- -----  ----- -----

LT_TIMER_GET_SEC/LT_TIMER                     ----- -----  ----- -----  ----- -----

LT_TIMER_GET_HOUR_12/LT_TIMER                 ----- -----  ----- -----  ----- -----

_INC_AND_WRITE/SM_FUSE_PARAM                  ----- -----  ----- -----  ----- -----
  +--> _INC_ONLY/SM_FUSE_PARAM
  +--> _WRITE_ONLY/SM_FUSE_PARAM

_INC_ONLY/SM_FUSE_PARAM                       ----- -----  ----- -----  ----- -----
  +--> LT_TIMER_INC_HOUR/LT_TIMER
  +--> LT_TIMER_INC_YEAR/LT_TIMER
  +--> LT_TIMER_INC_MIN/LT_TIMER
  +--> LT_TIMER_INC_MONTH/LT_TIMER
  +--> _LED_CLR_BLINK/LED
  +--> LT_TIMER_INC_SEC/LT_TIMER
  +--> LT_TIMER_INC_DATE/LT_TIMER

LT_TIMER_INC_HOUR/LT_TIMER                    ----- -----  ----- -----  ----- -----

LT_TIMER_INC_YEAR/LT_TIMER                    ----- -----  ----- -----  ----- -----

LT_TIMER_INC_MIN/LT_TIMER                     ----- -----  ----- -----  ----- -----

LT_TIMER_INC_MONTH/LT_TIMER                   ----- -----  ----- -----  ----- -----
LX51 LINKER/LOCATER V4.66.87.0                                                        06/04/2018  21:13:51  PAGE 45



LT_TIMER_INC_SEC/LT_TIMER                     ----- -----  ----- -----  ----- -----

LT_TIMER_INC_DATE/LT_TIMER                    ----- -----  ----- -----  ----- -----
  +--> _CLOCK_GET_MON_DATE/CLOCK

_WRITE_ONLY/SM_FUSE_PARAM                     ----- -----  ----- -----  0015H 0015H
  +--> _ROM_WRITE/ROM
  +--> _LT_TIMER_SAVE_TO_ROM/LT_TIMER
  +--> _LED_SET_BLINK/LED

_LT_TIMER_SAVE_TO_ROM/LT_TIMER                ----- -----  ----- -----  0016H 0016H
  +--> LT_TIMER
  +--> _DEBUG_PRINTF/DEBUG
  +--> _ROM_WRITE/ROM

_SM_FUSE_PARAM_SUBMOD1/SM_FUSE_PARAM          ----- -----  ----- -----  0011H 0011H
  +--> SM_FUSE_PARAM
  +--> _DEBUG_PRINTF/DEBUG
  +--> _SM_FUSE_PARAM_SET_TIME/SM_FUSE_PARAM

_SM_FUSE_TIMER_INIT/SM_FUSE_TIMER             ----- -----  ----- -----  ----- -----
  +--> SM_FUSE_TIMER
  +--> _DEBUG_PRINTF/DEBUG
  +--> _DISPLAY_LOGO/MOD_COMMON

SM_FUSE_TIMER                                 ----- -----  ----- -----  ----- -----

_SM_FUSE_PARAM_SUBMOD2/SM_FUSE_PARAM          ----- -----  ----- -----  0011H 0011H
  +--> SM_FUSE_PARAM
  +--> _DEBUG_PRINTF/DEBUG
  +--> _SM_FUSE_PARAM_SET_TIME/SM_FUSE_PARAM

_SM_FUSE_PARAM_SUBMOD3/SM_FUSE_PARAM          ----- -----  ----- -----  0011H 0011H
  +--> SM_FUSE_PARAM
  +--> _DEBUG_PRINTF/DEBUG
  +--> _SM_FUSE_PARAM_SET_TIME/SM_FUSE_PARAM

_SM_FUSE_PARAM_SUBMOD4/SM_FUSE_PARAM          ----- -----  ----- -----  0011H 0011H
  +--> SM_FUSE_PARAM
  +--> _DEBUG_PRINTF/DEBUG
  +--> _SM_FUSE_PARAM_SET_TIME/SM_FUSE_PARAM

_SM_FUSE_PARAM_SUBMOD5/SM_FUSE_PARAM          ----- -----  ----- -----  0011H 0011H
  +--> SM_FUSE_PARAM
  +--> _DEBUG_PRINTF/DEBUG
  +--> _SM_FUSE_PARAM_SET_TIME/SM_FUSE_PARAM

_SM_FUSE_PARAM_SUBMOD6/SM_FUSE_PARAM          ----- -----  ----- -----  0011H 0012H
  +--> SM_FUSE_PARAM
  +--> _DEBUG_PRINTF/DEBUG
  +--> _ENTER_PASSWORD/SM_FUSE_PARAM
  +--> _INC_AND_WRITE/SM_FUSE_PARAM
  +--> _UPDATE_PASSWORD/SM_FUSE_PARAM
  +--> _INC_ONLY/SM_FUSE_PARAM
  +--> _WRITE_ONLY/SM_FUSE_PARAM

_ENTER_PASSWORD/SM_FUSE_PARAM                 ----- -----  ----- -----  0013H 0013H
  +--> _ROM_READ/ROM
  +--> _UPDATE_PASSWORD/SM_FUSE_PARAM

_UPDATE_PASSWORD/SM_FUSE_PARAM                ----- -----  ----- -----  0014H 0014H
  +--> LED_CLEAR/LED
  +--> _LED_SET_CODE/LED

LX51 LINKER/LOCATER V4.66.87.0                                                        06/04/2018  21:13:51  PAGE 46


_SM_FUSE_TIMER_SUBMOD0/SM_FUSE_TIMER          ----- -----  ----- -----  0011H 0012H
  +--> SM_FUSE_TIMER
  +--> _DEBUG_PRINTF/DEBUG
  +--> _DISPLAY_PREARM/SM_FUSE_TIMER
  +--> _CHECK_AND_SET/SM_FUSE_TIMER
  +--> ROLL_BACK/SM_FUSE_TIMER

_DISPLAY_PREARM/SM_FUSE_TIMER                 ----- -----  ----- -----  0013H 0014H
  +--> LED_CLEAR/LED
  +--> _LED_SET_CODE/LED
  +--> SM_FUSE_TIMER

_CHECK_AND_SET/SM_FUSE_TIMER                  ----- -----  ----- -----  0013H 0015H
  +--> FUSE_ENABLE/FUSE
  +--> MPU_ENABLE/MPU
  +--> HG_ENABLE/HG
  +--> _ROM_READ/ROM
  +--> THERMO_HI_ENABLE/THERMO
  +--> THERMO_LO_ENABLE/THERMO
  +--> LT_TIMER_LOAD_FROM_ROM/LT_TIMER
  +--> LT_TIMER_SYNC_TO_RTC/LT_TIMER
  +--> LT_TIMER_GET_RELATIVE/LT_TIMER
  +--> LT_TIMER_START_RAM/LT_TIMER

ROLL_BACK/SM_FUSE_TIMER                       20H.0 20H.0  ----- -----  ----- -----
  +--> _DEBUG_PRINTF/DEBUG
  +--> THERMO_HI_ENABLE/THERMO
  +--> THERMO_LO_ENABLE/THERMO
  +--> MPU_ENABLE/MPU
  +--> HG_ENABLE/HG
  +--> LT_TIMER_RESET/LT_TIMER
  +--> FUSE_ENABLE/FUSE

LT_TIMER_RESET/LT_TIMER                       ----- -----  ----- -----  ----- -----
  +--> LT_TIMER_STOP_RTC/LT_TIMER
  +--> LT_TIMER_STOP_RAM/LT_TIMER

_SM_FUSE_TIMER_SUBMOD1/SM_FUSE_TIMER          ----- -----  ----- -----  0011H 0012H
  +--> SM_FUSE_TIMER
  +--> _DEBUG_PRINTF/DEBUG
  +--> LT_TIMER_DISPLAY/LT_TIMER
  +--> POWER_TEST_POWERSAVE_TO/POWER
  +--> POWER_RESET_POWERSAVE_TO/POWER
  +--> LT_TIMER_SWITCH_DISPLAY/LT_TIMER

LT_TIMER_DISPLAY/LT_TIMER                     20H.0 20H.0  ----- -----  ----- -----
  +--> _DEBUG_PRINTF/DEBUG

LT_TIMER_SWITCH_DISPLAY/LT_TIMER              ----- -----  ----- -----  ----- -----
  +--> _DEBUG_PRINTF/DEBUG

_SM_FUSE_TIMER_SUBMOD2/SM_FUSE_TIMER          ----- -----  ----- -----  0011H 0012H
  +--> SM_FUSE_TIMER
  +--> _DEBUG_PRINTF/DEBUG
  +--> LT_TIMER_DISPLAY/LT_TIMER
  +--> VERIFY_PASSWORD/SM_FUSE_TIMER
  +--> DISPLAY_PASSWORD/SM_FUSE_TIMER
  +--> INC_PASSWORD/SM_FUSE_TIMER

VERIFY_PASSWORD/SM_FUSE_TIMER                 ----- -----  ----- -----  0013H 0013H
  +--> _ROM_READ/ROM
  +--> SM_FUSE_TIMER
  +--> _DEBUG_PRINTF/DEBUG

DISPLAY_PASSWORD/SM_FUSE_TIMER                ----- -----  ----- -----  ----- -----
LX51 LINKER/LOCATER V4.66.87.0                                                        06/04/2018  21:13:51  PAGE 47


  +--> LED_CLEAR/LED
  +--> _LED_SET_CODE/LED

INC_PASSWORD/SM_FUSE_TIMER                    ----- -----  ----- -----  ----- -----

_SM_FUSE_TIMER_SUBMOD3/SM_FUSE_TIMER          ----- -----  ----- -----  0011H 0011H
  +--> SM_FUSE_TIMER
  +--> _DEBUG_PRINTF/DEBUG
  +--> ROLL_BACK/SM_FUSE_TIMER
  +--> _DISPLAY_TIMER/SM_FUSE_TIMER

_DISPLAY_TIMER/SM_FUSE_TIMER                  ----- -----  ----- -----  0012H 0012H
  +--> LED_CLEAR/LED
  +--> _LED_SET_CODE/LED

_SM_FUSE_TIMER_SUBMOD4/SM_FUSE_TIMER          ----- -----  ----- -----  ----- -----
  +--> SM_FUSE_TIMER
  +--> _DEBUG_PRINTF/DEBUG
  +--> ROLL_BACK/SM_FUSE_TIMER
  +--> _DISPLAY_TIMER/SM_FUSE_TIMER

_SM_FUSE_DETONATE_INIT/SM_FUSE_DETONATE       ----- -----  ----- -----  ----- -----
  +--> SM_FUSE_DETONATE
  +--> _DEBUG_PRINTF/DEBUG
  +--> DISPLAY_DETONATE/SM_FUSE_DETONATE

SM_FUSE_DETONATE                              ----- -----  ----- -----  ----- -----

DISPLAY_DETONATE/SM_FUSE_DETONATE             ----- -----  ----- -----  ----- -----
  +--> LED_CLEAR/LED
  +--> _LED_SET_CODE/LED
  +--> _LED_SET_BLINK/LED

_SM_FUSE_POWERSAVE_INIT/SM_FUSE_POWERSAV+     ----- -----  ----- -----  ----- -----
... E
  +--> SM_FUSE_POWERSAVE
  +--> _DEBUG_PRINTF/DEBUG

SM_FUSE_POWERSAVE                             ----- -----  ----- -----  ----- -----

_SM_FUSE_DETONATE_SUBMOD0/SM_FUSE_DETONA+     ----- -----  ----- -----  0011H 0011H
... TE
  +--> SM_FUSE_DETONATE
  +--> _DEBUG_PRINTF/DEBUG
  +--> FUSE_TRIGGER/FUSE
  +--> FUSE_ENABLE/FUSE

FUSE_TRIGGER/FUSE                             20H.0 20H.0  ----- -----  ----- -----
  +--> _DEBUG_PRINTF/DEBUG
  +--> POWER_5V_ENABLE/POWER
  +--> _SERIAL_SET_CTL_BIT/SERIAL_HUB
  +--> SERIAL_CTL_OUT/SERIAL_HUB

_SM_FUSE_POWERSAVE_SUBMOD0/SM_FUSE_POWER+     ----- -----  ----- -----  0011H 0011H
... SAVE
  +--> SM_FUSE_POWERSAVE
  +--> _DEBUG_PRINTF/DEBUG
  +--> POWER_ENTER_POWERSAVE/POWER
  +--> POWER_LEAVE_POWERSAVE/POWER

_SM_FUSE_POWERSAVE_SUBMOD1/SM_FUSE_POWER+     ----- -----  ----- -----  ----- -----
... SAVE
  +--> SM_FUSE_POWERSAVE
  +--> _DEBUG_PRINTF/DEBUG
  +--> ROLL_BACK/SM_FUSE_POWERSAVE
LX51 LINKER/LOCATER V4.66.87.0                                                        06/04/2018  21:13:51  PAGE 48



ROLL_BACK/SM_FUSE_POWERSAVE                   ----- -----  ----- -----  ----- -----
  +--> THERMO_HI_ENABLE/THERMO
  +--> THERMO_LO_ENABLE/THERMO
  +--> MPU_ENABLE/MPU
  +--> HG_ENABLE/HG
  +--> LT_TIMER_RESET/LT_TIMER

_SM_GLOBAL_FLAG_MOD_SUBMOD0/SM_GLOBAL_FL+     ----- -----  ----- -----  0011H 0011H
... AG_MOD
  +--> SM_GLOBAL_FLAG_MOD
  +--> _DEBUG_PRINTF/DEBUG
  +--> _SM_GLOBAL_FLAG_MOD/SM_GLOBAL_FLAG_MOD

_SM_GLOBAL_FLAG_MOD/SM_GLOBAL_FLAG_MOD        ----- -----  ----- -----  0012H 0013H
  +--> _INC_WRITE/SM_GLOBAL_FLAG_MOD
  +--> _DISPLAY_GLOBAL_FLAG/SM_GLOBAL_FLAG_MOD

_INC_WRITE/SM_GLOBAL_FLAG_MOD                 20H.0 20H.0  ----- -----  ----- -----
  +--> POWER_INC_POWERSAVE_TO/POWER
  +--> POWER_GET_POWERSAVE_TO/POWER
  +--> BEEPER_GET_BEEP_ENABLE/BEEPER
  +--> BEEPER_SET_BEEP_ENABLE/BEEPER
  +--> BEEPER_INC_MUSIC_TO/BEEPER
  +--> BEEPER_GET_MUSIC_TO/BEEPER
  +--> _ROM_READ/ROM
  +--> CLOCK_SET_HOUR_12/CLOCK
  +--> _CLOCK_SYNC_TO_RTC/CLOCK
  +--> ALARM0_SET_HOUR_12/ALARM
  +--> LT_TIMER_SET_HOUR_12/LT_TIMER
  +--> _ROM_WRITE/ROM

POWER_INC_POWERSAVE_TO/POWER                  ----- -----  ----- -----  ----- -----

POWER_GET_POWERSAVE_TO/POWER                  ----- -----  ----- -----  ----- -----

BEEPER_GET_BEEP_ENABLE/BEEPER                 ----- -----  ----- -----  ----- -----

BEEPER_SET_BEEP_ENABLE/BEEPER                 20H.1 20H.1  ----- -----  ----- -----

BEEPER_INC_MUSIC_TO/BEEPER                    ----- -----  ----- -----  ----- -----

BEEPER_GET_MUSIC_TO/BEEPER                    ----- -----  ----- -----  ----- -----

CLOCK_SET_HOUR_12/CLOCK                       20H.1 20H.1  ----- -----  ----- -----

ALARM0_SET_HOUR_12/ALARM                      20H.1 20H.1  ----- -----  ----- -----

LT_TIMER_SET_HOUR_12/LT_TIMER                 20H.1 20H.1  ----- -----  ----- -----

_DISPLAY_GLOBAL_FLAG/SM_GLOBAL_FLAG_MOD       ----- -----  ----- -----  0014H 0014H
  +--> LED_CLEAR/LED
  +--> _DEBUG_PRINTF/DEBUG
  +--> POWER_GET_POWERSAVE_TO_S/POWER
  +--> SM_GLOBAL_FLAG_MOD
  +--> _LED_SET_CODE/LED
  +--> BEEPER_GET_BEEP_ENABLE/BEEPER
  +--> BEEPER_GET_MUSIC_TO/BEEPER
  +--> _ROM_READ/ROM

POWER_GET_POWERSAVE_TO_S/POWER                ----- -----  ----- -----  ----- -----

_SM_GLOBAL_FLAG_MOD_SUBMOD1/SM_GLOBAL_FL+     ----- -----  ----- -----  0011H 0011H
... AG_MOD
  +--> SM_GLOBAL_FLAG_MOD
LX51 LINKER/LOCATER V4.66.87.0                                                        06/04/2018  21:13:51  PAGE 49


  +--> _DEBUG_PRINTF/DEBUG
  +--> _SM_GLOBAL_FLAG_MOD/SM_GLOBAL_FLAG_MOD

_SM_GLOBAL_FLAG_MOD_SUBMOD2/SM_GLOBAL_FL+     ----- -----  ----- -----  0011H 0011H
... AG_MOD
  +--> SM_GLOBAL_FLAG_MOD
  +--> _DEBUG_PRINTF/DEBUG
  +--> _SM_GLOBAL_FLAG_MOD/SM_GLOBAL_FLAG_MOD

_SM_GLOBAL_FLAG_MOD_SUBMOD3/SM_GLOBAL_FL+     ----- -----  ----- -----  0011H 0011H
... AG_MOD
  +--> SM_GLOBAL_FLAG_MOD
  +--> _DEBUG_PRINTF/DEBUG
  +--> _SM_GLOBAL_FLAG_MOD/SM_GLOBAL_FLAG_MOD

_SCAN_KEY_PROC/KEY                            ----- -----  ----- -----  ----- -----
  +--> _DELAY_10US/MISC
  +--> CLOCK_GET_SEC_256/CLOCK
  +--> KEY

KEY                                           ----- -----  ----- -----  ----- -----

_SET_PROC/KEY                                 ----- -----  ----- -----  000CH 000CH
  +--> KEY
  +--> _DEBUG_PRINTF/DEBUG
  +--> BEEPER_BEEP/BEEPER
  +--> _RUN_STATE_MACHINE/SM

BEEPER_BEEP/BEEPER                            ----- -----  ----- -----  000DH 000DH
  +--> _DEBUG_PRINTF/DEBUG
  +--> _DELAY_10US/MISC

_MOD_PROC/KEY                                 ----- -----  ----- -----  000CH 000CH
  +--> KEY
  +--> _DEBUG_PRINTF/DEBUG
  +--> BEEPER_BEEP/BEEPER
  +--> _RUN_STATE_MACHINE/SM

_MOD_SET_PROC/KEY                             ----- -----  ----- -----  000CH 000CH
  +--> _DEBUG_PRINTF/DEBUG
  +--> _RUN_STATE_MACHINE/SM

_FUSE_PROC/FUSE                               ----- -----  ----- -----  000CH 000CH
  +--> _DEBUG_PRINTF/DEBUG
  +--> _RUN_STATE_MACHINE/SM

_NULL_PROC/SM                                 ----- -----  ----- -----  ----- -----
  +--> _RUN_STATE_MACHINE/SM

_THERMO_PROC/THERMO                           ----- -----  ----- -----  000CH 000CH
  +--> _DEBUG_PRINTF/DEBUG
  +--> _RUN_STATE_MACHINE/SM

_ALARM_PROC/ALARM                             ----- -----  ----- -----  000CH 000CH
  +--> _DEBUG_PRINTF/DEBUG
  +--> _RUN_STATE_MACHINE/SM

_POWER_PROC/POWER                             ----- -----  ----- -----  000CH 000CH
  +--> _DEBUG_PRINTF/DEBUG
  +--> _RUN_STATE_MACHINE/SM

SM_INITIALIZE/SM                              ----- -----  ----- -----  ----- -----
  +--> _DEBUG_PRINTF/DEBUG
  +--> LT_TIMER_SWITCH_OFF/LT_TIMER
  +--> ALARM_SWITCH_ON/ALARM
LX51 LINKER/LOCATER V4.66.87.0                                                        06/04/2018  21:13:51  PAGE 50


  +--> RTC_SET_LT_TIMER/RTC

DELAY_TASK_INITIALIZE/DELAY_TASK              ----- -----  ----- -----  ----- -----
  +--> _DEBUG_PRINTF/DEBUG

RUN_TASK/TASK                                 ----- -----  ----- -----  0000H 0000H
  +--> COM_TRY_GET_KEY/COM
  +--> TASK

COM_TRY_GET_KEY/COM                           ----- -----  ----- -----  ----- -----
  +--> COM

COM                                           ----- -----  ----- -----  ----- -----

TASK                                          ----- -----  ----- -----  ----- -----

RUN_SHELL/SHELL                               ----- -----  ----- -----  0000H 0001H
  +--> PRINTF/PRINTF
  +--> CLOCK_ENTER_SHELL/CLOCK
  +--> LED_SAVE/LED
  +--> LED_CLEAR/LED
  +--> _LED_SET_CODE/LED
  +--> _GETS/GETS
  +--> SHELL
  +--> _CALL_CMD/SHELL
  +--> LED_RESTORE/LED
  +--> CLOCK_LEAVE_SHELL/CLOCK

_CMD_HELP/CMD_HELP                            ----- -----  ----- -----  0008H 0008H
  +--> SHELL_DUMP_CMD/SHELL
  +--> CMD_HELP
  +--> _SHELL_SEARCH_CMD_BY_NAME/SHELL
  +--> PRINTF/PRINTF

SHELL_DUMP_CMD/SHELL                          ----- -----  ----- -----  0009H 0009H
  +--> SHELL
  +--> PRINTF/PRINTF

SHELL                                         ----- -----  ----- -----  ----- -----

CMD_HELP                                      ----- -----  ----- -----  ----- -----

_SHELL_SEARCH_CMD_BY_NAME/SHELL               ----- -----  ----- -----  0009H 000CH
  +--> SHELL

_CMD_DBG/CMD_DBG                              ----- -----  ----- -----  0008H 0008H
  +--> CMD_DBG
  +--> PRINTF/PRINTF
  +--> DEBUG_ONOFF/DEBUG

CMD_DBG                                       ----- -----  ----- -----  ----- -----

DEBUG_ONOFF/DEBUG                             20H.0 20H.0  ----- -----  ----- -----

_CMD_SERIAL/CMD_SERIAL                        ----- -----  ----- -----  0008H 000BH
  +--> SERIAL_DUMP/SERIAL_HUB
  +--> _SERIAL_TEST_CTL_BIT/SERIAL_HUB
  +--> CMD_SERIAL
  +--> PRINTF/PRINTF
  +--> _SERIAL_SET_CTL_BIT/SERIAL_HUB
  +--> SERIAL_CTL_OUT/SERIAL_HUB
  +--> _ATOI/ATOI

CMD_SERIAL                                    ----- -----  ----- -----  ----- -----

LX51 LINKER/LOCATER V4.66.87.0                                                        06/04/2018  21:13:51  PAGE 51


_ATOI/ATOI                                    20H.1 20H.1  ----- -----  000FH 0013H
  +--> _ISSPACE/ISSPACE
  +--> _ISDIGIT/ISDIGIT

_ISSPACE/ISSPACE                              ----- -----  ----- -----  ----- -----

_ISDIGIT/ISDIGIT                              ----- -----  ----- -----  ----- -----

_CMD_INT/CMD_INT                              ----- -----  ----- -----  0008H 0008H
  +--> INT_HUB_DUMP/INT_HUB
  +--> INT_HUB_GET_STATUS/INT_HUB
  +--> _INT_HUB_DUMP_EXT_STATUS/INT_HUB

_CMD_I2C/CMD_I2C                              ----- -----  ----- -----  0008H 0009H
  +--> CMD_I2C
  +--> _I2C_READ/CMD_I2C
  +--> _I2C_WRITE/CMD_I2C

CMD_I2C                                       ----- -----  ----- -----  ----- -----

_I2C_READ/CMD_I2C                             20H.0 20H.0  ----- -----  000AH 000DH
  +--> CMD_I2C
  +--> _ATOI/ATOI
  +--> I2C_INIT/I2C
  +--> _I2C_GET/I2C
  +--> PRINTF/PRINTF

_I2C_WRITE/CMD_I2C                            20H.0 20H.0  ----- -----  000AH 000EH
  +--> CMD_I2C
  +--> _ATOI/ATOI
  +--> PRINTF/PRINTF
  +--> I2C_INIT/I2C
  +--> _I2C_PUT/I2C

_CMD_REBOOT/CMD_REBOOT                        ----- -----  ----- -----  0008H 0008H
  +--> PRINTF/PRINTF

_CMD_TASK/CMD_TASK                            ----- -----  ----- -----  0008H 000AH
  +--> TASK_DUMP/TASK
  +--> CMD_TASK
  +--> _ATOI/ATOI

TASK_DUMP/TASK                                ----- -----  ----- -----  000BH 000BH
  +--> TASK
  +--> PRINTF/PRINTF

CMD_TASK                                      ----- -----  ----- -----  ----- -----

_CMD_SM/CMD_SM                                ----- -----  ----- -----  0008H 0009H
  +--> SM_SHOW_CURRENT/SM
  +--> CMD_SM
  +--> SM_DUMP/SM
  +--> SM_DUMP_TABLE/SM
  +--> _SM_SET_TABLE_BY_NAME/SM
  +--> SM_DUMP_STATE/SM
  +--> _SM_SET_STATE_BY_NAME/SM
  +--> SM_DUMP_SUB_STATE/SM
  +--> _SM_SET_SUB_STATE_BY_NAME/SM
  +--> PRINTF/PRINTF

SM_SHOW_CURRENT/SM                            ----- -----  ----- -----  ----- -----
  +--> SM
  +--> PRINTF/PRINTF

CMD_SM                                        ----- -----  ----- -----  ----- -----
LX51 LINKER/LOCATER V4.66.87.0                                                        06/04/2018  21:13:51  PAGE 52



SM_DUMP/SM                                    ----- -----  ----- -----  000AH 000CH
  +--> SM
  +--> PRINTF/PRINTF

SM_DUMP_TABLE/SM                              ----- -----  ----- -----  000AH 000AH
  +--> SM
  +--> PRINTF/PRINTF

_SM_SET_TABLE_BY_NAME/SM                      ----- -----  ----- -----  000AH 000DH
  +--> SM
  +--> PRINTF/PRINTF

SM_DUMP_STATE/SM                              ----- -----  ----- -----  000AH 000AH
  +--> SM
  +--> PRINTF/PRINTF

_SM_SET_STATE_BY_NAME/SM                      ----- -----  ----- -----  000AH 000DH
  +--> SM
  +--> PRINTF/PRINTF
  +--> _SM_SET_STATE/SM
  +--> _SM_SET_SUB_STATE/SM

_SM_SET_STATE/SM                              ----- -----  ----- -----  ----- -----

_SM_SET_SUB_STATE/SM                          ----- -----  ----- -----  ----- -----
  +--> SM

SM_DUMP_SUB_STATE/SM                          ----- -----  ----- -----  000AH 000AH
  +--> SM
  +--> PRINTF/PRINTF

_SM_SET_SUB_STATE_BY_NAME/SM                  ----- -----  ----- -----  000AH 000DH
  +--> SM
  +--> PRINTF/PRINTF
  +--> _SM_SET_SUB_STATE/SM

_CMD_BEEPER/CMD_BEEPER                        ----- -----  ----- -----  0008H 000AH
  +--> CMD_BEEPER
  +--> BEEPER_BEEP/BEEPER
  +--> BEEPER_BEEP_BEEP/BEEPER
  +--> BEEPER_SET_BEEP_ENABLE/BEEPER
  +--> BEEPER_GET_MUSIC_INDEX/BEEPER
  +--> BEEPER_INC_MUSIC_INDEX/BEEPER
  +--> PRINTF/PRINTF
  +--> BEEPER_PLAY_MUSIC/BEEPER

CMD_BEEPER                                    ----- -----  ----- -----  ----- -----

BEEPER_BEEP_BEEP/BEEPER                       ----- -----  ----- -----  000BH 000BH
  +--> _DEBUG_PRINTF/DEBUG
  +--> _DELAY_10US/MISC
  +--> _DELAY_MS/MISC

_CMD_THERMO/CMD_THERMO                        ----- -----  ----- -----  0008H 000AH
  +--> THERMO_GET_CURRENT/THERMO
  +--> CMD_THERMO
  +--> THERMO_HI_THRESHOLD_GET/THERMO
  +--> THERMO_LO_THRESHOLD_GET/THERMO
  +--> PRINTF/PRINTF
  +--> THERMO_HI_THRESHOLD_INC/THERMO
  +--> THERMO_HI_THRESHOLD_DEC/THERMO
  +--> THERMO_HI_THRESHOLD_RESET/THERMO
  +--> THERMO_HI_ENABLE/THERMO
  +--> _THERMO_HI_THRESHOLD_SET/THERMO
LX51 LINKER/LOCATER V4.66.87.0                                                        06/04/2018  21:13:51  PAGE 53


  +--> THERMO_LO_THRESHOLD_INC/THERMO
  +--> THERMO_LO_THRESHOLD_DEC/THERMO
  +--> THERMO_LO_THRESHOLD_RESET/THERMO
  +--> THERMO_LO_ENABLE/THERMO
  +--> _THERMO_LO_THRESHOLD_SET/THERMO
  +--> _ATOI/ATOI

THERMO_GET_CURRENT/THERMO                     ----- -----  ----- -----  000BH 000DH
  +--> THERMO
  +--> _I2C_GETS/I2C
  +--> _DEBUG_PRINTF/DEBUG
  +--> _THERMO_HEX_TO_TEMP/THERMO

CMD_THERMO                                    ----- -----  ----- -----  ----- -----

THERMO_HI_THRESHOLD_INC/THERMO                ----- -----  ----- -----  ----- -----
  +--> THERMO_HI_THRESHOLD_GET/THERMO
  +--> THERMO
  +--> _THERMO_HI_THRESHOLD_SET/THERMO

THERMO_LO_THRESHOLD_DEC/THERMO                ----- -----  ----- -----  ----- -----
  +--> THERMO_LO_THRESHOLD_GET/THERMO
  +--> THERMO
  +--> _THERMO_LO_THRESHOLD_SET/THERMO

_CMD_MPU/CMD_MPU                              ----- -----  ----- -----  0008H 0009H
  +--> CMD_MPU
  +--> MPU_ENABLE/MPU
  +--> MPU_READ_INT_STATUS/MPU
  +--> PRINTF/PRINTF

CMD_MPU                                       ----- -----  ----- -----  ----- -----

_CMD_NULL/SHELL                               ----- -----  ----- -----  ----- -----
  +--> PRINTF/PRINTF

CLOCK_ENTER_SHELL/CLOCK                       ----- -----  ----- -----  ----- -----

LED_SAVE/LED                                  ----- -----  ----- -----  ----- -----

_GETS/GETS                                    ----- -----  ----- -----  0002H 0008H
  +--> GETCHAR/GETCHAR
  +--> _PUTCHAR/COM

GETCHAR/GETCHAR                               ----- -----  ----- -----  ----- -----
  +--> _GETKEY/COM
  +--> _PUTCHAR/COM

_GETKEY/COM                                   ----- -----  ----- -----  ----- -----
  +--> COM

_CALL_CMD/SHELL                               ----- -----  ----- -----  0002H 0007H
  +--> SHELL
  +--> PRINTF/PRINTF
  +--> _SHELL_SEARCH_CMD_BY_NAME/SHELL

LED_RESTORE/LED                               ----- -----  ----- -----  ----- -----

CLOCK_LEAVE_SHELL/CLOCK                       ----- -----  ----- -----  ----- -----
  +--> CLOCK_ENABLE_INTERRUPT/CLOCK
  +--> _CLOCK_SYNC_FROM_RTC/CLOCK

*** NEW ROOT ********************************

COM_ISR/COM                                   ----- -----  ----- -----  ----- -----
LX51 LINKER/LOCATER V4.66.87.0                                                        06/04/2018  21:13:51  PAGE 54



*** NEW ROOT ********************************

INT0_ISR/KEY                                  ----- -----  ----- -----  ----- -----
  +--> POWER_TEST_FLAG/POWER
  +--> POWER_CLR_FLAG/POWER
  +--> KEY
  +--> BEEPER_STOP_MUSIC/BEEPER

BEEPER_STOP_MUSIC/BEEPER                      ----- -----  ----- -----  ----- -----
  +--> _BEEPER_STOP_PLAY/BEEPER

*** NEW ROOT ********************************

BEEPER_ISR/BEEPER                             ----- -----  ----- -----  ----- -----

*** NEW ROOT ********************************

CLOCK0_ISR/CLOCK                              ----- -----  ----- -----  ----- -----
  +--> REFRESH_LED/LED
  +--> CLOCK_INC_MS39/CLOCK
  +--> TIMER_INC_MS39/TIMER

CLOCK_INC_MS39/CLOCK                          21H.3 21H.3  ----- -----  ----- -----
  +--> LT_TIMER_DEC_SEC/LT_TIMER
  +--> CLOCK

LT_TIMER_DEC_SEC/LT_TIMER                     ----- -----  ----- -----  ----- -----
  +--> LT_TIMER

TIMER_INC_MS39/TIMER                          ----- -----  ----- -----  ----- -----
  +--> TIMER

*** NEW ROOT ********************************

INT1_ISR/INT_HUB                              ----- -----  ----- -----  ----- -----
  +--> INT_HUB



PUBLIC SYMBOLS OF MODULE:  Clock (SM)


      VALUE       CLASS    TYPE      PUBLIC SYMBOL NAME
      =================================================
      00000020H.0 BIT      BIT       ?_alarm0_set_enable?BIT
      0200001CH   XDATA    BYTE      ?_debug_printf?BYTE
      00000020H.0 BIT      BIT       ?_fuse_set_fuse_broke?BIT
      0200001CH   XDATA    BYTE      ?_I2C_Gets?BYTE
      0200001AH   XDATA    BYTE      ?_I2C_Puts?BYTE
      0200004DH   XDATA    ---       ?_PRINTF?BYTE
      00000020H.1 BIT      BIT       ?_rtc_enable_alarm_int?BIT
      02000014H   XDATA    BYTE      ?_rtc_get_temperature?BYTE
      00000020H.2 BIT      BIT       ?_serial_set_ctl_bit?BIT
      0200004DH   XDATA    ---       ?_SPRINTF?BYTE
      020000EAH   XDATA    ---       ?_UNGETCHAR?BYTE
      02010047H   XDATA    ---       ?_VPRINTF?BYTE
      00000020H.1 BIT      BIT       ?alarm0_set_hour_12?BIT
      00000020H.0 BIT      BIT       ?alarm1_set_enable?BIT
      00000020H.1 BIT      BIT       ?beeper_set_beep_enable?BIT
      01000212H   CODE     ---       ?C?CASTF
      010007A2H   CODE     ---       ?C?CCASE
      00000025H.5 BIT      ---       ?C?CHARLOADED
      01000578H   CODE     ---       ?C?CLDOPTR
      0100055FH   CODE     ---       ?C?CLDPTR
LX51 LINKER/LOCATER V4.66.87.0                                                        06/04/2018  21:13:51  PAGE 55


      00000000H   NUMBER   ---       ?C?CODESEG
      010008C6H   CODE     ---       ?C?COPYP2
      01000A7FH   CODE     ---       ?C?CSTOPTR
      010005A5H   CODE     ---       ?C?CSTPTR
      010001DEH   CODE     ---       ?C?FCASTC
      010001D9H   CODE     ---       ?C?FCASTI
      010001D4H   CODE     ---       ?C?FCASTL
      010003DCH   CODE     ---       ?C?FPADD
      010002D0H   CODE     ---       ?C?FPCONVERT
      01000137H   CODE     ---       ?C?FPDIV
      01000249H   CODE     ---       ?C?FPGETOPN2
      0100002EH   CODE     ---       ?C?FPMUL
      0100027EH   CODE     ---       ?C?FPNANRESULT
      01000288H   CODE     ---       ?C?FPOVERFLOW
      01000260H   CODE     ---       ?C?FPRESULT
      01000274H   CODE     ---       ?C?FPRESULT2
      01000293H   CODE     ---       ?C?FPROUND
      010003D8H   CODE     ---       ?C?FPSUB
      01000285H   CODE     ---       ?C?FPUNDERFLOW
      010004FDH   CODE     ---       ?C?FTNPWR
      010007C8H   CODE     ---       ?C?ICALL
      010007CCH   CODE     ---       ?C?ICALL2
      0100061EH   CODE     ---       ?C?IILDX
      01000AA1H   CODE     ---       ?C?ILDIX
      01000634H   CODE     ---       ?C?ILDOPTR
      010005B7H   CODE     ---       ?C?IMUL
      0100066CH   CODE     ---       ?C?LADD
      010006ABH   CODE     ---       ?C?LLDXDATA
      010006B7H   CODE     ---       ?C?LLDXDATA0
      01000687H   CODE     ---       ?C?LNEG
      010006CFH   CODE     ---       ?C?LSTKXDATA
      010006C3H   CODE     ---       ?C?LSTXDATA
      01000679H   CODE     ---       ?C?LSUB
      010007CEH   CODE     ---       ?C?MEMSET
      01000700H   CODE     ---       ?C?OFFX256
      01000711H   CODE     ---       ?C?OFFXADD
      01000746H   CODE     ---       ?C?PLDCODE
      01000AB7H   CODE     ---       ?C?PLDIDATA
      01000726H   CODE     ---       ?C?PLDIXDATA
      01000772H   CODE     ---       ?C?PLDOPTR
      01000AC0H   CODE     ---       ?C?PLDPDATA
      01000752H   CODE     ---       ?C?PLDPTR
      0100071DH   CODE     ---       ?C?PLDXDATA
      0100073DH   CODE     ---       ?C?PSTXDATA
      0100053DH   CODE     ---       ?C?SCDIV
      01000695H   CODE     ---       ?C?SLCMP
      01000A62H   CODE     ---       ?C?STRCMPP2
      010005C9H   CODE     ---       ?C?UIDIV
      00000000H   NUMBER   ---       ?C?XDATASEG
      01006103H   CODE     ---       ?C_START
      01000000H   CODE     NEAR LAB  ?C_STARTUP
      0000001DH   DATA     ---       ?C_XBP
      00000020H.0 BIT      BIT       ?clock_display?BIT
      00000020H.2 BIT      BIT       ?clock_enable_interrupt?BIT
      00000020H.1 BIT      BIT       ?clock_set_hour_12?BIT
      00000020H.0 BIT      BIT       ?debug_onoff?BIT
      00000020H.1 BIT      BIT       ?fuse_enable?BIT
      00000020H.0 BIT      BIT       ?fuse_set_tripwire_broke?BIT
      00000020H.0 BIT      BIT       ?fuse_trigger?BIT
      00000020H.1 BIT      BIT       ?hg_enable?BIT
      00000020H.2 BIT      BIT       ?I2C_PutAck?BIT
      00000020H.0 BIT      BIT       ?lt_timer_display?BIT
      00000020H.0 BIT      BIT       ?lt_timer_get_relative?BIT
      00000020H.1 BIT      BIT       ?lt_timer_set_hour_12?BIT
      00000020H.1 BIT      BIT       ?mpu_enable?BIT
LX51 LINKER/LOCATER V4.66.87.0                                                        06/04/2018  21:13:51  PAGE 56


      00000020H.1 BIT      BIT       ?power_5v_enable?BIT
      00000020H.0 BIT      BIT       ?rtc_alarm_set_hour_12?BIT
      00000024H.4 BIT      BIT       ?rtc_set_bbsqw?BIT
      00000024H.5 BIT      BIT       ?rtc_set_conv?BIT
      00000020H.0 BIT      BIT       ?rtc_set_en32khz?BIT
      00000024H.3 BIT      BIT       ?rtc_set_eosc?BIT
      00000020H.0 BIT      BIT       ?rtc_set_intcn?BIT
      00000020H.0 BIT      BIT       ?rtc_set_lt_timer?BIT
      00000024H.6 BIT      BIT       ?rtc_set_osf?BIT
      00000020H.1 BIT      BIT       ?rtc_time_set_hour_12?BIT
      00000020H.1 BIT      BIT       ?thermo_hi_enable?BIT
      00000020H.1 BIT      BIT       ?thermo_lo_enable?BIT
      00000020H.0 BIT      BIT       ?timer_set_led_autorefresh?BIT
      02000014H   XDATA    BYTE      ?timer_set_led_autorefresh?BYTE
      01005568H   CODE     ---       _alarm0_set_enable
      01006FEAH   CODE     ---       _alarm0_test_enable
      010071DFH   CODE     ---       _alarm_proc
      01003536H   CODE     ---       _atoi
      01007BB5H   CODE     ---       _clock_get_mon_date
      01008278H   CODE     ---       _clock_is_leap_year
      01008CA1H   CODE     ---       _clock_switch_display_mode
      010055C9H   CODE     ---       _clock_sync_from_rtc
      010051C1H   CODE     ---       _clock_sync_to_rtc
      010029A7H   CODE     ---       _clock_yymmdd_to_day
      01003193H   CODE     ---       _cmd_beeper
      010063E4H   CODE     ---       _cmd_dbg
      01005D39H   CODE     ---       _cmd_help
      01006DA2H   CODE     ---       _cmd_i2c
      01006A7DH   CODE     ---       _cmd_int
      01004E31H   CODE     ---       _cmd_mpu
      010064B5H   CODE     ---       _cmd_reboot
      01003EFEH   CODE     ---       _cmd_serial
      01002783H   CODE     ---       _cmd_sm
      01003B7AH   CODE     ---       _cmd_task
      01002359H   CODE     ---       _cmd_thermo
      01006B5EH   CODE     ---       _debug_printf
      010088F2H   CODE     ---       _delay_10us
      01008900H   CODE     ---       _delay_ms
      01006231H   CODE     ---       _delay_task_reg
      010054A0H   CODE     ---       _display_logo
      01007F84H   CODE     ---       _fuse_proc
      0100677CH   CODE     ---       _fuse_set_fuse_broke
      01008787H   CODE     ---       _getkey
      01003281H   CODE     ---       _gets
      0100821CH   CODE     ---       _I2C_Get
      010050E6H   CODE     ---       _I2C_Gets
      010084EAH   CODE     ---       _I2C_Put
      01005C8FH   CODE     ---       _I2C_Puts
      01007A4CH   CODE     ---       _I2C_Write
      01000F4CH   CODE     ---       _int_hub_dump_ext_status
      010074A9H   CODE     ---       _int_hub_test_bit
      010088B9H   CODE     ---       _isdigit
      010085B2H   CODE     ---       _isspace
      01008233H   CODE     ---       _led_clr_blink
      01008850H   CODE     ---       _led_clr_dp
      0100836FH   CODE     ---       _led_set_blink
      01006017H   CODE     ---       _led_set_code
      0100885FH   CODE     ---       _led_set_dp
      01005ADAH   CODE     ---       _lt_timer_save_to_rom
      01005F77H   CODE     ---       _mod_proc
      01006B95H   CODE     ---       _mod_set_proc
      010086ECH   CODE     ---       _mpu_threshold_inc
      01008938H   CODE     ---       _mpu_threshold_set
      01008D2AH   CODE     ---       _null_proc
      01007F6AH   CODE     ---       _power_proc
LX51 LINKER/LOCATER V4.66.87.0                                                        06/04/2018  21:13:51  PAGE 57


      01000B34H   CODE     ---       _PRINTF
      01006F8CH   CODE     ---       _putbuf
      01008020H   CODE     ---       _putchar
      01006CD4H   CODE     ---       _rom_read
      01006E6AH   CODE     ---       _rom_write
      01007F50H   CODE     ---       _rtc_alarm_set_date
      0100832DH   CODE     ---       _rtc_alarm_set_day
      010085ECH   CODE     ---       _rtc_alarm_set_hour
      010085FFH   CODE     ---       _rtc_alarm_set_min
      010046AFH   CODE     ---       _rtc_alarm_set_mode
      01008343H   CODE     ---       _rtc_alarm_set_sec
      01008205H   CODE     ---       _rtc_clr_alarm_int_flag
      01004049H   CODE     ---       _rtc_date_set_date
      01008638H   CODE     ---       _rtc_date_set_day
      01008C27H   CODE     ---       _rtc_date_set_month
      01008C1FH   CODE     ---       _rtc_date_set_year
      01007628H   CODE     ---       _rtc_enable_alarm_int
      010042BAH   CODE     ---       _rtc_get_temperature
      01005A28H   CODE     ---       _rtc_read_data
      01008721H   CODE     ---       _rtc_set_square_rate
      01007B5EH   CODE     ---       _rtc_test_alarm_int
      01007B7BH   CODE     ---       _rtc_test_alarm_int_flag
      01008C65H   CODE     ---       _rtc_time_set_hour
      01008B3AH   CODE     ---       _rtc_time_set_min
      01008C6BH   CODE     ---       _rtc_time_set_sec
      01005B8AH   CODE     ---       _rtc_write_data
      01001D77H   CODE     ---       _run_state_machine
      01004A5BH   CODE     ---       _scan_fuse
      01004EA9H   CODE     ---       _scan_hg
      01005E33H   CODE     ---       _scan_int_hub_proc
      01002AB3H   CODE     ---       _scan_key_proc
      01005B32H   CODE     ---       _scan_thermo
      01006F2CH   CODE     ---       _serial_set_ctl_bit
      01007076H   CODE     ---       _serial_test_ctl_bit
      01005FC7H   CODE     ---       _set_proc
      0100627AH   CODE     ---       _shell_search_cmd_by_name
      01004F1EH   CODE     ---       _sm_clock_alarm
      01008471H   CODE     ---       _sm_clock_counter_init
      010043E3H   CODE     ---       _sm_clock_counter_submod0
      01005861H   CODE     ---       _sm_clock_counter_submod1
      0100574AH   CODE     ---       _sm_clock_counter_submod2
      01006641H   CODE     ---       _sm_clock_counter_submod3
      010077D6H   CODE     ---       _sm_clock_counter_submod4
      010075B7H   CODE     ---       _sm_clock_counter_submod5
      01007701H   CODE     ---       _sm_clock_display_init
      010062C3H   CODE     ---       _sm_clock_display_submod0
      0100715AH   CODE     ---       _sm_clock_display_submod1
      01007725H   CODE     ---       _sm_clock_display_submod2
      010073E0H   CODE     ---       _sm_clock_display_submod3
      0100888CH   CODE     ---       _sm_clock_mod_alarm_init
      0100562AH   CODE     ---       _sm_clock_mod_alarm_submod0
      010058BDH   CODE     ---       _sm_clock_mod_alarm_submod1
      01005BE1H   CODE     ---       _sm_clock_mod_alarm_submod2
      01007263H   CODE     ---       _sm_clock_mod_alarm_submod3
      0100728EH   CODE     ---       _sm_clock_mod_alarm_submod4
      01007FD2H   CODE     ---       _sm_clock_mod_time_init
      01007237H   CODE     ---       _sm_clock_mod_time_submod0
      0100806BH   CODE     ---       _sm_clock_mod_time_submod1
      01007C7EH   CODE     ---       _sm_clock_mod_time_submod2
      01007C9AH   CODE     ---       _sm_clock_mod_time_submod3
      01007CB6H   CODE     ---       _sm_clock_mod_time_submod4
      01007CD2H   CODE     ---       _sm_clock_mod_time_submod5
      01006E07H   CODE     ---       _sm_clock_powersave
      01007FB8H   CODE     ---       _sm_clock_timer_init
      01006355H   CODE     ---       _sm_clock_timer_submod0
LX51 LINKER/LOCATER V4.66.87.0                                                        06/04/2018  21:13:51  PAGE 58


      01004F93H   CODE     ---       _sm_clock_timer_submod1
      01005805H   CODE     ---       _sm_clock_timer_submod2
      0100889BH   CODE     ---       _sm_fuse_detonate_init
      010056EAH   CODE     ---       _sm_fuse_detonate_submod0
      01007749H   CODE     ---       _sm_fuse_param_init
      0100630CH   CODE     ---       _sm_fuse_param_submod0
      01007DCEH   CODE     ---       _sm_fuse_param_submod1
      01007DEAH   CODE     ---       _sm_fuse_param_submod2
      01007E06H   CODE     ---       _sm_fuse_param_submod3
      01007E22H   CODE     ---       _sm_fuse_param_submod4
      01007E3EH   CODE     ---       _sm_fuse_param_submod5
      01004505H   CODE     ---       _sm_fuse_param_submod6
      01008B30H   CODE     ---       _sm_fuse_powersave_init
      01007AC8H   CODE     ---       _sm_fuse_powersave_submod0
      01008576H   CODE     ---       _sm_fuse_powersave_submod1
      01006872H   CODE     ---       _sm_fuse_test_init
      010024C5H   CODE     ---       _sm_fuse_test_submod0
      01007CEEH   CODE     ---       _sm_fuse_test_submod1
      01007D0AH   CODE     ---       _sm_fuse_test_submod2
      01007D26H   CODE     ---       _sm_fuse_test_submod3
      01007D42H   CODE     ---       _sm_fuse_test_submod4
      01007D5EH   CODE     ---       _sm_fuse_test_submod5
      01007D7AH   CODE     ---       _sm_fuse_test_submod6
      01007D96H   CODE     ---       _sm_fuse_test_submod7
      01007DB2H   CODE     ---       _sm_fuse_test_submod8
      01007C29H   CODE     ---       _sm_fuse_timer_init
      01002BB9H   CODE     ---       _sm_fuse_timer_submod0
      01005C38H   CODE     ---       _sm_fuse_timer_submod1
      010037ABH   CODE     ---       _sm_fuse_timer_submod2
      0100751EH   CODE     ---       _sm_fuse_timer_submod3
      01007E5AH   CODE     ---       _sm_fuse_timer_submod4
      010081BEH   CODE     ---       _sm_global_flag_mod_init
      01008084H   CODE     ---       _sm_global_flag_mod_submod0
      0100809DH   CODE     ---       _sm_global_flag_mod_submod1
      01007E76H   CODE     ---       _sm_global_flag_mod_submod2
      01007E92H   CODE     ---       _sm_global_flag_mod_submod3
      01007F35H   CODE     ---       _sm_power_pack_display_init
      01005D8DH   CODE     ---       _sm_power_pack_display_submod0
      01008A1DH   CODE     ---       _sm_power_pack_powersave_init
      01007C0CH   CODE     ---       _sm_power_pack_powersave_submod0
      01003611H   CODE     ---       _sm_set_state_by_name
      0100484EH   CODE     ---       _sm_set_sub_state_by_name
      01003CF0H   CODE     ---       _sm_set_table_by_name
      01000B2EH   CODE     ---       _SPRINTF
      010057A9H   CODE     ---       _thermo_hi_threshold_set
      0100536BH   CODE     ---       _thermo_lo_threshold_set
      010083C7H   CODE     ---       _thermo_proc
      010067F8H   CODE     ---       _thermo_threshold_inc
      010085C6H   CODE     ---       _time_proc
      01008512H   CODE     ---       _timer_get_hour
      01008526H   CODE     ---       _timer_get_min
      01007860H   CODE     ---       _timer_get_ms10
      0100853AH   CODE     ---       _timer_get_sec
      01007C46H   CODE     ---       _timer_inc_hour
      01008116H   CODE     ---       _timer_inc_min
      0100812EH   CODE     ---       _timer_inc_sec
      0100730EH   CODE     ---       _timer_save
      01008CB9H   CODE     ---       _timer_set_mode
      01006C6BH   CODE     ---       _VPRINTF
*SFR* 000000D0H.6 DATA     BIT       AC
*SFR* 000000E0H   DATA     BYTE      ACC
      01008C77H   CODE     ---       alarm0_get_day_mask
      01008C83H   CODE     ---       alarm0_get_hour
      01008D30H   CODE     ---       alarm0_get_hour_12
      01008C7DH   CODE     ---       alarm0_get_min
LX51 LINKER/LOCATER V4.66.87.0                                                        06/04/2018  21:13:51  PAGE 59


      010088E4H   CODE     ---       alarm0_inc_hour
      010088D6H   CODE     ---       alarm0_inc_min
      01000026H   CODE     ---       alarm0_set_hour_12
      01005E85H   CODE     ---       alarm0_sync_to_rtc
      01008CD1H   CODE     ---       alarm1_set_enable
      010066C0H   CODE     ---       alarm1_sync_to_rtc
      01008D33H   CODE     ---       alarm1_test_enable
      0100543BH   CODE     ---       alarm_dump
      01008B5EH   CODE     ---       alarm_enter_powersave
      01008B55H   CODE     ---       alarm_initialize
      01008B67H   CODE     ---       alarm_leave_powersave
      0100776DH   CODE     ---       alarm_switch_off
      010080E6H   CODE     ---       alarm_switch_on
*SFR* 0000008EH   DATA     BYTE      AUXR
*SFR* 000000A2H   DATA     BYTE      AUXR1
*SFR* 000000F0H   DATA     BYTE      B
      010072E4H   CODE     ---       beeper_beep
      0100653CH   CODE     ---       beeper_beep_beep
      010066FFH   CODE     ---       beeper_beep_beep_always
      01008B79H   CODE     ---       beeper_enter_powersave
      01008D42H   CODE     ---       beeper_get_beep_enable
      01008C9BH   CODE     ---       beeper_get_music_index
      01008C95H   CODE     ---       beeper_get_music_to
      01008261H   CODE     ---       beeper_inc_music_index
      01007EC9H   CODE     ---       beeper_inc_music_to
      010064F9H   CODE     ---       beeper_initialize
      01008B82H   CODE     ---       beeper_leave_powersave
*SFR* 00000090H.0 DATA     BIT       beeper_out
      0100783EH   CODE     ---       beeper_play_music
      01008CD6H   CODE     ---       beeper_set_beep_enable
      01008D45H   CODE     ---       beeper_stop_music
*SFR* 000000C8H.1 DATA     BIT       C_T2
      01008CF4H   CODE     ---       clock_clr_sec
      01008CDBH   CODE     ---       clock_display
      01004350H   CODE     ---       clock_dump
      01008B8BH   CODE     ---       clock_enable_interrupt
      0100891CH   CODE     ---       clock_enter_powersave
      01008D4BH   CODE     ---       clock_enter_shell
      01008CA7H   CODE     ---       clock_get_date
      01008CADH   CODE     ---       clock_get_day
      01008CFEH   CODE     ---       clock_get_hour
      01008D48H   CODE     ---       clock_get_hour_12
      01008CF9H   CODE     ---       clock_get_min
      01008CB3H   CODE     ---       clock_get_month
      01008CE5H   CODE     ---       clock_get_ms39
      01008CEFH   CODE     ---       clock_get_sec
      01008CEAH   CODE     ---       clock_get_sec_256
      01008D03H   CODE     ---       clock_get_year
      0100798CH   CODE     ---       clock_inc_date
      01008A4AH   CODE     ---       clock_inc_hour
      01008A3FH   CODE     ---       clock_inc_min
      01008385H   CODE     ---       clock_inc_month
      01008432H   CODE     ---       clock_inc_year
      0100712DH   CODE     ---       clock_initialize
      010080FEH   CODE     ---       clock_leave_powersave
      0100839BH   CODE     ---       clock_leave_shell
      01008CE0H   CODE     ---       clock_set_hour_12
      01009DFFH   CONST    ---       cmds
      010088C8H   CODE     ---       com_enter_powersave
      01007409H   CODE     ---       com_initialize
      01000016H   CODE     ---       com_leave_powersave
      01008486H   CODE     ---       com_try_get_key
      020000D8H   XDATA    BYTE      common_state
*SFR* 000000C8H.0 DATA     BIT       CP_RL2
*SFR* 000000D0H.7 DATA     BIT       CY
LX51 LINKER/LOCATER V4.66.87.0                                                        06/04/2018  21:13:51  PAGE 60


      01008D54H   CODE     ---       debug_initialize
      01008D21H   CODE     ---       debug_onoff
      01005ED6H   CODE     ---       delay_task_call
      01008BD3H   CODE     ---       delay_task_initialize
*SFR* 00000083H   DATA     BYTE      DPH
*SFR* 00000082H   DATA     BYTE      DPL
*SFR* 000000A8H.7 DATA     BIT       EA
*SFR* 000000A8H.6 DATA     BIT       EC
*SFR* 000000A8H.4 DATA     BIT       ES
*SFR* 000000A8H.1 DATA     BIT       ET0
*SFR* 000000A8H.3 DATA     BIT       ET1
*SFR* 000000A8H.5 DATA     BIT       ET2
      0000004EH   IDATA    WORD      ev_bits0
      00000050H   IDATA    WORD      ev_bits1
*SFR* 000000A8H.0 DATA     BIT       EX0
*SFR* 000000A8H.2 DATA     BIT       EX1
*SFR* 000000C8H.3 DATA     BIT       EXEN2
*SFR* 000000C8H.6 DATA     BIT       EXF2
*SFR* 00000090H.4 DATA     BIT       EXT_INT
*SFR* 000000D0H.5 DATA     BIT       F0
*SFR* 00000098H.7 DATA     BIT       FE
      01007459H   CODE     ---       fuse_enable
      01008B9DH   CODE     ---       fuse_enter_powersave
      010089C9H   CODE     ---       fuse_initialize
      01008BA6H   CODE     ---       fuse_leave_powersave
      01007591H   CODE     ---       fuse_set_tripwire_broke
      01006BCBH   CODE     ---       fuse_trigger
      0100859EH   CODE     ---       GETCHAR
      01007481H   CODE     ---       hg_enable
      01008BAFH   CODE     ---       hg_enter_powersave
      01008680H   CODE     ---       hg_get_state
      010089E1H   CODE     ---       hg_initialize
      01008BB8H   CODE     ---       hg_leave_powersave
      0100873AH   CODE     ---       I2C_Delay
      0100781CH   CODE     ---       I2C_GetAck
      01008AFEH   CODE     ---       I2C_Init
      0100864AH   CODE     ---       I2C_PutAck
      01006FBBH   CODE     ---       I2C_Read
*SFR* 00000090H.7 DATA     BIT       I2C_SCL
*SFR* 00000090H.6 DATA     BIT       I2C_SDA
      01008A34H   CODE     ---       I2C_Start
      01008359H   CODE     ---       I2C_Stop
*SFR* 000000A8H   DATA     BYTE      IE
*SFR* 00000088H.1 DATA     BIT       IE0
*SFR* 00000088H.3 DATA     BIT       IE1
*SFR* 000000B0H.2 DATA     BIT       INT0
*SFR* 000000B0H.3 DATA     BIT       INT1
*SFR* 000000B0H.3 DATA     BIT       INT_BIT
      01006067H   CODE     ---       int_hub_dump
      01005505H   CODE     ---       int_hub_get_status
      01005301H   CODE     ---       int_hub_initialize
*SFR* 000000B8H   DATA     BYTE      IP
*SFR* 000000B7H   DATA     BYTE      IPH
*SFR* 000000E3H   DATA     BYTE      ISP_ADDRH
*SFR* 000000E4H   DATA     BYTE      ISP_ADDRL
*SFR* 000000E5H   DATA     BYTE      ISP_CMD
*SFR* 000000E7H   DATA     BYTE      ISP_CONTR
*SFR* 000000E2H   DATA     BYTE      ISP_DATA
*SFR* 000000E6H   DATA     BYTE      ISP_TRIG
*SFR* 00000088H.0 DATA     BIT       IT0
*SFR* 00000088H.2 DATA     BIT       IT1
      01008B43H   CODE     ---       key_enter_powersave
      01008039H   CODE     ---       key_initialize
      01008B4CH   CODE     ---       key_leave_powersave
      020000DAH   XDATA    BYTE      last_display_s
LX51 LINKER/LOCATER V4.66.87.0                                                        06/04/2018  21:13:51  PAGE 61


      00000036H   IDATA    BYTE      led_blink
      01008754H   CODE     ---       led_clear
      0100D287H   CONST    ---       led_code
      00000038H   IDATA    ---       led_data
      01008765H   CODE     ---       led_enter_powersave
      010068E9H   CODE     ---       led_initialize
      01008408H   CODE     ---       led_leave_powersave
      00000025H.0 BIT      BIT       led_powersave
      0100756BH   CODE     ---       led_restore
      01007545H   CODE     ---       led_save
      00000022H.7 BIT      BIT       lpress_lock_day_sec
      00000022H.5 BIT      BIT       lpress_lock_month_min
      00000022H.6 BIT      BIT       lpress_lock_year_hour
      020000D9H   XDATA    BYTE      lpress_start
      01004184H   CODE     ---       lt_timer_dec_sec
      01007F9EH   CODE     ---       lt_timer_display
      01008447H   CODE     ---       lt_timer_enter_powersave
      01008CC5H   CODE     ---       lt_timer_get_date
      01008D12H   CODE     ---       lt_timer_get_hour
      01008D51H   CODE     ---       lt_timer_get_hour_12
      01008D17H   CODE     ---       lt_timer_get_min
      01008CBFH   CODE     ---       lt_timer_get_month
      010048D5H   CODE     ---       lt_timer_get_relative
      01008D1CH   CODE     ---       lt_timer_get_sec
      01008D0DH   CODE     ---       lt_timer_get_year
      01008612H   CODE     ---       lt_timer_inc_date
      01008A76H   CODE     ---       lt_timer_inc_hour
      01008A81H   CODE     ---       lt_timer_inc_min
      01008A6BH   CODE     ---       lt_timer_inc_month
      01008A8CH   CODE     ---       lt_timer_inc_sec
      01008A60H   CODE     ---       lt_timer_inc_year
      0100854EH   CODE     ---       lt_timer_initialize
      01007695H   CODE     ---       lt_timer_leave_powersave
      010065C0H   CODE     ---       lt_timer_load_from_rom
      0100886EH   CODE     ---       lt_timer_reset
      01008D08H   CODE     ---       lt_timer_set_hour_12
      0100892AH   CODE     ---       lt_timer_start_ram
      01007AE7H   CODE     ---       lt_timer_start_rtc
      010089EDH   CODE     ---       lt_timer_stop_ram
      01007B05H   CODE     ---       lt_timer_stop_rtc
      0100828FH   CODE     ---       lt_timer_switch_display
      01007790H   CODE     ---       lt_timer_switch_off
      0100845CH   CODE     ---       lt_timer_switch_on
      0100657EH   CODE     ---       lt_timer_sync_to_rtc
      01006103H   CODE     ---       main
*SFR* 000000A0H.6 DATA     BIT       MOD_KEY
      01007AA9H   CODE     ---       mpu_enable
      01008BDCH   CODE     ---       mpu_enter_powersave
      0100887DH   CODE     ---       mpu_initialize
*SFR* 00000090H.2 DATA     BIT       MPU_INT
      01008BE5H   CODE     ---       mpu_leave_powersave
      010076DDH   CODE     ---       mpu_read_int_status
      01008CCBH   CODE     ---       mpu_threshold_get
      01008C4FH   CODE     ---       mpu_threshold_reset
*SFR* 000000D0H.2 DATA     BIT       OV
*SFR* 000000D0H.0 DATA     BIT       P
*SFR* 00000080H   DATA     BYTE      P0
*SFR* 00000080H.0 DATA     BIT       P00
*SFR* 00000080H.1 DATA     BIT       P01
*SFR* 00000080H.2 DATA     BIT       P02
*SFR* 00000080H.3 DATA     BIT       P03
*SFR* 00000080H.4 DATA     BIT       P04
*SFR* 00000080H.5 DATA     BIT       P05
*SFR* 00000080H.6 DATA     BIT       P06
*SFR* 00000080H.7 DATA     BIT       P07
LX51 LINKER/LOCATER V4.66.87.0                                                        06/04/2018  21:13:51  PAGE 62


*SFR* 00000090H   DATA     BYTE      P1
*SFR* 00000090H.0 DATA     BIT       P10
*SFR* 00000090H.1 DATA     BIT       P11
*SFR* 00000090H.2 DATA     BIT       P12
*SFR* 00000090H.3 DATA     BIT       P13
*SFR* 00000090H.4 DATA     BIT       P14
*SFR* 00000090H.5 DATA     BIT       P15
*SFR* 00000090H.6 DATA     BIT       P16
*SFR* 00000090H.7 DATA     BIT       P17
*SFR* 000000A0H   DATA     BYTE      P2
*SFR* 000000A0H.0 DATA     BIT       P20
*SFR* 000000A0H.1 DATA     BIT       P21
*SFR* 000000A0H.2 DATA     BIT       P22
*SFR* 000000A0H.3 DATA     BIT       P23
*SFR* 000000A0H.4 DATA     BIT       P24
*SFR* 000000A0H.5 DATA     BIT       P25
*SFR* 000000A0H.6 DATA     BIT       P26
*SFR* 000000A0H.7 DATA     BIT       P27
*SFR* 000000B0H   DATA     BYTE      P3
*SFR* 000000B0H.0 DATA     BIT       P30
*SFR* 000000B0H.1 DATA     BIT       P31
*SFR* 000000B0H.2 DATA     BIT       P32
*SFR* 000000B0H.3 DATA     BIT       P33
*SFR* 000000B0H.4 DATA     BIT       P34
*SFR* 000000B0H.5 DATA     BIT       P35
*SFR* 000000B0H.6 DATA     BIT       P36
*SFR* 000000B0H.7 DATA     BIT       P37
*SFR* 000000E8H   DATA     BYTE      P4
*SFR* 000000E8H.0 DATA     BIT       P40
*SFR* 000000E8H.1 DATA     BIT       P41
*SFR* 000000E8H.2 DATA     BIT       P42
*SFR* 000000E8H.3 DATA     BIT       P43
*SFR* 000000E8H.4 DATA     BIT       P44
*SFR* 000000E8H.5 DATA     BIT       P45
*SFR* 000000E8H.6 DATA     BIT       P46
*SFR* 00000087H   DATA     BYTE      PCON
*SFR* 000000B0H.6 DATA     BIT       POWER_5V_EN
      01007EAEH   CODE     ---       power_5v_enable
      01008D26H   CODE     ---       power_5v_get_enable
      01008D3CH   CODE     ---       power_clr_flag
      0100614FH   CODE     ---       power_enter_powersave
      0100824AH   CODE     ---       power_get_powersave_to
      01008C89H   CODE     ---       power_get_powersave_to_s
      01008D3FH   CODE     ---       power_get_volume
      01007671H   CODE     ---       power_inc_powersave_to
      01006D6FH   CODE     ---       power_initialize
      01006ECCH   CODE     ---       power_leave_powersave
      01008B70H   CODE     ---       power_reset_powersave_to
      01008D39H   CODE     ---       power_set_flag
      01008D36H   CODE     ---       power_test_flag
      01006EFCH   CODE     ---       power_test_powersave_to
      00000025H.1 BIT      BIT       powersave_flag
*SFR* 000000A0H   DATA     BYTE      PPAGE_SFR
*SFR* 000000B8H.4 DATA     BIT       PS
*SFR* 000000D0H   DATA     BYTE      PSW
*SFR* 000000B8H.1 DATA     BIT       PT0
*SFR* 000000B8H.3 DATA     BIT       PT1
*SFR* 000000B8H.5 DATA     BIT       PT2
*SFR* 000000B8H.0 DATA     BIT       PX0
*SFR* 000000B8H.2 DATA     BIT       PX1
*SFR* 00000098H.2 DATA     BIT       RB8
*SFR* 000000CBH   DATA     BYTE      RCAP2H
*SFR* 000000CAH   DATA     BYTE      RCAP2L
*SFR* 000000C8H.5 DATA     BIT       RCLK
*SFR* 000000B0H.7 DATA     BIT       RD
LX51 LINKER/LOCATER V4.66.87.0                                                        06/04/2018  21:13:51  PAGE 63


      01005975H   CODE     ---       refresh_led
*SFR* 00000098H.4 DATA     BIT       REN
*SFR* 00000098H.0 DATA     BIT       RI
      010067BAH   CODE     ---       rom_initialize
      01008C47H   CODE     ---       rom_is_factory_reset
*SFR* 000000B0H.7 DATA     BIT       ROM_RESET
*SFR* 000000D0H.3 DATA     BIT       RS0
*SFR* 000000D0H.4 DATA     BIT       RS1
      010083F3H   CODE     ---       rtc_alarm_get_date
      0100849AH   CODE     ---       rtc_alarm_get_day
      010082EBH   CODE     ---       rtc_alarm_get_hour
      01008301H   CODE     ---       rtc_alarm_get_hour_12
      01008317H   CODE     ---       rtc_alarm_get_min
      010084C2H   CODE     ---       rtc_alarm_get_mod_str
      010036DFH   CODE     ---       rtc_alarm_get_mode
      010084AEH   CODE     ---       rtc_alarm_get_sec
      01007B41H   CODE     ---       rtc_alarm_set_hour_12
      01008C2FH   CODE     ---       rtc_date_get_date
      01008C71H   CODE     ---       rtc_date_get_day
      010089B1H   CODE     ---       rtc_date_get_month
      010089A5H   CODE     ---       rtc_date_get_year
      010011B2H   CODE     ---       rtc_dump
      010080B6H   CODE     ---       rtc_enter_powersave
      0100897EH   CODE     ---       rtc_get_square_rate
      010084D6H   CODE     ---       rtc_get_square_rate_str
      01002FB2H   CODE     ---       rtc_initialize
*SFR* 00000090H.1 DATA     BIT       RTC_INT
      01008D2DH   CODE     ---       rtc_is_lt_timer
      010080CEH   CODE     ---       rtc_leave_powersave
      010087F6H   CODE     ---       rtc_set_bbsqw
      01008805H   CODE     ---       rtc_set_conv
      01008832H   CODE     ---       rtc_set_en32khz
      010087E7H   CODE     ---       rtc_set_eosc
      01008814H   CODE     ---       rtc_set_intcn
      01000006H   CODE     ---       rtc_set_lt_timer
      01008823H   CODE     ---       rtc_set_osf
      01008AC2H   CODE     ---       rtc_test_bbsqw
      01008AF4H   CODE     ---       rtc_test_bsy
      01008ACCH   CODE     ---       rtc_test_conv
      01008AEAH   CODE     ---       rtc_test_en32khz
      01008AB8H   CODE     ---       rtc_test_eosc
      01008AD6H   CODE     ---       rtc_test_intcn
      01008AE0H   CODE     ---       rtc_test_osf
      01008BFFH   CODE     ---       rtc_time_get_hour
      01008C07H   CODE     ---       rtc_time_get_hour_12
      01008C0FH   CODE     ---       rtc_time_get_min
      01008C17H   CODE     ---       rtc_time_get_sec
      01008797H   CODE     ---       rtc_time_set_hour_12
      01002630H   CODE     ---       run_shell
      01003E57H   CODE     ---       run_task
*SFR* 000000B0H.0 DATA     BIT       RXD
*SFR* 000000A9H   DATA     BYTE      SADDR
*SFR* 000000B9H   DATA     BYTE      SADEN
      020000BBH   XDATA    BYTE      saved_led_blink
      020000BDH   XDATA    ---       saved_led_data
*SFR* 00000099H   DATA     BYTE      SBUF
      01004D41H   CODE     ---       scan_alarm
      010061E7H   CODE     ---       scan_lt_timer
      01007019H   CODE     ---       scan_mpu
      010085D9H   CODE     ---       scan_rtc
*SFR* 00000098H   DATA     BYTE      SCON
      00000023H.3 BIT      BIT       sendactive
      00000023H.4 BIT      BIT       sendfull
      01007F1AH   CODE     ---       serial_ctl_out
      010013FCH   CODE     ---       serial_dump
LX51 LINKER/LOCATER V4.66.87.0                                                        06/04/2018  21:13:51  PAGE 64


      01006997H   CODE     ---       serial_hub_initialize
*SFR* 000000A0H.7 DATA     BIT       SET_KEY
      0200007DH   XDATA    ---       shell_buf
      01006C01H   CODE     ---       shell_dump_cmd
*SFR* 00000098H.7 DATA     BIT       SM0
*SFR* 00000098H.6 DATA     BIT       SM1
*SFR* 00000098H.5 DATA     BIT       SM2
      0100D421H   CONST    ---       sm_clock_alarm_ss_name
      0100BE7DH   CONST    ---       sm_clock_counter_ss_name
      0100C9B0H   CONST    ---       sm_clock_display_ss_name
      0100C3F6H   CONST    ---       sm_clock_mod_alarm_ss_name
      0100BAA0H   CONST    ---       sm_clock_mod_time_name
      0100D478H   CONST    ---       sm_clock_powersave_ss_name
      0100CAA3H   CONST    ---       sm_clock_timer_ss_name
      020000D3H   XDATA    BYTE      sm_curr_table
      01002EBEH   CODE     ---       sm_dump
      01005F27H   CODE     ---       sm_dump_state
      010059CFH   CODE     ---       sm_dump_sub_state
      01006AB6H   CODE     ---       sm_dump_table
      0100D0D8H   CONST    ---       sm_fuse_detonate_ss_name
      0100BC93H   CONST    ---       sm_fuse_param_ss_name
      0100CE24H   CONST    ---       sm_fuse_powersave_ss_name
      0100AF5CH   CONST    ---       sm_fuse_test_ss_name
      0100B89DH   CONST    ---       sm_fuse_timer_ss_name
      0100C6F3H   CONST    ---       sm_global_flag_mod_ss_name
      01007603H   CODE     ---       sm_initialize
      020000D4H   XDATA    BYTE      sm_new_table
      0100CF55H   CONST    ---       sm_power_pack_display_ss_name
      0100CEC2H   CONST    ---       sm_power_pack_powersave_ss_name
      01006681H   CODE     ---       sm_show_current
*SFR* 00000081H   DATA     BYTE      SP
*SFR* 000000B0H.4 DATA     BIT       T0
*SFR* 000000B0H.5 DATA     BIT       T1
*SFR* 00000090H.0 DATA     BIT       T2
*SFR* 000000C8H   DATA     BYTE      T2CON
*SFR* 00000090H.1 DATA     BIT       T2EX
*SFR* 000000C9H   DATA     BYTE      T2MOD
      01004C4DH   CODE     ---       task_dump
      010084FEH   CODE     ---       task_initialize
      0100B600H   CONST    ---       task_name
*SFR* 00000098H.3 DATA     BIT       TB8
*SFR* 000000C8H.4 DATA     BIT       TCLK
*SFR* 00000088H   DATA     BYTE      TCON
*SFR* 00000088H.5 DATA     BIT       TF0
*SFR* 00000088H.7 DATA     BIT       TF1
*SFR* 000000C8H.7 DATA     BIT       TF2
*SFR* 0000008CH   DATA     BYTE      TH0
*SFR* 0000008DH   DATA     BYTE      TH1
*SFR* 000000CDH   DATA     BYTE      TH2
      01008BC1H   CODE     ---       thermo_enter_powersave
      01006E39H   CODE     ---       thermo_get_current
      01007A6BH   CODE     ---       thermo_hi_enable
      010086A4H   CODE     ---       thermo_hi_threshold_dec
      010078E8H   CODE     ---       thermo_hi_threshold_get
      010086B6H   CODE     ---       thermo_hi_threshold_inc
      01008A97H   CODE     ---       thermo_hi_threshold_reach_bottom
      010089F9H   CODE     ---       thermo_hi_threshold_reach_top
      01008C37H   CODE     ---       thermo_hi_threshold_reset
      01008692H   CODE     ---       thermo_initialize
      01008BCAH   CODE     ---       thermo_leave_powersave
      01007A8AH   CODE     ---       thermo_lo_enable
      010086C8H   CODE     ---       thermo_lo_threshold_dec
      010077B3H   CODE     ---       thermo_lo_threshold_get
      010086DAH   CODE     ---       thermo_lo_threshold_inc
      01008AA2H   CODE     ---       thermo_lo_threshold_reach_bottom
LX51 LINKER/LOCATER V4.66.87.0                                                        06/04/2018  21:13:51  PAGE 65


      01008A05H   CODE     ---       thermo_lo_threshold_reach_top
      01008C3FH   CODE     ---       thermo_lo_threshold_reset
*SFR* 00000098H.1 DATA     BIT       TI
      01008146H   CODE     ---       timer_clr
      010089BDH   CODE     ---       timer_enter_powersave
      01002DC1H   CODE     ---       timer_inc_ms39
      0100865CH   CODE     ---       timer_initialize
      01008B94H   CODE     ---       timer_leave_powersave
      010087A7H   CODE     ---       timer_set_led_autorefresh
      010083B1H   CODE     ---       timer_start
      01008D4EH   CODE     ---       timer_stop
*SFR* 0000008AH   DATA     BYTE      TL0
*SFR* 0000008BH   DATA     BYTE      TL1
*SFR* 000000CCH   DATA     BYTE      TL2
*SFR* 00000089H   DATA     BYTE      TMOD
*SFR* 00000088H.4 DATA     BIT       TR0
*SFR* 00000088H.6 DATA     BIT       TR1
*SFR* 000000C8H.2 DATA     BIT       TR2
*SFR* 000000B0H.1 DATA     BIT       TXD
*SFR* 000000E1H   DATA     BYTE      WDT_CONTR
*SFR* 000000B0H.6 DATA     BIT       WR
*SFR* 000000C0H   DATA     BYTE      XICON



SYMBOL TABLE OF MODULE:  Clock (SM)

      VALUE       REP       CLASS    TYPE      SYMBOL NAME
      ====================================================
      ---         MODULE    ---      ---       SM
      020000D4H   PUBLIC    XDATA    BYTE      sm_new_table
      020000D3H   PUBLIC    XDATA    BYTE      sm_curr_table
      0100484EH   PUBLIC    CODE     ---       _sm_set_sub_state_by_name
      01003611H   PUBLIC    CODE     ---       _sm_set_state_by_name
      01003CF0H   PUBLIC    CODE     ---       _sm_set_table_by_name
      010059CFH   PUBLIC    CODE     ---       sm_dump_sub_state
      01005F27H   PUBLIC    CODE     ---       sm_dump_state
      01006AB6H   PUBLIC    CODE     ---       sm_dump_table
      01002EBEH   PUBLIC    CODE     ---       sm_dump
      01006681H   PUBLIC    CODE     ---       sm_show_current
      01007603H   PUBLIC    CODE     ---       sm_initialize
      01001D77H   PUBLIC    CODE     ---       _run_state_machine
      01008D2AH   PUBLIC    CODE     ---       _null_proc
      010085C6H   PUBLIC    CODE     ---       _time_proc
      01009702H   SYMBOL    CONST    ---       sm_group_power_pack
      0100970AH   SYMBOL    CONST    ---       sm_group_fuse
      01009511H   SYMBOL    CONST    ---       sm_trans_fuse_timer
      01009033H   SYMBOL    CONST    ---       sm_trans_clock_mod_time
      01008710H   SYMBOL    CODE     ---       _sm_set_state
      010091A6H   SYMBOL    CONST    ---       sm_trans_clock_powersave
      01009319H   SYMBOL    CONST    ---       sm_trans_fuse_test
      01009782H   SYMBOL    CONST    ---       sm_global_flag_names
      01008F8BH   SYMBOL    CONST    ---       sm_trans_clock_display
      01009629H   SYMBOL    CONST    ---       sm_trans_fuse_detonate
      01008A29H   SYMBOL    CODE     ---       _sm_set_sub_state
      0100922BH   SYMBOL    CONST    ---       sm_trans_clock_counter
      01009304H   SYMBOL    CONST    ---       sm_trans_power_pack_powersave
      0100971EH   SYMBOL    CONST    ---       sm_group_global_flag
      0100964CH   SYMBOL    CONST    ---       sm_trans_fuse_powersave
      0100972EH   SYMBOL    CONST    ---       sm_clock_names
      010091C9H   SYMBOL    CONST    ---       sm_trans_clock_alarm
      010097A0H   SYMBOL    CONST    ---       sm_names
      01009722H   SYMBOL    CONST    ---       sm_trans_table
      010092D3H   SYMBOL    CONST    ---       sm_trans_power_pack_display
      010096E6H   SYMBOL    CONST    ---       sm_group_clock
LX51 LINKER/LOCATER V4.66.87.0                                                        06/04/2018  21:13:51  PAGE 66


      010096A0H   SYMBOL    CONST    ---       sm_trans_global_flag_mod
      010091ECH   SYMBOL    CONST    ---       sm_trans_clock_timer
      020000D2H   SYMBOL    XDATA    BYTE      sm_state
      0100978EH   SYMBOL    CONST    ---       sm_power_pack_names
      0100975EH   SYMBOL    CONST    ---       sm_fuse_names
      01009128H   SYMBOL    CONST    ---       sm_trans_clock_mod_alarm
      01009431H   SYMBOL    CONST    ---       sm_trans_fuse_param

      0100207DH   BLOCK     CODE     ---       LVL=0
      ---         BLOCKEND  ---      ---       LVL=0

      010085C6H   BLOCK     CODE     ---       LVL=0
      0200000CH   SYMBOL    XDATA    BYTE      ev
      010085C6H   LINE      CODE     ---       #735
      010085CBH   LINE      CODE     ---       #736
      010085CBH   LINE      CODE     ---       #737
      010085CEH   LINE      CODE     ---       #738
      010085D1H   LINE      CODE     ---       #740
      ---         BLOCKEND  ---      ---       LVL=0

      01008D2AH   BLOCK     CODE     ---       LVL=0
      00000007H   SYMBOL    DATA     BYTE      ev
      01008D2AH   LINE      CODE     ---       #744
      01008D2AH   LINE      CODE     ---       #745
      01008D2AH   LINE      CODE     ---       #746
      ---         BLOCKEND  ---      ---       LVL=0

      01001D77H   BLOCK     CODE     ---       LVL=0
      0200000DH   SYMBOL    XDATA    BYTE      ev
      01001D7CH   BLOCK     CODE     NEAR LAB  LVL=1
      0200000EH   SYMBOL    XDATA    BYTE      c
      0200000FH   SYMBOL    XDATA    BYTE      newstate
      02000010H   SYMBOL    XDATA    BYTE      index
      ---         BLOCKEND  ---      ---       LVL=1
      01001D77H   LINE      CODE     ---       #749
      01001D7CH   LINE      CODE     ---       #750
      01001D7CH   LINE      CODE     ---       #755
      01001D87H   LINE      CODE     ---       #756
      01001DBEH   LINE      CODE     ---       #757
      01001E05H   LINE      CODE     ---       #759
      01001E05H   LINE      CODE     ---       #760
      01001E16H   LINE      CODE     ---       #761
      01001E20H   LINE      CODE     ---       #762
      01001EBCH   LINE      CODE     ---       #771
      01001EEEH   LINE      CODE     ---       #772
      01001EF6H   LINE      CODE     ---       #773
      01001EFEH   LINE      CODE     ---       #774
      01001EFFH   LINE      CODE     ---       #775
      01001EFFH   LINE      CODE     ---       #776
      01001F08H   LINE      CODE     ---       #778
      ---         BLOCKEND  ---      ---       LVL=0

      01007603H   BLOCK     CODE     ---       LVL=0
      01007603H   LINE      CODE     ---       #781
      01007603H   LINE      CODE     ---       #782
      01007603H   LINE      CODE     ---       #783
      0100760CH   LINE      CODE     ---       #784
      01007611H   LINE      CODE     ---       #785
      01007613H   LINE      CODE     ---       #787
      01007616H   LINE      CODE     ---       #788
      01007619H   LINE      CODE     ---       #789
      0100761EH   LINE      CODE     ---       #791
      01007627H   LINE      CODE     ---       #792
      ---         BLOCKEND  ---      ---       LVL=0

LX51 LINKER/LOCATER V4.66.87.0                                                        06/04/2018  21:13:51  PAGE 67


      01006681H   BLOCK     CODE     ---       LVL=0
      01006681H   LINE      CODE     ---       #794
      01006681H   LINE      CODE     ---       #795
      01006681H   LINE      CODE     ---       #796
      ---         BLOCKEND  ---      ---       LVL=0

      01002EBEH   BLOCK     CODE     ---       LVL=0
      01002EBEH   BLOCK     CODE     NEAR LAB  LVL=1
      0200000AH   SYMBOL    XDATA    CHAR      i
      0200000BH   SYMBOL    XDATA    CHAR      j
      0200000CH   SYMBOL    XDATA    CHAR      k
      ---         BLOCKEND  ---      ---       LVL=1
      01002EBEH   LINE      CODE     ---       #803
      01002EBEH   LINE      CODE     ---       #804
      01002EBEH   LINE      CODE     ---       #807
      01002ED1H   LINE      CODE     ---       #808
      01002EF0H   LINE      CODE     ---       #809
      01002F10H   LINE      CODE     ---       #810
      01002F4BH   LINE      CODE     ---       #811
      01002F58H   LINE      CODE     ---       #812
      01002F97H   LINE      CODE     ---       #814
      01002F9FH   LINE      CODE     ---       #815
      01002FA8H   LINE      CODE     ---       #816
      01002FB1H   LINE      CODE     ---       #817
      ---         BLOCKEND  ---      ---       LVL=0

      01006AB6H   BLOCK     CODE     ---       LVL=0
      01006AB6H   BLOCK     CODE     NEAR LAB  LVL=1
      0200000AH   SYMBOL    XDATA    CHAR      i
      ---         BLOCKEND  ---      ---       LVL=1
      01006AB6H   LINE      CODE     ---       #819
      01006AB6H   LINE      CODE     ---       #820
      01006AB6H   LINE      CODE     ---       #822
      01006AC6H   LINE      CODE     ---       #823
      01006AE5H   LINE      CODE     ---       #824
      01006AEDH   LINE      CODE     ---       #825
      ---         BLOCKEND  ---      ---       LVL=0

      01005F27H   BLOCK     CODE     ---       LVL=0
      01005F27H   BLOCK     CODE     NEAR LAB  LVL=1
      0200000AH   SYMBOL    XDATA    CHAR      i
      ---         BLOCKEND  ---      ---       LVL=1
      01005F27H   LINE      CODE     ---       #827
      01005F27H   LINE      CODE     ---       #828
      01005F27H   LINE      CODE     ---       #830
      01005F42H   LINE      CODE     ---       #831
      01005F6EH   LINE      CODE     ---       #832
      01005F76H   LINE      CODE     ---       #833
      ---         BLOCKEND  ---      ---       LVL=0

      010059CFH   BLOCK     CODE     ---       LVL=0
      010059CFH   BLOCK     CODE     NEAR LAB  LVL=1
      0200000AH   SYMBOL    XDATA    CHAR      i
      ---         BLOCKEND  ---      ---       LVL=1
      010059CFH   LINE      CODE     ---       #835
      010059CFH   LINE      CODE     ---       #836
      010059CFH   LINE      CODE     ---       #838
      010059EDH   LINE      CODE     ---       #839
      01005A1FH   LINE      CODE     ---       #841
      01005A27H   LINE      CODE     ---       #842
      ---         BLOCKEND  ---      ---       LVL=0

      01003CF0H   BLOCK     CODE     ---       LVL=0
      0200000AH   SYMBOL    XDATA    ---       table_name
      01003CF6H   BLOCK     CODE     NEAR LAB  LVL=1
LX51 LINKER/LOCATER V4.66.87.0                                                        06/04/2018  21:13:51  PAGE 68


      0200000DH   SYMBOL    XDATA    CHAR      i
      ---         BLOCKEND  ---      ---       LVL=1
      01003CF0H   LINE      CODE     ---       #845
      01003CF6H   LINE      CODE     ---       #846
      01003CF6H   LINE      CODE     ---       #848
      01003D10H   LINE      CODE     ---       #849
      01003D28H   LINE      CODE     ---       #850
      01003D42H   LINE      CODE     ---       #851
      01003D68H   LINE      CODE     ---       #855
      01003D8AH   LINE      CODE     ---       #859
      01003D96H   LINE      CODE     ---       #860
      01003D9BH   LINE      CODE     ---       #861
      01003D9DH   LINE      CODE     ---       #862
      01003D9DH   LINE      CODE     ---       #863
      01003DA6H   LINE      CODE     ---       #864
      01003DA7H   LINE      CODE     ---       #865
      ---         BLOCKEND  ---      ---       LVL=0

      01008710H   BLOCK     CODE     ---       LVL=0
      00000007H   SYMBOL    DATA     BYTE      state
      01008710H   LINE      CODE     ---       #867
      01008710H   LINE      CODE     ---       #868
      01008710H   LINE      CODE     ---       #869
      01008718H   LINE      CODE     ---       #870
      01008720H   LINE      CODE     ---       #871
      ---         BLOCKEND  ---      ---       LVL=0

      01008A29H   BLOCK     CODE     ---       LVL=0
      00000007H   SYMBOL    DATA     BYTE      sub_state
      01008A29H   LINE      CODE     ---       #873
      01008A29H   LINE      CODE     ---       #874
      01008A29H   LINE      CODE     ---       #875
      01008A2EH   LINE      CODE     ---       #876
      01008A33H   LINE      CODE     ---       #877
      ---         BLOCKEND  ---      ---       LVL=0

      01003611H   BLOCK     CODE     ---       LVL=0
      0200000AH   SYMBOL    XDATA    ---       state_name
      01003617H   BLOCK     CODE     NEAR LAB  LVL=1
      0200000DH   SYMBOL    XDATA    CHAR      i
      ---         BLOCKEND  ---      ---       LVL=1
      01003611H   LINE      CODE     ---       #879
      01003617H   LINE      CODE     ---       #880
      01003617H   LINE      CODE     ---       #882
      01003639H   LINE      CODE     ---       #883
      01003660H   LINE      CODE     ---       #884
      0100368FH   LINE      CODE     ---       #887
      010036C5H   LINE      CODE     ---       #891
      010036CDH   LINE      CODE     ---       #892
      010036D2H   LINE      CODE     ---       #893
      010036D4H   LINE      CODE     ---       #894
      010036D4H   LINE      CODE     ---       #895
      010036DDH   LINE      CODE     ---       #896
      010036DEH   LINE      CODE     ---       #897
      ---         BLOCKEND  ---      ---       LVL=0

      0100484EH   BLOCK     CODE     ---       LVL=0
      0200000AH   SYMBOL    XDATA    ---       sub_state_name
      01004854H   BLOCK     CODE     NEAR LAB  LVL=1
      0200000DH   SYMBOL    XDATA    CHAR      i
      ---         BLOCKEND  ---      ---       LVL=1
      0100484EH   LINE      CODE     ---       #899
      01004854H   LINE      CODE     ---       #900
      01004854H   LINE      CODE     ---       #902
      0100486AH   LINE      CODE     ---       #903
LX51 LINKER/LOCATER V4.66.87.0                                                        06/04/2018  21:13:51  PAGE 69


      0100488EH   LINE      CODE     ---       #904
      010048C1H   LINE      CODE     ---       #908
      010048C9H   LINE      CODE     ---       #909
      010048CBH   LINE      CODE     ---       #910
      010048CBH   LINE      CODE     ---       #911
      010048D3H   LINE      CODE     ---       #912
      010048D4H   LINE      CODE     ---       #913
      ---         BLOCKEND  ---      ---       LVL=0

      ---         MODULE    ---      ---       MAIN
      01006103H   PUBLIC    CODE     ---       main
      00000080H   SFRSYM    DATA     BYTE      P0
      00000090H   SFRSYM    DATA     BYTE      P1
      000000A0H   SFRSYM    DATA     BYTE      P2
      000000B0H   SFRSYM    DATA     BYTE      P3
      000000C0H   SFRSYM    DATA     BYTE      XICON
      000000B0H.4 SFRSYM    DATA     BIT       T0
      000000D0H.6 SFRSYM    DATA     BIT       AC
      000000E8H   SFRSYM    DATA     BYTE      P4
      000000B0H.5 SFRSYM    DATA     BIT       T1
      000000E6H   SFRSYM    DATA     BYTE      ISP_TRIG
      00000090H.0 SFRSYM    DATA     BIT       T2
      000000A8H.7 SFRSYM    DATA     BIT       EA
      000000A8H.6 SFRSYM    DATA     BIT       EC
      00000098H.7 SFRSYM    DATA     BIT       FE
      000000A8H   SFRSYM    DATA     BYTE      IE
      000000C8H.6 SFRSYM    DATA     BIT       EXF2
      000000B0H.7 SFRSYM    DATA     BIT       RD
      000000A8H.4 SFRSYM    DATA     BIT       ES
      000000B8H   SFRSYM    DATA     BYTE      IP
      00000098H.0 SFRSYM    DATA     BIT       RI
      000000B0H.2 SFRSYM    DATA     BIT       INT0
      000000D0H.7 SFRSYM    DATA     BIT       CY
      00000098H.1 SFRSYM    DATA     BIT       TI
      000000B0H.3 SFRSYM    DATA     BIT       INT1
      000000CBH   SFRSYM    DATA     BYTE      RCAP2H
      000000E5H   SFRSYM    DATA     BYTE      ISP_CMD
      000000B8H.4 SFRSYM    DATA     BIT       PS
      00000081H   SFRSYM    DATA     BYTE      SP
      00000090H.1 SFRSYM    DATA     BIT       T2EX
      000000D0H.2 SFRSYM    DATA     BIT       OV
      000000CAH   SFRSYM    DATA     BYTE      RCAP2L
      000000C8H.1 SFRSYM    DATA     BIT       C_T2
      000000B0H.6 SFRSYM    DATA     BIT       WR
      000000C8H.5 SFRSYM    DATA     BIT       RCLK
      000000C8H.4 SFRSYM    DATA     BIT       TCLK
      00000080H.0 SFRSYM    DATA     BIT       P00
      00000099H   SFRSYM    DATA     BYTE      SBUF
      00000087H   SFRSYM    DATA     BYTE      PCON
      00000090H.0 SFRSYM    DATA     BIT       P10
      00000080H.1 SFRSYM    DATA     BIT       P01
      000000A0H.0 SFRSYM    DATA     BIT       P20
      00000090H.1 SFRSYM    DATA     BIT       P11
      00000080H.2 SFRSYM    DATA     BIT       P02
      000000E3H   SFRSYM    DATA     BYTE      ISP_ADDRH
      000000B0H.0 SFRSYM    DATA     BIT       P30
      000000A0H.1 SFRSYM    DATA     BIT       P21
      00000090H.2 SFRSYM    DATA     BIT       P12
      00000080H.3 SFRSYM    DATA     BIT       P03
      00000098H   SFRSYM    DATA     BYTE      SCON
      000000B0H.1 SFRSYM    DATA     BIT       P31
      000000A0H.2 SFRSYM    DATA     BIT       P22
      00000090H.3 SFRSYM    DATA     BIT       P13
      00000080H.4 SFRSYM    DATA     BIT       P04
      000000E8H.0 SFRSYM    DATA     BIT       P40
LX51 LINKER/LOCATER V4.66.87.0                                                        06/04/2018  21:13:51  PAGE 70


      00000089H   SFRSYM    DATA     BYTE      TMOD
      00000088H   SFRSYM    DATA     BYTE      TCON
      000000B0H.2 SFRSYM    DATA     BIT       P32
      000000A0H.3 SFRSYM    DATA     BIT       P23
      00000090H.4 SFRSYM    DATA     BIT       P14
      00000080H.5 SFRSYM    DATA     BIT       P05
      000000E8H.1 SFRSYM    DATA     BIT       P41
      000000B0H.3 SFRSYM    DATA     BIT       P33
      000000A0H.4 SFRSYM    DATA     BIT       P24
      00000090H.5 SFRSYM    DATA     BIT       P15
      00000080H.6 SFRSYM    DATA     BIT       P06
      000000E4H   SFRSYM    DATA     BYTE      ISP_ADDRL
      000000E8H.2 SFRSYM    DATA     BIT       P42
      000000B0H.4 SFRSYM    DATA     BIT       P34
      000000A0H.5 SFRSYM    DATA     BIT       P25
      00000090H.6 SFRSYM    DATA     BIT       P16
      00000080H.7 SFRSYM    DATA     BIT       P07
      000000E8H.3 SFRSYM    DATA     BIT       P43
      000000B0H.5 SFRSYM    DATA     BIT       P35
      000000A0H.6 SFRSYM    DATA     BIT       P26
      00000090H.7 SFRSYM    DATA     BIT       P17
      000000E8H.4 SFRSYM    DATA     BIT       P44
      000000B0H.6 SFRSYM    DATA     BIT       P36
      000000A0H.7 SFRSYM    DATA     BIT       P27
      000000E8H.5 SFRSYM    DATA     BIT       P45
      000000B0H.7 SFRSYM    DATA     BIT       P37
      000000E8H.6 SFRSYM    DATA     BIT       P46
      00000088H.1 SFRSYM    DATA     BIT       IE0
      00000088H.3 SFRSYM    DATA     BIT       IE1
      0000008EH   SFRSYM    DATA     BYTE      AUXR
      000000F0H   SFRSYM    DATA     BYTE      B
      000000C8H.0 SFRSYM    DATA     BIT       CP_RL2
      000000E0H   SFRSYM    DATA     BYTE      ACC
      000000A8H.1 SFRSYM    DATA     BIT       ET0
      000000A8H.3 SFRSYM    DATA     BIT       ET1
      00000088H.5 SFRSYM    DATA     BIT       TF0
      000000A8H.5 SFRSYM    DATA     BIT       ET2
      00000088H.7 SFRSYM    DATA     BIT       TF1
      000000C8H.7 SFRSYM    DATA     BIT       TF2
      00000098H.2 SFRSYM    DATA     BIT       RB8
      0000008CH   SFRSYM    DATA     BYTE      TH0
      000000A8H.0 SFRSYM    DATA     BIT       EX0
      00000088H.0 SFRSYM    DATA     BIT       IT0
      0000008DH   SFRSYM    DATA     BYTE      TH1
      00000098H.3 SFRSYM    DATA     BIT       TB8
      000000A8H.2 SFRSYM    DATA     BIT       EX1
      00000088H.2 SFRSYM    DATA     BIT       IT1
      000000CDH   SFRSYM    DATA     BYTE      TH2
      000000D0H.0 SFRSYM    DATA     BIT       P
      00000098H.7 SFRSYM    DATA     BIT       SM0
      0000008AH   SFRSYM    DATA     BYTE      TL0
      00000098H.6 SFRSYM    DATA     BIT       SM1
      0000008BH   SFRSYM    DATA     BYTE      TL1
      00000098H.5 SFRSYM    DATA     BIT       SM2
      000000CCH   SFRSYM    DATA     BYTE      TL2
      000000B8H.1 SFRSYM    DATA     BIT       PT0
      000000B8H.3 SFRSYM    DATA     BIT       PT1
      000000D0H.3 SFRSYM    DATA     BIT       RS0
      000000E7H   SFRSYM    DATA     BYTE      ISP_CONTR
      000000B8H.5 SFRSYM    DATA     BIT       PT2
      00000088H.4 SFRSYM    DATA     BIT       TR0
      000000D0H.4 SFRSYM    DATA     BIT       RS1
      00000088H.6 SFRSYM    DATA     BIT       TR1
      000000C8H.2 SFRSYM    DATA     BIT       TR2
      000000B8H.0 SFRSYM    DATA     BIT       PX0
LX51 LINKER/LOCATER V4.66.87.0                                                        06/04/2018  21:13:51  PAGE 71


      000000E1H   SFRSYM    DATA     BYTE      WDT_CONTR
      000000B8H.2 SFRSYM    DATA     BIT       PX1
      00000083H   SFRSYM    DATA     BYTE      DPH
      00000082H   SFRSYM    DATA     BYTE      DPL
      000000B7H   SFRSYM    DATA     BYTE      IPH
      000000C8H.3 SFRSYM    DATA     BIT       EXEN2
      00000098H.4 SFRSYM    DATA     BIT       REN
      000000C9H   SFRSYM    DATA     BYTE      T2MOD
      000000C8H   SFRSYM    DATA     BYTE      T2CON
      000000E2H   SFRSYM    DATA     BYTE      ISP_DATA
      000000B9H   SFRSYM    DATA     BYTE      SADEN
      000000B0H.0 SFRSYM    DATA     BIT       RXD
      000000A9H   SFRSYM    DATA     BYTE      SADDR
      000000B0H.1 SFRSYM    DATA     BIT       TXD
      000000A2H   SFRSYM    DATA     BYTE      AUXR1
      000000D0H.5 SFRSYM    DATA     BIT       F0
      000000D0H   SFRSYM    DATA     BYTE      PSW
      01007048H   SYMBOL    CODE     ---       show_version

      01007048H   BLOCK     CODE     ---       LVL=0
      01007048H   LINE      CODE     ---       #32
      01007048H   LINE      CODE     ---       #33
      01007048H   LINE      CODE     ---       #35
      01007051H   LINE      CODE     ---       #36
      01007064H   LINE      CODE     ---       #37
      0100706DH   LINE      CODE     ---       #38
      ---         BLOCKEND  ---      ---       LVL=0

      01006103H   BLOCK     CODE     ---       LVL=0
      01006103H   LINE      CODE     ---       #42
      01006103H   LINE      CODE     ---       #43
      01006103H   LINE      CODE     ---       #44
      01006105H   LINE      CODE     ---       #45
      01006108H   LINE      CODE     ---       #46
      0100610BH   LINE      CODE     ---       #47
      0100610EH   LINE      CODE     ---       #48
      01006111H   LINE      CODE     ---       #49
      01006114H   LINE      CODE     ---       #50
      01006117H   LINE      CODE     ---       #51
      0100611AH   LINE      CODE     ---       #52
      0100611DH   LINE      CODE     ---       #53
      01006120H   LINE      CODE     ---       #54
      01006123H   LINE      CODE     ---       #55
      01006126H   LINE      CODE     ---       #56
      01006129H   LINE      CODE     ---       #57
      0100612CH   LINE      CODE     ---       #58
      0100612FH   LINE      CODE     ---       #59
      01006132H   LINE      CODE     ---       #60
      01006135H   LINE      CODE     ---       #61
      01006138H   LINE      CODE     ---       #62
      0100613BH   LINE      CODE     ---       #63
      0100613EH   LINE      CODE     ---       #64
      01006141H   LINE      CODE     ---       #65
      01006144H   LINE      CODE     ---       #66
      01006147H   LINE      CODE     ---       #67
      01006147H   LINE      CODE     ---       #68
      0100614AH   LINE      CODE     ---       #69
      0100614DH   LINE      CODE     ---       #70
      ---         BLOCKEND  ---      ---       LVL=0

      ---         MODULE    ---      ---       ?C_STARTUP
      01000000H   PUBLIC    CODE     NEAR LAB  ?C_STARTUP
      000000E0H   SFRSYM    DATA     BYTE      ACC
      000000F0H   SFRSYM    DATA     BYTE      B
      00000083H   SFRSYM    DATA     BYTE      DPH
LX51 LINKER/LOCATER V4.66.87.0                                                        06/04/2018  21:13:51  PAGE 72


      00000082H   SFRSYM    DATA     BYTE      DPL
      000000A0H   SFRSYM    DATA     BYTE      PPAGE_SFR
      00000081H   SFRSYM    DATA     BYTE      SP
      00000000H   SYMBOL    NUMBER   ---       IBPSTACK
      00000100H   SYMBOL    NUMBER   ---       IBPSTACKTOP
      00000080H   SYMBOL    NUMBER   ---       IDATALEN
      0100796FH   SYMBOL    CODE     NEAR LAB  IDATALOOP
      00000000H   SYMBOL    NUMBER   ---       PBPSTACK
      00000100H   SYMBOL    NUMBER   ---       PBPSTACKTOP
      00000000H   SYMBOL    NUMBER   ---       PDATALEN
      00000000H   SYMBOL    NUMBER   ---       PDATASTART
      00000000H   SYMBOL    NUMBER   ---       PPAGE
      00000000H   SYMBOL    NUMBER   ---       PPAGEENABLE
      0100796CH   SYMBOL    CODE     NEAR LAB  STARTUP1
      00000001H   SYMBOL    NUMBER   ---       XBPSTACK
      00010000H   SYMBOL    NUMBER   ---       XBPSTACKTOP
      00000400H   SYMBOL    NUMBER   ---       XDATALEN
      0100797AH   SYMBOL    CODE     NEAR LAB  XDATALOOP
      00000000H   SYMBOL    NUMBER   ---       XDATASTART

      01000000H   BLOCK     CODE     NEAR LAB  LVL=0
      01000000H   LINE      CODE     ---       #126
      ---         BLOCKEND  ---      ---       LVL=0

      0100796CH   BLOCK     CODE     NEAR LAB  LVL=0
      0100796CH   LINE      CODE     ---       #133
      0100796EH   LINE      CODE     ---       #134
      0100796FH   LINE      CODE     ---       #135
      01007970H   LINE      CODE     ---       #136
      01007972H   LINE      CODE     ---       #140
      01007975H   LINE      CODE     ---       #141
      01007977H   LINE      CODE     ---       #145
      01007979H   LINE      CODE     ---       #147
      0100797AH   LINE      CODE     ---       #148
      0100797BH   LINE      CODE     ---       #149
      0100797CH   LINE      CODE     ---       #150
      0100797EH   LINE      CODE     ---       #151
      01007980H   LINE      CODE     ---       #176
      01007983H   LINE      CODE     ---       #177
      01007986H   LINE      CODE     ---       #185
      01007989H   LINE      CODE     ---       #196
      ---         BLOCKEND  ---      ---       LVL=0

      ---         MODULE    ---      ---       COM
      00000023H.4 PUBLIC    BIT      BIT       sendfull
      00000023H.3 PUBLIC    BIT      BIT       sendactive
      01000016H   PUBLIC    CODE     ---       com_leave_powersave
      010088C8H   PUBLIC    CODE     ---       com_enter_powersave
      01008486H   PUBLIC    CODE     ---       com_try_get_key
      01008787H   PUBLIC    CODE     ---       _getkey
      01008020H   PUBLIC    CODE     ---       _putchar
      01006F8CH   PUBLIC    CODE     ---       _putbuf
      01007409H   PUBLIC    CODE     ---       com_initialize
      00000080H   SFRSYM    DATA     BYTE      P0
      00000090H   SFRSYM    DATA     BYTE      P1
      000000A0H   SFRSYM    DATA     BYTE      P2
      000000B0H   SFRSYM    DATA     BYTE      P3
      000000C0H   SFRSYM    DATA     BYTE      XICON
      000000B0H.4 SFRSYM    DATA     BIT       T0
      000000D0H.6 SFRSYM    DATA     BIT       AC
      000000E8H   SFRSYM    DATA     BYTE      P4
      000000B0H.5 SFRSYM    DATA     BIT       T1
      000000E6H   SFRSYM    DATA     BYTE      ISP_TRIG
      00000090H.0 SFRSYM    DATA     BIT       T2
      000000A8H.7 SFRSYM    DATA     BIT       EA
LX51 LINKER/LOCATER V4.66.87.0                                                        06/04/2018  21:13:51  PAGE 73


      000000A8H.6 SFRSYM    DATA     BIT       EC
      00000098H.7 SFRSYM    DATA     BIT       FE
      000000A8H   SFRSYM    DATA     BYTE      IE
      000000C8H.6 SFRSYM    DATA     BIT       EXF2
      000000B0H.7 SFRSYM    DATA     BIT       RD
      000000A8H.4 SFRSYM    DATA     BIT       ES
      000000B8H   SFRSYM    DATA     BYTE      IP
      00000098H.0 SFRSYM    DATA     BIT       RI
      000000B0H.2 SFRSYM    DATA     BIT       INT0
      000000D0H.7 SFRSYM    DATA     BIT       CY
      00000098H.1 SFRSYM    DATA     BIT       TI
      000000B0H.3 SFRSYM    DATA     BIT       INT1
      000000CBH   SFRSYM    DATA     BYTE      RCAP2H
      000000E5H   SFRSYM    DATA     BYTE      ISP_CMD
      000000B8H.4 SFRSYM    DATA     BIT       PS
      00000081H   SFRSYM    DATA     BYTE      SP
      00000090H.1 SFRSYM    DATA     BIT       T2EX
      000000D0H.2 SFRSYM    DATA     BIT       OV
      000000CAH   SFRSYM    DATA     BYTE      RCAP2L
      000000C8H.1 SFRSYM    DATA     BIT       C_T2
      000000B0H.6 SFRSYM    DATA     BIT       WR
      000000C8H.5 SFRSYM    DATA     BIT       RCLK
      000000C8H.4 SFRSYM    DATA     BIT       TCLK
      00000080H.0 SFRSYM    DATA     BIT       P00
      00000099H   SFRSYM    DATA     BYTE      SBUF
      00000087H   SFRSYM    DATA     BYTE      PCON
      00000090H.0 SFRSYM    DATA     BIT       P10
      00000080H.1 SFRSYM    DATA     BIT       P01
      000000A0H.0 SFRSYM    DATA     BIT       P20
      00000090H.1 SFRSYM    DATA     BIT       P11
      00000080H.2 SFRSYM    DATA     BIT       P02
      000000E3H   SFRSYM    DATA     BYTE      ISP_ADDRH
      000000B0H.0 SFRSYM    DATA     BIT       P30
      000000A0H.1 SFRSYM    DATA     BIT       P21
      00000090H.2 SFRSYM    DATA     BIT       P12
      00000080H.3 SFRSYM    DATA     BIT       P03
      00000098H   SFRSYM    DATA     BYTE      SCON
      000000B0H.1 SFRSYM    DATA     BIT       P31
      000000A0H.2 SFRSYM    DATA     BIT       P22
      00000090H.3 SFRSYM    DATA     BIT       P13
      00000080H.4 SFRSYM    DATA     BIT       P04
      000000E8H.0 SFRSYM    DATA     BIT       P40
      00000089H   SFRSYM    DATA     BYTE      TMOD
      00000088H   SFRSYM    DATA     BYTE      TCON
      000000B0H.2 SFRSYM    DATA     BIT       P32
      000000A0H.3 SFRSYM    DATA     BIT       P23
      00000090H.4 SFRSYM    DATA     BIT       P14
      00000080H.5 SFRSYM    DATA     BIT       P05
      000000E8H.1 SFRSYM    DATA     BIT       P41
      000000B0H.3 SFRSYM    DATA     BIT       P33
      000000A0H.4 SFRSYM    DATA     BIT       P24
      00000090H.5 SFRSYM    DATA     BIT       P15
      00000080H.6 SFRSYM    DATA     BIT       P06
      000000E4H   SFRSYM    DATA     BYTE      ISP_ADDRL
      000000E8H.2 SFRSYM    DATA     BIT       P42
      000000B0H.4 SFRSYM    DATA     BIT       P34
      000000A0H.5 SFRSYM    DATA     BIT       P25
      00000090H.6 SFRSYM    DATA     BIT       P16
      00000080H.7 SFRSYM    DATA     BIT       P07
      000000E8H.3 SFRSYM    DATA     BIT       P43
      000000B0H.5 SFRSYM    DATA     BIT       P35
      000000A0H.6 SFRSYM    DATA     BIT       P26
      00000090H.7 SFRSYM    DATA     BIT       P17
      000000E8H.4 SFRSYM    DATA     BIT       P44
      000000B0H.6 SFRSYM    DATA     BIT       P36
LX51 LINKER/LOCATER V4.66.87.0                                                        06/04/2018  21:13:51  PAGE 74


      000000A0H.7 SFRSYM    DATA     BIT       P27
      000000E8H.5 SFRSYM    DATA     BIT       P45
      000000B0H.7 SFRSYM    DATA     BIT       P37
      000000E8H.6 SFRSYM    DATA     BIT       P46
      00000088H.1 SFRSYM    DATA     BIT       IE0
      00000088H.3 SFRSYM    DATA     BIT       IE1
      0000008EH   SFRSYM    DATA     BYTE      AUXR
      000000F0H   SFRSYM    DATA     BYTE      B
      000000C8H.0 SFRSYM    DATA     BIT       CP_RL2
      000000E0H   SFRSYM    DATA     BYTE      ACC
      000000A8H.1 SFRSYM    DATA     BIT       ET0
      000000A8H.3 SFRSYM    DATA     BIT       ET1
      00000088H.5 SFRSYM    DATA     BIT       TF0
      000000A8H.5 SFRSYM    DATA     BIT       ET2
      00000088H.7 SFRSYM    DATA     BIT       TF1
      000000C8H.7 SFRSYM    DATA     BIT       TF2
      00000098H.2 SFRSYM    DATA     BIT       RB8
      0000008CH   SFRSYM    DATA     BYTE      TH0
      000000A8H.0 SFRSYM    DATA     BIT       EX0
      00000088H.0 SFRSYM    DATA     BIT       IT0
      0000008DH   SFRSYM    DATA     BYTE      TH1
      00000098H.3 SFRSYM    DATA     BIT       TB8
      000000A8H.2 SFRSYM    DATA     BIT       EX1
      00000088H.2 SFRSYM    DATA     BIT       IT1
      000000CDH   SFRSYM    DATA     BYTE      TH2
      000000D0H.0 SFRSYM    DATA     BIT       P
      00000098H.7 SFRSYM    DATA     BIT       SM0
      0000008AH   SFRSYM    DATA     BYTE      TL0
      00000098H.6 SFRSYM    DATA     BIT       SM1
      0000008BH   SFRSYM    DATA     BYTE      TL1
      00000098H.5 SFRSYM    DATA     BIT       SM2
      000000CCH   SFRSYM    DATA     BYTE      TL2
      000000B8H.1 SFRSYM    DATA     BIT       PT0
      000000B8H.3 SFRSYM    DATA     BIT       PT1
      000000D0H.3 SFRSYM    DATA     BIT       RS0
      000000E7H   SFRSYM    DATA     BYTE      ISP_CONTR
      000000B8H.5 SFRSYM    DATA     BIT       PT2
      00000088H.4 SFRSYM    DATA     BIT       TR0
      000000D0H.4 SFRSYM    DATA     BIT       RS1
      00000088H.6 SFRSYM    DATA     BIT       TR1
      000000C8H.2 SFRSYM    DATA     BIT       TR2
      000000B8H.0 SFRSYM    DATA     BIT       PX0
      000000E1H   SFRSYM    DATA     BYTE      WDT_CONTR
      000000B8H.2 SFRSYM    DATA     BIT       PX1
      00000083H   SFRSYM    DATA     BYTE      DPH
      00000082H   SFRSYM    DATA     BYTE      DPL
      000000B7H   SFRSYM    DATA     BYTE      IPH
      000000C8H.3 SFRSYM    DATA     BIT       EXEN2
      00000098H.4 SFRSYM    DATA     BIT       REN
      000000C9H   SFRSYM    DATA     BYTE      T2MOD
      000000C8H   SFRSYM    DATA     BYTE      T2CON
      000000E2H   SFRSYM    DATA     BYTE      ISP_DATA
      000000B9H   SFRSYM    DATA     BYTE      SADEN
      000000B0H.0 SFRSYM    DATA     BIT       RXD
      000000A9H   SFRSYM    DATA     BYTE      SADDR
      000000B0H.1 SFRSYM    DATA     BIT       TXD
      000000A2H   SFRSYM    DATA     BYTE      AUXR1
      000000D0H.5 SFRSYM    DATA     BIT       F0
      000000D0H   SFRSYM    DATA     BYTE      PSW
      00000026H   SYMBOL    IDATA    ---       inbuf
      0000002EH   SYMBOL    IDATA    ---       outbuf
      020000CEH   SYMBOL    XDATA    BYTE      istart
      020000CFH   SYMBOL    XDATA    BYTE      ostart
      020000D0H   SYMBOL    XDATA    BYTE      iend
      020000D1H   SYMBOL    XDATA    BYTE      oend
LX51 LINKER/LOCATER V4.66.87.0                                                        06/04/2018  21:13:51  PAGE 75


      01005154H   SYMBOL    CODE     ---       com_isr

      010081EEH   BLOCK     CODE     ---       LVL=0
      ---         BLOCKEND  ---      ---       LVL=0

      01005154H   BLOCK     CODE     ---       LVL=0
      01005166H   BLOCK     CODE     NEAR LAB  LVL=1
      00000017H   SYMBOL    DATA     CHAR      c
      ---         BLOCKEND  ---      ---       LVL=1
      01005154H   LINE      CODE     ---       #31
      01005166H   LINE      CODE     ---       #36
      01005169H   LINE      CODE     ---       #37
      0100516BH   LINE      CODE     ---       #38
      0100516DH   LINE      CODE     ---       #39
      01005181H   LINE      CODE     ---       #40
      0100518DH   LINE      CODE     ---       #41
      0100518DH   LINE      CODE     ---       #42
      0100518DH   LINE      CODE     ---       #45
      01005190H   LINE      CODE     ---       #46
      01005192H   LINE      CODE     ---       #47
      0100519EH   LINE      CODE     ---       #48
      010051ABH   LINE      CODE     ---       #49
      010051ADH   LINE      CODE     ---       #50
      010051AFH   LINE      CODE     ---       #51
      010051AFH   LINE      CODE     ---       #52
      010051B1H   LINE      CODE     ---       #53
      010051B1H   LINE      CODE     ---       #54
      010051B1H   LINE      CODE     ---       #55
      ---         BLOCKEND  ---      ---       LVL=0

      01007409H   BLOCK     CODE     ---       LVL=0
      01007409H   LINE      CODE     ---       #61
      01007409H   LINE      CODE     ---       #62
      0100740EH   LINE      CODE     ---       #63
      01007412H   LINE      CODE     ---       #64
      01007416H   LINE      CODE     ---       #65
      0100741AH   LINE      CODE     ---       #66
      0100741CH   LINE      CODE     ---       #67
      0100741EH   LINE      CODE     ---       #69
      01007421H   LINE      CODE     ---       #71
      01007424H   LINE      CODE     ---       #72
      01007427H   LINE      CODE     ---       #74
      0100742AH   LINE      CODE     ---       #75
      0100742CH   LINE      CODE     ---       #76
      0100742EH   LINE      CODE     ---       #77
      01007430H   LINE      CODE     ---       #78
      ---         BLOCKEND  ---      ---       LVL=0

      01006F8CH   BLOCK     CODE     ---       LVL=0
      00000007H   SYMBOL    DATA     CHAR      c
      01006F8CH   LINE      CODE     ---       #89
      01006F8CH   LINE      CODE     ---       #90
      01006F8FH   LINE      CODE     ---       #91
      01006F92H   LINE      CODE     ---       #92
      01006F94H   LINE      CODE     ---       #93
      01006F96H   LINE      CODE     ---       #94
      01006F97H   LINE      CODE     ---       #95
      01006F97H   LINE      CODE     ---       #96
      01006F99H   LINE      CODE     ---       #97
      01006FA8H   LINE      CODE     ---       #98
      01006FB6H   LINE      CODE     ---       #99
      01006FB8H   LINE      CODE     ---       #100
      01006FB8H   LINE      CODE     ---       #101
      01006FBAH   LINE      CODE     ---       #102
      01006FBAH   LINE      CODE     ---       #103
LX51 LINKER/LOCATER V4.66.87.0                                                        06/04/2018  21:13:51  PAGE 76


      01006FBAH   LINE      CODE     ---       #104
      ---         BLOCKEND  ---      ---       LVL=0

      01008020H   BLOCK     CODE     ---       LVL=0
      00000005H   SYMBOL    DATA     CHAR      c
      01008020H   LINE      CODE     ---       #111
      01008022H   LINE      CODE     ---       #112
      01008026H   LINE      CODE     ---       #113
      01008029H   LINE      CODE     ---       #114
      0100802EH   LINE      CODE     ---       #115
      0100802EH   LINE      CODE     ---       #116
      01008031H   LINE      CODE     ---       #117
      01008036H   LINE      CODE     ---       #118
      01008038H   LINE      CODE     ---       #119
      ---         BLOCKEND  ---      ---       LVL=0

      01008787H   BLOCK     CODE     ---       LVL=0
      01008787H   BLOCK     CODE     NEAR LAB  LVL=1
      00000007H   SYMBOL    DATA     CHAR      c
      ---         BLOCKEND  ---      ---       LVL=1
      01008787H   LINE      CODE     ---       #126
      01008787H   LINE      CODE     ---       #128
      0100878DH   LINE      CODE     ---       #130
      0100878DH   LINE      CODE     ---       #131
      0100878FH   LINE      CODE     ---       #132
      01008793H   LINE      CODE     ---       #133
      01008796H   LINE      CODE     ---       #134
      01008796H   LINE      CODE     ---       #135
      ---         BLOCKEND  ---      ---       LVL=0

      01008486H   BLOCK     CODE     ---       LVL=0
      01008486H   BLOCK     CODE     NEAR LAB  LVL=1
      00000007H   SYMBOL    DATA     CHAR      c
      ---         BLOCKEND  ---      ---       LVL=1
      01008486H   LINE      CODE     ---       #137
      01008486H   LINE      CODE     ---       #138
      01008486H   LINE      CODE     ---       #140
      0100848CH   LINE      CODE     ---       #141
      0100848FH   LINE      CODE     ---       #142
      0100848FH   LINE      CODE     ---       #143
      01008491H   LINE      CODE     ---       #144
      01008496H   LINE      CODE     ---       #145
      01008499H   LINE      CODE     ---       #146
      01008499H   LINE      CODE     ---       #147
      ---         BLOCKEND  ---      ---       LVL=0

      010088C8H   BLOCK     CODE     ---       LVL=0
      010088C8H   LINE      CODE     ---       #149
      010088C8H   LINE      CODE     ---       #150
      010088C8H   LINE      CODE     ---       #151
      010088D1H   LINE      CODE     ---       #152
      010088D3H   LINE      CODE     ---       #153
      010088D5H   LINE      CODE     ---       #154
      ---         BLOCKEND  ---      ---       LVL=0

      01000016H   BLOCK     CODE     ---       LVL=0
      01000016H   LINE      CODE     ---       #156
      01000016H   LINE      CODE     ---       #157
      01000016H   LINE      CODE     ---       #158
      01000018H   LINE      CODE     ---       #159
      0100001AH   LINE      CODE     ---       #160
      ---         BLOCKEND  ---      ---       LVL=0

      ---         MODULE    ---      ---       RTC
      010080CEH   PUBLIC    CODE     ---       rtc_leave_powersave
LX51 LINKER/LOCATER V4.66.87.0                                                        06/04/2018  21:13:51  PAGE 77


      010080B6H   PUBLIC    CODE     ---       rtc_enter_powersave
      01008AF4H   PUBLIC    CODE     ---       rtc_test_bsy
      00000020H.0 PUBLIC    BIT      BIT       ?rtc_set_en32khz?BIT
      01008832H   PUBLIC    CODE     ---       rtc_set_en32khz
      01008AEAH   PUBLIC    CODE     ---       rtc_test_en32khz
      00000024H.6 PUBLIC    BIT      BIT       ?rtc_set_osf?BIT
      01008823H   PUBLIC    CODE     ---       rtc_set_osf
      01008AE0H   PUBLIC    CODE     ---       rtc_test_osf
      00000020H.0 PUBLIC    BIT      BIT       ?rtc_set_intcn?BIT
      01008814H   PUBLIC    CODE     ---       rtc_set_intcn
      01008AD6H   PUBLIC    CODE     ---       rtc_test_intcn
      010084D6H   PUBLIC    CODE     ---       rtc_get_square_rate_str
      01008721H   PUBLIC    CODE     ---       _rtc_set_square_rate
      0100897EH   PUBLIC    CODE     ---       rtc_get_square_rate
      00000024H.5 PUBLIC    BIT      BIT       ?rtc_set_conv?BIT
      01008805H   PUBLIC    CODE     ---       rtc_set_conv
      01008ACCH   PUBLIC    CODE     ---       rtc_test_conv
      00000024H.4 PUBLIC    BIT      BIT       ?rtc_set_bbsqw?BIT
      010087F6H   PUBLIC    CODE     ---       rtc_set_bbsqw
      01008AC2H   PUBLIC    CODE     ---       rtc_test_bbsqw
      00000024H.3 PUBLIC    BIT      BIT       ?rtc_set_eosc?BIT
      010087E7H   PUBLIC    CODE     ---       rtc_set_eosc
      01008AB8H   PUBLIC    CODE     ---       rtc_test_eosc
      01007B7BH   PUBLIC    CODE     ---       _rtc_test_alarm_int_flag
      01008205H   PUBLIC    CODE     ---       _rtc_clr_alarm_int_flag
      01007B5EH   PUBLIC    CODE     ---       _rtc_test_alarm_int
      00000020H.1 PUBLIC    BIT      BIT       ?_rtc_enable_alarm_int?BIT
      01007628H   PUBLIC    CODE     ---       _rtc_enable_alarm_int
      02000014H   PUBLIC    XDATA    BYTE      ?_rtc_get_temperature?BYTE
      010042BAH   PUBLIC    CODE     ---       _rtc_get_temperature
      010084C2H   PUBLIC    CODE     ---       rtc_alarm_get_mod_str
      010046AFH   PUBLIC    CODE     ---       _rtc_alarm_set_mode
      010036DFH   PUBLIC    CODE     ---       rtc_alarm_get_mode
      01008343H   PUBLIC    CODE     ---       _rtc_alarm_set_sec
      010084AEH   PUBLIC    CODE     ---       rtc_alarm_get_sec
      01007F50H   PUBLIC    CODE     ---       _rtc_alarm_set_date
      010083F3H   PUBLIC    CODE     ---       rtc_alarm_get_date
      0100832DH   PUBLIC    CODE     ---       _rtc_alarm_set_day
      0100849AH   PUBLIC    CODE     ---       rtc_alarm_get_day
      010085FFH   PUBLIC    CODE     ---       _rtc_alarm_set_min
      01008317H   PUBLIC    CODE     ---       rtc_alarm_get_min
      010085ECH   PUBLIC    CODE     ---       _rtc_alarm_set_hour
      00000020H.0 PUBLIC    BIT      BIT       ?rtc_alarm_set_hour_12?BIT
      01007B41H   PUBLIC    CODE     ---       rtc_alarm_set_hour_12
      01008301H   PUBLIC    CODE     ---       rtc_alarm_get_hour_12
      010082EBH   PUBLIC    CODE     ---       rtc_alarm_get_hour
      01008638H   PUBLIC    CODE     ---       _rtc_date_set_day
      01008C71H   PUBLIC    CODE     ---       rtc_date_get_day
      01004049H   PUBLIC    CODE     ---       _rtc_date_set_date
      01008C2FH   PUBLIC    CODE     ---       rtc_date_get_date
      01008C27H   PUBLIC    CODE     ---       _rtc_date_set_month
      010089B1H   PUBLIC    CODE     ---       rtc_date_get_month
      01008C1FH   PUBLIC    CODE     ---       _rtc_date_set_year
      010089A5H   PUBLIC    CODE     ---       rtc_date_get_year
      01008C6BH   PUBLIC    CODE     ---       _rtc_time_set_sec
      01008C17H   PUBLIC    CODE     ---       rtc_time_get_sec
      01008B3AH   PUBLIC    CODE     ---       _rtc_time_set_min
      01008C0FH   PUBLIC    CODE     ---       rtc_time_get_min
      01008C07H   PUBLIC    CODE     ---       rtc_time_get_hour_12
      00000020H.1 PUBLIC    BIT      BIT       ?rtc_time_set_hour_12?BIT
      01008797H   PUBLIC    CODE     ---       rtc_time_set_hour_12
      01008C65H   PUBLIC    CODE     ---       _rtc_time_set_hour
      01008BFFH   PUBLIC    CODE     ---       rtc_time_get_hour
      01005B8AH   PUBLIC    CODE     ---       _rtc_write_data
      01005A28H   PUBLIC    CODE     ---       _rtc_read_data
LX51 LINKER/LOCATER V4.66.87.0                                                        06/04/2018  21:13:51  PAGE 78


      01002FB2H   PUBLIC    CODE     ---       rtc_initialize
      010085D9H   PUBLIC    CODE     ---       scan_rtc
      00000020H.0 PUBLIC    BIT      BIT       ?rtc_set_lt_timer?BIT
      01000006H   PUBLIC    CODE     ---       rtc_set_lt_timer
      01008D2DH   PUBLIC    CODE     ---       rtc_is_lt_timer
      010011B2H   PUBLIC    CODE     ---       rtc_dump
      00000080H   SFRSYM    DATA     BYTE      P0
      00000090H   SFRSYM    DATA     BYTE      P1
      000000A0H   SFRSYM    DATA     BYTE      P2
      000000B0H   SFRSYM    DATA     BYTE      P3
      000000C0H   SFRSYM    DATA     BYTE      XICON
      000000B0H.4 SFRSYM    DATA     BIT       T0
      000000D0H.6 SFRSYM    DATA     BIT       AC
      000000E8H   SFRSYM    DATA     BYTE      P4
      000000B0H.5 SFRSYM    DATA     BIT       T1
      000000E6H   SFRSYM    DATA     BYTE      ISP_TRIG
      00000090H.0 SFRSYM    DATA     BIT       T2
      000000A8H.7 SFRSYM    DATA     BIT       EA
      000000A8H.6 SFRSYM    DATA     BIT       EC
      00000098H.7 SFRSYM    DATA     BIT       FE
      000000A8H   SFRSYM    DATA     BYTE      IE
      000000C8H.6 SFRSYM    DATA     BIT       EXF2
      000000B0H.7 SFRSYM    DATA     BIT       RD
      000000A8H.4 SFRSYM    DATA     BIT       ES
      000000B8H   SFRSYM    DATA     BYTE      IP
      00000098H.0 SFRSYM    DATA     BIT       RI
      000000B0H.2 SFRSYM    DATA     BIT       INT0
      000000D0H.7 SFRSYM    DATA     BIT       CY
      00000098H.1 SFRSYM    DATA     BIT       TI
      000000B0H.3 SFRSYM    DATA     BIT       INT1
      000000CBH   SFRSYM    DATA     BYTE      RCAP2H
      000000E5H   SFRSYM    DATA     BYTE      ISP_CMD
      000000B8H.4 SFRSYM    DATA     BIT       PS
      00000081H   SFRSYM    DATA     BYTE      SP
      00000090H.1 SFRSYM    DATA     BIT       T2EX
      000000D0H.2 SFRSYM    DATA     BIT       OV
      000000CAH   SFRSYM    DATA     BYTE      RCAP2L
      000000C8H.1 SFRSYM    DATA     BIT       C_T2
      000000B0H.6 SFRSYM    DATA     BIT       WR
      000000C8H.5 SFRSYM    DATA     BIT       RCLK
      000000C8H.4 SFRSYM    DATA     BIT       TCLK
      00000080H.0 SFRSYM    DATA     BIT       P00
      00000099H   SFRSYM    DATA     BYTE      SBUF
      00000087H   SFRSYM    DATA     BYTE      PCON
      00000090H.0 SFRSYM    DATA     BIT       P10
      00000080H.1 SFRSYM    DATA     BIT       P01
      000000A0H.0 SFRSYM    DATA     BIT       P20
      00000090H.1 SFRSYM    DATA     BIT       P11
      00000080H.2 SFRSYM    DATA     BIT       P02
      000000E3H   SFRSYM    DATA     BYTE      ISP_ADDRH
      000000B0H.0 SFRSYM    DATA     BIT       P30
      000000A0H.1 SFRSYM    DATA     BIT       P21
      00000090H.2 SFRSYM    DATA     BIT       P12
      00000080H.3 SFRSYM    DATA     BIT       P03
      00000098H   SFRSYM    DATA     BYTE      SCON
      000000B0H.1 SFRSYM    DATA     BIT       P31
      000000A0H.2 SFRSYM    DATA     BIT       P22
      00000090H.3 SFRSYM    DATA     BIT       P13
      00000080H.4 SFRSYM    DATA     BIT       P04
      000000E8H.0 SFRSYM    DATA     BIT       P40
      00000089H   SFRSYM    DATA     BYTE      TMOD
      00000088H   SFRSYM    DATA     BYTE      TCON
      000000B0H.2 SFRSYM    DATA     BIT       P32
      000000A0H.3 SFRSYM    DATA     BIT       P23
      00000090H.4 SFRSYM    DATA     BIT       P14
LX51 LINKER/LOCATER V4.66.87.0                                                        06/04/2018  21:13:51  PAGE 79


      00000080H.5 SFRSYM    DATA     BIT       P05
      000000E8H.1 SFRSYM    DATA     BIT       P41
      000000B0H.3 SFRSYM    DATA     BIT       P33
      000000A0H.4 SFRSYM    DATA     BIT       P24
      00000090H.5 SFRSYM    DATA     BIT       P15
      00000080H.6 SFRSYM    DATA     BIT       P06
      000000E4H   SFRSYM    DATA     BYTE      ISP_ADDRL
      000000E8H.2 SFRSYM    DATA     BIT       P42
      000000B0H.4 SFRSYM    DATA     BIT       P34
      000000A0H.5 SFRSYM    DATA     BIT       P25
      00000090H.6 SFRSYM    DATA     BIT       P16
      00000080H.7 SFRSYM    DATA     BIT       P07
      000000E8H.3 SFRSYM    DATA     BIT       P43
      000000B0H.5 SFRSYM    DATA     BIT       P35
      000000A0H.6 SFRSYM    DATA     BIT       P26
      00000090H.7 SFRSYM    DATA     BIT       P17
      000000E8H.4 SFRSYM    DATA     BIT       P44
      000000B0H.6 SFRSYM    DATA     BIT       P36
      000000A0H.7 SFRSYM    DATA     BIT       P27
      000000E8H.5 SFRSYM    DATA     BIT       P45
      000000B0H.7 SFRSYM    DATA     BIT       P37
      000000E8H.6 SFRSYM    DATA     BIT       P46
      00000088H.1 SFRSYM    DATA     BIT       IE0
      00000088H.3 SFRSYM    DATA     BIT       IE1
      0000008EH   SFRSYM    DATA     BYTE      AUXR
      000000F0H   SFRSYM    DATA     BYTE      B
      000000C8H.0 SFRSYM    DATA     BIT       CP_RL2
      000000E0H   SFRSYM    DATA     BYTE      ACC
      000000A8H.1 SFRSYM    DATA     BIT       ET0
      000000A8H.3 SFRSYM    DATA     BIT       ET1
      00000088H.5 SFRSYM    DATA     BIT       TF0
      000000A8H.5 SFRSYM    DATA     BIT       ET2
      00000088H.7 SFRSYM    DATA     BIT       TF1
      000000C8H.7 SFRSYM    DATA     BIT       TF2
      00000098H.2 SFRSYM    DATA     BIT       RB8
      0000008CH   SFRSYM    DATA     BYTE      TH0
      000000A8H.0 SFRSYM    DATA     BIT       EX0
      00000088H.0 SFRSYM    DATA     BIT       IT0
      0000008DH   SFRSYM    DATA     BYTE      TH1
      00000098H.3 SFRSYM    DATA     BIT       TB8
      000000A8H.2 SFRSYM    DATA     BIT       EX1
      00000088H.2 SFRSYM    DATA     BIT       IT1
      000000CDH   SFRSYM    DATA     BYTE      TH2
      000000D0H.0 SFRSYM    DATA     BIT       P
      00000098H.7 SFRSYM    DATA     BIT       SM0
      0000008AH   SFRSYM    DATA     BYTE      TL0
      00000098H.6 SFRSYM    DATA     BIT       SM1
      0000008BH   SFRSYM    DATA     BYTE      TL1
      00000098H.5 SFRSYM    DATA     BIT       SM2
      000000CCH   SFRSYM    DATA     BYTE      TL2
      000000B8H.1 SFRSYM    DATA     BIT       PT0
      000000B8H.3 SFRSYM    DATA     BIT       PT1
      000000D0H.3 SFRSYM    DATA     BIT       RS0
      000000E7H   SFRSYM    DATA     BYTE      ISP_CONTR
      000000B8H.5 SFRSYM    DATA     BIT       PT2
      00000088H.4 SFRSYM    DATA     BIT       TR0
      000000D0H.4 SFRSYM    DATA     BIT       RS1
      00000088H.6 SFRSYM    DATA     BIT       TR1
      000000C8H.2 SFRSYM    DATA     BIT       TR2
      000000B8H.0 SFRSYM    DATA     BIT       PX0
      000000E1H   SFRSYM    DATA     BYTE      WDT_CONTR
      000000B8H.2 SFRSYM    DATA     BIT       PX1
      00000083H   SFRSYM    DATA     BYTE      DPH
      00000082H   SFRSYM    DATA     BYTE      DPL
      000000B7H   SFRSYM    DATA     BYTE      IPH
LX51 LINKER/LOCATER V4.66.87.0                                                        06/04/2018  21:13:51  PAGE 80


      000000C8H.3 SFRSYM    DATA     BIT       EXEN2
      00000098H.4 SFRSYM    DATA     BIT       REN
      000000C9H   SFRSYM    DATA     BYTE      T2MOD
      000000C8H   SFRSYM    DATA     BYTE      T2CON
      000000E2H   SFRSYM    DATA     BYTE      ISP_DATA
      000000B9H   SFRSYM    DATA     BYTE      SADEN
      000000B0H.0 SFRSYM    DATA     BIT       RXD
      000000A9H   SFRSYM    DATA     BYTE      SADDR
      000000B0H.1 SFRSYM    DATA     BIT       TXD
      000000A2H   SFRSYM    DATA     BYTE      AUXR1
      000000D0H.5 SFRSYM    DATA     BIT       F0
      000000D0H   SFRSYM    DATA     BYTE      PSW
      0100A868H   SYMBOL    CONST    ---       rtc_alarm_mode_str
      0100A88CH   SYMBOL    CONST    ---       rtc_square_rate_str
      01008BF7H   SYMBOL    CODE     ---       __rtc_get_min_sec
      0100642BH   SYMBOL    CODE     ---       rtc_dump_raw
      01007187H   SYMBOL    CODE     ---       __rtc_set_min_sec
      00000024H.7 SYMBOL    BIT      BIT       is_lt_timer_mode
      01008C57H   SYMBOL    CODE     ---       __rtc_get_hour_12
      020000C4H   SYMBOL    XDATA    BYTE      last_read
      01007431H   SYMBOL    CODE     ---       _rtc_set_hour_12
      020000C5H   SYMBOL    XDATA    ---       rtc_data
      0100000EH   SYMBOL    CODE     ---       __rtc_get_date
      010071B3H   SYMBOL    CODE     ---       __rtc_set_date
      0100764DH   SYMBOL    CODE     ---       __rtc_get_hour
      0100673EH   SYMBOL    CODE     ---       __rtc_set_hour

      01003872H   BLOCK     CODE     ---       LVL=0
      ---         BLOCKEND  ---      ---       LVL=0

      0100642BH   BLOCK     CODE     ---       LVL=0
      0100642BH   BLOCK     CODE     NEAR LAB  LVL=1
      02000002H   SYMBOL    XDATA    BYTE      addr
      02000003H   SYMBOL    XDATA    BYTE      c
      ---         BLOCKEND  ---      ---       LVL=1
      0100642BH   LINE      CODE     ---       #54
      0100642BH   LINE      CODE     ---       #55
      0100642BH   LINE      CODE     ---       #58
      01006434H   LINE      CODE     ---       #59
      01006443H   LINE      CODE     ---       #60
      0100644EH   LINE      CODE     ---       #61
      01006467H   LINE      CODE     ---       #62
      0100646FH   LINE      CODE     ---       #63
      ---         BLOCKEND  ---      ---       LVL=0

      010011B2H   BLOCK     CODE     ---       LVL=0
      010011B2H   LINE      CODE     ---       #65
      010011B2H   LINE      CODE     ---       #66
      010011B2H   LINE      CODE     ---       #67
      010011B7H   LINE      CODE     ---       #68
      010011E9H   LINE      CODE     ---       #73
      010011EEH   LINE      CODE     ---       #74
      0100122FH   LINE      CODE     ---       #79
      01001231H   LINE      CODE     ---       #80
      01001238H   LINE      CODE     ---       #81
      01001238H   LINE      CODE     ---       #82
      01001238H   LINE      CODE     ---       #83
      01001238H   LINE      CODE     ---       #84
      01001242H   LINE      CODE     ---       #85
      0100124FH   LINE      CODE     ---       #86
      0100126AH   LINE      CODE     ---       #88
      0100126CH   LINE      CODE     ---       #89
      01001273H   LINE      CODE     ---       #90
      01001273H   LINE      CODE     ---       #91
      01001273H   LINE      CODE     ---       #92
LX51 LINKER/LOCATER V4.66.87.0                                                        06/04/2018  21:13:51  PAGE 81


      01001273H   LINE      CODE     ---       #93
      0100127DH   LINE      CODE     ---       #94
      01001298H   LINE      CODE     ---       #96
      0100129DH   LINE      CODE     ---       #97
      010012A6H   LINE      CODE     ---       #98
      010012C3H   LINE      CODE     ---       #99
      010012E0H   LINE      CODE     ---       #100
      010012FDH   LINE      CODE     ---       #101
      0100131AH   LINE      CODE     ---       #102
      0100132DH   LINE      CODE     ---       #103
      01001340H   LINE      CODE     ---       #104
      01001353H   LINE      CODE     ---       #105
      01001360H   LINE      CODE     ---       #106
      01001373H   LINE      CODE     ---       #107
      01001386H   LINE      CODE     ---       #108
      01001399H   LINE      CODE     ---       #109
      010013ACH   LINE      CODE     ---       #110
      ---         BLOCKEND  ---      ---       LVL=0

      01008D2DH   BLOCK     CODE     ---       LVL=0
      01008D2DH   LINE      CODE     ---       #112
      01008D2DH   LINE      CODE     ---       #113
      01008D2DH   LINE      CODE     ---       #114
      01008D2FH   LINE      CODE     ---       #115
      ---         BLOCKEND  ---      ---       LVL=0

      01000006H   BLOCK     CODE     ---       LVL=0
      00000020H.0 SYMBOL    BIT      BIT       enable
      01000006H   LINE      CODE     ---       #117
      01000006H   LINE      CODE     ---       #118
      01000006H   LINE      CODE     ---       #119
      0100000AH   LINE      CODE     ---       #120
      ---         BLOCKEND  ---      ---       LVL=0

      010085D9H   BLOCK     CODE     ---       LVL=0
      010085D9H   LINE      CODE     ---       #122
      010085D9H   LINE      CODE     ---       #123
      010085D9H   LINE      CODE     ---       #124
      010085E2H   LINE      CODE     ---       #126
      010085E5H   LINE      CODE     ---       #127
      010085E8H   LINE      CODE     ---       #128
      010085E8H   LINE      CODE     ---       #129
      010085EBH   LINE      CODE     ---       #130
      010085EBH   LINE      CODE     ---       #131
      ---         BLOCKEND  ---      ---       LVL=0

      01002FB2H   BLOCK     CODE     ---       LVL=0
      01002FB2H   BLOCK     CODE     NEAR LAB  LVL=1
      02000000H   SYMBOL    XDATA    BYTE      count
      02000001H   SYMBOL    XDATA    BYTE      is12
      ---         BLOCKEND  ---      ---       LVL=1
      01002FB2H   LINE      CODE     ---       #133
      01002FB2H   LINE      CODE     ---       #134
      01002FB2H   LINE      CODE     ---       #138
      01002FBBH   LINE      CODE     ---       #140
      01002FC4H   LINE      CODE     ---       #141
      01002FC7H   LINE      CODE     ---       #142
      01002FCAH   LINE      CODE     ---       #144
      01002FCCH   LINE      CODE     ---       #146
      01002FD8H   LINE      CODE     ---       #149
      01002FE2H   LINE      CODE     ---       #151
      01002FE5H   LINE      CODE     ---       #152
      01002FEAH   LINE      CODE     ---       #155
      01002FF2H   LINE      CODE     ---       #156
      01002FFBH   LINE      CODE     ---       #157
LX51 LINKER/LOCATER V4.66.87.0                                                        06/04/2018  21:13:51  PAGE 82


      01003003H   LINE      CODE     ---       #160
      01003003H   LINE      CODE     ---       #161
      01003003H   LINE      CODE     ---       #162
      01003006H   LINE      CODE     ---       #165
      0100300BH   LINE      CODE     ---       #166
      0100300BH   LINE      CODE     ---       #167
      0100300BH   LINE      CODE     ---       #168
      0100300EH   LINE      CODE     ---       #169
      0100300EH   LINE      CODE     ---       #170
      01003013H   LINE      CODE     ---       #173
      01003018H   LINE      CODE     ---       #176
      01003018H   LINE      CODE     ---       #177
      01003018H   LINE      CODE     ---       #178
      0100301BH   LINE      CODE     ---       #181
      01003020H   LINE      CODE     ---       #182
      01003020H   LINE      CODE     ---       #183
      01003020H   LINE      CODE     ---       #184
      01003023H   LINE      CODE     ---       #185
      01003023H   LINE      CODE     ---       #187
      01003043H   LINE      CODE     ---       #192
      01003048H   LINE      CODE     ---       #195
      0100304DH   LINE      CODE     ---       #196
      01003054H   LINE      CODE     ---       #197
      01003059H   LINE      CODE     ---       #198
      01003060H   LINE      CODE     ---       #199
      01003065H   LINE      CODE     ---       #201
      0100306AH   LINE      CODE     ---       #203
      0100306FH   LINE      CODE     ---       #204
      01003074H   LINE      CODE     ---       #206
      0100307DH   LINE      CODE     ---       #207
      01003080H   LINE      CODE     ---       #208
      01003083H   LINE      CODE     ---       #209
      ---         BLOCKEND  ---      ---       LVL=0

      01005A28H   BLOCK     CODE     ---       LVL=0
      00000007H   SYMBOL    DATA     BYTE      type
      01005A28H   BLOCK     CODE     NEAR LAB  LVL=1
      02000017H   SYMBOL    XDATA    BYTE      offset
      ---         BLOCKEND  ---      ---       LVL=1
      01005A28H   LINE      CODE     ---       #212
      01005A28H   LINE      CODE     ---       #213
      01005A28H   LINE      CODE     ---       #215
      01005A3CH   LINE      CODE     ---       #216
      01005A3CH   LINE      CODE     ---       #217
      01005A43H   LINE      CODE     ---       #218
      01005A43H   LINE      CODE     ---       #219
      01005A4BH   LINE      CODE     ---       #220
      01005A4BH   LINE      CODE     ---       #221
      01005A53H   LINE      CODE     ---       #222
      01005A53H   LINE      CODE     ---       #223
      01005A5BH   LINE      CODE     ---       #224
      01005A5BH   LINE      CODE     ---       #225
      01005A63H   LINE      CODE     ---       #226
      01005A63H   LINE      CODE     ---       #227
      01005A69H   LINE      CODE     ---       #228
      01005A69H   LINE      CODE     ---       #230
      01005A6EH   LINE      CODE     ---       #232
      ---         BLOCKEND  ---      ---       LVL=0

      01005B8AH   BLOCK     CODE     ---       LVL=0
      00000007H   SYMBOL    DATA     BYTE      type
      01005B8AH   BLOCK     CODE     NEAR LAB  LVL=1
      02000017H   SYMBOL    XDATA    BYTE      offset
      ---         BLOCKEND  ---      ---       LVL=1
      01005B8AH   LINE      CODE     ---       #236
LX51 LINKER/LOCATER V4.66.87.0                                                        06/04/2018  21:13:51  PAGE 83


      01005B8AH   LINE      CODE     ---       #237
      01005B8AH   LINE      CODE     ---       #239
      01005B9EH   LINE      CODE     ---       #240
      01005B9EH   LINE      CODE     ---       #241
      01005BA5H   LINE      CODE     ---       #242
      01005BA5H   LINE      CODE     ---       #243
      01005BADH   LINE      CODE     ---       #244
      01005BADH   LINE      CODE     ---       #245
      01005BB5H   LINE      CODE     ---       #246
      01005BB5H   LINE      CODE     ---       #247
      01005BBDH   LINE      CODE     ---       #248
      01005BBDH   LINE      CODE     ---       #249
      01005BC5H   LINE      CODE     ---       #250
      01005BC5H   LINE      CODE     ---       #251
      01005BCBH   LINE      CODE     ---       #252
      01005BCBH   LINE      CODE     ---       #253
      01005BCEH   LINE      CODE     ---       #254
      ---         BLOCKEND  ---      ---       LVL=0

      0100764DH   BLOCK     CODE     ---       LVL=0
      00000007H   SYMBOL    DATA     BYTE      hour
      0100764DH   BLOCK     CODE     NEAR LAB  LVL=1
      00000006H   SYMBOL    DATA     BYTE      ret
      ---         BLOCKEND  ---      ---       LVL=1
      0100764DH   LINE      CODE     ---       #257
      0100764DH   LINE      CODE     ---       #258
      0100764DH   LINE      CODE     ---       #260
      01007651H   LINE      CODE     ---       #261
      01007660H   LINE      CODE     ---       #262
      01007664H   LINE      CODE     ---       #263
      01007668H   LINE      CODE     ---       #264
      01007668H   LINE      CODE     ---       #265
      0100766AH   LINE      CODE     ---       #266
      0100766EH   LINE      CODE     ---       #267
      0100766EH   LINE      CODE     ---       #268
      01007670H   LINE      CODE     ---       #269
      ---         BLOCKEND  ---      ---       LVL=0

      0100673EH   BLOCK     CODE     ---       LVL=0
      00000007H   SYMBOL    DATA     BYTE      hour
      0200001AH   SYMBOL    XDATA    ---       dat
      0100673EH   LINE      CODE     ---       #272
      01006744H   LINE      CODE     ---       #273
      01006744H   LINE      CODE     ---       #274
      0100674BH   LINE      CODE     ---       #275
      01006751H   LINE      CODE     ---       #276
      01006757H   LINE      CODE     ---       #277
      0100675BH   LINE      CODE     ---       #278
      0100675DH   LINE      CODE     ---       #279
      01006765H   LINE      CODE     ---       #280
      01006765H   LINE      CODE     ---       #281
      01006765H   LINE      CODE     ---       #282
      01006765H   LINE      CODE     ---       #283
      0100676AH   LINE      CODE     ---       #284
      0100676AH   LINE      CODE     ---       #285
      0100676CH   LINE      CODE     ---       #287
      0100676CH   LINE      CODE     ---       #288
      0100676CH   LINE      CODE     ---       #289
      01006771H   LINE      CODE     ---       #290
      0100677BH   LINE      CODE     ---       #291
      0100677BH   LINE      CODE     ---       #292
      ---         BLOCKEND  ---      ---       LVL=0

      01007431H   BLOCK     CODE     ---       LVL=0
      00000020H.2 SYMBOL    BIT      BIT       enable
LX51 LINKER/LOCATER V4.66.87.0                                                        06/04/2018  21:13:51  PAGE 84


      02000017H   SYMBOL    XDATA    ---       dat
      01007431H   BLOCK     CODE     NEAR LAB  LVL=1
      00000007H   SYMBOL    DATA     BYTE      hour
      ---         BLOCKEND  ---      ---       LVL=1
      01007431H   LINE      CODE     ---       #294
      01007431H   LINE      CODE     ---       #295
      01007431H   LINE      CODE     ---       #297
      0100743BH   LINE      CODE     ---       #298
      01007441H   LINE      CODE     ---       #299
      01007446H   LINE      CODE     ---       #300
      01007448H   LINE      CODE     ---       #301
      01007450H   LINE      CODE     ---       #302
      01007450H   LINE      CODE     ---       #303
      ---         BLOCKEND  ---      ---       LVL=0

      01008C57H   BLOCK     CODE     ---       LVL=0
      00000007H   SYMBOL    DATA     BYTE      hour
      01008C57H   LINE      CODE     ---       #306
      01008C57H   LINE      CODE     ---       #307
      01008C57H   LINE      CODE     ---       #308
      01008C5DH   LINE      CODE     ---       #309
      ---         BLOCKEND  ---      ---       LVL=0

      01008BF7H   BLOCK     CODE     ---       LVL=0
      00000007H   SYMBOL    DATA     BYTE      min
      01008BF7H   LINE      CODE     ---       #311
      01008BF7H   LINE      CODE     ---       #312
      01008BF7H   LINE      CODE     ---       #313
      01008BFEH   LINE      CODE     ---       #314
      ---         BLOCKEND  ---      ---       LVL=0

      01007187H   BLOCK     CODE     ---       LVL=0
      00000007H   SYMBOL    DATA     BYTE      min
      02000017H   SYMBOL    XDATA    ---       dat
      01007187H   LINE      CODE     ---       #316
      0100718DH   LINE      CODE     ---       #317
      0100718DH   LINE      CODE     ---       #318
      01007195H   LINE      CODE     ---       #319
      0100719EH   LINE      CODE     ---       #320
      010071A6H   LINE      CODE     ---       #321
      ---         BLOCKEND  ---      ---       LVL=0

      01008BFFH   BLOCK     CODE     ---       LVL=0
      01008BFFH   LINE      CODE     ---       #326
      01008BFFH   LINE      CODE     ---       #327
      01008BFFH   LINE      CODE     ---       #328
      ---         BLOCKEND  ---      ---       LVL=0

      01008C65H   BLOCK     CODE     ---       LVL=0
      00000007H   SYMBOL    DATA     BYTE      hour
      01008C65H   LINE      CODE     ---       #333
      01008C65H   LINE      CODE     ---       #334
      01008C65H   LINE      CODE     ---       #335
      ---         BLOCKEND  ---      ---       LVL=0

      01008797H   BLOCK     CODE     ---       LVL=0
      00000020H.1 SYMBOL    BIT      BIT       enable
      01008797H   LINE      CODE     ---       #338
      01008797H   LINE      CODE     ---       #339
      01008797H   LINE      CODE     ---       #340
      ---         BLOCKEND  ---      ---       LVL=0

      01008C07H   BLOCK     CODE     ---       LVL=0
      01008C07H   LINE      CODE     ---       #343
      01008C07H   LINE      CODE     ---       #344
LX51 LINKER/LOCATER V4.66.87.0                                                        06/04/2018  21:13:51  PAGE 85


      01008C07H   LINE      CODE     ---       #345
      ---         BLOCKEND  ---      ---       LVL=0

      01008C0FH   BLOCK     CODE     ---       LVL=0
      01008C0FH   LINE      CODE     ---       #348
      01008C0FH   LINE      CODE     ---       #349
      01008C0FH   LINE      CODE     ---       #350
      ---         BLOCKEND  ---      ---       LVL=0

      01008B3AH   BLOCK     CODE     ---       LVL=0
      00000007H   SYMBOL    DATA     BYTE      min
      01008B3AH   LINE      CODE     ---       #353
      01008B3AH   LINE      CODE     ---       #354
      01008B3AH   LINE      CODE     ---       #355
      ---         BLOCKEND  ---      ---       LVL=0

      01008C17H   BLOCK     CODE     ---       LVL=0
      01008C17H   LINE      CODE     ---       #358
      01008C17H   LINE      CODE     ---       #359
      01008C17H   LINE      CODE     ---       #360
      ---         BLOCKEND  ---      ---       LVL=0

      01008C6BH   BLOCK     CODE     ---       LVL=0
      00000007H   SYMBOL    DATA     BYTE      sec
      01008C6BH   LINE      CODE     ---       #363
      01008C6BH   LINE      CODE     ---       #364
      01008C6BH   LINE      CODE     ---       #365
      ---         BLOCKEND  ---      ---       LVL=0

      010089A5H   BLOCK     CODE     ---       LVL=0
      010089A5H   LINE      CODE     ---       #369
      010089A5H   LINE      CODE     ---       #370
      010089A5H   LINE      CODE     ---       #371
      010089B0H   LINE      CODE     ---       #372
      ---         BLOCKEND  ---      ---       LVL=0

      01008C1FH   BLOCK     CODE     ---       LVL=0
      00000007H   SYMBOL    DATA     BYTE      year
      01008C1FH   LINE      CODE     ---       #374
      01008C1FH   LINE      CODE     ---       #375
      01008C1FH   LINE      CODE     ---       #376
      01008C22H   LINE      CODE     ---       #377
      01008C22H   LINE      CODE     ---       #378
      01008C22H   LINE      CODE     ---       #379
      01008C26H   LINE      CODE     ---       #380
      ---         BLOCKEND  ---      ---       LVL=0

      010089B1H   BLOCK     CODE     ---       LVL=0
      010089B1H   LINE      CODE     ---       #382
      010089B1H   LINE      CODE     ---       #383
      010089B1H   LINE      CODE     ---       #384
      010089BCH   LINE      CODE     ---       #385
      ---         BLOCKEND  ---      ---       LVL=0

      01008C27H   BLOCK     CODE     ---       LVL=0
      00000007H   SYMBOL    DATA     BYTE      month
      01008C27H   LINE      CODE     ---       #387
      01008C27H   LINE      CODE     ---       #388
      01008C27H   LINE      CODE     ---       #389
      01008C2AH   LINE      CODE     ---       #390
      01008C2AH   LINE      CODE     ---       #391
      01008C2AH   LINE      CODE     ---       #392
      01008C2EH   LINE      CODE     ---       #393
      ---         BLOCKEND  ---      ---       LVL=0

LX51 LINKER/LOCATER V4.66.87.0                                                        06/04/2018  21:13:51  PAGE 86


      0100000EH   BLOCK     CODE     ---       LVL=0
      00000007H   SYMBOL    DATA     BYTE      date
      0100000EH   LINE      CODE     ---       #395
      0100000EH   LINE      CODE     ---       #396
      0100000EH   LINE      CODE     ---       #397
      01000012H   LINE      CODE     ---       #398
      ---         BLOCKEND  ---      ---       LVL=0

      010071B3H   BLOCK     CODE     ---       LVL=0
      00000007H   SYMBOL    DATA     BYTE      date
      02000019H   SYMBOL    XDATA    ---       dat
      010071B3H   LINE      CODE     ---       #400
      010071B9H   LINE      CODE     ---       #401
      010071B9H   LINE      CODE     ---       #402
      010071C1H   LINE      CODE     ---       #403
      010071CAH   LINE      CODE     ---       #404
      010071D2H   LINE      CODE     ---       #405
      ---         BLOCKEND  ---      ---       LVL=0

      01008C2FH   BLOCK     CODE     ---       LVL=0
      01008C2FH   LINE      CODE     ---       #408
      01008C2FH   LINE      CODE     ---       #409
      01008C2FH   LINE      CODE     ---       #410
      ---         BLOCKEND  ---      ---       LVL=0

      01004049H   BLOCK     CODE     ---       LVL=0
      02000017H   SYMBOL    XDATA    BYTE      date
      0100404EH   BLOCK     CODE     NEAR LAB  LVL=1
      02000018H   SYMBOL    XDATA    CHAR      mon
      ---         BLOCKEND  ---      ---       LVL=1
      01004049H   LINE      CODE     ---       #414
      0100404EH   LINE      CODE     ---       #415
      0100404EH   LINE      CODE     ---       #416
      01004056H   LINE      CODE     ---       #418
      0100405FH   LINE      CODE     ---       #419
      01004085H   LINE      CODE     ---       #420
      01004085H   LINE      CODE     ---       #421
      01004090H   LINE      CODE     ---       #422
      01004090H   LINE      CODE     ---       #423
      0100409BH   LINE      CODE     ---       #424
      010040AAH   LINE      CODE     ---       #425
      010040B4H   LINE      CODE     ---       #426
      010040C3H   LINE      CODE     ---       #427
      010040CEH   LINE      CODE     ---       #428
      010040CEH   LINE      CODE     ---       #429
      010040CEH   LINE      CODE     ---       #431
      010040D7H   LINE      CODE     ---       #432
      010040E5H   LINE      CODE     ---       #434
      010040E6H   LINE      CODE     ---       #435
      ---         BLOCKEND  ---      ---       LVL=0

      01008C71H   BLOCK     CODE     ---       LVL=0
      01008C71H   LINE      CODE     ---       #437
      01008C71H   LINE      CODE     ---       #438
      01008C71H   LINE      CODE     ---       #439
      01008C76H   LINE      CODE     ---       #440
      ---         BLOCKEND  ---      ---       LVL=0

      01008638H   BLOCK     CODE     ---       LVL=0
      00000007H   SYMBOL    DATA     BYTE      day
      01008638H   LINE      CODE     ---       #442
      01008638H   LINE      CODE     ---       #443
      01008638H   LINE      CODE     ---       #444
      01008644H   LINE      CODE     ---       #445
      01008649H   LINE      CODE     ---       #446
LX51 LINKER/LOCATER V4.66.87.0                                                        06/04/2018  21:13:51  PAGE 87


      01008649H   LINE      CODE     ---       #447
      ---         BLOCKEND  ---      ---       LVL=0

      010082EBH   BLOCK     CODE     ---       LVL=0
      010082EBH   LINE      CODE     ---       #450
      010082EBH   LINE      CODE     ---       #451
      010082EBH   LINE      CODE     ---       #452
      ---         BLOCKEND  ---      ---       LVL=0

      01008301H   BLOCK     CODE     ---       LVL=0
      01008301H   LINE      CODE     ---       #455
      01008301H   LINE      CODE     ---       #456
      01008301H   LINE      CODE     ---       #457
      ---         BLOCKEND  ---      ---       LVL=0

      01007B41H   BLOCK     CODE     ---       LVL=0
      00000020H.0 SYMBOL    BIT      BIT       enable
      01007B41H   LINE      CODE     ---       #460
      01007B41H   LINE      CODE     ---       #461
      01007B41H   LINE      CODE     ---       #462
      ---         BLOCKEND  ---      ---       LVL=0

      010085ECH   BLOCK     CODE     ---       LVL=0
      00000007H   SYMBOL    DATA     BYTE      hour
      010085ECH   LINE      CODE     ---       #465
      010085ECH   LINE      CODE     ---       #466
      010085ECH   LINE      CODE     ---       #467
      ---         BLOCKEND  ---      ---       LVL=0

      01008317H   BLOCK     CODE     ---       LVL=0
      01008317H   LINE      CODE     ---       #470
      01008317H   LINE      CODE     ---       #471
      01008317H   LINE      CODE     ---       #472
      ---         BLOCKEND  ---      ---       LVL=0

      010085FFH   BLOCK     CODE     ---       LVL=0
      00000007H   SYMBOL    DATA     BYTE      min
      010085FFH   LINE      CODE     ---       #475
      010085FFH   LINE      CODE     ---       #476
      010085FFH   LINE      CODE     ---       #477
      ---         BLOCKEND  ---      ---       LVL=0

      0100849AH   BLOCK     CODE     ---       LVL=0
      0100849AH   LINE      CODE     ---       #480
      0100849AH   LINE      CODE     ---       #481
      0100849AH   LINE      CODE     ---       #482
      010084ADH   LINE      CODE     ---       #483
      ---         BLOCKEND  ---      ---       LVL=0

      0100832DH   BLOCK     CODE     ---       LVL=0
      00000007H   SYMBOL    DATA     BYTE      day
      0100832DH   LINE      CODE     ---       #485
      0100832DH   LINE      CODE     ---       #486
      0100832DH   LINE      CODE     ---       #487
      01008334H   LINE      CODE     ---       #488
      01008337H   LINE      CODE     ---       #489
      01008337H   LINE      CODE     ---       #490
      01008339H   LINE      CODE     ---       #491
      01008340H   LINE      CODE     ---       #492
      01008342H   LINE      CODE     ---       #493
      01008342H   LINE      CODE     ---       #494
      ---         BLOCKEND  ---      ---       LVL=0

      010083F3H   BLOCK     CODE     ---       LVL=0
      010083F3H   LINE      CODE     ---       #496
LX51 LINKER/LOCATER V4.66.87.0                                                        06/04/2018  21:13:51  PAGE 88


      010083F3H   LINE      CODE     ---       #497
      010083F3H   LINE      CODE     ---       #498
      01008407H   LINE      CODE     ---       #500
      ---         BLOCKEND  ---      ---       LVL=0

      01007F50H   BLOCK     CODE     ---       LVL=0
      00000006H   SYMBOL    DATA     BYTE      date
      01007F50H   LINE      CODE     ---       #502
      01007F52H   LINE      CODE     ---       #503
      01007F52H   LINE      CODE     ---       #504
      01007F69H   LINE      CODE     ---       #506
      ---         BLOCKEND  ---      ---       LVL=0

      010084AEH   BLOCK     CODE     ---       LVL=0
      010084AEH   LINE      CODE     ---       #508
      010084AEH   LINE      CODE     ---       #509
      010084AEH   LINE      CODE     ---       #510
      010084B5H   LINE      CODE     ---       #511
      010084BFH   LINE      CODE     ---       #512
      010084BFH   LINE      CODE     ---       #513
      010084C1H   LINE      CODE     ---       #514
      ---         BLOCKEND  ---      ---       LVL=0

      01008343H   BLOCK     CODE     ---       LVL=0
      00000007H   SYMBOL    DATA     BYTE      sec
      01008343H   LINE      CODE     ---       #517
      01008343H   LINE      CODE     ---       #518
      01008343H   LINE      CODE     ---       #519
      01008348H   LINE      CODE     ---       #520
      0100834EH   LINE      CODE     ---       #521
      01008352H   LINE      CODE     ---       #522
      01008354H   LINE      CODE     ---       #523
      01008358H   LINE      CODE     ---       #524
      01008358H   LINE      CODE     ---       #525
      ---         BLOCKEND  ---      ---       LVL=0

      010036DFH   BLOCK     CODE     ---       LVL=0
      010036DFH   BLOCK     CODE     NEAR LAB  LVL=1
      00000003H   SYMBOL    DATA     BYTE      dy
      00000007H   SYMBOL    DATA     BYTE      a1m1
      00000004H   SYMBOL    DATA     BYTE      a1m2
      00000005H   SYMBOL    DATA     BYTE      a1m3
      00000006H   SYMBOL    DATA     BYTE      a1m4
      ---         BLOCKEND  ---      ---       LVL=1
      010036DFH   LINE      CODE     ---       #541
      010036DFH   LINE      CODE     ---       #542
      010036DFH   LINE      CODE     ---       #544
      010036E4H   LINE      CODE     ---       #545
      010036E9H   LINE      CODE     ---       #546
      010036EDH   LINE      CODE     ---       #547
      010036F2H   LINE      CODE     ---       #548
      010036F7H   LINE      CODE     ---       #549
      010036FBH   LINE      CODE     ---       #550
      01003707H   LINE      CODE     ---       #551
      0100370AH   LINE      CODE     ---       #552
      01003716H   LINE      CODE     ---       #553
      01003719H   LINE      CODE     ---       #554
      01003725H   LINE      CODE     ---       #555
      01003728H   LINE      CODE     ---       #556
      01003734H   LINE      CODE     ---       #557
      01003737H   LINE      CODE     ---       #558
      01003746H   LINE      CODE     ---       #559
      01003749H   LINE      CODE     ---       #560
      01003749H   LINE      CODE     ---       #561
      0100374CH   LINE      CODE     ---       #562
LX51 LINKER/LOCATER V4.66.87.0                                                        06/04/2018  21:13:51  PAGE 89


      0100374CH   LINE      CODE     ---       #563
      01003754H   LINE      CODE     ---       #564
      01003759H   LINE      CODE     ---       #565
      0100375DH   LINE      CODE     ---       #566
      01003762H   LINE      CODE     ---       #567
      01003766H   LINE      CODE     ---       #568
      0100376FH   LINE      CODE     ---       #569
      01003772H   LINE      CODE     ---       #570
      0100377BH   LINE      CODE     ---       #571
      0100377EH   LINE      CODE     ---       #572
      01003787H   LINE      CODE     ---       #573
      0100378AH   LINE      CODE     ---       #574
      01003793H   LINE      CODE     ---       #575
      01003796H   LINE      CODE     ---       #576
      010037A2H   LINE      CODE     ---       #577
      010037A5H   LINE      CODE     ---       #578
      010037A5H   LINE      CODE     ---       #579
      010037A8H   LINE      CODE     ---       #580
      010037A8H   LINE      CODE     ---       #581
      010037A8H   LINE      CODE     ---       #582
      010037AAH   LINE      CODE     ---       #583
      ---         BLOCKEND  ---      ---       LVL=0

      010046AFH   BLOCK     CODE     ---       LVL=0
      00000005H   SYMBOL    DATA     BYTE      mode
      010046AFH   LINE      CODE     ---       #584
      010046B1H   LINE      CODE     ---       #585
      010046B1H   LINE      CODE     ---       #586
      010046BCH   LINE      CODE     ---       #587
      010046BCH   LINE      CODE     ---       #588
      010046BCH   LINE      CODE     ---       #589
      010046BFH   LINE      CODE     ---       #590
      010046C4H   LINE      CODE     ---       #591
      010046C7H   LINE      CODE     ---       #592
      010046D9H   LINE      CODE     ---       #593
      010046D9H   LINE      CODE     ---       #594
      010046E0H   LINE      CODE     ---       #595
      010046E0H   LINE      CODE     ---       #596
      010046E7H   LINE      CODE     ---       #597
      010046E7H   LINE      CODE     ---       #598
      010046EEH   LINE      CODE     ---       #599
      010046EEH   LINE      CODE     ---       #600
      010046F1H   LINE      CODE     ---       #601
      010046F1H   LINE      CODE     ---       #602
      010046F3H   LINE      CODE     ---       #603
      010046F3H   LINE      CODE     ---       #604
      010046F6H   LINE      CODE     ---       #605
      010046F6H   LINE      CODE     ---       #606
      01004706H   LINE      CODE     ---       #607
      01004706H   LINE      CODE     ---       #608
      01004706H   LINE      CODE     ---       #609
      01004709H   LINE      CODE     ---       #610
      0100470CH   LINE      CODE     ---       #611
      0100471CH   LINE      CODE     ---       #612
      0100471CH   LINE      CODE     ---       #613
      01004723H   LINE      CODE     ---       #614
      01004723H   LINE      CODE     ---       #615
      0100472AH   LINE      CODE     ---       #616
      0100472AH   LINE      CODE     ---       #617
      01004731H   LINE      CODE     ---       #618
      01004731H   LINE      CODE     ---       #619
      01004732H   LINE      CODE     ---       #620
      01004732H   LINE      CODE     ---       #621
      01004739H   LINE      CODE     ---       #622
      01004739H   LINE      CODE     ---       #623
LX51 LINKER/LOCATER V4.66.87.0                                                        06/04/2018  21:13:51  PAGE 90


      01004739H   LINE      CODE     ---       #624
      ---         BLOCKEND  ---      ---       LVL=0

      010084C2H   BLOCK     CODE     ---       LVL=0
      010084C2H   LINE      CODE     ---       #626
      010084C2H   LINE      CODE     ---       #627
      010084C2H   LINE      CODE     ---       #628
      ---         BLOCKEND  ---      ---       LVL=0

      010042BAH   BLOCK     CODE     ---       LVL=0
      02000014H   SYMBOL    XDATA    ---       integer
      02000017H   SYMBOL    XDATA    ---       flt
      010042C0H   BLOCK     CODE     NEAR LAB  LVL=1
      0200001AH   SYMBOL    XDATA    FLOAT     ret
      00000020H.1 SYMBOL    BIT      BIT       sign
      ---         BLOCKEND  ---      ---       LVL=1
      010042BAH   LINE      CODE     ---       #632
      010042C0H   LINE      CODE     ---       #633
      010042C0H   LINE      CODE     ---       #634
      010042CAH   LINE      CODE     ---       #635
      010042D6H   LINE      CODE     ---       #638
      010042D9H   LINE      CODE     ---       #639
      010042DFH   LINE      CODE     ---       #640
      010042E0H   LINE      CODE     ---       #641
      010042E3H   LINE      CODE     ---       #642
      010042E6H   LINE      CODE     ---       #643
      010042E9H   LINE      CODE     ---       #644
      010042EBH   LINE      CODE     ---       #645
      010042F1H   LINE      CODE     ---       #646
      010042F1H   LINE      CODE     ---       #647
      010042F3H   LINE      CODE     ---       #648
      010042F6H   LINE      CODE     ---       #649
      010042F9H   LINE      CODE     ---       #650
      010042F9H   LINE      CODE     ---       #652
      01004308H   LINE      CODE     ---       #654
      01004312H   LINE      CODE     ---       #655
      0100431AH   LINE      CODE     ---       #656
      0100431FH   LINE      CODE     ---       #657
      01004327H   LINE      CODE     ---       #658
      0100432FH   LINE      CODE     ---       #659
      01004334H   LINE      CODE     ---       #660
      01004336H   LINE      CODE     ---       #661
      0100433DH   LINE      CODE     ---       #662
      0100433DH   LINE      CODE     ---       #664
      0100434DH   LINE      CODE     ---       #666
      0100434FH   LINE      CODE     ---       #667
      ---         BLOCKEND  ---      ---       LVL=0

      01007628H   BLOCK     CODE     ---       LVL=0
      00000007H   SYMBOL    DATA     BYTE      index
      00000020H.1 SYMBOL    BIT      BIT       enable
      01007628H   LINE      CODE     ---       #670
      01007628H   LINE      CODE     ---       #671
      01007628H   LINE      CODE     ---       #672
      0100762BH   LINE      CODE     ---       #673
      01007632H   LINE      CODE     ---       #674
      01007636H   LINE      CODE     ---       #676
      01007639H   LINE      CODE     ---       #677
      0100763EH   LINE      CODE     ---       #678
      01007645H   LINE      CODE     ---       #679
      01007649H   LINE      CODE     ---       #681
      0100764CH   LINE      CODE     ---       #682
      0100764CH   LINE      CODE     ---       #683
      ---         BLOCKEND  ---      ---       LVL=0

LX51 LINKER/LOCATER V4.66.87.0                                                        06/04/2018  21:13:51  PAGE 91


      01007B5EH   BLOCK     CODE     ---       LVL=0
      00000007H   SYMBOL    DATA     BYTE      index
      01007B5EH   LINE      CODE     ---       #685
      01007B5EH   LINE      CODE     ---       #686
      01007B5EH   LINE      CODE     ---       #687
      01007B61H   LINE      CODE     ---       #688
      01007B6BH   LINE      CODE     ---       #689
      01007B6FH   LINE      CODE     ---       #690
      01007B79H   LINE      CODE     ---       #691
      01007B79H   LINE      CODE     ---       #692
      01007B7AH   LINE      CODE     ---       #693
      ---         BLOCKEND  ---      ---       LVL=0

      01008205H   BLOCK     CODE     ---       LVL=0
      00000007H   SYMBOL    DATA     BYTE      index
      01008205H   LINE      CODE     ---       #695
      01008205H   LINE      CODE     ---       #696
      01008205H   LINE      CODE     ---       #697
      01008208H   LINE      CODE     ---       #698
      0100820FH   LINE      CODE     ---       #699
      01008214H   LINE      CODE     ---       #700
      0100821BH   LINE      CODE     ---       #701
      0100821BH   LINE      CODE     ---       #702
      ---         BLOCKEND  ---      ---       LVL=0

      01007B7BH   BLOCK     CODE     ---       LVL=0
      00000007H   SYMBOL    DATA     BYTE      index
      01007B7BH   LINE      CODE     ---       #704
      01007B7BH   LINE      CODE     ---       #705
      01007B7BH   LINE      CODE     ---       #706
      01007B7EH   LINE      CODE     ---       #707
      01007B88H   LINE      CODE     ---       #708
      01007B8CH   LINE      CODE     ---       #709
      01007B96H   LINE      CODE     ---       #710
      01007B96H   LINE      CODE     ---       #711
      01007B97H   LINE      CODE     ---       #712
      ---         BLOCKEND  ---      ---       LVL=0

      01008AB8H   BLOCK     CODE     ---       LVL=0
      01008AB8H   LINE      CODE     ---       #714
      01008AB8H   LINE      CODE     ---       #715
      01008AB8H   LINE      CODE     ---       #716
      01008AC1H   LINE      CODE     ---       #717
      ---         BLOCKEND  ---      ---       LVL=0

      010087E7H   BLOCK     CODE     ---       LVL=0
      00000024H.3 SYMBOL    BIT      BIT       val
      010087E7H   LINE      CODE     ---       #719
      010087E7H   LINE      CODE     ---       #720
      010087E7H   LINE      CODE     ---       #721
      010087EEH   LINE      CODE     ---       #722
      010087F1H   LINE      CODE     ---       #723
      010087F5H   LINE      CODE     ---       #724
      ---         BLOCKEND  ---      ---       LVL=0

      01008AC2H   BLOCK     CODE     ---       LVL=0
      01008AC2H   LINE      CODE     ---       #726
      01008AC2H   LINE      CODE     ---       #727
      01008AC2H   LINE      CODE     ---       #728
      01008ACBH   LINE      CODE     ---       #729
      ---         BLOCKEND  ---      ---       LVL=0

      010087F6H   BLOCK     CODE     ---       LVL=0
      00000024H.4 SYMBOL    BIT      BIT       val
      010087F6H   LINE      CODE     ---       #731
LX51 LINKER/LOCATER V4.66.87.0                                                        06/04/2018  21:13:51  PAGE 92


      010087F6H   LINE      CODE     ---       #732
      010087F6H   LINE      CODE     ---       #733
      010087FDH   LINE      CODE     ---       #734
      01008800H   LINE      CODE     ---       #735
      01008804H   LINE      CODE     ---       #736
      ---         BLOCKEND  ---      ---       LVL=0

      01008ACCH   BLOCK     CODE     ---       LVL=0
      01008ACCH   LINE      CODE     ---       #738
      01008ACCH   LINE      CODE     ---       #739
      01008ACCH   LINE      CODE     ---       #740
      01008AD5H   LINE      CODE     ---       #741
      ---         BLOCKEND  ---      ---       LVL=0

      01008805H   BLOCK     CODE     ---       LVL=0
      00000024H.5 SYMBOL    BIT      BIT       val
      01008805H   LINE      CODE     ---       #743
      01008805H   LINE      CODE     ---       #744
      01008805H   LINE      CODE     ---       #745
      0100880CH   LINE      CODE     ---       #746
      0100880FH   LINE      CODE     ---       #747
      01008813H   LINE      CODE     ---       #748
      ---         BLOCKEND  ---      ---       LVL=0

      0100897EH   BLOCK     CODE     ---       LVL=0
      0100897EH   LINE      CODE     ---       #750
      0100897EH   LINE      CODE     ---       #751
      0100897EH   LINE      CODE     ---       #752
      0100898AH   LINE      CODE     ---       #753
      ---         BLOCKEND  ---      ---       LVL=0

      01008721H   BLOCK     CODE     ---       LVL=0
      00000007H   SYMBOL    DATA     BYTE      rt
      01008721H   BLOCK     CODE     NEAR LAB  LVL=1
      00000007H   SYMBOL    DATA     BYTE      val
      ---         BLOCKEND  ---      ---       LVL=1
      01008721H   LINE      CODE     ---       #755
      01008721H   LINE      CODE     ---       #756
      01008721H   LINE      CODE     ---       #757
      01008721H   LINE      CODE     ---       #758
      01008729H   LINE      CODE     ---       #759
      01008731H   LINE      CODE     ---       #760
      ---         BLOCKEND  ---      ---       LVL=0

      010084D6H   BLOCK     CODE     ---       LVL=0
      010084D6H   LINE      CODE     ---       #762
      010084D6H   LINE      CODE     ---       #763
      010084D6H   LINE      CODE     ---       #764
      ---         BLOCKEND  ---      ---       LVL=0

      01008AD6H   BLOCK     CODE     ---       LVL=0
      01008AD6H   LINE      CODE     ---       #767
      01008AD6H   LINE      CODE     ---       #768
      01008AD6H   LINE      CODE     ---       #769
      01008ADFH   LINE      CODE     ---       #770
      ---         BLOCKEND  ---      ---       LVL=0

      01008814H   BLOCK     CODE     ---       LVL=0
      00000020H.0 SYMBOL    BIT      BIT       val
      01008814H   LINE      CODE     ---       #772
      01008814H   LINE      CODE     ---       #773
      01008814H   LINE      CODE     ---       #774
      0100881BH   LINE      CODE     ---       #775
      0100881EH   LINE      CODE     ---       #776
      01008822H   LINE      CODE     ---       #777
LX51 LINKER/LOCATER V4.66.87.0                                                        06/04/2018  21:13:51  PAGE 93


      ---         BLOCKEND  ---      ---       LVL=0

      01008AE0H   BLOCK     CODE     ---       LVL=0
      01008AE0H   LINE      CODE     ---       #779
      01008AE0H   LINE      CODE     ---       #780
      01008AE0H   LINE      CODE     ---       #781
      01008AE9H   LINE      CODE     ---       #782
      ---         BLOCKEND  ---      ---       LVL=0

      01008823H   BLOCK     CODE     ---       LVL=0
      00000024H.6 SYMBOL    BIT      BIT       val
      01008823H   LINE      CODE     ---       #784
      01008823H   LINE      CODE     ---       #785
      01008823H   LINE      CODE     ---       #786
      0100882AH   LINE      CODE     ---       #787
      0100882DH   LINE      CODE     ---       #788
      01008831H   LINE      CODE     ---       #789
      ---         BLOCKEND  ---      ---       LVL=0

      01008AEAH   BLOCK     CODE     ---       LVL=0
      01008AEAH   LINE      CODE     ---       #791
      01008AEAH   LINE      CODE     ---       #792
      01008AEAH   LINE      CODE     ---       #793
      01008AF3H   LINE      CODE     ---       #794
      ---         BLOCKEND  ---      ---       LVL=0

      01008832H   BLOCK     CODE     ---       LVL=0
      00000020H.0 SYMBOL    BIT      BIT       val
      01008832H   LINE      CODE     ---       #796
      01008832H   LINE      CODE     ---       #797
      01008832H   LINE      CODE     ---       #798
      01008839H   LINE      CODE     ---       #799
      0100883CH   LINE      CODE     ---       #800
      01008840H   LINE      CODE     ---       #801
      ---         BLOCKEND  ---      ---       LVL=0

      01008AF4H   BLOCK     CODE     ---       LVL=0
      01008AF4H   LINE      CODE     ---       #803
      01008AF4H   LINE      CODE     ---       #804
      01008AF4H   LINE      CODE     ---       #805
      01008AFDH   LINE      CODE     ---       #806
      ---         BLOCKEND  ---      ---       LVL=0

      010080B6H   BLOCK     CODE     ---       LVL=0
      010080B6H   LINE      CODE     ---       #808
      010080B6H   LINE      CODE     ---       #809
      010080B6H   LINE      CODE     ---       #811
      010080BFH   LINE      CODE     ---       #813
      010080C4H   LINE      CODE     ---       #814
      010080C9H   LINE      CODE     ---       #815
      ---         BLOCKEND  ---      ---       LVL=0

      010080CEH   BLOCK     CODE     ---       LVL=0
      010080CEH   LINE      CODE     ---       #819
      010080CEH   LINE      CODE     ---       #820
      010080CEH   LINE      CODE     ---       #821
      010080D7H   LINE      CODE     ---       #823
      010080DCH   LINE      CODE     ---       #824
      010080E1H   LINE      CODE     ---       #825
      ---         BLOCKEND  ---      ---       LVL=0

      ---         MODULE    ---      ---       I2C
      0100821CH   PUBLIC    CODE     ---       _I2C_Get
      0200001CH   PUBLIC    XDATA    BYTE      ?_I2C_Gets?BYTE
      010050E6H   PUBLIC    CODE     ---       _I2C_Gets
LX51 LINKER/LOCATER V4.66.87.0                                                        06/04/2018  21:13:51  PAGE 94


      010084EAH   PUBLIC    CODE     ---       _I2C_Put
      0200001AH   PUBLIC    XDATA    BYTE      ?_I2C_Puts?BYTE
      01005C8FH   PUBLIC    CODE     ---       _I2C_Puts
      00000020H.2 PUBLIC    BIT      BIT       ?I2C_PutAck?BIT
      0100864AH   PUBLIC    CODE     ---       I2C_PutAck
      0100781CH   PUBLIC    CODE     ---       I2C_GetAck
      01006FBBH   PUBLIC    CODE     ---       I2C_Read
      01007A4CH   PUBLIC    CODE     ---       _I2C_Write
      01008359H   PUBLIC    CODE     ---       I2C_Stop
      01008A34H   PUBLIC    CODE     ---       I2C_Start
      01008AFEH   PUBLIC    CODE     ---       I2C_Init
      0100873AH   PUBLIC    CODE     ---       I2C_Delay
      00000080H   SFRSYM    DATA     BYTE      P0
      00000090H   SFRSYM    DATA     BYTE      P1
      00000090H.7 SFRSYM    DATA     BIT       I2C_SCL
      000000A0H   SFRSYM    DATA     BYTE      P2
      000000B0H   SFRSYM    DATA     BYTE      P3
      000000C0H   SFRSYM    DATA     BYTE      XICON
      000000B0H.4 SFRSYM    DATA     BIT       T0
      000000D0H.6 SFRSYM    DATA     BIT       AC
      000000E8H   SFRSYM    DATA     BYTE      P4
      000000B0H.5 SFRSYM    DATA     BIT       T1
      000000E6H   SFRSYM    DATA     BYTE      ISP_TRIG
      00000090H.0 SFRSYM    DATA     BIT       T2
      000000A8H.7 SFRSYM    DATA     BIT       EA
      000000A8H.6 SFRSYM    DATA     BIT       EC
      00000098H.7 SFRSYM    DATA     BIT       FE
      000000A8H   SFRSYM    DATA     BYTE      IE
      000000C8H.6 SFRSYM    DATA     BIT       EXF2
      000000B0H.7 SFRSYM    DATA     BIT       RD
      000000A8H.4 SFRSYM    DATA     BIT       ES
      000000B8H   SFRSYM    DATA     BYTE      IP
      00000098H.0 SFRSYM    DATA     BIT       RI
      000000B0H.2 SFRSYM    DATA     BIT       INT0
      000000D0H.7 SFRSYM    DATA     BIT       CY
      00000098H.1 SFRSYM    DATA     BIT       TI
      000000B0H.3 SFRSYM    DATA     BIT       INT1
      000000CBH   SFRSYM    DATA     BYTE      RCAP2H
      000000E5H   SFRSYM    DATA     BYTE      ISP_CMD
      000000B8H.4 SFRSYM    DATA     BIT       PS
      00000081H   SFRSYM    DATA     BYTE      SP
      00000090H.1 SFRSYM    DATA     BIT       T2EX
      000000D0H.2 SFRSYM    DATA     BIT       OV
      000000CAH   SFRSYM    DATA     BYTE      RCAP2L
      000000C8H.1 SFRSYM    DATA     BIT       C_T2
      000000B0H.6 SFRSYM    DATA     BIT       WR
      000000C8H.5 SFRSYM    DATA     BIT       RCLK
      000000C8H.4 SFRSYM    DATA     BIT       TCLK
      00000080H.0 SFRSYM    DATA     BIT       P00
      00000099H   SFRSYM    DATA     BYTE      SBUF
      00000087H   SFRSYM    DATA     BYTE      PCON
      00000090H.0 SFRSYM    DATA     BIT       P10
      00000080H.1 SFRSYM    DATA     BIT       P01
      000000A0H.0 SFRSYM    DATA     BIT       P20
      00000090H.1 SFRSYM    DATA     BIT       P11
      00000080H.2 SFRSYM    DATA     BIT       P02
      000000E3H   SFRSYM    DATA     BYTE      ISP_ADDRH
      000000B0H.0 SFRSYM    DATA     BIT       P30
      000000A0H.1 SFRSYM    DATA     BIT       P21
      00000090H.2 SFRSYM    DATA     BIT       P12
      00000080H.3 SFRSYM    DATA     BIT       P03
      00000098H   SFRSYM    DATA     BYTE      SCON
      000000B0H.1 SFRSYM    DATA     BIT       P31
      000000A0H.2 SFRSYM    DATA     BIT       P22
      00000090H.3 SFRSYM    DATA     BIT       P13
LX51 LINKER/LOCATER V4.66.87.0                                                        06/04/2018  21:13:51  PAGE 95


      00000080H.4 SFRSYM    DATA     BIT       P04
      000000E8H.0 SFRSYM    DATA     BIT       P40
      00000089H   SFRSYM    DATA     BYTE      TMOD
      00000088H   SFRSYM    DATA     BYTE      TCON
      000000B0H.2 SFRSYM    DATA     BIT       P32
      000000A0H.3 SFRSYM    DATA     BIT       P23
      00000090H.4 SFRSYM    DATA     BIT       P14
      00000080H.5 SFRSYM    DATA     BIT       P05
      000000E8H.1 SFRSYM    DATA     BIT       P41
      000000B0H.3 SFRSYM    DATA     BIT       P33
      000000A0H.4 SFRSYM    DATA     BIT       P24
      00000090H.5 SFRSYM    DATA     BIT       P15
      00000080H.6 SFRSYM    DATA     BIT       P06
      000000E4H   SFRSYM    DATA     BYTE      ISP_ADDRL
      000000E8H.2 SFRSYM    DATA     BIT       P42
      000000B0H.4 SFRSYM    DATA     BIT       P34
      000000A0H.5 SFRSYM    DATA     BIT       P25
      00000090H.6 SFRSYM    DATA     BIT       P16
      00000080H.7 SFRSYM    DATA     BIT       P07
      000000E8H.3 SFRSYM    DATA     BIT       P43
      000000B0H.5 SFRSYM    DATA     BIT       P35
      000000A0H.6 SFRSYM    DATA     BIT       P26
      00000090H.7 SFRSYM    DATA     BIT       P17
      000000E8H.4 SFRSYM    DATA     BIT       P44
      000000B0H.6 SFRSYM    DATA     BIT       P36
      000000A0H.7 SFRSYM    DATA     BIT       P27
      000000E8H.5 SFRSYM    DATA     BIT       P45
      000000B0H.7 SFRSYM    DATA     BIT       P37
      000000E8H.6 SFRSYM    DATA     BIT       P46
      00000088H.1 SFRSYM    DATA     BIT       IE0
      00000088H.3 SFRSYM    DATA     BIT       IE1
      0000008EH   SFRSYM    DATA     BYTE      AUXR
      000000F0H   SFRSYM    DATA     BYTE      B
      000000C8H.0 SFRSYM    DATA     BIT       CP_RL2
      000000E0H   SFRSYM    DATA     BYTE      ACC
      000000A8H.1 SFRSYM    DATA     BIT       ET0
      000000A8H.3 SFRSYM    DATA     BIT       ET1
      00000088H.5 SFRSYM    DATA     BIT       TF0
      000000A8H.5 SFRSYM    DATA     BIT       ET2
      00000088H.7 SFRSYM    DATA     BIT       TF1
      000000C8H.7 SFRSYM    DATA     BIT       TF2
      00000098H.2 SFRSYM    DATA     BIT       RB8
      0000008CH   SFRSYM    DATA     BYTE      TH0
      000000A8H.0 SFRSYM    DATA     BIT       EX0
      00000088H.0 SFRSYM    DATA     BIT       IT0
      0000008DH   SFRSYM    DATA     BYTE      TH1
      00000098H.3 SFRSYM    DATA     BIT       TB8
      000000A8H.2 SFRSYM    DATA     BIT       EX1
      00000088H.2 SFRSYM    DATA     BIT       IT1
      000000CDH   SFRSYM    DATA     BYTE      TH2
      000000D0H.0 SFRSYM    DATA     BIT       P
      00000098H.7 SFRSYM    DATA     BIT       SM0
      0000008AH   SFRSYM    DATA     BYTE      TL0
      00000098H.6 SFRSYM    DATA     BIT       SM1
      0000008BH   SFRSYM    DATA     BYTE      TL1
      00000098H.5 SFRSYM    DATA     BIT       SM2
      000000CCH   SFRSYM    DATA     BYTE      TL2
      000000B8H.1 SFRSYM    DATA     BIT       PT0
      000000B8H.3 SFRSYM    DATA     BIT       PT1
      000000D0H.3 SFRSYM    DATA     BIT       RS0
      000000E7H   SFRSYM    DATA     BYTE      ISP_CONTR
      000000B8H.5 SFRSYM    DATA     BIT       PT2
      00000088H.4 SFRSYM    DATA     BIT       TR0
      000000D0H.4 SFRSYM    DATA     BIT       RS1
      00000088H.6 SFRSYM    DATA     BIT       TR1
LX51 LINKER/LOCATER V4.66.87.0                                                        06/04/2018  21:13:51  PAGE 96


      000000C8H.2 SFRSYM    DATA     BIT       TR2
      000000B8H.0 SFRSYM    DATA     BIT       PX0
      000000E1H   SFRSYM    DATA     BYTE      WDT_CONTR
      000000B8H.2 SFRSYM    DATA     BIT       PX1
      00000083H   SFRSYM    DATA     BYTE      DPH
      00000082H   SFRSYM    DATA     BYTE      DPL
      000000B7H   SFRSYM    DATA     BYTE      IPH
      000000C8H.3 SFRSYM    DATA     BIT       EXEN2
      00000098H.4 SFRSYM    DATA     BIT       REN
      000000C9H   SFRSYM    DATA     BYTE      T2MOD
      000000C8H   SFRSYM    DATA     BYTE      T2CON
      000000E2H   SFRSYM    DATA     BYTE      ISP_DATA
      000000B9H   SFRSYM    DATA     BYTE      SADEN
      000000B0H.0 SFRSYM    DATA     BIT       RXD
      000000A9H   SFRSYM    DATA     BYTE      SADDR
      000000B0H.1 SFRSYM    DATA     BIT       TXD
      000000A2H   SFRSYM    DATA     BYTE      AUXR1
      000000D0H.5 SFRSYM    DATA     BIT       F0
      00000090H.6 SFRSYM    DATA     BIT       I2C_SDA
      000000D0H   SFRSYM    DATA     BYTE      PSW

      01008B08H   BLOCK     CODE     ---       LVL=0
      ---         BLOCKEND  ---      ---       LVL=0

      01008732H   BLOCK     CODE     ---       LVL=0
      ---         BLOCKEND  ---      ---       LVL=0

      0100873AH   BLOCK     CODE     ---       LVL=0
      00000007H   SYMBOL    DATA     BYTE      c
      0100873AH   BLOCK     CODE     NEAR LAB  LVL=1
      00000007H   SYMBOL    DATA     BYTE      c
      ---         BLOCKEND  ---      ---       LVL=1
      0100873AH   LINE      CODE     ---       #5
      0100873AH   LINE      CODE     ---       #6
      0100873AH   LINE      CODE     ---       #8
      0100873CH   LINE      CODE     ---       #9
      01008742H   LINE      CODE     ---       #10
      ---         BLOCKEND  ---      ---       LVL=0

      01008AFEH   BLOCK     CODE     ---       LVL=0
      01008AFEH   LINE      CODE     ---       #15
      01008AFEH   LINE      CODE     ---       #16
      01008AFEH   LINE      CODE     ---       #17
      01008B00H   LINE      CODE     ---       #18
      01008B03H   LINE      CODE     ---       #19
      01008B05H   LINE      CODE     ---       #20
      ---         BLOCKEND  ---      ---       LVL=0

      01008A34H   BLOCK     CODE     ---       LVL=0
      01008A34H   LINE      CODE     ---       #24
      01008A34H   LINE      CODE     ---       #25
      01008A34H   LINE      CODE     ---       #28
      01008A34H   LINE      CODE     ---       #29
      01008A34H   LINE      CODE     ---       #30
      01008A34H   LINE      CODE     ---       #31
      01008A37H   LINE      CODE     ---       #32
      01008A39H   LINE      CODE     ---       #33
      01008A39H   LINE      CODE     ---       #34
      01008A39H   LINE      CODE     ---       #35
      01008A39H   LINE      CODE     ---       #36
      01008A3CH   LINE      CODE     ---       #37
      ---         BLOCKEND  ---      ---       LVL=0

      01008359H   BLOCK     CODE     ---       LVL=0
      01008359H   BLOCK     CODE     NEAR LAB  LVL=1
LX51 LINKER/LOCATER V4.66.87.0                                                        06/04/2018  21:13:51  PAGE 97


      00000004H   SYMBOL    DATA     WORD      t
      ---         BLOCKEND  ---      ---       LVL=1
      01008359H   LINE      CODE     ---       #40
      01008359H   LINE      CODE     ---       #41
      01008359H   LINE      CODE     ---       #42
      0100835DH   LINE      CODE     ---       #44
      0100835FH   LINE      CODE     ---       #45
      01008362H   LINE      CODE     ---       #47
      01008362H   LINE      CODE     ---       #48
      01008362H   LINE      CODE     ---       #49
      01008362H   LINE      CODE     ---       #50
      01008365H   LINE      CODE     ---       #54
      0100836EH   LINE      CODE     ---       #55
      ---         BLOCKEND  ---      ---       LVL=0

      01007A4CH   BLOCK     CODE     ---       LVL=0
      00000006H   SYMBOL    DATA     BYTE      dat
      01007A4EH   BLOCK     CODE     NEAR LAB  LVL=1
      00000005H   SYMBOL    DATA     BYTE      t
      ---         BLOCKEND  ---      ---       LVL=1
      01007A4CH   LINE      CODE     ---       #59
      01007A4EH   LINE      CODE     ---       #60
      01007A4EH   LINE      CODE     ---       #63
      01007A50H   LINE      CODE     ---       #64
      01007A50H   LINE      CODE     ---       #66
      01007A54H   LINE      CODE     ---       #67
      01007A57H   LINE      CODE     ---       #68
      01007A59H   LINE      CODE     ---       #69
      01007A5CH   LINE      CODE     ---       #70
      01007A5EH   LINE      CODE     ---       #71
      01007A61H   LINE      CODE     ---       #72
      01007A65H   LINE      CODE     ---       #73
      01007A6AH   LINE      CODE     ---       #76
      ---         BLOCKEND  ---      ---       LVL=0

      01006FBBH   BLOCK     CODE     ---       LVL=0
      01006FBBH   BLOCK     CODE     NEAR LAB  LVL=1
      00000006H   SYMBOL    DATA     BYTE      dat
      00000005H   SYMBOL    DATA     BYTE      t
      00000020H.2 SYMBOL    BIT      BIT       temp
      ---         BLOCKEND  ---      ---       LVL=1
      01006FBBH   LINE      CODE     ---       #78
      01006FBBH   LINE      CODE     ---       #79
      01006FBBH   LINE      CODE     ---       #80
      01006FBDH   LINE      CODE     ---       #83
      01006FC0H   LINE      CODE     ---       #84
      01006FC0H   LINE      CODE     ---       #85
      01006FC0H   LINE      CODE     ---       #87
      01006FC3H   LINE      CODE     ---       #89
      01006FC5H   LINE      CODE     ---       #90
      01006FC5H   LINE      CODE     ---       #91
      01006FC7H   LINE      CODE     ---       #92
      01006FCAH   LINE      CODE     ---       #93
      01006FCCH   LINE      CODE     ---       #94
      01006FCFH   LINE      CODE     ---       #95
      01006FD3H   LINE      CODE     ---       #96
      01006FD7H   LINE      CODE     ---       #97
      01006FDDH   LINE      CODE     ---       #98
      01006FE2H   LINE      CODE     ---       #100
      01006FE4H   LINE      CODE     ---       #101
      01006FE7H   LINE      CODE     ---       #103
      01006FE9H   LINE      CODE     ---       #104
      ---         BLOCKEND  ---      ---       LVL=0

      0100781CH   BLOCK     CODE     ---       LVL=0
LX51 LINKER/LOCATER V4.66.87.0                                                        06/04/2018  21:13:51  PAGE 98


      0100781CH   BLOCK     CODE     NEAR LAB  LVL=1
      00000020H.2 SYMBOL    BIT      BIT       ack
      00000006H   SYMBOL    DATA     BYTE      Error_time
      ---         BLOCKEND  ---      ---       LVL=1
      0100781CH   LINE      CODE     ---       #108
      0100781CH   LINE      CODE     ---       #109
      0100781CH   LINE      CODE     ---       #111
      0100781EH   LINE      CODE     ---       #113
      0100781EH   LINE      CODE     ---       #114
      0100781EH   LINE      CODE     ---       #115
      01007821H   LINE      CODE     ---       #116
      01007823H   LINE      CODE     ---       #117
      01007826H   LINE      CODE     ---       #119
      01007826H   LINE      CODE     ---       #120
      0100782AH   LINE      CODE     ---       #121
      0100782CH   LINE      CODE     ---       #122
      0100782CH   LINE      CODE     ---       #123
      0100782CH   LINE      CODE     ---       #124
      0100782EH   LINE      CODE     ---       #125
      01007831H   LINE      CODE     ---       #126
      01007833H   LINE      CODE     ---       #127
      01007833H   LINE      CODE     ---       #128
      01007836H   LINE      CODE     ---       #131
      01007836H   LINE      CODE     ---       #132
      01007836H   LINE      CODE     ---       #133
      01007839H   LINE      CODE     ---       #134
      0100783CH   LINE      CODE     ---       #135
      0100783DH   LINE      CODE     ---       #136
      ---         BLOCKEND  ---      ---       LVL=0

      0100864AH   BLOCK     CODE     ---       LVL=0
      00000020H.2 SYMBOL    BIT      BIT       ack
      0100864AH   LINE      CODE     ---       #138
      0100864AH   LINE      CODE     ---       #139
      0100864AH   LINE      CODE     ---       #141
      0100864EH   LINE      CODE     ---       #142
      01008651H   LINE      CODE     ---       #143
      01008653H   LINE      CODE     ---       #144
      01008653H   LINE      CODE     ---       #146
      01008653H   LINE      CODE     ---       #147
      01008653H   LINE      CODE     ---       #148
      01008656H   LINE      CODE     ---       #149
      01008659H   LINE      CODE     ---       #150
      ---         BLOCKEND  ---      ---       LVL=0

      01005C8FH   BLOCK     CODE     ---       LVL=0
      00000006H   SYMBOL    DATA     BYTE      SlaveAddr
      00000004H   SYMBOL    DATA     BYTE      SubAddr
      0200001CH   SYMBOL    XDATA    BYTE      Size
      0200001DH   SYMBOL    XDATA    ---       dat
      01005C8FH   LINE      CODE     ---       #219
      01005C98H   LINE      CODE     ---       #220
      01005C98H   LINE      CODE     ---       #222
      01005C9CH   LINE      CODE     ---       #224
      01005CA0H   LINE      CODE     ---       #226
      01005CA3H   LINE      CODE     ---       #228
      01005CA5H   LINE      CODE     ---       #229
      01005CAAH   LINE      CODE     ---       #230
      01005CAAH   LINE      CODE     ---       #231
      01005CAAH   LINE      CODE     ---       #232
      01005CACH   LINE      CODE     ---       #233
      01005CACH   LINE      CODE     ---       #235
      01005CAEH   LINE      CODE     ---       #236
      01005CB3H   LINE      CODE     ---       #237
      01005CB3H   LINE      CODE     ---       #238
LX51 LINKER/LOCATER V4.66.87.0                                                        06/04/2018  21:13:51  PAGE 99


      01005CB3H   LINE      CODE     ---       #239
      01005CB5H   LINE      CODE     ---       #240
      01005CB5H   LINE      CODE     ---       #243
      01005CB5H   LINE      CODE     ---       #244
      01005CC6H   LINE      CODE     ---       #245
      01005CCBH   LINE      CODE     ---       #246
      01005CCBH   LINE      CODE     ---       #247
      01005CCEH   LINE      CODE     ---       #248
      01005CD0H   LINE      CODE     ---       #249
      01005CD0H   LINE      CODE     ---       #250
      01005CD8H   LINE      CODE     ---       #252
      01005CDBH   LINE      CODE     ---       #253
      01005CDCH   LINE      CODE     ---       #254
      ---         BLOCKEND  ---      ---       LVL=0

      010084EAH   BLOCK     CODE     ---       LVL=0
      00000007H   SYMBOL    DATA     BYTE      SlaveAddr
      00000005H   SYMBOL    DATA     BYTE      SubAddr
      02000019H   SYMBOL    XDATA    CHAR      dat
      010084EAH   LINE      CODE     ---       #256
      010084EFH   LINE      CODE     ---       #257
      010084EFH   LINE      CODE     ---       #258
      ---         BLOCKEND  ---      ---       LVL=0

      010050E6H   BLOCK     CODE     ---       LVL=0
      00000004H   SYMBOL    DATA     BYTE      SlaveAddr
      00000001H   SYMBOL    DATA     BYTE      SubAddr
      0200001EH   SYMBOL    XDATA    BYTE      Size
      0200001FH   SYMBOL    XDATA    ---       dat
      010050E6H   LINE      CODE     ---       #262
      010050EFH   LINE      CODE     ---       #263
      010050EFH   LINE      CODE     ---       #264
      010050F3H   LINE      CODE     ---       #266
      010050F7H   LINE      CODE     ---       #268
      010050FAH   LINE      CODE     ---       #270
      010050FCH   LINE      CODE     ---       #271
      01005101H   LINE      CODE     ---       #272
      01005101H   LINE      CODE     ---       #273
      01005101H   LINE      CODE     ---       #274
      01005103H   LINE      CODE     ---       #275
      01005103H   LINE      CODE     ---       #277
      01005105H   LINE      CODE     ---       #278
      0100510AH   LINE      CODE     ---       #279
      0100510AH   LINE      CODE     ---       #280
      0100510AH   LINE      CODE     ---       #281
      0100510CH   LINE      CODE     ---       #282
      0100510CH   LINE      CODE     ---       #284
      0100510FH   LINE      CODE     ---       #286
      01005113H   LINE      CODE     ---       #287
      01005117H   LINE      CODE     ---       #288
      0100511CH   LINE      CODE     ---       #289
      0100511CH   LINE      CODE     ---       #290
      0100511FH   LINE      CODE     ---       #291
      01005121H   LINE      CODE     ---       #292
      01005121H   LINE      CODE     ---       #294
      01005121H   LINE      CODE     ---       #295
      01005121H   LINE      CODE     ---       #296
      01005132H   LINE      CODE     ---       #297
      0100513AH   LINE      CODE     ---       #298
      0100513AH   LINE      CODE     ---       #299
      0100513FH   LINE      CODE     ---       #300
      01005141H   LINE      CODE     ---       #301
      01005141H   LINE      CODE     ---       #302
      01005146H   LINE      CODE     ---       #303
      01005148H   LINE      CODE     ---       #305
LX51 LINKER/LOCATER V4.66.87.0                                                        06/04/2018  21:13:51  PAGE 100


      0100514BH   LINE      CODE     ---       #306
      0100514CH   LINE      CODE     ---       #307
      ---         BLOCKEND  ---      ---       LVL=0

      0100821CH   BLOCK     CODE     ---       LVL=0
      00000007H   SYMBOL    DATA     BYTE      SlaveAddr
      00000005H   SYMBOL    DATA     BYTE      SubAddr
      02000019H   SYMBOL    XDATA    ---       dat
      0100821CH   LINE      CODE     ---       #309
      01008222H   LINE      CODE     ---       #310
      01008222H   LINE      CODE     ---       #311
      ---         BLOCKEND  ---      ---       LVL=0

      ---         MODULE    ---      ---       KEY
      01008B4CH   PUBLIC    CODE     ---       key_leave_powersave
      01008B43H   PUBLIC    CODE     ---       key_enter_powersave
      01008039H   PUBLIC    CODE     ---       key_initialize
      01006B95H   PUBLIC    CODE     ---       _mod_set_proc
      01005FC7H   PUBLIC    CODE     ---       _set_proc
      01005F77H   PUBLIC    CODE     ---       _mod_proc
      01002AB3H   PUBLIC    CODE     ---       _scan_key_proc
      00000080H   SFRSYM    DATA     BYTE      P0
      00000090H   SFRSYM    DATA     BYTE      P1
      000000A0H   SFRSYM    DATA     BYTE      P2
      000000B0H   SFRSYM    DATA     BYTE      P3
      000000C0H   SFRSYM    DATA     BYTE      XICON
      000000B0H.4 SFRSYM    DATA     BIT       T0
      000000D0H.6 SFRSYM    DATA     BIT       AC
      000000E8H   SFRSYM    DATA     BYTE      P4
      000000B0H.5 SFRSYM    DATA     BIT       T1
      000000E6H   SFRSYM    DATA     BYTE      ISP_TRIG
      00000090H.0 SFRSYM    DATA     BIT       T2
      000000A8H.7 SFRSYM    DATA     BIT       EA
      000000A8H.6 SFRSYM    DATA     BIT       EC
      00000098H.7 SFRSYM    DATA     BIT       FE
      000000A8H   SFRSYM    DATA     BYTE      IE
      000000C8H.6 SFRSYM    DATA     BIT       EXF2
      000000B0H.7 SFRSYM    DATA     BIT       RD
      000000A8H.4 SFRSYM    DATA     BIT       ES
      000000B8H   SFRSYM    DATA     BYTE      IP
      00000098H.0 SFRSYM    DATA     BIT       RI
      000000B0H.2 SFRSYM    DATA     BIT       INT0
      000000D0H.7 SFRSYM    DATA     BIT       CY
      00000098H.1 SFRSYM    DATA     BIT       TI
      000000B0H.3 SFRSYM    DATA     BIT       INT1
      000000CBH   SFRSYM    DATA     BYTE      RCAP2H
      000000E5H   SFRSYM    DATA     BYTE      ISP_CMD
      000000B8H.4 SFRSYM    DATA     BIT       PS
      00000081H   SFRSYM    DATA     BYTE      SP
      00000090H.1 SFRSYM    DATA     BIT       T2EX
      000000D0H.2 SFRSYM    DATA     BIT       OV
      000000CAH   SFRSYM    DATA     BYTE      RCAP2L
      000000C8H.1 SFRSYM    DATA     BIT       C_T2
      000000B0H.6 SFRSYM    DATA     BIT       WR
      000000A0H.6 SFRSYM    DATA     BIT       MOD_KEY
      000000C8H.5 SFRSYM    DATA     BIT       RCLK
      000000C8H.4 SFRSYM    DATA     BIT       TCLK
      00000080H.0 SFRSYM    DATA     BIT       P00
      00000099H   SFRSYM    DATA     BYTE      SBUF
      00000087H   SFRSYM    DATA     BYTE      PCON
      00000090H.0 SFRSYM    DATA     BIT       P10
      00000080H.1 SFRSYM    DATA     BIT       P01
      000000A0H.0 SFRSYM    DATA     BIT       P20
      00000090H.1 SFRSYM    DATA     BIT       P11
      00000080H.2 SFRSYM    DATA     BIT       P02
LX51 LINKER/LOCATER V4.66.87.0                                                        06/04/2018  21:13:51  PAGE 101


      000000E3H   SFRSYM    DATA     BYTE      ISP_ADDRH
      000000B0H.0 SFRSYM    DATA     BIT       P30
      000000A0H.1 SFRSYM    DATA     BIT       P21
      00000090H.2 SFRSYM    DATA     BIT       P12
      00000080H.3 SFRSYM    DATA     BIT       P03
      00000098H   SFRSYM    DATA     BYTE      SCON
      000000B0H.1 SFRSYM    DATA     BIT       P31
      000000A0H.2 SFRSYM    DATA     BIT       P22
      00000090H.3 SFRSYM    DATA     BIT       P13
      00000080H.4 SFRSYM    DATA     BIT       P04
      000000E8H.0 SFRSYM    DATA     BIT       P40
      00000089H   SFRSYM    DATA     BYTE      TMOD
      00000088H   SFRSYM    DATA     BYTE      TCON
      000000B0H.2 SFRSYM    DATA     BIT       P32
      000000A0H.3 SFRSYM    DATA     BIT       P23
      00000090H.4 SFRSYM    DATA     BIT       P14
      00000080H.5 SFRSYM    DATA     BIT       P05
      000000E8H.1 SFRSYM    DATA     BIT       P41
      000000B0H.3 SFRSYM    DATA     BIT       P33
      000000A0H.4 SFRSYM    DATA     BIT       P24
      00000090H.5 SFRSYM    DATA     BIT       P15
      00000080H.6 SFRSYM    DATA     BIT       P06
      000000E4H   SFRSYM    DATA     BYTE      ISP_ADDRL
      000000E8H.2 SFRSYM    DATA     BIT       P42
      000000A0H.7 SFRSYM    DATA     BIT       SET_KEY
      000000B0H.4 SFRSYM    DATA     BIT       P34
      000000A0H.5 SFRSYM    DATA     BIT       P25
      00000090H.6 SFRSYM    DATA     BIT       P16
      00000080H.7 SFRSYM    DATA     BIT       P07
      000000E8H.3 SFRSYM    DATA     BIT       P43
      000000B0H.5 SFRSYM    DATA     BIT       P35
      000000A0H.6 SFRSYM    DATA     BIT       P26
      00000090H.7 SFRSYM    DATA     BIT       P17
      000000E8H.4 SFRSYM    DATA     BIT       P44
      000000B0H.6 SFRSYM    DATA     BIT       P36
      000000A0H.7 SFRSYM    DATA     BIT       P27
      000000E8H.5 SFRSYM    DATA     BIT       P45
      000000B0H.7 SFRSYM    DATA     BIT       P37
      000000E8H.6 SFRSYM    DATA     BIT       P46
      00000088H.1 SFRSYM    DATA     BIT       IE0
      00000088H.3 SFRSYM    DATA     BIT       IE1
      0000008EH   SFRSYM    DATA     BYTE      AUXR
      000000F0H   SFRSYM    DATA     BYTE      B
      000000C8H.0 SFRSYM    DATA     BIT       CP_RL2
      000000E0H   SFRSYM    DATA     BYTE      ACC
      000000A8H.1 SFRSYM    DATA     BIT       ET0
      000000A8H.3 SFRSYM    DATA     BIT       ET1
      00000088H.5 SFRSYM    DATA     BIT       TF0
      000000A8H.5 SFRSYM    DATA     BIT       ET2
      00000088H.7 SFRSYM    DATA     BIT       TF1
      000000C8H.7 SFRSYM    DATA     BIT       TF2
      00000098H.2 SFRSYM    DATA     BIT       RB8
      0000008CH   SFRSYM    DATA     BYTE      TH0
      000000A8H.0 SFRSYM    DATA     BIT       EX0
      00000088H.0 SFRSYM    DATA     BIT       IT0
      0000008DH   SFRSYM    DATA     BYTE      TH1
      00000098H.3 SFRSYM    DATA     BIT       TB8
      000000A8H.2 SFRSYM    DATA     BIT       EX1
      00000088H.2 SFRSYM    DATA     BIT       IT1
      000000CDH   SFRSYM    DATA     BYTE      TH2
      000000D0H.0 SFRSYM    DATA     BIT       P
      00000098H.7 SFRSYM    DATA     BIT       SM0
      0000008AH   SFRSYM    DATA     BYTE      TL0
      00000098H.6 SFRSYM    DATA     BIT       SM1
      0000008BH   SFRSYM    DATA     BYTE      TL1
LX51 LINKER/LOCATER V4.66.87.0                                                        06/04/2018  21:13:51  PAGE 102


      00000098H.5 SFRSYM    DATA     BIT       SM2
      000000CCH   SFRSYM    DATA     BYTE      TL2
      000000B8H.1 SFRSYM    DATA     BIT       PT0
      000000B8H.3 SFRSYM    DATA     BIT       PT1
      000000D0H.3 SFRSYM    DATA     BIT       RS0
      000000E7H   SFRSYM    DATA     BYTE      ISP_CONTR
      000000B8H.5 SFRSYM    DATA     BIT       PT2
      00000088H.4 SFRSYM    DATA     BIT       TR0
      000000D0H.4 SFRSYM    DATA     BIT       RS1
      00000088H.6 SFRSYM    DATA     BIT       TR1
      000000C8H.2 SFRSYM    DATA     BIT       TR2
      000000B8H.0 SFRSYM    DATA     BIT       PX0
      000000E1H   SFRSYM    DATA     BYTE      WDT_CONTR
      000000B8H.2 SFRSYM    DATA     BIT       PX1
      00000083H   SFRSYM    DATA     BYTE      DPH
      00000082H   SFRSYM    DATA     BYTE      DPL
      000000B7H   SFRSYM    DATA     BYTE      IPH
      000000C8H.3 SFRSYM    DATA     BIT       EXEN2
      00000098H.4 SFRSYM    DATA     BIT       REN
      000000C9H   SFRSYM    DATA     BYTE      T2MOD
      000000C8H   SFRSYM    DATA     BYTE      T2CON
      000000E2H   SFRSYM    DATA     BYTE      ISP_DATA
      000000B9H   SFRSYM    DATA     BYTE      SADEN
      000000B0H.0 SFRSYM    DATA     BIT       RXD
      000000A9H   SFRSYM    DATA     BYTE      SADDR
      000000B0H.1 SFRSYM    DATA     BIT       TXD
      000000A2H   SFRSYM    DATA     BYTE      AUXR1
      000000D0H.5 SFRSYM    DATA     BIT       F0
      000000D0H   SFRSYM    DATA     BYTE      PSW
      020000DEH   SYMBOL    XDATA    BYTE      last_mod_tmr_count
      020000DFH   SYMBOL    XDATA    BYTE      last_set_tmr_count
      01006DD5H   SYMBOL    CODE     ---       int0_ISR
      00000023H.5 SYMBOL    BIT      BIT       mod_press
      00000023H.6 SYMBOL    BIT      BIT       set_press

      01008743H   BLOCK     CODE     ---       LVL=0
      ---         BLOCKEND  ---      ---       LVL=0

      01006DD5H   BLOCK     CODE     ---       LVL=0
      01006DD5H   LINE      CODE     ---       #26
      01006DE7H   LINE      CODE     ---       #28
      01006DE9H   LINE      CODE     ---       #29
      01006DEEH   LINE      CODE     ---       #30
      01006DF1H   LINE      CODE     ---       #31
      01006DF4H   LINE      CODE     ---       #32
      01006DF4H   LINE      CODE     ---       #33
      01006DF7H   LINE      CODE     ---       #35
      ---         BLOCKEND  ---      ---       LVL=0

      01002AB3H   BLOCK     CODE     ---       LVL=0
      02000000H   SYMBOL    XDATA    BYTE      ev
      01002AB3H   LINE      CODE     ---       #37
      01002AB3H   LINE      CODE     ---       #38
      01002AB3H   LINE      CODE     ---       #39
      01002AB3H   LINE      CODE     ---       #40
      01002AB9H   LINE      CODE     ---       #41
      01002ABEH   LINE      CODE     ---       #42
      01002AC1H   LINE      CODE     ---       #43
      01002AC7H   LINE      CODE     ---       #44
      01002AC9H   LINE      CODE     ---       #45
      01002AD1H   LINE      CODE     ---       #46
      01002AD1H   LINE      CODE     ---       #47
      01002AD9H   LINE      CODE     ---       #48
      01002AE0H   LINE      CODE     ---       #49
      01002AE8H   LINE      CODE     ---       #50
LX51 LINKER/LOCATER V4.66.87.0                                                        06/04/2018  21:13:51  PAGE 103


      01002AE8H   LINE      CODE     ---       #51
      01002AEEH   LINE      CODE     ---       #52
      01002AF4H   LINE      CODE     ---       #53
      01002AF6H   LINE      CODE     ---       #54
      01002AFDH   LINE      CODE     ---       #55
      01002B03H   LINE      CODE     ---       #56
      01002B06H   LINE      CODE     ---       #57
      01002B0EH   LINE      CODE     ---       #58
      01002B0EH   LINE      CODE     ---       #59
      01002B0EH   LINE      CODE     ---       #60
      01002B0EH   LINE      CODE     ---       #62
      01002B14H   LINE      CODE     ---       #63
      01002B19H   LINE      CODE     ---       #64
      01002B1CH   LINE      CODE     ---       #65
      01002B22H   LINE      CODE     ---       #66
      01002B24H   LINE      CODE     ---       #67
      01002B2CH   LINE      CODE     ---       #68
      01002B2CH   LINE      CODE     ---       #69
      01002B34H   LINE      CODE     ---       #70
      01002B3BH   LINE      CODE     ---       #71
      01002B46H   LINE      CODE     ---       #72
      01002B46H   LINE      CODE     ---       #73
      01002B4CH   LINE      CODE     ---       #74
      01002B55H   LINE      CODE     ---       #75
      01002B5CH   LINE      CODE     ---       #76
      01002B5FH   LINE      CODE     ---       #77
      01002B62H   LINE      CODE     ---       #78
      01002B6AH   LINE      CODE     ---       #79
      01002B6AH   LINE      CODE     ---       #80
      01002B6AH   LINE      CODE     ---       #81
      01002B6CH   LINE      CODE     ---       #82
      01002B6CH   LINE      CODE     ---       #84
      01002B78H   LINE      CODE     ---       #85
      01002B78H   LINE      CODE     ---       #87
      01002B95H   LINE      CODE     ---       #88
      01002B9EH   LINE      CODE     ---       #89
      01002B9EH   LINE      CODE     ---       #90
      01002B9EH   LINE      CODE     ---       #91
      ---         BLOCKEND  ---      ---       LVL=0

      01005F77H   BLOCK     CODE     ---       LVL=0
      0200000CH   SYMBOL    XDATA    BYTE      ev
      01005F77H   LINE      CODE     ---       #93
      01005F7CH   LINE      CODE     ---       #94
      01005F7CH   LINE      CODE     ---       #95
      01005F86H   LINE      CODE     ---       #97
      01005F98H   LINE      CODE     ---       #98
      01005F98H   LINE      CODE     ---       #99
      01005FA1H   LINE      CODE     ---       #100
      01005FA4H   LINE      CODE     ---       #101
      01005FA6H   LINE      CODE     ---       #102
      01005FA6H   LINE      CODE     ---       #103
      01005FACH   LINE      CODE     ---       #104
      01005FAEH   LINE      CODE     ---       #105
      01005FAEH   LINE      CODE     ---       #106
      01005FB4H   LINE      CODE     ---       #107
      01005FB6H   LINE      CODE     ---       #108
      01005FB6H   LINE      CODE     ---       #109
      01005FBFH   LINE      CODE     ---       #110
      01005FBFH   LINE      CODE     ---       #111
      01005FBFH   LINE      CODE     ---       #113
      ---         BLOCKEND  ---      ---       LVL=0

      01005FC7H   BLOCK     CODE     ---       LVL=0
      0200000CH   SYMBOL    XDATA    BYTE      ev
LX51 LINKER/LOCATER V4.66.87.0                                                        06/04/2018  21:13:51  PAGE 104


      01005FC7H   LINE      CODE     ---       #117
      01005FCCH   LINE      CODE     ---       #118
      01005FCCH   LINE      CODE     ---       #119
      01005FD6H   LINE      CODE     ---       #121
      01005FE8H   LINE      CODE     ---       #122
      01005FE8H   LINE      CODE     ---       #123
      01005FF1H   LINE      CODE     ---       #124
      01005FF4H   LINE      CODE     ---       #125
      01005FF6H   LINE      CODE     ---       #126
      01005FF6H   LINE      CODE     ---       #127
      01005FFCH   LINE      CODE     ---       #128
      01005FFEH   LINE      CODE     ---       #129
      01005FFEH   LINE      CODE     ---       #130
      01006004H   LINE      CODE     ---       #131
      01006006H   LINE      CODE     ---       #132
      01006006H   LINE      CODE     ---       #133
      0100600FH   LINE      CODE     ---       #134
      0100600FH   LINE      CODE     ---       #135
      0100600FH   LINE      CODE     ---       #137
      ---         BLOCKEND  ---      ---       LVL=0

      01006B95H   BLOCK     CODE     ---       LVL=0
      0200000CH   SYMBOL    XDATA    BYTE      ev
      01006B95H   LINE      CODE     ---       #140
      01006B9AH   LINE      CODE     ---       #141
      01006B9AH   LINE      CODE     ---       #142
      01006BA7H   LINE      CODE     ---       #144
      01006BB2H   LINE      CODE     ---       #145
      01006BB2H   LINE      CODE     ---       #146
      01006BB8H   LINE      CODE     ---       #147
      01006BBAH   LINE      CODE     ---       #148
      01006BBAH   LINE      CODE     ---       #149
      01006BC3H   LINE      CODE     ---       #150
      01006BC3H   LINE      CODE     ---       #151
      01006BC3H   LINE      CODE     ---       #153
      ---         BLOCKEND  ---      ---       LVL=0

      01008039H   BLOCK     CODE     ---       LVL=0
      01008039H   LINE      CODE     ---       #156
      01008039H   LINE      CODE     ---       #157
      01008039H   LINE      CODE     ---       #158
      01008042H   LINE      CODE     ---       #160
      01008047H   LINE      CODE     ---       #161
      01008049H   LINE      CODE     ---       #163
      0100804BH   LINE      CODE     ---       #164
      0100804DH   LINE      CODE     ---       #166
      0100804FH   LINE      CODE     ---       #167
      01008051H   LINE      CODE     ---       #168
      ---         BLOCKEND  ---      ---       LVL=0

      01008B43H   BLOCK     CODE     ---       LVL=0
      01008B43H   LINE      CODE     ---       #170
      01008B43H   LINE      CODE     ---       #171
      01008B43H   LINE      CODE     ---       #172
      ---         BLOCKEND  ---      ---       LVL=0

      01008B4CH   BLOCK     CODE     ---       LVL=0
      01008B4CH   LINE      CODE     ---       #175
      01008B4CH   LINE      CODE     ---       #176
      01008B4CH   LINE      CODE     ---       #177
      ---         BLOCKEND  ---      ---       LVL=0

      ---         MODULE    ---      ---       TASK
      00000050H   PUBLIC    IDATA    WORD      ev_bits1
      0000004EH   PUBLIC    IDATA    WORD      ev_bits0
LX51 LINKER/LOCATER V4.66.87.0                                                        06/04/2018  21:13:51  PAGE 105


      0100B600H   PUBLIC    CONST    ---       task_name
      01004C4DH   PUBLIC    CODE     ---       task_dump
      01003E57H   PUBLIC    CODE     ---       run_task
      010084FEH   PUBLIC    CODE     ---       task_initialize
      0100B654H   SYMBOL    CONST    ---       task_procs

      01008841H   BLOCK     CODE     ---       LVL=0
      ---         BLOCKEND  ---      ---       LVL=0

      010084FEH   BLOCK     CODE     ---       LVL=0
      010084FEH   LINE      CODE     ---       #143
      010084FEH   LINE      CODE     ---       #144
      010084FEH   LINE      CODE     ---       #145
      01008507H   LINE      CODE     ---       #146
      0100850DH   LINE      CODE     ---       #147
      01008511H   LINE      CODE     ---       #148
      ---         BLOCKEND  ---      ---       LVL=0

      01003E57H   BLOCK     CODE     ---       LVL=0
      01003E57H   BLOCK     CODE     NEAR LAB  LVL=1
      02000000H   SYMBOL    XDATA    BYTE      c
      ---         BLOCKEND  ---      ---       LVL=1
      01003E57H   LINE      CODE     ---       #150
      01003E57H   LINE      CODE     ---       #151
      01003E57H   LINE      CODE     ---       #154
      01003E60H   LINE      CODE     ---       #155
      01003E6EH   LINE      CODE     ---       #156
      01003EA0H   LINE      CODE     ---       #157
      01003ED6H   LINE      CODE     ---       #158
      01003EF4H   LINE      CODE     ---       #159
      01003EF4H   LINE      CODE     ---       #160
      01003EFDH   LINE      CODE     ---       #161
      01003EFDH   LINE      CODE     ---       #163
      ---         BLOCKEND  ---      ---       LVL=0

      01004C4DH   BLOCK     CODE     ---       LVL=0
      01004C4DH   BLOCK     CODE     NEAR LAB  LVL=1
      0200000BH   SYMBOL    XDATA    BYTE      i
      ---         BLOCKEND  ---      ---       LVL=1
      01004C4DH   LINE      CODE     ---       #165
      01004C4DH   LINE      CODE     ---       #166
      01004C4DH   LINE      CODE     ---       #168
      01004C5CH   LINE      CODE     ---       #169
      01004CBEH   LINE      CODE     ---       #170
      01004CC6H   LINE      CODE     ---       #171
      ---         BLOCKEND  ---      ---       LVL=0

      ---         MODULE    ---      ---       LED
      00000025H.0 PUBLIC    BIT      BIT       led_powersave
      00000038H   PUBLIC    IDATA    ---       led_data
      00000036H   PUBLIC    IDATA    BYTE      led_blink
      020000BDH   PUBLIC    XDATA    ---       saved_led_data
      020000BBH   PUBLIC    XDATA    BYTE      saved_led_blink
      0100D287H   PUBLIC    CONST    ---       led_code
      0100756BH   PUBLIC    CODE     ---       led_restore
      01007545H   PUBLIC    CODE     ---       led_save
      01008408H   PUBLIC    CODE     ---       led_leave_powersave
      01008765H   PUBLIC    CODE     ---       led_enter_powersave
      01006017H   PUBLIC    CODE     ---       _led_set_code
      0100885FH   PUBLIC    CODE     ---       _led_set_dp
      01008850H   PUBLIC    CODE     ---       _led_clr_dp
      01008233H   PUBLIC    CODE     ---       _led_clr_blink
      0100836FH   PUBLIC    CODE     ---       _led_set_blink
      01008754H   PUBLIC    CODE     ---       led_clear
      010068E9H   PUBLIC    CODE     ---       led_initialize
LX51 LINKER/LOCATER V4.66.87.0                                                        06/04/2018  21:13:51  PAGE 106


      01005975H   PUBLIC    CODE     ---       refresh_led
      00000080H   SFRSYM    DATA     BYTE      P0
      00000090H   SFRSYM    DATA     BYTE      P1
      000000A0H   SFRSYM    DATA     BYTE      P2
      000000B0H   SFRSYM    DATA     BYTE      P3
      000000C0H   SFRSYM    DATA     BYTE      XICON
      000000B0H.4 SFRSYM    DATA     BIT       T0
      000000D0H.6 SFRSYM    DATA     BIT       AC
      000000E8H   SFRSYM    DATA     BYTE      P4
      000000B0H.5 SFRSYM    DATA     BIT       T1
      000000E6H   SFRSYM    DATA     BYTE      ISP_TRIG
      00000090H.0 SFRSYM    DATA     BIT       T2
      000000A8H.7 SFRSYM    DATA     BIT       EA
      000000A8H.6 SFRSYM    DATA     BIT       EC
      00000098H.7 SFRSYM    DATA     BIT       FE
      000000A8H   SFRSYM    DATA     BYTE      IE
      000000C8H.6 SFRSYM    DATA     BIT       EXF2
      000000B0H.7 SFRSYM    DATA     BIT       RD
      000000A8H.4 SFRSYM    DATA     BIT       ES
      000000B8H   SFRSYM    DATA     BYTE      IP
      00000098H.0 SFRSYM    DATA     BIT       RI
      000000B0H.2 SFRSYM    DATA     BIT       INT0
      000000D0H.7 SFRSYM    DATA     BIT       CY
      00000098H.1 SFRSYM    DATA     BIT       TI
      000000B0H.3 SFRSYM    DATA     BIT       INT1
      000000CBH   SFRSYM    DATA     BYTE      RCAP2H
      000000E5H   SFRSYM    DATA     BYTE      ISP_CMD
      000000B8H.4 SFRSYM    DATA     BIT       PS
      00000081H   SFRSYM    DATA     BYTE      SP
      00000090H.1 SFRSYM    DATA     BIT       T2EX
      000000D0H.2 SFRSYM    DATA     BIT       OV
      000000CAH   SFRSYM    DATA     BYTE      RCAP2L
      000000C8H.1 SFRSYM    DATA     BIT       C_T2
      000000B0H.6 SFRSYM    DATA     BIT       WR
      000000C8H.5 SFRSYM    DATA     BIT       RCLK
      000000C8H.4 SFRSYM    DATA     BIT       TCLK
      00000080H.0 SFRSYM    DATA     BIT       P00
      00000099H   SFRSYM    DATA     BYTE      SBUF
      00000087H   SFRSYM    DATA     BYTE      PCON
      00000090H.0 SFRSYM    DATA     BIT       P10
      00000080H.1 SFRSYM    DATA     BIT       P01
      000000A0H.0 SFRSYM    DATA     BIT       P20
      00000090H.1 SFRSYM    DATA     BIT       P11
      00000080H.2 SFRSYM    DATA     BIT       P02
      000000E3H   SFRSYM    DATA     BYTE      ISP_ADDRH
      000000B0H.0 SFRSYM    DATA     BIT       P30
      000000A0H.1 SFRSYM    DATA     BIT       P21
      00000090H.2 SFRSYM    DATA     BIT       P12
      00000080H.3 SFRSYM    DATA     BIT       P03
      00000098H   SFRSYM    DATA     BYTE      SCON
      000000B0H.1 SFRSYM    DATA     BIT       P31
      000000A0H.2 SFRSYM    DATA     BIT       P22
      00000090H.3 SFRSYM    DATA     BIT       P13
      00000080H.4 SFRSYM    DATA     BIT       P04
      000000E8H.0 SFRSYM    DATA     BIT       P40
      00000089H   SFRSYM    DATA     BYTE      TMOD
      00000088H   SFRSYM    DATA     BYTE      TCON
      000000B0H.2 SFRSYM    DATA     BIT       P32
      000000A0H.3 SFRSYM    DATA     BIT       P23
      00000090H.4 SFRSYM    DATA     BIT       P14
      00000080H.5 SFRSYM    DATA     BIT       P05
      000000E8H.1 SFRSYM    DATA     BIT       P41
      000000B0H.3 SFRSYM    DATA     BIT       P33
      000000A0H.4 SFRSYM    DATA     BIT       P24
      00000090H.5 SFRSYM    DATA     BIT       P15
LX51 LINKER/LOCATER V4.66.87.0                                                        06/04/2018  21:13:51  PAGE 107


      00000080H.6 SFRSYM    DATA     BIT       P06
      000000E4H   SFRSYM    DATA     BYTE      ISP_ADDRL
      000000E8H.2 SFRSYM    DATA     BIT       P42
      000000B0H.4 SFRSYM    DATA     BIT       P34
      000000A0H.5 SFRSYM    DATA     BIT       P25
      00000090H.6 SFRSYM    DATA     BIT       P16
      00000080H.7 SFRSYM    DATA     BIT       P07
      000000E8H.3 SFRSYM    DATA     BIT       P43
      000000B0H.5 SFRSYM    DATA     BIT       P35
      000000A0H.6 SFRSYM    DATA     BIT       P26
      00000090H.7 SFRSYM    DATA     BIT       P17
      000000E8H.4 SFRSYM    DATA     BIT       P44
      000000B0H.6 SFRSYM    DATA     BIT       P36
      000000A0H.7 SFRSYM    DATA     BIT       P27
      000000E8H.5 SFRSYM    DATA     BIT       P45
      000000B0H.7 SFRSYM    DATA     BIT       P37
      000000E8H.6 SFRSYM    DATA     BIT       P46
      00000088H.1 SFRSYM    DATA     BIT       IE0
      00000088H.3 SFRSYM    DATA     BIT       IE1
      0000008EH   SFRSYM    DATA     BYTE      AUXR
      000000F0H   SFRSYM    DATA     BYTE      B
      000000C8H.0 SFRSYM    DATA     BIT       CP_RL2
      000000E0H   SFRSYM    DATA     BYTE      ACC
      000000A8H.1 SFRSYM    DATA     BIT       ET0
      000000A8H.3 SFRSYM    DATA     BIT       ET1
      00000088H.5 SFRSYM    DATA     BIT       TF0
      000000A8H.5 SFRSYM    DATA     BIT       ET2
      00000088H.7 SFRSYM    DATA     BIT       TF1
      000000C8H.7 SFRSYM    DATA     BIT       TF2
      00000098H.2 SFRSYM    DATA     BIT       RB8
      0000008CH   SFRSYM    DATA     BYTE      TH0
      000000A8H.0 SFRSYM    DATA     BIT       EX0
      00000088H.0 SFRSYM    DATA     BIT       IT0
      0000008DH   SFRSYM    DATA     BYTE      TH1
      00000098H.3 SFRSYM    DATA     BIT       TB8
      000000A8H.2 SFRSYM    DATA     BIT       EX1
      00000088H.2 SFRSYM    DATA     BIT       IT1
      000000CDH   SFRSYM    DATA     BYTE      TH2
      000000D0H.0 SFRSYM    DATA     BIT       P
      00000098H.7 SFRSYM    DATA     BIT       SM0
      0000008AH   SFRSYM    DATA     BYTE      TL0
      00000098H.6 SFRSYM    DATA     BIT       SM1
      0000008BH   SFRSYM    DATA     BYTE      TL1
      00000098H.5 SFRSYM    DATA     BIT       SM2
      000000CCH   SFRSYM    DATA     BYTE      TL2
      000000B8H.1 SFRSYM    DATA     BIT       PT0
      000000B8H.3 SFRSYM    DATA     BIT       PT1
      000000D0H.3 SFRSYM    DATA     BIT       RS0
      000000E7H   SFRSYM    DATA     BYTE      ISP_CONTR
      000000B8H.5 SFRSYM    DATA     BIT       PT2
      00000088H.4 SFRSYM    DATA     BIT       TR0
      000000D0H.4 SFRSYM    DATA     BIT       RS1
      00000088H.6 SFRSYM    DATA     BIT       TR1
      000000C8H.2 SFRSYM    DATA     BIT       TR2
      000000B8H.0 SFRSYM    DATA     BIT       PX0
      000000E1H   SFRSYM    DATA     BYTE      WDT_CONTR
      000000B8H.2 SFRSYM    DATA     BIT       PX1
      00000083H   SFRSYM    DATA     BYTE      DPH
      00000082H   SFRSYM    DATA     BYTE      DPL
      000000B7H   SFRSYM    DATA     BYTE      IPH
      000000C8H.3 SFRSYM    DATA     BIT       EXEN2
      00000098H.4 SFRSYM    DATA     BIT       REN
      000000C9H   SFRSYM    DATA     BYTE      T2MOD
      000000C8H   SFRSYM    DATA     BYTE      T2CON
      000000E2H   SFRSYM    DATA     BYTE      ISP_DATA
LX51 LINKER/LOCATER V4.66.87.0                                                        06/04/2018  21:13:51  PAGE 108


      000000B9H   SFRSYM    DATA     BYTE      SADEN
      000000B0H.0 SFRSYM    DATA     BIT       RXD
      000000A9H   SFRSYM    DATA     BYTE      SADDR
      000000B0H.1 SFRSYM    DATA     BIT       TXD
      000000A2H   SFRSYM    DATA     BYTE      AUXR1
      000000D0H.5 SFRSYM    DATA     BIT       F0
      000000D0H   SFRSYM    DATA     BYTE      PSW
      020000BCH   SYMBOL    XDATA    BYTE      saved_led_index
      00000037H   SYMBOL    IDATA    BYTE      led_index
      0100D2B6H   SYMBOL    CONST    ---       led_scan
      020000C3H   SYMBOL    XDATA    BYTE      saved_scan_loop_cnt
      0000003EH   SYMBOL    IDATA    BYTE      scan_loop_cnt

      01007B98H   BLOCK     CODE     ---       LVL=0
      ---         BLOCKEND  ---      ---       LVL=0

      01005975H   BLOCK     CODE     ---       LVL=0
      01005975H   LINE      CODE     ---       #94
      01005975H   LINE      CODE     ---       #95
      01005975H   LINE      CODE     ---       #96
      01005978H   LINE      CODE     ---       #98
      0100597BH   LINE      CODE     ---       #100
      01005999H   LINE      CODE     ---       #101
      010059A1H   LINE      CODE     ---       #102
      010059ACH   LINE      CODE     ---       #103
      010059AEH   LINE      CODE     ---       #107
      010059B7H   LINE      CODE     ---       #108
      010059B7H   LINE      CODE     ---       #110
      010059C0H   LINE      CODE     ---       #112
      010059C1H   LINE      CODE     ---       #113
      010059C5H   LINE      CODE     ---       #114
      010059C7H   LINE      CODE     ---       #115
      010059CEH   LINE      CODE     ---       #116
      010059CEH   LINE      CODE     ---       #117
      ---         BLOCKEND  ---      ---       LVL=0

      010068E9H   BLOCK     CODE     ---       LVL=0
      010068E9H   BLOCK     CODE     NEAR LAB  LVL=1
      00000004H   SYMBOL    DATA     BYTE      i
      00000002H   SYMBOL    DATA     BYTE      j
      ---         BLOCKEND  ---      ---       LVL=1
      010068E9H   LINE      CODE     ---       #120
      010068E9H   LINE      CODE     ---       #121
      010068E9H   LINE      CODE     ---       #123
      010068F2H   LINE      CODE     ---       #125
      010068F4H   LINE      CODE     ---       #126
      010068F4H   LINE      CODE     ---       #127
      010068F4H   LINE      CODE     ---       #128
      010068F4H   LINE      CODE     ---       #129
      010068F4H   LINE      CODE     ---       #131
      010068F4H   LINE      CODE     ---       #132
      010068F7H   LINE      CODE     ---       #134
      010068F9H   LINE      CODE     ---       #135
      01006901H   LINE      CODE     ---       #136
      01006903H   LINE      CODE     ---       #137
      01006905H   LINE      CODE     ---       #138
      01006907H   LINE      CODE     ---       #139
      01006909H   LINE      CODE     ---       #140
      0100690BH   LINE      CODE     ---       #141
      0100690DH   LINE      CODE     ---       #142
      01006910H   LINE      CODE     ---       #143
      01006915H   LINE      CODE     ---       #144
      0100691AH   LINE      CODE     ---       #145
      0100691FH   LINE      CODE     ---       #147
      0100691FH   LINE      CODE     ---       #148
LX51 LINKER/LOCATER V4.66.87.0                                                        06/04/2018  21:13:51  PAGE 109


      0100691FH   LINE      CODE     ---       #149
      0100691FH   LINE      CODE     ---       #150
      0100691FH   LINE      CODE     ---       #152
      0100691FH   LINE      CODE     ---       #153
      01006922H   LINE      CODE     ---       #154
      ---         BLOCKEND  ---      ---       LVL=0

      01008754H   BLOCK     CODE     ---       LVL=0
      01008754H   LINE      CODE     ---       #156
      01008754H   LINE      CODE     ---       #157
      01008754H   LINE      CODE     ---       #158
      01008758H   LINE      CODE     ---       #159
      ---         BLOCKEND  ---      ---       LVL=0

      0100836FH   BLOCK     CODE     ---       LVL=0
      00000007H   SYMBOL    DATA     BYTE      i
      0100836FH   LINE      CODE     ---       #162
      0100836FH   LINE      CODE     ---       #163
      0100836FH   LINE      CODE     ---       #164
      01008375H   LINE      CODE     ---       #165
      01008384H   LINE      CODE     ---       #166
      01008384H   LINE      CODE     ---       #167
      ---         BLOCKEND  ---      ---       LVL=0

      01008233H   BLOCK     CODE     ---       LVL=0
      00000007H   SYMBOL    DATA     BYTE      i
      01008233H   LINE      CODE     ---       #169
      01008233H   LINE      CODE     ---       #170
      01008233H   LINE      CODE     ---       #171
      01008239H   LINE      CODE     ---       #172
      01008249H   LINE      CODE     ---       #173
      01008249H   LINE      CODE     ---       #174
      ---         BLOCKEND  ---      ---       LVL=0

      01008850H   BLOCK     CODE     ---       LVL=0
      00000007H   SYMBOL    DATA     BYTE      i
      01008850H   LINE      CODE     ---       #176
      01008850H   LINE      CODE     ---       #177
      01008850H   LINE      CODE     ---       #178
      01008856H   LINE      CODE     ---       #179
      0100885EH   LINE      CODE     ---       #180
      0100885EH   LINE      CODE     ---       #181
      ---         BLOCKEND  ---      ---       LVL=0

      0100885FH   BLOCK     CODE     ---       LVL=0
      00000007H   SYMBOL    DATA     BYTE      i
      0100885FH   LINE      CODE     ---       #183
      0100885FH   LINE      CODE     ---       #184
      0100885FH   LINE      CODE     ---       #185
      01008865H   LINE      CODE     ---       #186
      0100886DH   LINE      CODE     ---       #187
      0100886DH   LINE      CODE     ---       #188
      ---         BLOCKEND  ---      ---       LVL=0

      01006017H   BLOCK     CODE     ---       LVL=0
      00000007H   SYMBOL    DATA     BYTE      i
      00000005H   SYMBOL    DATA     CHAR      c
      01006017H   LINE      CODE     ---       #192
      01006017H   LINE      CODE     ---       #193
      01006017H   LINE      CODE     ---       #194
      0100601DH   LINE      CODE     ---       #195
      01006025H   LINE      CODE     ---       #196
      01006028H   LINE      CODE     ---       #197
      01006033H   LINE      CODE     ---       #198
      01006034H   LINE      CODE     ---       #199
LX51 LINKER/LOCATER V4.66.87.0                                                        06/04/2018  21:13:51  PAGE 110


      01006044H   LINE      CODE     ---       #200
      0100605DH   LINE      CODE     ---       #201
      0100605EH   LINE      CODE     ---       #202
      01006066H   LINE      CODE     ---       #203
      01006066H   LINE      CODE     ---       #204
      01006066H   LINE      CODE     ---       #205
      ---         BLOCKEND  ---      ---       LVL=0

      01008765H   BLOCK     CODE     ---       LVL=0
      01008765H   LINE      CODE     ---       #207
      01008765H   LINE      CODE     ---       #208
      01008765H   LINE      CODE     ---       #209
      0100876EH   LINE      CODE     ---       #211
      01008770H   LINE      CODE     ---       #213
      01008770H   LINE      CODE     ---       #214
      01008773H   LINE      CODE     ---       #215
      ---         BLOCKEND  ---      ---       LVL=0

      01008408H   BLOCK     CODE     ---       LVL=0
      01008408H   LINE      CODE     ---       #218
      01008408H   LINE      CODE     ---       #219
      01008408H   LINE      CODE     ---       #220
      01008411H   LINE      CODE     ---       #222
      01008414H   LINE      CODE     ---       #223
      01008417H   LINE      CODE     ---       #224
      0100841AH   LINE      CODE     ---       #226
      0100841CH   LINE      CODE     ---       #227
      ---         BLOCKEND  ---      ---       LVL=0

      01007545H   BLOCK     CODE     ---       LVL=0
      01007545H   LINE      CODE     ---       #229
      01007545H   LINE      CODE     ---       #230
      01007545H   LINE      CODE     ---       #231
      01007558H   LINE      CODE     ---       #232
      0100755FH   LINE      CODE     ---       #233
      01007563H   LINE      CODE     ---       #234
      0100756AH   LINE      CODE     ---       #235
      ---         BLOCKEND  ---      ---       LVL=0

      0100756BH   BLOCK     CODE     ---       LVL=0
      0100756BH   LINE      CODE     ---       #237
      0100756BH   LINE      CODE     ---       #238
      0100756BH   LINE      CODE     ---       #239
      0100757EH   LINE      CODE     ---       #240
      01007585H   LINE      CODE     ---       #241
      01007589H   LINE      CODE     ---       #242
      01007590H   LINE      CODE     ---       #243
      ---         BLOCKEND  ---      ---       LVL=0

      ---         MODULE    ---      ---       ALARM
      010066C0H   PUBLIC    CODE     ---       alarm1_sync_to_rtc
      00000020H.0 PUBLIC    BIT      BIT       ?alarm1_set_enable?BIT
      01008CD1H   PUBLIC    CODE     ---       alarm1_set_enable
      01008D33H   PUBLIC    CODE     ---       alarm1_test_enable
      01005E85H   PUBLIC    CODE     ---       alarm0_sync_to_rtc
      010088E4H   PUBLIC    CODE     ---       alarm0_inc_hour
      01008C83H   PUBLIC    CODE     ---       alarm0_get_hour
      010088D6H   PUBLIC    CODE     ---       alarm0_inc_min
      01008C7DH   PUBLIC    CODE     ---       alarm0_get_min
      00000020H.1 PUBLIC    BIT      BIT       ?alarm0_set_hour_12?BIT
      01000026H   PUBLIC    CODE     ---       alarm0_set_hour_12
      01008D30H   PUBLIC    CODE     ---       alarm0_get_hour_12
      01008C77H   PUBLIC    CODE     ---       alarm0_get_day_mask
      00000020H.0 PUBLIC    BIT      BIT       ?_alarm0_set_enable?BIT
      01005568H   PUBLIC    CODE     ---       _alarm0_set_enable
LX51 LINKER/LOCATER V4.66.87.0                                                        06/04/2018  21:13:51  PAGE 111


      01006FEAH   PUBLIC    CODE     ---       _alarm0_test_enable
      01008B67H   PUBLIC    CODE     ---       alarm_leave_powersave
      01008B5EH   PUBLIC    CODE     ---       alarm_enter_powersave
      0100543BH   PUBLIC    CODE     ---       alarm_dump
      0100776DH   PUBLIC    CODE     ---       alarm_switch_off
      010080E6H   PUBLIC    CODE     ---       alarm_switch_on
      01008B55H   PUBLIC    CODE     ---       alarm_initialize
      01004D41H   PUBLIC    CODE     ---       scan_alarm
      010071DFH   PUBLIC    CODE     ---       _alarm_proc
      00000023H.7 SYMBOL    BIT      BIT       alarm1_enable
      020000D5H   SYMBOL    XDATA    ---       alarm0
      01006D3CH   SYMBOL    CODE     ---       alarm_load_rom
      01006CA0H   SYMBOL    CODE     ---       alarm_save_rom
      00000024H.0 SYMBOL    BIT      BIT       alarm0_is12

      0100841DH   BLOCK     CODE     ---       LVL=0
      ---         BLOCKEND  ---      ---       LVL=0

      010071DFH   BLOCK     CODE     ---       LVL=0
      0200000CH   SYMBOL    XDATA    BYTE      ev
      010071DFH   LINE      CODE     ---       #15
      010071E4H   LINE      CODE     ---       #16
      010071E4H   LINE      CODE     ---       #18
      010071E7H   LINE      CODE     ---       #19
      010071F0H   LINE      CODE     ---       #20
      010071F5H   LINE      CODE     ---       #21
      010071F5H   LINE      CODE     ---       #23
      010071FCH   LINE      CODE     ---       #24
      01007205H   LINE      CODE     ---       #25
      0100720AH   LINE      CODE     ---       #26
      0100720AH   LINE      CODE     ---       #27
      ---         BLOCKEND  ---      ---       LVL=0

      01004D41H   BLOCK     CODE     ---       LVL=0
      01004D41H   BLOCK     CODE     NEAR LAB  LVL=1
      00000020H.0 SYMBOL    BIT      BIT       alarm0_hit
      00000020H.1 SYMBOL    BIT      BIT       alarm1_hit
      ---         BLOCKEND  ---      ---       LVL=1
      01004D41H   LINE      CODE     ---       #29
      01004D41H   LINE      CODE     ---       #30
      01004D41H   LINE      CODE     ---       #33
      01004D46H   LINE      CODE     ---       #34
      01004D4DH   LINE      CODE     ---       #35
      01004D53H   LINE      CODE     ---       #36
      01004D57H   LINE      CODE     ---       #37
      01004D5BH   LINE      CODE     ---       #38
      01004D60H   LINE      CODE     ---       #40
      01004D63H   LINE      CODE     ---       #41
      01004D7DH   LINE      CODE     ---       #42
      01004D82H   LINE      CODE     ---       #43
      01004D85H   LINE      CODE     ---       #44
      01004D85H   LINE      CODE     ---       #45
      01004D8EH   LINE      CODE     ---       #46
      01004D91H   LINE      CODE     ---       #47
      01004D93H   LINE      CODE     ---       #48
      01004D93H   LINE      CODE     ---       #49
      01004D93H   LINE      CODE     ---       #50
      01004D93H   LINE      CODE     ---       #53
      01004D96H   LINE      CODE     ---       #54
      01004D9BH   LINE      CODE     ---       #55
      01004DA7H   LINE      CODE     ---       #56
      01004DA7H   LINE      CODE     ---       #57
      01004DACH   LINE      CODE     ---       #58
      01004DAFH   LINE      CODE     ---       #59
      01004DAFH   LINE      CODE     ---       #60
LX51 LINKER/LOCATER V4.66.87.0                                                        06/04/2018  21:13:51  PAGE 112


      01004DB8H   LINE      CODE     ---       #61
      01004DB8H   LINE      CODE     ---       #62
      01004DB8H   LINE      CODE     ---       #63
      ---         BLOCKEND  ---      ---       LVL=0

      01006D3CH   BLOCK     CODE     ---       LVL=0
      01006D3CH   LINE      CODE     ---       #65
      01006D3CH   LINE      CODE     ---       #66
      01006D3CH   LINE      CODE     ---       #67
      01006D46H   LINE      CODE     ---       #68
      01006D50H   LINE      CODE     ---       #69
      01006D5AH   LINE      CODE     ---       #70
      01006D64H   LINE      CODE     ---       #71
      01006D6EH   LINE      CODE     ---       #72
      ---         BLOCKEND  ---      ---       LVL=0

      01006CA0H   BLOCK     CODE     ---       LVL=0
      01006CA0H   LINE      CODE     ---       #74
      01006CA0H   LINE      CODE     ---       #75
      01006CA0H   LINE      CODE     ---       #76
      01006CAAH   LINE      CODE     ---       #77
      01006CB4H   LINE      CODE     ---       #78
      01006CBEH   LINE      CODE     ---       #79
      01006CCAH   LINE      CODE     ---       #80
      ---         BLOCKEND  ---      ---       LVL=0

      01008B55H   BLOCK     CODE     ---       LVL=0
      01008B55H   LINE      CODE     ---       #83
      01008B55H   LINE      CODE     ---       #84
      01008B55H   LINE      CODE     ---       #85
      ---         BLOCKEND  ---      ---       LVL=0

      010080E6H   BLOCK     CODE     ---       LVL=0
      010080E6H   LINE      CODE     ---       #88
      010080E6H   LINE      CODE     ---       #89
      010080E6H   LINE      CODE     ---       #90
      010080EFH   LINE      CODE     ---       #91
      010080F2H   LINE      CODE     ---       #92
      010080F5H   LINE      CODE     ---       #93
      010080F8H   LINE      CODE     ---       #94
      010080FBH   LINE      CODE     ---       #95
      ---         BLOCKEND  ---      ---       LVL=0

      0100776DH   BLOCK     CODE     ---       LVL=0
      0100776DH   LINE      CODE     ---       #98
      0100776DH   LINE      CODE     ---       #99
      0100776DH   LINE      CODE     ---       #100
      01007776H   LINE      CODE     ---       #101
      0100777BH   LINE      CODE     ---       #102
      01007782H   LINE      CODE     ---       #103
      01007788H   LINE      CODE     ---       #104
      0100778DH   LINE      CODE     ---       #105
      ---         BLOCKEND  ---      ---       LVL=0

      0100543BH   BLOCK     CODE     ---       LVL=0
      0100543BH   LINE      CODE     ---       #108
      0100543BH   LINE      CODE     ---       #109
      0100543BH   LINE      CODE     ---       #110
      01005445H   LINE      CODE     ---       #111
      0100544FH   LINE      CODE     ---       #112
      01005459H   LINE      CODE     ---       #113
      01005477H   LINE      CODE     ---       #114
      01005495H   LINE      CODE     ---       #115
      ---         BLOCKEND  ---      ---       LVL=0

LX51 LINKER/LOCATER V4.66.87.0                                                        06/04/2018  21:13:51  PAGE 113


      01008B5EH   BLOCK     CODE     ---       LVL=0
      01008B5EH   LINE      CODE     ---       #117
      01008B5EH   LINE      CODE     ---       #118
      01008B5EH   LINE      CODE     ---       #119
      ---         BLOCKEND  ---      ---       LVL=0

      01008B67H   BLOCK     CODE     ---       LVL=0
      01008B67H   LINE      CODE     ---       #122
      01008B67H   LINE      CODE     ---       #123
      01008B67H   LINE      CODE     ---       #124
      ---         BLOCKEND  ---      ---       LVL=0

      01006FEAH   BLOCK     CODE     ---       LVL=0
      02000019H   SYMBOL    XDATA    BYTE      day
      01006FEAH   LINE      CODE     ---       #128
      01006FEFH   LINE      CODE     ---       #129
      01006FEFH   LINE      CODE     ---       #130
      01006FFCH   LINE      CODE     ---       #131
      01007018H   LINE      CODE     ---       #132
      ---         BLOCKEND  ---      ---       LVL=0

      01005568H   BLOCK     CODE     ---       LVL=0
      02000014H   SYMBOL    XDATA    BYTE      day
      00000020H.0 SYMBOL    BIT      BIT       enable
      01005568H   LINE      CODE     ---       #135
      0100556DH   LINE      CODE     ---       #136
      0100556DH   LINE      CODE     ---       #137
      0100558FH   LINE      CODE     ---       #138
      010055A4H   LINE      CODE     ---       #139
      010055B0H   LINE      CODE     ---       #140
      010055B3H   LINE      CODE     ---       #141
      010055B5H   LINE      CODE     ---       #142
      010055BDH   LINE      CODE     ---       #143
      010055BDH   LINE      CODE     ---       #144
      ---         BLOCKEND  ---      ---       LVL=0

      01008C77H   BLOCK     CODE     ---       LVL=0
      01008C77H   LINE      CODE     ---       #148
      01008C77H   LINE      CODE     ---       #149
      01008C77H   LINE      CODE     ---       #150
      01008C7CH   LINE      CODE     ---       #151
      ---         BLOCKEND  ---      ---       LVL=0

      01008D30H   BLOCK     CODE     ---       LVL=0
      01008D30H   LINE      CODE     ---       #153
      01008D30H   LINE      CODE     ---       #154
      01008D30H   LINE      CODE     ---       #155
      01008D32H   LINE      CODE     ---       #156
      ---         BLOCKEND  ---      ---       LVL=0

      01000026H   BLOCK     CODE     ---       LVL=0
      00000020H.1 SYMBOL    BIT      BIT       enable
      01000026H   LINE      CODE     ---       #158
      01000026H   LINE      CODE     ---       #159
      01000026H   LINE      CODE     ---       #160
      0100002AH   LINE      CODE     ---       #161
      ---         BLOCKEND  ---      ---       LVL=0

      01008C7DH   BLOCK     CODE     ---       LVL=0
      01008C7DH   LINE      CODE     ---       #164
      01008C7DH   LINE      CODE     ---       #165
      01008C7DH   LINE      CODE     ---       #166
      01008C82H   LINE      CODE     ---       #167
      ---         BLOCKEND  ---      ---       LVL=0

LX51 LINKER/LOCATER V4.66.87.0                                                        06/04/2018  21:13:51  PAGE 114


      010088D6H   BLOCK     CODE     ---       LVL=0
      010088D6H   LINE      CODE     ---       #169
      010088D6H   LINE      CODE     ---       #170
      010088D6H   LINE      CODE     ---       #171
      010088E3H   LINE      CODE     ---       #172
      ---         BLOCKEND  ---      ---       LVL=0

      01008C83H   BLOCK     CODE     ---       LVL=0
      01008C83H   LINE      CODE     ---       #174
      01008C83H   LINE      CODE     ---       #175
      01008C83H   LINE      CODE     ---       #176
      01008C88H   LINE      CODE     ---       #177
      ---         BLOCKEND  ---      ---       LVL=0

      010088E4H   BLOCK     CODE     ---       LVL=0
      010088E4H   LINE      CODE     ---       #179
      010088E4H   LINE      CODE     ---       #180
      010088E4H   LINE      CODE     ---       #181
      010088F1H   LINE      CODE     ---       #182
      ---         BLOCKEND  ---      ---       LVL=0

      01005E85H   BLOCK     CODE     ---       LVL=0
      01005E85H   LINE      CODE     ---       #184
      01005E85H   LINE      CODE     ---       #185
      01005E85H   LINE      CODE     ---       #186
      01005E8EH   LINE      CODE     ---       #187
      01005E93H   LINE      CODE     ---       #188
      01005E98H   LINE      CODE     ---       #189
      01005E9FH   LINE      CODE     ---       #190
      01005EA7H   LINE      CODE     ---       #191
      01005EAFH   LINE      CODE     ---       #192
      01005EB4H   LINE      CODE     ---       #193
      01005EB9H   LINE      CODE     ---       #195
      01005EBEH   LINE      CODE     ---       #196
      01005ECDH   LINE      CODE     ---       #197
      01005ED1H   LINE      CODE     ---       #198
      ---         BLOCKEND  ---      ---       LVL=0

      01008D33H   BLOCK     CODE     ---       LVL=0
      01008D33H   LINE      CODE     ---       #201
      01008D33H   LINE      CODE     ---       #202
      01008D33H   LINE      CODE     ---       #203
      01008D35H   LINE      CODE     ---       #204
      ---         BLOCKEND  ---      ---       LVL=0

      01008CD1H   BLOCK     CODE     ---       LVL=0
      00000020H.0 SYMBOL    BIT      BIT       enable
      01008CD1H   LINE      CODE     ---       #206
      01008CD1H   LINE      CODE     ---       #207
      01008CD1H   LINE      CODE     ---       #208
      01008CD5H   LINE      CODE     ---       #209
      ---         BLOCKEND  ---      ---       LVL=0

      010066C0H   BLOCK     CODE     ---       LVL=0
      010066C0H   LINE      CODE     ---       #211
      010066C0H   LINE      CODE     ---       #212
      010066C0H   LINE      CODE     ---       #213
      010066C9H   LINE      CODE     ---       #214
      010066CEH   LINE      CODE     ---       #215
      010066D3H   LINE      CODE     ---       #216
      010066DAH   LINE      CODE     ---       #217
      010066DFH   LINE      CODE     ---       #218
      010066E4H   LINE      CODE     ---       #219
      010066E9H   LINE      CODE     ---       #221
      010066EEH   LINE      CODE     ---       #222
LX51 LINKER/LOCATER V4.66.87.0                                                        06/04/2018  21:13:51  PAGE 115


      010066F7H   LINE      CODE     ---       #223
      010066FAH   LINE      CODE     ---       #224
      ---         BLOCKEND  ---      ---       LVL=0

      ---         MODULE    ---      ---       POWER
      00000025H.1 PUBLIC    BIT      BIT       powersave_flag
      01008D3FH   PUBLIC    CODE     ---       power_get_volume
      01008D26H   PUBLIC    CODE     ---       power_5v_get_enable
      00000020H.1 PUBLIC    BIT      BIT       ?power_5v_enable?BIT
      01007EAEH   PUBLIC    CODE     ---       power_5v_enable
      01008B70H   PUBLIC    CODE     ---       power_reset_powersave_to
      01008D3CH   PUBLIC    CODE     ---       power_clr_flag
      01008D39H   PUBLIC    CODE     ---       power_set_flag
      01008D36H   PUBLIC    CODE     ---       power_test_flag
      01006EFCH   PUBLIC    CODE     ---       power_test_powersave_to
      01007671H   PUBLIC    CODE     ---       power_inc_powersave_to
      0100824AH   PUBLIC    CODE     ---       power_get_powersave_to
      01008C89H   PUBLIC    CODE     ---       power_get_powersave_to_s
      01006ECCH   PUBLIC    CODE     ---       power_leave_powersave
      0100614FH   PUBLIC    CODE     ---       power_enter_powersave
      01007F6AH   PUBLIC    CODE     ---       _power_proc
      01006D6FH   PUBLIC    CODE     ---       power_initialize
      00000080H   SFRSYM    DATA     BYTE      P0
      00000090H   SFRSYM    DATA     BYTE      P1
      000000A0H   SFRSYM    DATA     BYTE      P2
      000000B0H   SFRSYM    DATA     BYTE      P3
      000000C0H   SFRSYM    DATA     BYTE      XICON
      000000B0H.4 SFRSYM    DATA     BIT       T0
      000000D0H.6 SFRSYM    DATA     BIT       AC
      000000E8H   SFRSYM    DATA     BYTE      P4
      000000B0H.5 SFRSYM    DATA     BIT       T1
      000000E6H   SFRSYM    DATA     BYTE      ISP_TRIG
      00000090H.0 SFRSYM    DATA     BIT       T2
      000000A8H.7 SFRSYM    DATA     BIT       EA
      000000A8H.6 SFRSYM    DATA     BIT       EC
      00000098H.7 SFRSYM    DATA     BIT       FE
      000000A8H   SFRSYM    DATA     BYTE      IE
      000000C8H.6 SFRSYM    DATA     BIT       EXF2
      000000B0H.7 SFRSYM    DATA     BIT       RD
      000000A8H.4 SFRSYM    DATA     BIT       ES
      000000B8H   SFRSYM    DATA     BYTE      IP
      00000098H.0 SFRSYM    DATA     BIT       RI
      000000B0H.2 SFRSYM    DATA     BIT       INT0
      000000D0H.7 SFRSYM    DATA     BIT       CY
      00000098H.1 SFRSYM    DATA     BIT       TI
      000000B0H.3 SFRSYM    DATA     BIT       INT1
      000000CBH   SFRSYM    DATA     BYTE      RCAP2H
      000000E5H   SFRSYM    DATA     BYTE      ISP_CMD
      000000B8H.4 SFRSYM    DATA     BIT       PS
      00000081H   SFRSYM    DATA     BYTE      SP
      00000090H.1 SFRSYM    DATA     BIT       T2EX
      000000D0H.2 SFRSYM    DATA     BIT       OV
      000000CAH   SFRSYM    DATA     BYTE      RCAP2L
      000000C8H.1 SFRSYM    DATA     BIT       C_T2
      000000B0H.6 SFRSYM    DATA     BIT       WR
      000000C8H.5 SFRSYM    DATA     BIT       RCLK
      000000C8H.4 SFRSYM    DATA     BIT       TCLK
      00000080H.0 SFRSYM    DATA     BIT       P00
      00000099H   SFRSYM    DATA     BYTE      SBUF
      00000087H   SFRSYM    DATA     BYTE      PCON
      00000090H.0 SFRSYM    DATA     BIT       P10
      00000080H.1 SFRSYM    DATA     BIT       P01
      000000A0H.0 SFRSYM    DATA     BIT       P20
      00000090H.1 SFRSYM    DATA     BIT       P11
      00000080H.2 SFRSYM    DATA     BIT       P02
LX51 LINKER/LOCATER V4.66.87.0                                                        06/04/2018  21:13:51  PAGE 116


      000000E3H   SFRSYM    DATA     BYTE      ISP_ADDRH
      000000B0H.0 SFRSYM    DATA     BIT       P30
      000000A0H.1 SFRSYM    DATA     BIT       P21
      00000090H.2 SFRSYM    DATA     BIT       P12
      00000080H.3 SFRSYM    DATA     BIT       P03
      00000098H   SFRSYM    DATA     BYTE      SCON
      000000B0H.1 SFRSYM    DATA     BIT       P31
      000000A0H.2 SFRSYM    DATA     BIT       P22
      00000090H.3 SFRSYM    DATA     BIT       P13
      00000080H.4 SFRSYM    DATA     BIT       P04
      000000E8H.0 SFRSYM    DATA     BIT       P40
      00000089H   SFRSYM    DATA     BYTE      TMOD
      00000088H   SFRSYM    DATA     BYTE      TCON
      000000B0H.2 SFRSYM    DATA     BIT       P32
      000000A0H.3 SFRSYM    DATA     BIT       P23
      00000090H.4 SFRSYM    DATA     BIT       P14
      00000080H.5 SFRSYM    DATA     BIT       P05
      000000E8H.1 SFRSYM    DATA     BIT       P41
      000000B0H.3 SFRSYM    DATA     BIT       P33
      000000A0H.4 SFRSYM    DATA     BIT       P24
      00000090H.5 SFRSYM    DATA     BIT       P15
      00000080H.6 SFRSYM    DATA     BIT       P06
      000000E4H   SFRSYM    DATA     BYTE      ISP_ADDRL
      000000E8H.2 SFRSYM    DATA     BIT       P42
      000000B0H.4 SFRSYM    DATA     BIT       P34
      000000A0H.5 SFRSYM    DATA     BIT       P25
      00000090H.6 SFRSYM    DATA     BIT       P16
      00000080H.7 SFRSYM    DATA     BIT       P07
      000000E8H.3 SFRSYM    DATA     BIT       P43
      000000B0H.5 SFRSYM    DATA     BIT       P35
      000000A0H.6 SFRSYM    DATA     BIT       P26
      00000090H.7 SFRSYM    DATA     BIT       P17
      000000E8H.4 SFRSYM    DATA     BIT       P44
      000000B0H.6 SFRSYM    DATA     BIT       P36
      000000A0H.7 SFRSYM    DATA     BIT       P27
      000000E8H.5 SFRSYM    DATA     BIT       P45
      000000B0H.7 SFRSYM    DATA     BIT       P37
      000000E8H.6 SFRSYM    DATA     BIT       P46
      00000088H.1 SFRSYM    DATA     BIT       IE0
      00000088H.3 SFRSYM    DATA     BIT       IE1
      0000008EH   SFRSYM    DATA     BYTE      AUXR
      000000F0H   SFRSYM    DATA     BYTE      B
      000000C8H.0 SFRSYM    DATA     BIT       CP_RL2
      000000E0H   SFRSYM    DATA     BYTE      ACC
      000000A8H.1 SFRSYM    DATA     BIT       ET0
      000000A8H.3 SFRSYM    DATA     BIT       ET1
      00000088H.5 SFRSYM    DATA     BIT       TF0
      000000A8H.5 SFRSYM    DATA     BIT       ET2
      00000088H.7 SFRSYM    DATA     BIT       TF1
      000000C8H.7 SFRSYM    DATA     BIT       TF2
      00000098H.2 SFRSYM    DATA     BIT       RB8
      0000008CH   SFRSYM    DATA     BYTE      TH0
      000000A8H.0 SFRSYM    DATA     BIT       EX0
      00000088H.0 SFRSYM    DATA     BIT       IT0
      0000008DH   SFRSYM    DATA     BYTE      TH1
      00000098H.3 SFRSYM    DATA     BIT       TB8
      000000A8H.2 SFRSYM    DATA     BIT       EX1
      00000088H.2 SFRSYM    DATA     BIT       IT1
      000000CDH   SFRSYM    DATA     BYTE      TH2
      000000D0H.0 SFRSYM    DATA     BIT       P
      00000098H.7 SFRSYM    DATA     BIT       SM0
      0000008AH   SFRSYM    DATA     BYTE      TL0
      00000098H.6 SFRSYM    DATA     BIT       SM1
      0000008BH   SFRSYM    DATA     BYTE      TL1
      00000098H.5 SFRSYM    DATA     BIT       SM2
LX51 LINKER/LOCATER V4.66.87.0                                                        06/04/2018  21:13:51  PAGE 117


      000000CCH   SFRSYM    DATA     BYTE      TL2
      000000B8H.1 SFRSYM    DATA     BIT       PT0
      000000B8H.3 SFRSYM    DATA     BIT       PT1
      000000D0H.3 SFRSYM    DATA     BIT       RS0
      000000E7H   SFRSYM    DATA     BYTE      ISP_CONTR
      000000B8H.5 SFRSYM    DATA     BIT       PT2
      00000088H.4 SFRSYM    DATA     BIT       TR0
      000000D0H.4 SFRSYM    DATA     BIT       RS1
      00000088H.6 SFRSYM    DATA     BIT       TR1
      000000C8H.2 SFRSYM    DATA     BIT       TR2
      000000B8H.0 SFRSYM    DATA     BIT       PX0
      000000E1H   SFRSYM    DATA     BYTE      WDT_CONTR
      000000B8H.2 SFRSYM    DATA     BIT       PX1
      00000083H   SFRSYM    DATA     BYTE      DPH
      00000082H   SFRSYM    DATA     BYTE      DPL
      000000B7H   SFRSYM    DATA     BYTE      IPH
      000000C8H.3 SFRSYM    DATA     BIT       EXEN2
      00000098H.4 SFRSYM    DATA     BIT       REN
      000000C9H   SFRSYM    DATA     BYTE      T2MOD
      000000C8H   SFRSYM    DATA     BYTE      T2CON
      000000E2H   SFRSYM    DATA     BYTE      ISP_DATA
      000000B9H   SFRSYM    DATA     BYTE      SADEN
      000000B0H.6 SFRSYM    DATA     BIT       POWER_5V_EN
      000000B0H.0 SFRSYM    DATA     BIT       RXD
      000000A9H   SFRSYM    DATA     BYTE      SADDR
      000000B0H.1 SFRSYM    DATA     BIT       TXD
      000000A2H   SFRSYM    DATA     BYTE      AUXR1
      000000D0H.5 SFRSYM    DATA     BIT       F0
      000000D0H   SFRSYM    DATA     BYTE      PSW
      020000E0H   SYMBOL    XDATA    BYTE      last_ps_s
      020000E1H   SYMBOL    XDATA    BYTE      powersave_to_s

      01006D6FH   BLOCK     CODE     ---       LVL=0
      01006D6FH   BLOCK     CODE     NEAR LAB  LVL=1
      00000007H   SYMBOL    DATA     BYTE      powersave_to
      ---         BLOCKEND  ---      ---       LVL=1
      01006D6FH   LINE      CODE     ---       #31
      01006D6FH   LINE      CODE     ---       #32
      01006D6FH   LINE      CODE     ---       #34
      01006D78H   LINE      CODE     ---       #35
      01006D7DH   LINE      CODE     ---       #36
      01006D88H   LINE      CODE     ---       #37
      01006D8FH   LINE      CODE     ---       #38
      01006D97H   LINE      CODE     ---       #39
      01006D9DH   LINE      CODE     ---       #40
      01006D9DH   LINE      CODE     ---       #41
      01006D9FH   LINE      CODE     ---       #42
      01006DA1H   LINE      CODE     ---       #43
      ---         BLOCKEND  ---      ---       LVL=0

      01007F6AH   BLOCK     CODE     ---       LVL=0
      0200000CH   SYMBOL    XDATA    BYTE      ev
      01007F6AH   LINE      CODE     ---       #45
      01007F6FH   LINE      CODE     ---       #46
      01007F6FH   LINE      CODE     ---       #47
      01007F7CH   LINE      CODE     ---       #48
      ---         BLOCKEND  ---      ---       LVL=0

      0100614FH   BLOCK     CODE     ---       LVL=0
      0100614FH   LINE      CODE     ---       #51
      0100614FH   LINE      CODE     ---       #52
      0100614FH   LINE      CODE     ---       #53
      01006158H   LINE      CODE     ---       #54
      0100615BH   LINE      CODE     ---       #55
      0100615EH   LINE      CODE     ---       #56
LX51 LINKER/LOCATER V4.66.87.0                                                        06/04/2018  21:13:51  PAGE 118


      01006161H   LINE      CODE     ---       #57
      01006164H   LINE      CODE     ---       #58
      01006167H   LINE      CODE     ---       #59
      0100616AH   LINE      CODE     ---       #60
      0100616DH   LINE      CODE     ---       #61
      01006170H   LINE      CODE     ---       #62
      01006173H   LINE      CODE     ---       #63
      01006176H   LINE      CODE     ---       #64
      01006179H   LINE      CODE     ---       #65
      0100617CH   LINE      CODE     ---       #66
      0100617FH   LINE      CODE     ---       #67
      01006182H   LINE      CODE     ---       #68
      01006187H   LINE      CODE     ---       #70
      0100618AH   LINE      CODE     ---       #74
      0100618DH   LINE      CODE     ---       #75
      01006192H   LINE      CODE     ---       #76
      01006195H   LINE      CODE     ---       #77
      0100619AH   LINE      CODE     ---       #78
      0100619AH   LINE      CODE     ---       #79
      0100619AH   LINE      CODE     ---       #80
      0100619AH   LINE      CODE     ---       #81
      ---         BLOCKEND  ---      ---       LVL=0

      01006ECCH   BLOCK     CODE     ---       LVL=0
      01006ECCH   LINE      CODE     ---       #83
      01006ECCH   LINE      CODE     ---       #84
      01006ECCH   LINE      CODE     ---       #86
      01006ECFH   LINE      CODE     ---       #87
      01006ED2H   LINE      CODE     ---       #88
      01006ED5H   LINE      CODE     ---       #89
      01006ED8H   LINE      CODE     ---       #90
      01006EDBH   LINE      CODE     ---       #91
      01006EDEH   LINE      CODE     ---       #92
      01006EE1H   LINE      CODE     ---       #93
      01006EE4H   LINE      CODE     ---       #94
      01006EE7H   LINE      CODE     ---       #95
      01006EEAH   LINE      CODE     ---       #96
      01006EEDH   LINE      CODE     ---       #97
      01006EF0H   LINE      CODE     ---       #98
      01006EF3H   LINE      CODE     ---       #99
      ---         BLOCKEND  ---      ---       LVL=0

      01008C89H   BLOCK     CODE     ---       LVL=0
      01008C89H   LINE      CODE     ---       #102
      01008C89H   LINE      CODE     ---       #103
      01008C89H   LINE      CODE     ---       #104
      01008C8EH   LINE      CODE     ---       #105
      ---         BLOCKEND  ---      ---       LVL=0

      0100824AH   BLOCK     CODE     ---       LVL=0
      0100824AH   LINE      CODE     ---       #107
      0100824AH   LINE      CODE     ---       #108
      0100824AH   LINE      CODE     ---       #109
      01008258H   LINE      CODE     ---       #110
      0100825BH   LINE      CODE     ---       #111
      0100825EH   LINE      CODE     ---       #112
      01008261H   LINE      CODE     ---       #113
      ---         BLOCKEND  ---      ---       LVL=0

      01007671H   BLOCK     CODE     ---       LVL=0
      01007671H   LINE      CODE     ---       #117
      01007671H   LINE      CODE     ---       #118
      01007671H   LINE      CODE     ---       #119
      01007681H   LINE      CODE     ---       #120
      01007681H   LINE      CODE     ---       #121
LX51 LINKER/LOCATER V4.66.87.0                                                        06/04/2018  21:13:51  PAGE 119


      01007688H   LINE      CODE     ---       #122
      01007688H   LINE      CODE     ---       #123
      0100768FH   LINE      CODE     ---       #124
      0100768FH   LINE      CODE     ---       #125
      01007694H   LINE      CODE     ---       #126
      01007694H   LINE      CODE     ---       #127
      ---         BLOCKEND  ---      ---       LVL=0

      01006EFCH   BLOCK     CODE     ---       LVL=0
      01006EFCH   LINE      CODE     ---       #129
      01006EFCH   LINE      CODE     ---       #130
      01006EFCH   LINE      CODE     ---       #132
      01006F16H   LINE      CODE     ---       #133
      01006F1FH   LINE      CODE     ---       #134
      01006F28H   LINE      CODE     ---       #135
      01006F2AH   LINE      CODE     ---       #136
      01006F2AH   LINE      CODE     ---       #137
      01006F2BH   LINE      CODE     ---       #138
      ---         BLOCKEND  ---      ---       LVL=0

      01008D36H   BLOCK     CODE     ---       LVL=0
      01008D36H   LINE      CODE     ---       #140
      01008D36H   LINE      CODE     ---       #141
      01008D36H   LINE      CODE     ---       #142
      01008D38H   LINE      CODE     ---       #143
      ---         BLOCKEND  ---      ---       LVL=0

      01008D39H   BLOCK     CODE     ---       LVL=0
      01008D39H   LINE      CODE     ---       #145
      01008D39H   LINE      CODE     ---       #146
      01008D39H   LINE      CODE     ---       #147
      01008D3BH   LINE      CODE     ---       #148
      ---         BLOCKEND  ---      ---       LVL=0

      01008D3CH   BLOCK     CODE     ---       LVL=0
      01008D3CH   LINE      CODE     ---       #150
      01008D3CH   LINE      CODE     ---       #151
      01008D3CH   LINE      CODE     ---       #152
      01008D3EH   LINE      CODE     ---       #153
      ---         BLOCKEND  ---      ---       LVL=0

      01008B70H   BLOCK     CODE     ---       LVL=0
      01008B70H   LINE      CODE     ---       #155
      01008B70H   LINE      CODE     ---       #156
      01008B70H   LINE      CODE     ---       #157
      01008B78H   LINE      CODE     ---       #158
      ---         BLOCKEND  ---      ---       LVL=0

      01007EAEH   BLOCK     CODE     ---       LVL=0
      00000020H.1 SYMBOL    BIT      BIT       enable
      01007EAEH   LINE      CODE     ---       #160
      01007EAEH   LINE      CODE     ---       #161
      01007EAEH   LINE      CODE     ---       #162
      01007EC3H   LINE      CODE     ---       #164
      01007EC8H   LINE      CODE     ---       #165
      ---         BLOCKEND  ---      ---       LVL=0

      01008D26H   BLOCK     CODE     ---       LVL=0
      01008D26H   LINE      CODE     ---       #167
      01008D26H   LINE      CODE     ---       #168
      01008D26H   LINE      CODE     ---       #169
      01008D29H   LINE      CODE     ---       #170
      ---         BLOCKEND  ---      ---       LVL=0

      01008D3FH   BLOCK     CODE     ---       LVL=0
LX51 LINKER/LOCATER V4.66.87.0                                                        06/04/2018  21:13:51  PAGE 120


      01008D3FH   LINE      CODE     ---       #173
      01008D3FH   LINE      CODE     ---       #174
      01008D3FH   LINE      CODE     ---       #176
      01008D41H   LINE      CODE     ---       #181
      ---         BLOCKEND  ---      ---       LVL=0

      ---         MODULE    ---      ---       MISC
      01008900H   PUBLIC    CODE     ---       _delay_ms
      010088F2H   PUBLIC    CODE     ---       _delay_10us
      01008C8FH   SYMBOL    CODE     ---       internal_delay_10us
      01008B12H   SYMBOL    CODE     ---       internal_delay_ms

      01008C8FH   BLOCK     CODE     ---       LVL=0
      01008C8FH   BLOCK     CODE     NEAR LAB  LVL=1
      00000007H   SYMBOL    DATA     BYTE      i
      ---         BLOCKEND  ---      ---       LVL=1
      01008C8FH   LINE      CODE     ---       #7
      01008C8FH   LINE      CODE     ---       #8
      01008C8FH   LINE      CODE     ---       #11
      01008C90H   LINE      CODE     ---       #12
      01008C92H   LINE      CODE     ---       #13
      01008C94H   LINE      CODE     ---       #14
      ---         BLOCKEND  ---      ---       LVL=0

      01008B12H   BLOCK     CODE     ---       LVL=0
      01008B12H   BLOCK     CODE     NEAR LAB  LVL=1
      00000007H   SYMBOL    DATA     BYTE      i
      00000006H   SYMBOL    DATA     BYTE      j
      ---         BLOCKEND  ---      ---       LVL=1
      01008B12H   LINE      CODE     ---       #16
      01008B12H   LINE      CODE     ---       #17
      01008B12H   LINE      CODE     ---       #20
      01008B13H   LINE      CODE     ---       #21
      01008B15H   LINE      CODE     ---       #22
      01008B17H   LINE      CODE     ---       #24
      01008B17H   LINE      CODE     ---       #25
      01008B19H   LINE      CODE     ---       #26
      01008B1BH   LINE      CODE     ---       #27
      ---         BLOCKEND  ---      ---       LVL=0

      010088F2H   BLOCK     CODE     ---       LVL=0
      00000006H   SYMBOL    DATA     BYTE      t
      010088F2H   LINE      CODE     ---       #53
      010088F4H   LINE      CODE     ---       #54
      010088F4H   LINE      CODE     ---       #55
      010088FAH   LINE      CODE     ---       #56
      010088FDH   LINE      CODE     ---       #57
      010088FFH   LINE      CODE     ---       #58
      ---         BLOCKEND  ---      ---       LVL=0

      01008900H   BLOCK     CODE     ---       LVL=0
      00000005H   SYMBOL    DATA     BYTE      t
      01008900H   LINE      CODE     ---       #60
      01008902H   LINE      CODE     ---       #61
      01008902H   LINE      CODE     ---       #62
      01008908H   LINE      CODE     ---       #63
      0100890BH   LINE      CODE     ---       #64
      0100890DH   LINE      CODE     ---       #65
      ---         BLOCKEND  ---      ---       LVL=0

      ---         MODULE    ---      ---       MOD_COMMON
      00000022H.7 PUBLIC    BIT      BIT       lpress_lock_day_sec
      020000DAH   PUBLIC    XDATA    BYTE      last_display_s
      00000022H.6 PUBLIC    BIT      BIT       lpress_lock_year_hour
      00000022H.5 PUBLIC    BIT      BIT       lpress_lock_month_min
LX51 LINKER/LOCATER V4.66.87.0                                                        06/04/2018  21:13:51  PAGE 121


      020000D9H   PUBLIC    XDATA    BYTE      lpress_start
      020000D8H   PUBLIC    XDATA    BYTE      common_state
      010054A0H   PUBLIC    CODE     ---       _display_logo

      010054A0H   BLOCK     CODE     ---       LVL=0
      02000012H   SYMBOL    XDATA    BYTE      type
      02000013H   SYMBOL    XDATA    BYTE      num
      010054A0H   LINE      CODE     ---       #16
      010054A8H   LINE      CODE     ---       #17
      010054A8H   LINE      CODE     ---       #18
      010054B9H   LINE      CODE     ---       #20
      010054BCH   LINE      CODE     ---       #22
      010054CDH   LINE      CODE     ---       #23
      010054CDH   LINE      CODE     ---       #24
      010054CFH   LINE      CODE     ---       #25
      010054D1H   LINE      CODE     ---       #26
      010054D1H   LINE      CODE     ---       #27
      010054D3H   LINE      CODE     ---       #28
      010054D5H   LINE      CODE     ---       #29
      010054D5H   LINE      CODE     ---       #30
      010054D7H   LINE      CODE     ---       #31
      010054D9H   LINE      CODE     ---       #32
      010054D9H   LINE      CODE     ---       #33
      010054E0H   LINE      CODE     ---       #34
      010054E0H   LINE      CODE     ---       #35
      010054E0H   LINE      CODE     ---       #36
      010054F0H   LINE      CODE     ---       #37
      01005502H   LINE      CODE     ---       #38
      ---         BLOCKEND  ---      ---       LVL=0

      ---         MODULE    ---      ---       BEEPER
      01008D45H   PUBLIC    CODE     ---       beeper_stop_music
      0100783EH   PUBLIC    CODE     ---       beeper_play_music
      0100653CH   PUBLIC    CODE     ---       beeper_beep_beep
      010066FFH   PUBLIC    CODE     ---       beeper_beep_beep_always
      010072E4H   PUBLIC    CODE     ---       beeper_beep
      01008C9BH   PUBLIC    CODE     ---       beeper_get_music_index
      01008261H   PUBLIC    CODE     ---       beeper_inc_music_index
      01007EC9H   PUBLIC    CODE     ---       beeper_inc_music_to
      01008C95H   PUBLIC    CODE     ---       beeper_get_music_to
      00000020H.1 PUBLIC    BIT      BIT       ?beeper_set_beep_enable?BIT
      01008CD6H   PUBLIC    CODE     ---       beeper_set_beep_enable
      01008D42H   PUBLIC    CODE     ---       beeper_get_beep_enable
      01008B82H   PUBLIC    CODE     ---       beeper_leave_powersave
      01008B79H   PUBLIC    CODE     ---       beeper_enter_powersave
      010064F9H   PUBLIC    CODE     ---       beeper_initialize
      00000080H   SFRSYM    DATA     BYTE      P0
      00000090H   SFRSYM    DATA     BYTE      P1
      000000A0H   SFRSYM    DATA     BYTE      P2
      000000B0H   SFRSYM    DATA     BYTE      P3
      000000C0H   SFRSYM    DATA     BYTE      XICON
      000000B0H.4 SFRSYM    DATA     BIT       T0
      000000D0H.6 SFRSYM    DATA     BIT       AC
      000000E8H   SFRSYM    DATA     BYTE      P4
      000000B0H.5 SFRSYM    DATA     BIT       T1
      000000E6H   SFRSYM    DATA     BYTE      ISP_TRIG
      00000090H.0 SFRSYM    DATA     BIT       T2
      000000A8H.7 SFRSYM    DATA     BIT       EA
      000000A8H.6 SFRSYM    DATA     BIT       EC
      00000098H.7 SFRSYM    DATA     BIT       FE
      000000A8H   SFRSYM    DATA     BYTE      IE
      000000C8H.6 SFRSYM    DATA     BIT       EXF2
      000000B0H.7 SFRSYM    DATA     BIT       RD
      000000A8H.4 SFRSYM    DATA     BIT       ES
      000000B8H   SFRSYM    DATA     BYTE      IP
LX51 LINKER/LOCATER V4.66.87.0                                                        06/04/2018  21:13:51  PAGE 122


      00000098H.0 SFRSYM    DATA     BIT       RI
      000000B0H.2 SFRSYM    DATA     BIT       INT0
      000000D0H.7 SFRSYM    DATA     BIT       CY
      00000098H.1 SFRSYM    DATA     BIT       TI
      000000B0H.3 SFRSYM    DATA     BIT       INT1
      000000CBH   SFRSYM    DATA     BYTE      RCAP2H
      000000E5H   SFRSYM    DATA     BYTE      ISP_CMD
      000000B8H.4 SFRSYM    DATA     BIT       PS
      00000081H   SFRSYM    DATA     BYTE      SP
      00000090H.1 SFRSYM    DATA     BIT       T2EX
      000000D0H.2 SFRSYM    DATA     BIT       OV
      000000CAH   SFRSYM    DATA     BYTE      RCAP2L
      000000C8H.1 SFRSYM    DATA     BIT       C_T2
      000000B0H.6 SFRSYM    DATA     BIT       WR
      000000C8H.5 SFRSYM    DATA     BIT       RCLK
      000000C8H.4 SFRSYM    DATA     BIT       TCLK
      00000080H.0 SFRSYM    DATA     BIT       P00
      00000090H.0 SFRSYM    DATA     BIT       beeper_out
      00000099H   SFRSYM    DATA     BYTE      SBUF
      00000087H   SFRSYM    DATA     BYTE      PCON
      00000090H.0 SFRSYM    DATA     BIT       P10
      00000080H.1 SFRSYM    DATA     BIT       P01
      000000A0H.0 SFRSYM    DATA     BIT       P20
      00000090H.1 SFRSYM    DATA     BIT       P11
      00000080H.2 SFRSYM    DATA     BIT       P02
      000000E3H   SFRSYM    DATA     BYTE      ISP_ADDRH
      000000B0H.0 SFRSYM    DATA     BIT       P30
      000000A0H.1 SFRSYM    DATA     BIT       P21
      00000090H.2 SFRSYM    DATA     BIT       P12
      00000080H.3 SFRSYM    DATA     BIT       P03
      00000098H   SFRSYM    DATA     BYTE      SCON
      000000B0H.1 SFRSYM    DATA     BIT       P31
      000000A0H.2 SFRSYM    DATA     BIT       P22
      00000090H.3 SFRSYM    DATA     BIT       P13
      00000080H.4 SFRSYM    DATA     BIT       P04
      000000E8H.0 SFRSYM    DATA     BIT       P40
      00000089H   SFRSYM    DATA     BYTE      TMOD
      00000088H   SFRSYM    DATA     BYTE      TCON
      000000B0H.2 SFRSYM    DATA     BIT       P32
      000000A0H.3 SFRSYM    DATA     BIT       P23
      00000090H.4 SFRSYM    DATA     BIT       P14
      00000080H.5 SFRSYM    DATA     BIT       P05
      000000E8H.1 SFRSYM    DATA     BIT       P41
      000000B0H.3 SFRSYM    DATA     BIT       P33
      000000A0H.4 SFRSYM    DATA     BIT       P24
      00000090H.5 SFRSYM    DATA     BIT       P15
      00000080H.6 SFRSYM    DATA     BIT       P06
      000000E4H   SFRSYM    DATA     BYTE      ISP_ADDRL
      000000E8H.2 SFRSYM    DATA     BIT       P42
      000000B0H.4 SFRSYM    DATA     BIT       P34
      000000A0H.5 SFRSYM    DATA     BIT       P25
      00000090H.6 SFRSYM    DATA     BIT       P16
      00000080H.7 SFRSYM    DATA     BIT       P07
      000000E8H.3 SFRSYM    DATA     BIT       P43
      000000B0H.5 SFRSYM    DATA     BIT       P35
      000000A0H.6 SFRSYM    DATA     BIT       P26
      00000090H.7 SFRSYM    DATA     BIT       P17
      000000E8H.4 SFRSYM    DATA     BIT       P44
      000000B0H.6 SFRSYM    DATA     BIT       P36
      000000A0H.7 SFRSYM    DATA     BIT       P27
      000000E8H.5 SFRSYM    DATA     BIT       P45
      000000B0H.7 SFRSYM    DATA     BIT       P37
      000000E8H.6 SFRSYM    DATA     BIT       P46
      00000088H.1 SFRSYM    DATA     BIT       IE0
      00000088H.3 SFRSYM    DATA     BIT       IE1
LX51 LINKER/LOCATER V4.66.87.0                                                        06/04/2018  21:13:51  PAGE 123


      0000008EH   SFRSYM    DATA     BYTE      AUXR
      000000F0H   SFRSYM    DATA     BYTE      B
      000000C8H.0 SFRSYM    DATA     BIT       CP_RL2
      000000E0H   SFRSYM    DATA     BYTE      ACC
      000000A8H.1 SFRSYM    DATA     BIT       ET0
      000000A8H.3 SFRSYM    DATA     BIT       ET1
      00000088H.5 SFRSYM    DATA     BIT       TF0
      000000A8H.5 SFRSYM    DATA     BIT       ET2
      00000088H.7 SFRSYM    DATA     BIT       TF1
      000000C8H.7 SFRSYM    DATA     BIT       TF2
      00000098H.2 SFRSYM    DATA     BIT       RB8
      0000008CH   SFRSYM    DATA     BYTE      TH0
      000000A8H.0 SFRSYM    DATA     BIT       EX0
      00000088H.0 SFRSYM    DATA     BIT       IT0
      0000008DH   SFRSYM    DATA     BYTE      TH1
      00000098H.3 SFRSYM    DATA     BIT       TB8
      000000A8H.2 SFRSYM    DATA     BIT       EX1
      00000088H.2 SFRSYM    DATA     BIT       IT1
      000000CDH   SFRSYM    DATA     BYTE      TH2
      000000D0H.0 SFRSYM    DATA     BIT       P
      00000098H.7 SFRSYM    DATA     BIT       SM0
      0000008AH   SFRSYM    DATA     BYTE      TL0
      00000098H.6 SFRSYM    DATA     BIT       SM1
      0000008BH   SFRSYM    DATA     BYTE      TL1
      00000098H.5 SFRSYM    DATA     BIT       SM2
      000000CCH   SFRSYM    DATA     BYTE      TL2
      000000B8H.1 SFRSYM    DATA     BIT       PT0
      000000B8H.3 SFRSYM    DATA     BIT       PT1
      000000D0H.3 SFRSYM    DATA     BIT       RS0
      000000E7H   SFRSYM    DATA     BYTE      ISP_CONTR
      000000B8H.5 SFRSYM    DATA     BIT       PT2
      00000088H.4 SFRSYM    DATA     BIT       TR0
      000000D0H.4 SFRSYM    DATA     BIT       RS1
      00000088H.6 SFRSYM    DATA     BIT       TR1
      000000C8H.2 SFRSYM    DATA     BIT       TR2
      000000B8H.0 SFRSYM    DATA     BIT       PX0
      000000E1H   SFRSYM    DATA     BYTE      WDT_CONTR
      000000B8H.2 SFRSYM    DATA     BIT       PX1
      00000083H   SFRSYM    DATA     BYTE      DPH
      00000082H   SFRSYM    DATA     BYTE      DPL
      000000B7H   SFRSYM    DATA     BYTE      IPH
      000000C8H.3 SFRSYM    DATA     BIT       EXEN2
      00000098H.4 SFRSYM    DATA     BIT       REN
      000000C9H   SFRSYM    DATA     BYTE      T2MOD
      000000C8H   SFRSYM    DATA     BYTE      T2CON
      000000E2H   SFRSYM    DATA     BYTE      ISP_DATA
      000000B9H   SFRSYM    DATA     BYTE      SADEN
      000000B0H.0 SFRSYM    DATA     BIT       RXD
      000000A9H   SFRSYM    DATA     BYTE      SADDR
      000000B0H.1 SFRSYM    DATA     BIT       TXD
      000000A2H   SFRSYM    DATA     BYTE      AUXR1
      000000D0H.5 SFRSYM    DATA     BIT       F0
      000000D0H   SFRSYM    DATA     BYTE      PSW
      0100AC1AH   SYMBOL    CONST    ---       music_table
      0100890EH   SYMBOL    CODE     ---       _beeper_stop_play
      00000024H.1 SYMBOL    BIT      BIT       beeper_stop
      020000DBH   SYMBOL    XDATA    BYTE      pai
      020000DCH   SYMBOL    XDATA    BYTE      beeper_music_to
      0100A982H   SYMBOL    CONST    ---       music_table0
      0100AA44H   SYMBOL    CONST    ---       music_table1
      0100AB1EH   SYMBOL    CONST    ---       music_table2
      0100ABD6H   SYMBOL    CONST    ---       music_table3
      01007100H   SYMBOL    CODE     ---       beeper_ISR
      010030A3H   SYMBOL    CODE     ---       __beepler_play
      00000024H.2 SYMBOL    BIT      BIT       beep_enable
LX51 LINKER/LOCATER V4.66.87.0                                                        06/04/2018  21:13:51  PAGE 124


      020000DDH   SYMBOL    XDATA    BYTE      beeper_music_index

      01007EE4H   BLOCK     CODE     ---       LVL=0
      ---         BLOCKEND  ---      ---       LVL=0

      01007100H   BLOCK     CODE     ---       LVL=0
      01007100H   LINE      CODE     ---       #116
      0100710FH   LINE      CODE     ---       #119
      01007118H   LINE      CODE     ---       #120
      0100711BH   LINE      CODE     ---       #121
      0100711DH   LINE      CODE     ---       #122
      ---         BLOCKEND  ---      ---       LVL=0

      010064F9H   BLOCK     CODE     ---       LVL=0
      010064F9H   LINE      CODE     ---       #125
      010064F9H   LINE      CODE     ---       #126
      010064F9H   LINE      CODE     ---       #127
      01006502H   LINE      CODE     ---       #134
      01006505H   LINE      CODE     ---       #138
      01006508H   LINE      CODE     ---       #139
      0100650BH   LINE      CODE     ---       #140
      0100650EH   LINE      CODE     ---       #141
      01006511H   LINE      CODE     ---       #150
      01006513H   LINE      CODE     ---       #152
      01006515H   LINE      CODE     ---       #154
      01006517H   LINE      CODE     ---       #156
      01006523H   LINE      CODE     ---       #157
      01006525H   LINE      CODE     ---       #158
      0100652FH   LINE      CODE     ---       #159
      01006539H   LINE      CODE     ---       #160
      0100653BH   LINE      CODE     ---       #161
      ---         BLOCKEND  ---      ---       LVL=0

      01008B79H   BLOCK     CODE     ---       LVL=0
      01008B79H   LINE      CODE     ---       #163
      01008B79H   LINE      CODE     ---       #164
      01008B79H   LINE      CODE     ---       #165
      ---         BLOCKEND  ---      ---       LVL=0

      01008B82H   BLOCK     CODE     ---       LVL=0
      01008B82H   LINE      CODE     ---       #168
      01008B82H   LINE      CODE     ---       #169
      01008B82H   LINE      CODE     ---       #170
      ---         BLOCKEND  ---      ---       LVL=0

      01008D42H   BLOCK     CODE     ---       LVL=0
      01008D42H   LINE      CODE     ---       #173
      01008D42H   LINE      CODE     ---       #174
      01008D42H   LINE      CODE     ---       #175
      01008D44H   LINE      CODE     ---       #176
      ---         BLOCKEND  ---      ---       LVL=0

      01008CD6H   BLOCK     CODE     ---       LVL=0
      00000020H.1 SYMBOL    BIT      BIT       enable
      01008CD6H   LINE      CODE     ---       #178
      01008CD6H   LINE      CODE     ---       #179
      01008CD6H   LINE      CODE     ---       #180
      01008CDAH   LINE      CODE     ---       #181
      ---         BLOCKEND  ---      ---       LVL=0

      01008C95H   BLOCK     CODE     ---       LVL=0
      01008C95H   LINE      CODE     ---       #183
      01008C95H   LINE      CODE     ---       #184
      01008C95H   LINE      CODE     ---       #185
      01008C9AH   LINE      CODE     ---       #186
LX51 LINKER/LOCATER V4.66.87.0                                                        06/04/2018  21:13:51  PAGE 125


      ---         BLOCKEND  ---      ---       LVL=0

      01007EC9H   BLOCK     CODE     ---       LVL=0
      01007EC9H   LINE      CODE     ---       #188
      01007EC9H   LINE      CODE     ---       #189
      01007EC9H   LINE      CODE     ---       #190
      01007EDEH   LINE      CODE     ---       #191
      01007EE0H   LINE      CODE     ---       #192
      01007EE3H   LINE      CODE     ---       #193
      ---         BLOCKEND  ---      ---       LVL=0

      01008261H   BLOCK     CODE     ---       LVL=0
      01008261H   LINE      CODE     ---       #195
      01008261H   LINE      CODE     ---       #196
      01008261H   LINE      CODE     ---       #197
      0100826AH   LINE      CODE     ---       #198
      ---         BLOCKEND  ---      ---       LVL=0

      01008C9BH   BLOCK     CODE     ---       LVL=0
      01008C9BH   LINE      CODE     ---       #201
      01008C9BH   LINE      CODE     ---       #202
      01008C9BH   LINE      CODE     ---       #203
      01008CA0H   LINE      CODE     ---       #204
      ---         BLOCKEND  ---      ---       LVL=0

      0100890EH   BLOCK     CODE     ---       LVL=0
      0100890EH   LINE      CODE     ---       #206
      0100890EH   LINE      CODE     ---       #207
      0100890EH   LINE      CODE     ---       #208
      01008910H   LINE      CODE     ---       #209
      01008912H   LINE      CODE     ---       #210
      01008917H   LINE      CODE     ---       #211
      01008919H   LINE      CODE     ---       #212
      0100891BH   LINE      CODE     ---       #213
      ---         BLOCKEND  ---      ---       LVL=0

      010030A3H   BLOCK     CODE     ---       LVL=0
      02000013H   SYMBOL    XDATA    ---       music
      00000020H.0 SYMBOL    BIT      BIT       once
      010030A9H   BLOCK     CODE     NEAR LAB  LVL=1
      02000016H   SYMBOL    XDATA    BYTE      cm
      02000017H   SYMBOL    XDATA    BYTE      tune
      02000018H   SYMBOL    XDATA    BYTE      start_s
      ---         BLOCKEND  ---      ---       LVL=1
      010030A3H   LINE      CODE     ---       #215
      010030A9H   LINE      CODE     ---       #216
      010030A9H   LINE      CODE     ---       #221
      010030A9H   LINE      CODE     ---       #222
      010030A9H   LINE      CODE     ---       #223
      010030ACH   LINE      CODE     ---       #224
      010030AEH   LINE      CODE     ---       #225
      010030B4H   LINE      CODE     ---       #227
      010030C5H   LINE      CODE     ---       #229
      010030CBH   LINE      CODE     ---       #230
      010030CBH   LINE      CODE     ---       #231
      010030E0H   LINE      CODE     ---       #232
      010030E0H   LINE      CODE     ---       #233
      010030E0H   LINE      CODE     ---       #234
      010030E0H   LINE      CODE     ---       #235
      010030E3H   LINE      CODE     ---       #236
      010030E6H   LINE      CODE     ---       #237
      010030E9H   LINE      CODE     ---       #238
      010030EBH   LINE      CODE     ---       #239
      010030EBH   LINE      CODE     ---       #241
      010030F0H   LINE      CODE     ---       #242
LX51 LINKER/LOCATER V4.66.87.0                                                        06/04/2018  21:13:51  PAGE 126


      010030F0H   LINE      CODE     ---       #243
      010030F2H   LINE      CODE     ---       #244
      010030F2H   LINE      CODE     ---       #245
      010030F2H   LINE      CODE     ---       #246
      010030F2H   LINE      CODE     ---       #247
      010030F7H   LINE      CODE     ---       #248
      010030F7H   LINE      CODE     ---       #249
      010030F9H   LINE      CODE     ---       #250
      010030F9H   LINE      CODE     ---       #251
      01003100H   LINE      CODE     ---       #252
      01003105H   LINE      CODE     ---       #253
      01003107H   LINE      CODE     ---       #254
      01003107H   LINE      CODE     ---       #255
      01003114H   LINE      CODE     ---       #256
      0100311BH   LINE      CODE     ---       #257
      0100311DH   LINE      CODE     ---       #258
      0100311FH   LINE      CODE     ---       #259
      01003121H   LINE      CODE     ---       #260
      0100312AH   LINE      CODE     ---       #261
      0100312CH   LINE      CODE     ---       #262
      01003136H   LINE      CODE     ---       #263
      01003138H   LINE      CODE     ---       #264
      0100313AH   LINE      CODE     ---       #265
      0100313AH   LINE      CODE     ---       #266
      01003149H   LINE      CODE     ---       #267
      01003159H   LINE      CODE     ---       #268
      0100316AH   LINE      CODE     ---       #269
      0100316DH   LINE      CODE     ---       #270
      0100316DH   LINE      CODE     ---       #271
      0100316DH   LINE      CODE     ---       #272
      0100316DH   LINE      CODE     ---       #273
      0100316DH   LINE      CODE     ---       #274
      01003170H   LINE      CODE     ---       #275
      01003171H   LINE      CODE     ---       #276
      ---         BLOCKEND  ---      ---       LVL=0

      010072E4H   BLOCK     CODE     ---       LVL=0
      010072E4H   BLOCK     CODE     NEAR LAB  LVL=1
      0200000DH   SYMBOL    XDATA    BYTE      c
      ---         BLOCKEND  ---      ---       LVL=1
      010072E4H   LINE      CODE     ---       #278
      010072E4H   LINE      CODE     ---       #279
      010072E4H   LINE      CODE     ---       #280
      010072EAH   LINE      CODE     ---       #281
      010072F3H   LINE      CODE     ---       #282
      010072F6H   LINE      CODE     ---       #284
      010072F8H   LINE      CODE     ---       #285
      01007302H   LINE      CODE     ---       #286
      01007304H   LINE      CODE     ---       #287
      01007309H   LINE      CODE     ---       #288
      0100730BH   LINE      CODE     ---       #289
      0100730DH   LINE      CODE     ---       #290
      ---         BLOCKEND  ---      ---       LVL=0

      010066FFH   BLOCK     CODE     ---       LVL=0
      010066FFH   BLOCK     CODE     NEAR LAB  LVL=1
      02000014H   SYMBOL    XDATA    BYTE      c
      ---         BLOCKEND  ---      ---       LVL=1
      010066FFH   LINE      CODE     ---       #292
      010066FFH   LINE      CODE     ---       #293
      010066FFH   LINE      CODE     ---       #294
      01006705H   LINE      CODE     ---       #295
      0100670EH   LINE      CODE     ---       #296
      01006710H   LINE      CODE     ---       #297
      0100671AH   LINE      CODE     ---       #298
LX51 LINKER/LOCATER V4.66.87.0                                                        06/04/2018  21:13:51  PAGE 127


      0100671CH   LINE      CODE     ---       #299
      01006721H   LINE      CODE     ---       #300
      01006723H   LINE      CODE     ---       #302
      01006728H   LINE      CODE     ---       #304
      01006732H   LINE      CODE     ---       #305
      01006734H   LINE      CODE     ---       #306
      01006739H   LINE      CODE     ---       #307
      0100673BH   LINE      CODE     ---       #308
      0100673DH   LINE      CODE     ---       #309
      ---         BLOCKEND  ---      ---       LVL=0

      0100653CH   BLOCK     CODE     ---       LVL=0
      0100653CH   BLOCK     CODE     NEAR LAB  LVL=1
      0200000BH   SYMBOL    XDATA    BYTE      c
      ---         BLOCKEND  ---      ---       LVL=1
      0100653CH   LINE      CODE     ---       #311
      0100653CH   LINE      CODE     ---       #312
      0100653CH   LINE      CODE     ---       #313
      01006542H   LINE      CODE     ---       #314
      0100654BH   LINE      CODE     ---       #315
      0100654EH   LINE      CODE     ---       #317
      01006550H   LINE      CODE     ---       #318
      0100655AH   LINE      CODE     ---       #319
      0100655CH   LINE      CODE     ---       #320
      01006561H   LINE      CODE     ---       #321
      01006563H   LINE      CODE     ---       #323
      01006568H   LINE      CODE     ---       #325
      01006572H   LINE      CODE     ---       #326
      01006574H   LINE      CODE     ---       #327
      01006579H   LINE      CODE     ---       #328
      0100657BH   LINE      CODE     ---       #329
      0100657DH   LINE      CODE     ---       #330
      ---         BLOCKEND  ---      ---       LVL=0

      0100783EH   BLOCK     CODE     ---       LVL=0
      0100783EH   LINE      CODE     ---       #332
      0100783EH   LINE      CODE     ---       #333
      0100783EH   LINE      CODE     ---       #335
      01007847H   LINE      CODE     ---       #336
      ---         BLOCKEND  ---      ---       LVL=0

      01008D45H   BLOCK     CODE     ---       LVL=0
      01008D45H   LINE      CODE     ---       #339
      01008D45H   LINE      CODE     ---       #340
      01008D45H   LINE      CODE     ---       #341
      ---         BLOCKEND  ---      ---       LVL=0

      ---         MODULE    ---      ---       CLOCK
      0100839BH   PUBLIC    CODE     ---       clock_leave_shell
      01008D4BH   PUBLIC    CODE     ---       clock_enter_shell
      010080FEH   PUBLIC    CODE     ---       clock_leave_powersave
      0100891CH   PUBLIC    CODE     ---       clock_enter_powersave
      0100712DH   PUBLIC    CODE     ---       clock_initialize
      00000020H.2 PUBLIC    BIT      BIT       ?clock_enable_interrupt?BIT
      01008B8BH   PUBLIC    CODE     ---       clock_enable_interrupt
      01007BB5H   PUBLIC    CODE     ---       _clock_get_mon_date
      01008278H   PUBLIC    CODE     ---       _clock_is_leap_year
      010051C1H   PUBLIC    CODE     ---       _clock_sync_to_rtc
      010055C9H   PUBLIC    CODE     ---       _clock_sync_from_rtc
      01008432H   PUBLIC    CODE     ---       clock_inc_year
      01008D03H   PUBLIC    CODE     ---       clock_get_year
      01008385H   PUBLIC    CODE     ---       clock_inc_month
      01008CB3H   PUBLIC    CODE     ---       clock_get_month
      01008CADH   PUBLIC    CODE     ---       clock_get_day
      0100798CH   PUBLIC    CODE     ---       clock_inc_date
LX51 LINKER/LOCATER V4.66.87.0                                                        06/04/2018  21:13:51  PAGE 128


      01008CA7H   PUBLIC    CODE     ---       clock_get_date
      01008A4AH   PUBLIC    CODE     ---       clock_inc_hour
      01008CFEH   PUBLIC    CODE     ---       clock_get_hour
      01008A3FH   PUBLIC    CODE     ---       clock_inc_min
      01008CF9H   PUBLIC    CODE     ---       clock_get_min
      01008CF4H   PUBLIC    CODE     ---       clock_clr_sec
      01008CEFH   PUBLIC    CODE     ---       clock_get_sec
      01008CEAH   PUBLIC    CODE     ---       clock_get_sec_256
      01008CE5H   PUBLIC    CODE     ---       clock_get_ms39
      00000020H.1 PUBLIC    BIT      BIT       ?clock_set_hour_12?BIT
      01008CE0H   PUBLIC    CODE     ---       clock_set_hour_12
      01008D48H   PUBLIC    CODE     ---       clock_get_hour_12
      010029A7H   PUBLIC    CODE     ---       _clock_yymmdd_to_day
      01004350H   PUBLIC    CODE     ---       clock_dump
      01008CA1H   PUBLIC    CODE     ---       _clock_switch_display_mode
      00000020H.0 PUBLIC    BIT      BIT       ?clock_display?BIT
      01008CDBH   PUBLIC    CODE     ---       clock_display
      00000080H   SFRSYM    DATA     BYTE      P0
      00000090H   SFRSYM    DATA     BYTE      P1
      000000A0H   SFRSYM    DATA     BYTE      P2
      000000B0H   SFRSYM    DATA     BYTE      P3
      000000C0H   SFRSYM    DATA     BYTE      XICON
      000000B0H.4 SFRSYM    DATA     BIT       T0
      000000D0H.6 SFRSYM    DATA     BIT       AC
      000000E8H   SFRSYM    DATA     BYTE      P4
      000000B0H.5 SFRSYM    DATA     BIT       T1
      000000E6H   SFRSYM    DATA     BYTE      ISP_TRIG
      00000090H.0 SFRSYM    DATA     BIT       T2
      000000A8H.7 SFRSYM    DATA     BIT       EA
      000000A8H.6 SFRSYM    DATA     BIT       EC
      00000098H.7 SFRSYM    DATA     BIT       FE
      000000A8H   SFRSYM    DATA     BYTE      IE
      000000C8H.6 SFRSYM    DATA     BIT       EXF2
      000000B0H.7 SFRSYM    DATA     BIT       RD
      000000A8H.4 SFRSYM    DATA     BIT       ES
      000000B8H   SFRSYM    DATA     BYTE      IP
      00000098H.0 SFRSYM    DATA     BIT       RI
      000000B0H.2 SFRSYM    DATA     BIT       INT0
      000000D0H.7 SFRSYM    DATA     BIT       CY
      00000098H.1 SFRSYM    DATA     BIT       TI
      000000B0H.3 SFRSYM    DATA     BIT       INT1
      000000CBH   SFRSYM    DATA     BYTE      RCAP2H
      000000E5H   SFRSYM    DATA     BYTE      ISP_CMD
      000000B8H.4 SFRSYM    DATA     BIT       PS
      00000081H   SFRSYM    DATA     BYTE      SP
      00000090H.1 SFRSYM    DATA     BIT       T2EX
      000000D0H.2 SFRSYM    DATA     BIT       OV
      000000CAH   SFRSYM    DATA     BYTE      RCAP2L
      000000C8H.1 SFRSYM    DATA     BIT       C_T2
      000000B0H.6 SFRSYM    DATA     BIT       WR
      000000C8H.5 SFRSYM    DATA     BIT       RCLK
      000000C8H.4 SFRSYM    DATA     BIT       TCLK
      00000080H.0 SFRSYM    DATA     BIT       P00
      00000099H   SFRSYM    DATA     BYTE      SBUF
      00000087H   SFRSYM    DATA     BYTE      PCON
      00000090H.0 SFRSYM    DATA     BIT       P10
      00000080H.1 SFRSYM    DATA     BIT       P01
      000000A0H.0 SFRSYM    DATA     BIT       P20
      00000090H.1 SFRSYM    DATA     BIT       P11
      00000080H.2 SFRSYM    DATA     BIT       P02
      000000E3H   SFRSYM    DATA     BYTE      ISP_ADDRH
      000000B0H.0 SFRSYM    DATA     BIT       P30
      000000A0H.1 SFRSYM    DATA     BIT       P21
      00000090H.2 SFRSYM    DATA     BIT       P12
      00000080H.3 SFRSYM    DATA     BIT       P03
LX51 LINKER/LOCATER V4.66.87.0                                                        06/04/2018  21:13:51  PAGE 129


      00000098H   SFRSYM    DATA     BYTE      SCON
      000000B0H.1 SFRSYM    DATA     BIT       P31
      000000A0H.2 SFRSYM    DATA     BIT       P22
      00000090H.3 SFRSYM    DATA     BIT       P13
      00000080H.4 SFRSYM    DATA     BIT       P04
      000000E8H.0 SFRSYM    DATA     BIT       P40
      00000089H   SFRSYM    DATA     BYTE      TMOD
      00000088H   SFRSYM    DATA     BYTE      TCON
      000000B0H.2 SFRSYM    DATA     BIT       P32
      000000A0H.3 SFRSYM    DATA     BIT       P23
      00000090H.4 SFRSYM    DATA     BIT       P14
      00000080H.5 SFRSYM    DATA     BIT       P05
      000000E8H.1 SFRSYM    DATA     BIT       P41
      000000B0H.3 SFRSYM    DATA     BIT       P33
      000000A0H.4 SFRSYM    DATA     BIT       P24
      00000090H.5 SFRSYM    DATA     BIT       P15
      00000080H.6 SFRSYM    DATA     BIT       P06
      000000E4H   SFRSYM    DATA     BYTE      ISP_ADDRL
      000000E8H.2 SFRSYM    DATA     BIT       P42
      000000B0H.4 SFRSYM    DATA     BIT       P34
      000000A0H.5 SFRSYM    DATA     BIT       P25
      00000090H.6 SFRSYM    DATA     BIT       P16
      00000080H.7 SFRSYM    DATA     BIT       P07
      000000E8H.3 SFRSYM    DATA     BIT       P43
      000000B0H.5 SFRSYM    DATA     BIT       P35
      000000A0H.6 SFRSYM    DATA     BIT       P26
      00000090H.7 SFRSYM    DATA     BIT       P17
      000000E8H.4 SFRSYM    DATA     BIT       P44
      000000B0H.6 SFRSYM    DATA     BIT       P36
      000000A0H.7 SFRSYM    DATA     BIT       P27
      000000E8H.5 SFRSYM    DATA     BIT       P45
      000000B0H.7 SFRSYM    DATA     BIT       P37
      000000E8H.6 SFRSYM    DATA     BIT       P46
      00000088H.1 SFRSYM    DATA     BIT       IE0
      00000088H.3 SFRSYM    DATA     BIT       IE1
      0000008EH   SFRSYM    DATA     BYTE      AUXR
      000000F0H   SFRSYM    DATA     BYTE      B
      000000C8H.0 SFRSYM    DATA     BIT       CP_RL2
      000000E0H   SFRSYM    DATA     BYTE      ACC
      000000A8H.1 SFRSYM    DATA     BIT       ET0
      000000A8H.3 SFRSYM    DATA     BIT       ET1
      00000088H.5 SFRSYM    DATA     BIT       TF0
      000000A8H.5 SFRSYM    DATA     BIT       ET2
      00000088H.7 SFRSYM    DATA     BIT       TF1
      000000C8H.7 SFRSYM    DATA     BIT       TF2
      00000098H.2 SFRSYM    DATA     BIT       RB8
      0000008CH   SFRSYM    DATA     BYTE      TH0
      000000A8H.0 SFRSYM    DATA     BIT       EX0
      00000088H.0 SFRSYM    DATA     BIT       IT0
      0000008DH   SFRSYM    DATA     BYTE      TH1
      00000098H.3 SFRSYM    DATA     BIT       TB8
      000000A8H.2 SFRSYM    DATA     BIT       EX1
      00000088H.2 SFRSYM    DATA     BIT       IT1
      000000CDH   SFRSYM    DATA     BYTE      TH2
      000000D0H.0 SFRSYM    DATA     BIT       P
      00000098H.7 SFRSYM    DATA     BIT       SM0
      0000008AH   SFRSYM    DATA     BYTE      TL0
      00000098H.6 SFRSYM    DATA     BIT       SM1
      0000008BH   SFRSYM    DATA     BYTE      TL1
      00000098H.5 SFRSYM    DATA     BIT       SM2
      000000CCH   SFRSYM    DATA     BYTE      TL2
      000000B8H.1 SFRSYM    DATA     BIT       PT0
      000000B8H.3 SFRSYM    DATA     BIT       PT1
      000000D0H.3 SFRSYM    DATA     BIT       RS0
      000000E7H   SFRSYM    DATA     BYTE      ISP_CONTR
LX51 LINKER/LOCATER V4.66.87.0                                                        06/04/2018  21:13:51  PAGE 130


      000000B8H.5 SFRSYM    DATA     BIT       PT2
      00000088H.4 SFRSYM    DATA     BIT       TR0
      000000D0H.4 SFRSYM    DATA     BIT       RS1
      00000088H.6 SFRSYM    DATA     BIT       TR1
      000000C8H.2 SFRSYM    DATA     BIT       TR2
      000000B8H.0 SFRSYM    DATA     BIT       PX0
      000000E1H   SFRSYM    DATA     BYTE      WDT_CONTR
      000000B8H.2 SFRSYM    DATA     BIT       PX1
      00000083H   SFRSYM    DATA     BYTE      DPH
      00000082H   SFRSYM    DATA     BYTE      DPL
      000000B7H   SFRSYM    DATA     BYTE      IPH
      000000C8H.3 SFRSYM    DATA     BIT       EXEN2
      00000098H.4 SFRSYM    DATA     BIT       REN
      000000C9H   SFRSYM    DATA     BYTE      T2MOD
      000000C8H   SFRSYM    DATA     BYTE      T2CON
      000000E2H   SFRSYM    DATA     BYTE      ISP_DATA
      000000B9H   SFRSYM    DATA     BYTE      SADEN
      000000B0H.0 SFRSYM    DATA     BIT       RXD
      000000A9H   SFRSYM    DATA     BYTE      SADDR
      000000B0H.1 SFRSYM    DATA     BIT       TXD
      000000A2H   SFRSYM    DATA     BYTE      AUXR1
      000000D0H.5 SFRSYM    DATA     BIT       F0
      000000D0H   SFRSYM    DATA     BYTE      PSW
      020000E6H   SYMBOL    XDATA    BYTE      display_mode
      01009F98H   SYMBOL    CONST    ---       date_table
      01006AEEH   SYMBOL    CODE     ---       clock0_ISR
      0000003FH   SYMBOL    IDATA    BYTE      sec_256
      00000040H   SYMBOL    IDATA    ---       clk
      00000023H.0 SYMBOL    BIT      BIT       display_enable
      00000023H.1 SYMBOL    BIT      BIT       in_shell
      010021ECH   SYMBOL    CODE     ---       clock_inc_ms39
      00000023H.2 SYMBOL    BIT      BIT       clk_is12

      01004CC7H   BLOCK     CODE     ---       LVL=0
      ---         BLOCKEND  ---      ---       LVL=0

      01008CDBH   BLOCK     CODE     ---       LVL=0
      00000020H.0 SYMBOL    BIT      BIT       enable
      01008CDBH   LINE      CODE     ---       #129
      01008CDBH   LINE      CODE     ---       #130
      01008CDBH   LINE      CODE     ---       #131
      01008CDFH   LINE      CODE     ---       #132
      ---         BLOCKEND  ---      ---       LVL=0

      01008CA1H   BLOCK     CODE     ---       LVL=0
      00000007H   SYMBOL    DATA     BYTE      mode
      01008CA1H   LINE      CODE     ---       #134
      01008CA1H   LINE      CODE     ---       #135
      01008CA1H   LINE      CODE     ---       #136
      01008CA6H   LINE      CODE     ---       #137
      ---         BLOCKEND  ---      ---       LVL=0

      010021ECH   BLOCK     CODE     ---       LVL=0
      010021ECH   BLOCK     CODE     NEAR LAB  LVL=1
      00000005H   SYMBOL    DATA     BYTE      hour
      00000021H.3 SYMBOL    BIT      BIT       is_pm
      ---         BLOCKEND  ---      ---       LVL=1
      010021ECH   LINE      CODE     ---       #140
      010021ECH   LINE      CODE     ---       #141
      010021ECH   LINE      CODE     ---       #145
      010021EFH   LINE      CODE     ---       #147
      010021F9H   LINE      CODE     ---       #148
      010021FFH   LINE      CODE     ---       #149
      010021FFH   LINE      CODE     ---       #151
      01002204H   LINE      CODE     ---       #152
LX51 LINKER/LOCATER V4.66.87.0                                                        06/04/2018  21:13:51  PAGE 131


      0100220AH   LINE      CODE     ---       #153
      0100220AH   LINE      CODE     ---       #155
      0100220FH   LINE      CODE     ---       #156
      01002219H   LINE      CODE     ---       #157
      0100221CH   LINE      CODE     ---       #158
      0100221FH   LINE      CODE     ---       #159
      01002225H   LINE      CODE     ---       #160
      0100222AH   LINE      CODE     ---       #161
      0100222FH   LINE      CODE     ---       #162
      01002234H   LINE      CODE     ---       #163
      01002239H   LINE      CODE     ---       #164
      0100223EH   LINE      CODE     ---       #165
      0100225AH   LINE      CODE     ---       #166
      01002264H   LINE      CODE     ---       #167
      01002267H   LINE      CODE     ---       #168
      01002272H   LINE      CODE     ---       #169
      01002275H   LINE      CODE     ---       #170
      0100227FH   LINE      CODE     ---       #171
      0100227FH   LINE      CODE     ---       #172
      0100227FH   LINE      CODE     ---       #173
      0100227FH   LINE      CODE     ---       #174
      0100227FH   LINE      CODE     ---       #175
      0100227FH   LINE      CODE     ---       #176
      0100227FH   LINE      CODE     ---       #177
      0100228BH   LINE      CODE     ---       #178
      01002292H   LINE      CODE     ---       #179
      01002297H   LINE      CODE     ---       #180
      01002299H   LINE      CODE     ---       #181
      010022A1H   LINE      CODE     ---       #182
      010022A5H   LINE      CODE     ---       #183
      010022A7H   LINE      CODE     ---       #184
      010022B0H   LINE      CODE     ---       #185
      010022B2H   LINE      CODE     ---       #186
      010022B2H   LINE      CODE     ---       #188
      010022B9H   LINE      CODE     ---       #189
      010022C7H   LINE      CODE     ---       #190
      010022C9H   LINE      CODE     ---       #191
      010022D6H   LINE      CODE     ---       #192
      010022D6H   LINE      CODE     ---       #193
      010022E1H   LINE      CODE     ---       #194
      010022E6H   LINE      CODE     ---       #195
      010022ECH   LINE      CODE     ---       #196
      010022F1H   LINE      CODE     ---       #197
      010022F9H   LINE      CODE     ---       #198
      010022FFH   LINE      CODE     ---       #199
      01002310H   LINE      CODE     ---       #200
      01002317H   LINE      CODE     ---       #201
      0100231EH   LINE      CODE     ---       #202
      01002328H   LINE      CODE     ---       #203
      0100232AH   LINE      CODE     ---       #204
      0100232AH   LINE      CODE     ---       #205
      0100232CH   LINE      CODE     ---       #206
      01002336H   LINE      CODE     ---       #207
      0100233CH   LINE      CODE     ---       #208
      01002342H   LINE      CODE     ---       #209
      01002348H   LINE      CODE     ---       #210
      0100234FH   LINE      CODE     ---       #211
      01002358H   LINE      CODE     ---       #212
      01002358H   LINE      CODE     ---       #213
      01002358H   LINE      CODE     ---       #214
      ---         BLOCKEND  ---      ---       LVL=0

      01004350H   BLOCK     CODE     ---       LVL=0
      01004350H   LINE      CODE     ---       #217
      01004350H   LINE      CODE     ---       #218
LX51 LINKER/LOCATER V4.66.87.0                                                        06/04/2018  21:13:51  PAGE 132


      01004350H   LINE      CODE     ---       #219
      01004356H   LINE      CODE     ---       #220
      01004362H   LINE      CODE     ---       #221
      01004368H   LINE      CODE     ---       #222
      01004374H   LINE      CODE     ---       #223
      0100437AH   LINE      CODE     ---       #224
      0100438BH   LINE      CODE     ---       #225
      01004391H   LINE      CODE     ---       #226
      010043A2H   LINE      CODE     ---       #227
      010043C0H   LINE      CODE     ---       #228
      ---         BLOCKEND  ---      ---       LVL=0

      010029A7H   BLOCK     CODE     ---       LVL=0
      00000004H   SYMBOL    DATA     BYTE      year
      00000005H   SYMBOL    DATA     BYTE      mon
      00000003H   SYMBOL    DATA     BYTE      date
      010029A9H   BLOCK     CODE     NEAR LAB  LVL=1
      02000017H   SYMBOL    XDATA    WORD      d
      02000019H   SYMBOL    XDATA    WORD      m
      0200001BH   SYMBOL    XDATA    WORD      y
      0200001DH   SYMBOL    XDATA    WORD      c
      ---         BLOCKEND  ---      ---       LVL=1
      010029A7H   LINE      CODE     ---       #235
      010029A9H   LINE      CODE     ---       #236
      010029A9H   LINE      CODE     ---       #238
      010029B6H   LINE      CODE     ---       #239
      010029C3H   LINE      CODE     ---       #240
      010029CFH   LINE      CODE     ---       #242
      010029D8H   LINE      CODE     ---       #243
      010029E2H   LINE      CODE     ---       #244
      010029ECH   LINE      CODE     ---       #245
      010029ECH   LINE      CODE     ---       #247
      010029FBH   LINE      CODE     ---       #248
      01002A11H   LINE      CODE     ---       #250
      01002A88H   LINE      CODE     ---       #251
      01002AA5H   LINE      CODE     ---       #253
      01002AA8H   LINE      CODE     ---       #254
      01002AABH   LINE      CODE     ---       #255
      01002AABH   LINE      CODE     ---       #257
      01002AB2H   LINE      CODE     ---       #258
      ---         BLOCKEND  ---      ---       LVL=0

      01008D48H   BLOCK     CODE     ---       LVL=0
      01008D48H   LINE      CODE     ---       #260
      01008D48H   LINE      CODE     ---       #261
      01008D48H   LINE      CODE     ---       #262
      01008D4AH   LINE      CODE     ---       #263
      ---         BLOCKEND  ---      ---       LVL=0

      01008CE0H   BLOCK     CODE     ---       LVL=0
      00000020H.1 SYMBOL    BIT      BIT       enable
      01008CE0H   LINE      CODE     ---       #264
      01008CE0H   LINE      CODE     ---       #265
      01008CE0H   LINE      CODE     ---       #266
      01008CE4H   LINE      CODE     ---       #267
      ---         BLOCKEND  ---      ---       LVL=0

      01008CE5H   BLOCK     CODE     ---       LVL=0
      01008CE5H   LINE      CODE     ---       #269
      01008CE5H   LINE      CODE     ---       #270
      01008CE5H   LINE      CODE     ---       #271
      01008CE9H   LINE      CODE     ---       #272
      ---         BLOCKEND  ---      ---       LVL=0

      01008CEAH   BLOCK     CODE     ---       LVL=0
LX51 LINKER/LOCATER V4.66.87.0                                                        06/04/2018  21:13:51  PAGE 133


      01008CEAH   LINE      CODE     ---       #274
      01008CEAH   LINE      CODE     ---       #275
      01008CEAH   LINE      CODE     ---       #276
      01008CEEH   LINE      CODE     ---       #277
      ---         BLOCKEND  ---      ---       LVL=0

      01008CEFH   BLOCK     CODE     ---       LVL=0
      01008CEFH   LINE      CODE     ---       #279
      01008CEFH   LINE      CODE     ---       #280
      01008CEFH   LINE      CODE     ---       #281
      01008CF3H   LINE      CODE     ---       #282
      ---         BLOCKEND  ---      ---       LVL=0

      01008CF4H   BLOCK     CODE     ---       LVL=0
      01008CF4H   LINE      CODE     ---       #283
      01008CF4H   LINE      CODE     ---       #284
      01008CF4H   LINE      CODE     ---       #285
      01008CF8H   LINE      CODE     ---       #286
      ---         BLOCKEND  ---      ---       LVL=0

      01008CF9H   BLOCK     CODE     ---       LVL=0
      01008CF9H   LINE      CODE     ---       #288
      01008CF9H   LINE      CODE     ---       #289
      01008CF9H   LINE      CODE     ---       #290
      01008CFDH   LINE      CODE     ---       #291
      ---         BLOCKEND  ---      ---       LVL=0

      01008A3FH   BLOCK     CODE     ---       LVL=0
      01008A3FH   LINE      CODE     ---       #292
      01008A3FH   LINE      CODE     ---       #293
      01008A3FH   LINE      CODE     ---       #294
      01008A49H   LINE      CODE     ---       #295
      ---         BLOCKEND  ---      ---       LVL=0

      01008CFEH   BLOCK     CODE     ---       LVL=0
      01008CFEH   LINE      CODE     ---       #297
      01008CFEH   LINE      CODE     ---       #298
      01008CFEH   LINE      CODE     ---       #299
      01008D02H   LINE      CODE     ---       #300
      ---         BLOCKEND  ---      ---       LVL=0

      01008A4AH   BLOCK     CODE     ---       LVL=0
      01008A4AH   LINE      CODE     ---       #301
      01008A4AH   LINE      CODE     ---       #302
      01008A4AH   LINE      CODE     ---       #303
      01008A54H   LINE      CODE     ---       #304
      ---         BLOCKEND  ---      ---       LVL=0

      01008CA7H   BLOCK     CODE     ---       LVL=0
      01008CA7H   LINE      CODE     ---       #307
      01008CA7H   LINE      CODE     ---       #308
      01008CA7H   LINE      CODE     ---       #309
      01008CACH   LINE      CODE     ---       #310
      ---         BLOCKEND  ---      ---       LVL=0

      0100798CH   BLOCK     CODE     ---       LVL=0
      0100798CH   LINE      CODE     ---       #311
      0100798CH   LINE      CODE     ---       #312
      0100798CH   LINE      CODE     ---       #313
      0100799FH   LINE      CODE     ---       #314
      010079ABH   LINE      CODE     ---       #315
      ---         BLOCKEND  ---      ---       LVL=0

      01008CADH   BLOCK     CODE     ---       LVL=0
      01008CADH   LINE      CODE     ---       #317
LX51 LINKER/LOCATER V4.66.87.0                                                        06/04/2018  21:13:51  PAGE 134


      01008CADH   LINE      CODE     ---       #318
      01008CADH   LINE      CODE     ---       #319
      01008CB2H   LINE      CODE     ---       #320
      ---         BLOCKEND  ---      ---       LVL=0

      01008CB3H   BLOCK     CODE     ---       LVL=0
      01008CB3H   LINE      CODE     ---       #322
      01008CB3H   LINE      CODE     ---       #323
      01008CB3H   LINE      CODE     ---       #324
      01008CB8H   LINE      CODE     ---       #325
      ---         BLOCKEND  ---      ---       LVL=0

      01008385H   BLOCK     CODE     ---       LVL=0
      01008385H   LINE      CODE     ---       #326
      01008385H   LINE      CODE     ---       #327
      01008385H   LINE      CODE     ---       #328
      0100838FH   LINE      CODE     ---       #329
      0100839AH   LINE      CODE     ---       #330
      ---         BLOCKEND  ---      ---       LVL=0

      01008D03H   BLOCK     CODE     ---       LVL=0
      01008D03H   LINE      CODE     ---       #332
      01008D03H   LINE      CODE     ---       #333
      01008D03H   LINE      CODE     ---       #334
      01008D07H   LINE      CODE     ---       #335
      ---         BLOCKEND  ---      ---       LVL=0

      01008432H   BLOCK     CODE     ---       LVL=0
      01008432H   LINE      CODE     ---       #336
      01008432H   LINE      CODE     ---       #337
      01008432H   LINE      CODE     ---       #338
      0100843CH   LINE      CODE     ---       #339
      01008446H   LINE      CODE     ---       #340
      ---         BLOCKEND  ---      ---       LVL=0

      010055C9H   BLOCK     CODE     ---       LVL=0
      02000013H   SYMBOL    XDATA    BYTE      type
      010055C9H   LINE      CODE     ---       #342
      010055CEH   LINE      CODE     ---       #343
      010055CEH   LINE      CODE     ---       #344
      010055DBH   LINE      CODE     ---       #345
      010055E1H   LINE      CODE     ---       #346
      010055E5H   LINE      CODE     ---       #347
      010055ECH   LINE      CODE     ---       #348
      010055F2H   LINE      CODE     ---       #349
      010055F8H   LINE      CODE     ---       #350
      010055FBH   LINE      CODE     ---       #351
      01005600H   LINE      CODE     ---       #352
      01005608H   LINE      CODE     ---       #353
      0100560DH   LINE      CODE     ---       #354
      01005614H   LINE      CODE     ---       #355
      0100561BH   LINE      CODE     ---       #356
      01005622H   LINE      CODE     ---       #357
      01005629H   LINE      CODE     ---       #358
      01005629H   LINE      CODE     ---       #359
      ---         BLOCKEND  ---      ---       LVL=0

      010051C1H   BLOCK     CODE     ---       LVL=0
      02000016H   SYMBOL    XDATA    BYTE      type
      010051C1H   LINE      CODE     ---       #361
      010051C6H   LINE      CODE     ---       #362
      010051C6H   LINE      CODE     ---       #363
      010051D3H   LINE      CODE     ---       #364
      010051D8H   LINE      CODE     ---       #365
      010051DEH   LINE      CODE     ---       #366
LX51 LINKER/LOCATER V4.66.87.0                                                        06/04/2018  21:13:51  PAGE 135


      010051E2H   LINE      CODE     ---       #367
      010051E9H   LINE      CODE     ---       #368
      010051F0H   LINE      CODE     ---       #369
      010051F6H   LINE      CODE     ---       #370
      010051FCH   LINE      CODE     ---       #371
      010051FEH   LINE      CODE     ---       #372
      01005208H   LINE      CODE     ---       #373
      0100520DH   LINE      CODE     ---       #374
      01005214H   LINE      CODE     ---       #375
      0100521BH   LINE      CODE     ---       #376
      01005222H   LINE      CODE     ---       #377
      01005227H   LINE      CODE     ---       #378
      01005227H   LINE      CODE     ---       #379
      ---         BLOCKEND  ---      ---       LVL=0

      01006AEEH   BLOCK     CODE     ---       LVL=0
      01006AEEH   LINE      CODE     ---       #382
      01006B02H   LINE      CODE     ---       #385
      01006B05H   LINE      CODE     ---       #387
      01006B08H   LINE      CODE     ---       #388
      01006B0CH   LINE      CODE     ---       #390
      01006B0CH   LINE      CODE     ---       #392
      01006B0FH   LINE      CODE     ---       #393
      01006B12H   LINE      CODE     ---       #395
      01006B14H   LINE      CODE     ---       #396
      ---         BLOCKEND  ---      ---       LVL=0

      01008278H   BLOCK     CODE     ---       LVL=0
      00000007H   SYMBOL    DATA     BYTE      year
      01008278H   LINE      CODE     ---       #400
      01008278H   LINE      CODE     ---       #401
      01008278H   LINE      CODE     ---       #402
      01008280H   LINE      CODE     ---       #403
      0100828EH   LINE      CODE     ---       #404
      ---         BLOCKEND  ---      ---       LVL=0

      01007BB5H   BLOCK     CODE     ---       LVL=0
      00000007H   SYMBOL    DATA     BYTE      year
      00000005H   SYMBOL    DATA     BYTE      mon
      01007BB5H   LINE      CODE     ---       #406
      01007BB5H   LINE      CODE     ---       #407
      01007BB5H   LINE      CODE     ---       #408
      01007BBDH   LINE      CODE     ---       #409
      01007BC5H   LINE      CODE     ---       #410
      01007BD1H   LINE      CODE     ---       #411
      ---         BLOCKEND  ---      ---       LVL=0

      01008B8BH   BLOCK     CODE     ---       LVL=0
      00000020H.2 SYMBOL    BIT      BIT       enable
      01008B8BH   LINE      CODE     ---       #413
      01008B8BH   LINE      CODE     ---       #414
      01008B8BH   LINE      CODE     ---       #415
      01008B8FH   LINE      CODE     ---       #416
      01008B93H   LINE      CODE     ---       #417
      ---         BLOCKEND  ---      ---       LVL=0

      0100712DH   BLOCK     CODE     ---       LVL=0
      0100712DH   LINE      CODE     ---       #419
      0100712DH   LINE      CODE     ---       #420
      0100712DH   LINE      CODE     ---       #421
      01007136H   LINE      CODE     ---       #422
      0100713BH   LINE      CODE     ---       #423
      01007140H   LINE      CODE     ---       #428
      01007143H   LINE      CODE     ---       #429
      01007146H   LINE      CODE     ---       #430
LX51 LINKER/LOCATER V4.66.87.0                                                        06/04/2018  21:13:51  PAGE 136


      01007149H   LINE      CODE     ---       #431
      0100714BH   LINE      CODE     ---       #432
      01007150H   LINE      CODE     ---       #433
      01007152H   LINE      CODE     ---       #435
      01007157H   LINE      CODE     ---       #437
      ---         BLOCKEND  ---      ---       LVL=0

      0100891CH   BLOCK     CODE     ---       LVL=0
      0100891CH   LINE      CODE     ---       #441
      0100891CH   LINE      CODE     ---       #442
      0100891CH   LINE      CODE     ---       #443
      01008925H   LINE      CODE     ---       #444
      ---         BLOCKEND  ---      ---       LVL=0

      010080FEH   BLOCK     CODE     ---       LVL=0
      010080FEH   LINE      CODE     ---       #447
      010080FEH   LINE      CODE     ---       #448
      010080FEH   LINE      CODE     ---       #449
      01008107H   LINE      CODE     ---       #450
      0100810CH   LINE      CODE     ---       #451
      01008111H   LINE      CODE     ---       #452
      ---         BLOCKEND  ---      ---       LVL=0

      01008D4BH   BLOCK     CODE     ---       LVL=0
      01008D4BH   LINE      CODE     ---       #455
      01008D4BH   LINE      CODE     ---       #456
      01008D4BH   LINE      CODE     ---       #457
      01008D4DH   LINE      CODE     ---       #458
      ---         BLOCKEND  ---      ---       LVL=0

      0100839BH   BLOCK     CODE     ---       LVL=0
      0100839BH   LINE      CODE     ---       #460
      0100839BH   LINE      CODE     ---       #461
      0100839BH   LINE      CODE     ---       #462
      0100839DH   LINE      CODE     ---       #463
      010083A2H   LINE      CODE     ---       #464
      010083A7H   LINE      CODE     ---       #465
      010083ACH   LINE      CODE     ---       #466
      ---         BLOCKEND  ---      ---       LVL=0

      ---         MODULE    ---      ---       TIMER
      01008146H   PUBLIC    CODE     ---       timer_clr
      01008D4EH   PUBLIC    CODE     ---       timer_stop
      01007860H   PUBLIC    CODE     ---       _timer_get_ms10
      0100812EH   PUBLIC    CODE     ---       _timer_inc_sec
      0100853AH   PUBLIC    CODE     ---       _timer_get_sec
      01008116H   PUBLIC    CODE     ---       _timer_inc_min
      01008526H   PUBLIC    CODE     ---       _timer_get_min
      01007C46H   PUBLIC    CODE     ---       _timer_inc_hour
      01008512H   PUBLIC    CODE     ---       _timer_get_hour
      0100730EH   PUBLIC    CODE     ---       _timer_save
      010083B1H   PUBLIC    CODE     ---       timer_start
      01008CB9H   PUBLIC    CODE     ---       _timer_set_mode
      00000020H.0 PUBLIC    BIT      BIT       ?timer_set_led_autorefresh?BIT
      02000014H   PUBLIC    XDATA    BYTE      ?timer_set_led_autorefresh?BYTE
      010087A7H   PUBLIC    CODE     ---       timer_set_led_autorefresh
      01008B94H   PUBLIC    CODE     ---       timer_leave_powersave
      010089BDH   PUBLIC    CODE     ---       timer_enter_powersave
      0100865CH   PUBLIC    CODE     ---       timer_initialize
      01002DC1H   PUBLIC    CODE     ---       timer_inc_ms39
      00000022H.1 SYMBOL    BIT      BIT       tmr_display
      00000022H.2 SYMBOL    BIT      BIT       tmr_countdown_stop
      020000A6H   SYMBOL    XDATA    ---       tmr
      020000BAH   SYMBOL    XDATA    BYTE      tmr_mode
      00000022H.3 SYMBOL    BIT      BIT       tmr_start
LX51 LINKER/LOCATER V4.66.87.0                                                        06/04/2018  21:13:51  PAGE 137


      00000022H.4 SYMBOL    BIT      BIT       tmr_disp_mmssms

      01005297H   BLOCK     CODE     ---       LVL=0
      ---         BLOCKEND  ---      ---       LVL=0

      01002DC1H   BLOCK     CODE     ---       LVL=0
      01002DC1H   BLOCK     CODE     NEAR LAB  LVL=1
      00000007H   SYMBOL    DATA     BYTE      ms10
      ---         BLOCKEND  ---      ---       LVL=1
      01002DC1H   LINE      CODE     ---       #18
      01002DC1H   LINE      CODE     ---       #19
      01002DC1H   LINE      CODE     ---       #22
      01002DC7H   LINE      CODE     ---       #25
      01002DCDH   LINE      CODE     ---       #26
      01002DD3H   LINE      CODE     ---       #27
      01002DD9H   LINE      CODE     ---       #28
      01002DE2H   LINE      CODE     ---       #29
      01002DE5H   LINE      CODE     ---       #30
      01002DEEH   LINE      CODE     ---       #31
      01002DF1H   LINE      CODE     ---       #32
      01002DFEH   LINE      CODE     ---       #33
      01002DFEH   LINE      CODE     ---       #34
      01002DFEH   LINE      CODE     ---       #35
      01002DFEH   LINE      CODE     ---       #36
      01002E00H   LINE      CODE     ---       #37
      01002E03H   LINE      CODE     ---       #38
      01002E1BH   LINE      CODE     ---       #41
      01002E1BH   LINE      CODE     ---       #42
      01002E21H   LINE      CODE     ---       #43
      01002E25H   LINE      CODE     ---       #44
      01002E2BH   LINE      CODE     ---       #45
      01002E2FH   LINE      CODE     ---       #46
      01002E32H   LINE      CODE     ---       #47
      01002E38H   LINE      CODE     ---       #48
      01002E3CH   LINE      CODE     ---       #49
      01002E3FH   LINE      CODE     ---       #50
      01002E48H   LINE      CODE     ---       #51
      01002E4BH   LINE      CODE     ---       #52
      01002E4BH   LINE      CODE     ---       #53
      01002E4BH   LINE      CODE     ---       #54
      01002E4BH   LINE      CODE     ---       #55
      01002E4BH   LINE      CODE     ---       #56
      01002E4DH   LINE      CODE     ---       #57
      01002E4FH   LINE      CODE     ---       #58
      01002E58H   LINE      CODE     ---       #59
      01002E58H   LINE      CODE     ---       #60
      01002E58H   LINE      CODE     ---       #61
      01002E58H   LINE      CODE     ---       #62
      01002E5BH   LINE      CODE     ---       #63
      01002E64H   LINE      CODE     ---       #64
      01002E67H   LINE      CODE     ---       #65
      01002E71H   LINE      CODE     ---       #66
      01002E75H   LINE      CODE     ---       #67
      01002E7EH   LINE      CODE     ---       #68
      01002E82H   LINE      CODE     ---       #69
      01002E87H   LINE      CODE     ---       #70
      01002E87H   LINE      CODE     ---       #71
      01002E89H   LINE      CODE     ---       #72
      01002E94H   LINE      CODE     ---       #73
      01002E97H   LINE      CODE     ---       #74
      01002EA1H   LINE      CODE     ---       #75
      01002EA4H   LINE      CODE     ---       #76
      01002EAEH   LINE      CODE     ---       #77
      01002EB1H   LINE      CODE     ---       #78
      01002EB1H   LINE      CODE     ---       #79
LX51 LINKER/LOCATER V4.66.87.0                                                        06/04/2018  21:13:51  PAGE 138


      01002EB7H   LINE      CODE     ---       #80
      01002EBDH   LINE      CODE     ---       #81
      01002EBDH   LINE      CODE     ---       #82
      ---         BLOCKEND  ---      ---       LVL=0

      0100865CH   BLOCK     CODE     ---       LVL=0
      0100865CH   LINE      CODE     ---       #85
      0100865CH   LINE      CODE     ---       #86
      0100865CH   LINE      CODE     ---       #87
      01008665H   LINE      CODE     ---       #89
      01008667H   LINE      CODE     ---       #90
      01008669H   LINE      CODE     ---       #91
      0100866BH   LINE      CODE     ---       #92
      0100866DH   LINE      CODE     ---       #93
      ---         BLOCKEND  ---      ---       LVL=0

      010089BDH   BLOCK     CODE     ---       LVL=0
      010089BDH   LINE      CODE     ---       #95
      010089BDH   LINE      CODE     ---       #96
      010089BDH   LINE      CODE     ---       #97
      010089C6H   LINE      CODE     ---       #98
      ---         BLOCKEND  ---      ---       LVL=0

      01008B94H   BLOCK     CODE     ---       LVL=0
      01008B94H   LINE      CODE     ---       #101
      01008B94H   LINE      CODE     ---       #102
      01008B94H   LINE      CODE     ---       #103
      ---         BLOCKEND  ---      ---       LVL=0

      010087A7H   BLOCK     CODE     ---       LVL=0
      00000020H.0 SYMBOL    BIT      BIT       enable
      02000014H   SYMBOL    XDATA    BYTE      mode
      010087A7H   LINE      CODE     ---       #106
      010087A7H   LINE      CODE     ---       #107
      010087A7H   LINE      CODE     ---       #108
      010087ABH   LINE      CODE     ---       #109
      010087B1H   LINE      CODE     ---       #110
      010087B3H   LINE      CODE     ---       #111
      010087B4H   LINE      CODE     ---       #112
      010087B6H   LINE      CODE     ---       #113
      010087B6H   LINE      CODE     ---       #114
      ---         BLOCKEND  ---      ---       LVL=0

      01008CB9H   BLOCK     CODE     ---       LVL=0
      00000007H   SYMBOL    DATA     BYTE      mode
      01008CB9H   LINE      CODE     ---       #116
      01008CB9H   LINE      CODE     ---       #117
      01008CB9H   LINE      CODE     ---       #118
      01008CBEH   LINE      CODE     ---       #119
      ---         BLOCKEND  ---      ---       LVL=0

      010083B1H   BLOCK     CODE     ---       LVL=0
      010083B1H   LINE      CODE     ---       #121
      010083B1H   LINE      CODE     ---       #122
      010083B1H   LINE      CODE     ---       #123
      010083C2H   LINE      CODE     ---       #124
      010083C4H   LINE      CODE     ---       #125
      010083C6H   LINE      CODE     ---       #126
      ---         BLOCKEND  ---      ---       LVL=0

      0100730EH   BLOCK     CODE     ---       LVL=0
      00000007H   SYMBOL    DATA     BYTE      slot
      0100730EH   LINE      CODE     ---       #128
      0100730EH   LINE      CODE     ---       #129
      0100730EH   LINE      CODE     ---       #130
LX51 LINKER/LOCATER V4.66.87.0                                                        06/04/2018  21:13:51  PAGE 139


      01007319H   LINE      CODE     ---       #131
      01007337H   LINE      CODE     ---       #132
      01007337H   LINE      CODE     ---       #133
      ---         BLOCKEND  ---      ---       LVL=0

      01008512H   BLOCK     CODE     ---       LVL=0
      00000007H   SYMBOL    DATA     BYTE      slot
      01008512H   LINE      CODE     ---       #135
      01008512H   LINE      CODE     ---       #136
      01008512H   LINE      CODE     ---       #137
      0100851DH   LINE      CODE     ---       #138
      01008523H   LINE      CODE     ---       #139
      01008523H   LINE      CODE     ---       #140
      01008525H   LINE      CODE     ---       #141
      ---         BLOCKEND  ---      ---       LVL=0

      01007C46H   BLOCK     CODE     ---       LVL=0
      00000007H   SYMBOL    DATA     BYTE      slot
      01007C46H   LINE      CODE     ---       #142
      01007C46H   LINE      CODE     ---       #143
      01007C46H   LINE      CODE     ---       #144
      01007C51H   LINE      CODE     ---       #145
      01007C61H   LINE      CODE     ---       #146
      01007C61H   LINE      CODE     ---       #147
      ---         BLOCKEND  ---      ---       LVL=0

      01008526H   BLOCK     CODE     ---       LVL=0
      00000007H   SYMBOL    DATA     BYTE      slot
      01008526H   LINE      CODE     ---       #149
      01008526H   LINE      CODE     ---       #150
      01008526H   LINE      CODE     ---       #151
      01008531H   LINE      CODE     ---       #152
      01008537H   LINE      CODE     ---       #153
      01008537H   LINE      CODE     ---       #154
      01008539H   LINE      CODE     ---       #155
      ---         BLOCKEND  ---      ---       LVL=0

      01008116H   BLOCK     CODE     ---       LVL=0
      00000007H   SYMBOL    DATA     BYTE      slot
      01008116H   LINE      CODE     ---       #156
      01008116H   LINE      CODE     ---       #157
      01008116H   LINE      CODE     ---       #158
      01008121H   LINE      CODE     ---       #159
      0100812DH   LINE      CODE     ---       #160
      0100812DH   LINE      CODE     ---       #161
      ---         BLOCKEND  ---      ---       LVL=0

      0100853AH   BLOCK     CODE     ---       LVL=0
      00000007H   SYMBOL    DATA     BYTE      slot
      0100853AH   LINE      CODE     ---       #164
      0100853AH   LINE      CODE     ---       #165
      0100853AH   LINE      CODE     ---       #166
      01008545H   LINE      CODE     ---       #167
      0100854BH   LINE      CODE     ---       #168
      0100854BH   LINE      CODE     ---       #169
      0100854DH   LINE      CODE     ---       #170
      ---         BLOCKEND  ---      ---       LVL=0

      0100812EH   BLOCK     CODE     ---       LVL=0
      00000007H   SYMBOL    DATA     BYTE      slot
      0100812EH   LINE      CODE     ---       #171
      0100812EH   LINE      CODE     ---       #172
      0100812EH   LINE      CODE     ---       #173
      01008139H   LINE      CODE     ---       #174
      01008145H   LINE      CODE     ---       #175
LX51 LINKER/LOCATER V4.66.87.0                                                        06/04/2018  21:13:51  PAGE 140


      01008145H   LINE      CODE     ---       #176
      ---         BLOCKEND  ---      ---       LVL=0

      01007860H   BLOCK     CODE     ---       LVL=0
      00000007H   SYMBOL    DATA     BYTE      slot
      01007860H   LINE      CODE     ---       #178
      01007860H   LINE      CODE     ---       #179
      01007860H   LINE      CODE     ---       #181
      0100786BH   LINE      CODE     ---       #182
      0100787FH   LINE      CODE     ---       #183
      0100787FH   LINE      CODE     ---       #184
      01007881H   LINE      CODE     ---       #185
      ---         BLOCKEND  ---      ---       LVL=0

      01008D4EH   BLOCK     CODE     ---       LVL=0
      01008D4EH   LINE      CODE     ---       #187
      01008D4EH   LINE      CODE     ---       #188
      01008D4EH   LINE      CODE     ---       #189
      01008D50H   LINE      CODE     ---       #190
      ---         BLOCKEND  ---      ---       LVL=0

      01008146H   BLOCK     CODE     ---       LVL=0
      01008146H   LINE      CODE     ---       #192
      01008146H   LINE      CODE     ---       #193
      01008146H   LINE      CODE     ---       #194
      01008155H   LINE      CODE     ---       #196
      01008157H   LINE      CODE     ---       #197
      01008159H   LINE      CODE     ---       #198
      0100815BH   LINE      CODE     ---       #199
      0100815DH   LINE      CODE     ---       #200
      ---         BLOCKEND  ---      ---       LVL=0

      ---         MODULE    ---      ---       INT_HUB
      01005E33H   PUBLIC    CODE     ---       _scan_int_hub_proc
      01000F4CH   PUBLIC    CODE     ---       _int_hub_dump_ext_status
      01005505H   PUBLIC    CODE     ---       int_hub_get_status
      01006067H   PUBLIC    CODE     ---       int_hub_dump
      010074A9H   PUBLIC    CODE     ---       _int_hub_test_bit
      01005301H   PUBLIC    CODE     ---       int_hub_initialize
      00000080H   SFRSYM    DATA     BYTE      P0
      00000090H   SFRSYM    DATA     BYTE      P1
      000000A0H   SFRSYM    DATA     BYTE      P2
      000000B0H   SFRSYM    DATA     BYTE      P3
      000000C0H   SFRSYM    DATA     BYTE      XICON
      000000B0H.4 SFRSYM    DATA     BIT       T0
      000000D0H.6 SFRSYM    DATA     BIT       AC
      000000E8H   SFRSYM    DATA     BYTE      P4
      000000B0H.5 SFRSYM    DATA     BIT       T1
      000000E6H   SFRSYM    DATA     BYTE      ISP_TRIG
      00000090H.0 SFRSYM    DATA     BIT       T2
      000000A8H.7 SFRSYM    DATA     BIT       EA
      000000A8H.6 SFRSYM    DATA     BIT       EC
      00000098H.7 SFRSYM    DATA     BIT       FE
      000000A8H   SFRSYM    DATA     BYTE      IE
      000000C8H.6 SFRSYM    DATA     BIT       EXF2
      000000B0H.7 SFRSYM    DATA     BIT       RD
      000000A8H.4 SFRSYM    DATA     BIT       ES
      000000B8H   SFRSYM    DATA     BYTE      IP
      00000098H.0 SFRSYM    DATA     BIT       RI
      000000B0H.2 SFRSYM    DATA     BIT       INT0
      000000D0H.7 SFRSYM    DATA     BIT       CY
      00000098H.1 SFRSYM    DATA     BIT       TI
      000000B0H.3 SFRSYM    DATA     BIT       INT1
      000000CBH   SFRSYM    DATA     BYTE      RCAP2H
      000000E5H   SFRSYM    DATA     BYTE      ISP_CMD
LX51 LINKER/LOCATER V4.66.87.0                                                        06/04/2018  21:13:51  PAGE 141


      000000B8H.4 SFRSYM    DATA     BIT       PS
      00000081H   SFRSYM    DATA     BYTE      SP
      00000090H.1 SFRSYM    DATA     BIT       T2EX
      000000D0H.2 SFRSYM    DATA     BIT       OV
      000000CAH   SFRSYM    DATA     BYTE      RCAP2L
      000000C8H.1 SFRSYM    DATA     BIT       C_T2
      000000B0H.6 SFRSYM    DATA     BIT       WR
      000000B0H.3 SFRSYM    DATA     BIT       INT_BIT
      000000C8H.5 SFRSYM    DATA     BIT       RCLK
      000000C8H.4 SFRSYM    DATA     BIT       TCLK
      00000080H.0 SFRSYM    DATA     BIT       P00
      00000099H   SFRSYM    DATA     BYTE      SBUF
      00000087H   SFRSYM    DATA     BYTE      PCON
      00000090H.0 SFRSYM    DATA     BIT       P10
      00000080H.1 SFRSYM    DATA     BIT       P01
      000000A0H.0 SFRSYM    DATA     BIT       P20
      00000090H.1 SFRSYM    DATA     BIT       P11
      00000080H.2 SFRSYM    DATA     BIT       P02
      000000E3H   SFRSYM    DATA     BYTE      ISP_ADDRH
      000000B0H.0 SFRSYM    DATA     BIT       P30
      000000A0H.1 SFRSYM    DATA     BIT       P21
      00000090H.2 SFRSYM    DATA     BIT       P12
      00000080H.3 SFRSYM    DATA     BIT       P03
      00000098H   SFRSYM    DATA     BYTE      SCON
      000000B0H.1 SFRSYM    DATA     BIT       P31
      000000A0H.2 SFRSYM    DATA     BIT       P22
      00000090H.3 SFRSYM    DATA     BIT       P13
      00000080H.4 SFRSYM    DATA     BIT       P04
      000000E8H.0 SFRSYM    DATA     BIT       P40
      00000089H   SFRSYM    DATA     BYTE      TMOD
      00000088H   SFRSYM    DATA     BYTE      TCON
      000000B0H.2 SFRSYM    DATA     BIT       P32
      000000A0H.3 SFRSYM    DATA     BIT       P23
      00000090H.4 SFRSYM    DATA     BIT       P14
      00000080H.5 SFRSYM    DATA     BIT       P05
      000000E8H.1 SFRSYM    DATA     BIT       P41
      00000090H.1 SFRSYM    DATA     BIT       RTC_INT
      000000B0H.3 SFRSYM    DATA     BIT       P33
      000000A0H.4 SFRSYM    DATA     BIT       P24
      00000090H.5 SFRSYM    DATA     BIT       P15
      00000080H.6 SFRSYM    DATA     BIT       P06
      000000E4H   SFRSYM    DATA     BYTE      ISP_ADDRL
      000000E8H.2 SFRSYM    DATA     BIT       P42
      000000B0H.4 SFRSYM    DATA     BIT       P34
      000000A0H.5 SFRSYM    DATA     BIT       P25
      00000090H.6 SFRSYM    DATA     BIT       P16
      00000080H.7 SFRSYM    DATA     BIT       P07
      000000E8H.3 SFRSYM    DATA     BIT       P43
      000000B0H.5 SFRSYM    DATA     BIT       P35
      000000A0H.6 SFRSYM    DATA     BIT       P26
      00000090H.7 SFRSYM    DATA     BIT       P17
      000000E8H.4 SFRSYM    DATA     BIT       P44
      000000B0H.6 SFRSYM    DATA     BIT       P36
      000000A0H.7 SFRSYM    DATA     BIT       P27
      000000E8H.5 SFRSYM    DATA     BIT       P45
      000000B0H.7 SFRSYM    DATA     BIT       P37
      000000E8H.6 SFRSYM    DATA     BIT       P46
      00000090H.4 SFRSYM    DATA     BIT       EXT_INT
      00000088H.1 SFRSYM    DATA     BIT       IE0
      00000090H.2 SFRSYM    DATA     BIT       MPU_INT
      00000088H.3 SFRSYM    DATA     BIT       IE1
      0000008EH   SFRSYM    DATA     BYTE      AUXR
      000000F0H   SFRSYM    DATA     BYTE      B
      000000C8H.0 SFRSYM    DATA     BIT       CP_RL2
      000000E0H   SFRSYM    DATA     BYTE      ACC
LX51 LINKER/LOCATER V4.66.87.0                                                        06/04/2018  21:13:51  PAGE 142


      000000A8H.1 SFRSYM    DATA     BIT       ET0
      000000A8H.3 SFRSYM    DATA     BIT       ET1
      00000088H.5 SFRSYM    DATA     BIT       TF0
      000000A8H.5 SFRSYM    DATA     BIT       ET2
      00000088H.7 SFRSYM    DATA     BIT       TF1
      000000C8H.7 SFRSYM    DATA     BIT       TF2
      00000098H.2 SFRSYM    DATA     BIT       RB8
      0000008CH   SFRSYM    DATA     BYTE      TH0
      000000A8H.0 SFRSYM    DATA     BIT       EX0
      00000088H.0 SFRSYM    DATA     BIT       IT0
      0000008DH   SFRSYM    DATA     BYTE      TH1
      00000098H.3 SFRSYM    DATA     BIT       TB8
      000000A8H.2 SFRSYM    DATA     BIT       EX1
      00000088H.2 SFRSYM    DATA     BIT       IT1
      000000CDH   SFRSYM    DATA     BYTE      TH2
      000000D0H.0 SFRSYM    DATA     BIT       P
      00000098H.7 SFRSYM    DATA     BIT       SM0
      0000008AH   SFRSYM    DATA     BYTE      TL0
      00000098H.6 SFRSYM    DATA     BIT       SM1
      0000008BH   SFRSYM    DATA     BYTE      TL1
      00000098H.5 SFRSYM    DATA     BIT       SM2
      000000CCH   SFRSYM    DATA     BYTE      TL2
      000000B8H.1 SFRSYM    DATA     BIT       PT0
      000000B8H.3 SFRSYM    DATA     BIT       PT1
      000000D0H.3 SFRSYM    DATA     BIT       RS0
      000000E7H   SFRSYM    DATA     BYTE      ISP_CONTR
      000000B8H.5 SFRSYM    DATA     BIT       PT2
      00000088H.4 SFRSYM    DATA     BIT       TR0
      000000D0H.4 SFRSYM    DATA     BIT       RS1
      00000088H.6 SFRSYM    DATA     BIT       TR1
      000000C8H.2 SFRSYM    DATA     BIT       TR2
      000000B8H.0 SFRSYM    DATA     BIT       PX0
      000000E1H   SFRSYM    DATA     BYTE      WDT_CONTR
      000000B8H.2 SFRSYM    DATA     BIT       PX1
      00000083H   SFRSYM    DATA     BYTE      DPH
      00000082H   SFRSYM    DATA     BYTE      DPL
      000000B7H   SFRSYM    DATA     BYTE      IPH
      000000C8H.3 SFRSYM    DATA     BIT       EXEN2
      00000098H.4 SFRSYM    DATA     BIT       REN
      000000C9H   SFRSYM    DATA     BYTE      T2MOD
      000000C8H   SFRSYM    DATA     BYTE      T2CON
      000000E2H   SFRSYM    DATA     BYTE      ISP_DATA
      000000B9H   SFRSYM    DATA     BYTE      SADEN
      000000B0H.0 SFRSYM    DATA     BIT       RXD
      000000A9H   SFRSYM    DATA     BYTE      SADDR
      000000B0H.1 SFRSYM    DATA     BIT       TXD
      000000A2H   SFRSYM    DATA     BYTE      AUXR1
      000000D0H.5 SFRSYM    DATA     BIT       F0
      000000D0H   SFRSYM    DATA     BYTE      PSW
      01008776H   SYMBOL    CODE     ---       int1_ISR

      01007C62H   BLOCK     CODE     ---       LVL=0
      ---         BLOCKEND  ---      ---       LVL=0

      01008776H   BLOCK     CODE     ---       LVL=0
      01008776H   LINE      CODE     ---       #28
      0100877DH   LINE      CODE     ---       #30
      0100877FH   LINE      CODE     ---       #31
      01008782H   LINE      CODE     ---       #32
      ---         BLOCKEND  ---      ---       LVL=0

      01005301H   BLOCK     CODE     ---       LVL=0
      01005301H   BLOCK     CODE     NEAR LAB  LVL=1
      02000000H   SYMBOL    XDATA    BYTE      val
      ---         BLOCKEND  ---      ---       LVL=1
LX51 LINKER/LOCATER V4.66.87.0                                                        06/04/2018  21:13:51  PAGE 143


      01005301H   LINE      CODE     ---       #34
      01005301H   LINE      CODE     ---       #35
      01005301H   LINE      CODE     ---       #37
      0100530AH   LINE      CODE     ---       #39
      01005313H   LINE      CODE     ---       #41
      01005315H   LINE      CODE     ---       #45
      0100531FH   LINE      CODE     ---       #46
      01005326H   LINE      CODE     ---       #49
      0100532FH   LINE      CODE     ---       #51
      01005331H   LINE      CODE     ---       #54
      0100533BH   LINE      CODE     ---       #55
      01005342H   LINE      CODE     ---       #57
      01005344H   LINE      CODE     ---       #58
      01005346H   LINE      CODE     ---       #59
      01005348H   LINE      CODE     ---       #60
      0100534AH   LINE      CODE     ---       #62
      0100534CH   LINE      CODE     ---       #63
      0100534EH   LINE      CODE     ---       #64
      ---         BLOCKEND  ---      ---       LVL=0

      010074A9H   BLOCK     CODE     ---       LVL=0
      00000007H   SYMBOL    DATA     BYTE      index
      00000004H   SYMBOL    DATA     WORD      status
      010074A9H   LINE      CODE     ---       #67
      010074A9H   LINE      CODE     ---       #68
      010074A9H   LINE      CODE     ---       #69
      010074AFH   LINE      CODE     ---       #70
      010074B0H   LINE      CODE     ---       #72
      010074CFH   LINE      CODE     ---       #73
      ---         BLOCKEND  ---      ---       LVL=0

      01006067H   BLOCK     CODE     ---       LVL=0
      01006067H   LINE      CODE     ---       #75
      01006067H   LINE      CODE     ---       #76
      01006067H   LINE      CODE     ---       #78
      01006070H   LINE      CODE     ---       #79
      0100607DH   LINE      CODE     ---       #80
      0100608BH   LINE      CODE     ---       #81
      010060A1H   LINE      CODE     ---       #82
      010060AAH   LINE      CODE     ---       #83
      ---         BLOCKEND  ---      ---       LVL=0

      01005505H   BLOCK     CODE     ---       LVL=0
      01005505H   BLOCK     CODE     NEAR LAB  LVL=1
      02000016H   SYMBOL    XDATA    WORD      status
      02000018H   SYMBOL    XDATA    BYTE      val
      ---         BLOCKEND  ---      ---       LVL=1
      01005505H   LINE      CODE     ---       #85
      01005505H   LINE      CODE     ---       #86
      01005505H   LINE      CODE     ---       #87
      0100550CH   LINE      CODE     ---       #90
      01005519H   LINE      CODE     ---       #91
      0100551DH   LINE      CODE     ---       #92
      01005525H   LINE      CODE     ---       #94
      0100552EH   LINE      CODE     ---       #95
      0100553BH   LINE      CODE     ---       #96
      0100553FH   LINE      CODE     ---       #97
      01005551H   LINE      CODE     ---       #99
      01005551H   LINE      CODE     ---       #100
      ---         BLOCKEND  ---      ---       LVL=0

      01000F4CH   BLOCK     CODE     ---       LVL=0
      02000016H   SYMBOL    XDATA    WORD      status
      01000F4CH   LINE      CODE     ---       #102
      01000F54H   LINE      CODE     ---       #103
LX51 LINKER/LOCATER V4.66.87.0                                                        06/04/2018  21:13:51  PAGE 144


      01000F54H   LINE      CODE     ---       #104
      01000F5DH   LINE      CODE     ---       #105
      01000F7EH   LINE      CODE     ---       #106
      01000F96H   LINE      CODE     ---       #107
      01000FAEH   LINE      CODE     ---       #108
      01000FC6H   LINE      CODE     ---       #109
      01000FDEH   LINE      CODE     ---       #110
      01000FF6H   LINE      CODE     ---       #111
      0100100EH   LINE      CODE     ---       #112
      01001026H   LINE      CODE     ---       #113
      0100103EH   LINE      CODE     ---       #114
      01001056H   LINE      CODE     ---       #115
      0100106EH   LINE      CODE     ---       #116
      01001086H   LINE      CODE     ---       #117
      0100109EH   LINE      CODE     ---       #118
      010010B6H   LINE      CODE     ---       #119
      010010D1H   LINE      CODE     ---       #120
      010010F1H   LINE      CODE     ---       #121
      010010FAH   LINE      CODE     ---       #122
      ---         BLOCKEND  ---      ---       LVL=0

      01005E33H   BLOCK     CODE     ---       LVL=0
      02000013H   SYMBOL    XDATA    BYTE      ev
      01005E38H   BLOCK     CODE     NEAR LAB  LVL=1
      02000014H   SYMBOL    XDATA    WORD      status
      ---         BLOCKEND  ---      ---       LVL=1
      01005E33H   LINE      CODE     ---       #124
      01005E38H   LINE      CODE     ---       #125
      01005E38H   LINE      CODE     ---       #126
      01005E3DH   LINE      CODE     ---       #127
      01005E46H   LINE      CODE     ---       #129
      01005E46H   LINE      CODE     ---       #131
      01005E49H   LINE      CODE     ---       #133
      01005E4CH   LINE      CODE     ---       #134
      01005E4FH   LINE      CODE     ---       #135
      01005E4FH   LINE      CODE     ---       #138
      01005E52H   LINE      CODE     ---       #146
      01005E5DH   LINE      CODE     ---       #147
      01005E60H   LINE      CODE     ---       #148
      01005E66H   LINE      CODE     ---       #149
      01005E6CH   LINE      CODE     ---       #150
      01005E72H   LINE      CODE     ---       #151
      01005E72H   LINE      CODE     ---       #153
      01005E75H   LINE      CODE     ---       #154
      01005E78H   LINE      CODE     ---       #155
      01005E78H   LINE      CODE     ---       #157
      01005E81H   LINE      CODE     ---       #158
      01005E84H   LINE      CODE     ---       #159
      01005E84H   LINE      CODE     ---       #160
      ---         BLOCKEND  ---      ---       LVL=0

      ---         MODULE    ---      ---       FUSE
      00000020H.1 PUBLIC    BIT      BIT       ?fuse_enable?BIT
      01007459H   PUBLIC    CODE     ---       fuse_enable
      00000020H.0 PUBLIC    BIT      BIT       ?fuse_set_tripwire_broke?BIT
      01007591H   PUBLIC    CODE     ---       fuse_set_tripwire_broke
      00000020H.0 PUBLIC    BIT      BIT       ?_fuse_set_fuse_broke?BIT
      0100677CH   PUBLIC    CODE     ---       _fuse_set_fuse_broke
      01007F84H   PUBLIC    CODE     ---       _fuse_proc
      01004A5BH   PUBLIC    CODE     ---       _scan_fuse
      01008BA6H   PUBLIC    CODE     ---       fuse_leave_powersave
      01008B9DH   PUBLIC    CODE     ---       fuse_enter_powersave
      00000020H.0 PUBLIC    BIT      BIT       ?fuse_trigger?BIT
      01006BCBH   PUBLIC    CODE     ---       fuse_trigger
      010089C9H   PUBLIC    CODE     ---       fuse_initialize
LX51 LINKER/LOCATER V4.66.87.0                                                        06/04/2018  21:13:51  PAGE 145


      00000080H   SFRSYM    DATA     BYTE      P0
      00000090H   SFRSYM    DATA     BYTE      P1
      000000A0H   SFRSYM    DATA     BYTE      P2
      000000B0H   SFRSYM    DATA     BYTE      P3
      000000C0H   SFRSYM    DATA     BYTE      XICON
      000000B0H.4 SFRSYM    DATA     BIT       T0
      000000D0H.6 SFRSYM    DATA     BIT       AC
      000000E8H   SFRSYM    DATA     BYTE      P4
      000000B0H.5 SFRSYM    DATA     BIT       T1
      000000E6H   SFRSYM    DATA     BYTE      ISP_TRIG
      00000090H.0 SFRSYM    DATA     BIT       T2
      000000A8H.7 SFRSYM    DATA     BIT       EA
      000000A8H.6 SFRSYM    DATA     BIT       EC
      00000098H.7 SFRSYM    DATA     BIT       FE
      000000A8H   SFRSYM    DATA     BYTE      IE
      000000C8H.6 SFRSYM    DATA     BIT       EXF2
      000000B0H.7 SFRSYM    DATA     BIT       RD
      000000A8H.4 SFRSYM    DATA     BIT       ES
      000000B8H   SFRSYM    DATA     BYTE      IP
      00000098H.0 SFRSYM    DATA     BIT       RI
      000000B0H.2 SFRSYM    DATA     BIT       INT0
      000000D0H.7 SFRSYM    DATA     BIT       CY
      00000098H.1 SFRSYM    DATA     BIT       TI
      000000B0H.3 SFRSYM    DATA     BIT       INT1
      000000CBH   SFRSYM    DATA     BYTE      RCAP2H
      000000E5H   SFRSYM    DATA     BYTE      ISP_CMD
      000000B8H.4 SFRSYM    DATA     BIT       PS
      00000081H   SFRSYM    DATA     BYTE      SP
      00000090H.1 SFRSYM    DATA     BIT       T2EX
      000000D0H.2 SFRSYM    DATA     BIT       OV
      000000CAH   SFRSYM    DATA     BYTE      RCAP2L
      000000C8H.1 SFRSYM    DATA     BIT       C_T2
      000000B0H.6 SFRSYM    DATA     BIT       WR
      000000C8H.5 SFRSYM    DATA     BIT       RCLK
      000000C8H.4 SFRSYM    DATA     BIT       TCLK
      00000080H.0 SFRSYM    DATA     BIT       P00
      00000099H   SFRSYM    DATA     BYTE      SBUF
      00000087H   SFRSYM    DATA     BYTE      PCON
      00000090H.0 SFRSYM    DATA     BIT       P10
      00000080H.1 SFRSYM    DATA     BIT       P01
      000000A0H.0 SFRSYM    DATA     BIT       P20
      00000090H.1 SFRSYM    DATA     BIT       P11
      00000080H.2 SFRSYM    DATA     BIT       P02
      000000E3H   SFRSYM    DATA     BYTE      ISP_ADDRH
      000000B0H.0 SFRSYM    DATA     BIT       P30
      000000A0H.1 SFRSYM    DATA     BIT       P21
      00000090H.2 SFRSYM    DATA     BIT       P12
      00000080H.3 SFRSYM    DATA     BIT       P03
      00000098H   SFRSYM    DATA     BYTE      SCON
      000000B0H.1 SFRSYM    DATA     BIT       P31
      000000A0H.2 SFRSYM    DATA     BIT       P22
      00000090H.3 SFRSYM    DATA     BIT       P13
      00000080H.4 SFRSYM    DATA     BIT       P04
      000000E8H.0 SFRSYM    DATA     BIT       P40
      00000089H   SFRSYM    DATA     BYTE      TMOD
      00000088H   SFRSYM    DATA     BYTE      TCON
      000000B0H.2 SFRSYM    DATA     BIT       P32
      000000A0H.3 SFRSYM    DATA     BIT       P23
      00000090H.4 SFRSYM    DATA     BIT       P14
      00000080H.5 SFRSYM    DATA     BIT       P05
      000000E8H.1 SFRSYM    DATA     BIT       P41
      000000B0H.3 SFRSYM    DATA     BIT       P33
      000000A0H.4 SFRSYM    DATA     BIT       P24
      00000090H.5 SFRSYM    DATA     BIT       P15
      00000080H.6 SFRSYM    DATA     BIT       P06
LX51 LINKER/LOCATER V4.66.87.0                                                        06/04/2018  21:13:51  PAGE 146


      000000E4H   SFRSYM    DATA     BYTE      ISP_ADDRL
      000000E8H.2 SFRSYM    DATA     BIT       P42
      000000B0H.4 SFRSYM    DATA     BIT       P34
      000000A0H.5 SFRSYM    DATA     BIT       P25
      00000090H.6 SFRSYM    DATA     BIT       P16
      00000080H.7 SFRSYM    DATA     BIT       P07
      000000E8H.3 SFRSYM    DATA     BIT       P43
      000000B0H.5 SFRSYM    DATA     BIT       P35
      000000A0H.6 SFRSYM    DATA     BIT       P26
      00000090H.7 SFRSYM    DATA     BIT       P17
      000000E8H.4 SFRSYM    DATA     BIT       P44
      000000B0H.6 SFRSYM    DATA     BIT       P36
      000000A0H.7 SFRSYM    DATA     BIT       P27
      000000E8H.5 SFRSYM    DATA     BIT       P45
      000000B0H.7 SFRSYM    DATA     BIT       P37
      000000E8H.6 SFRSYM    DATA     BIT       P46
      00000088H.1 SFRSYM    DATA     BIT       IE0
      00000088H.3 SFRSYM    DATA     BIT       IE1
      0000008EH   SFRSYM    DATA     BYTE      AUXR
      000000F0H   SFRSYM    DATA     BYTE      B
      000000C8H.0 SFRSYM    DATA     BIT       CP_RL2
      000000E0H   SFRSYM    DATA     BYTE      ACC
      000000A8H.1 SFRSYM    DATA     BIT       ET0
      000000A8H.3 SFRSYM    DATA     BIT       ET1
      00000088H.5 SFRSYM    DATA     BIT       TF0
      000000A8H.5 SFRSYM    DATA     BIT       ET2
      00000088H.7 SFRSYM    DATA     BIT       TF1
      000000C8H.7 SFRSYM    DATA     BIT       TF2
      00000098H.2 SFRSYM    DATA     BIT       RB8
      0000008CH   SFRSYM    DATA     BYTE      TH0
      000000A8H.0 SFRSYM    DATA     BIT       EX0
      00000088H.0 SFRSYM    DATA     BIT       IT0
      0000008DH   SFRSYM    DATA     BYTE      TH1
      00000098H.3 SFRSYM    DATA     BIT       TB8
      000000A8H.2 SFRSYM    DATA     BIT       EX1
      00000088H.2 SFRSYM    DATA     BIT       IT1
      000000CDH   SFRSYM    DATA     BYTE      TH2
      000000D0H.0 SFRSYM    DATA     BIT       P
      00000098H.7 SFRSYM    DATA     BIT       SM0
      0000008AH   SFRSYM    DATA     BYTE      TL0
      00000098H.6 SFRSYM    DATA     BIT       SM1
      0000008BH   SFRSYM    DATA     BYTE      TL1
      00000098H.5 SFRSYM    DATA     BIT       SM2
      000000CCH   SFRSYM    DATA     BYTE      TL2
      000000B8H.1 SFRSYM    DATA     BIT       PT0
      000000B8H.3 SFRSYM    DATA     BIT       PT1
      000000D0H.3 SFRSYM    DATA     BIT       RS0
      000000E7H   SFRSYM    DATA     BYTE      ISP_CONTR
      000000B8H.5 SFRSYM    DATA     BIT       PT2
      00000088H.4 SFRSYM    DATA     BIT       TR0
      000000D0H.4 SFRSYM    DATA     BIT       RS1
      00000088H.6 SFRSYM    DATA     BIT       TR1
      000000C8H.2 SFRSYM    DATA     BIT       TR2
      000000B8H.0 SFRSYM    DATA     BIT       PX0
      000000E1H   SFRSYM    DATA     BYTE      WDT_CONTR
      000000B8H.2 SFRSYM    DATA     BIT       PX1
      00000083H   SFRSYM    DATA     BYTE      DPH
      00000082H   SFRSYM    DATA     BYTE      DPL
      000000B7H   SFRSYM    DATA     BYTE      IPH
      000000C8H.3 SFRSYM    DATA     BIT       EXEN2
      00000098H.4 SFRSYM    DATA     BIT       REN
      000000C9H   SFRSYM    DATA     BYTE      T2MOD
      000000C8H   SFRSYM    DATA     BYTE      T2CON
      000000E2H   SFRSYM    DATA     BYTE      ISP_DATA
      000000B9H   SFRSYM    DATA     BYTE      SADEN
LX51 LINKER/LOCATER V4.66.87.0                                                        06/04/2018  21:13:51  PAGE 147


      000000B0H.0 SFRSYM    DATA     BIT       RXD
      000000A9H   SFRSYM    DATA     BYTE      SADDR
      000000B0H.1 SFRSYM    DATA     BIT       TXD
      000000A2H   SFRSYM    DATA     BYTE      AUXR1
      000000D0H.5 SFRSYM    DATA     BIT       F0
      000000D0H   SFRSYM    DATA     BYTE      PSW
      010074D0H   SYMBOL    CODE     ---       fuse_power_on
      010074F7H   SYMBOL    CODE     ---       fuse_power_off
      00000025H.2 SYMBOL    BIT      BIT       fuse_enabled

      010074D0H   BLOCK     CODE     ---       LVL=0
      010074D0H   LINE      CODE     ---       #17
      010074D0H   LINE      CODE     ---       #18
      010074D0H   LINE      CODE     ---       #19
      010074D7H   LINE      CODE     ---       #20
      010074DEH   LINE      CODE     ---       #21
      010074DEH   LINE      CODE     ---       #22
      010074E1H   LINE      CODE     ---       #23
      010074E1H   LINE      CODE     ---       #24
      010074E4H   LINE      CODE     ---       #25
      010074E7H   LINE      CODE     ---       #26
      010074E9H   LINE      CODE     ---       #27
      ---         BLOCKEND  ---      ---       LVL=0

      010074F7H   BLOCK     CODE     ---       LVL=0
      010074F7H   LINE      CODE     ---       #29
      010074F7H   LINE      CODE     ---       #30
      010074F7H   LINE      CODE     ---       #31
      010074FEH   LINE      CODE     ---       #32
      01007505H   LINE      CODE     ---       #33
      01007505H   LINE      CODE     ---       #34
      01007508H   LINE      CODE     ---       #35
      01007508H   LINE      CODE     ---       #36
      0100750BH   LINE      CODE     ---       #37
      0100750EH   LINE      CODE     ---       #38
      01007510H   LINE      CODE     ---       #39
      ---         BLOCKEND  ---      ---       LVL=0

      010089C9H   BLOCK     CODE     ---       LVL=0
      010089C9H   LINE      CODE     ---       #41
      010089C9H   LINE      CODE     ---       #42
      010089C9H   LINE      CODE     ---       #43
      010089D2H   LINE      CODE     ---       #44
      ---         BLOCKEND  ---      ---       LVL=0

      01006BCBH   BLOCK     CODE     ---       LVL=0
      00000020H.0 SYMBOL    BIT      BIT       enable
      01006BCBH   LINE      CODE     ---       #48
      01006BCBH   LINE      CODE     ---       #49
      01006BCBH   LINE      CODE     ---       #50
      01006BE0H   LINE      CODE     ---       #52
      01006BE3H   LINE      CODE     ---       #55
      01006BEAH   LINE      CODE     ---       #58
      01006BF4H   LINE      CODE     ---       #59
      01006BFDH   LINE      CODE     ---       #60
      01006C00H   LINE      CODE     ---       #61
      ---         BLOCKEND  ---      ---       LVL=0

      01008B9DH   BLOCK     CODE     ---       LVL=0
      01008B9DH   LINE      CODE     ---       #63
      01008B9DH   LINE      CODE     ---       #64
      01008B9DH   LINE      CODE     ---       #65
      ---         BLOCKEND  ---      ---       LVL=0

      01008BA6H   BLOCK     CODE     ---       LVL=0
LX51 LINKER/LOCATER V4.66.87.0                                                        06/04/2018  21:13:51  PAGE 148


      01008BA6H   LINE      CODE     ---       #68
      01008BA6H   LINE      CODE     ---       #69
      01008BA6H   LINE      CODE     ---       #70
      ---         BLOCKEND  ---      ---       LVL=0

      01004A5BH   BLOCK     CODE     ---       LVL=0
      02000016H   SYMBOL    XDATA    WORD      status
      01004A63H   BLOCK     CODE     NEAR LAB  LVL=1
      00000020H.0 SYMBOL    BIT      BIT       has_event
      ---         BLOCKEND  ---      ---       LVL=1
      01004A5BH   LINE      CODE     ---       #73
      01004A63H   LINE      CODE     ---       #74
      01004A63H   LINE      CODE     ---       #75
      01004A65H   LINE      CODE     ---       #76
      01004A76H   LINE      CODE     ---       #78
      01004A7DH   LINE      CODE     ---       #79
      01004A86H   LINE      CODE     ---       #80
      01004A89H   LINE      CODE     ---       #81
      01004A92H   LINE      CODE     ---       #82
      01004A94H   LINE      CODE     ---       #83
      01004A94H   LINE      CODE     ---       #85
      01004A9BH   LINE      CODE     ---       #86
      01004AA4H   LINE      CODE     ---       #87
      01004AA7H   LINE      CODE     ---       #88
      01004AB0H   LINE      CODE     ---       #89
      01004AB2H   LINE      CODE     ---       #90
      01004AB2H   LINE      CODE     ---       #92
      01004AB9H   LINE      CODE     ---       #93
      01004AC2H   LINE      CODE     ---       #94
      01004AC5H   LINE      CODE     ---       #95
      01004ACBH   LINE      CODE     ---       #96
      01004ACDH   LINE      CODE     ---       #97
      01004ACDH   LINE      CODE     ---       #99
      01004AD5H   LINE      CODE     ---       #100
      01004AD8H   LINE      CODE     ---       #101
      01004AD8H   LINE      CODE     ---       #102
      ---         BLOCKEND  ---      ---       LVL=0

      01007F84H   BLOCK     CODE     ---       LVL=0
      0200000CH   SYMBOL    XDATA    BYTE      ev
      01007F84H   LINE      CODE     ---       #104
      01007F89H   LINE      CODE     ---       #105
      01007F89H   LINE      CODE     ---       #106
      01007F96H   LINE      CODE     ---       #107
      ---         BLOCKEND  ---      ---       LVL=0

      0100677CH   BLOCK     CODE     ---       LVL=0
      02000012H   SYMBOL    XDATA    BYTE      index
      00000020H.0 SYMBOL    BIT      BIT       enable
      0100677CH   LINE      CODE     ---       #111
      01006781H   LINE      CODE     ---       #112
      01006781H   LINE      CODE     ---       #113
      0100679AH   LINE      CODE     ---       #115
      0100679DH   LINE      CODE     ---       #117
      010067A3H   LINE      CODE     ---       #118
      010067ACH   LINE      CODE     ---       #120
      010067B6H   LINE      CODE     ---       #122
      010067B9H   LINE      CODE     ---       #123
      ---         BLOCKEND  ---      ---       LVL=0

      01007591H   BLOCK     CODE     ---       LVL=0
      00000020H.0 SYMBOL    BIT      BIT       broke
      01007591H   LINE      CODE     ---       #125
      01007591H   LINE      CODE     ---       #126
      01007591H   LINE      CODE     ---       #127
LX51 LINKER/LOCATER V4.66.87.0                                                        06/04/2018  21:13:51  PAGE 149


      010075A6H   LINE      CODE     ---       #129
      010075A9H   LINE      CODE     ---       #131
      010075B3H   LINE      CODE     ---       #132
      010075B6H   LINE      CODE     ---       #133
      ---         BLOCKEND  ---      ---       LVL=0

      01007459H   BLOCK     CODE     ---       LVL=0
      00000020H.1 SYMBOL    BIT      BIT       enable
      01007459H   LINE      CODE     ---       #135
      01007459H   LINE      CODE     ---       #136
      01007459H   LINE      CODE     ---       #137
      0100746EH   LINE      CODE     ---       #139
      01007474H   LINE      CODE     ---       #140
      01007477H   LINE      CODE     ---       #141
      0100747DH   LINE      CODE     ---       #142
      01007480H   LINE      CODE     ---       #143
      01007480H   LINE      CODE     ---       #144
      ---         BLOCKEND  ---      ---       LVL=0

      ---         MODULE    ---      ---       HG
      01008680H   PUBLIC    CODE     ---       hg_get_state
      00000020H.1 PUBLIC    BIT      BIT       ?hg_enable?BIT
      01007481H   PUBLIC    CODE     ---       hg_enable
      010089E1H   PUBLIC    CODE     ---       hg_initialize
      01004EA9H   PUBLIC    CODE     ---       _scan_hg
      01008BB8H   PUBLIC    CODE     ---       hg_leave_powersave
      01008BAFH   PUBLIC    CODE     ---       hg_enter_powersave
      00000025H.3 SYMBOL    BIT      BIT       hg_enabled
      01007EFFH   SYMBOL    CODE     ---       hg_power_on
      020000E7H   SYMBOL    XDATA    BYTE      hg_state
      0100866EH   SYMBOL    CODE     ---       __hg_get_state
      010089D5H   SYMBOL    CODE     ---       hg_cb_set_enable
      0100898BH   SYMBOL    CODE     ---       hg_power_off

      01008A55H   BLOCK     CODE     ---       LVL=0
      ---         BLOCKEND  ---      ---       LVL=0

      01008BAFH   BLOCK     CODE     ---       LVL=0
      01008BAFH   LINE      CODE     ---       #15
      01008BAFH   LINE      CODE     ---       #16
      01008BAFH   LINE      CODE     ---       #17
      ---         BLOCKEND  ---      ---       LVL=0

      01008BB8H   BLOCK     CODE     ---       LVL=0
      01008BB8H   LINE      CODE     ---       #20
      01008BB8H   LINE      CODE     ---       #21
      01008BB8H   LINE      CODE     ---       #22
      ---         BLOCKEND  ---      ---       LVL=0

      0100866EH   BLOCK     CODE     ---       LVL=0
      00000006H   SYMBOL    DATA     WORD      status
      0100866EH   LINE      CODE     ---       #25
      0100866EH   LINE      CODE     ---       #26
      0100866EH   LINE      CODE     ---       #27
      0100867FH   LINE      CODE     ---       #28
      ---         BLOCKEND  ---      ---       LVL=0

      010089D5H   BLOCK     CODE     ---       LVL=0
      010089D5H   LINE      CODE     ---       #30
      010089D5H   LINE      CODE     ---       #31
      010089D5H   LINE      CODE     ---       #32
      010089DEH   LINE      CODE     ---       #33
      010089E0H   LINE      CODE     ---       #34
      ---         BLOCKEND  ---      ---       LVL=0

LX51 LINKER/LOCATER V4.66.87.0                                                        06/04/2018  21:13:51  PAGE 150


      01004EA9H   BLOCK     CODE     ---       LVL=0
      02000016H   SYMBOL    XDATA    WORD      status
      01004EB1H   BLOCK     CODE     NEAR LAB  LVL=1
      02000018H   SYMBOL    XDATA    BYTE      hg_new_state
      ---         BLOCKEND  ---      ---       LVL=1
      01004EA9H   LINE      CODE     ---       #36
      01004EB1H   LINE      CODE     ---       #37
      01004EB1H   LINE      CODE     ---       #39
      01004EC2H   LINE      CODE     ---       #41
      01004ED0H   LINE      CODE     ---       #43
      01004EDDH   LINE      CODE     ---       #45
      01004EE9H   LINE      CODE     ---       #46
      01004EECH   LINE      CODE     ---       #47
      01004EF5H   LINE      CODE     ---       #48
      01004EFBH   LINE      CODE     ---       #49
      01004EFBH   LINE      CODE     ---       #50
      01004F00H   LINE      CODE     ---       #51
      01004F03H   LINE      CODE     ---       #52
      01004F03H   LINE      CODE     ---       #54
      01004F15H   LINE      CODE     ---       #55
      01004F1DH   LINE      CODE     ---       #56
      01004F1DH   LINE      CODE     ---       #58
      ---         BLOCKEND  ---      ---       LVL=0

      01007EFFH   BLOCK     CODE     ---       LVL=0
      01007EFFH   LINE      CODE     ---       #60
      01007EFFH   LINE      CODE     ---       #61
      01007EFFH   LINE      CODE     ---       #62
      01007F06H   LINE      CODE     ---       #63
      01007F09H   LINE      CODE     ---       #64
      01007F0FH   LINE      CODE     ---       #65
      ---         BLOCKEND  ---      ---       LVL=0

      0100898BH   BLOCK     CODE     ---       LVL=0
      0100898BH   LINE      CODE     ---       #68
      0100898BH   LINE      CODE     ---       #69
      0100898BH   LINE      CODE     ---       #70
      01008992H   LINE      CODE     ---       #71
      01008995H   LINE      CODE     ---       #72
      01008997H   LINE      CODE     ---       #73
      ---         BLOCKEND  ---      ---       LVL=0

      010089E1H   BLOCK     CODE     ---       LVL=0
      010089E1H   LINE      CODE     ---       #75
      010089E1H   LINE      CODE     ---       #76
      010089E1H   LINE      CODE     ---       #77
      010089EAH   LINE      CODE     ---       #78
      ---         BLOCKEND  ---      ---       LVL=0

      01007481H   BLOCK     CODE     ---       LVL=0
      00000020H.1 SYMBOL    BIT      BIT       enable
      01007481H   LINE      CODE     ---       #81
      01007481H   LINE      CODE     ---       #82
      01007481H   LINE      CODE     ---       #83
      01007496H   LINE      CODE     ---       #84
      0100749CH   LINE      CODE     ---       #85
      0100749FH   LINE      CODE     ---       #87
      010074A5H   LINE      CODE     ---       #88
      010074A8H   LINE      CODE     ---       #89
      010074A8H   LINE      CODE     ---       #90
      ---         BLOCKEND  ---      ---       LVL=0

      01008680H   BLOCK     CODE     ---       LVL=0
      01008680H   LINE      CODE     ---       #92
      01008680H   LINE      CODE     ---       #93
LX51 LINKER/LOCATER V4.66.87.0                                                        06/04/2018  21:13:51  PAGE 151


      01008680H   LINE      CODE     ---       #94
      0100868CH   LINE      CODE     ---       #95
      01008691H   LINE      CODE     ---       #96
      ---         BLOCKEND  ---      ---       LVL=0

      ---         MODULE    ---      ---       LT_TIMER
      0100657EH   PUBLIC    CODE     ---       lt_timer_sync_to_rtc
      00000020H.0 PUBLIC    BIT      BIT       ?lt_timer_get_relative?BIT
      010048D5H   PUBLIC    CODE     ---       lt_timer_get_relative
      01005ADAH   PUBLIC    CODE     ---       _lt_timer_save_to_rom
      010065C0H   PUBLIC    CODE     ---       lt_timer_load_from_rom
      01004184H   PUBLIC    CODE     ---       lt_timer_dec_sec
      0100886EH   PUBLIC    CODE     ---       lt_timer_reset
      00000020H.0 PUBLIC    BIT      BIT       ?lt_timer_display?BIT
      01007F9EH   PUBLIC    CODE     ---       lt_timer_display
      0100828FH   PUBLIC    CODE     ---       lt_timer_switch_display
      010089EDH   PUBLIC    CODE     ---       lt_timer_stop_ram
      0100892AH   PUBLIC    CODE     ---       lt_timer_start_ram
      01007B05H   PUBLIC    CODE     ---       lt_timer_stop_rtc
      01007AE7H   PUBLIC    CODE     ---       lt_timer_start_rtc
      01008CC5H   PUBLIC    CODE     ---       lt_timer_get_date
      01008D1CH   PUBLIC    CODE     ---       lt_timer_get_sec
      01008D17H   PUBLIC    CODE     ---       lt_timer_get_min
      01008D12H   PUBLIC    CODE     ---       lt_timer_get_hour
      01008CBFH   PUBLIC    CODE     ---       lt_timer_get_month
      01008D0DH   PUBLIC    CODE     ---       lt_timer_get_year
      01008A8CH   PUBLIC    CODE     ---       lt_timer_inc_sec
      01008A81H   PUBLIC    CODE     ---       lt_timer_inc_min
      01008A76H   PUBLIC    CODE     ---       lt_timer_inc_hour
      01008612H   PUBLIC    CODE     ---       lt_timer_inc_date
      01008A6BH   PUBLIC    CODE     ---       lt_timer_inc_month
      01008A60H   PUBLIC    CODE     ---       lt_timer_inc_year
      010061E7H   PUBLIC    CODE     ---       scan_lt_timer
      01007790H   PUBLIC    CODE     ---       lt_timer_switch_off
      0100845CH   PUBLIC    CODE     ---       lt_timer_switch_on
      01007695H   PUBLIC    CODE     ---       lt_timer_leave_powersave
      01008447H   PUBLIC    CODE     ---       lt_timer_enter_powersave
      00000020H.1 PUBLIC    BIT      BIT       ?lt_timer_set_hour_12?BIT
      01008D08H   PUBLIC    CODE     ---       lt_timer_set_hour_12
      01008D51H   PUBLIC    CODE     ---       lt_timer_get_hour_12
      0100854EH   PUBLIC    CODE     ---       lt_timer_initialize
      01002896H   SYMBOL    CODE     ---       lt_timer_sub_date
      00000021H.4 SYMBOL    BIT      BIT       lt_tmr_start
      0100B443H   SYMBOL    CONST    ---       leap_month
      0100695DH   SYMBOL    CODE     ---       lt_timer_sub_hour_date
      00000021H.5 SYMBOL    BIT      BIT       lt_tmr_disp_day
      00000048H   SYMBOL    IDATA    ---       ltm
      01007B23H   SYMBOL    CODE     ---       lt_timer_sub_sec_min
      01006923H   SYMBOL    CODE     ---       lt_timer_sub_min_hour
      00000021H.6 SYMBOL    BIT      BIT       lt_timer_is_12
      00000021H.7 SYMBOL    BIT      BIT       lt_tmr_display
      00000022H.0 SYMBOL    BIT      BIT       lt_tmr_stopped

      01004595H   BLOCK     CODE     ---       LVL=0
      ---         BLOCKEND  ---      ---       LVL=0

      0100854EH   BLOCK     CODE     ---       LVL=0
      0100854EH   LINE      CODE     ---       #23
      0100854EH   LINE      CODE     ---       #24
      0100854EH   LINE      CODE     ---       #25
      01008557H   LINE      CODE     ---       #26
      01008559H   LINE      CODE     ---       #27
      0100855BH   LINE      CODE     ---       #28
      0100855DH   LINE      CODE     ---       #29
      0100855FH   LINE      CODE     ---       #30
LX51 LINKER/LOCATER V4.66.87.0                                                        06/04/2018  21:13:51  PAGE 152


      01008561H   LINE      CODE     ---       #31
      ---         BLOCKEND  ---      ---       LVL=0

      01008D51H   BLOCK     CODE     ---       LVL=0
      01008D51H   LINE      CODE     ---       #33
      01008D51H   LINE      CODE     ---       #34
      01008D51H   LINE      CODE     ---       #35
      01008D53H   LINE      CODE     ---       #36
      ---         BLOCKEND  ---      ---       LVL=0

      01008D08H   BLOCK     CODE     ---       LVL=0
      00000020H.1 SYMBOL    BIT      BIT       val
      01008D08H   LINE      CODE     ---       #38
      01008D08H   LINE      CODE     ---       #39
      01008D08H   LINE      CODE     ---       #40
      01008D0CH   LINE      CODE     ---       #41
      ---         BLOCKEND  ---      ---       LVL=0

      01008447H   BLOCK     CODE     ---       LVL=0
      01008447H   LINE      CODE     ---       #43
      01008447H   LINE      CODE     ---       #44
      01008447H   LINE      CODE     ---       #45
      01008450H   LINE      CODE     ---       #46
      01008455H   LINE      CODE     ---       #47
      01008458H   LINE      CODE     ---       #48
      0100845BH   LINE      CODE     ---       #49
      0100845BH   LINE      CODE     ---       #50
      ---         BLOCKEND  ---      ---       LVL=0

      01007695H   BLOCK     CODE     ---       LVL=0
      01007695H   LINE      CODE     ---       #52
      01007695H   LINE      CODE     ---       #53
      01007695H   LINE      CODE     ---       #54
      0100769EH   LINE      CODE     ---       #55
      010076A3H   LINE      CODE     ---       #56
      010076A6H   LINE      CODE     ---       #57
      010076A9H   LINE      CODE     ---       #58
      010076B1H   LINE      CODE     ---       #59
      010076B1H   LINE      CODE     ---       #60
      010076B4H   LINE      CODE     ---       #61
      010076B5H   LINE      CODE     ---       #62
      010076B8H   LINE      CODE     ---       #63
      010076B8H   LINE      CODE     ---       #64
      010076B8H   LINE      CODE     ---       #65
      ---         BLOCKEND  ---      ---       LVL=0

      0100845CH   BLOCK     CODE     ---       LVL=0
      0100845CH   LINE      CODE     ---       #67
      0100845CH   LINE      CODE     ---       #68
      0100845CH   LINE      CODE     ---       #69
      01008465H   LINE      CODE     ---       #70
      01008468H   LINE      CODE     ---       #71
      0100846BH   LINE      CODE     ---       #72
      0100846EH   LINE      CODE     ---       #73
      ---         BLOCKEND  ---      ---       LVL=0

      01007790H   BLOCK     CODE     ---       LVL=0
      01007790H   LINE      CODE     ---       #76
      01007790H   LINE      CODE     ---       #77
      01007790H   LINE      CODE     ---       #78
      01007799H   LINE      CODE     ---       #79
      0100779EH   LINE      CODE     ---       #80
      010077A5H   LINE      CODE     ---       #81
      010077ABH   LINE      CODE     ---       #82
      010077B0H   LINE      CODE     ---       #83
LX51 LINKER/LOCATER V4.66.87.0                                                        06/04/2018  21:13:51  PAGE 153


      ---         BLOCKEND  ---      ---       LVL=0

      010061E7H   BLOCK     CODE     ---       LVL=0
      010061E7H   BLOCK     CODE     NEAR LAB  LVL=1
      00000020H.0 SYMBOL    BIT      BIT       alarm0_hit
      ---         BLOCKEND  ---      ---       LVL=1
      010061E7H   LINE      CODE     ---       #86
      010061E7H   LINE      CODE     ---       #87
      010061E7H   LINE      CODE     ---       #90
      010061F0H   LINE      CODE     ---       #92
      010061F5H   LINE      CODE     ---       #93
      010061FCH   LINE      CODE     ---       #94
      01006200H   LINE      CODE     ---       #95
      01006205H   LINE      CODE     ---       #97
      01006208H   LINE      CODE     ---       #98
      0100620DH   LINE      CODE     ---       #99
      01006225H   LINE      CODE     ---       #100
      01006225H   LINE      CODE     ---       #101
      0100622AH   LINE      CODE     ---       #102
      0100622DH   LINE      CODE     ---       #103
      0100622DH   LINE      CODE     ---       #104
      01006230H   LINE      CODE     ---       #105
      01006230H   LINE      CODE     ---       #106
      01006230H   LINE      CODE     ---       #107
      ---         BLOCKEND  ---      ---       LVL=0

      01008A60H   BLOCK     CODE     ---       LVL=0
      01008A60H   LINE      CODE     ---       #109
      01008A60H   LINE      CODE     ---       #110
      01008A60H   LINE      CODE     ---       #111
      01008A6AH   LINE      CODE     ---       #112
      ---         BLOCKEND  ---      ---       LVL=0

      01008A6BH   BLOCK     CODE     ---       LVL=0
      01008A6BH   LINE      CODE     ---       #114
      01008A6BH   LINE      CODE     ---       #115
      01008A6BH   LINE      CODE     ---       #116
      01008A75H   LINE      CODE     ---       #117
      ---         BLOCKEND  ---      ---       LVL=0

      01008612H   BLOCK     CODE     ---       LVL=0
      01008612H   LINE      CODE     ---       #119
      01008612H   LINE      CODE     ---       #120
      01008612H   LINE      CODE     ---       #121
      01008624H   LINE      CODE     ---       #122
      ---         BLOCKEND  ---      ---       LVL=0

      01008A76H   BLOCK     CODE     ---       LVL=0
      01008A76H   LINE      CODE     ---       #124
      01008A76H   LINE      CODE     ---       #125
      01008A76H   LINE      CODE     ---       #126
      01008A80H   LINE      CODE     ---       #127
      ---         BLOCKEND  ---      ---       LVL=0

      01008A81H   BLOCK     CODE     ---       LVL=0
      01008A81H   LINE      CODE     ---       #129
      01008A81H   LINE      CODE     ---       #130
      01008A81H   LINE      CODE     ---       #131
      01008A8BH   LINE      CODE     ---       #132
      ---         BLOCKEND  ---      ---       LVL=0

      01008A8CH   BLOCK     CODE     ---       LVL=0
      01008A8CH   LINE      CODE     ---       #134
      01008A8CH   LINE      CODE     ---       #135
      01008A8CH   LINE      CODE     ---       #136
LX51 LINKER/LOCATER V4.66.87.0                                                        06/04/2018  21:13:51  PAGE 154


      01008A96H   LINE      CODE     ---       #137
      ---         BLOCKEND  ---      ---       LVL=0

      01008D0DH   BLOCK     CODE     ---       LVL=0
      01008D0DH   LINE      CODE     ---       #139
      01008D0DH   LINE      CODE     ---       #140
      01008D0DH   LINE      CODE     ---       #141
      01008D11H   LINE      CODE     ---       #142
      ---         BLOCKEND  ---      ---       LVL=0

      01008CBFH   BLOCK     CODE     ---       LVL=0
      01008CBFH   LINE      CODE     ---       #144
      01008CBFH   LINE      CODE     ---       #145
      01008CBFH   LINE      CODE     ---       #146
      01008CC4H   LINE      CODE     ---       #147
      ---         BLOCKEND  ---      ---       LVL=0

      01008D12H   BLOCK     CODE     ---       LVL=0
      01008D12H   LINE      CODE     ---       #149
      01008D12H   LINE      CODE     ---       #150
      01008D12H   LINE      CODE     ---       #151
      01008D16H   LINE      CODE     ---       #152
      ---         BLOCKEND  ---      ---       LVL=0

      01008D17H   BLOCK     CODE     ---       LVL=0
      01008D17H   LINE      CODE     ---       #154
      01008D17H   LINE      CODE     ---       #155
      01008D17H   LINE      CODE     ---       #156
      01008D1BH   LINE      CODE     ---       #157
      ---         BLOCKEND  ---      ---       LVL=0

      01008D1CH   BLOCK     CODE     ---       LVL=0
      01008D1CH   LINE      CODE     ---       #159
      01008D1CH   LINE      CODE     ---       #160
      01008D1CH   LINE      CODE     ---       #161
      01008D20H   LINE      CODE     ---       #162
      ---         BLOCKEND  ---      ---       LVL=0

      01008CC5H   BLOCK     CODE     ---       LVL=0
      01008CC5H   LINE      CODE     ---       #164
      01008CC5H   LINE      CODE     ---       #165
      01008CC5H   LINE      CODE     ---       #166
      01008CCAH   LINE      CODE     ---       #167
      ---         BLOCKEND  ---      ---       LVL=0

      01007AE7H   BLOCK     CODE     ---       LVL=0
      01007AE7H   LINE      CODE     ---       #169
      01007AE7H   LINE      CODE     ---       #170
      01007AE7H   LINE      CODE     ---       #171
      01007AF0H   LINE      CODE     ---       #172
      01007AF5H   LINE      CODE     ---       #173
      01007AFCH   LINE      CODE     ---       #174
      01007B00H   LINE      CODE     ---       #175
      ---         BLOCKEND  ---      ---       LVL=0

      01007B05H   BLOCK     CODE     ---       LVL=0
      01007B05H   LINE      CODE     ---       #178
      01007B05H   LINE      CODE     ---       #179
      01007B05H   LINE      CODE     ---       #180
      01007B0EH   LINE      CODE     ---       #181
      01007B13H   LINE      CODE     ---       #182
      01007B1AH   LINE      CODE     ---       #183
      01007B1EH   LINE      CODE     ---       #184
      ---         BLOCKEND  ---      ---       LVL=0

LX51 LINKER/LOCATER V4.66.87.0                                                        06/04/2018  21:13:51  PAGE 155


      0100892AH   BLOCK     CODE     ---       LVL=0
      0100892AH   LINE      CODE     ---       #187
      0100892AH   LINE      CODE     ---       #188
      0100892AH   LINE      CODE     ---       #189
      01008933H   LINE      CODE     ---       #190
      01008935H   LINE      CODE     ---       #191
      01008937H   LINE      CODE     ---       #192
      ---         BLOCKEND  ---      ---       LVL=0

      010089EDH   BLOCK     CODE     ---       LVL=0
      010089EDH   LINE      CODE     ---       #194
      010089EDH   LINE      CODE     ---       #195
      010089EDH   LINE      CODE     ---       #196
      010089F6H   LINE      CODE     ---       #197
      010089F8H   LINE      CODE     ---       #198
      ---         BLOCKEND  ---      ---       LVL=0

      0100828FH   BLOCK     CODE     ---       LVL=0
      0100828FH   LINE      CODE     ---       #200
      0100828FH   LINE      CODE     ---       #201
      0100828FH   LINE      CODE     ---       #202
      01008291H   LINE      CODE     ---       #203
      ---         BLOCKEND  ---      ---       LVL=0

      01007F9EH   BLOCK     CODE     ---       LVL=0
      00000020H.0 SYMBOL    BIT      BIT       enable
      01007F9EH   LINE      CODE     ---       #206
      01007F9EH   LINE      CODE     ---       #207
      01007F9EH   LINE      CODE     ---       #208
      01007FB3H   LINE      CODE     ---       #209
      01007FB7H   LINE      CODE     ---       #210
      ---         BLOCKEND  ---      ---       LVL=0

      0100886EH   BLOCK     CODE     ---       LVL=0
      0100886EH   LINE      CODE     ---       #212
      0100886EH   LINE      CODE     ---       #213
      0100886EH   LINE      CODE     ---       #214
      01008871H   LINE      CODE     ---       #215
      01008874H   LINE      CODE     ---       #216
      01008876H   LINE      CODE     ---       #217
      01008878H   LINE      CODE     ---       #218
      0100887AH   LINE      CODE     ---       #219
      0100887CH   LINE      CODE     ---       #220
      ---         BLOCKEND  ---      ---       LVL=0

      01007B23H   BLOCK     CODE     ---       LVL=0
      01007B23H   BLOCK     CODE     NEAR LAB  LVL=1
      00000020H.2 SYMBOL    BIT      BIT       borrow_min
      ---         BLOCKEND  ---      ---       LVL=1
      01007B23H   LINE      CODE     ---       #224
      01007B23H   LINE      CODE     ---       #225
      01007B23H   LINE      CODE     ---       #227
      01007B25H   LINE      CODE     ---       #229
      01007B2FH   LINE      CODE     ---       #231
      01007B33H   LINE      CODE     ---       #232
      01007B35H   LINE      CODE     ---       #233
      01007B35H   LINE      CODE     ---       #235
      01007B3EH   LINE      CODE     ---       #237
      01007B40H   LINE      CODE     ---       #238
      ---         BLOCKEND  ---      ---       LVL=0

      01006923H   BLOCK     CODE     ---       LVL=0
      00000020H.2 SYMBOL    BIT      BIT       borrow_min
      01006923H   BLOCK     CODE     NEAR LAB  LVL=1
      00000020H.3 SYMBOL    BIT      BIT       borrow_hour
LX51 LINKER/LOCATER V4.66.87.0                                                        06/04/2018  21:13:51  PAGE 156


      ---         BLOCKEND  ---      ---       LVL=1
      01006923H   LINE      CODE     ---       #242
      01006923H   LINE      CODE     ---       #243
      01006923H   LINE      CODE     ---       #245
      01006925H   LINE      CODE     ---       #247
      0100693CH   LINE      CODE     ---       #249
      01006942H   LINE      CODE     ---       #250
      01006944H   LINE      CODE     ---       #251
      01006944H   LINE      CODE     ---       #253
      0100694DH   LINE      CODE     ---       #254
      0100695AH   LINE      CODE     ---       #256
      0100695CH   LINE      CODE     ---       #257
      ---         BLOCKEND  ---      ---       LVL=0

      0100695DH   BLOCK     CODE     ---       LVL=0
      00000020H.2 SYMBOL    BIT      BIT       borrow_hour
      0100695DH   BLOCK     CODE     NEAR LAB  LVL=1
      00000020H.3 SYMBOL    BIT      BIT       borrow_date
      ---         BLOCKEND  ---      ---       LVL=1
      0100695DH   LINE      CODE     ---       #260
      0100695DH   LINE      CODE     ---       #261
      0100695DH   LINE      CODE     ---       #263
      0100695FH   LINE      CODE     ---       #265
      01006976H   LINE      CODE     ---       #267
      0100697CH   LINE      CODE     ---       #268
      0100697EH   LINE      CODE     ---       #269
      0100697EH   LINE      CODE     ---       #271
      01006987H   LINE      CODE     ---       #272
      01006994H   LINE      CODE     ---       #274
      01006996H   LINE      CODE     ---       #275
      ---         BLOCKEND  ---      ---       LVL=0

      01002896H   BLOCK     CODE     ---       LVL=0
      00000020H.2 SYMBOL    BIT      BIT       borrow_date
      01002896H   BLOCK     CODE     NEAR LAB  LVL=1
      02000016H   SYMBOL    XDATA    BYTE      i
      02000017H   SYMBOL    XDATA    BYTE      j
      02000018H   SYMBOL    XDATA    LONG      day
      ---         BLOCKEND  ---      ---       LVL=1
      01002896H   LINE      CODE     ---       #279
      01002896H   LINE      CODE     ---       #280
      01002896H   LINE      CODE     ---       #284
      010028A0H   LINE      CODE     ---       #287
      010028B3H   LINE      CODE     ---       #288
      010028CBH   LINE      CODE     ---       #290
      010028DDH   LINE      CODE     ---       #292
      010028ECH   LINE      CODE     ---       #293
      010028FCH   LINE      CODE     ---       #295
      0100290FH   LINE      CODE     ---       #296
      01002926H   LINE      CODE     ---       #298
      0100295EH   LINE      CODE     ---       #300
      01002961H   LINE      CODE     ---       #301
      01002973H   LINE      CODE     ---       #303
      0100297AH   LINE      CODE     ---       #304
      0100297EH   LINE      CODE     ---       #305
      01002980H   LINE      CODE     ---       #306
      01002982H   LINE      CODE     ---       #307
      01002984H   LINE      CODE     ---       #308
      01002995H   LINE      CODE     ---       #309
      0100299FH   LINE      CODE     ---       #310
      0100299FH   LINE      CODE     ---       #312
      010029A6H   LINE      CODE     ---       #313
      ---         BLOCKEND  ---      ---       LVL=0

      01004184H   BLOCK     CODE     ---       LVL=0
LX51 LINKER/LOCATER V4.66.87.0                                                        06/04/2018  21:13:51  PAGE 157


      01004184H   LINE      CODE     ---       #382
      01004184H   LINE      CODE     ---       #383
      01004184H   LINE      CODE     ---       #384
      0100418AH   LINE      CODE     ---       #387
      0100418DH   LINE      CODE     ---       #388
      0100419AH   LINE      CODE     ---       #390
      0100419AH   LINE      CODE     ---       #391
      0100419DH   LINE      CODE     ---       #392
      010041A1H   LINE      CODE     ---       #393
      010041A3H   LINE      CODE     ---       #394
      010041A5H   LINE      CODE     ---       #395
      010041A9H   LINE      CODE     ---       #396
      010041ABH   LINE      CODE     ---       #397
      010041ADH   LINE      CODE     ---       #398
      010041B1H   LINE      CODE     ---       #399
      010041B3H   LINE      CODE     ---       #400
      010041BAH   LINE      CODE     ---       #401
      010041BBH   LINE      CODE     ---       #402
      010041BBH   LINE      CODE     ---       #403
      010041BBH   LINE      CODE     ---       #404
      010041BBH   LINE      CODE     ---       #405
      010041BBH   LINE      CODE     ---       #406
      010041BDH   LINE      CODE     ---       #407
      010041BDH   LINE      CODE     ---       #408
      010041C0H   LINE      CODE     ---       #409
      010041C0H   LINE      CODE     ---       #410
      010041C0H   LINE      CODE     ---       #412
      010041C6H   LINE      CODE     ---       #413
      010041C9H   LINE      CODE     ---       #414
      010041D3H   LINE      CODE     ---       #415
      010041D9H   LINE      CODE     ---       #416
      010041DFH   LINE      CODE     ---       #417
      010041E5H   LINE      CODE     ---       #418
      010041EEH   LINE      CODE     ---       #419
      010041F5H   LINE      CODE     ---       #420
      010041F6H   LINE      CODE     ---       #421
      010041FDH   LINE      CODE     ---       #422
      01004202H   LINE      CODE     ---       #423
      01004207H   LINE      CODE     ---       #424
      0100420CH   LINE      CODE     ---       #425
      01004211H   LINE      CODE     ---       #426
      01004216H   LINE      CODE     ---       #427
      01004219H   LINE      CODE     ---       #428
      0100421FH   LINE      CODE     ---       #429
      0100421FH   LINE      CODE     ---       #430
      0100421FH   LINE      CODE     ---       #431
      ---         BLOCKEND  ---      ---       LVL=0

      010065C0H   BLOCK     CODE     ---       LVL=0
      010065C0H   LINE      CODE     ---       #436
      010065C0H   LINE      CODE     ---       #437
      010065C0H   LINE      CODE     ---       #438
      010065C9H   LINE      CODE     ---       #439
      010065D2H   LINE      CODE     ---       #440
      010065DBH   LINE      CODE     ---       #441
      010065E4H   LINE      CODE     ---       #442
      010065EDH   LINE      CODE     ---       #443
      010065F6H   LINE      CODE     ---       #444
      01006600H   LINE      CODE     ---       #445
      ---         BLOCKEND  ---      ---       LVL=0

      01005ADAH   BLOCK     CODE     ---       LVL=0
      02000016H   SYMBOL    XDATA    BYTE      type
      01005ADAH   LINE      CODE     ---       #448
      01005ADFH   LINE      CODE     ---       #449
LX51 LINKER/LOCATER V4.66.87.0                                                        06/04/2018  21:13:51  PAGE 158


      01005ADFH   LINE      CODE     ---       #450
      01005AE9H   LINE      CODE     ---       #451
      01005B00H   LINE      CODE     ---       #452
      01005B00H   LINE      CODE     ---       #453
      01005B06H   LINE      CODE     ---       #454
      01005B08H   LINE      CODE     ---       #455
      01005B08H   LINE      CODE     ---       #456
      01005B0EH   LINE      CODE     ---       #457
      01005B10H   LINE      CODE     ---       #458
      01005B10H   LINE      CODE     ---       #459
      01005B16H   LINE      CODE     ---       #460
      01005B18H   LINE      CODE     ---       #461
      01005B18H   LINE      CODE     ---       #462
      01005B1EH   LINE      CODE     ---       #463
      01005B20H   LINE      CODE     ---       #464
      01005B20H   LINE      CODE     ---       #465
      01005B26H   LINE      CODE     ---       #466
      01005B28H   LINE      CODE     ---       #467
      01005B28H   LINE      CODE     ---       #468
      01005B31H   LINE      CODE     ---       #469
      01005B31H   LINE      CODE     ---       #471
      01005B31H   LINE      CODE     ---       #472
      ---         BLOCKEND  ---      ---       LVL=0

      010048D5H   BLOCK     CODE     ---       LVL=0
      00000020H.0 SYMBOL    BIT      BIT       too_close_check
      010048D5H   BLOCK     CODE     NEAR LAB  LVL=1
      00000020H.1 SYMBOL    BIT      BIT       borrow
      ---         BLOCKEND  ---      ---       LVL=1
      010048D5H   LINE      CODE     ---       #480
      010048D5H   LINE      CODE     ---       #481
      010048D5H   LINE      CODE     ---       #485
      010048DAH   LINE      CODE     ---       #486
      010048DFH   LINE      CODE     ---       #487
      010048E8H   LINE      CODE     ---       #488
      010048F1H   LINE      CODE     ---       #489
      010048F8H   LINE      CODE     ---       #490
      010048FDH   LINE      CODE     ---       #492
      0100490CH   LINE      CODE     ---       #496
      01004919H   LINE      CODE     ---       #497
      0100491DH   LINE      CODE     ---       #498
      01004923H   LINE      CODE     ---       #499
      01004925H   LINE      CODE     ---       #500
      01004930H   LINE      CODE     ---       #501
      01004939H   LINE      CODE     ---       #502
      0100493CH   LINE      CODE     ---       #503
      0100493CH   LINE      CODE     ---       #504
      0100493CH   LINE      CODE     ---       #506
      01004944H   LINE      CODE     ---       #507
      01004953H   LINE      CODE     ---       #508
      01004956H   LINE      CODE     ---       #509
      01004956H   LINE      CODE     ---       #511
      01004958H   LINE      CODE     ---       #512
      ---         BLOCKEND  ---      ---       LVL=0

      0100657EH   BLOCK     CODE     ---       LVL=0
      0100657EH   LINE      CODE     ---       #515
      0100657EH   LINE      CODE     ---       #516
      0100657EH   LINE      CODE     ---       #517
      01006590H   LINE      CODE     ---       #520
      01006595H   LINE      CODE     ---       #521
      0100659AH   LINE      CODE     ---       #522
      010065A1H   LINE      CODE     ---       #523
      010065A9H   LINE      CODE     ---       #524
      010065AFH   LINE      CODE     ---       #525
LX51 LINKER/LOCATER V4.66.87.0                                                        06/04/2018  21:13:51  PAGE 159


      010065B5H   LINE      CODE     ---       #526
      010065BBH   LINE      CODE     ---       #527
      ---         BLOCKEND  ---      ---       LVL=0

      ---         MODULE    ---      ---       SERIAL_HUB
      01006997H   PUBLIC    CODE     ---       serial_hub_initialize
      01007076H   PUBLIC    CODE     ---       _serial_test_ctl_bit
      00000020H.2 PUBLIC    BIT      BIT       ?_serial_set_ctl_bit?BIT
      01006F2CH   PUBLIC    CODE     ---       _serial_set_ctl_bit
      01007F1AH   PUBLIC    CODE     ---       serial_ctl_out
      010013FCH   PUBLIC    CODE     ---       serial_dump
      00000080H   SFRSYM    DATA     BYTE      P0
      00000090H   SFRSYM    DATA     BYTE      P1
      000000A0H   SFRSYM    DATA     BYTE      P2
      000000B0H   SFRSYM    DATA     BYTE      P3
      000000C0H   SFRSYM    DATA     BYTE      XICON
      000000B0H.4 SFRSYM    DATA     BIT       T0
      000000D0H.6 SFRSYM    DATA     BIT       AC
      000000E8H   SFRSYM    DATA     BYTE      P4
      000000B0H.5 SFRSYM    DATA     BIT       T1
      000000E6H   SFRSYM    DATA     BYTE      ISP_TRIG
      00000090H.0 SFRSYM    DATA     BIT       T2
      000000A8H.7 SFRSYM    DATA     BIT       EA
      000000A8H.6 SFRSYM    DATA     BIT       EC
      00000098H.7 SFRSYM    DATA     BIT       FE
      000000A8H   SFRSYM    DATA     BYTE      IE
      000000C8H.6 SFRSYM    DATA     BIT       EXF2
      000000B0H.7 SFRSYM    DATA     BIT       RD
      000000A8H.4 SFRSYM    DATA     BIT       ES
      000000B8H   SFRSYM    DATA     BYTE      IP
      00000098H.0 SFRSYM    DATA     BIT       RI
      000000B0H.2 SFRSYM    DATA     BIT       INT0
      000000D0H.7 SFRSYM    DATA     BIT       CY
      00000098H.1 SFRSYM    DATA     BIT       TI
      000000B0H.3 SFRSYM    DATA     BIT       INT1
      000000CBH   SFRSYM    DATA     BYTE      RCAP2H
      000000E5H   SFRSYM    DATA     BYTE      ISP_CMD
      000000B8H.4 SFRSYM    DATA     BIT       PS
      00000081H   SFRSYM    DATA     BYTE      SP
      00000090H.1 SFRSYM    DATA     BIT       T2EX
      000000D0H.2 SFRSYM    DATA     BIT       OV
      000000CAH   SFRSYM    DATA     BYTE      RCAP2L
      000000C8H.1 SFRSYM    DATA     BIT       C_T2
      000000B0H.6 SFRSYM    DATA     BIT       WR
      000000C8H.5 SFRSYM    DATA     BIT       RCLK
      000000C8H.4 SFRSYM    DATA     BIT       TCLK
      00000080H.0 SFRSYM    DATA     BIT       P00
      00000099H   SFRSYM    DATA     BYTE      SBUF
      00000087H   SFRSYM    DATA     BYTE      PCON
      00000090H.0 SFRSYM    DATA     BIT       P10
      00000080H.1 SFRSYM    DATA     BIT       P01
      000000A0H.0 SFRSYM    DATA     BIT       P20
      00000090H.1 SFRSYM    DATA     BIT       P11
      00000080H.2 SFRSYM    DATA     BIT       P02
      000000E3H   SFRSYM    DATA     BYTE      ISP_ADDRH
      000000B0H.0 SFRSYM    DATA     BIT       P30
      000000A0H.1 SFRSYM    DATA     BIT       P21
      00000090H.2 SFRSYM    DATA     BIT       P12
      00000080H.3 SFRSYM    DATA     BIT       P03
      00000098H   SFRSYM    DATA     BYTE      SCON
      000000B0H.1 SFRSYM    DATA     BIT       P31
      000000A0H.2 SFRSYM    DATA     BIT       P22
      00000090H.3 SFRSYM    DATA     BIT       P13
      00000080H.4 SFRSYM    DATA     BIT       P04
      000000E8H.0 SFRSYM    DATA     BIT       P40
LX51 LINKER/LOCATER V4.66.87.0                                                        06/04/2018  21:13:51  PAGE 160


      00000089H   SFRSYM    DATA     BYTE      TMOD
      00000088H   SFRSYM    DATA     BYTE      TCON
      000000B0H.2 SFRSYM    DATA     BIT       P32
      000000A0H.3 SFRSYM    DATA     BIT       P23
      00000090H.4 SFRSYM    DATA     BIT       P14
      00000080H.5 SFRSYM    DATA     BIT       P05
      000000E8H.1 SFRSYM    DATA     BIT       P41
      000000B0H.3 SFRSYM    DATA     BIT       P33
      000000A0H.4 SFRSYM    DATA     BIT       P24
      00000090H.5 SFRSYM    DATA     BIT       P15
      00000080H.6 SFRSYM    DATA     BIT       P06
      000000E4H   SFRSYM    DATA     BYTE      ISP_ADDRL
      000000E8H.2 SFRSYM    DATA     BIT       P42
      000000B0H.4 SFRSYM    DATA     BIT       P34
      000000A0H.5 SFRSYM    DATA     BIT       P25
      00000090H.6 SFRSYM    DATA     BIT       P16
      00000080H.7 SFRSYM    DATA     BIT       P07
      000000E8H.3 SFRSYM    DATA     BIT       P43
      000000B0H.5 SFRSYM    DATA     BIT       P35
      000000A0H.6 SFRSYM    DATA     BIT       P26
      00000090H.7 SFRSYM    DATA     BIT       P17
      000000E8H.4 SFRSYM    DATA     BIT       P44
      000000B0H.6 SFRSYM    DATA     BIT       P36
      000000A0H.7 SFRSYM    DATA     BIT       P27
      000000E8H.5 SFRSYM    DATA     BIT       P45
      000000B0H.7 SFRSYM    DATA     BIT       P37
      000000E8H.6 SFRSYM    DATA     BIT       P46
      00000088H.1 SFRSYM    DATA     BIT       IE0
      00000088H.3 SFRSYM    DATA     BIT       IE1
      0000008EH   SFRSYM    DATA     BYTE      AUXR
      000000F0H   SFRSYM    DATA     BYTE      B
      000000C8H.0 SFRSYM    DATA     BIT       CP_RL2
      000000E0H   SFRSYM    DATA     BYTE      ACC
      000000A8H.1 SFRSYM    DATA     BIT       ET0
      000000A8H.3 SFRSYM    DATA     BIT       ET1
      00000088H.5 SFRSYM    DATA     BIT       TF0
      000000A8H.5 SFRSYM    DATA     BIT       ET2
      00000088H.7 SFRSYM    DATA     BIT       TF1
      000000C8H.7 SFRSYM    DATA     BIT       TF2
      00000098H.2 SFRSYM    DATA     BIT       RB8
      0000008CH   SFRSYM    DATA     BYTE      TH0
      000000A8H.0 SFRSYM    DATA     BIT       EX0
      00000088H.0 SFRSYM    DATA     BIT       IT0
      0000008DH   SFRSYM    DATA     BYTE      TH1
      00000098H.3 SFRSYM    DATA     BIT       TB8
      000000A8H.2 SFRSYM    DATA     BIT       EX1
      00000088H.2 SFRSYM    DATA     BIT       IT1
      000000CDH   SFRSYM    DATA     BYTE      TH2
      000000D0H.0 SFRSYM    DATA     BIT       P
      00000098H.7 SFRSYM    DATA     BIT       SM0
      0000008AH   SFRSYM    DATA     BYTE      TL0
      00000098H.6 SFRSYM    DATA     BIT       SM1
      0000008BH   SFRSYM    DATA     BYTE      TL1
      00000098H.5 SFRSYM    DATA     BIT       SM2
      000000CCH   SFRSYM    DATA     BYTE      TL2
      000000B8H.1 SFRSYM    DATA     BIT       PT0
      000000B8H.3 SFRSYM    DATA     BIT       PT1
      000000D0H.3 SFRSYM    DATA     BIT       RS0
      000000E7H   SFRSYM    DATA     BYTE      ISP_CONTR
      000000B8H.5 SFRSYM    DATA     BIT       PT2
      00000088H.4 SFRSYM    DATA     BIT       TR0
      000000D0H.4 SFRSYM    DATA     BIT       RS1
      00000088H.6 SFRSYM    DATA     BIT       TR1
      000000C8H.2 SFRSYM    DATA     BIT       TR2
      000000B8H.0 SFRSYM    DATA     BIT       PX0
LX51 LINKER/LOCATER V4.66.87.0                                                        06/04/2018  21:13:51  PAGE 161


      000000E1H   SFRSYM    DATA     BYTE      WDT_CONTR
      000000B8H.2 SFRSYM    DATA     BIT       PX1
      00000083H   SFRSYM    DATA     BYTE      DPH
      00000082H   SFRSYM    DATA     BYTE      DPL
      000000B7H   SFRSYM    DATA     BYTE      IPH
      000000C8H.3 SFRSYM    DATA     BIT       EXEN2
      00000098H.4 SFRSYM    DATA     BIT       REN
      000000C9H   SFRSYM    DATA     BYTE      T2MOD
      000000C8H   SFRSYM    DATA     BYTE      T2CON
      000000E2H   SFRSYM    DATA     BYTE      ISP_DATA
      000000B9H   SFRSYM    DATA     BYTE      SADEN
      000000B0H.0 SFRSYM    DATA     BIT       RXD
      000000A9H   SFRSYM    DATA     BYTE      SADDR
      000000B0H.1 SFRSYM    DATA     BIT       TXD
      000000A2H   SFRSYM    DATA     BYTE      AUXR1
      000000D0H.5 SFRSYM    DATA     BIT       F0
      000000D0H   SFRSYM    DATA     BYTE      PSW
      020000E2H   SYMBOL    XDATA    ---       ctl_buffer

      01008052H   BLOCK     CODE     ---       LVL=0
      ---         BLOCKEND  ---      ---       LVL=0

      010013FCH   BLOCK     CODE     ---       LVL=0
      010013FCH   LINE      CODE     ---       #15
      010013FCH   LINE      CODE     ---       #16
      010013FCH   LINE      CODE     ---       #17
      01001405H   LINE      CODE     ---       #18
      0100141EH   LINE      CODE     ---       #19
      01001436H   LINE      CODE     ---       #20
      0100144EH   LINE      CODE     ---       #21
      01001466H   LINE      CODE     ---       #22
      0100147EH   LINE      CODE     ---       #23
      01001496H   LINE      CODE     ---       #24
      010014AEH   LINE      CODE     ---       #25
      010014C6H   LINE      CODE     ---       #26
      010014DEH   LINE      CODE     ---       #27
      010014F6H   LINE      CODE     ---       #28
      0100150EH   LINE      CODE     ---       #29
      01001526H   LINE      CODE     ---       #30
      0100153EH   LINE      CODE     ---       #31
      01001556H   LINE      CODE     ---       #32
      0100156EH   LINE      CODE     ---       #33
      01001586H   LINE      CODE     ---       #34
      010015A2H   LINE      CODE     ---       #35
      010015ABH   LINE      CODE     ---       #36
      ---         BLOCKEND  ---      ---       LVL=0

      01007F1AH   BLOCK     CODE     ---       LVL=0
      01007F1AH   LINE      CODE     ---       #38
      01007F1AH   LINE      CODE     ---       #39
      01007F1AH   LINE      CODE     ---       #40
      01007F26H   LINE      CODE     ---       #41
      01007F32H   LINE      CODE     ---       #43
      ---         BLOCKEND  ---      ---       LVL=0

      01006F2CH   BLOCK     CODE     ---       LVL=0
      00000007H   SYMBOL    DATA     BYTE      index
      00000020H.2 SYMBOL    BIT      BIT       what
      01006F2CH   LINE      CODE     ---       #46
      01006F2CH   LINE      CODE     ---       #47
      01006F2CH   LINE      CODE     ---       #48
      01006F32H   LINE      CODE     ---       #51
      01006F52H   LINE      CODE     ---       #52
      01006F55H   LINE      CODE     ---       #53
      01006F5BH   LINE      CODE     ---       #54
LX51 LINKER/LOCATER V4.66.87.0                                                        06/04/2018  21:13:51  PAGE 162


      ---         BLOCKEND  ---      ---       LVL=0

      01007076H   BLOCK     CODE     ---       LVL=0
      00000007H   SYMBOL    DATA     BYTE      index
      01007076H   LINE      CODE     ---       #56
      01007076H   LINE      CODE     ---       #57
      01007076H   LINE      CODE     ---       #58
      0100707CH   LINE      CODE     ---       #59
      0100707DH   LINE      CODE     ---       #61
      010070A3H   LINE      CODE     ---       #62
      ---         BLOCKEND  ---      ---       LVL=0

      01006997H   BLOCK     CODE     ---       LVL=0
      01006997H   LINE      CODE     ---       #65
      01006997H   LINE      CODE     ---       #66
      01006997H   LINE      CODE     ---       #67
      010069A0H   LINE      CODE     ---       #69
      010069AAH   LINE      CODE     ---       #72
      010069B3H   LINE      CODE     ---       #75
      010069BCH   LINE      CODE     ---       #78
      010069C5H   LINE      CODE     ---       #81
      010069CEH   LINE      CODE     ---       #83
      ---         BLOCKEND  ---      ---       LVL=0

      ---         MODULE    ---      ---       THERMO
      01008BCAH   PUBLIC    CODE     ---       thermo_leave_powersave
      01008BC1H   PUBLIC    CODE     ---       thermo_enter_powersave
      010083C7H   PUBLIC    CODE     ---       _thermo_proc
      01008C3FH   PUBLIC    CODE     ---       thermo_lo_threshold_reset
      01008C37H   PUBLIC    CODE     ---       thermo_hi_threshold_reset
      00000020H.1 PUBLIC    BIT      BIT       ?thermo_lo_enable?BIT
      01007A8AH   PUBLIC    CODE     ---       thermo_lo_enable
      00000020H.1 PUBLIC    BIT      BIT       ?thermo_hi_enable?BIT
      01007A6BH   PUBLIC    CODE     ---       thermo_hi_enable
      01008A05H   PUBLIC    CODE     ---       thermo_lo_threshold_reach_top
      01008AA2H   PUBLIC    CODE     ---       thermo_lo_threshold_reach_bottom
      010089F9H   PUBLIC    CODE     ---       thermo_hi_threshold_reach_top
      01008A97H   PUBLIC    CODE     ---       thermo_hi_threshold_reach_bottom
      010067F8H   PUBLIC    CODE     ---       _thermo_threshold_inc
      010086DAH   PUBLIC    CODE     ---       thermo_lo_threshold_inc
      010086C8H   PUBLIC    CODE     ---       thermo_lo_threshold_dec
      010086B6H   PUBLIC    CODE     ---       thermo_hi_threshold_inc
      010086A4H   PUBLIC    CODE     ---       thermo_hi_threshold_dec
      0100536BH   PUBLIC    CODE     ---       _thermo_lo_threshold_set
      010057A9H   PUBLIC    CODE     ---       _thermo_hi_threshold_set
      010077B3H   PUBLIC    CODE     ---       thermo_lo_threshold_get
      010078E8H   PUBLIC    CODE     ---       thermo_hi_threshold_get
      01006E39H   PUBLIC    CODE     ---       thermo_get_current
      01005B32H   PUBLIC    CODE     ---       _scan_thermo
      01008692H   PUBLIC    CODE     ---       thermo_initialize
      020000E4H   SYMBOL    XDATA    CHAR      thermo_threshold_lo
      0100818EH   SYMBOL    CODE     ---       thermo_hi_power_on
      010076B9H   SYMBOL    CODE     ---       _thermo_hex_to_temp
      01006601H   SYMBOL    CODE     ---       _thermo_temp_to_hex
      01008998H   SYMBOL    CODE     ---       thermo_reset
      010081A6H   SYMBOL    CODE     ---       thermo_lo_power_on
      01007BD2H   SYMBOL    CODE     ---       thermo_hi_load_config
      01007BEFH   SYMBOL    CODE     ---       thermo_lo_load_config
      0100815EH   SYMBOL    CODE     ---       thermo_hi_power_off
      020000E5H   SYMBOL    XDATA    CHAR      thermo_threshold_hi
      01008176H   SYMBOL    CODE     ---       thermo_lo_power_off

      0100639DH   BLOCK     CODE     ---       LVL=0
      ---         BLOCKEND  ---      ---       LVL=0

LX51 LINKER/LOCATER V4.66.87.0                                                        06/04/2018  21:13:51  PAGE 163


      01008998H   BLOCK     CODE     ---       LVL=0
      01008998H   BLOCK     CODE     NEAR LAB  LVL=1
      02000000H   SYMBOL    XDATA    BYTE      val
      ---         BLOCKEND  ---      ---       LVL=1
      01008998H   LINE      CODE     ---       #36
      01008998H   LINE      CODE     ---       #37
      01008998H   LINE      CODE     ---       #40
      ---         BLOCKEND  ---      ---       LVL=0

      01007BD2H   BLOCK     CODE     ---       LVL=0
      01007BD2H   LINE      CODE     ---       #43
      01007BD2H   LINE      CODE     ---       #44
      01007BD2H   LINE      CODE     ---       #45
      01007BDBH   LINE      CODE     ---       #47
      01007BE5H   LINE      CODE     ---       #48
      ---         BLOCKEND  ---      ---       LVL=0

      01007BEFH   BLOCK     CODE     ---       LVL=0
      01007BEFH   LINE      CODE     ---       #51
      01007BEFH   LINE      CODE     ---       #52
      01007BEFH   LINE      CODE     ---       #53
      01007BF8H   LINE      CODE     ---       #55
      01007C02H   LINE      CODE     ---       #56
      ---         BLOCKEND  ---      ---       LVL=0

      0100815EH   BLOCK     CODE     ---       LVL=0
      0100815EH   LINE      CODE     ---       #59
      0100815EH   LINE      CODE     ---       #60
      0100815EH   LINE      CODE     ---       #61
      01008161H   LINE      CODE     ---       #68
      0100816AH   LINE      CODE     ---       #72
      0100816DH   LINE      CODE     ---       #75
      ---         BLOCKEND  ---      ---       LVL=0

      01008176H   BLOCK     CODE     ---       LVL=0
      01008176H   LINE      CODE     ---       #92
      01008176H   LINE      CODE     ---       #93
      01008176H   LINE      CODE     ---       #94
      01008179H   LINE      CODE     ---       #101
      01008182H   LINE      CODE     ---       #104
      01008185H   LINE      CODE     ---       #107
      ---         BLOCKEND  ---      ---       LVL=0

      01008692H   BLOCK     CODE     ---       LVL=0
      01008692H   LINE      CODE     ---       #126
      01008692H   LINE      CODE     ---       #127
      01008692H   LINE      CODE     ---       #128
      0100869BH   LINE      CODE     ---       #129
      0100869EH   LINE      CODE     ---       #130
      010086A1H   LINE      CODE     ---       #131
      ---         BLOCKEND  ---      ---       LVL=0

      0100818EH   BLOCK     CODE     ---       LVL=0
      0100818EH   LINE      CODE     ---       #134
      0100818EH   LINE      CODE     ---       #135
      0100818EH   LINE      CODE     ---       #136
      01008191H   LINE      CODE     ---       #142
      0100819AH   LINE      CODE     ---       #145
      0100819DH   LINE      CODE     ---       #148
      ---         BLOCKEND  ---      ---       LVL=0

      010081A6H   BLOCK     CODE     ---       LVL=0
      010081A6H   LINE      CODE     ---       #165
      010081A6H   LINE      CODE     ---       #166
      010081A6H   LINE      CODE     ---       #167
LX51 LINKER/LOCATER V4.66.87.0                                                        06/04/2018  21:13:51  PAGE 164


      010081A9H   LINE      CODE     ---       #173
      010081B2H   LINE      CODE     ---       #176
      010081B5H   LINE      CODE     ---       #179
      ---         BLOCKEND  ---      ---       LVL=0

      01005B32H   BLOCK     CODE     ---       LVL=0
      02000016H   SYMBOL    XDATA    WORD      status
      01005B3AH   BLOCK     CODE     NEAR LAB  LVL=1
      00000020H.0 SYMBOL    BIT      BIT       has_event
      ---         BLOCKEND  ---      ---       LVL=1
      01005B32H   LINE      CODE     ---       #195
      01005B3AH   LINE      CODE     ---       #196
      01005B3AH   LINE      CODE     ---       #197
      01005B3CH   LINE      CODE     ---       #199
      01005B4DH   LINE      CODE     ---       #201
      01005B54H   LINE      CODE     ---       #202
      01005B5DH   LINE      CODE     ---       #203
      01005B63H   LINE      CODE     ---       #204
      01005B65H   LINE      CODE     ---       #205
      01005B65H   LINE      CODE     ---       #207
      01005B6DH   LINE      CODE     ---       #208
      01005B76H   LINE      CODE     ---       #209
      01005B7CH   LINE      CODE     ---       #210
      01005B7EH   LINE      CODE     ---       #211
      01005B7EH   LINE      CODE     ---       #213
      01005B86H   LINE      CODE     ---       #214
      01005B89H   LINE      CODE     ---       #215
      01005B89H   LINE      CODE     ---       #216
      ---         BLOCKEND  ---      ---       LVL=0

      01006601H   BLOCK     CODE     ---       LVL=0
      00000005H   SYMBOL    DATA     CHAR      temp
      01006603H   BLOCK     CODE     NEAR LAB  LVL=1
      02000019H   SYMBOL    XDATA    WORD      ret
      ---         BLOCKEND  ---      ---       LVL=1
      01006601H   LINE      CODE     ---       #218
      01006603H   LINE      CODE     ---       #219
      01006603H   LINE      CODE     ---       #220
      0100660EH   LINE      CODE     ---       #221
      01006616H   LINE      CODE     ---       #222
      0100661FH   LINE      CODE     ---       #223
      01006638H   LINE      CODE     ---       #224
      01006640H   LINE      CODE     ---       #225
      ---         BLOCKEND  ---      ---       LVL=0

      010076B9H   BLOCK     CODE     ---       LVL=0
      00000004H   SYMBOL    DATA     WORD      val
      010076BDH   BLOCK     CODE     NEAR LAB  LVL=1
      02000017H   SYMBOL    XDATA    CHAR      temp
      ---         BLOCKEND  ---      ---       LVL=1
      010076B9H   LINE      CODE     ---       #227
      010076BDH   LINE      CODE     ---       #228
      010076BDH   LINE      CODE     ---       #230
      010076C2H   LINE      CODE     ---       #231
      010076D7H   LINE      CODE     ---       #232
      010076DCH   LINE      CODE     ---       #233
      ---         BLOCKEND  ---      ---       LVL=0

      01006E39H   BLOCK     CODE     ---       LVL=0
      01006E39H   BLOCK     CODE     NEAR LAB  LVL=1
      0200000BH   SYMBOL    XDATA    WORD      val
      0200000DH   SYMBOL    XDATA    BYTE      tmp
      ---         BLOCKEND  ---      ---       LVL=1
      01006E39H   LINE      CODE     ---       #236
      01006E39H   LINE      CODE     ---       #237
LX51 LINKER/LOCATER V4.66.87.0                                                        06/04/2018  21:13:51  PAGE 165


      01006E39H   LINE      CODE     ---       #241
      01006E39H   LINE      CODE     ---       #242
      01006E47H   LINE      CODE     ---       #243
      01006E5FH   LINE      CODE     ---       #245
      ---         BLOCKEND  ---      ---       LVL=0

      010078E8H   BLOCK     CODE     ---       LVL=0
      010078E8H   BLOCK     CODE     NEAR LAB  LVL=1
      02000015H   SYMBOL    XDATA    WORD      val
      00000007H   SYMBOL    DATA     CHAR      ret
      ---         BLOCKEND  ---      ---       LVL=1
      010078E8H   LINE      CODE     ---       #261
      010078E8H   LINE      CODE     ---       #262
      010078E8H   LINE      CODE     ---       #266
      010078F6H   LINE      CODE     ---       #270
      01007901H   LINE      CODE     ---       #271
      01007905H   LINE      CODE     ---       #272
      01007908H   LINE      CODE     ---       #274
      01007908H   LINE      CODE     ---       #275
      ---         BLOCKEND  ---      ---       LVL=0

      010077B3H   BLOCK     CODE     ---       LVL=0
      010077B3H   BLOCK     CODE     NEAR LAB  LVL=1
      02000015H   SYMBOL    XDATA    WORD      val
      00000007H   SYMBOL    DATA     CHAR      ret
      ---         BLOCKEND  ---      ---       LVL=1
      010077B3H   LINE      CODE     ---       #277
      010077B3H   LINE      CODE     ---       #278
      010077B3H   LINE      CODE     ---       #282
      010077C3H   LINE      CODE     ---       #286
      010077CEH   LINE      CODE     ---       #287
      010077D2H   LINE      CODE     ---       #288
      010077D5H   LINE      CODE     ---       #290
      010077D5H   LINE      CODE     ---       #291
      ---         BLOCKEND  ---      ---       LVL=0

      010057A9H   BLOCK     CODE     ---       LVL=0
      02000016H   SYMBOL    XDATA    CHAR      temp
      010057AEH   BLOCK     CODE     NEAR LAB  LVL=1
      02000017H   SYMBOL    XDATA    WORD      val
      ---         BLOCKEND  ---      ---       LVL=1
      010057A9H   LINE      CODE     ---       #294
      010057AEH   LINE      CODE     ---       #295
      010057AEH   LINE      CODE     ---       #297
      010057B8H   LINE      CODE     ---       #299
      010057C0H   LINE      CODE     ---       #300
      010057C5H   LINE      CODE     ---       #301
      010057C5H   LINE      CODE     ---       #302
      010057CDH   LINE      CODE     ---       #303
      010057D3H   LINE      CODE     ---       #305
      010057DEH   LINE      CODE     ---       #306
      010057E1H   LINE      CODE     ---       #307
      010057E1H   LINE      CODE     ---       #308
      010057F1H   LINE      CODE     ---       #310
      010057FBH   LINE      CODE     ---       #311
      ---         BLOCKEND  ---      ---       LVL=0

      0100536BH   BLOCK     CODE     ---       LVL=0
      02000016H   SYMBOL    XDATA    CHAR      temp
      01005370H   BLOCK     CODE     NEAR LAB  LVL=1
      02000017H   SYMBOL    XDATA    WORD      val
      ---         BLOCKEND  ---      ---       LVL=1
      0100536BH   LINE      CODE     ---       #318
      01005370H   LINE      CODE     ---       #319
      01005370H   LINE      CODE     ---       #321
LX51 LINKER/LOCATER V4.66.87.0                                                        06/04/2018  21:13:51  PAGE 166


      0100537DH   LINE      CODE     ---       #323
      01005385H   LINE      CODE     ---       #324
      0100538AH   LINE      CODE     ---       #325
      0100538AH   LINE      CODE     ---       #326
      01005392H   LINE      CODE     ---       #327
      01005398H   LINE      CODE     ---       #329
      010053A3H   LINE      CODE     ---       #330
      010053A6H   LINE      CODE     ---       #331
      010053A6H   LINE      CODE     ---       #333
      010053B6H   LINE      CODE     ---       #335
      010053C4H   LINE      CODE     ---       #336
      ---         BLOCKEND  ---      ---       LVL=0

      010086A4H   BLOCK     CODE     ---       LVL=0
      010086A4H   BLOCK     CODE     NEAR LAB  LVL=1
      00000007H   SYMBOL    DATA     CHAR      val
      ---         BLOCKEND  ---      ---       LVL=1
      010086A4H   LINE      CODE     ---       #344
      010086A4H   LINE      CODE     ---       #345
      010086A4H   LINE      CODE     ---       #347
      010086A7H   LINE      CODE     ---       #349
      010086ACH   LINE      CODE     ---       #352
      010086B1H   LINE      CODE     ---       #353
      010086B2H   LINE      CODE     ---       #354
      010086B5H   LINE      CODE     ---       #355
      010086B5H   LINE      CODE     ---       #356
      ---         BLOCKEND  ---      ---       LVL=0

      010086B6H   BLOCK     CODE     ---       LVL=0
      010086B6H   BLOCK     CODE     NEAR LAB  LVL=1
      00000007H   SYMBOL    DATA     CHAR      val
      ---         BLOCKEND  ---      ---       LVL=1
      010086B6H   LINE      CODE     ---       #358
      010086B6H   LINE      CODE     ---       #359
      010086B6H   LINE      CODE     ---       #361
      010086B9H   LINE      CODE     ---       #363
      010086BEH   LINE      CODE     ---       #366
      010086C3H   LINE      CODE     ---       #367
      010086C4H   LINE      CODE     ---       #368
      010086C7H   LINE      CODE     ---       #369
      010086C7H   LINE      CODE     ---       #370
      ---         BLOCKEND  ---      ---       LVL=0

      010086C8H   BLOCK     CODE     ---       LVL=0
      010086C8H   BLOCK     CODE     NEAR LAB  LVL=1
      00000007H   SYMBOL    DATA     CHAR      val
      ---         BLOCKEND  ---      ---       LVL=1
      010086C8H   LINE      CODE     ---       #372
      010086C8H   LINE      CODE     ---       #373
      010086C8H   LINE      CODE     ---       #375
      010086CBH   LINE      CODE     ---       #377
      010086D0H   LINE      CODE     ---       #380
      010086D5H   LINE      CODE     ---       #381
      010086D6H   LINE      CODE     ---       #382
      010086D9H   LINE      CODE     ---       #383
      010086D9H   LINE      CODE     ---       #384
      ---         BLOCKEND  ---      ---       LVL=0

      010086DAH   BLOCK     CODE     ---       LVL=0
      010086DAH   BLOCK     CODE     NEAR LAB  LVL=1
      00000007H   SYMBOL    DATA     CHAR      val
      ---         BLOCKEND  ---      ---       LVL=1
      010086DAH   LINE      CODE     ---       #386
      010086DAH   LINE      CODE     ---       #387
      010086DAH   LINE      CODE     ---       #389
LX51 LINKER/LOCATER V4.66.87.0                                                        06/04/2018  21:13:51  PAGE 167


      010086DDH   LINE      CODE     ---       #391
      010086E2H   LINE      CODE     ---       #394
      010086E7H   LINE      CODE     ---       #395
      010086E8H   LINE      CODE     ---       #396
      010086EBH   LINE      CODE     ---       #397
      010086EBH   LINE      CODE     ---       #398
      ---         BLOCKEND  ---      ---       LVL=0

      010067F8H   BLOCK     CODE     ---       LVL=0
      00000007H   SYMBOL    DATA     BYTE      thres
      010067F8H   BLOCK     CODE     NEAR LAB  LVL=1
      00000006H   SYMBOL    DATA     CHAR      value
      02000016H   SYMBOL    XDATA    BYTE      ret
      ---         BLOCKEND  ---      ---       LVL=1
      010067F8H   LINE      CODE     ---       #400
      010067F8H   LINE      CODE     ---       #401
      010067F8H   LINE      CODE     ---       #404
      010067FDH   LINE      CODE     ---       #405
      010067FFH   LINE      CODE     ---       #406
      01006807H   LINE      CODE     ---       #407
      01006808H   LINE      CODE     ---       #408
      0100680DH   LINE      CODE     ---       #409
      0100680FH   LINE      CODE     ---       #410
      01006815H   LINE      CODE     ---       #411
      01006815H   LINE      CODE     ---       #412
      01006817H   LINE      CODE     ---       #413
      0100681DH   LINE      CODE     ---       #414
      0100681DH   LINE      CODE     ---       #415
      0100682FH   LINE      CODE     ---       #416
      01006834H   LINE      CODE     ---       #417
      ---         BLOCKEND  ---      ---       LVL=0

      01008A97H   BLOCK     CODE     ---       LVL=0
      01008A97H   LINE      CODE     ---       #419
      01008A97H   LINE      CODE     ---       #420
      01008A97H   LINE      CODE     ---       #421
      01008AA1H   LINE      CODE     ---       #422
      ---         BLOCKEND  ---      ---       LVL=0

      010089F9H   BLOCK     CODE     ---       LVL=0
      010089F9H   LINE      CODE     ---       #424
      010089F9H   LINE      CODE     ---       #425
      010089F9H   LINE      CODE     ---       #426
      01008A04H   LINE      CODE     ---       #427
      ---         BLOCKEND  ---      ---       LVL=0

      01008AA2H   BLOCK     CODE     ---       LVL=0
      01008AA2H   LINE      CODE     ---       #429
      01008AA2H   LINE      CODE     ---       #430
      01008AA2H   LINE      CODE     ---       #431
      01008AACH   LINE      CODE     ---       #432
      ---         BLOCKEND  ---      ---       LVL=0

      01008A05H   BLOCK     CODE     ---       LVL=0
      01008A05H   LINE      CODE     ---       #434
      01008A05H   LINE      CODE     ---       #435
      01008A05H   LINE      CODE     ---       #436
      01008A10H   LINE      CODE     ---       #437
      ---         BLOCKEND  ---      ---       LVL=0

      01007A6BH   BLOCK     CODE     ---       LVL=0
      00000020H.1 SYMBOL    BIT      BIT       enable
      01007A6BH   LINE      CODE     ---       #440
      01007A6BH   LINE      CODE     ---       #441
      01007A6BH   LINE      CODE     ---       #442
LX51 LINKER/LOCATER V4.66.87.0                                                        06/04/2018  21:13:51  PAGE 168


      01007A80H   LINE      CODE     ---       #443
      01007A83H   LINE      CODE     ---       #444
      01007A86H   LINE      CODE     ---       #445
      01007A86H   LINE      CODE     ---       #446
      01007A89H   LINE      CODE     ---       #447
      01007A89H   LINE      CODE     ---       #448
      ---         BLOCKEND  ---      ---       LVL=0

      01007A8AH   BLOCK     CODE     ---       LVL=0
      00000020H.1 SYMBOL    BIT      BIT       enable
      01007A8AH   LINE      CODE     ---       #450
      01007A8AH   LINE      CODE     ---       #451
      01007A8AH   LINE      CODE     ---       #452
      01007A9FH   LINE      CODE     ---       #453
      01007AA2H   LINE      CODE     ---       #454
      01007AA5H   LINE      CODE     ---       #455
      01007AA5H   LINE      CODE     ---       #456
      01007AA8H   LINE      CODE     ---       #457
      01007AA8H   LINE      CODE     ---       #458
      ---         BLOCKEND  ---      ---       LVL=0

      01008C37H   BLOCK     CODE     ---       LVL=0
      01008C37H   LINE      CODE     ---       #460
      01008C37H   LINE      CODE     ---       #461
      01008C37H   LINE      CODE     ---       #462
      ---         BLOCKEND  ---      ---       LVL=0

      01008C3FH   BLOCK     CODE     ---       LVL=0
      01008C3FH   LINE      CODE     ---       #465
      01008C3FH   LINE      CODE     ---       #466
      01008C3FH   LINE      CODE     ---       #467
      ---         BLOCKEND  ---      ---       LVL=0

      010083C7H   BLOCK     CODE     ---       LVL=0
      0200000CH   SYMBOL    XDATA    BYTE      ev
      010083C7H   LINE      CODE     ---       #470
      010083CCH   LINE      CODE     ---       #471
      010083CCH   LINE      CODE     ---       #472
      010083D5H   LINE      CODE     ---       #473
      ---         BLOCKEND  ---      ---       LVL=0

      01008BC1H   BLOCK     CODE     ---       LVL=0
      01008BC1H   LINE      CODE     ---       #476
      01008BC1H   LINE      CODE     ---       #477
      01008BC1H   LINE      CODE     ---       #478
      ---         BLOCKEND  ---      ---       LVL=0

      01008BCAH   BLOCK     CODE     ---       LVL=0
      01008BCAH   LINE      CODE     ---       #481
      01008BCAH   LINE      CODE     ---       #482
      01008BCAH   LINE      CODE     ---       #483
      ---         BLOCKEND  ---      ---       LVL=0

      ---         MODULE    ---      ---       ROM
      010067BAH   PUBLIC    CODE     ---       rom_initialize
      01008C47H   PUBLIC    CODE     ---       rom_is_factory_reset
      01006E6AH   PUBLIC    CODE     ---       _rom_write
      01006CD4H   PUBLIC    CODE     ---       _rom_read
      00000080H   SFRSYM    DATA     BYTE      P0
      00000090H   SFRSYM    DATA     BYTE      P1
      000000A0H   SFRSYM    DATA     BYTE      P2
      000000B0H   SFRSYM    DATA     BYTE      P3
      000000C0H   SFRSYM    DATA     BYTE      XICON
      000000B0H.4 SFRSYM    DATA     BIT       T0
      000000D0H.6 SFRSYM    DATA     BIT       AC
LX51 LINKER/LOCATER V4.66.87.0                                                        06/04/2018  21:13:51  PAGE 169


      000000E8H   SFRSYM    DATA     BYTE      P4
      000000B0H.5 SFRSYM    DATA     BIT       T1
      000000E6H   SFRSYM    DATA     BYTE      ISP_TRIG
      00000090H.0 SFRSYM    DATA     BIT       T2
      000000A8H.7 SFRSYM    DATA     BIT       EA
      000000A8H.6 SFRSYM    DATA     BIT       EC
      00000098H.7 SFRSYM    DATA     BIT       FE
      000000A8H   SFRSYM    DATA     BYTE      IE
      000000C8H.6 SFRSYM    DATA     BIT       EXF2
      000000B0H.7 SFRSYM    DATA     BIT       RD
      000000A8H.4 SFRSYM    DATA     BIT       ES
      000000B8H   SFRSYM    DATA     BYTE      IP
      00000098H.0 SFRSYM    DATA     BIT       RI
      000000B0H.2 SFRSYM    DATA     BIT       INT0
      000000D0H.7 SFRSYM    DATA     BIT       CY
      00000098H.1 SFRSYM    DATA     BIT       TI
      000000B0H.3 SFRSYM    DATA     BIT       INT1
      000000CBH   SFRSYM    DATA     BYTE      RCAP2H
      000000E5H   SFRSYM    DATA     BYTE      ISP_CMD
      000000B8H.4 SFRSYM    DATA     BIT       PS
      00000081H   SFRSYM    DATA     BYTE      SP
      00000090H.1 SFRSYM    DATA     BIT       T2EX
      000000D0H.2 SFRSYM    DATA     BIT       OV
      000000CAH   SFRSYM    DATA     BYTE      RCAP2L
      000000C8H.1 SFRSYM    DATA     BIT       C_T2
      000000B0H.6 SFRSYM    DATA     BIT       WR
      000000C8H.5 SFRSYM    DATA     BIT       RCLK
      000000C8H.4 SFRSYM    DATA     BIT       TCLK
      00000080H.0 SFRSYM    DATA     BIT       P00
      00000099H   SFRSYM    DATA     BYTE      SBUF
      00000087H   SFRSYM    DATA     BYTE      PCON
      00000090H.0 SFRSYM    DATA     BIT       P10
      00000080H.1 SFRSYM    DATA     BIT       P01
      000000A0H.0 SFRSYM    DATA     BIT       P20
      00000090H.1 SFRSYM    DATA     BIT       P11
      00000080H.2 SFRSYM    DATA     BIT       P02
      000000E3H   SFRSYM    DATA     BYTE      ISP_ADDRH
      000000B0H.0 SFRSYM    DATA     BIT       P30
      000000A0H.1 SFRSYM    DATA     BIT       P21
      00000090H.2 SFRSYM    DATA     BIT       P12
      00000080H.3 SFRSYM    DATA     BIT       P03
      00000098H   SFRSYM    DATA     BYTE      SCON
      000000B0H.1 SFRSYM    DATA     BIT       P31
      000000A0H.2 SFRSYM    DATA     BIT       P22
      00000090H.3 SFRSYM    DATA     BIT       P13
      00000080H.4 SFRSYM    DATA     BIT       P04
      000000E8H.0 SFRSYM    DATA     BIT       P40
      00000089H   SFRSYM    DATA     BYTE      TMOD
      00000088H   SFRSYM    DATA     BYTE      TCON
      000000B0H.2 SFRSYM    DATA     BIT       P32
      000000A0H.3 SFRSYM    DATA     BIT       P23
      00000090H.4 SFRSYM    DATA     BIT       P14
      00000080H.5 SFRSYM    DATA     BIT       P05
      000000E8H.1 SFRSYM    DATA     BIT       P41
      000000B0H.3 SFRSYM    DATA     BIT       P33
      000000A0H.4 SFRSYM    DATA     BIT       P24
      00000090H.5 SFRSYM    DATA     BIT       P15
      00000080H.6 SFRSYM    DATA     BIT       P06
      000000E4H   SFRSYM    DATA     BYTE      ISP_ADDRL
      000000E8H.2 SFRSYM    DATA     BIT       P42
      000000B0H.4 SFRSYM    DATA     BIT       P34
      000000A0H.5 SFRSYM    DATA     BIT       P25
      00000090H.6 SFRSYM    DATA     BIT       P16
      00000080H.7 SFRSYM    DATA     BIT       P07
      000000E8H.3 SFRSYM    DATA     BIT       P43
LX51 LINKER/LOCATER V4.66.87.0                                                        06/04/2018  21:13:51  PAGE 170


      000000B0H.5 SFRSYM    DATA     BIT       P35
      000000A0H.6 SFRSYM    DATA     BIT       P26
      00000090H.7 SFRSYM    DATA     BIT       P17
      000000E8H.4 SFRSYM    DATA     BIT       P44
      000000B0H.6 SFRSYM    DATA     BIT       P36
      000000A0H.7 SFRSYM    DATA     BIT       P27
      000000E8H.5 SFRSYM    DATA     BIT       P45
      000000B0H.7 SFRSYM    DATA     BIT       P37
      000000E8H.6 SFRSYM    DATA     BIT       P46
      00000088H.1 SFRSYM    DATA     BIT       IE0
      00000088H.3 SFRSYM    DATA     BIT       IE1
      0000008EH   SFRSYM    DATA     BYTE      AUXR
      000000F0H   SFRSYM    DATA     BYTE      B
      000000C8H.0 SFRSYM    DATA     BIT       CP_RL2
      000000E0H   SFRSYM    DATA     BYTE      ACC
      000000A8H.1 SFRSYM    DATA     BIT       ET0
      000000A8H.3 SFRSYM    DATA     BIT       ET1
      00000088H.5 SFRSYM    DATA     BIT       TF0
      000000A8H.5 SFRSYM    DATA     BIT       ET2
      00000088H.7 SFRSYM    DATA     BIT       TF1
      000000C8H.7 SFRSYM    DATA     BIT       TF2
      00000098H.2 SFRSYM    DATA     BIT       RB8
      0000008CH   SFRSYM    DATA     BYTE      TH0
      000000A8H.0 SFRSYM    DATA     BIT       EX0
      00000088H.0 SFRSYM    DATA     BIT       IT0
      0000008DH   SFRSYM    DATA     BYTE      TH1
      00000098H.3 SFRSYM    DATA     BIT       TB8
      000000A8H.2 SFRSYM    DATA     BIT       EX1
      00000088H.2 SFRSYM    DATA     BIT       IT1
      000000CDH   SFRSYM    DATA     BYTE      TH2
      000000D0H.0 SFRSYM    DATA     BIT       P
      00000098H.7 SFRSYM    DATA     BIT       SM0
      0000008AH   SFRSYM    DATA     BYTE      TL0
      00000098H.6 SFRSYM    DATA     BIT       SM1
      0000008BH   SFRSYM    DATA     BYTE      TL1
      00000098H.5 SFRSYM    DATA     BIT       SM2
      000000CCH   SFRSYM    DATA     BYTE      TL2
      000000B0H.7 SFRSYM    DATA     BIT       ROM_RESET
      000000B8H.1 SFRSYM    DATA     BIT       PT0
      000000B8H.3 SFRSYM    DATA     BIT       PT1
      000000D0H.3 SFRSYM    DATA     BIT       RS0
      000000E7H   SFRSYM    DATA     BYTE      ISP_CONTR
      000000B8H.5 SFRSYM    DATA     BIT       PT2
      00000088H.4 SFRSYM    DATA     BIT       TR0
      000000D0H.4 SFRSYM    DATA     BIT       RS1
      00000088H.6 SFRSYM    DATA     BIT       TR1
      000000C8H.2 SFRSYM    DATA     BIT       TR2
      000000B8H.0 SFRSYM    DATA     BIT       PX0
      000000E1H   SFRSYM    DATA     BYTE      WDT_CONTR
      000000B8H.2 SFRSYM    DATA     BIT       PX1
      00000083H   SFRSYM    DATA     BYTE      DPH
      00000082H   SFRSYM    DATA     BYTE      DPL
      000000B7H   SFRSYM    DATA     BYTE      IPH
      000000C8H.3 SFRSYM    DATA     BIT       EXEN2
      00000098H.4 SFRSYM    DATA     BIT       REN
      000000C9H   SFRSYM    DATA     BYTE      T2MOD
      000000C8H   SFRSYM    DATA     BYTE      T2CON
      000000E2H   SFRSYM    DATA     BYTE      ISP_DATA
      000000B9H   SFRSYM    DATA     BYTE      SADEN
      000000B0H.0 SFRSYM    DATA     BIT       RXD
      000000A9H   SFRSYM    DATA     BYTE      SADDR
      000000B0H.1 SFRSYM    DATA     BIT       TXD
      000000A2H   SFRSYM    DATA     BYTE      AUXR1
      000000D0H.5 SFRSYM    DATA     BIT       F0
      000000D0H   SFRSYM    DATA     BYTE      PSW
LX51 LINKER/LOCATER V4.66.87.0                                                        06/04/2018  21:13:51  PAGE 171


      01003DA8H   SYMBOL    CODE     ---       rom_reset
      01004AD9H   SYMBOL    CODE     ---       rom_dump

      01006CD4H   BLOCK     CODE     ---       LVL=0
      02000017H   SYMBOL    XDATA    BYTE      addr
      01006CD9H   BLOCK     CODE     NEAR LAB  LVL=1
      02000018H   SYMBOL    XDATA    BYTE      dat
      ---         BLOCKEND  ---      ---       LVL=1
      01006CD4H   LINE      CODE     ---       #11
      01006CD9H   LINE      CODE     ---       #12
      01006CD9H   LINE      CODE     ---       #14
      01006CDCH   LINE      CODE     ---       #15
      01006CE9H   LINE      CODE     ---       #16
      01006D02H   LINE      CODE     ---       #17
      01006D07H   LINE      CODE     ---       #18
      ---         BLOCKEND  ---      ---       LVL=0

      01006E6AH   BLOCK     CODE     ---       LVL=0
      02000017H   SYMBOL    XDATA    BYTE      addr
      02000018H   SYMBOL    XDATA    BYTE      val
      01006E6AH   LINE      CODE     ---       #20
      01006E72H   LINE      CODE     ---       #21
      01006E72H   LINE      CODE     ---       #22
      01006E75H   LINE      CODE     ---       #23
      01006E82H   LINE      CODE     ---       #24
      ---         BLOCKEND  ---      ---       LVL=0

      01004AD9H   BLOCK     CODE     ---       LVL=0
      01004AD9H   LINE      CODE     ---       #27
      01004AD9H   LINE      CODE     ---       #28
      01004AD9H   LINE      CODE     ---       #29
      01004ADEH   LINE      CODE     ---       #30
      01004AE3H   LINE      CODE     ---       #31
      01004AE8H   LINE      CODE     ---       #32
      01004AEDH   LINE      CODE     ---       #34
      01004AF2H   LINE      CODE     ---       #35
      01004AF7H   LINE      CODE     ---       #36
      01004AFCH   LINE      CODE     ---       #37
      01004B01H   LINE      CODE     ---       #38
      01004B06H   LINE      CODE     ---       #40
      01004B0BH   LINE      CODE     ---       #41
      01004B10H   LINE      CODE     ---       #42
      01004B15H   LINE      CODE     ---       #43
      01004B1AH   LINE      CODE     ---       #45
      01004B1FH   LINE      CODE     ---       #46
      01004B24H   LINE      CODE     ---       #47
      01004B29H   LINE      CODE     ---       #48
      01004B2EH   LINE      CODE     ---       #49
      01004B33H   LINE      CODE     ---       #50
      01004B38H   LINE      CODE     ---       #52
      01004B3DH   LINE      CODE     ---       #53
      01004B42H   LINE      CODE     ---       #54
      01004B47H   LINE      CODE     ---       #55
      01004B4CH   LINE      CODE     ---       #56
      01004B51H   LINE      CODE     ---       #57
      ---         BLOCKEND  ---      ---       LVL=0

      01003DA8H   BLOCK     CODE     ---       LVL=0
      01003DA8H   LINE      CODE     ---       #60
      01003DA8H   LINE      CODE     ---       #61
      01003DA8H   LINE      CODE     ---       #62
      01003DAFH   LINE      CODE     ---       #63
      01003DB6H   LINE      CODE     ---       #64
      01003DBDH   LINE      CODE     ---       #65
      01003DBFH   LINE      CODE     ---       #67
LX51 LINKER/LOCATER V4.66.87.0                                                        06/04/2018  21:13:51  PAGE 172


      01003DC7H   LINE      CODE     ---       #68
      01003DCEH   LINE      CODE     ---       #69
      01003DD5H   LINE      CODE     ---       #70
      01003DDCH   LINE      CODE     ---       #73
      01003DDEH   LINE      CODE     ---       #75
      01003DE6H   LINE      CODE     ---       #76
      01003DEDH   LINE      CODE     ---       #77
      01003DF4H   LINE      CODE     ---       #78
      01003DFBH   LINE      CODE     ---       #80
      01003E02H   LINE      CODE     ---       #81
      01003E09H   LINE      CODE     ---       #82
      01003E10H   LINE      CODE     ---       #83
      01003E17H   LINE      CODE     ---       #84
      01003E1EH   LINE      CODE     ---       #85
      01003E25H   LINE      CODE     ---       #87
      01003E2CH   LINE      CODE     ---       #88
      01003E33H   LINE      CODE     ---       #89
      01003E3AH   LINE      CODE     ---       #90
      01003E41H   LINE      CODE     ---       #91
      01003E48H   LINE      CODE     ---       #92
      01003E4FH   LINE      CODE     ---       #93
      ---         BLOCKEND  ---      ---       LVL=0

      01008C47H   BLOCK     CODE     ---       LVL=0
      01008C47H   LINE      CODE     ---       #95
      01008C47H   LINE      CODE     ---       #96
      01008C47H   LINE      CODE     ---       #97
      01008C4EH   LINE      CODE     ---       #98
      ---         BLOCKEND  ---      ---       LVL=0

      010067BAH   BLOCK     CODE     ---       LVL=0
      010067BAH   LINE      CODE     ---       #100
      010067BAH   LINE      CODE     ---       #101
      010067BAH   LINE      CODE     ---       #102
      010067E4H   LINE      CODE     ---       #103
      010067E9H   LINE      CODE     ---       #104
      010067F2H   LINE      CODE     ---       #105
      010067F5H   LINE      CODE     ---       #106
      010067F5H   LINE      CODE     ---       #108
      ---         BLOCKEND  ---      ---       LVL=0

      ---         MODULE    ---      ---       DELAY_TASK
      01005ED6H   PUBLIC    CODE     ---       delay_task_call
      01006231H   PUBLIC    CODE     ---       _delay_task_reg
      01008BD3H   PUBLIC    CODE     ---       delay_task_initialize
      020000C9H   SYMBOL    XDATA    ---       delay_tasks
      020000CCH   SYMBOL    XDATA    ---       task

      010079ACH   BLOCK     CODE     ---       LVL=0
      ---         BLOCKEND  ---      ---       LVL=0

      01008BD3H   BLOCK     CODE     ---       LVL=0
      01008BD3H   LINE      CODE     ---       #9
      01008BD3H   LINE      CODE     ---       #10
      01008BD3H   LINE      CODE     ---       #11
      ---         BLOCKEND  ---      ---       LVL=0

      01006231H   BLOCK     CODE     ---       LVL=0
      02000016H   SYMBOL    XDATA    BYTE      index
      02000017H   SYMBOL    XDATA    ---       task
      02000019H   SYMBOL    XDATA    BYTE      delay_sec
      01006231H   LINE      CODE     ---       #14
      01006244H   LINE      CODE     ---       #15
      01006244H   LINE      CODE     ---       #16
      01006255H   LINE      CODE     ---       #17
LX51 LINKER/LOCATER V4.66.87.0                                                        06/04/2018  21:13:51  PAGE 173


      0100625FH   LINE      CODE     ---       #19
      0100625FH   LINE      CODE     ---       #21
      0100626EH   LINE      CODE     ---       #22
      01006279H   LINE      CODE     ---       #23
      ---         BLOCKEND  ---      ---       LVL=0

      01005ED6H   BLOCK     CODE     ---       LVL=0
      01005ED6H   BLOCK     CODE     NEAR LAB  LVL=1
      0200000DH   SYMBOL    XDATA    BYTE      i
      ---         BLOCKEND  ---      ---       LVL=1
      01005ED6H   LINE      CODE     ---       #26
      01005ED6H   LINE      CODE     ---       #27
      01005ED6H   LINE      CODE     ---       #30
      01005EE5H   LINE      CODE     ---       #31
      01005EFCH   LINE      CODE     ---       #32
      01005F0AH   LINE      CODE     ---       #33
      01005F17H   LINE      CODE     ---       #34
      01005F1EH   LINE      CODE     ---       #35
      01005F1EH   LINE      CODE     ---       #36
      01005F26H   LINE      CODE     ---       #37
      ---         BLOCKEND  ---      ---       LVL=0

      ---         MODULE    ---      ---       SHELL
      0200007DH   PUBLIC    XDATA    ---       shell_buf
      01009DFFH   PUBLIC    CONST    ---       cmds
      01002630H   PUBLIC    CODE     ---       run_shell
      01006C01H   PUBLIC    CODE     ---       shell_dump_cmd
      0100627AH   PUBLIC    CODE     ---       _shell_search_cmd_by_name
      01004B56H   SYMBOL    CODE     ---       _call_cmd
      01008A11H   SYMBOL    CODE     ---       _cmd_null

      010060B5H   BLOCK     CODE     ---       LVL=0
      ---         BLOCKEND  ---      ---       LVL=0

      01008A11H   BLOCK     CODE     ---       LVL=0
      02000000H   SYMBOL    XDATA    CHAR      arg1
      02000001H   SYMBOL    XDATA    CHAR      arg2
      01008A11H   LINE      CODE     ---       #26
      01008A11H   LINE      CODE     ---       #27
      01008A11H   LINE      CODE     ---       #28
      01008A11H   LINE      CODE     ---       #29
      01008A11H   LINE      CODE     ---       #30
      01008A1AH   LINE      CODE     ---       #31
      01008A1CH   LINE      CODE     ---       #32
      ---         BLOCKEND  ---      ---       LVL=0

      0100627AH   BLOCK     CODE     ---       LVL=0
      02000009H   SYMBOL    XDATA    ---       cmd
      01006280H   BLOCK     CODE     NEAR LAB  LVL=1
      0200000CH   SYMBOL    XDATA    CHAR      i
      ---         BLOCKEND  ---      ---       LVL=1
      0100627AH   LINE      CODE     ---       #82
      01006280H   LINE      CODE     ---       #83
      01006280H   LINE      CODE     ---       #85
      01006291H   LINE      CODE     ---       #86
      010062B2H   LINE      CODE     ---       #87
      010062B8H   LINE      CODE     ---       #88
      010062B8H   LINE      CODE     ---       #89
      010062C0H   LINE      CODE     ---       #90
      010062C2H   LINE      CODE     ---       #91
      ---         BLOCKEND  ---      ---       LVL=0

      01004B56H   BLOCK     CODE     ---       LVL=0
      02000002H   SYMBOL    XDATA    ---       buf
      02000005H   SYMBOL    XDATA    CHAR      arg1
LX51 LINKER/LOCATER V4.66.87.0                                                        06/04/2018  21:13:51  PAGE 174


      02000006H   SYMBOL    XDATA    CHAR      arg2
      01004B61H   BLOCK     CODE     NEAR LAB  LVL=1
      02000007H   SYMBOL    XDATA    CHAR      i
      ---         BLOCKEND  ---      ---       LVL=1
      01004B56H   LINE      CODE     ---       #93
      01004B61H   LINE      CODE     ---       #94
      01004B61H   LINE      CODE     ---       #96
      01004B6DH   LINE      CODE     ---       #97
      01004B7BH   LINE      CODE     ---       #98
      01004B7EH   LINE      CODE     ---       #99
      01004BA6H   LINE      CODE     ---       #100
      01004BC3H   LINE      CODE     ---       #101
      01004BC3H   LINE      CODE     ---       #102
      01004BC5H   LINE      CODE     ---       #103
      01004BD1H   LINE      CODE     ---       #104
      01004BD1H   LINE      CODE     ---       #105
      ---         BLOCKEND  ---      ---       LVL=0

      01006C01H   BLOCK     CODE     ---       LVL=0
      01006C01H   BLOCK     CODE     NEAR LAB  LVL=1
      02000009H   SYMBOL    XDATA    CHAR      i
      ---         BLOCKEND  ---      ---       LVL=1
      01006C01H   LINE      CODE     ---       #107
      01006C01H   LINE      CODE     ---       #108
      01006C01H   LINE      CODE     ---       #110
      01006C12H   LINE      CODE     ---       #111
      01006C2DH   LINE      CODE     ---       #112
      01006C35H   LINE      CODE     ---       #113
      ---         BLOCKEND  ---      ---       LVL=0

      01002630H   BLOCK     CODE     ---       LVL=0
      01002630H   BLOCK     CODE     NEAR LAB  LVL=1
      02000000H   SYMBOL    XDATA    CHAR      arg1_pos
      02000001H   SYMBOL    XDATA    CHAR      arg2_pos
      ---         BLOCKEND  ---      ---       LVL=1
      01002630H   LINE      CODE     ---       #115
      01002630H   LINE      CODE     ---       #116
      01002630H   LINE      CODE     ---       #119
      01002633H   LINE      CODE     ---       #120
      0100263CH   LINE      CODE     ---       #121
      0100263FH   LINE      CODE     ---       #124
      01002642H   LINE      CODE     ---       #125
      01002645H   LINE      CODE     ---       #126
      01002648H   LINE      CODE     ---       #127
      0100264FH   LINE      CODE     ---       #128
      01002656H   LINE      CODE     ---       #129
      0100265DH   LINE      CODE     ---       #130
      01002664H   LINE      CODE     ---       #131
      01002669H   LINE      CODE     ---       #132
      01002669H   LINE      CODE     ---       #133
      01002672H   LINE      CODE     ---       #135
      0100267FH   LINE      CODE     ---       #137
      01002684H   LINE      CODE     ---       #139
      0100268DH   LINE      CODE     ---       #140
      0100268DH   LINE      CODE     ---       #142
      01002692H   LINE      CODE     ---       #143
      01002694H   LINE      CODE     ---       #145
      010026A9H   LINE      CODE     ---       #147
      010026B4H   LINE      CODE     ---       #148
      010026B4H   LINE      CODE     ---       #149
      010026B6H   LINE      CODE     ---       #150
      010026B6H   LINE      CODE     ---       #152
      010026C2H   LINE      CODE     ---       #153
      010026C7H   LINE      CODE     ---       #154
      010026CDH   LINE      CODE     ---       #155
LX51 LINKER/LOCATER V4.66.87.0                                                        06/04/2018  21:13:51  PAGE 175


      010026CFH   LINE      CODE     ---       #157
      010026DAH   LINE      CODE     ---       #158
      010026E6H   LINE      CODE     ---       #159
      010026E8H   LINE      CODE     ---       #160
      010026E8H   LINE      CODE     ---       #162
      010026EEH   LINE      CODE     ---       #164
      01002706H   LINE      CODE     ---       #166
      01002711H   LINE      CODE     ---       #167
      01002719H   LINE      CODE     ---       #168
      0100271BH   LINE      CODE     ---       #169
      0100271BH   LINE      CODE     ---       #171
      0100272AH   LINE      CODE     ---       #172
      0100272FH   LINE      CODE     ---       #173
      01002735H   LINE      CODE     ---       #174
      01002737H   LINE      CODE     ---       #176
      01002745H   LINE      CODE     ---       #177
      0100274DH   LINE      CODE     ---       #178
      0100274FH   LINE      CODE     ---       #179
      0100274FH   LINE      CODE     ---       #181
      0100275BH   LINE      CODE     ---       #183
      01002770H   LINE      CODE     ---       #185
      01002773H   LINE      CODE     ---       #186
      01002776H   LINE      CODE     ---       #187
      01002779H   LINE      CODE     ---       #188
      ---         BLOCKEND  ---      ---       LVL=0

      ---         MODULE    ---      ---       DEBUG
      0200001CH   PUBLIC    XDATA    BYTE      ?_debug_printf?BYTE
      01006B5EH   PUBLIC    CODE     ---       _debug_printf
      00000020H.0 PUBLIC    BIT      BIT       ?debug_onoff?BIT
      01008D21H   PUBLIC    CODE     ---       debug_onoff
      01008D54H   PUBLIC    CODE     ---       debug_initialize
      00000025H.4 SYMBOL    BIT      BIT       debug_is_on

      01008D54H   BLOCK     CODE     ---       LVL=0
      01008D54H   LINE      CODE     ---       #7
      01008D54H   LINE      CODE     ---       #8
      01008D54H   LINE      CODE     ---       #9
      01008D56H   LINE      CODE     ---       #10
      ---         BLOCKEND  ---      ---       LVL=0

      01008D21H   BLOCK     CODE     ---       LVL=0
      00000020H.0 SYMBOL    BIT      BIT       enable
      01008D21H   LINE      CODE     ---       #12
      01008D21H   LINE      CODE     ---       #13
      01008D21H   LINE      CODE     ---       #14
      01008D25H   LINE      CODE     ---       #15
      ---         BLOCKEND  ---      ---       LVL=0

      01006B5EH   BLOCK     CODE     ---       LVL=0
      0200001CH   SYMBOL    XDATA    ---       fmt
      01006B64H   BLOCK     CODE     NEAR LAB  LVL=1
      0200001FH   SYMBOL    XDATA    ---       ellipsis_40
      02000047H   SYMBOL    XDATA    ---       arg_ptr
      ---         BLOCKEND  ---      ---       LVL=1
      01006B5EH   LINE      CODE     ---       #17
      01006B64H   LINE      CODE     ---       #18
      01006B64H   LINE      CODE     ---       #21
      01006B67H   LINE      CODE     ---       #22
      01006B73H   LINE      CODE     ---       #23
      01006B88H   LINE      CODE     ---       #24
      01006B94H   LINE      CODE     ---       #25
      01006B94H   LINE      CODE     ---       #26
      ---         BLOCKEND  ---      ---       LVL=0

LX51 LINKER/LOCATER V4.66.87.0                                                        06/04/2018  21:13:51  PAGE 176


      ---         MODULE    ---      ---       MPU
      010076DDH   PUBLIC    CODE     ---       mpu_read_int_status
      01008938H   PUBLIC    CODE     ---       _mpu_threshold_set
      01008CCBH   PUBLIC    CODE     ---       mpu_threshold_get
      010086ECH   PUBLIC    CODE     ---       _mpu_threshold_inc
      01008C4FH   PUBLIC    CODE     ---       mpu_threshold_reset
      00000020H.1 PUBLIC    BIT      BIT       ?mpu_enable?BIT
      01007AA9H   PUBLIC    CODE     ---       mpu_enable
      01007019H   PUBLIC    CODE     ---       scan_mpu
      01008BE5H   PUBLIC    CODE     ---       mpu_leave_powersave
      01008BDCH   PUBLIC    CODE     ---       mpu_enter_powersave
      0100887DH   PUBLIC    CODE     ---       mpu_initialize
      010070A4H   SYMBOL    CODE     ---       mpu_power_off
      020000E8H   SYMBOL    XDATA    BYTE      mpu_threshold
      01006E9BH   SYMBOL    CODE     ---       mpu_power_on
      010079CCH   SYMBOL    CODE     ---       mpu_load_config

      01008625H   BLOCK     CODE     ---       LVL=0
      ---         BLOCKEND  ---      ---       LVL=0

      010079CCH   BLOCK     CODE     ---       LVL=0
      010079CCH   LINE      CODE     ---       #19
      010079CCH   LINE      CODE     ---       #20
      010079CCH   LINE      CODE     ---       #21
      010079D5H   LINE      CODE     ---       #22
      010079DFH   LINE      CODE     ---       #23
      ---         BLOCKEND  ---      ---       LVL=0

      01006E9BH   BLOCK     CODE     ---       LVL=0
      01006E9BH   BLOCK     CODE     NEAR LAB  LVL=1
      02000016H   SYMBOL    XDATA    BYTE      val
      ---         BLOCKEND  ---      ---       LVL=1
      01006E9BH   LINE      CODE     ---       #26
      01006E9BH   LINE      CODE     ---       #27
      01006E9BH   LINE      CODE     ---       #29
      01006EA4H   LINE      CODE     ---       #31
      01006EA7H   LINE      CODE     ---       #35
      01006EB0H   LINE      CODE     ---       #38
      01006EB9H   LINE      CODE     ---       #41
      01006EC3H   LINE      CODE     ---       #43
      ---         BLOCKEND  ---      ---       LVL=0

      010070A4H   BLOCK     CODE     ---       LVL=0
      010070A4H   BLOCK     CODE     NEAR LAB  LVL=1
      02000016H   SYMBOL    XDATA    BYTE      val
      ---         BLOCKEND  ---      ---       LVL=1
      010070A4H   LINE      CODE     ---       #127
      010070A4H   LINE      CODE     ---       #128
      010070A4H   LINE      CODE     ---       #130
      010070ADH   LINE      CODE     ---       #133
      010070B6H   LINE      CODE     ---       #136
      010070BFH   LINE      CODE     ---       #139
      010070C9H   LINE      CODE     ---       #141
      ---         BLOCKEND  ---      ---       LVL=0

      0100887DH   BLOCK     CODE     ---       LVL=0
      0100887DH   LINE      CODE     ---       #165
      0100887DH   LINE      CODE     ---       #166
      0100887DH   LINE      CODE     ---       #167
      01008886H   LINE      CODE     ---       #168
      01008889H   LINE      CODE     ---       #169
      ---         BLOCKEND  ---      ---       LVL=0

      01008BDCH   BLOCK     CODE     ---       LVL=0
      01008BDCH   LINE      CODE     ---       #172
LX51 LINKER/LOCATER V4.66.87.0                                                        06/04/2018  21:13:51  PAGE 177


      01008BDCH   LINE      CODE     ---       #173
      01008BDCH   LINE      CODE     ---       #174
      ---         BLOCKEND  ---      ---       LVL=0

      01008BE5H   BLOCK     CODE     ---       LVL=0
      01008BE5H   LINE      CODE     ---       #177
      01008BE5H   LINE      CODE     ---       #178
      01008BE5H   LINE      CODE     ---       #179
      ---         BLOCKEND  ---      ---       LVL=0

      01007019H   BLOCK     CODE     ---       LVL=0
      01007019H   BLOCK     CODE     NEAR LAB  LVL=1
      00000007H   SYMBOL    DATA     BYTE      val
      00000020H.0 SYMBOL    BIT      BIT       has_event
      ---         BLOCKEND  ---      ---       LVL=1
      01007019H   LINE      CODE     ---       #182
      01007019H   LINE      CODE     ---       #183
      01007019H   LINE      CODE     ---       #185
      0100701BH   LINE      CODE     ---       #187
      01007024H   LINE      CODE     ---       #188
      01007027H   LINE      CODE     ---       #191
      0100702BH   LINE      CODE     ---       #195
      01007034H   LINE      CODE     ---       #196
      0100703AH   LINE      CODE     ---       #197
      0100703CH   LINE      CODE     ---       #198
      0100703CH   LINE      CODE     ---       #200
      01007044H   LINE      CODE     ---       #201
      01007047H   LINE      CODE     ---       #202
      01007047H   LINE      CODE     ---       #203
      ---         BLOCKEND  ---      ---       LVL=0

      01007AA9H   BLOCK     CODE     ---       LVL=0
      00000020H.1 SYMBOL    BIT      BIT       enable
      01007AA9H   LINE      CODE     ---       #205
      01007AA9H   LINE      CODE     ---       #206
      01007AA9H   LINE      CODE     ---       #207
      01007ABEH   LINE      CODE     ---       #208
      01007AC1H   LINE      CODE     ---       #209
      01007AC4H   LINE      CODE     ---       #210
      01007AC4H   LINE      CODE     ---       #211
      01007AC7H   LINE      CODE     ---       #212
      01007AC7H   LINE      CODE     ---       #214
      ---         BLOCKEND  ---      ---       LVL=0

      01008C4FH   BLOCK     CODE     ---       LVL=0
      01008C4FH   LINE      CODE     ---       #216
      01008C4FH   LINE      CODE     ---       #217
      01008C4FH   LINE      CODE     ---       #218
      ---         BLOCKEND  ---      ---       LVL=0

      010086ECH   BLOCK     CODE     ---       LVL=0
      00000007H   SYMBOL    DATA     BYTE      thres
      010086ECH   LINE      CODE     ---       #222
      010086ECH   LINE      CODE     ---       #223
      010086ECH   LINE      CODE     ---       #224
      010086F0H   LINE      CODE     ---       #225
      010086F6H   LINE      CODE     ---       #226
      010086F7H   LINE      CODE     ---       #227
      010086F8H   LINE      CODE     ---       #228
      010086F8H   LINE      CODE     ---       #229
      010086FBH   LINE      CODE     ---       #230
      010086FBH   LINE      CODE     ---       #231
      010086FBH   LINE      CODE     ---       #232
      010086FDH   LINE      CODE     ---       #233
      010086FDH   LINE      CODE     ---       #234
LX51 LINKER/LOCATER V4.66.87.0                                                        06/04/2018  21:13:51  PAGE 178


      ---         BLOCKEND  ---      ---       LVL=0

      01008CCBH   BLOCK     CODE     ---       LVL=0
      01008CCBH   LINE      CODE     ---       #236
      01008CCBH   LINE      CODE     ---       #237
      01008CCBH   LINE      CODE     ---       #239
      01008CD0H   LINE      CODE     ---       #245
      ---         BLOCKEND  ---      ---       LVL=0

      01008938H   BLOCK     CODE     ---       LVL=0
      00000007H   SYMBOL    DATA     BYTE      val
      01008938H   LINE      CODE     ---       #247
      01008938H   LINE      CODE     ---       #248
      01008938H   LINE      CODE     ---       #249
      ---         BLOCKEND  ---      ---       LVL=0

      010076DDH   BLOCK     CODE     ---       LVL=0
      010076DDH   BLOCK     CODE     NEAR LAB  LVL=1
      02000016H   SYMBOL    XDATA    BYTE      val
      ---         BLOCKEND  ---      ---       LVL=1
      010076DDH   LINE      CODE     ---       #267
      010076DDH   LINE      CODE     ---       #268
      010076DDH   LINE      CODE     ---       #271
      010076EAH   LINE      CODE     ---       #275
      010076FBH   LINE      CODE     ---       #276
      01007700H   LINE      CODE     ---       #277
      ---         BLOCKEND  ---      ---       LVL=0

      ---         MODULE    ---      ---       SM_CLOCK_TIMER
      0100CAA3H   PUBLIC    CONST    ---       sm_clock_timer_ss_name
      01005805H   PUBLIC    CODE     ---       _sm_clock_timer_submod2
      01004F93H   PUBLIC    CODE     ---       _sm_clock_timer_submod1
      01006355H   PUBLIC    CODE     ---       _sm_clock_timer_submod0
      01007FB8H   PUBLIC    CODE     ---       _sm_clock_timer_init
      010049DCH   SYMBOL    CODE     ---       _display_slot
      01006A0BH   SYMBOL    CODE     ---       _show_slot_title

      01007909H   BLOCK     CODE     ---       LVL=0
      ---         BLOCKEND  ---      ---       LVL=0

      01006A0BH   BLOCK     CODE     ---       LVL=0
      02000012H   SYMBOL    XDATA    BYTE      slot
      01006A0BH   LINE      CODE     ---       #20
      01006A10H   LINE      CODE     ---       #21
      01006A10H   LINE      CODE     ---       #22
      01006A13H   LINE      CODE     ---       #23
      01006A1AH   LINE      CODE     ---       #24
      01006A21H   LINE      CODE     ---       #25
      01006A28H   LINE      CODE     ---       #26
      01006A38H   LINE      CODE     ---       #27
      ---         BLOCKEND  ---      ---       LVL=0

      010049DCH   BLOCK     CODE     ---       LVL=0
      02000014H   SYMBOL    XDATA    BYTE      slot
      010049DCH   LINE      CODE     ---       #30
      010049E1H   LINE      CODE     ---       #31
      010049E1H   LINE      CODE     ---       #32
      010049E4H   LINE      CODE     ---       #34
      010049E9H   LINE      CODE     ---       #35
      010049EDH   LINE      CODE     ---       #36
      010049F1H   LINE      CODE     ---       #37
      010049F5H   LINE      CODE     ---       #38
      01004A00H   LINE      CODE     ---       #39
      01004A09H   LINE      CODE     ---       #40
      01004A12H   LINE      CODE     ---       #41
LX51 LINKER/LOCATER V4.66.87.0                                                        06/04/2018  21:13:51  PAGE 179


      01004A20H   LINE      CODE     ---       #42
      01004A2BH   LINE      CODE     ---       #43
      01004A39H   LINE      CODE     ---       #44
      ---         BLOCKEND  ---      ---       LVL=0

      01007FB8H   BLOCK     CODE     ---       LVL=0
      00000007H   SYMBOL    DATA     BYTE      from
      00000005H   SYMBOL    DATA     BYTE      to
      00000006H   SYMBOL    DATA     BYTE      ev
      01007FB8H   LINE      CODE     ---       #46
      01007FBAH   LINE      CODE     ---       #47
      01007FBAH   LINE      CODE     ---       #48
      01007FC6H   LINE      CODE     ---       #49
      01007FCBH   LINE      CODE     ---       #50
      ---         BLOCKEND  ---      ---       LVL=0

      01006355H   BLOCK     CODE     ---       LVL=0
      02000011H   SYMBOL    XDATA    BYTE      from
      02000012H   SYMBOL    XDATA    BYTE      to
      02000013H   SYMBOL    XDATA    BYTE      ev
      01006355H   LINE      CODE     ---       #53
      01006360H   LINE      CODE     ---       #54
      01006360H   LINE      CODE     ---       #55
      0100636AH   LINE      CODE     ---       #57
      0100637FH   LINE      CODE     ---       #59
      0100637FH   LINE      CODE     ---       #60
      01006384H   LINE      CODE     ---       #61
      01006389H   LINE      CODE     ---       #62
      0100638DH   LINE      CODE     ---       #64
      0100638DH   LINE      CODE     ---       #67
      01006394H   LINE      CODE     ---       #68
      01006397H   LINE      CODE     ---       #69
      0100639CH   LINE      CODE     ---       #71
      0100639CH   LINE      CODE     ---       #72
      ---         BLOCKEND  ---      ---       LVL=0

      01004F93H   BLOCK     CODE     ---       LVL=0
      00000007H   SYMBOL    DATA     BYTE      from
      00000005H   SYMBOL    DATA     BYTE      to
      02000011H   SYMBOL    XDATA    BYTE      ev
      01004F93H   LINE      CODE     ---       #74
      01004F98H   LINE      CODE     ---       #75
      01004F98H   LINE      CODE     ---       #76
      01004FA2H   LINE      CODE     ---       #78
      01004FA9H   LINE      CODE     ---       #79
      01004FACH   LINE      CODE     ---       #80
      01004FAFH   LINE      CODE     ---       #81
      01004FB3H   LINE      CODE     ---       #83
      01004FB3H   LINE      CODE     ---       #86
      01004FBAH   LINE      CODE     ---       #87
      01004FC3H   LINE      CODE     ---       #88
      01004FCEH   LINE      CODE     ---       #89
      01004FD6H   LINE      CODE     ---       #90
      01004FD6H   LINE      CODE     ---       #92
      01004FD6H   LINE      CODE     ---       #94
      01004FDDH   LINE      CODE     ---       #95
      01004FE6H   LINE      CODE     ---       #96
      01004FE9H   LINE      CODE     ---       #97
      01004FF1H   LINE      CODE     ---       #98
      01004FF7H   LINE      CODE     ---       #99
      01004FF7H   LINE      CODE     ---       #101
      01004FF7H   LINE      CODE     ---       #102
      ---         BLOCKEND  ---      ---       LVL=0

      01005805H   BLOCK     CODE     ---       LVL=0
LX51 LINKER/LOCATER V4.66.87.0                                                        06/04/2018  21:13:51  PAGE 180


      00000007H   SYMBOL    DATA     BYTE      from
      00000005H   SYMBOL    DATA     BYTE      to
      02000011H   SYMBOL    XDATA    BYTE      ev
      01005805H   LINE      CODE     ---       #104
      0100580BH   LINE      CODE     ---       #105
      0100580BH   LINE      CODE     ---       #106
      01005817H   LINE      CODE     ---       #108
      0100581EH   LINE      CODE     ---       #109
      01005821H   LINE      CODE     ---       #110
      0100582CH   LINE      CODE     ---       #111
      01005831H   LINE      CODE     ---       #112
      01005835H   LINE      CODE     ---       #114
      01005835H   LINE      CODE     ---       #117
      0100583CH   LINE      CODE     ---       #118
      01005844H   LINE      CODE     ---       #120
      01005844H   LINE      CODE     ---       #122
      0100584BH   LINE      CODE     ---       #123
      01005853H   LINE      CODE     ---       #124
      01005860H   LINE      CODE     ---       #126
      01005860H   LINE      CODE     ---       #127
      ---         BLOCKEND  ---      ---       LVL=0

      ---         MODULE    ---      ---       SM_CLOCK_COUNTER
      0100BE7DH   PUBLIC    CONST    ---       sm_clock_counter_ss_name
      010075B7H   PUBLIC    CODE     ---       _sm_clock_counter_submod5
      010077D6H   PUBLIC    CODE     ---       _sm_clock_counter_submod4
      01006641H   PUBLIC    CODE     ---       _sm_clock_counter_submod3
      0100574AH   PUBLIC    CODE     ---       _sm_clock_counter_submod2
      01005861H   PUBLIC    CODE     ---       _sm_clock_counter_submod1
      010043E3H   PUBLIC    CODE     ---       _sm_clock_counter_submod0
      01008471H   PUBLIC    CODE     ---       _sm_clock_counter_init
      01007338H   SYMBOL    CODE     ---       _enter_hhmmss
      0100720BH   SYMBOL    CODE     ---       _write_only
      01008B1CH   SYMBOL    CODE     ---       _inc_and_write
      01006470H   SYMBOL    CODE     ---       _inc_only
      010040E7H   SYMBOL    CODE     ---       update_hhmmss

      01007362H   BLOCK     CODE     ---       LVL=0
      ---         BLOCKEND  ---      ---       LVL=0

      01006470H   BLOCK     CODE     ---       LVL=0
      00000007H   SYMBOL    DATA     BYTE      what
      01006470H   LINE      CODE     ---       #21
      01006470H   LINE      CODE     ---       #22
      01006470H   LINE      CODE     ---       #23
      0100647BH   LINE      CODE     ---       #24
      0100647BH   LINE      CODE     ---       #25
      0100647EH   LINE      CODE     ---       #26
      01006480H   LINE      CODE     ---       #27
      01006482H   LINE      CODE     ---       #28
      01006485H   LINE      CODE     ---       #29
      01006485H   LINE      CODE     ---       #30
      0100648AH   LINE      CODE     ---       #31
      0100648AH   LINE      CODE     ---       #32
      0100648AH   LINE      CODE     ---       #33
      0100648DH   LINE      CODE     ---       #34
      0100648FH   LINE      CODE     ---       #35
      01006491H   LINE      CODE     ---       #36
      01006494H   LINE      CODE     ---       #37
      01006494H   LINE      CODE     ---       #38
      01006499H   LINE      CODE     ---       #39
      01006499H   LINE      CODE     ---       #40
      01006499H   LINE      CODE     ---       #41
      0100649CH   LINE      CODE     ---       #42
      0100649EH   LINE      CODE     ---       #43
LX51 LINKER/LOCATER V4.66.87.0                                                        06/04/2018  21:13:51  PAGE 181


      010064A3H   LINE      CODE     ---       #44
      010064A7H   LINE      CODE     ---       #45
      010064A7H   LINE      CODE     ---       #46
      010064ACH   LINE      CODE     ---       #47
      010064ACH   LINE      CODE     ---       #48
      010064ACH   LINE      CODE     ---       #49
      ---         BLOCKEND  ---      ---       LVL=0

      0100720BH   BLOCK     CODE     ---       LVL=0
      00000007H   SYMBOL    DATA     BYTE      what
      0100720BH   LINE      CODE     ---       #51
      0100720BH   LINE      CODE     ---       #52
      0100720BH   LINE      CODE     ---       #53
      01007216H   LINE      CODE     ---       #54
      01007216H   LINE      CODE     ---       #55
      01007219H   LINE      CODE     ---       #56
      0100721BH   LINE      CODE     ---       #57
      0100721DH   LINE      CODE     ---       #58
      0100721DH   LINE      CODE     ---       #59
      0100721DH   LINE      CODE     ---       #60
      0100721FH   LINE      CODE     ---       #61
      0100721FH   LINE      CODE     ---       #62
      01007222H   LINE      CODE     ---       #63
      01007224H   LINE      CODE     ---       #64
      01007226H   LINE      CODE     ---       #65
      01007226H   LINE      CODE     ---       #66
      01007226H   LINE      CODE     ---       #67
      01007228H   LINE      CODE     ---       #68
      01007228H   LINE      CODE     ---       #69
      0100722BH   LINE      CODE     ---       #70
      0100722DH   LINE      CODE     ---       #71
      01007232H   LINE      CODE     ---       #72
      01007236H   LINE      CODE     ---       #73
      01007236H   LINE      CODE     ---       #74
      01007236H   LINE      CODE     ---       #75
      01007236H   LINE      CODE     ---       #76
      ---         BLOCKEND  ---      ---       LVL=0

      01008B1CH   BLOCK     CODE     ---       LVL=0
      00000006H   SYMBOL    DATA     BYTE      what
      01008B1CH   LINE      CODE     ---       #78
      01008B1EH   LINE      CODE     ---       #79
      01008B1EH   LINE      CODE     ---       #80
      01008B21H   LINE      CODE     ---       #81
      ---         BLOCKEND  ---      ---       LVL=0

      010040E7H   BLOCK     CODE     ---       LVL=0
      010040E7H   BLOCK     CODE     NEAR LAB  LVL=1
      02000015H   SYMBOL    XDATA    BYTE      hour
      02000016H   SYMBOL    XDATA    BYTE      min
      02000017H   SYMBOL    XDATA    BYTE      sec
      ---         BLOCKEND  ---      ---       LVL=1
      010040E7H   LINE      CODE     ---       #84
      010040E7H   LINE      CODE     ---       #85
      010040E7H   LINE      CODE     ---       #88
      010040F1H   LINE      CODE     ---       #89
      010040FBH   LINE      CODE     ---       #90
      01004105H   LINE      CODE     ---       #93
      0100410AH   LINE      CODE     ---       #94
      0100410EH   LINE      CODE     ---       #95
      01004112H   LINE      CODE     ---       #96
      01004116H   LINE      CODE     ---       #98
      01004137H   LINE      CODE     ---       #100
      0100413FH   LINE      CODE     ---       #101
      0100414AH   LINE      CODE     ---       #102
LX51 LINKER/LOCATER V4.66.87.0                                                        06/04/2018  21:13:51  PAGE 182


      01004152H   LINE      CODE     ---       #103
      0100415DH   LINE      CODE     ---       #104
      0100416DH   LINE      CODE     ---       #105
      01004178H   LINE      CODE     ---       #107
      ---         BLOCKEND  ---      ---       LVL=0

      01007338H   BLOCK     CODE     ---       LVL=0
      02000014H   SYMBOL    XDATA    BYTE      what
      01007338H   LINE      CODE     ---       #109
      0100733DH   LINE      CODE     ---       #110
      0100733DH   LINE      CODE     ---       #111
      01007340H   LINE      CODE     ---       #112
      0100734EH   LINE      CODE     ---       #113
      0100734EH   LINE      CODE     ---       #114
      01007350H   LINE      CODE     ---       #115
      01007350H   LINE      CODE     ---       #116
      01007352H   LINE      CODE     ---       #117
      01007352H   LINE      CODE     ---       #118
      01007354H   LINE      CODE     ---       #119
      01007354H   LINE      CODE     ---       #120
      01007356H   LINE      CODE     ---       #121
      01007356H   LINE      CODE     ---       #122
      0100735BH   LINE      CODE     ---       #123
      0100735FH   LINE      CODE     ---       #124
      0100735FH   LINE      CODE     ---       #125
      0100735FH   LINE      CODE     ---       #126
      ---         BLOCKEND  ---      ---       LVL=0

      01008471H   BLOCK     CODE     ---       LVL=0
      00000007H   SYMBOL    DATA     BYTE      from
      00000005H   SYMBOL    DATA     BYTE      to
      00000006H   SYMBOL    DATA     BYTE      ev
      01008471H   LINE      CODE     ---       #129
      01008473H   LINE      CODE     ---       #130
      01008473H   LINE      CODE     ---       #131
      0100847FH   LINE      CODE     ---       #132
      ---         BLOCKEND  ---      ---       LVL=0

      010043E3H   BLOCK     CODE     ---       LVL=0
      02000011H   SYMBOL    XDATA    BYTE      from
      02000012H   SYMBOL    XDATA    BYTE      to
      02000013H   SYMBOL    XDATA    BYTE      ev
      010043E3H   LINE      CODE     ---       #135
      010043EEH   LINE      CODE     ---       #136
      010043EEH   LINE      CODE     ---       #137
      010043F8H   LINE      CODE     ---       #139
      0100440DH   LINE      CODE     ---       #141
      0100440DH   LINE      CODE     ---       #142
      01004412H   LINE      CODE     ---       #143
      01004415H   LINE      CODE     ---       #144
      0100441AH   LINE      CODE     ---       #145
      01004420H   LINE      CODE     ---       #147
      01004420H   LINE      CODE     ---       #150
      01004426H   LINE      CODE     ---       #151
      01004429H   LINE      CODE     ---       #153
      01004429H   LINE      CODE     ---       #156
      01004431H   LINE      CODE     ---       #157
      01004436H   LINE      CODE     ---       #159
      01004436H   LINE      CODE     ---       #162
      0100443AH   LINE      CODE     ---       #163
      01004441H   LINE      CODE     ---       #164
      01004446H   LINE      CODE     ---       #165
      01004446H   LINE      CODE     ---       #166
      01004446H   LINE      CODE     ---       #167
      0100444FH   LINE      CODE     ---       #169
LX51 LINKER/LOCATER V4.66.87.0                                                        06/04/2018  21:13:51  PAGE 183


      0100444FH   LINE      CODE     ---       #172
      01004457H   LINE      CODE     ---       #173
      0100445CH   LINE      CODE     ---       #174
      01004462H   LINE      CODE     ---       #176
      01004462H   LINE      CODE     ---       #179
      01004466H   LINE      CODE     ---       #180
      0100446CH   LINE      CODE     ---       #181
      0100446FH   LINE      CODE     ---       #182
      01004474H   LINE      CODE     ---       #184
      01004474H   LINE      CODE     ---       #185
      ---         BLOCKEND  ---      ---       LVL=0

      01005861H   BLOCK     CODE     ---       LVL=0
      00000007H   SYMBOL    DATA     BYTE      from
      00000005H   SYMBOL    DATA     BYTE      to
      02000011H   SYMBOL    XDATA    BYTE      ev
      01005861H   LINE      CODE     ---       #187
      01005866H   LINE      CODE     ---       #188
      01005866H   LINE      CODE     ---       #189
      01005870H   LINE      CODE     ---       #191
      01005876H   LINE      CODE     ---       #192
      01005879H   LINE      CODE     ---       #194
      01005879H   LINE      CODE     ---       #197
      01005880H   LINE      CODE     ---       #198
      01005885H   LINE      CODE     ---       #200
      01005885H   LINE      CODE     ---       #203
      0100588DH   LINE      CODE     ---       #204
      01005892H   LINE      CODE     ---       #206
      01005892H   LINE      CODE     ---       #209
      01005896H   LINE      CODE     ---       #210
      0100589DH   LINE      CODE     ---       #211
      010058A2H   LINE      CODE     ---       #212
      010058A2H   LINE      CODE     ---       #213
      010058A2H   LINE      CODE     ---       #214
      010058ABH   LINE      CODE     ---       #216
      010058ABH   LINE      CODE     ---       #219
      010058B2H   LINE      CODE     ---       #220
      010058B7H   LINE      CODE     ---       #221
      010058BCH   LINE      CODE     ---       #223
      010058BCH   LINE      CODE     ---       #224
      ---         BLOCKEND  ---      ---       LVL=0

      0100574AH   BLOCK     CODE     ---       LVL=0
      00000007H   SYMBOL    DATA     BYTE      from
      00000005H   SYMBOL    DATA     BYTE      to
      02000011H   SYMBOL    XDATA    BYTE      ev
      0100574AH   LINE      CODE     ---       #226
      01005750H   LINE      CODE     ---       #227
      01005750H   LINE      CODE     ---       #228
      0100575CH   LINE      CODE     ---       #230
      01005762H   LINE      CODE     ---       #231
      01005765H   LINE      CODE     ---       #233
      01005765H   LINE      CODE     ---       #236
      0100576CH   LINE      CODE     ---       #237
      01005771H   LINE      CODE     ---       #239
      01005771H   LINE      CODE     ---       #242
      01005779H   LINE      CODE     ---       #243
      0100577EH   LINE      CODE     ---       #245
      0100577EH   LINE      CODE     ---       #248
      01005782H   LINE      CODE     ---       #249
      01005789H   LINE      CODE     ---       #250
      0100578EH   LINE      CODE     ---       #251
      0100578EH   LINE      CODE     ---       #252
      0100578EH   LINE      CODE     ---       #253
      01005797H   LINE      CODE     ---       #255
LX51 LINKER/LOCATER V4.66.87.0                                                        06/04/2018  21:13:51  PAGE 184


      01005797H   LINE      CODE     ---       #258
      0100579EH   LINE      CODE     ---       #259
      010057A3H   LINE      CODE     ---       #260
      010057A8H   LINE      CODE     ---       #262
      010057A8H   LINE      CODE     ---       #263
      ---         BLOCKEND  ---      ---       LVL=0

      01006641H   BLOCK     CODE     ---       LVL=0
      00000007H   SYMBOL    DATA     BYTE      from
      00000005H   SYMBOL    DATA     BYTE      to
      02000011H   SYMBOL    XDATA    BYTE      ev
      01006641H   LINE      CODE     ---       #265
      01006647H   LINE      CODE     ---       #266
      01006647H   LINE      CODE     ---       #267
      01006653H   LINE      CODE     ---       #270
      0100665AH   LINE      CODE     ---       #271
      0100665DH   LINE      CODE     ---       #272
      01006662H   LINE      CODE     ---       #273
      01006666H   LINE      CODE     ---       #274
      01006668H   LINE      CODE     ---       #276
      01006668H   LINE      CODE     ---       #279
      0100666FH   LINE      CODE     ---       #280
      01006672H   LINE      CODE     ---       #281
      01006675H   LINE      CODE     ---       #283
      01006675H   LINE      CODE     ---       #284
      ---         BLOCKEND  ---      ---       LVL=0

      010077D6H   BLOCK     CODE     ---       LVL=0
      00000007H   SYMBOL    DATA     BYTE      from
      00000005H   SYMBOL    DATA     BYTE      to
      02000011H   SYMBOL    XDATA    BYTE      ev
      010077D6H   LINE      CODE     ---       #286
      010077DCH   LINE      CODE     ---       #287
      010077DCH   LINE      CODE     ---       #288
      010077E8H   LINE      CODE     ---       #291
      010077EFH   LINE      CODE     ---       #292
      010077F2H   LINE      CODE     ---       #293
      010077F8H   LINE      CODE     ---       #295
      010077F8H   LINE      CODE     ---       #296
      ---         BLOCKEND  ---      ---       LVL=0

      010075B7H   BLOCK     CODE     ---       LVL=0
      00000007H   SYMBOL    DATA     BYTE      from
      00000005H   SYMBOL    DATA     BYTE      to
      02000011H   SYMBOL    XDATA    BYTE      ev
      010075B7H   LINE      CODE     ---       #298
      010075BDH   LINE      CODE     ---       #299
      010075BDH   LINE      CODE     ---       #300
      010075C9H   LINE      CODE     ---       #302
      010075D0H   LINE      CODE     ---       #303
      010075D6H   LINE      CODE     ---       #304
      010075D9H   LINE      CODE     ---       #305
      010075DCH   LINE      CODE     ---       #307
      010075DCH   LINE      CODE     ---       #308
      ---         BLOCKEND  ---      ---       LVL=0

      ---         MODULE    ---      ---       SM_CLOCK_DISPLAY
      0100C9B0H   PUBLIC    CONST    ---       sm_clock_display_ss_name
      010073E0H   PUBLIC    CODE     ---       _sm_clock_display_submod3
      01007725H   PUBLIC    CODE     ---       _sm_clock_display_submod2
      0100715AH   PUBLIC    CODE     ---       _sm_clock_display_submod1
      010062C3H   PUBLIC    CODE     ---       _sm_clock_display_submod0
      01007701H   PUBLIC    CODE     ---       _sm_clock_display_init
      0100473AH   SYMBOL    CODE     ---       display_temp
      01008BEEH   SYMBOL    CODE     ---       reset_auto_switch
LX51 LINKER/LOCATER V4.66.87.0                                                        06/04/2018  21:13:51  PAGE 185


      010079ECH   SYMBOL    CODE     ---       test_autoswitch

      01007A0CH   BLOCK     CODE     ---       LVL=0
      ---         BLOCKEND  ---      ---       LVL=0

      0100473AH   BLOCK     CODE     ---       LVL=0
      0100473AH   BLOCK     CODE     NEAR LAB  LVL=1
      02000012H   SYMBOL    XDATA    BYTE      inti
      02000013H   SYMBOL    XDATA    BYTE      flt
      00000020H.0 SYMBOL    BIT      BIT       sign
      ---         BLOCKEND  ---      ---       LVL=1
      0100473AH   LINE      CODE     ---       #26
      0100473AH   LINE      CODE     ---       #27
      0100473AH   LINE      CODE     ---       #31
      0100473FH   LINE      CODE     ---       #32
      01004753H   LINE      CODE     ---       #34
      01004778H   LINE      CODE     ---       #36
      0100477BH   LINE      CODE     ---       #38
      01004780H   LINE      CODE     ---       #40
      01004787H   LINE      CODE     ---       #41
      01004793H   LINE      CODE     ---       #42
      0100479BH   LINE      CODE     ---       #43
      010047A6H   LINE      CODE     ---       #44
      010047AEH   LINE      CODE     ---       #45
      010047B9H   LINE      CODE     ---       #46
      ---         BLOCKEND  ---      ---       LVL=0

      01008BEEH   BLOCK     CODE     ---       LVL=0
      01008BEEH   LINE      CODE     ---       #48
      01008BEEH   LINE      CODE     ---       #49
      01008BEEH   LINE      CODE     ---       #50
      01008BF6H   LINE      CODE     ---       #51
      ---         BLOCKEND  ---      ---       LVL=0

      010079ECH   BLOCK     CODE     ---       LVL=0
      010079ECH   LINE      CODE     ---       #54
      010079ECH   LINE      CODE     ---       #55
      010079ECH   LINE      CODE     ---       #56
      010079FCH   LINE      CODE     ---       #57
      01007A05H   LINE      CODE     ---       #58
      01007A0BH   LINE      CODE     ---       #59
      01007A0BH   LINE      CODE     ---       #60
      ---         BLOCKEND  ---      ---       LVL=0

      01007701H   BLOCK     CODE     ---       LVL=0
      00000007H   SYMBOL    DATA     BYTE      from
      00000005H   SYMBOL    DATA     BYTE      to
      00000006H   SYMBOL    DATA     BYTE      ev
      01007701H   LINE      CODE     ---       #62
      01007703H   LINE      CODE     ---       #63
      01007703H   LINE      CODE     ---       #64
      0100770FH   LINE      CODE     ---       #65
      01007712H   LINE      CODE     ---       #66
      01007715H   LINE      CODE     ---       #67
      0100771AH   LINE      CODE     ---       #68
      0100771FH   LINE      CODE     ---       #69
      ---         BLOCKEND  ---      ---       LVL=0

      010062C3H   BLOCK     CODE     ---       LVL=0
      02000011H   SYMBOL    XDATA    BYTE      from
      00000005H   SYMBOL    DATA     BYTE      to
      02000012H   SYMBOL    XDATA    BYTE      ev
      010062C3H   LINE      CODE     ---       #72
      010062CBH   LINE      CODE     ---       #73
      010062CBH   LINE      CODE     ---       #74
LX51 LINKER/LOCATER V4.66.87.0                                                        06/04/2018  21:13:51  PAGE 186


      010062D5H   LINE      CODE     ---       #77
      010062E2H   LINE      CODE     ---       #78
      010062E2H   LINE      CODE     ---       #79
      010062E5H   LINE      CODE     ---       #80
      010062E5H   LINE      CODE     ---       #81
      010062E5H   LINE      CODE     ---       #82
      010062E7H   LINE      CODE     ---       #84
      010062E7H   LINE      CODE     ---       #87
      010062F4H   LINE      CODE     ---       #88
      010062F9H   LINE      CODE     ---       #89
      010062FEH   LINE      CODE     ---       #90
      01006301H   LINE      CODE     ---       #92
      01006301H   LINE      CODE     ---       #95
      01006308H   LINE      CODE     ---       #96
      0100630BH   LINE      CODE     ---       #98
      0100630BH   LINE      CODE     ---       #99
      ---         BLOCKEND  ---      ---       LVL=0

      0100715AH   BLOCK     CODE     ---       LVL=0
      00000007H   SYMBOL    DATA     BYTE      from
      00000005H   SYMBOL    DATA     BYTE      to
      02000011H   SYMBOL    XDATA    BYTE      ev
      0100715AH   LINE      CODE     ---       #101
      01007160H   LINE      CODE     ---       #102
      01007160H   LINE      CODE     ---       #103
      0100716CH   LINE      CODE     ---       #105
      01007174H   LINE      CODE     ---       #107
      01007179H   LINE      CODE     ---       #108
      0100717CH   LINE      CODE     ---       #109
      0100717FH   LINE      CODE     ---       #111
      0100717FH   LINE      CODE     ---       #114
      01007183H   LINE      CODE     ---       #115
      01007186H   LINE      CODE     ---       #117
      01007186H   LINE      CODE     ---       #118
      ---         BLOCKEND  ---      ---       LVL=0

      01007725H   BLOCK     CODE     ---       LVL=0
      00000007H   SYMBOL    DATA     BYTE      from
      00000005H   SYMBOL    DATA     BYTE      to
      02000011H   SYMBOL    XDATA    BYTE      ev
      01007725H   LINE      CODE     ---       #120
      01007728H   LINE      CODE     ---       #121
      01007728H   LINE      CODE     ---       #122
      0100772EH   LINE      CODE     ---       #124
      01007736H   LINE      CODE     ---       #126
      0100773BH   LINE      CODE     ---       #127
      0100773EH   LINE      CODE     ---       #128
      01007741H   LINE      CODE     ---       #130
      01007741H   LINE      CODE     ---       #133
      01007745H   LINE      CODE     ---       #134
      01007748H   LINE      CODE     ---       #136
      01007748H   LINE      CODE     ---       #137
      ---         BLOCKEND  ---      ---       LVL=0

      010073E0H   BLOCK     CODE     ---       LVL=0
      00000007H   SYMBOL    DATA     BYTE      from
      00000005H   SYMBOL    DATA     BYTE      to
      02000011H   SYMBOL    XDATA    BYTE      ev
      010073E0H   LINE      CODE     ---       #139
      010073E3H   LINE      CODE     ---       #140
      010073E3H   LINE      CODE     ---       #141
      010073E9H   LINE      CODE     ---       #143
      010073F0H   LINE      CODE     ---       #144
      010073F5H   LINE      CODE     ---       #145
      010073F8H   LINE      CODE     ---       #146
LX51 LINKER/LOCATER V4.66.87.0                                                        06/04/2018  21:13:51  PAGE 187


      010073FBH   LINE      CODE     ---       #147
      010073FEH   LINE      CODE     ---       #149
      010073FEH   LINE      CODE     ---       #152
      01007405H   LINE      CODE     ---       #153
      01007408H   LINE      CODE     ---       #155
      01007408H   LINE      CODE     ---       #156
      ---         BLOCKEND  ---      ---       LVL=0

      ---         MODULE    ---      ---       SM_CLOCK_POWERSAVE
      0100D478H   PUBLIC    CONST    ---       sm_clock_powersave_ss_name
      01006E07H   PUBLIC    CODE     ---       _sm_clock_powersave

      01006E07H   BLOCK     CODE     ---       LVL=0
      00000007H   SYMBOL    DATA     BYTE      from
      02000011H   SYMBOL    XDATA    BYTE      to
      02000012H   SYMBOL    XDATA    BYTE      ev
      01006E07H   LINE      CODE     ---       #17
      01006E10H   LINE      CODE     ---       #18
      01006E10H   LINE      CODE     ---       #19
      01006E24H   LINE      CODE     ---       #22
      01006E32H   LINE      CODE     ---       #24
      01006E35H   LINE      CODE     ---       #25
      01006E38H   LINE      CODE     ---       #27
      01006E38H   LINE      CODE     ---       #29
      ---         BLOCKEND  ---      ---       LVL=0

      ---         MODULE    ---      ---       SM_CLOCK_MOD_ALARM
      0100C3F6H   PUBLIC    CONST    ---       sm_clock_mod_alarm_ss_name
      0100728EH   PUBLIC    CODE     ---       _sm_clock_mod_alarm_submod4
      01007263H   PUBLIC    CODE     ---       _sm_clock_mod_alarm_submod3
      01005BE1H   PUBLIC    CODE     ---       _sm_clock_mod_alarm_submod2
      010058BDH   PUBLIC    CODE     ---       _sm_clock_mod_alarm_submod1
      0100562AH   PUBLIC    CODE     ---       _sm_clock_mod_alarm_submod0
      0100888CH   PUBLIC    CODE     ---       _sm_clock_mod_alarm_init
      010069D1H   SYMBOL    CODE     ---       _enter_alarm
      0100792AH   SYMBOL    CODE     ---       toggle_alarm_bs
      010087B7H   SYMBOL    CODE     ---       _inc_write
      0100619BH   SYMBOL    CODE     ---       _write_only
      01006D08H   SYMBOL    CODE     ---       _inc_only
      01007882H   SYMBOL    CODE     ---       _toggle_alarm
      01001BDDH   SYMBOL    CODE     ---       _update_alarm
      01008562H   SYMBOL    CODE     ---       toggle_alarm_music

      010086FEH   BLOCK     CODE     ---       LVL=0
      ---         BLOCKEND  ---      ---       LVL=0

      01001BDDH   BLOCK     CODE     ---       LVL=0
      02000015H   SYMBOL    XDATA    BYTE      what
      02000016H   SYMBOL    XDATA    BYTE      day
      01001BE7H   BLOCK     CODE     NEAR LAB  LVL=1
      02000017H   SYMBOL    XDATA    BYTE      hour
      02000018H   SYMBOL    XDATA    BYTE      min
      ---         BLOCKEND  ---      ---       LVL=1
      01001BDDH   LINE      CODE     ---       #23
      01001BE7H   LINE      CODE     ---       #24
      01001BE7H   LINE      CODE     ---       #26
      01001BF1H   LINE      CODE     ---       #27
      01001BF1H   LINE      CODE     ---       #28
      01001BF4H   LINE      CODE     ---       #29
      01001BFCH   LINE      CODE     ---       #30
      01001C04H   LINE      CODE     ---       #31
      01001C09H   LINE      CODE     ---       #32
      01001C0DH   LINE      CODE     ---       #35
      01001C1AH   LINE      CODE     ---       #36
      01001C1EH   LINE      CODE     ---       #37
LX51 LINKER/LOCATER V4.66.87.0                                                        06/04/2018  21:13:51  PAGE 188


      01001C22H   LINE      CODE     ---       #38
      01001C30H   LINE      CODE     ---       #39
      01001C35H   LINE      CODE     ---       #40
      01001C37H   LINE      CODE     ---       #41
      01001C3CH   LINE      CODE     ---       #42
      01001C3CH   LINE      CODE     ---       #44
      01001C55H   LINE      CODE     ---       #46
      01001C5FH   LINE      CODE     ---       #47
      01001C62H   LINE      CODE     ---       #48
      01001C64H   LINE      CODE     ---       #49
      01001C6BH   LINE      CODE     ---       #50
      01001C6BH   LINE      CODE     ---       #51
      01001C77H   LINE      CODE     ---       #52
      01001C7CH   LINE      CODE     ---       #53
      01001C83H   LINE      CODE     ---       #55
      01001C8EH   LINE      CODE     ---       #56
      01001CB1H   LINE      CODE     ---       #57
      01001CB1H   LINE      CODE     ---       #58
      01001CB4H   LINE      CODE     ---       #59
      01001CC0H   LINE      CODE     ---       #60
      01001CCAH   LINE      CODE     ---       #61
      01001CCAH   LINE      CODE     ---       #62
      01001CCAH   LINE      CODE     ---       #63
      01001CCDH   LINE      CODE     ---       #64
      01001CCFH   LINE      CODE     ---       #65
      01001CCFH   LINE      CODE     ---       #66
      01001CD2H   LINE      CODE     ---       #67
      01001CD2H   LINE      CODE     ---       #68
      01001CD2H   LINE      CODE     ---       #69
      01001CDCH   LINE      CODE     ---       #70
      01001CE3H   LINE      CODE     ---       #71
      01001CEAH   LINE      CODE     ---       #72
      01001CEFH   LINE      CODE     ---       #73
      01001CEFH   LINE      CODE     ---       #74
      01001CEFH   LINE      CODE     ---       #75
      01001CF2H   LINE      CODE     ---       #76
      01001CF4H   LINE      CODE     ---       #77
      01001CF4H   LINE      CODE     ---       #78
      01001CF7H   LINE      CODE     ---       #79
      01001CF7H   LINE      CODE     ---       #80
      01001CF7H   LINE      CODE     ---       #81
      01001CF9H   LINE      CODE     ---       #82
      01001D00H   LINE      CODE     ---       #83
      01001D07H   LINE      CODE     ---       #84
      01001D0EH   LINE      CODE     ---       #85
      01001D15H   LINE      CODE     ---       #86
      01001D1CH   LINE      CODE     ---       #87
      01001D2DH   LINE      CODE     ---       #88
      01001D39H   LINE      CODE     ---       #89
      01001D39H   LINE      CODE     ---       #90
      ---         BLOCKEND  ---      ---       LVL=0

      010069D1H   BLOCK     CODE     ---       LVL=0
      02000013H   SYMBOL    XDATA    BYTE      what
      02000014H   SYMBOL    XDATA    BYTE      day
      010069D1H   LINE      CODE     ---       #94
      010069D9H   LINE      CODE     ---       #95
      010069D9H   LINE      CODE     ---       #96
      010069DCH   LINE      CODE     ---       #97
      010069EBH   LINE      CODE     ---       #98
      010069EBH   LINE      CODE     ---       #99
      010069EDH   LINE      CODE     ---       #100
      010069EDH   LINE      CODE     ---       #101
      010069EFH   LINE      CODE     ---       #102
      010069EFH   LINE      CODE     ---       #103
LX51 LINKER/LOCATER V4.66.87.0                                                        06/04/2018  21:13:51  PAGE 189


      010069F1H   LINE      CODE     ---       #104
      010069F1H   LINE      CODE     ---       #105
      010069F3H   LINE      CODE     ---       #106
      010069F3H   LINE      CODE     ---       #107
      010069F8H   LINE      CODE     ---       #108
      010069FCH   LINE      CODE     ---       #109
      01006A00H   LINE      CODE     ---       #110
      01006A00H   LINE      CODE     ---       #111
      01006A00H   LINE      CODE     ---       #112
      ---         BLOCKEND  ---      ---       LVL=0

      0100619BH   BLOCK     CODE     ---       LVL=0
      02000014H   SYMBOL    XDATA    BYTE      what
      0100619BH   LINE      CODE     ---       #116
      010061A0H   LINE      CODE     ---       #117
      010061A0H   LINE      CODE     ---       #118
      010061A3H   LINE      CODE     ---       #119
      010061B2H   LINE      CODE     ---       #120
      010061B2H   LINE      CODE     ---       #121
      010061B5H   LINE      CODE     ---       #122
      010061B7H   LINE      CODE     ---       #123
      010061BCH   LINE      CODE     ---       #124
      010061C0H   LINE      CODE     ---       #125
      010061C0H   LINE      CODE     ---       #126
      010061C3H   LINE      CODE     ---       #127
      010061C5H   LINE      CODE     ---       #128
      010061C5H   LINE      CODE     ---       #129
      010061C8H   LINE      CODE     ---       #130
      010061CAH   LINE      CODE     ---       #131
      010061CFH   LINE      CODE     ---       #132
      010061D3H   LINE      CODE     ---       #133
      010061D3H   LINE      CODE     ---       #134
      010061DAH   LINE      CODE     ---       #135
      010061DCH   LINE      CODE     ---       #136
      010061DCH   LINE      CODE     ---       #137
      010061E6H   LINE      CODE     ---       #138
      010061E6H   LINE      CODE     ---       #139
      010061E6H   LINE      CODE     ---       #140
      ---         BLOCKEND  ---      ---       LVL=0

      01007882H   BLOCK     CODE     ---       LVL=0
      02000013H   SYMBOL    XDATA    BYTE      day
      01007882H   LINE      CODE     ---       #142
      01007887H   LINE      CODE     ---       #143
      01007887H   LINE      CODE     ---       #144
      01007895H   LINE      CODE     ---       #145
      0100789FH   LINE      CODE     ---       #146
      ---         BLOCKEND  ---      ---       LVL=0

      01006D08H   BLOCK     CODE     ---       LVL=0
      00000006H   SYMBOL    DATA     BYTE      what
      01006D08H   LINE      CODE     ---       #149
      01006D0AH   LINE      CODE     ---       #150
      01006D0AH   LINE      CODE     ---       #151
      01006D11H   LINE      CODE     ---       #152
      01006D11H   LINE      CODE     ---       #153
      01006D14H   LINE      CODE     ---       #154
      01006D16H   LINE      CODE     ---       #155
      01006D1BH   LINE      CODE     ---       #156
      01006D1FH   LINE      CODE     ---       #157
      01006D1FH   LINE      CODE     ---       #158
      01006D22H   LINE      CODE     ---       #159
      01006D24H   LINE      CODE     ---       #160
      01006D24H   LINE      CODE     ---       #161
      01006D27H   LINE      CODE     ---       #162
LX51 LINKER/LOCATER V4.66.87.0                                                        06/04/2018  21:13:51  PAGE 190


      01006D29H   LINE      CODE     ---       #163
      01006D2EH   LINE      CODE     ---       #164
      01006D32H   LINE      CODE     ---       #165
      01006D32H   LINE      CODE     ---       #166
      01006D35H   LINE      CODE     ---       #167
      01006D35H   LINE      CODE     ---       #168
      01006D35H   LINE      CODE     ---       #169
      ---         BLOCKEND  ---      ---       LVL=0

      010087B7H   BLOCK     CODE     ---       LVL=0
      02000013H   SYMBOL    XDATA    BYTE      what
      010087B7H   LINE      CODE     ---       #172
      010087BCH   LINE      CODE     ---       #173
      010087BCH   LINE      CODE     ---       #174
      010087BFH   LINE      CODE     ---       #175
      ---         BLOCKEND  ---      ---       LVL=0

      0100792AH   BLOCK     CODE     ---       LVL=0
      0100792AH   LINE      CODE     ---       #178
      0100792AH   LINE      CODE     ---       #179
      0100792AH   LINE      CODE     ---       #180
      01007933H   LINE      CODE     ---       #181
      01007936H   LINE      CODE     ---       #182
      01007944H   LINE      CODE     ---       #183
      ---         BLOCKEND  ---      ---       LVL=0

      01008562H   BLOCK     CODE     ---       LVL=0
      01008562H   LINE      CODE     ---       #186
      01008562H   LINE      CODE     ---       #187
      01008562H   LINE      CODE     ---       #188
      01008565H   LINE      CODE     ---       #189
      0100856FH   LINE      CODE     ---       #190
      ---         BLOCKEND  ---      ---       LVL=0

      0100888CH   BLOCK     CODE     ---       LVL=0
      00000007H   SYMBOL    DATA     BYTE      from
      00000005H   SYMBOL    DATA     BYTE      to
      00000006H   SYMBOL    DATA     BYTE      ev
      0100888CH   LINE      CODE     ---       #193
      0100888EH   LINE      CODE     ---       #194
      0100888EH   LINE      CODE     ---       #195
      01008894H   LINE      CODE     ---       #196
      ---         BLOCKEND  ---      ---       LVL=0

      0100562AH   BLOCK     CODE     ---       LVL=0
      02000011H   SYMBOL    XDATA    BYTE      from
      00000005H   SYMBOL    DATA     BYTE      to
      02000012H   SYMBOL    XDATA    BYTE      ev
      0100562AH   LINE      CODE     ---       #199
      01005633H   LINE      CODE     ---       #200
      01005633H   LINE      CODE     ---       #201
      01005639H   LINE      CODE     ---       #203
      01005646H   LINE      CODE     ---       #204
      01005646H   LINE      CODE     ---       #205
      0100564CH   LINE      CODE     ---       #207
      0100564CH   LINE      CODE     ---       #210
      01005653H   LINE      CODE     ---       #211
      01005658H   LINE      CODE     ---       #213
      01005658H   LINE      CODE     ---       #216
      0100565FH   LINE      CODE     ---       #217
      01005666H   LINE      CODE     ---       #218
      0100566BH   LINE      CODE     ---       #219
      0100566BH   LINE      CODE     ---       #220
      01005671H   LINE      CODE     ---       #221
      01005678H   LINE      CODE     ---       #223
LX51 LINKER/LOCATER V4.66.87.0                                                        06/04/2018  21:13:51  PAGE 191


      01005678H   LINE      CODE     ---       #226
      0100567FH   LINE      CODE     ---       #227
      01005684H   LINE      CODE     ---       #228
      01005689H   LINE      CODE     ---       #230
      01005689H   LINE      CODE     ---       #231
      ---         BLOCKEND  ---      ---       LVL=0

      010058BDH   BLOCK     CODE     ---       LVL=0
      00000007H   SYMBOL    DATA     BYTE      from
      00000005H   SYMBOL    DATA     BYTE      to
      02000011H   SYMBOL    XDATA    BYTE      ev
      010058BDH   LINE      CODE     ---       #233
      010058C3H   LINE      CODE     ---       #234
      010058C3H   LINE      CODE     ---       #235
      010058CDH   LINE      CODE     ---       #237
      010058D4H   LINE      CODE     ---       #238
      010058DBH   LINE      CODE     ---       #240
      010058DBH   LINE      CODE     ---       #244
      010058E2H   LINE      CODE     ---       #245
      010058E7H   LINE      CODE     ---       #247
      010058E7H   LINE      CODE     ---       #250
      010058EEH   LINE      CODE     ---       #251
      010058F5H   LINE      CODE     ---       #252
      010058FAH   LINE      CODE     ---       #253
      010058FAH   LINE      CODE     ---       #254
      01005900H   LINE      CODE     ---       #255
      01005907H   LINE      CODE     ---       #257
      01005907H   LINE      CODE     ---       #260
      0100590EH   LINE      CODE     ---       #261
      01005913H   LINE      CODE     ---       #262
      01005918H   LINE      CODE     ---       #264
      01005918H   LINE      CODE     ---       #265
      ---         BLOCKEND  ---      ---       LVL=0

      01005BE1H   BLOCK     CODE     ---       LVL=0
      02000011H   SYMBOL    XDATA    BYTE      from
      00000005H   SYMBOL    DATA     BYTE      to
      02000012H   SYMBOL    XDATA    BYTE      ev
      01005BE1H   LINE      CODE     ---       #267
      01005BEAH   LINE      CODE     ---       #268
      01005BEAH   LINE      CODE     ---       #269
      01005BF6H   LINE      CODE     ---       #271
      01005C00H   LINE      CODE     ---       #272
      01005C06H   LINE      CODE     ---       #273
      01005C09H   LINE      CODE     ---       #275
      01005C09H   LINE      CODE     ---       #277
      01005C10H   LINE      CODE     ---       #278
      01005C18H   LINE      CODE     ---       #279
      01005C18H   LINE      CODE     ---       #281
      01005C1FH   LINE      CODE     ---       #282
      01005C25H   LINE      CODE     ---       #283
      01005C2CH   LINE      CODE     ---       #284
      01005C31H   LINE      CODE     ---       #285
      01005C31H   LINE      CODE     ---       #286
      01005C37H   LINE      CODE     ---       #287
      01005C37H   LINE      CODE     ---       #288
      01005C37H   LINE      CODE     ---       #289
      ---         BLOCKEND  ---      ---       LVL=0

      01007263H   BLOCK     CODE     ---       LVL=0
      00000007H   SYMBOL    DATA     BYTE      from
      00000005H   SYMBOL    DATA     BYTE      to
      02000011H   SYMBOL    XDATA    BYTE      ev
      01007263H   LINE      CODE     ---       #291
      01007269H   LINE      CODE     ---       #292
LX51 LINKER/LOCATER V4.66.87.0                                                        06/04/2018  21:13:51  PAGE 192


      01007269H   LINE      CODE     ---       #293
      01007275H   LINE      CODE     ---       #295
      0100727CH   LINE      CODE     ---       #296
      01007283H   LINE      CODE     ---       #297
      01007283H   LINE      CODE     ---       #299
      0100728AH   LINE      CODE     ---       #300
      0100728DH   LINE      CODE     ---       #301
      0100728DH   LINE      CODE     ---       #302
      ---         BLOCKEND  ---      ---       LVL=0

      0100728EH   BLOCK     CODE     ---       LVL=0
      00000007H   SYMBOL    DATA     BYTE      from
      00000005H   SYMBOL    DATA     BYTE      to
      02000011H   SYMBOL    XDATA    BYTE      ev
      0100728EH   LINE      CODE     ---       #304
      01007294H   LINE      CODE     ---       #305
      01007294H   LINE      CODE     ---       #306
      010072A0H   LINE      CODE     ---       #308
      010072A7H   LINE      CODE     ---       #309
      010072AEH   LINE      CODE     ---       #310
      010072AEH   LINE      CODE     ---       #312
      010072B5H   LINE      CODE     ---       #313
      010072B8H   LINE      CODE     ---       #314
      010072B8H   LINE      CODE     ---       #315
      ---         BLOCKEND  ---      ---       LVL=0

      ---         MODULE    ---      ---       SM_CLOCK_ALARM
      0100D421H   PUBLIC    CONST    ---       sm_clock_alarm_ss_name
      01004F1EH   PUBLIC    CODE     ---       _sm_clock_alarm
      01003458H   SYMBOL    CODE     ---       _display_alarm

      01008C5EH   BLOCK     CODE     ---       LVL=0
      ---         BLOCKEND  ---      ---       LVL=0

      01003458H   BLOCK     CODE     ---       LVL=0
      02000013H   SYMBOL    XDATA    BYTE      what
      0100345DH   BLOCK     CODE     NEAR LAB  LVL=1
      02000014H   SYMBOL    XDATA    BYTE      hour
      02000015H   SYMBOL    XDATA    BYTE      min
      00000020H.0 SYMBOL    BIT      BIT       is12
      ---         BLOCKEND  ---      ---       LVL=1
      01003458H   LINE      CODE     ---       #19
      0100345DH   LINE      CODE     ---       #20
      0100345DH   LINE      CODE     ---       #23
      01003460H   LINE      CODE     ---       #24
      0100346FH   LINE      CODE     ---       #25
      0100346FH   LINE      CODE     ---       #26
      0100346FH   LINE      CODE     ---       #27
      01003473H   LINE      CODE     ---       #28
      0100347AH   LINE      CODE     ---       #29
      0100347CH   LINE      CODE     ---       #30
      0100347EH   LINE      CODE     ---       #31
      01003485H   LINE      CODE     ---       #32
      0100348CH   LINE      CODE     ---       #33
      0100348CH   LINE      CODE     ---       #34
      01003493H   LINE      CODE     ---       #35
      0100349BH   LINE      CODE     ---       #36
      010034A3H   LINE      CODE     ---       #37
      010034A8H   LINE      CODE     ---       #38
      010034AAH   LINE      CODE     ---       #39
      010034B2H   LINE      CODE     ---       #40
      010034B8H   LINE      CODE     ---       #41
      010034BDH   LINE      CODE     ---       #42
      010034BDH   LINE      CODE     ---       #43
      010034C2H   LINE      CODE     ---       #44
LX51 LINKER/LOCATER V4.66.87.0                                                        06/04/2018  21:13:51  PAGE 193


      010034C6H   LINE      CODE     ---       #45
      010034D2H   LINE      CODE     ---       #46
      010034D6H   LINE      CODE     ---       #47
      010034DAH   LINE      CODE     ---       #48
      010034E6H   LINE      CODE     ---       #49
      010034EBH   LINE      CODE     ---       #50
      010034EDH   LINE      CODE     ---       #51
      010034F2H   LINE      CODE     ---       #52
      010034F2H   LINE      CODE     ---       #53
      010034FCH   LINE      CODE     ---       #54
      010034FFH   LINE      CODE     ---       #55
      01003501H   LINE      CODE     ---       #56
      01003508H   LINE      CODE     ---       #57
      01003508H   LINE      CODE     ---       #58
      01003514H   LINE      CODE     ---       #59
      01003519H   LINE      CODE     ---       #60
      01003526H   LINE      CODE     ---       #61
      01003526H   LINE      CODE     ---       #62
      01003526H   LINE      CODE     ---       #63
      ---         BLOCKEND  ---      ---       LVL=0

      01004F1EH   BLOCK     CODE     ---       LVL=0
      00000007H   SYMBOL    DATA     BYTE      from
      02000011H   SYMBOL    XDATA    BYTE      to
      02000012H   SYMBOL    XDATA    BYTE      ev
      01004F1EH   LINE      CODE     ---       #65
      01004F27H   LINE      CODE     ---       #66
      01004F27H   LINE      CODE     ---       #67
      01004F3BH   LINE      CODE     ---       #70
      01004F45H   LINE      CODE     ---       #71
      01004F4AH   LINE      CODE     ---       #72
      01004F4FH   LINE      CODE     ---       #73
      01004F54H   LINE      CODE     ---       #75
      01004F56H   LINE      CODE     ---       #76
      01004F56H   LINE      CODE     ---       #78
      01004F56H   LINE      CODE     ---       #81
      01004F62H   LINE      CODE     ---       #82
      01004F67H   LINE      CODE     ---       #83
      01004F6CH   LINE      CODE     ---       #84
      01004F6FH   LINE      CODE     ---       #85
      01004F75H   LINE      CODE     ---       #87
      01004F75H   LINE      CODE     ---       #89
      01004F81H   LINE      CODE     ---       #90
      01004F8CH   LINE      CODE     ---       #91
      01004F92H   LINE      CODE     ---       #92
      01004F92H   LINE      CODE     ---       #94
      01004F92H   LINE      CODE     ---       #95
      ---         BLOCKEND  ---      ---       LVL=0

      ---         MODULE    ---      ---       SM_CLOCK_MOD_TIME
      0100BAA0H   PUBLIC    CONST    ---       sm_clock_mod_time_name
      01007CD2H   PUBLIC    CODE     ---       _sm_clock_mod_time_submod5
      01007CB6H   PUBLIC    CODE     ---       _sm_clock_mod_time_submod4
      01007C9AH   PUBLIC    CODE     ---       _sm_clock_mod_time_submod3
      01007C7EH   PUBLIC    CODE     ---       _sm_clock_mod_time_submod2
      0100806BH   PUBLIC    CODE     ---       _sm_clock_mod_time_submod1
      01007237H   PUBLIC    CODE     ---       _sm_clock_mod_time_submod0
      01007FD2H   PUBLIC    CODE     ---       _sm_clock_mod_time_init
      01004623H   SYMBOL    CODE     ---       update_yymmdd
      01003C36H   SYMBOL    CODE     ---       _sm_clock_mod_time
      0100738CH   SYMBOL    CODE     ---       _enter_hhmmss
      010072B9H   SYMBOL    CODE     ---       _enter_yymmdd
      010053D4H   SYMBOL    CODE     ---       _write_only
      010087C7H   SYMBOL    CODE     ---       _inc_and_write
      01004220H   SYMBOL    CODE     ---       _inc_only
LX51 LINKER/LOCATER V4.66.87.0                                                        06/04/2018  21:13:51  PAGE 194


      010039FCH   SYMBOL    CODE     ---       update_hhmmss

      010077F9H   BLOCK     CODE     ---       LVL=0
      ---         BLOCKEND  ---      ---       LVL=0

      010039FCH   BLOCK     CODE     ---       LVL=0
      010039FCH   BLOCK     CODE     NEAR LAB  LVL=1
      02000017H   SYMBOL    XDATA    BYTE      hour
      02000018H   SYMBOL    XDATA    BYTE      min
      02000019H   SYMBOL    XDATA    BYTE      sec
      ---         BLOCKEND  ---      ---       LVL=1
      010039FCH   LINE      CODE     ---       #21
      010039FCH   LINE      CODE     ---       #22
      010039FCH   LINE      CODE     ---       #25
      01003A04H   LINE      CODE     ---       #26
      01003A0AH   LINE      CODE     ---       #27
      01003A10H   LINE      CODE     ---       #30
      01003A15H   LINE      CODE     ---       #31
      01003A19H   LINE      CODE     ---       #32
      01003A1DH   LINE      CODE     ---       #33
      01003A21H   LINE      CODE     ---       #36
      01003A2EH   LINE      CODE     ---       #37
      01003A32H   LINE      CODE     ---       #38
      01003A36H   LINE      CODE     ---       #39
      01003A44H   LINE      CODE     ---       #40
      01003A49H   LINE      CODE     ---       #41
      01003A4BH   LINE      CODE     ---       #42
      01003A50H   LINE      CODE     ---       #43
      01003A50H   LINE      CODE     ---       #46
      01003A71H   LINE      CODE     ---       #48
      01003A7BH   LINE      CODE     ---       #49
      01003A7EH   LINE      CODE     ---       #50
      01003A80H   LINE      CODE     ---       #51
      01003A87H   LINE      CODE     ---       #52
      01003A87H   LINE      CODE     ---       #53
      01003A92H   LINE      CODE     ---       #54
      01003A9DH   LINE      CODE     ---       #55
      01003AA8H   LINE      CODE     ---       #56
      01003AB3H   LINE      CODE     ---       #57
      ---         BLOCKEND  ---      ---       LVL=0

      01004623H   BLOCK     CODE     ---       LVL=0
      01004623H   BLOCK     CODE     NEAR LAB  LVL=1
      02000017H   SYMBOL    XDATA    BYTE      year
      02000018H   SYMBOL    XDATA    BYTE      mon
      02000019H   SYMBOL    XDATA    BYTE      date
      ---         BLOCKEND  ---      ---       LVL=1
      01004623H   LINE      CODE     ---       #60
      01004623H   LINE      CODE     ---       #61
      01004623H   LINE      CODE     ---       #65
      0100462BH   LINE      CODE     ---       #66
      01004631H   LINE      CODE     ---       #67
      01004637H   LINE      CODE     ---       #69
      0100463CH   LINE      CODE     ---       #70
      01004641H   LINE      CODE     ---       #72
      01004662H   LINE      CODE     ---       #74
      0100466CH   LINE      CODE     ---       #75
      0100466FH   LINE      CODE     ---       #76
      01004671H   LINE      CODE     ---       #77
      01004678H   LINE      CODE     ---       #78
      01004678H   LINE      CODE     ---       #79
      01004683H   LINE      CODE     ---       #80
      0100468EH   LINE      CODE     ---       #81
      01004699H   LINE      CODE     ---       #82
      010046A4H   LINE      CODE     ---       #83
LX51 LINKER/LOCATER V4.66.87.0                                                        06/04/2018  21:13:51  PAGE 195


      ---         BLOCKEND  ---      ---       LVL=0

      01004220H   BLOCK     CODE     ---       LVL=0
      02000016H   SYMBOL    XDATA    BYTE      what
      01004220H   LINE      CODE     ---       #87
      01004225H   LINE      CODE     ---       #88
      01004225H   LINE      CODE     ---       #89
      01004238H   LINE      CODE     ---       #90
      01004238H   LINE      CODE     ---       #91
      01004238H   LINE      CODE     ---       #92
      0100423BH   LINE      CODE     ---       #93
      0100423DH   LINE      CODE     ---       #94
      0100423FH   LINE      CODE     ---       #95
      01004242H   LINE      CODE     ---       #96
      01004242H   LINE      CODE     ---       #97
      01004248H   LINE      CODE     ---       #98
      0100424BH   LINE      CODE     ---       #99
      0100424DH   LINE      CODE     ---       #100
      01004250H   LINE      CODE     ---       #101
      01004250H   LINE      CODE     ---       #102
      01004252H   LINE      CODE     ---       #103
      01004252H   LINE      CODE     ---       #104
      01004252H   LINE      CODE     ---       #105
      01004255H   LINE      CODE     ---       #106
      01004257H   LINE      CODE     ---       #107
      01004259H   LINE      CODE     ---       #108
      0100425CH   LINE      CODE     ---       #109
      0100425CH   LINE      CODE     ---       #110
      01004263H   LINE      CODE     ---       #111
      01004266H   LINE      CODE     ---       #112
      01004268H   LINE      CODE     ---       #113
      0100426BH   LINE      CODE     ---       #114
      0100426BH   LINE      CODE     ---       #115
      0100426DH   LINE      CODE     ---       #116
      0100426DH   LINE      CODE     ---       #117
      0100426DH   LINE      CODE     ---       #118
      01004270H   LINE      CODE     ---       #119
      01004272H   LINE      CODE     ---       #120
      01004277H   LINE      CODE     ---       #121
      0100427BH   LINE      CODE     ---       #122
      0100427BH   LINE      CODE     ---       #123
      01004282H   LINE      CODE     ---       #124
      01004285H   LINE      CODE     ---       #125
      01004287H   LINE      CODE     ---       #126
      0100428AH   LINE      CODE     ---       #127
      0100428AH   LINE      CODE     ---       #128
      0100428AH   LINE      CODE     ---       #129
      0100428AH   LINE      CODE     ---       #131
      01004299H   LINE      CODE     ---       #133
      01004299H   LINE      CODE     ---       #134
      0100429CH   LINE      CODE     ---       #135
      010042AEH   LINE      CODE     ---       #137
      010042AEH   LINE      CODE     ---       #138
      010042B1H   LINE      CODE     ---       #139
      010042B1H   LINE      CODE     ---       #140
      ---         BLOCKEND  ---      ---       LVL=0

      010053D4H   BLOCK     CODE     ---       LVL=0
      00000007H   SYMBOL    DATA     BYTE      what
      010053D4H   LINE      CODE     ---       #142
      010053D4H   LINE      CODE     ---       #143
      010053D4H   LINE      CODE     ---       #144
      010053E8H   LINE      CODE     ---       #145
      010053E8H   LINE      CODE     ---       #146
      010053EBH   LINE      CODE     ---       #147
LX51 LINKER/LOCATER V4.66.87.0                                                        06/04/2018  21:13:51  PAGE 196


      010053EDH   LINE      CODE     ---       #148
      010053EDH   LINE      CODE     ---       #149
      010053EDH   LINE      CODE     ---       #150
      010053EDH   LINE      CODE     ---       #151
      010053EDH   LINE      CODE     ---       #152
      010053EFH   LINE      CODE     ---       #153
      010053EFH   LINE      CODE     ---       #154
      010053F2H   LINE      CODE     ---       #155
      010053F7H   LINE      CODE     ---       #156
      010053F9H   LINE      CODE     ---       #157
      010053FBH   LINE      CODE     ---       #158
      010053FBH   LINE      CODE     ---       #159
      010053FBH   LINE      CODE     ---       #160
      010053FDH   LINE      CODE     ---       #161
      010053FDH   LINE      CODE     ---       #162
      01005400H   LINE      CODE     ---       #163
      01005405H   LINE      CODE     ---       #164
      01005407H   LINE      CODE     ---       #165
      01005409H   LINE      CODE     ---       #166
      01005409H   LINE      CODE     ---       #167
      01005409H   LINE      CODE     ---       #168
      0100540BH   LINE      CODE     ---       #169
      0100540BH   LINE      CODE     ---       #170
      0100540EH   LINE      CODE     ---       #171
      01005413H   LINE      CODE     ---       #172
      01005415H   LINE      CODE     ---       #173
      01005417H   LINE      CODE     ---       #174
      01005417H   LINE      CODE     ---       #175
      01005417H   LINE      CODE     ---       #176
      01005419H   LINE      CODE     ---       #177
      01005419H   LINE      CODE     ---       #178
      0100541CH   LINE      CODE     ---       #179
      01005421H   LINE      CODE     ---       #180
      01005423H   LINE      CODE     ---       #181
      01005425H   LINE      CODE     ---       #182
      01005425H   LINE      CODE     ---       #183
      01005425H   LINE      CODE     ---       #184
      01005427H   LINE      CODE     ---       #185
      01005427H   LINE      CODE     ---       #186
      0100542AH   LINE      CODE     ---       #187
      0100542FH   LINE      CODE     ---       #188
      01005431H   LINE      CODE     ---       #189
      01005436H   LINE      CODE     ---       #190
      0100543AH   LINE      CODE     ---       #191
      0100543AH   LINE      CODE     ---       #192
      0100543AH   LINE      CODE     ---       #193
      0100543AH   LINE      CODE     ---       #195
      ---         BLOCKEND  ---      ---       LVL=0

      010087C7H   BLOCK     CODE     ---       LVL=0
      02000015H   SYMBOL    XDATA    BYTE      what
      010087C7H   LINE      CODE     ---       #197
      010087CCH   LINE      CODE     ---       #198
      010087CCH   LINE      CODE     ---       #199
      010087CFH   LINE      CODE     ---       #200
      ---         BLOCKEND  ---      ---       LVL=0

      0100738CH   BLOCK     CODE     ---       LVL=0
      02000015H   SYMBOL    XDATA    BYTE      what
      0100738CH   LINE      CODE     ---       #204
      01007391H   LINE      CODE     ---       #205
      01007391H   LINE      CODE     ---       #206
      01007394H   LINE      CODE     ---       #207
      010073A2H   LINE      CODE     ---       #208
      010073A2H   LINE      CODE     ---       #209
LX51 LINKER/LOCATER V4.66.87.0                                                        06/04/2018  21:13:51  PAGE 197


      010073A4H   LINE      CODE     ---       #210
      010073A4H   LINE      CODE     ---       #211
      010073A6H   LINE      CODE     ---       #212
      010073A6H   LINE      CODE     ---       #213
      010073A8H   LINE      CODE     ---       #214
      010073A8H   LINE      CODE     ---       #215
      010073AAH   LINE      CODE     ---       #216
      010073AAH   LINE      CODE     ---       #217
      010073AFH   LINE      CODE     ---       #218
      010073B3H   LINE      CODE     ---       #219
      010073B3H   LINE      CODE     ---       #220
      010073B3H   LINE      CODE     ---       #221
      ---         BLOCKEND  ---      ---       LVL=0

      010072B9H   BLOCK     CODE     ---       LVL=0
      02000015H   SYMBOL    XDATA    BYTE      what
      010072B9H   LINE      CODE     ---       #225
      010072BEH   LINE      CODE     ---       #226
      010072BEH   LINE      CODE     ---       #227
      010072C1H   LINE      CODE     ---       #228
      010072D0H   LINE      CODE     ---       #229
      010072D0H   LINE      CODE     ---       #230
      010072D2H   LINE      CODE     ---       #231
      010072D2H   LINE      CODE     ---       #232
      010072D4H   LINE      CODE     ---       #233
      010072D4H   LINE      CODE     ---       #234
      010072D6H   LINE      CODE     ---       #235
      010072D6H   LINE      CODE     ---       #236
      010072D8H   LINE      CODE     ---       #237
      010072D8H   LINE      CODE     ---       #238
      010072DDH   LINE      CODE     ---       #239
      010072E1H   LINE      CODE     ---       #240
      010072E1H   LINE      CODE     ---       #241
      010072E1H   LINE      CODE     ---       #242
      ---         BLOCKEND  ---      ---       LVL=0

      01007FD2H   BLOCK     CODE     ---       LVL=0
      00000007H   SYMBOL    DATA     BYTE      from
      00000005H   SYMBOL    DATA     BYTE      to
      00000006H   SYMBOL    DATA     BYTE      ev
      01007FD2H   LINE      CODE     ---       #245
      01007FD4H   LINE      CODE     ---       #246
      01007FD4H   LINE      CODE     ---       #247
      01007FE0H   LINE      CODE     ---       #248
      01007FE5H   LINE      CODE     ---       #249
      ---         BLOCKEND  ---      ---       LVL=0

      01003C36H   BLOCK     CODE     ---       LVL=0
      02000013H   SYMBOL    XDATA    BYTE      what
      02000014H   SYMBOL    XDATA    BYTE      ev
      01003C36H   LINE      CODE     ---       #252
      01003C3EH   LINE      CODE     ---       #253
      01003C3EH   LINE      CODE     ---       #255
      01003C42H   LINE      CODE     ---       #256
      01003C51H   LINE      CODE     ---       #258
      01003C51H   LINE      CODE     ---       #259
      01003C54H   LINE      CODE     ---       #260
      01003C6AH   LINE      CODE     ---       #262
      01003C6AH   LINE      CODE     ---       #263
      01003C72H   LINE      CODE     ---       #264
      01003C72H   LINE      CODE     ---       #266
      01003C72H   LINE      CODE     ---       #268
      01003C79H   LINE      CODE     ---       #269
      01003C81H   LINE      CODE     ---       #271
      01003C81H   LINE      CODE     ---       #274
LX51 LINKER/LOCATER V4.66.87.0                                                        06/04/2018  21:13:51  PAGE 198


      01003C88H   LINE      CODE     ---       #275
      01003C8FH   LINE      CODE     ---       #276
      01003C97H   LINE      CODE     ---       #277
      01003C97H   LINE      CODE     ---       #278
      01003C9DH   LINE      CODE     ---       #279
      01003CA4H   LINE      CODE     ---       #281
      01003CA4H   LINE      CODE     ---       #284
      01003CABH   LINE      CODE     ---       #285
      01003CB3H   LINE      CODE     ---       #286
      01003CB9H   LINE      CODE     ---       #288
      01003CB9H   LINE      CODE     ---       #291
      01003CBFH   LINE      CODE     ---       #292
      01003CC8H   LINE      CODE     ---       #294
      01003CC8H   LINE      CODE     ---       #296
      01003CC8H   LINE      CODE     ---       #297
      01003CD7H   LINE      CODE     ---       #299
      01003CD7H   LINE      CODE     ---       #300
      01003CDAH   LINE      CODE     ---       #301
      01003CECH   LINE      CODE     ---       #303
      01003CECH   LINE      CODE     ---       #304
      01003CEFH   LINE      CODE     ---       #305
      01003CEFH   LINE      CODE     ---       #307
      01003CEFH   LINE      CODE     ---       #308
      ---         BLOCKEND  ---      ---       LVL=0

      01007237H   BLOCK     CODE     ---       LVL=0
      02000011H   SYMBOL    XDATA    BYTE      from
      00000005H   SYMBOL    DATA     BYTE      to
      02000012H   SYMBOL    XDATA    BYTE      ev
      01007237H   LINE      CODE     ---       #310
      0100723FH   LINE      CODE     ---       #311
      0100723FH   LINE      CODE     ---       #312
      01007249H   LINE      CODE     ---       #314
      01007256H   LINE      CODE     ---       #315
      01007256H   LINE      CODE     ---       #316
      01007259H   LINE      CODE     ---       #317
      01007259H   LINE      CODE     ---       #319
      ---         BLOCKEND  ---      ---       LVL=0

      0100806BH   BLOCK     CODE     ---       LVL=0
      00000007H   SYMBOL    DATA     BYTE      from
      00000005H   SYMBOL    DATA     BYTE      to
      02000011H   SYMBOL    XDATA    BYTE      ev
      0100806BH   LINE      CODE     ---       #322
      01008070H   LINE      CODE     ---       #323
      01008070H   LINE      CODE     ---       #324
      0100807AH   LINE      CODE     ---       #326
      ---         BLOCKEND  ---      ---       LVL=0

      01007C7EH   BLOCK     CODE     ---       LVL=0
      00000007H   SYMBOL    DATA     BYTE      from
      00000005H   SYMBOL    DATA     BYTE      to
      02000011H   SYMBOL    XDATA    BYTE      ev
      01007C7EH   LINE      CODE     ---       #329
      01007C84H   LINE      CODE     ---       #330
      01007C84H   LINE      CODE     ---       #331
      01007C90H   LINE      CODE     ---       #333
      ---         BLOCKEND  ---      ---       LVL=0

      01007C9AH   BLOCK     CODE     ---       LVL=0
      00000007H   SYMBOL    DATA     BYTE      from
      00000005H   SYMBOL    DATA     BYTE      to
      02000011H   SYMBOL    XDATA    BYTE      ev
      01007C9AH   LINE      CODE     ---       #336
      01007CA0H   LINE      CODE     ---       #337
LX51 LINKER/LOCATER V4.66.87.0                                                        06/04/2018  21:13:51  PAGE 199


      01007CA0H   LINE      CODE     ---       #338
      01007CACH   LINE      CODE     ---       #340
      ---         BLOCKEND  ---      ---       LVL=0

      01007CB6H   BLOCK     CODE     ---       LVL=0
      00000007H   SYMBOL    DATA     BYTE      from
      00000005H   SYMBOL    DATA     BYTE      to
      02000011H   SYMBOL    XDATA    BYTE      ev
      01007CB6H   LINE      CODE     ---       #343
      01007CBCH   LINE      CODE     ---       #344
      01007CBCH   LINE      CODE     ---       #345
      01007CC8H   LINE      CODE     ---       #347
      ---         BLOCKEND  ---      ---       LVL=0

      01007CD2H   BLOCK     CODE     ---       LVL=0
      00000007H   SYMBOL    DATA     BYTE      from
      00000005H   SYMBOL    DATA     BYTE      to
      02000011H   SYMBOL    XDATA    BYTE      ev
      01007CD2H   LINE      CODE     ---       #350
      01007CD8H   LINE      CODE     ---       #351
      01007CD8H   LINE      CODE     ---       #352
      01007CE4H   LINE      CODE     ---       #354
      ---         BLOCKEND  ---      ---       LVL=0

      ---         MODULE    ---      ---       SM_POWER_PACK_DISPLAY
      0100CF55H   PUBLIC    CONST    ---       sm_power_pack_display_ss_name
      01005D8DH   PUBLIC    CODE     ---       _sm_power_pack_display_submod0
      01007F35H   PUBLIC    CODE     ---       _sm_power_pack_display_init
      01005CE4H   SYMBOL    CODE     ---       display_power_volume

      01008946H   BLOCK     CODE     ---       LVL=0
      ---         BLOCKEND  ---      ---       LVL=0

      01005CE4H   BLOCK     CODE     ---       LVL=0
      01005CE4H   BLOCK     CODE     NEAR LAB  LVL=1
      02000012H   SYMBOL    XDATA    BYTE      val
      ---         BLOCKEND  ---      ---       LVL=1
      01005CE4H   LINE      CODE     ---       #16
      01005CE4H   LINE      CODE     ---       #17
      01005CE4H   LINE      CODE     ---       #19
      01005CECH   LINE      CODE     ---       #20
      01005CEFH   LINE      CODE     ---       #21
      01005CF6H   LINE      CODE     ---       #22
      01005CFCH   LINE      CODE     ---       #23
      01005D03H   LINE      CODE     ---       #24
      01005D0CH   LINE      CODE     ---       #25
      01005D16H   LINE      CODE     ---       #26
      01005D29H   LINE      CODE     ---       #27
      ---         BLOCKEND  ---      ---       LVL=0

      01007F35H   BLOCK     CODE     ---       LVL=0
      00000007H   SYMBOL    DATA     BYTE      from
      00000005H   SYMBOL    DATA     BYTE      to
      00000006H   SYMBOL    DATA     BYTE      ev
      01007F35H   LINE      CODE     ---       #29
      01007F37H   LINE      CODE     ---       #30
      01007F37H   LINE      CODE     ---       #31
      01007F41H   LINE      CODE     ---       #32
      01007F46H   LINE      CODE     ---       #33
      01007F49H   LINE      CODE     ---       #34
      ---         BLOCKEND  ---      ---       LVL=0

      01005D8DH   BLOCK     CODE     ---       LVL=0
      00000007H   SYMBOL    DATA     BYTE      from
      00000005H   SYMBOL    DATA     BYTE      to
LX51 LINKER/LOCATER V4.66.87.0                                                        06/04/2018  21:13:51  PAGE 200


      02000011H   SYMBOL    XDATA    BYTE      ev
      01005D8DH   LINE      CODE     ---       #37
      01005D93H   LINE      CODE     ---       #38
      01005D93H   LINE      CODE     ---       #39
      01005D9DH   LINE      CODE     ---       #40
      01005DAAH   LINE      CODE     ---       #41
      01005DAFH   LINE      CODE     ---       #42
      01005DB2H   LINE      CODE     ---       #44
      01005DB2H   LINE      CODE     ---       #46
      01005DBFH   LINE      CODE     ---       #47
      01005DC2H   LINE      CODE     ---       #48
      01005DC9H   LINE      CODE     ---       #49
      01005DD2H   LINE      CODE     ---       #50
      01005DD2H   LINE      CODE     ---       #51
      01005DD2H   LINE      CODE     ---       #53
      01005DD9H   LINE      CODE     ---       #54
      01005DDCH   LINE      CODE     ---       #55
      01005DDFH   LINE      CODE     ---       #57
      01005DDFH   LINE      CODE     ---       #59
      ---         BLOCKEND  ---      ---       LVL=0

      ---         MODULE    ---      ---       SM_POWER_PACK_POWERSAVE
      0100CEC2H   PUBLIC    CONST    ---       sm_power_pack_powersave_ss_name
      01007C0CH   PUBLIC    CODE     ---       _sm_power_pack_powersave_submod0
      01008A1DH   PUBLIC    CODE     ---       _sm_power_pack_powersave_init

      01008954H   BLOCK     CODE     ---       LVL=0
      ---         BLOCKEND  ---      ---       LVL=0

      01008A1DH   BLOCK     CODE     ---       LVL=0
      00000007H   SYMBOL    DATA     BYTE      from
      00000005H   SYMBOL    DATA     BYTE      to
      00000006H   SYMBOL    DATA     BYTE      ev
      01008A1DH   LINE      CODE     ---       #11
      01008A1FH   LINE      CODE     ---       #12
      01008A1FH   LINE      CODE     ---       #13
      ---         BLOCKEND  ---      ---       LVL=0

      01007C0CH   BLOCK     CODE     ---       LVL=0
      00000007H   SYMBOL    DATA     BYTE      from
      00000005H   SYMBOL    DATA     BYTE      to
      02000011H   SYMBOL    XDATA    BYTE      ev
      01007C0CH   LINE      CODE     ---       #16
      01007C12H   LINE      CODE     ---       #17
      01007C12H   LINE      CODE     ---       #18
      01007C1CH   LINE      CODE     ---       #20
      01007C22H   LINE      CODE     ---       #21
      01007C25H   LINE      CODE     ---       #22
      01007C28H   LINE      CODE     ---       #24
      01007C28H   LINE      CODE     ---       #25
      ---         BLOCKEND  ---      ---       LVL=0

      ---         MODULE    ---      ---       SM_FUSE_TEST
      0100AF5CH   PUBLIC    CONST    ---       sm_fuse_test_ss_name
      01007DB2H   PUBLIC    CODE     ---       _sm_fuse_test_submod8
      01007D96H   PUBLIC    CODE     ---       _sm_fuse_test_submod7
      01007D7AH   PUBLIC    CODE     ---       _sm_fuse_test_submod6
      01007D5EH   PUBLIC    CODE     ---       _sm_fuse_test_submod5
      01007D42H   PUBLIC    CODE     ---       _sm_fuse_test_submod4
      01007D26H   PUBLIC    CODE     ---       _sm_fuse_test_submod3
      01007D0AH   PUBLIC    CODE     ---       _sm_fuse_test_submod2
      01007CEEH   PUBLIC    CODE     ---       _sm_fuse_test_submod1
      010024C5H   PUBLIC    CODE     ---       _sm_fuse_test_submod0
      01006872H   PUBLIC    CODE     ---       _sm_fuse_test_init
      01001A25H   SYMBOL    CODE     ---       _sm_fuse_test_hg_mpu
LX51 LINKER/LOCATER V4.66.87.0                                                        06/04/2018  21:13:51  PAGE 201


      01001837H   SYMBOL    CODE     ---       _sm_fuse_test_thermo
      0100162BH   SYMBOL    CODE     ---       _display_test
      01005919H   SYMBOL    CODE     ---       _sm_fuse_set
      01003ABEH   SYMBOL    CODE     ---       _update_set
      010078C6H   SYMBOL    CODE     ---       reset_all
      01005DE0H   SYMBOL    CODE     ---       _update_hg_mask
      010078A4H   SYMBOL    CODE     ---       _inc_write
      01004475H   SYMBOL    CODE     ---       _enter_set
      01005A81H   SYMBOL    CODE     ---       _write_only
      0100568AH   SYMBOL    CODE     ---       _inc_only

      01004959H   BLOCK     CODE     ---       LVL=0
      ---         BLOCKEND  ---      ---       LVL=0

      01006872H   BLOCK     CODE     ---       LVL=0
      00000007H   SYMBOL    DATA     BYTE      from
      00000005H   SYMBOL    DATA     BYTE      to
      02000011H   SYMBOL    XDATA    BYTE      ev
      01006872H   LINE      CODE     ---       #51
      01006877H   LINE      CODE     ---       #52
      01006877H   LINE      CODE     ---       #53
      01006881H   LINE      CODE     ---       #54
      01006886H   LINE      CODE     ---       #55
      0100688DH   LINE      CODE     ---       #56
      01006890H   LINE      CODE     ---       #57
      01006895H   LINE      CODE     ---       #58
      0100689AH   LINE      CODE     ---       #59
      0100689AH   LINE      CODE     ---       #60
      0100689DH   LINE      CODE     ---       #61
      010068A4H   LINE      CODE     ---       #62
      010068ADH   LINE      CODE     ---       #63
      010068ADH   LINE      CODE     ---       #64
      ---         BLOCKEND  ---      ---       LVL=0

      01005DE0H   BLOCK     CODE     ---       LVL=0
      02000015H   SYMBOL    XDATA    BYTE      state
      02000016H   SYMBOL    XDATA    BYTE      mask
      01005DEAH   BLOCK     CODE     NEAR LAB  LVL=1
      00000005H   SYMBOL    DATA     BYTE      val
      ---         BLOCKEND  ---      ---       LVL=1
      01005DE0H   LINE      CODE     ---       #66
      01005DEAH   LINE      CODE     ---       #67
      01005DEAH   LINE      CODE     ---       #69
      01005DF8H   LINE      CODE     ---       #70
      01005E03H   LINE      CODE     ---       #71
      01005E07H   LINE      CODE     ---       #72
      01005E0BH   LINE      CODE     ---       #73
      01005E0FH   LINE      CODE     ---       #74
      01005E15H   LINE      CODE     ---       #75
      01005E25H   LINE      CODE     ---       #76
      01005E28H   LINE      CODE     ---       #77
      ---         BLOCKEND  ---      ---       LVL=0

      0100162BH   BLOCK     CODE     ---       LVL=0
      02000015H   SYMBOL    XDATA    BYTE      what
      02000016H   SYMBOL    XDATA    BYTE      stage
      02000017H   SYMBOL    XDATA    BYTE      val
      02000018H   SYMBOL    XDATA    BYTE      errcode
      01001636H   BLOCK     CODE     NEAR LAB  LVL=1
      00000003H   SYMBOL    DATA     CHAR      tmp
      ---         BLOCKEND  ---      ---       LVL=1
      0100162BH   LINE      CODE     ---       #79
      01001636H   LINE      CODE     ---       #80
      01001636H   LINE      CODE     ---       #82
      01001648H   LINE      CODE     ---       #84
LX51 LINKER/LOCATER V4.66.87.0                                                        06/04/2018  21:13:51  PAGE 202


      0100164BH   LINE      CODE     ---       #86
      01001650H   LINE      CODE     ---       #87
      01001654H   LINE      CODE     ---       #89
      0100165BH   LINE      CODE     ---       #90
      01001660H   LINE      CODE     ---       #91
      01001667H   LINE      CODE     ---       #92
      0100166EH   LINE      CODE     ---       #93
      0100166EH   LINE      CODE     ---       #94
      01001674H   LINE      CODE     ---       #95
      01001677H   LINE      CODE     ---       #96
      0100167EH   LINE      CODE     ---       #97
      01001680H   LINE      CODE     ---       #98
      01001689H   LINE      CODE     ---       #99
      0100168CH   LINE      CODE     ---       #100
      01001693H   LINE      CODE     ---       #101
      0100169AH   LINE      CODE     ---       #102
      0100169AH   LINE      CODE     ---       #104
      010016BBH   LINE      CODE     ---       #105
      010016BBH   LINE      CODE     ---       #106
      010016BBH   LINE      CODE     ---       #107
      010016BBH   LINE      CODE     ---       #108
      010016C2H   LINE      CODE     ---       #109
      010016C9H   LINE      CODE     ---       #110
      010016D2H   LINE      CODE     ---       #111
      010016D2H   LINE      CODE     ---       #112
      010016D2H   LINE      CODE     ---       #113
      010016D2H   LINE      CODE     ---       #114
      010016D2H   LINE      CODE     ---       #115
      010016D2H   LINE      CODE     ---       #116
      010016D2H   LINE      CODE     ---       #117
      010016D2H   LINE      CODE     ---       #118
      010016E5H   LINE      CODE     ---       #119
      010016EDH   LINE      CODE     ---       #120
      010016F3H   LINE      CODE     ---       #121
      010016FCH   LINE      CODE     ---       #122
      010016FFH   LINE      CODE     ---       #123
      01001701H   LINE      CODE     ---       #124
      01001704H   LINE      CODE     ---       #125
      01001704H   LINE      CODE     ---       #126
      0100170BH   LINE      CODE     ---       #127
      0100170BH   LINE      CODE     ---       #128
      0100170EH   LINE      CODE     ---       #129
      0100170EH   LINE      CODE     ---       #130
      0100170EH   LINE      CODE     ---       #131
      01001715H   LINE      CODE     ---       #132
      0100171CH   LINE      CODE     ---       #133
      0100171EH   LINE      CODE     ---       #134
      01001720H   LINE      CODE     ---       #135
      01001727H   LINE      CODE     ---       #136
      01001727H   LINE      CODE     ---       #137
      01001732H   LINE      CODE     ---       #138
      0100173BH   LINE      CODE     ---       #139
      01001744H   LINE      CODE     ---       #140
      01001746H   LINE      CODE     ---       #141
      0100174EH   LINE      CODE     ---       #142
      01001755H   LINE      CODE     ---       #143
      01001759H   LINE      CODE     ---       #144
      01001759H   LINE      CODE     ---       #145
      01001762H   LINE      CODE     ---       #146
      0100176FH   LINE      CODE     ---       #147
      01001772H   LINE      CODE     ---       #148
      01001779H   LINE      CODE     ---       #149
      01001780H   LINE      CODE     ---       #150
      01001782H   LINE      CODE     ---       #151
      01001782H   LINE      CODE     ---       #152
LX51 LINKER/LOCATER V4.66.87.0                                                        06/04/2018  21:13:51  PAGE 203


      01001782H   LINE      CODE     ---       #153
      01001785H   LINE      CODE     ---       #154
      01001785H   LINE      CODE     ---       #155
      01001785H   LINE      CODE     ---       #156
      01001789H   LINE      CODE     ---       #157
      01001790H   LINE      CODE     ---       #158
      01001791H   LINE      CODE     ---       #159
      01001793H   LINE      CODE     ---       #160
      0100179AH   LINE      CODE     ---       #161
      010017A1H   LINE      CODE     ---       #162
      010017A1H   LINE      CODE     ---       #163
      010017AAH   LINE      CODE     ---       #164
      010017B1H   LINE      CODE     ---       #165
      010017B4H   LINE      CODE     ---       #166
      010017B9H   LINE      CODE     ---       #167
      010017BEH   LINE      CODE     ---       #168
      010017C3H   LINE      CODE     ---       #169
      010017C7H   LINE      CODE     ---       #170
      010017CBH   LINE      CODE     ---       #171
      010017D0H   LINE      CODE     ---       #172
      010017D2H   LINE      CODE     ---       #173
      010017D5H   LINE      CODE     ---       #175
      010017E2H   LINE      CODE     ---       #176
      010017E5H   LINE      CODE     ---       #177
      010017E7H   LINE      CODE     ---       #178
      010017F6H   LINE      CODE     ---       #179
      010017F6H   LINE      CODE     ---       #180
      01001802H   LINE      CODE     ---       #181
      01001805H   LINE      CODE     ---       #182
      01001807H   LINE      CODE     ---       #183
      01001815H   LINE      CODE     ---       #184
      01001815H   LINE      CODE     ---       #185
      01001815H   LINE      CODE     ---       #186
      01001815H   LINE      CODE     ---       #187
      01001815H   LINE      CODE     ---       #188
      ---         BLOCKEND  ---      ---       LVL=0

      01003ABEH   BLOCK     CODE     ---       LVL=0
      00000007H   SYMBOL    DATA     BYTE      what
      01003ABEH   BLOCK     CODE     NEAR LAB  LVL=1
      00000004H   SYMBOL    DATA     CHAR      val
      ---         BLOCKEND  ---      ---       LVL=1
      01003ABEH   LINE      CODE     ---       #190
      01003ABEH   LINE      CODE     ---       #191
      01003ABEH   LINE      CODE     ---       #194
      01003AD0H   LINE      CODE     ---       #195
      01003AD0H   LINE      CODE     ---       #196
      01003AD0H   LINE      CODE     ---       #197
      01003AD5H   LINE      CODE     ---       #198
      01003AD8H   LINE      CODE     ---       #199
      01003AD8H   LINE      CODE     ---       #200
      01003ADBH   LINE      CODE     ---       #201
      01003ADBH   LINE      CODE     ---       #202
      01003ADDH   LINE      CODE     ---       #203
      01003AE5H   LINE      CODE     ---       #204
      01003AECH   LINE      CODE     ---       #205
      01003AF0H   LINE      CODE     ---       #206
      01003AF2H   LINE      CODE     ---       #207
      01003AF5H   LINE      CODE     ---       #208
      01003AF5H   LINE      CODE     ---       #209
      01003B01H   LINE      CODE     ---       #210
      01003B0CH   LINE      CODE     ---       #211
      01003B0CH   LINE      CODE     ---       #212
      01003B0EH   LINE      CODE     ---       #213
      01003B0EH   LINE      CODE     ---       #214
LX51 LINKER/LOCATER V4.66.87.0                                                        06/04/2018  21:13:51  PAGE 204


      01003B14H   LINE      CODE     ---       #215
      01003B17H   LINE      CODE     ---       #216
      01003B1EH   LINE      CODE     ---       #217
      01003B1FH   LINE      CODE     ---       #218
      01003B21H   LINE      CODE     ---       #219
      01003B21H   LINE      CODE     ---       #220
      01003B24H   LINE      CODE     ---       #221
      01003B24H   LINE      CODE     ---       #222
      01003B24H   LINE      CODE     ---       #223
      01003B26H   LINE      CODE     ---       #224
      01003B26H   LINE      CODE     ---       #225
      01003B2DH   LINE      CODE     ---       #226
      01003B34H   LINE      CODE     ---       #227
      01003B3BH   LINE      CODE     ---       #228
      01003B3BH   LINE      CODE     ---       #229
      01003B3DH   LINE      CODE     ---       #230
      01003B41H   LINE      CODE     ---       #231
      01003B49H   LINE      CODE     ---       #232
      01003B56H   LINE      CODE     ---       #233
      01003B56H   LINE      CODE     ---       #234
      01003B56H   LINE      CODE     ---       #235
      01003B56H   LINE      CODE     ---       #236
      ---         BLOCKEND  ---      ---       LVL=0

      01004475H   BLOCK     CODE     ---       LVL=0
      02000014H   SYMBOL    XDATA    BYTE      what
      01004475H   LINE      CODE     ---       #239
      0100447AH   LINE      CODE     ---       #240
      0100447AH   LINE      CODE     ---       #241
      01004484H   LINE      CODE     ---       #242
      01004487H   LINE      CODE     ---       #243
      0100448CH   LINE      CODE     ---       #244
      01004490H   LINE      CODE     ---       #245
      01004494H   LINE      CODE     ---       #246
      01004498H   LINE      CODE     ---       #247
      0100449CH   LINE      CODE     ---       #248
      010044AEH   LINE      CODE     ---       #249
      010044AEH   LINE      CODE     ---       #250
      010044AEH   LINE      CODE     ---       #251
      010044B5H   LINE      CODE     ---       #252
      010044BCH   LINE      CODE     ---       #253
      010044BEH   LINE      CODE     ---       #254
      010044C0H   LINE      CODE     ---       #255
      010044C7H   LINE      CODE     ---       #256
      010044C7H   LINE      CODE     ---       #257
      010044D2H   LINE      CODE     ---       #259
      010044D4H   LINE      CODE     ---       #260
      010044D4H   LINE      CODE     ---       #261
      010044DBH   LINE      CODE     ---       #262
      010044E1H   LINE      CODE     ---       #263
      010044E3H   LINE      CODE     ---       #264
      010044E5H   LINE      CODE     ---       #265
      010044E5H   LINE      CODE     ---       #266
      010044ECH   LINE      CODE     ---       #267
      010044F3H   LINE      CODE     ---       #268
      010044FDH   LINE      CODE     ---       #269
      010044FDH   LINE      CODE     ---       #270
      010044FDH   LINE      CODE     ---       #271
      ---         BLOCKEND  ---      ---       LVL=0

      0100568AH   BLOCK     CODE     ---       LVL=0
      02000015H   SYMBOL    XDATA    BYTE      what
      0100568AH   LINE      CODE     ---       #274
      0100568FH   LINE      CODE     ---       #275
      0100568FH   LINE      CODE     ---       #277
LX51 LINKER/LOCATER V4.66.87.0                                                        06/04/2018  21:13:51  PAGE 205


      01005699H   LINE      CODE     ---       #279
      0100569CH   LINE      CODE     ---       #280
      0100569EH   LINE      CODE     ---       #281
      010056A3H   LINE      CODE     ---       #282
      010056A7H   LINE      CODE     ---       #283
      010056ABH   LINE      CODE     ---       #284
      010056ABH   LINE      CODE     ---       #286
      010056BDH   LINE      CODE     ---       #287
      010056BDH   LINE      CODE     ---       #288
      010056BDH   LINE      CODE     ---       #289
      010056C5H   LINE      CODE     ---       #290
      010056C7H   LINE      CODE     ---       #291
      010056C7H   LINE      CODE     ---       #292
      010056D6H   LINE      CODE     ---       #293
      010056D8H   LINE      CODE     ---       #294
      010056D8H   LINE      CODE     ---       #295
      010056E2H   LINE      CODE     ---       #296
      010056E2H   LINE      CODE     ---       #297
      010056E2H   LINE      CODE     ---       #298
      ---         BLOCKEND  ---      ---       LVL=0

      01005A81H   BLOCK     CODE     ---       LVL=0
      02000015H   SYMBOL    XDATA    BYTE      what
      01005A81H   LINE      CODE     ---       #301
      01005A86H   LINE      CODE     ---       #302
      01005A86H   LINE      CODE     ---       #303
      01005A90H   LINE      CODE     ---       #305
      01005A93H   LINE      CODE     ---       #306
      01005A95H   LINE      CODE     ---       #307
      01005A9AH   LINE      CODE     ---       #308
      01005A9EH   LINE      CODE     ---       #309
      01005AA2H   LINE      CODE     ---       #310
      01005AA2H   LINE      CODE     ---       #312
      01005AB4H   LINE      CODE     ---       #313
      01005AB4H   LINE      CODE     ---       #314
      01005ABBH   LINE      CODE     ---       #315
      01005ABDH   LINE      CODE     ---       #316
      01005ABDH   LINE      CODE     ---       #317
      01005AC4H   LINE      CODE     ---       #318
      01005AC6H   LINE      CODE     ---       #319
      01005AC6H   LINE      CODE     ---       #320
      01005ACDH   LINE      CODE     ---       #321
      01005ACFH   LINE      CODE     ---       #322
      01005ACFH   LINE      CODE     ---       #323
      01005AD9H   LINE      CODE     ---       #324
      01005AD9H   LINE      CODE     ---       #325
      01005AD9H   LINE      CODE     ---       #326
      ---         BLOCKEND  ---      ---       LVL=0

      010078A4H   BLOCK     CODE     ---       LVL=0
      02000014H   SYMBOL    XDATA    BYTE      what
      010078A4H   LINE      CODE     ---       #328
      010078A9H   LINE      CODE     ---       #329
      010078A9H   LINE      CODE     ---       #330
      010078B6H   LINE      CODE     ---       #331
      010078BEH   LINE      CODE     ---       #332
      ---         BLOCKEND  ---      ---       LVL=0

      010078C6H   BLOCK     CODE     ---       LVL=0
      010078C6H   LINE      CODE     ---       #335
      010078C6H   LINE      CODE     ---       #336
      010078C6H   LINE      CODE     ---       #337
      010078CFH   LINE      CODE     ---       #338
      010078D4H   LINE      CODE     ---       #339
      010078D9H   LINE      CODE     ---       #340
LX51 LINKER/LOCATER V4.66.87.0                                                        06/04/2018  21:13:51  PAGE 206


      010078DEH   LINE      CODE     ---       #341
      010078E3H   LINE      CODE     ---       #342
      ---         BLOCKEND  ---      ---       LVL=0

      01001837H   BLOCK     CODE     ---       LVL=0
      02000012H   SYMBOL    XDATA    BYTE      what
      02000013H   SYMBOL    XDATA    BYTE      ev
      0100183FH   BLOCK     CODE     NEAR LAB  LVL=1
      02000014H   SYMBOL    XDATA    BYTE      val
      ---         BLOCKEND  ---      ---       LVL=1
      01001837H   LINE      CODE     ---       #345
      0100183FH   LINE      CODE     ---       #346
      0100183FH   LINE      CODE     ---       #348
      01001843H   LINE      CODE     ---       #350
      01001843H   LINE      CODE     ---       #351
      01001846H   LINE      CODE     ---       #352
      01001849H   LINE      CODE     ---       #353
      01001860H   LINE      CODE     ---       #357
      01001860H   LINE      CODE     ---       #359
      0100186EH   LINE      CODE     ---       #361
      01001875H   LINE      CODE     ---       #362
      01001879H   LINE      CODE     ---       #364
      01001883H   LINE      CODE     ---       #365
      01001894H   LINE      CODE     ---       #366
      0100189CH   LINE      CODE     ---       #368
      0100189EH   LINE      CODE     ---       #369
      0100189EH   LINE      CODE     ---       #370
      010018B0H   LINE      CODE     ---       #371
      010018C3H   LINE      CODE     ---       #374
      010018C6H   LINE      CODE     ---       #376
      010018DCH   LINE      CODE     ---       #379
      010018DFH   LINE      CODE     ---       #381
      010018DFH   LINE      CODE     ---       #383
      010018EDH   LINE      CODE     ---       #384
      010018F2H   LINE      CODE     ---       #386
      0100190CH   LINE      CODE     ---       #389
      01001920H   LINE      CODE     ---       #390
      01001920H   LINE      CODE     ---       #391
      0100192BH   LINE      CODE     ---       #393
      0100194CH   LINE      CODE     ---       #396
      0100195FH   LINE      CODE     ---       #397
      0100195FH   LINE      CODE     ---       #398
      01001962H   LINE      CODE     ---       #400
      01001962H   LINE      CODE     ---       #402
      0100196DH   LINE      CODE     ---       #403
      01001972H   LINE      CODE     ---       #404
      0100197DH   LINE      CODE     ---       #405
      0100197FH   LINE      CODE     ---       #406
      0100197FH   LINE      CODE     ---       #407
      0100199CH   LINE      CODE     ---       #410
      0100199CH   LINE      CODE     ---       #411
      010019A3H   LINE      CODE     ---       #412
      010019ABH   LINE      CODE     ---       #413
      010019B0H   LINE      CODE     ---       #414
      010019B3H   LINE      CODE     ---       #415
      010019C0H   LINE      CODE     ---       #416
      010019C2H   LINE      CODE     ---       #417
      010019D2H   LINE      CODE     ---       #418
      010019D7H   LINE      CODE     ---       #419
      010019D7H   LINE      CODE     ---       #420
      010019D7H   LINE      CODE     ---       #421
      010019E1H   LINE      CODE     ---       #422
      010019E6H   LINE      CODE     ---       #423
      010019E9H   LINE      CODE     ---       #424
      010019F9H   LINE      CODE     ---       #425
LX51 LINKER/LOCATER V4.66.87.0                                                        06/04/2018  21:13:51  PAGE 207


      010019F9H   LINE      CODE     ---       #426
      01001A09H   LINE      CODE     ---       #427
      01001A0EH   LINE      CODE     ---       #428
      01001A13H   LINE      CODE     ---       #429
      01001A13H   LINE      CODE     ---       #430
      01001A13H   LINE      CODE     ---       #431
      01001A13H   LINE      CODE     ---       #433
      01001A13H   LINE      CODE     ---       #434
      ---         BLOCKEND  ---      ---       LVL=0

      01005919H   BLOCK     CODE     ---       LVL=0
      02000012H   SYMBOL    XDATA    BYTE      what
      02000013H   SYMBOL    XDATA    BYTE      ev
      01005919H   LINE      CODE     ---       #436
      01005921H   LINE      CODE     ---       #437
      01005921H   LINE      CODE     ---       #438
      01005924H   LINE      CODE     ---       #439
      0100592CH   LINE      CODE     ---       #440
      0100592EH   LINE      CODE     ---       #442
      0100592EH   LINE      CODE     ---       #444
      01005935H   LINE      CODE     ---       #445
      0100593DH   LINE      CODE     ---       #447
      0100593DH   LINE      CODE     ---       #449
      01005944H   LINE      CODE     ---       #450
      0100594BH   LINE      CODE     ---       #451
      01005953H   LINE      CODE     ---       #452
      01005953H   LINE      CODE     ---       #453
      01005959H   LINE      CODE     ---       #454
      01005960H   LINE      CODE     ---       #456
      01005960H   LINE      CODE     ---       #458
      01005967H   LINE      CODE     ---       #459
      0100596FH   LINE      CODE     ---       #460
      01005974H   LINE      CODE     ---       #462
      01005974H   LINE      CODE     ---       #463
      ---         BLOCKEND  ---      ---       LVL=0

      010024C5H   BLOCK     CODE     ---       LVL=0
      00000007H   SYMBOL    DATA     BYTE      from
      00000005H   SYMBOL    DATA     BYTE      to
      02000011H   SYMBOL    XDATA    BYTE      ev
      010024C5H   LINE      CODE     ---       #471
      010024CBH   LINE      CODE     ---       #472
      010024CBH   LINE      CODE     ---       #473
      010024D7H   LINE      CODE     ---       #475
      010024E4H   LINE      CODE     ---       #477
      010024E4H   LINE      CODE     ---       #478
      010024E7H   LINE      CODE     ---       #479
      010024EAH   LINE      CODE     ---       #480
      010024EDH   LINE      CODE     ---       #482
      010024EDH   LINE      CODE     ---       #484
      010024FBH   LINE      CODE     ---       #486
      010024FDH   LINE      CODE     ---       #487
      01002505H   LINE      CODE     ---       #488
      0100250AH   LINE      CODE     ---       #489
      0100250DH   LINE      CODE     ---       #491
      0100250DH   LINE      CODE     ---       #493
      01002515H   LINE      CODE     ---       #495
      0100251AH   LINE      CODE     ---       #497
      0100251DH   LINE      CODE     ---       #498
      01002524H   LINE      CODE     ---       #499
      01002528H   LINE      CODE     ---       #500
      0100252BH   LINE      CODE     ---       #501
      0100252BH   LINE      CODE     ---       #502
      0100252EH   LINE      CODE     ---       #504
      01002533H   LINE      CODE     ---       #505
LX51 LINKER/LOCATER V4.66.87.0                                                        06/04/2018  21:13:51  PAGE 208


      01002533H   LINE      CODE     ---       #506
      01002533H   LINE      CODE     ---       #507
      01002536H   LINE      CODE     ---       #509
      01002536H   LINE      CODE     ---       #511
      0100253EH   LINE      CODE     ---       #513
      01002546H   LINE      CODE     ---       #515
      01002549H   LINE      CODE     ---       #516
      01002550H   LINE      CODE     ---       #517
      01002555H   LINE      CODE     ---       #518
      0100255DH   LINE      CODE     ---       #519
      01002567H   LINE      CODE     ---       #520
      01002569H   LINE      CODE     ---       #522
      0100256EH   LINE      CODE     ---       #523
      0100256EH   LINE      CODE     ---       #524
      0100256EH   LINE      CODE     ---       #525
      01002571H   LINE      CODE     ---       #527
      01002571H   LINE      CODE     ---       #529
      01002579H   LINE      CODE     ---       #531
      01002580H   LINE      CODE     ---       #534
      01002580H   LINE      CODE     ---       #535
      01002583H   LINE      CODE     ---       #536
      0100258BH   LINE      CODE     ---       #537
      0100258DH   LINE      CODE     ---       #539
      01002592H   LINE      CODE     ---       #540
      01002592H   LINE      CODE     ---       #541
      01002592H   LINE      CODE     ---       #542
      01002594H   LINE      CODE     ---       #544
      01002594H   LINE      CODE     ---       #546
      0100259CH   LINE      CODE     ---       #548
      010025A1H   LINE      CODE     ---       #549
      010025A9H   LINE      CODE     ---       #550
      010025AFH   LINE      CODE     ---       #551
      010025B3H   LINE      CODE     ---       #552
      010025B6H   LINE      CODE     ---       #553
      010025C3H   LINE      CODE     ---       #554
      010025C3H   LINE      CODE     ---       #555
      010025C8H   LINE      CODE     ---       #556
      010025D0H   LINE      CODE     ---       #558
      010025DAH   LINE      CODE     ---       #559
      010025DAH   LINE      CODE     ---       #560
      010025DAH   LINE      CODE     ---       #561
      010025DAH   LINE      CODE     ---       #562
      010025E4H   LINE      CODE     ---       #563
      010025ECH   LINE      CODE     ---       #565
      010025F6H   LINE      CODE     ---       #566
      010025F6H   LINE      CODE     ---       #567
      010025F6H   LINE      CODE     ---       #568
      010025F6H   LINE      CODE     ---       #569
      01002600H   LINE      CODE     ---       #570
      01002608H   LINE      CODE     ---       #572
      01002615H   LINE      CODE     ---       #573
      01002615H   LINE      CODE     ---       #574
      01002618H   LINE      CODE     ---       #575
      01002618H   LINE      CODE     ---       #576
      01002618H   LINE      CODE     ---       #578
      01002618H   LINE      CODE     ---       #579
      ---         BLOCKEND  ---      ---       LVL=0

      01007CEEH   BLOCK     CODE     ---       LVL=0
      00000007H   SYMBOL    DATA     BYTE      from
      00000005H   SYMBOL    DATA     BYTE      to
      02000011H   SYMBOL    XDATA    BYTE      ev
      01007CEEH   LINE      CODE     ---       #581
      01007CF4H   LINE      CODE     ---       #582
      01007CF4H   LINE      CODE     ---       #583
LX51 LINKER/LOCATER V4.66.87.0                                                        06/04/2018  21:13:51  PAGE 209


      01007D00H   LINE      CODE     ---       #584
      ---         BLOCKEND  ---      ---       LVL=0

      01007D0AH   BLOCK     CODE     ---       LVL=0
      00000007H   SYMBOL    DATA     BYTE      from
      00000005H   SYMBOL    DATA     BYTE      to
      02000011H   SYMBOL    XDATA    BYTE      ev
      01007D0AH   LINE      CODE     ---       #592
      01007D10H   LINE      CODE     ---       #593
      01007D10H   LINE      CODE     ---       #594
      01007D1CH   LINE      CODE     ---       #595
      ---         BLOCKEND  ---      ---       LVL=0

      01007D26H   BLOCK     CODE     ---       LVL=0
      00000007H   SYMBOL    DATA     BYTE      from
      00000005H   SYMBOL    DATA     BYTE      to
      02000011H   SYMBOL    XDATA    BYTE      ev
      01007D26H   LINE      CODE     ---       #598
      01007D2CH   LINE      CODE     ---       #599
      01007D2CH   LINE      CODE     ---       #600
      01007D38H   LINE      CODE     ---       #601
      ---         BLOCKEND  ---      ---       LVL=0

      01007D42H   BLOCK     CODE     ---       LVL=0
      00000007H   SYMBOL    DATA     BYTE      from
      00000005H   SYMBOL    DATA     BYTE      to
      02000011H   SYMBOL    XDATA    BYTE      ev
      01007D42H   LINE      CODE     ---       #604
      01007D48H   LINE      CODE     ---       #605
      01007D48H   LINE      CODE     ---       #606
      01007D54H   LINE      CODE     ---       #607
      ---         BLOCKEND  ---      ---       LVL=0

      01007D5EH   BLOCK     CODE     ---       LVL=0
      00000007H   SYMBOL    DATA     BYTE      from
      00000005H   SYMBOL    DATA     BYTE      to
      02000011H   SYMBOL    XDATA    BYTE      ev
      01007D5EH   LINE      CODE     ---       #610
      01007D64H   LINE      CODE     ---       #611
      01007D64H   LINE      CODE     ---       #612
      01007D70H   LINE      CODE     ---       #613
      ---         BLOCKEND  ---      ---       LVL=0

      01001A25H   BLOCK     CODE     ---       LVL=0
      02000012H   SYMBOL    XDATA    BYTE      what
      02000013H   SYMBOL    XDATA    BYTE      ev
      01001A2DH   BLOCK     CODE     NEAR LAB  LVL=1
      02000014H   SYMBOL    XDATA    BYTE      val
      ---         BLOCKEND  ---      ---       LVL=1
      01001A25H   LINE      CODE     ---       #616
      01001A2DH   LINE      CODE     ---       #617
      01001A2DH   LINE      CODE     ---       #620
      01001A30H   LINE      CODE     ---       #622
      01001A35H   LINE      CODE     ---       #623
      01001A39H   LINE      CODE     ---       #624
      01001A3DH   LINE      CODE     ---       #625
      01001A40H   LINE      CODE     ---       #626
      01001A47H   LINE      CODE     ---       #628
      01001A47H   LINE      CODE     ---       #630
      01001A55H   LINE      CODE     ---       #631
      01001A6AH   LINE      CODE     ---       #632
      01001A7AH   LINE      CODE     ---       #634
      01001A7BH   LINE      CODE     ---       #635
      01001A7EH   LINE      CODE     ---       #636
      01001A83H   LINE      CODE     ---       #637
LX51 LINKER/LOCATER V4.66.87.0                                                        06/04/2018  21:13:51  PAGE 210


      01001A86H   LINE      CODE     ---       #638
      01001A8EH   LINE      CODE     ---       #639
      01001AA0H   LINE      CODE     ---       #640
      01001AA2H   LINE      CODE     ---       #641
      01001AA5H   LINE      CODE     ---       #642
      01001AAAH   LINE      CODE     ---       #643
      01001AADH   LINE      CODE     ---       #644
      01001AB5H   LINE      CODE     ---       #645
      01001AB8H   LINE      CODE     ---       #647
      01001AC6H   LINE      CODE     ---       #648
      01001AC9H   LINE      CODE     ---       #650
      01001AC9H   LINE      CODE     ---       #652
      01001AD1H   LINE      CODE     ---       #653
      01001AD6H   LINE      CODE     ---       #654
      01001AE1H   LINE      CODE     ---       #655
      01001AECH   LINE      CODE     ---       #656
      01001AFAH   LINE      CODE     ---       #658
      01001AFDH   LINE      CODE     ---       #659
      01001AFDH   LINE      CODE     ---       #660
      01001AFDH   LINE      CODE     ---       #661
      01001AFDH   LINE      CODE     ---       #662
      01001B0BH   LINE      CODE     ---       #664
      01001B13H   LINE      CODE     ---       #665
      01001B16H   LINE      CODE     ---       #666
      01001B16H   LINE      CODE     ---       #667
      01001B19H   LINE      CODE     ---       #669
      01001B19H   LINE      CODE     ---       #671
      01001B21H   LINE      CODE     ---       #672
      01001B29H   LINE      CODE     ---       #674
      01001B2CH   LINE      CODE     ---       #675
      01001B2CH   LINE      CODE     ---       #676
      01001B2CH   LINE      CODE     ---       #677
      01001B3AH   LINE      CODE     ---       #679
      01001B42H   LINE      CODE     ---       #680
      01001B45H   LINE      CODE     ---       #681
      01001B45H   LINE      CODE     ---       #682
      01001B47H   LINE      CODE     ---       #684
      01001B47H   LINE      CODE     ---       #686
      01001B4FH   LINE      CODE     ---       #687
      01001B54H   LINE      CODE     ---       #688
      01001B5CH   LINE      CODE     ---       #690
      01001B62H   LINE      CODE     ---       #691
      01001B6AH   LINE      CODE     ---       #692
      01001B71H   LINE      CODE     ---       #693
      01001B75H   LINE      CODE     ---       #694
      01001B77H   LINE      CODE     ---       #695
      01001B7FH   LINE      CODE     ---       #696
      01001B7FH   LINE      CODE     ---       #697
      01001B88H   LINE      CODE     ---       #698
      01001B88H   LINE      CODE     ---       #699
      01001B8DH   LINE      CODE     ---       #700
      01001B9DH   LINE      CODE     ---       #702
      01001BA6H   LINE      CODE     ---       #703
      01001BABH   LINE      CODE     ---       #704
      01001BB2H   LINE      CODE     ---       #705
      01001BB7H   LINE      CODE     ---       #706
      01001BB7H   LINE      CODE     ---       #707
      01001BBCH   LINE      CODE     ---       #708
      01001BBCH   LINE      CODE     ---       #709
      01001BBCH   LINE      CODE     ---       #710
      01001BBCH   LINE      CODE     ---       #712
      01001BBCH   LINE      CODE     ---       #713
      ---         BLOCKEND  ---      ---       LVL=0

      01007D7AH   BLOCK     CODE     ---       LVL=0
LX51 LINKER/LOCATER V4.66.87.0                                                        06/04/2018  21:13:51  PAGE 211


      00000007H   SYMBOL    DATA     BYTE      from
      00000005H   SYMBOL    DATA     BYTE      to
      02000011H   SYMBOL    XDATA    BYTE      ev
      01007D7AH   LINE      CODE     ---       #719
      01007D80H   LINE      CODE     ---       #720
      01007D80H   LINE      CODE     ---       #721
      01007D8CH   LINE      CODE     ---       #722
      ---         BLOCKEND  ---      ---       LVL=0

      01007D96H   BLOCK     CODE     ---       LVL=0
      00000007H   SYMBOL    DATA     BYTE      from
      00000005H   SYMBOL    DATA     BYTE      to
      02000011H   SYMBOL    XDATA    BYTE      ev
      01007D96H   LINE      CODE     ---       #725
      01007D9CH   LINE      CODE     ---       #726
      01007D9CH   LINE      CODE     ---       #727
      01007DA8H   LINE      CODE     ---       #728
      ---         BLOCKEND  ---      ---       LVL=0

      01007DB2H   BLOCK     CODE     ---       LVL=0
      00000007H   SYMBOL    DATA     BYTE      from
      00000005H   SYMBOL    DATA     BYTE      to
      02000011H   SYMBOL    XDATA    BYTE      ev
      01007DB2H   LINE      CODE     ---       #732
      01007DB8H   LINE      CODE     ---       #733
      01007DB8H   LINE      CODE     ---       #734
      01007DC4H   LINE      CODE     ---       #735
      ---         BLOCKEND  ---      ---       LVL=0

      ---         MODULE    ---      ---       SM_FUSE_PARAM
      0100BC93H   PUBLIC    CONST    ---       sm_fuse_param_ss_name
      01004505H   PUBLIC    CODE     ---       _sm_fuse_param_submod6
      01007E3EH   PUBLIC    CODE     ---       _sm_fuse_param_submod5
      01007E22H   PUBLIC    CODE     ---       _sm_fuse_param_submod4
      01007E06H   PUBLIC    CODE     ---       _sm_fuse_param_submod3
      01007DEAH   PUBLIC    CODE     ---       _sm_fuse_param_submod2
      01007DCEH   PUBLIC    CODE     ---       _sm_fuse_param_submod1
      0100630CH   PUBLIC    CODE     ---       _sm_fuse_param_submod0
      01007749H   PUBLIC    CODE     ---       _sm_fuse_param_init
      01001F09H   SYMBOL    CODE     ---       _update_time
      0100522CH   SYMBOL    CODE     ---       _sm_fuse_param_set_time
      01006B26H   SYMBOL    CODE     ---       _enter_time
      01004BD2H   SYMBOL    CODE     ---       _write_only
      01008B26H   SYMBOL    CODE     ---       _inc_and_write
      01006A44H   SYMBOL    CODE     ---       _update_password
      01004DB9H   SYMBOL    CODE     ---       _inc_only
      01007FECH   SYMBOL    CODE     ---       _enter_password

      010082A6H   BLOCK     CODE     ---       LVL=0
      ---         BLOCKEND  ---      ---       LVL=0

      01004DB9H   BLOCK     CODE     ---       LVL=0
      00000006H   SYMBOL    DATA     BYTE      what
      01004DB9H   LINE      CODE     ---       #26
      01004DBBH   LINE      CODE     ---       #27
      01004DBBH   LINE      CODE     ---       #29
      01004DC7H   LINE      CODE     ---       #30
      01004DD5H   LINE      CODE     ---       #32
      01004DD5H   LINE      CODE     ---       #34
      01004DE9H   LINE      CODE     ---       #35
      01004DE9H   LINE      CODE     ---       #36
      01004DE9H   LINE      CODE     ---       #37
      01004DECH   LINE      CODE     ---       #38
      01004DEEH   LINE      CODE     ---       #39
      01004DF0H   LINE      CODE     ---       #40
LX51 LINKER/LOCATER V4.66.87.0                                                        06/04/2018  21:13:51  PAGE 212


      01004DF3H   LINE      CODE     ---       #41
      01004DF3H   LINE      CODE     ---       #42
      01004DF6H   LINE      CODE     ---       #43
      01004DF9H   LINE      CODE     ---       #44
      01004DF9H   LINE      CODE     ---       #45
      01004DFCH   LINE      CODE     ---       #46
      01004DFCH   LINE      CODE     ---       #47
      01004DFCH   LINE      CODE     ---       #48
      01004DFCH   LINE      CODE     ---       #49
      01004DFCH   LINE      CODE     ---       #50
      01004DFFH   LINE      CODE     ---       #51
      01004E01H   LINE      CODE     ---       #52
      01004E03H   LINE      CODE     ---       #53
      01004E06H   LINE      CODE     ---       #54
      01004E06H   LINE      CODE     ---       #55
      01004E0AH   LINE      CODE     ---       #56
      01004E0DH   LINE      CODE     ---       #57
      01004E0DH   LINE      CODE     ---       #58
      01004E10H   LINE      CODE     ---       #59
      01004E10H   LINE      CODE     ---       #60
      01004E10H   LINE      CODE     ---       #61
      01004E10H   LINE      CODE     ---       #62
      01004E10H   LINE      CODE     ---       #63
      01004E13H   LINE      CODE     ---       #64
      01004E15H   LINE      CODE     ---       #65
      01004E1AH   LINE      CODE     ---       #66
      01004E1EH   LINE      CODE     ---       #67
      01004E1EH   LINE      CODE     ---       #68
      01004E22H   LINE      CODE     ---       #69
      01004E25H   LINE      CODE     ---       #70
      01004E25H   LINE      CODE     ---       #71
      01004E28H   LINE      CODE     ---       #72
      01004E28H   LINE      CODE     ---       #73
      01004E28H   LINE      CODE     ---       #74
      01004E28H   LINE      CODE     ---       #75
      ---         BLOCKEND  ---      ---       LVL=0

      01004BD2H   BLOCK     CODE     ---       LVL=0
      02000015H   SYMBOL    XDATA    BYTE      what
      01004BD7H   BLOCK     CODE     NEAR LAB  LVL=1
      00000007H   SYMBOL    DATA     BYTE      i
      ---         BLOCKEND  ---      ---       LVL=1
      01004BD2H   LINE      CODE     ---       #77
      01004BD7H   LINE      CODE     ---       #78
      01004BD7H   LINE      CODE     ---       #81
      01004BE3H   LINE      CODE     ---       #82
      01004BE6H   LINE      CODE     ---       #83
      01004BF1H   LINE      CODE     ---       #85
      01004BF1H   LINE      CODE     ---       #87
      01004C08H   LINE      CODE     ---       #88
      01004C08H   LINE      CODE     ---       #89
      01004C0BH   LINE      CODE     ---       #90
      01004C0DH   LINE      CODE     ---       #91
      01004C0DH   LINE      CODE     ---       #92
      01004C0DH   LINE      CODE     ---       #93
      01004C0DH   LINE      CODE     ---       #94
      01004C0DH   LINE      CODE     ---       #95
      01004C0FH   LINE      CODE     ---       #96
      01004C0FH   LINE      CODE     ---       #97
      01004C12H   LINE      CODE     ---       #98
      01004C14H   LINE      CODE     ---       #99
      01004C14H   LINE      CODE     ---       #100
      01004C14H   LINE      CODE     ---       #101
      01004C14H   LINE      CODE     ---       #102
      01004C14H   LINE      CODE     ---       #103
LX51 LINKER/LOCATER V4.66.87.0                                                        06/04/2018  21:13:51  PAGE 213


      01004C16H   LINE      CODE     ---       #104
      01004C16H   LINE      CODE     ---       #105
      01004C19H   LINE      CODE     ---       #106
      01004C1BH   LINE      CODE     ---       #107
      01004C1BH   LINE      CODE     ---       #108
      01004C1BH   LINE      CODE     ---       #109
      01004C1BH   LINE      CODE     ---       #110
      01004C1BH   LINE      CODE     ---       #111
      01004C1DH   LINE      CODE     ---       #112
      01004C1DH   LINE      CODE     ---       #113
      01004C20H   LINE      CODE     ---       #114
      01004C25H   LINE      CODE     ---       #115
      01004C27H   LINE      CODE     ---       #116
      01004C29H   LINE      CODE     ---       #117
      01004C29H   LINE      CODE     ---       #118
      01004C29H   LINE      CODE     ---       #119
      01004C2BH   LINE      CODE     ---       #120
      01004C2BH   LINE      CODE     ---       #121
      01004C2EH   LINE      CODE     ---       #122
      01004C33H   LINE      CODE     ---       #123
      01004C35H   LINE      CODE     ---       #124
      01004C37H   LINE      CODE     ---       #125
      01004C37H   LINE      CODE     ---       #126
      01004C37H   LINE      CODE     ---       #127
      01004C39H   LINE      CODE     ---       #128
      01004C39H   LINE      CODE     ---       #129
      01004C3CH   LINE      CODE     ---       #130
      01004C41H   LINE      CODE     ---       #131
      01004C43H   LINE      CODE     ---       #132
      01004C48H   LINE      CODE     ---       #133
      01004C4CH   LINE      CODE     ---       #134
      01004C4CH   LINE      CODE     ---       #135
      01004C4CH   LINE      CODE     ---       #136
      01004C4CH   LINE      CODE     ---       #138
      ---         BLOCKEND  ---      ---       LVL=0

      01008B26H   BLOCK     CODE     ---       LVL=0
      00000004H   SYMBOL    DATA     BYTE      what
      01008B26H   LINE      CODE     ---       #140
      01008B28H   LINE      CODE     ---       #141
      01008B28H   LINE      CODE     ---       #142
      01008B2BH   LINE      CODE     ---       #143
      ---         BLOCKEND  ---      ---       LVL=0

      01001F09H   BLOCK     CODE     ---       LVL=0
      00000007H   SYMBOL    DATA     BYTE      what
      01001F09H   BLOCK     CODE     NEAR LAB  LVL=1
      02000016H   SYMBOL    XDATA    BYTE      year
      02000017H   SYMBOL    XDATA    BYTE      mon
      02000018H   SYMBOL    XDATA    BYTE      date
      02000019H   SYMBOL    XDATA    BYTE      hour
      0200001AH   SYMBOL    XDATA    BYTE      min
      0200001BH   SYMBOL    XDATA    BYTE      sec
      ---         BLOCKEND  ---      ---       LVL=1
      01001F09H   LINE      CODE     ---       #146
      01001F09H   LINE      CODE     ---       #147
      01001F09H   LINE      CODE     ---       #150
      01001F18H   LINE      CODE     ---       #152
      01001F20H   LINE      CODE     ---       #153
      01001F26H   LINE      CODE     ---       #154
      01001F2CH   LINE      CODE     ---       #156
      01001F31H   LINE      CODE     ---       #157
      01001F36H   LINE      CODE     ---       #159
      01001F57H   LINE      CODE     ---       #161
      01001F61H   LINE      CODE     ---       #162
LX51 LINKER/LOCATER V4.66.87.0                                                        06/04/2018  21:13:51  PAGE 214


      01001F64H   LINE      CODE     ---       #163
      01001F66H   LINE      CODE     ---       #164
      01001F6DH   LINE      CODE     ---       #165
      01001F6DH   LINE      CODE     ---       #166
      01001F73H   LINE      CODE     ---       #167
      01001F79H   LINE      CODE     ---       #168
      01001F7FH   LINE      CODE     ---       #169
      01001F85H   LINE      CODE     ---       #170
      01001F88H   LINE      CODE     ---       #171
      01001F8BH   LINE      CODE     ---       #172
      01001F93H   LINE      CODE     ---       #173
      01001F99H   LINE      CODE     ---       #174
      01001F9FH   LINE      CODE     ---       #177
      01001FA4H   LINE      CODE     ---       #178
      01001FA8H   LINE      CODE     ---       #179
      01001FACH   LINE      CODE     ---       #180
      01001FB0H   LINE      CODE     ---       #183
      01001FBDH   LINE      CODE     ---       #184
      01001FC1H   LINE      CODE     ---       #185
      01001FC5H   LINE      CODE     ---       #186
      01001FD3H   LINE      CODE     ---       #187
      01001FD8H   LINE      CODE     ---       #188
      01001FDAH   LINE      CODE     ---       #189
      01001FDFH   LINE      CODE     ---       #190
      01001FDFH   LINE      CODE     ---       #193
      01002000H   LINE      CODE     ---       #195
      0100200AH   LINE      CODE     ---       #196
      0100200DH   LINE      CODE     ---       #197
      0100200FH   LINE      CODE     ---       #198
      01002016H   LINE      CODE     ---       #199
      01002016H   LINE      CODE     ---       #200
      0100201CH   LINE      CODE     ---       #201
      01002022H   LINE      CODE     ---       #202
      01002028H   LINE      CODE     ---       #203
      0100202EH   LINE      CODE     ---       #204
      01002040H   LINE      CODE     ---       #205
      01002040H   LINE      CODE     ---       #206
      ---         BLOCKEND  ---      ---       LVL=0

      01006B26H   BLOCK     CODE     ---       LVL=0
      02000015H   SYMBOL    XDATA    BYTE      what
      01006B26H   LINE      CODE     ---       #208
      01006B2BH   LINE      CODE     ---       #209
      01006B2BH   LINE      CODE     ---       #210
      01006B2EH   LINE      CODE     ---       #211
      01006B45H   LINE      CODE     ---       #212
      01006B45H   LINE      CODE     ---       #213
      01006B45H   LINE      CODE     ---       #214
      01006B47H   LINE      CODE     ---       #215
      01006B47H   LINE      CODE     ---       #216
      01006B49H   LINE      CODE     ---       #217
      01006B49H   LINE      CODE     ---       #218
      01006B49H   LINE      CODE     ---       #219
      01006B4BH   LINE      CODE     ---       #220
      01006B4BH   LINE      CODE     ---       #221
      01006B4DH   LINE      CODE     ---       #222
      01006B4DH   LINE      CODE     ---       #223
      01006B4DH   LINE      CODE     ---       #224
      01006B52H   LINE      CODE     ---       #225
      01006B56H   LINE      CODE     ---       #226
      01006B56H   LINE      CODE     ---       #227
      01006B56H   LINE      CODE     ---       #228
      ---         BLOCKEND  ---      ---       LVL=0

      01006A44H   BLOCK     CODE     ---       LVL=0
LX51 LINKER/LOCATER V4.66.87.0                                                        06/04/2018  21:13:51  PAGE 215


      00000007H   SYMBOL    DATA     BYTE      index
      01006A44H   BLOCK     CODE     NEAR LAB  LVL=1
      02000014H   SYMBOL    XDATA    BYTE      i
      ---         BLOCKEND  ---      ---       LVL=1
      01006A44H   LINE      CODE     ---       #231
      01006A44H   LINE      CODE     ---       #232
      01006A44H   LINE      CODE     ---       #234
      01006A4BH   LINE      CODE     ---       #235
      01006A4EH   LINE      CODE     ---       #236
      01006A55H   LINE      CODE     ---       #237
      01006A5AH   LINE      CODE     ---       #238
      01006A5FH   LINE      CODE     ---       #239
      01006A64H   LINE      CODE     ---       #240
      01006A69H   LINE      CODE     ---       #241
      01006A6EH   LINE      CODE     ---       #242
      ---         BLOCKEND  ---      ---       LVL=0

      01007FECH   BLOCK     CODE     ---       LVL=0
      02000013H   SYMBOL    XDATA    BYTE      index
      01007FF1H   BLOCK     CODE     NEAR LAB  LVL=1
      00000007H   SYMBOL    DATA     BYTE      i
      ---         BLOCKEND  ---      ---       LVL=1
      01007FECH   LINE      CODE     ---       #245
      01007FF1H   LINE      CODE     ---       #246
      01007FF1H   LINE      CODE     ---       #248
      01007FF3H   LINE      CODE     ---       #249
      01007FFEH   LINE      CODE     ---       #250
      ---         BLOCKEND  ---      ---       LVL=0

      01007749H   BLOCK     CODE     ---       LVL=0
      00000007H   SYMBOL    DATA     BYTE      from
      00000005H   SYMBOL    DATA     BYTE      to
      02000011H   SYMBOL    XDATA    BYTE      ev
      01007749H   LINE      CODE     ---       #253
      0100774EH   LINE      CODE     ---       #254
      0100774EH   LINE      CODE     ---       #255
      01007758H   LINE      CODE     ---       #256
      0100775FH   LINE      CODE     ---       #258
      01007766H   LINE      CODE     ---       #259
      0100776CH   LINE      CODE     ---       #260
      0100776CH   LINE      CODE     ---       #261
      ---         BLOCKEND  ---      ---       LVL=0

      0100522CH   BLOCK     CODE     ---       LVL=0
      02000013H   SYMBOL    XDATA    BYTE      what
      02000014H   SYMBOL    XDATA    BYTE      ev
      0100522CH   LINE      CODE     ---       #263
      01005234H   LINE      CODE     ---       #264
      01005234H   LINE      CODE     ---       #265
      01005237H   LINE      CODE     ---       #266
      0100523FH   LINE      CODE     ---       #268
      0100523FH   LINE      CODE     ---       #270
      01005246H   LINE      CODE     ---       #271
      0100524EH   LINE      CODE     ---       #272
      01005256H   LINE      CODE     ---       #274
      01005256H   LINE      CODE     ---       #276
      0100525EH   LINE      CODE     ---       #277
      01005265H   LINE      CODE     ---       #278
      0100526DH   LINE      CODE     ---       #279
      01005275H   LINE      CODE     ---       #280
      01005275H   LINE      CODE     ---       #281
      0100527BH   LINE      CODE     ---       #282
      01005282H   LINE      CODE     ---       #284
      01005282H   LINE      CODE     ---       #286
      01005289H   LINE      CODE     ---       #287
LX51 LINKER/LOCATER V4.66.87.0                                                        06/04/2018  21:13:51  PAGE 216


      01005291H   LINE      CODE     ---       #288
      01005296H   LINE      CODE     ---       #290
      01005296H   LINE      CODE     ---       #291
      ---         BLOCKEND  ---      ---       LVL=0

      0100630CH   BLOCK     CODE     ---       LVL=0
      02000011H   SYMBOL    XDATA    BYTE      from
      00000005H   SYMBOL    DATA     BYTE      to
      02000012H   SYMBOL    XDATA    BYTE      ev
      0100630CH   LINE      CODE     ---       #294
      01006314H   LINE      CODE     ---       #295
      01006314H   LINE      CODE     ---       #296
      0100631EH   LINE      CODE     ---       #297
      0100633CH   LINE      CODE     ---       #298
      0100633CH   LINE      CODE     ---       #299
      01006342H   LINE      CODE     ---       #300
      01006342H   LINE      CODE     ---       #301
      01006348H   LINE      CODE     ---       #302
      0100634BH   LINE      CODE     ---       #303
      ---         BLOCKEND  ---      ---       LVL=0

      01007DCEH   BLOCK     CODE     ---       LVL=0
      00000007H   SYMBOL    DATA     BYTE      from
      00000005H   SYMBOL    DATA     BYTE      to
      02000011H   SYMBOL    XDATA    BYTE      ev
      01007DCEH   LINE      CODE     ---       #306
      01007DD4H   LINE      CODE     ---       #307
      01007DD4H   LINE      CODE     ---       #308
      01007DE0H   LINE      CODE     ---       #309
      ---         BLOCKEND  ---      ---       LVL=0

      01007DEAH   BLOCK     CODE     ---       LVL=0
      00000007H   SYMBOL    DATA     BYTE      from
      00000005H   SYMBOL    DATA     BYTE      to
      02000011H   SYMBOL    XDATA    BYTE      ev
      01007DEAH   LINE      CODE     ---       #312
      01007DF0H   LINE      CODE     ---       #313
      01007DF0H   LINE      CODE     ---       #314
      01007DFCH   LINE      CODE     ---       #315
      ---         BLOCKEND  ---      ---       LVL=0

      01007E06H   BLOCK     CODE     ---       LVL=0
      00000007H   SYMBOL    DATA     BYTE      from
      00000005H   SYMBOL    DATA     BYTE      to
      02000011H   SYMBOL    XDATA    BYTE      ev
      01007E06H   LINE      CODE     ---       #318
      01007E0CH   LINE      CODE     ---       #319
      01007E0CH   LINE      CODE     ---       #320
      01007E18H   LINE      CODE     ---       #321
      ---         BLOCKEND  ---      ---       LVL=0

      01007E22H   BLOCK     CODE     ---       LVL=0
      00000007H   SYMBOL    DATA     BYTE      from
      00000005H   SYMBOL    DATA     BYTE      to
      02000011H   SYMBOL    XDATA    BYTE      ev
      01007E22H   LINE      CODE     ---       #324
      01007E28H   LINE      CODE     ---       #325
      01007E28H   LINE      CODE     ---       #326
      01007E34H   LINE      CODE     ---       #327
      ---         BLOCKEND  ---      ---       LVL=0

      01007E3EH   BLOCK     CODE     ---       LVL=0
      00000007H   SYMBOL    DATA     BYTE      from
      00000005H   SYMBOL    DATA     BYTE      to
      02000011H   SYMBOL    XDATA    BYTE      ev
LX51 LINKER/LOCATER V4.66.87.0                                                        06/04/2018  21:13:51  PAGE 217


      01007E3EH   LINE      CODE     ---       #330
      01007E44H   LINE      CODE     ---       #331
      01007E44H   LINE      CODE     ---       #332
      01007E50H   LINE      CODE     ---       #333
      ---         BLOCKEND  ---      ---       LVL=0

      01004505H   BLOCK     CODE     ---       LVL=0
      02000011H   SYMBOL    XDATA    BYTE      from
      00000005H   SYMBOL    DATA     BYTE      to
      02000012H   SYMBOL    XDATA    BYTE      ev
      01004505H   LINE      CODE     ---       #336
      0100450EH   LINE      CODE     ---       #337
      0100450EH   LINE      CODE     ---       #338
      0100451AH   LINE      CODE     ---       #341
      01004522H   LINE      CODE     ---       #342
      0100452CH   LINE      CODE     ---       #343
      01004535H   LINE      CODE     ---       #344
      01004538H   LINE      CODE     ---       #345
      0100453AH   LINE      CODE     ---       #346
      01004541H   LINE      CODE     ---       #348
      01004541H   LINE      CODE     ---       #349
      01004541H   LINE      CODE     ---       #350
      01004547H   LINE      CODE     ---       #352
      01004547H   LINE      CODE     ---       #354
      0100454EH   LINE      CODE     ---       #355
      01004554H   LINE      CODE     ---       #356
      0100455AH   LINE      CODE     ---       #358
      0100455AH   LINE      CODE     ---       #360
      01004562H   LINE      CODE     ---       #361
      01004569H   LINE      CODE     ---       #362
      0100456FH   LINE      CODE     ---       #363
      01004575H   LINE      CODE     ---       #364
      01004575H   LINE      CODE     ---       #365
      0100457BH   LINE      CODE     ---       #366
      01004582H   LINE      CODE     ---       #368
      01004582H   LINE      CODE     ---       #370
      01004589H   LINE      CODE     ---       #371
      0100458FH   LINE      CODE     ---       #372
      01004594H   LINE      CODE     ---       #374
      01004594H   LINE      CODE     ---       #375
      ---         BLOCKEND  ---      ---       LVL=0

      ---         MODULE    ---      ---       SM_FUSE_TIMER
      0100B89DH   PUBLIC    CONST    ---       sm_fuse_timer_ss_name
      01007E5AH   PUBLIC    CODE     ---       _sm_fuse_timer_submod4
      0100751EH   PUBLIC    CODE     ---       _sm_fuse_timer_submod3
      010037ABH   PUBLIC    CODE     ---       _sm_fuse_timer_submod2
      01005C38H   PUBLIC    CODE     ---       _sm_fuse_timer_submod1
      01002BB9H   PUBLIC    CODE     ---       _sm_fuse_timer_submod0
      01007C29H   PUBLIC    CODE     ---       _sm_fuse_timer_init
      01006835H   SYMBOL    CODE     ---       _display_timer
      01008962H   SYMBOL    CODE     ---       inc_password
      01006C36H   SYMBOL    CODE     ---       roll_back
      0100336EH   SYMBOL    CODE     ---       _check_and_set
      01006F5CH   SYMBOL    CODE     ---       display_password
      01003FA4H   SYMBOL    CODE     ---       _display_prearm
      01005004H   SYMBOL    CODE     ---       verify_password

      010070D2H   BLOCK     CODE     ---       LVL=0
      ---         BLOCKEND  ---      ---       LVL=0

      0100336EH   BLOCK     CODE     ---       LVL=0
      00000007H   SYMBOL    DATA     BYTE      step
      0100336EH   BLOCK     CODE     NEAR LAB  LVL=1
      02000013H   SYMBOL    XDATA    BYTE      ret
LX51 LINKER/LOCATER V4.66.87.0                                                        06/04/2018  21:13:51  PAGE 218


      02000014H   SYMBOL    XDATA    BYTE      val
      02000015H   SYMBOL    XDATA    BYTE      val1
      ---         BLOCKEND  ---      ---       LVL=1
      0100336EH   LINE      CODE     ---       #64
      0100336EH   LINE      CODE     ---       #65
      0100336EH   LINE      CODE     ---       #66
      01003373H   LINE      CODE     ---       #68
      0100338AH   LINE      CODE     ---       #69
      0100338AH   LINE      CODE     ---       #70
      0100338FH   LINE      CODE     ---       #71
      01003392H   LINE      CODE     ---       #72
      01003392H   LINE      CODE     ---       #73
      01003397H   LINE      CODE     ---       #74
      010033A1H   LINE      CODE     ---       #75
      010033A4H   LINE      CODE     ---       #76
      010033A4H   LINE      CODE     ---       #77
      010033A9H   LINE      CODE     ---       #78
      010033B5H   LINE      CODE     ---       #79
      010033B8H   LINE      CODE     ---       #80
      010033B8H   LINE      CODE     ---       #81
      010033C2H   LINE      CODE     ---       #82
      010033CCH   LINE      CODE     ---       #83
      010033DAH   LINE      CODE     ---       #84
      010033E8H   LINE      CODE     ---       #85
      010033F8H   LINE      CODE     ---       #86
      010033FEH   LINE      CODE     ---       #87
      01003400H   LINE      CODE     ---       #88
      01003400H   LINE      CODE     ---       #89
      01003400H   LINE      CODE     ---       #90
      01003408H   LINE      CODE     ---       #91
      0100340DH   LINE      CODE     ---       #92
      0100340DH   LINE      CODE     ---       #93
      01003415H   LINE      CODE     ---       #94
      0100341AH   LINE      CODE     ---       #95
      0100341AH   LINE      CODE     ---       #96
      0100341AH   LINE      CODE     ---       #97
      0100341CH   LINE      CODE     ---       #98
      0100341CH   LINE      CODE     ---       #99
      0100341FH   LINE      CODE     ---       #100
      01003422H   LINE      CODE     ---       #101
      0100342CH   LINE      CODE     ---       #102
      0100342FH   LINE      CODE     ---       #103
      01003435H   LINE      CODE     ---       #104
      01003437H   LINE      CODE     ---       #105
      0100343EH   LINE      CODE     ---       #106
      01003444H   LINE      CODE     ---       #107
      01003446H   LINE      CODE     ---       #108
      01003446H   LINE      CODE     ---       #109
      01003449H   LINE      CODE     ---       #110
      01003449H   LINE      CODE     ---       #111
      01003449H   LINE      CODE     ---       #112
      01003449H   LINE      CODE     ---       #113
      01003449H   LINE      CODE     ---       #114
      01003449H   LINE      CODE     ---       #115
      01003449H   LINE      CODE     ---       #116
      01003449H   LINE      CODE     ---       #117
      0100344EH   LINE      CODE     ---       #118
      ---         BLOCKEND  ---      ---       LVL=0

      01006C36H   BLOCK     CODE     ---       LVL=0
      00000020H.0 SYMBOL    BIT      BIT       include_fuse
      01006C36H   LINE      CODE     ---       #120
      01006C36H   LINE      CODE     ---       #121
      01006C36H   LINE      CODE     ---       #122
      01006C4BH   LINE      CODE     ---       #124
LX51 LINKER/LOCATER V4.66.87.0                                                        06/04/2018  21:13:51  PAGE 219


      01006C50H   LINE      CODE     ---       #125
      01006C55H   LINE      CODE     ---       #126
      01006C5AH   LINE      CODE     ---       #127
      01006C5FH   LINE      CODE     ---       #128
      01006C62H   LINE      CODE     ---       #129
      01006C65H   LINE      CODE     ---       #130
      01006C6AH   LINE      CODE     ---       #131
      01006C6AH   LINE      CODE     ---       #132
      ---         BLOCKEND  ---      ---       LVL=0

      01003FA4H   BLOCK     CODE     ---       LVL=0
      02000013H   SYMBOL    XDATA    BYTE      step
      02000014H   SYMBOL    XDATA    BYTE      err
      01003FA4H   LINE      CODE     ---       #144
      01003FACH   LINE      CODE     ---       #145
      01003FACH   LINE      CODE     ---       #146
      01003FAFH   LINE      CODE     ---       #148
      01003FD3H   LINE      CODE     ---       #149
      01003FD3H   LINE      CODE     ---       #150
      01003FD5H   LINE      CODE     ---       #151
      01003FD5H   LINE      CODE     ---       #152
      01003FD7H   LINE      CODE     ---       #153
      01003FD7H   LINE      CODE     ---       #154
      01003FDEH   LINE      CODE     ---       #155
      01003FE0H   LINE      CODE     ---       #156
      01003FE2H   LINE      CODE     ---       #157
      01003FE2H   LINE      CODE     ---       #158
      01003FE9H   LINE      CODE     ---       #159
      01003FEAH   LINE      CODE     ---       #160
      01003FECH   LINE      CODE     ---       #161
      01003FECH   LINE      CODE     ---       #162
      01003FF3H   LINE      CODE     ---       #163
      01003FF5H   LINE      CODE     ---       #164
      01003FF7H   LINE      CODE     ---       #165
      01003FF7H   LINE      CODE     ---       #166
      01003FFEH   LINE      CODE     ---       #167
      01004000H   LINE      CODE     ---       #168
      01004002H   LINE      CODE     ---       #169
      01004002H   LINE      CODE     ---       #170
      01004002H   LINE      CODE     ---       #171
      01004002H   LINE      CODE     ---       #172
      0100400FH   LINE      CODE     ---       #173
      0100401FH   LINE      CODE     ---       #174
      0100401FH   LINE      CODE     ---       #175
      01004026H   LINE      CODE     ---       #176
      01004028H   LINE      CODE     ---       #177
      01004030H   LINE      CODE     ---       #178
      0100403DH   LINE      CODE     ---       #179
      ---         BLOCKEND  ---      ---       LVL=0

      01006835H   BLOCK     CODE     ---       LVL=0
      02000012H   SYMBOL    XDATA    BYTE      what
      01006835H   LINE      CODE     ---       #181
      0100683AH   LINE      CODE     ---       #182
      0100683AH   LINE      CODE     ---       #183
      0100683DH   LINE      CODE     ---       #184
      01006844H   LINE      CODE     ---       #185
      0100684BH   LINE      CODE     ---       #186
      01006852H   LINE      CODE     ---       #187
      0100685CH   LINE      CODE     ---       #188
      0100685CH   LINE      CODE     ---       #189
      0100685EH   LINE      CODE     ---       #190
      0100685EH   LINE      CODE     ---       #191
      0100685EH   LINE      CODE     ---       #192
      01006860H   LINE      CODE     ---       #193
LX51 LINKER/LOCATER V4.66.87.0                                                        06/04/2018  21:13:51  PAGE 220


      01006860H   LINE      CODE     ---       #194
      01006867H   LINE      CODE     ---       #195
      0100686CH   LINE      CODE     ---       #196
      01006871H   LINE      CODE     ---       #197
      01006871H   LINE      CODE     ---       #198
      01006871H   LINE      CODE     ---       #199
      ---         BLOCKEND  ---      ---       LVL=0

      01005004H   BLOCK     CODE     ---       LVL=0
      01005004H   BLOCK     CODE     NEAR LAB  LVL=1
      02000013H   SYMBOL    XDATA    BYTE      res
      ---         BLOCKEND  ---      ---       LVL=1
      01005004H   LINE      CODE     ---       #201
      01005004H   LINE      CODE     ---       #202
      01005004H   LINE      CODE     ---       #205
      01005014H   LINE      CODE     ---       #207
      01005030H   LINE      CODE     ---       #209
      01005038H   LINE      CODE     ---       #210
      01005048H   LINE      CODE     ---       #211
      01005057H   LINE      CODE     ---       #212
      01005059H   LINE      CODE     ---       #213
      01005074H   LINE      CODE     ---       #214
      01005074H   LINE      CODE     ---       #216
      ---         BLOCKEND  ---      ---       LVL=0

      01006F5CH   BLOCK     CODE     ---       LVL=0
      01006F5CH   BLOCK     CODE     NEAR LAB  LVL=1
      00000004H   SYMBOL    DATA     BYTE      i
      ---         BLOCKEND  ---      ---       LVL=1
      01006F5CH   LINE      CODE     ---       #218
      01006F5CH   LINE      CODE     ---       #219
      01006F5CH   LINE      CODE     ---       #221
      01006F5FH   LINE      CODE     ---       #222
      01006F61H   LINE      CODE     ---       #223
      01006F6BH   LINE      CODE     ---       #224
      01006F6FH   LINE      CODE     ---       #225
      01006F75H   LINE      CODE     ---       #226
      01006F7DH   LINE      CODE     ---       #227
      01006F7FH   LINE      CODE     ---       #228
      01006F86H   LINE      CODE     ---       #229
      01006F86H   LINE      CODE     ---       #230
      01006F8BH   LINE      CODE     ---       #231
      ---         BLOCKEND  ---      ---       LVL=0

      01008962H   BLOCK     CODE     ---       LVL=0
      01008962H   LINE      CODE     ---       #233
      01008962H   LINE      CODE     ---       #234
      01008962H   LINE      CODE     ---       #235
      0100896FH   LINE      CODE     ---       #236
      ---         BLOCKEND  ---      ---       LVL=0

      01007C29H   BLOCK     CODE     ---       LVL=0
      00000007H   SYMBOL    DATA     BYTE      from
      00000005H   SYMBOL    DATA     BYTE      to
      00000006H   SYMBOL    DATA     BYTE      ev
      01007C29H   LINE      CODE     ---       #238
      01007C2BH   LINE      CODE     ---       #239
      01007C2BH   LINE      CODE     ---       #240
      01007C37H   LINE      CODE     ---       #241
      01007C3EH   LINE      CODE     ---       #242
      01007C43H   LINE      CODE     ---       #243
      01007C45H   LINE      CODE     ---       #244
      ---         BLOCKEND  ---      ---       LVL=0

      01002BB9H   BLOCK     CODE     ---       LVL=0
LX51 LINKER/LOCATER V4.66.87.0                                                        06/04/2018  21:13:51  PAGE 221


      00000007H   SYMBOL    DATA     BYTE      from
      00000005H   SYMBOL    DATA     BYTE      to
      02000011H   SYMBOL    XDATA    BYTE      ev
      01002BBEH   BLOCK     CODE     NEAR LAB  LVL=1
      02000012H   SYMBOL    XDATA    BYTE      err
      ---         BLOCKEND  ---      ---       LVL=1
      01002BB9H   LINE      CODE     ---       #247
      01002BBEH   LINE      CODE     ---       #248
      01002BBEH   LINE      CODE     ---       #250
      01002BC8H   LINE      CODE     ---       #252
      01002BCFH   LINE      CODE     ---       #253
      01002BD2H   LINE      CODE     ---       #254
      01002BD6H   LINE      CODE     ---       #255
      01002BD8H   LINE      CODE     ---       #256
      01002BDDH   LINE      CODE     ---       #258
      01002BDDH   LINE      CODE     ---       #260
      01002BE8H   LINE      CODE     ---       #261
      01002BF2H   LINE      CODE     ---       #262
      01002BFBH   LINE      CODE     ---       #263
      01002C03H   LINE      CODE     ---       #264
      01002C09H   LINE      CODE     ---       #265
      01002C09H   LINE      CODE     ---       #266
      01002C09H   LINE      CODE     ---       #267
      01002C0CH   LINE      CODE     ---       #269
      01002C0CH   LINE      CODE     ---       #270
      01002C12H   LINE      CODE     ---       #271
      01002C13H   LINE      CODE     ---       #272
      01002C19H   LINE      CODE     ---       #273
      01002C1AH   LINE      CODE     ---       #275
      01002C1AH   LINE      CODE     ---       #277
      01002C49H   LINE      CODE     ---       #279
      01002C49H   LINE      CODE     ---       #280
      01002C69H   LINE      CODE     ---       #281
      01002C69H   LINE      CODE     ---       #282
      01002C71H   LINE      CODE     ---       #283
      01002C79H   LINE      CODE     ---       #284
      01002C81H   LINE      CODE     ---       #285
      01002C89H   LINE      CODE     ---       #286
      01002C91H   LINE      CODE     ---       #287
      01002C99H   LINE      CODE     ---       #288
      01002CA1H   LINE      CODE     ---       #289
      01002CA7H   LINE      CODE     ---       #290
      01002CA7H   LINE      CODE     ---       #291
      01002CB4H   LINE      CODE     ---       #292
      01002CB6H   LINE      CODE     ---       #293
      01002CBBH   LINE      CODE     ---       #294
      01002CBEH   LINE      CODE     ---       #296
      01002CBEH   LINE      CODE     ---       #297
      ---         BLOCKEND  ---      ---       LVL=0

      01005C38H   BLOCK     CODE     ---       LVL=0
      02000011H   SYMBOL    XDATA    BYTE      from
      00000005H   SYMBOL    DATA     BYTE      to
      02000012H   SYMBOL    XDATA    BYTE      ev
      01005C38H   LINE      CODE     ---       #300
      01005C40H   LINE      CODE     ---       #301
      01005C40H   LINE      CODE     ---       #302
      01005C4AH   LINE      CODE     ---       #304
      01005C57H   LINE      CODE     ---       #305
      01005C5CH   LINE      CODE     ---       #307
      01005C66H   LINE      CODE     ---       #308
      01005C6BH   LINE      CODE     ---       #309
      01005C6BH   LINE      CODE     ---       #310
      01005C6DH   LINE      CODE     ---       #312
      01005C6DH   LINE      CODE     ---       #314
LX51 LINKER/LOCATER V4.66.87.0                                                        06/04/2018  21:13:51  PAGE 222


      01005C74H   LINE      CODE     ---       #315
      01005C77H   LINE      CODE     ---       #317
      01005C77H   LINE      CODE     ---       #319
      01005C7EH   LINE      CODE     ---       #320
      01005C81H   LINE      CODE     ---       #321
      01005C84H   LINE      CODE     ---       #323
      01005C84H   LINE      CODE     ---       #325
      01005C8BH   LINE      CODE     ---       #326
      01005C8EH   LINE      CODE     ---       #328
      01005C8EH   LINE      CODE     ---       #329
      ---         BLOCKEND  ---      ---       LVL=0

      010037ABH   BLOCK     CODE     ---       LVL=0
      02000011H   SYMBOL    XDATA    BYTE      from
      00000005H   SYMBOL    DATA     BYTE      to
      02000012H   SYMBOL    XDATA    BYTE      ev
      010037ABH   LINE      CODE     ---       #332
      010037B4H   LINE      CODE     ---       #333
      010037B4H   LINE      CODE     ---       #334
      010037C0H   LINE      CODE     ---       #335
      010037CBH   LINE      CODE     ---       #337
      010037D5H   LINE      CODE     ---       #338
      010037DBH   LINE      CODE     ---       #339
      010037E0H   LINE      CODE     ---       #340
      010037E7H   LINE      CODE     ---       #341
      010037ECH   LINE      CODE     ---       #342
      010037ECH   LINE      CODE     ---       #343
      010037F8H   LINE      CODE     ---       #345
      01003801H   LINE      CODE     ---       #346
      01003804H   LINE      CODE     ---       #347
      01003809H   LINE      CODE     ---       #348
      0100380FH   LINE      CODE     ---       #349
      01003812H   LINE      CODE     ---       #350
      01003812H   LINE      CODE     ---       #354
      01003815H   LINE      CODE     ---       #355
      0100381FH   LINE      CODE     ---       #356
      01003828H   LINE      CODE     ---       #357
      0100382BH   LINE      CODE     ---       #358
      01003836H   LINE      CODE     ---       #359
      0100383FH   LINE      CODE     ---       #360
      01003845H   LINE      CODE     ---       #361
      01003846H   LINE      CODE     ---       #362
      0100384DH   LINE      CODE     ---       #363
      0100385DH   LINE      CODE     ---       #364
      01003863H   LINE      CODE     ---       #365
      01003863H   LINE      CODE     ---       #366
      01003863H   LINE      CODE     ---       #367
      01003864H   LINE      CODE     ---       #369
      01003864H   LINE      CODE     ---       #371
      0100386BH   LINE      CODE     ---       #372
      0100386EH   LINE      CODE     ---       #373
      01003871H   LINE      CODE     ---       #375
      01003871H   LINE      CODE     ---       #377
      01003871H   LINE      CODE     ---       #380
      01003871H   LINE      CODE     ---       #381
      ---         BLOCKEND  ---      ---       LVL=0

      0100751EH   BLOCK     CODE     ---       LVL=0
      00000007H   SYMBOL    DATA     BYTE      from
      00000005H   SYMBOL    DATA     BYTE      to
      02000011H   SYMBOL    XDATA    BYTE      ev
      0100751EH   LINE      CODE     ---       #384
      01007524H   LINE      CODE     ---       #385
      01007524H   LINE      CODE     ---       #386
      01007530H   LINE      CODE     ---       #388
LX51 LINKER/LOCATER V4.66.87.0                                                        06/04/2018  21:13:51  PAGE 223


      01007537H   LINE      CODE     ---       #389
      0100753CH   LINE      CODE     ---       #390
      0100753FH   LINE      CODE     ---       #391
      01007544H   LINE      CODE     ---       #393
      01007544H   LINE      CODE     ---       #395
      ---         BLOCKEND  ---      ---       LVL=0

      01007E5AH   BLOCK     CODE     ---       LVL=0
      00000007H   SYMBOL    DATA     BYTE      from
      00000005H   SYMBOL    DATA     BYTE      to
      00000006H   SYMBOL    DATA     BYTE      ev
      01007E5AH   LINE      CODE     ---       #398
      01007E5CH   LINE      CODE     ---       #399
      01007E5CH   LINE      CODE     ---       #400
      01007E68H   LINE      CODE     ---       #401
      01007E6DH   LINE      CODE     ---       #402
      01007E72H   LINE      CODE     ---       #403
      01007E75H   LINE      CODE     ---       #404
      ---         BLOCKEND  ---      ---       LVL=0

      ---         MODULE    ---      ---       SM_FUSE_DETONATE
      0100D0D8H   PUBLIC    CONST    ---       sm_fuse_detonate_ss_name
      010056EAH   PUBLIC    CODE     ---       _sm_fuse_detonate_submod0
      0100889BH   PUBLIC    CODE     ---       _sm_fuse_detonate_init
      010082BDH   SYMBOL    CODE     ---       display_detonate

      01008970H   BLOCK     CODE     ---       LVL=0
      ---         BLOCKEND  ---      ---       LVL=0

      010082BDH   BLOCK     CODE     ---       LVL=0
      010082BDH   BLOCK     CODE     NEAR LAB  LVL=1
      00000004H   SYMBOL    DATA     BYTE      i
      ---         BLOCKEND  ---      ---       LVL=1
      010082BDH   LINE      CODE     ---       #17
      010082BDH   LINE      CODE     ---       #18
      010082BDH   LINE      CODE     ---       #20
      010082C0H   LINE      CODE     ---       #21
      010082C2H   LINE      CODE     ---       #22
      010082C9H   LINE      CODE     ---       #23
      010082CEH   LINE      CODE     ---       #24
      010082D3H   LINE      CODE     ---       #25
      ---         BLOCKEND  ---      ---       LVL=0

      0100889BH   BLOCK     CODE     ---       LVL=0
      00000007H   SYMBOL    DATA     BYTE      from
      00000005H   SYMBOL    DATA     BYTE      to
      00000006H   SYMBOL    DATA     BYTE      ev
      0100889BH   LINE      CODE     ---       #27
      0100889DH   LINE      CODE     ---       #28
      0100889DH   LINE      CODE     ---       #29
      010088A7H   LINE      CODE     ---       #30
      ---         BLOCKEND  ---      ---       LVL=0

      010056EAH   BLOCK     CODE     ---       LVL=0
      00000007H   SYMBOL    DATA     BYTE      from
      00000005H   SYMBOL    DATA     BYTE      to
      02000011H   SYMBOL    XDATA    BYTE      ev
      010056EAH   LINE      CODE     ---       #34
      010056F0H   LINE      CODE     ---       #35
      010056F0H   LINE      CODE     ---       #36
      010056FAH   LINE      CODE     ---       #38
      01005700H   LINE      CODE     ---       #39
      01005705H   LINE      CODE     ---       #40
      0100570BH   LINE      CODE     ---       #42
      0100570BH   LINE      CODE     ---       #44
LX51 LINKER/LOCATER V4.66.87.0                                                        06/04/2018  21:13:51  PAGE 224


      0100571EH   LINE      CODE     ---       #45
      01005728H   LINE      CODE     ---       #46
      0100572DH   LINE      CODE     ---       #48
      01005730H   LINE      CODE     ---       #49
      01005739H   LINE      CODE     ---       #50
      0100573EH   LINE      CODE     ---       #51
      01005743H   LINE      CODE     ---       #52
      01005749H   LINE      CODE     ---       #53
      01005749H   LINE      CODE     ---       #55
      01005749H   LINE      CODE     ---       #56
      ---         BLOCKEND  ---      ---       LVL=0

      ---         MODULE    ---      ---       SM_FUSE_POWERSAVE
      0100CE24H   PUBLIC    CONST    ---       sm_fuse_powersave_ss_name
      01008576H   PUBLIC    CODE     ---       _sm_fuse_powersave_submod1
      01007AC8H   PUBLIC    CODE     ---       _sm_fuse_powersave_submod0
      01008B30H   PUBLIC    CODE     ---       _sm_fuse_powersave_init
      010082D4H   SYMBOL    CODE     ---       roll_back

      010087D7H   BLOCK     CODE     ---       LVL=0
      ---         BLOCKEND  ---      ---       LVL=0

      010082D4H   BLOCK     CODE     ---       LVL=0
      010082D4H   LINE      CODE     ---       #18
      010082D4H   LINE      CODE     ---       #19
      010082D4H   LINE      CODE     ---       #20
      010082D9H   LINE      CODE     ---       #21
      010082DEH   LINE      CODE     ---       #22
      010082E3H   LINE      CODE     ---       #23
      010082E8H   LINE      CODE     ---       #24
      ---         BLOCKEND  ---      ---       LVL=0

      01008B30H   BLOCK     CODE     ---       LVL=0
      00000007H   SYMBOL    DATA     BYTE      from
      00000005H   SYMBOL    DATA     BYTE      to
      00000006H   SYMBOL    DATA     BYTE      ev
      01008B30H   LINE      CODE     ---       #27
      01008B30H   LINE      CODE     ---       #28
      01008B30H   LINE      CODE     ---       #29
      ---         BLOCKEND  ---      ---       LVL=0

      01007AC8H   BLOCK     CODE     ---       LVL=0
      00000007H   SYMBOL    DATA     BYTE      from
      00000005H   SYMBOL    DATA     BYTE      to
      02000011H   SYMBOL    XDATA    BYTE      ev
      01007AC8H   LINE      CODE     ---       #32
      01007ACEH   LINE      CODE     ---       #33
      01007ACEH   LINE      CODE     ---       #34
      01007ADAH   LINE      CODE     ---       #35
      01007AE0H   LINE      CODE     ---       #37
      01007AE3H   LINE      CODE     ---       #38
      01007AE6H   LINE      CODE     ---       #40
      01007AE6H   LINE      CODE     ---       #41
      ---         BLOCKEND  ---      ---       LVL=0

      01008576H   BLOCK     CODE     ---       LVL=0
      00000007H   SYMBOL    DATA     BYTE      from
      00000005H   SYMBOL    DATA     BYTE      to
      00000006H   SYMBOL    DATA     BYTE      ev
      01008576H   LINE      CODE     ---       #43
      01008576H   LINE      CODE     ---       #44
      01008576H   LINE      CODE     ---       #45
      01008580H   LINE      CODE     ---       #46
      01008583H   LINE      CODE     ---       #47
      01008589H   LINE      CODE     ---       #48
LX51 LINKER/LOCATER V4.66.87.0                                                        06/04/2018  21:13:51  PAGE 225


      ---         BLOCKEND  ---      ---       LVL=0

      ---         MODULE    ---      ---       SM_GLOBAL_FLAG_MOD
      0100C6F3H   PUBLIC    CONST    ---       sm_global_flag_mod_ss_name
      01007E92H   PUBLIC    CODE     ---       _sm_global_flag_mod_submod3
      01007E76H   PUBLIC    CODE     ---       _sm_global_flag_mod_submod2
      0100809DH   PUBLIC    CODE     ---       _sm_global_flag_mod_submod1
      01008084H   PUBLIC    CODE     ---       _sm_global_flag_mod_submod0
      010081BEH   PUBLIC    CODE     ---       _sm_global_flag_mod_init
      01005075H   SYMBOL    CODE     ---       _inc_write
      01002CBFH   SYMBOL    CODE     ---       _display_global_flag
      010073B6H   SYMBOL    CODE     ---       _sm_global_flag_mod

      01008006H   BLOCK     CODE     ---       LVL=0
      ---         BLOCKEND  ---      ---       LVL=0

      01002CBFH   BLOCK     CODE     ---       LVL=0
      02000014H   SYMBOL    XDATA    BYTE      what
      01002CBFH   LINE      CODE     ---       #22
      01002CC4H   LINE      CODE     ---       #23
      01002CC4H   LINE      CODE     ---       #25
      01002CC7H   LINE      CODE     ---       #27
      01002CD8H   LINE      CODE     ---       #29
      01002CF0H   LINE      CODE     ---       #30
      01002CF0H   LINE      CODE     ---       #31
      01002CF2H   LINE      CODE     ---       #32
      01002CF5H   LINE      CODE     ---       #33
      01002CFBH   LINE      CODE     ---       #34
      01002CFBH   LINE      CODE     ---       #35
      01002CFEH   LINE      CODE     ---       #36
      01002CFEH   LINE      CODE     ---       #37
      01002D01H   LINE      CODE     ---       #38
      01002D07H   LINE      CODE     ---       #39
      01002D0DH   LINE      CODE     ---       #40
      01002D0DH   LINE      CODE     ---       #41
      01002D10H   LINE      CODE     ---       #42
      01002D10H   LINE      CODE     ---       #43
      01002D17H   LINE      CODE     ---       #44
      01002D1EH   LINE      CODE     ---       #45
      01002D25H   LINE      CODE     ---       #46
      01002D2AH   LINE      CODE     ---       #47
      01002D31H   LINE      CODE     ---       #48
      01002D38H   LINE      CODE     ---       #49
      01002D39H   LINE      CODE     ---       #50
      01002D3BH   LINE      CODE     ---       #51
      01002D3BH   LINE      CODE     ---       #52
      01002D3EH   LINE      CODE     ---       #53
      01002D3EH   LINE      CODE     ---       #54
      01002D3EH   LINE      CODE     ---       #55
      01002D40H   LINE      CODE     ---       #56
      01002D40H   LINE      CODE     ---       #57
      01002D47H   LINE      CODE     ---       #58
      01002D4EH   LINE      CODE     ---       #59
      01002D55H   LINE      CODE     ---       #60
      01002D5CH   LINE      CODE     ---       #61
      01002D62H   LINE      CODE     ---       #62
      01002D68H   LINE      CODE     ---       #63
      01002D6AH   LINE      CODE     ---       #64
      01002D6AH   LINE      CODE     ---       #65
      01002D6CH   LINE      CODE     ---       #66
      01002D6FH   LINE      CODE     ---       #67
      01002D76H   LINE      CODE     ---       #68
      01002D7EH   LINE      CODE     ---       #69
      01002D85H   LINE      CODE     ---       #70
      01002D87H   LINE      CODE     ---       #71
LX51 LINKER/LOCATER V4.66.87.0                                                        06/04/2018  21:13:51  PAGE 226


      01002D89H   LINE      CODE     ---       #72
      01002D90H   LINE      CODE     ---       #73
      01002D96H   LINE      CODE     ---       #74
      01002D96H   LINE      CODE     ---       #75
      01002D96H   LINE      CODE     ---       #76
      01002D96H   LINE      CODE     ---       #77
      ---         BLOCKEND  ---      ---       LVL=0

      01005075H   BLOCK     CODE     ---       LVL=0
      00000007H   SYMBOL    DATA     BYTE      what
      01005075H   BLOCK     CODE     NEAR LAB  LVL=1
      00000020H.0 SYMBOL    BIT      BIT       is12
      ---         BLOCKEND  ---      ---       LVL=1
      01005075H   LINE      CODE     ---       #79
      01005075H   LINE      CODE     ---       #80
      01005075H   LINE      CODE     ---       #82
      01005084H   LINE      CODE     ---       #83
      01005084H   LINE      CODE     ---       #84
      01005087H   LINE      CODE     ---       #85
      0100508EH   LINE      CODE     ---       #86
      01005090H   LINE      CODE     ---       #87
      01005090H   LINE      CODE     ---       #88
      01005099H   LINE      CODE     ---       #89
      010050A4H   LINE      CODE     ---       #90
      010050A6H   LINE      CODE     ---       #91
      010050A6H   LINE      CODE     ---       #92
      010050A9H   LINE      CODE     ---       #93
      010050B0H   LINE      CODE     ---       #94
      010050B2H   LINE      CODE     ---       #95
      010050B2H   LINE      CODE     ---       #96
      010050BCH   LINE      CODE     ---       #97
      010050C4H   LINE      CODE     ---       #98
      010050C9H   LINE      CODE     ---       #99
      010050D1H   LINE      CODE     ---       #100
      010050D9H   LINE      CODE     ---       #101
      010050E5H   LINE      CODE     ---       #102
      010050E5H   LINE      CODE     ---       #103
      010050E5H   LINE      CODE     ---       #104
      ---         BLOCKEND  ---      ---       LVL=0

      010081BEH   BLOCK     CODE     ---       LVL=0
      00000007H   SYMBOL    DATA     BYTE      from
      00000005H   SYMBOL    DATA     BYTE      to
      00000006H   SYMBOL    DATA     BYTE      ev
      010081BEH   LINE      CODE     ---       #106
      010081C0H   LINE      CODE     ---       #107
      010081C0H   LINE      CODE     ---       #108
      010081CCH   LINE      CODE     ---       #109
      010081CFH   LINE      CODE     ---       #110
      ---         BLOCKEND  ---      ---       LVL=0

      010073B6H   BLOCK     CODE     ---       LVL=0
      02000012H   SYMBOL    XDATA    BYTE      what
      02000013H   SYMBOL    XDATA    BYTE      ev
      010073B6H   LINE      CODE     ---       #113
      010073BEH   LINE      CODE     ---       #114
      010073BEH   LINE      CODE     ---       #115
      010073C6H   LINE      CODE     ---       #116
      010073C8H   LINE      CODE     ---       #118
      010073C8H   LINE      CODE     ---       #120
      010073CFH   LINE      CODE     ---       #121
      010073D7H   LINE      CODE     ---       #122
      010073DFH   LINE      CODE     ---       #124
      010073DFH   LINE      CODE     ---       #125
      ---         BLOCKEND  ---      ---       LVL=0
LX51 LINKER/LOCATER V4.66.87.0                                                        06/04/2018  21:13:51  PAGE 227



      01008084H   BLOCK     CODE     ---       LVL=0
      00000007H   SYMBOL    DATA     BYTE      from
      00000005H   SYMBOL    DATA     BYTE      to
      02000011H   SYMBOL    XDATA    BYTE      ev
      01008084H   LINE      CODE     ---       #127
      01008089H   LINE      CODE     ---       #128
      01008089H   LINE      CODE     ---       #129
      01008093H   LINE      CODE     ---       #130
      ---         BLOCKEND  ---      ---       LVL=0

      0100809DH   BLOCK     CODE     ---       LVL=0
      00000007H   SYMBOL    DATA     BYTE      from
      00000005H   SYMBOL    DATA     BYTE      to
      02000011H   SYMBOL    XDATA    BYTE      ev
      0100809DH   LINE      CODE     ---       #133
      010080A2H   LINE      CODE     ---       #134
      010080A2H   LINE      CODE     ---       #135
      010080ACH   LINE      CODE     ---       #136
      ---         BLOCKEND  ---      ---       LVL=0

      01007E76H   BLOCK     CODE     ---       LVL=0
      00000007H   SYMBOL    DATA     BYTE      from
      00000005H   SYMBOL    DATA     BYTE      to
      02000011H   SYMBOL    XDATA    BYTE      ev
      01007E76H   LINE      CODE     ---       #139
      01007E7CH   LINE      CODE     ---       #140
      01007E7CH   LINE      CODE     ---       #141
      01007E88H   LINE      CODE     ---       #142
      ---         BLOCKEND  ---      ---       LVL=0

      01007E92H   BLOCK     CODE     ---       LVL=0
      00000007H   SYMBOL    DATA     BYTE      from
      00000005H   SYMBOL    DATA     BYTE      to
      02000011H   SYMBOL    XDATA    BYTE      ev
      01007E92H   LINE      CODE     ---       #145
      01007E98H   LINE      CODE     ---       #146
      01007E98H   LINE      CODE     ---       #147
      01007EA4H   LINE      CODE     ---       #148
      ---         BLOCKEND  ---      ---       LVL=0

      ---         MODULE    ---      ---       CMD_HELP
      01005D39H   PUBLIC    CODE     ---       _cmd_help

      0100858AH   BLOCK     CODE     ---       LVL=0
      ---         BLOCKEND  ---      ---       LVL=0

      01005D39H   BLOCK     CODE     ---       LVL=0
      02000008H   SYMBOL    XDATA    CHAR      arg1
      02000009H   SYMBOL    XDATA    CHAR      arg2
      01005D3EH   BLOCK     CODE     NEAR LAB  LVL=1
      00000007H   SYMBOL    DATA     CHAR      i
      ---         BLOCKEND  ---      ---       LVL=1
      01005D39H   LINE      CODE     ---       #6
      01005D3EH   LINE      CODE     ---       #7
      01005D3EH   LINE      CODE     ---       #10
      01005D3EH   LINE      CODE     ---       #12
      01005D40H   LINE      CODE     ---       #13
      01005D43H   LINE      CODE     ---       #14
      01005D45H   LINE      CODE     ---       #15
      01005D4BH   LINE      CODE     ---       #16
      01005D4FH   LINE      CODE     ---       #17
      01005D76H   LINE      CODE     ---       #18
      01005D78H   LINE      CODE     ---       #19
      01005D8AH   LINE      CODE     ---       #20
LX51 LINKER/LOCATER V4.66.87.0                                                        06/04/2018  21:13:51  PAGE 228


      01005D8AH   LINE      CODE     ---       #21
      01005D8AH   LINE      CODE     ---       #22
      01005D8CH   LINE      CODE     ---       #23
      ---         BLOCKEND  ---      ---       LVL=0

      ---         MODULE    ---      ---       CMD_SERIAL
      01003EFEH   PUBLIC    CODE     ---       _cmd_serial

      01008AADH   BLOCK     CODE     ---       LVL=0
      ---         BLOCKEND  ---      ---       LVL=0

      01003EFEH   BLOCK     CODE     ---       LVL=0
      02000008H   SYMBOL    XDATA    CHAR      arg1
      02000009H   SYMBOL    XDATA    CHAR      arg2
      01003F08H   BLOCK     CODE     NEAR LAB  LVL=1
      0200000AH   SYMBOL    XDATA    CHAR      index
      0200000BH   SYMBOL    XDATA    CHAR      val
      ---         BLOCKEND  ---      ---       LVL=1
      01003EFEH   LINE      CODE     ---       #8
      01003F08H   LINE      CODE     ---       #9
      01003F08H   LINE      CODE     ---       #12
      01003F0AH   LINE      CODE     ---       #13
      01003F0DH   LINE      CODE     ---       #14
      01003F0FH   LINE      CODE     ---       #15
      01003F1AH   LINE      CODE     ---       #16
      01003F20H   LINE      CODE     ---       #17
      01003F3BH   LINE      CODE     ---       #18
      01003F3DH   LINE      CODE     ---       #19
      01003F50H   LINE      CODE     ---       #20
      01003F7CH   LINE      CODE     ---       #21
      01003F8AH   LINE      CODE     ---       #22
      01003F8DH   LINE      CODE     ---       #23
      01003F8DH   LINE      CODE     ---       #24
      01003F8DH   LINE      CODE     ---       #25
      01003F8FH   LINE      CODE     ---       #26
      ---         BLOCKEND  ---      ---       LVL=0

      ---         MODULE    ---      ---       CMD_INT
      01006A7DH   PUBLIC    CODE     ---       _cmd_int

      01006A7DH   BLOCK     CODE     ---       LVL=0
      02000008H   SYMBOL    XDATA    CHAR      arg1
      02000009H   SYMBOL    XDATA    CHAR      arg2
      01006A82H   BLOCK     CODE     NEAR LAB  LVL=1
      00000006H   SYMBOL    DATA     WORD      status
      ---         BLOCKEND  ---      ---       LVL=1
      01006A7DH   LINE      CODE     ---       #7
      01006A82H   LINE      CODE     ---       #8
      01006A82H   LINE      CODE     ---       #11
      01006A82H   LINE      CODE     ---       #13
      01006A84H   LINE      CODE     ---       #14
      01006A87H   LINE      CODE     ---       #15
      01006AA8H   LINE      CODE     ---       #16
      01006AABH   LINE      CODE     ---       #17
      01006AAEH   LINE      CODE     ---       #18
      01006AB0H   LINE      CODE     ---       #19
      01006AB3H   LINE      CODE     ---       #20
      01006AB3H   LINE      CODE     ---       #22
      01006AB5H   LINE      CODE     ---       #23
      ---         BLOCKEND  ---      ---       LVL=0

      ---         MODULE    ---      ---       CMD_I2C
      01006DA2H   PUBLIC    CODE     ---       _cmd_i2c
      01003937H   SYMBOL    CODE     ---       _i2c_write
      020000E9H   SYMBOL    XDATA    BYTE      write_addr
LX51 LINKER/LOCATER V4.66.87.0                                                        06/04/2018  21:13:51  PAGE 229


      010047C5H   SYMBOL    CODE     ---       _i2c_read

      0100794BH   BLOCK     CODE     ---       LVL=0
      ---         BLOCKEND  ---      ---       LVL=0

      010047C5H   BLOCK     CODE     ---       LVL=0
      00000007H   SYMBOL    DATA     CHAR      arg1
      0200000AH   SYMBOL    XDATA    CHAR      arg2
      010047CAH   BLOCK     CODE     NEAR LAB  LVL=1
      0200000BH   SYMBOL    XDATA    BYTE      addr
      0200000CH   SYMBOL    XDATA    BYTE      cmd
      0200000DH   SYMBOL    XDATA    BYTE      val
      00000020H.0 SYMBOL    BIT      BIT       ret
      ---         BLOCKEND  ---      ---       LVL=1
      010047C5H   LINE      CODE     ---       #10
      010047CAH   LINE      CODE     ---       #11
      010047CAH   LINE      CODE     ---       #15
      010047D0H   LINE      CODE     ---       #16
      010047D3H   LINE      CODE     ---       #18
      010047DFH   LINE      CODE     ---       #19
      010047EDH   LINE      CODE     ---       #21
      010047FCH   LINE      CODE     ---       #22
      010047FFH   LINE      CODE     ---       #24
      01004802H   LINE      CODE     ---       #25
      01004815H   LINE      CODE     ---       #27
      0100484BH   LINE      CODE     ---       #29
      0100484DH   LINE      CODE     ---       #30
      ---         BLOCKEND  ---      ---       LVL=0

      01003937H   BLOCK     CODE     ---       LVL=0
      0200000AH   SYMBOL    XDATA    CHAR      arg1
      0200000BH   SYMBOL    XDATA    CHAR      arg2
      01003941H   BLOCK     CODE     NEAR LAB  LVL=1
      0200000CH   SYMBOL    XDATA    BYTE      addr
      0200000DH   SYMBOL    XDATA    BYTE      cmd
      0200000EH   SYMBOL    XDATA    BYTE      val
      00000020H.0 SYMBOL    BIT      BIT       ret
      ---         BLOCKEND  ---      ---       LVL=1
      01003937H   LINE      CODE     ---       #32
      01003941H   LINE      CODE     ---       #33
      01003941H   LINE      CODE     ---       #37
      01003943H   LINE      CODE     ---       #38
      01003946H   LINE      CODE     ---       #41
      0100394CH   LINE      CODE     ---       #42
      01003957H   LINE      CODE     ---       #43
      0100395CH   LINE      CODE     ---       #44
      0100395FH   LINE      CODE     ---       #45
      0100395FH   LINE      CODE     ---       #46
      01003978H   LINE      CODE     ---       #47
      01003980H   LINE      CODE     ---       #48
      01003983H   LINE      CODE     ---       #49
      01003983H   LINE      CODE     ---       #50
      01003983H   LINE      CODE     ---       #53
      0100398EH   LINE      CODE     ---       #54
      0100399CH   LINE      CODE     ---       #56
      010039ABH   LINE      CODE     ---       #57
      010039AEH   LINE      CODE     ---       #59
      010039B1H   LINE      CODE     ---       #60
      010039C3H   LINE      CODE     ---       #61
      010039F9H   LINE      CODE     ---       #63
      010039FBH   LINE      CODE     ---       #64
      ---         BLOCKEND  ---      ---       LVL=0

      01006DA2H   BLOCK     CODE     ---       LVL=0
      02000008H   SYMBOL    XDATA    CHAR      arg1
LX51 LINKER/LOCATER V4.66.87.0                                                        06/04/2018  21:13:51  PAGE 230


      02000009H   SYMBOL    XDATA    CHAR      arg2
      01006DA2H   LINE      CODE     ---       #66
      01006DAAH   LINE      CODE     ---       #67
      01006DAAH   LINE      CODE     ---       #68
      01006DB3H   LINE      CODE     ---       #69
      01006DBEH   LINE      CODE     ---       #70
      01006DC7H   LINE      CODE     ---       #71
      01006DD2H   LINE      CODE     ---       #72
      01006DD2H   LINE      CODE     ---       #73
      01006DD4H   LINE      CODE     ---       #74
      ---         BLOCKEND  ---      ---       LVL=0

      ---         MODULE    ---      ---       CMD_DBG
      010063E4H   PUBLIC    CODE     ---       _cmd_dbg

      010081D6H   BLOCK     CODE     ---       LVL=0
      ---         BLOCKEND  ---      ---       LVL=0

      010063E4H   BLOCK     CODE     ---       LVL=0
      02000008H   SYMBOL    XDATA    CHAR      arg1
      02000009H   SYMBOL    XDATA    CHAR      arg2
      010063E4H   LINE      CODE     ---       #8
      010063E9H   LINE      CODE     ---       #9
      010063E9H   LINE      CODE     ---       #11
      010063E9H   LINE      CODE     ---       #13
      010063EBH   LINE      CODE     ---       #14
      010063EEH   LINE      CODE     ---       #16
      010063FBH   LINE      CODE     ---       #17
      01006404H   LINE      CODE     ---       #18
      01006406H   LINE      CODE     ---       #19
      01006415H   LINE      CODE     ---       #20
      0100641EH   LINE      CODE     ---       #21
      01006423H   LINE      CODE     ---       #22
      01006425H   LINE      CODE     ---       #23
      01006428H   LINE      CODE     ---       #24
      01006428H   LINE      CODE     ---       #26
      0100642AH   LINE      CODE     ---       #27
      ---         BLOCKEND  ---      ---       LVL=0

      ---         MODULE    ---      ---       CMD_REBOOT
      010064B5H   PUBLIC    CODE     ---       _cmd_reboot
      00000080H   SFRSYM    DATA     BYTE      P0
      00000090H   SFRSYM    DATA     BYTE      P1
      000000A0H   SFRSYM    DATA     BYTE      P2
      000000B0H   SFRSYM    DATA     BYTE      P3
      000000C0H   SFRSYM    DATA     BYTE      XICON
      000000B0H.4 SFRSYM    DATA     BIT       T0
      000000D0H.6 SFRSYM    DATA     BIT       AC
      000000E8H   SFRSYM    DATA     BYTE      P4
      000000B0H.5 SFRSYM    DATA     BIT       T1
      000000E6H   SFRSYM    DATA     BYTE      ISP_TRIG
      00000090H.0 SFRSYM    DATA     BIT       T2
      000000A8H.7 SFRSYM    DATA     BIT       EA
      000000A8H.6 SFRSYM    DATA     BIT       EC
      00000098H.7 SFRSYM    DATA     BIT       FE
      000000A8H   SFRSYM    DATA     BYTE      IE
      000000C8H.6 SFRSYM    DATA     BIT       EXF2
      000000B0H.7 SFRSYM    DATA     BIT       RD
      000000A8H.4 SFRSYM    DATA     BIT       ES
      000000B8H   SFRSYM    DATA     BYTE      IP
      00000098H.0 SFRSYM    DATA     BIT       RI
      000000B0H.2 SFRSYM    DATA     BIT       INT0
      000000D0H.7 SFRSYM    DATA     BIT       CY
      00000098H.1 SFRSYM    DATA     BIT       TI
      000000B0H.3 SFRSYM    DATA     BIT       INT1
LX51 LINKER/LOCATER V4.66.87.0                                                        06/04/2018  21:13:51  PAGE 231


      000000CBH   SFRSYM    DATA     BYTE      RCAP2H
      000000E5H   SFRSYM    DATA     BYTE      ISP_CMD
      000000B8H.4 SFRSYM    DATA     BIT       PS
      00000081H   SFRSYM    DATA     BYTE      SP
      00000090H.1 SFRSYM    DATA     BIT       T2EX
      000000D0H.2 SFRSYM    DATA     BIT       OV
      000000CAH   SFRSYM    DATA     BYTE      RCAP2L
      000000C8H.1 SFRSYM    DATA     BIT       C_T2
      000000B0H.6 SFRSYM    DATA     BIT       WR
      000000C8H.5 SFRSYM    DATA     BIT       RCLK
      000000C8H.4 SFRSYM    DATA     BIT       TCLK
      00000080H.0 SFRSYM    DATA     BIT       P00
      00000099H   SFRSYM    DATA     BYTE      SBUF
      00000087H   SFRSYM    DATA     BYTE      PCON
      00000090H.0 SFRSYM    DATA     BIT       P10
      00000080H.1 SFRSYM    DATA     BIT       P01
      000000A0H.0 SFRSYM    DATA     BIT       P20
      00000090H.1 SFRSYM    DATA     BIT       P11
      00000080H.2 SFRSYM    DATA     BIT       P02
      000000E3H   SFRSYM    DATA     BYTE      ISP_ADDRH
      000000B0H.0 SFRSYM    DATA     BIT       P30
      000000A0H.1 SFRSYM    DATA     BIT       P21
      00000090H.2 SFRSYM    DATA     BIT       P12
      00000080H.3 SFRSYM    DATA     BIT       P03
      00000098H   SFRSYM    DATA     BYTE      SCON
      000000B0H.1 SFRSYM    DATA     BIT       P31
      000000A0H.2 SFRSYM    DATA     BIT       P22
      00000090H.3 SFRSYM    DATA     BIT       P13
      00000080H.4 SFRSYM    DATA     BIT       P04
      000000E8H.0 SFRSYM    DATA     BIT       P40
      00000089H   SFRSYM    DATA     BYTE      TMOD
      00000088H   SFRSYM    DATA     BYTE      TCON
      000000B0H.2 SFRSYM    DATA     BIT       P32
      000000A0H.3 SFRSYM    DATA     BIT       P23
      00000090H.4 SFRSYM    DATA     BIT       P14
      00000080H.5 SFRSYM    DATA     BIT       P05
      000000E8H.1 SFRSYM    DATA     BIT       P41
      000000B0H.3 SFRSYM    DATA     BIT       P33
      000000A0H.4 SFRSYM    DATA     BIT       P24
      00000090H.5 SFRSYM    DATA     BIT       P15
      00000080H.6 SFRSYM    DATA     BIT       P06
      000000E4H   SFRSYM    DATA     BYTE      ISP_ADDRL
      000000E8H.2 SFRSYM    DATA     BIT       P42
      000000B0H.4 SFRSYM    DATA     BIT       P34
      000000A0H.5 SFRSYM    DATA     BIT       P25
      00000090H.6 SFRSYM    DATA     BIT       P16
      00000080H.7 SFRSYM    DATA     BIT       P07
      000000E8H.3 SFRSYM    DATA     BIT       P43
      000000B0H.5 SFRSYM    DATA     BIT       P35
      000000A0H.6 SFRSYM    DATA     BIT       P26
      00000090H.7 SFRSYM    DATA     BIT       P17
      000000E8H.4 SFRSYM    DATA     BIT       P44
      000000B0H.6 SFRSYM    DATA     BIT       P36
      000000A0H.7 SFRSYM    DATA     BIT       P27
      000000E8H.5 SFRSYM    DATA     BIT       P45
      000000B0H.7 SFRSYM    DATA     BIT       P37
      000000E8H.6 SFRSYM    DATA     BIT       P46
      00000088H.1 SFRSYM    DATA     BIT       IE0
      00000088H.3 SFRSYM    DATA     BIT       IE1
      0000008EH   SFRSYM    DATA     BYTE      AUXR
      000000F0H   SFRSYM    DATA     BYTE      B
      000000C8H.0 SFRSYM    DATA     BIT       CP_RL2
      000000E0H   SFRSYM    DATA     BYTE      ACC
      000000A8H.1 SFRSYM    DATA     BIT       ET0
      000000A8H.3 SFRSYM    DATA     BIT       ET1
LX51 LINKER/LOCATER V4.66.87.0                                                        06/04/2018  21:13:51  PAGE 232


      00000088H.5 SFRSYM    DATA     BIT       TF0
      000000A8H.5 SFRSYM    DATA     BIT       ET2
      00000088H.7 SFRSYM    DATA     BIT       TF1
      000000C8H.7 SFRSYM    DATA     BIT       TF2
      00000098H.2 SFRSYM    DATA     BIT       RB8
      0000008CH   SFRSYM    DATA     BYTE      TH0
      000000A8H.0 SFRSYM    DATA     BIT       EX0
      00000088H.0 SFRSYM    DATA     BIT       IT0
      0000008DH   SFRSYM    DATA     BYTE      TH1
      00000098H.3 SFRSYM    DATA     BIT       TB8
      000000A8H.2 SFRSYM    DATA     BIT       EX1
      00000088H.2 SFRSYM    DATA     BIT       IT1
      000000CDH   SFRSYM    DATA     BYTE      TH2
      000000D0H.0 SFRSYM    DATA     BIT       P
      00000098H.7 SFRSYM    DATA     BIT       SM0
      0000008AH   SFRSYM    DATA     BYTE      TL0
      00000098H.6 SFRSYM    DATA     BIT       SM1
      0000008BH   SFRSYM    DATA     BYTE      TL1
      00000098H.5 SFRSYM    DATA     BIT       SM2
      000000CCH   SFRSYM    DATA     BYTE      TL2
      000000B8H.1 SFRSYM    DATA     BIT       PT0
      000000B8H.3 SFRSYM    DATA     BIT       PT1
      000000D0H.3 SFRSYM    DATA     BIT       RS0
      000000E7H   SFRSYM    DATA     BYTE      ISP_CONTR
      000000B8H.5 SFRSYM    DATA     BIT       PT2
      00000088H.4 SFRSYM    DATA     BIT       TR0
      000000D0H.4 SFRSYM    DATA     BIT       RS1
      00000088H.6 SFRSYM    DATA     BIT       TR1
      000000C8H.2 SFRSYM    DATA     BIT       TR2
      000000B8H.0 SFRSYM    DATA     BIT       PX0
      000000E1H   SFRSYM    DATA     BYTE      WDT_CONTR
      000000B8H.2 SFRSYM    DATA     BIT       PX1
      00000083H   SFRSYM    DATA     BYTE      DPH
      00000082H   SFRSYM    DATA     BYTE      DPL
      000000B7H   SFRSYM    DATA     BYTE      IPH
      000000C8H.3 SFRSYM    DATA     BIT       EXEN2
      00000098H.4 SFRSYM    DATA     BIT       REN
      000000C9H   SFRSYM    DATA     BYTE      T2MOD
      000000C8H   SFRSYM    DATA     BYTE      T2CON
      000000E2H   SFRSYM    DATA     BYTE      ISP_DATA
      000000B9H   SFRSYM    DATA     BYTE      SADEN
      000000B0H.0 SFRSYM    DATA     BIT       RXD
      000000A9H   SFRSYM    DATA     BYTE      SADDR
      000000B0H.1 SFRSYM    DATA     BIT       TXD
      000000A2H   SFRSYM    DATA     BYTE      AUXR1
      000000D0H.5 SFRSYM    DATA     BIT       F0
      000000D0H   SFRSYM    DATA     BYTE      PSW

      010064B5H   BLOCK     CODE     ---       LVL=0
      02000008H   SYMBOL    XDATA    CHAR      arg1
      02000009H   SYMBOL    XDATA    CHAR      arg2
      010064BAH   BLOCK     CODE     NEAR LAB  LVL=1
      00000006H   SYMBOL    DATA     ---       fuck
      ---         BLOCKEND  ---      ---       LVL=1
      010064B5H   LINE      CODE     ---       #9
      010064BAH   LINE      CODE     ---       #10
      010064BAH   LINE      CODE     ---       #13
      010064BAH   LINE      CODE     ---       #15
      010064BCH   LINE      CODE     ---       #17
      010064BEH   LINE      CODE     ---       #18
      010064C6H   LINE      CODE     ---       #23
      010064C9H   LINE      CODE     ---       #24
      010064EAH   LINE      CODE     ---       #26
      010064F3H   LINE      CODE     ---       #27
      010064F6H   LINE      CODE     ---       #32
LX51 LINKER/LOCATER V4.66.87.0                                                        06/04/2018  21:13:51  PAGE 233


      010064F6H   LINE      CODE     ---       #33
      010064F8H   LINE      CODE     ---       #34
      ---         BLOCKEND  ---      ---       LVL=0

      ---         MODULE    ---      ---       CMD_TASK
      01003B7AH   PUBLIC    CODE     ---       _cmd_task

      010088AAH   BLOCK     CODE     ---       LVL=0
      ---         BLOCKEND  ---      ---       LVL=0

      01003B7AH   BLOCK     CODE     ---       LVL=0
      02000008H   SYMBOL    XDATA    CHAR      arg1
      02000009H   SYMBOL    XDATA    CHAR      arg2
      01003B84H   BLOCK     CODE     NEAR LAB  LVL=1
      0200000AH   SYMBOL    XDATA    BYTE      tsk
      00000007H   SYMBOL    DATA     BYTE      val
      ---         BLOCKEND  ---      ---       LVL=1
      01003B7AH   LINE      CODE     ---       #6
      01003B84H   LINE      CODE     ---       #7
      01003B84H   LINE      CODE     ---       #11
      01003B86H   LINE      CODE     ---       #12
      01003B89H   LINE      CODE     ---       #13
      01003B8CH   LINE      CODE     ---       #14
      01003B95H   LINE      CODE     ---       #15
      01003B9DH   LINE      CODE     ---       #16
      01003BA0H   LINE      CODE     ---       #18
      01003BAAH   LINE      CODE     ---       #19
      01003BADH   LINE      CODE     ---       #21
      01003BB0H   LINE      CODE     ---       #22
      01003BE1H   LINE      CODE     ---       #23
      01003BE3H   LINE      CODE     ---       #24
      01003C19H   LINE      CODE     ---       #25
      01003C19H   LINE      CODE     ---       #26
      01003C1CH   LINE      CODE     ---       #27
      01003C1CH   LINE      CODE     ---       #29
      01003C1EH   LINE      CODE     ---       #30
      ---         BLOCKEND  ---      ---       LVL=0

      ---         MODULE    ---      ---       CMD_SM
      01002783H   PUBLIC    CODE     ---       _cmd_sm

      010068AEH   BLOCK     CODE     ---       LVL=0
      ---         BLOCKEND  ---      ---       LVL=0

      01002783H   BLOCK     CODE     ---       LVL=0
      02000008H   SYMBOL    XDATA    CHAR      arg1
      02000009H   SYMBOL    XDATA    CHAR      arg2
      01002783H   LINE      CODE     ---       #8
      0100278DH   LINE      CODE     ---       #9
      0100278DH   LINE      CODE     ---       #10
      0100278FH   LINE      CODE     ---       #11
      01002792H   LINE      CODE     ---       #12
      01002795H   LINE      CODE     ---       #13
      010027A3H   LINE      CODE     ---       #14
      010027A6H   LINE      CODE     ---       #15
      010027BDH   LINE      CODE     ---       #16
      010027C0H   LINE      CODE     ---       #17
      010027D8H   LINE      CODE     ---       #18
      010027E6H   LINE      CODE     ---       #19
      010027F3H   LINE      CODE     ---       #20
      010027F3H   LINE      CODE     ---       #21
      0100280AH   LINE      CODE     ---       #22
      0100280DH   LINE      CODE     ---       #23
      01002825H   LINE      CODE     ---       #24
      01002830H   LINE      CODE     ---       #25
LX51 LINKER/LOCATER V4.66.87.0                                                        06/04/2018  21:13:51  PAGE 234


      0100283DH   LINE      CODE     ---       #26
      0100283DH   LINE      CODE     ---       #27
      01002853H   LINE      CODE     ---       #28
      01002856H   LINE      CODE     ---       #29
      01002873H   LINE      CODE     ---       #30
      0100287EH   LINE      CODE     ---       #31
      0100288EH   LINE      CODE     ---       #32
      0100288EH   LINE      CODE     ---       #33
      01002890H   LINE      CODE     ---       #34
      01002893H   LINE      CODE     ---       #35
      01002893H   LINE      CODE     ---       #36
      01002893H   LINE      CODE     ---       #37
      01002895H   LINE      CODE     ---       #38
      ---         BLOCKEND  ---      ---       LVL=0

      ---         MODULE    ---      ---       CMD_BEEPER
      01003193H   PUBLIC    CODE     ---       _cmd_beeper

      010075DDH   BLOCK     CODE     ---       LVL=0
      ---         BLOCKEND  ---      ---       LVL=0

      01003193H   BLOCK     CODE     ---       LVL=0
      02000008H   SYMBOL    XDATA    CHAR      arg1
      02000009H   SYMBOL    XDATA    CHAR      arg2
      0100319DH   BLOCK     CODE     NEAR LAB  LVL=1
      0200000AH   SYMBOL    XDATA    CHAR      index
      ---         BLOCKEND  ---      ---       LVL=1
      01003193H   LINE      CODE     ---       #8
      0100319DH   LINE      CODE     ---       #9
      0100319DH   LINE      CODE     ---       #11
      010031B4H   LINE      CODE     ---       #12
      010031B7H   LINE      CODE     ---       #13
      010031CEH   LINE      CODE     ---       #14
      010031D1H   LINE      CODE     ---       #15
      010031E8H   LINE      CODE     ---       #16
      010031EDH   LINE      CODE     ---       #17
      010031F3H   LINE      CODE     ---       #18
      0100320CH   LINE      CODE     ---       #19
      01003211H   LINE      CODE     ---       #20
      01003217H   LINE      CODE     ---       #21
      01003230H   LINE      CODE     ---       #22
      01003238H   LINE      CODE     ---       #23
      0100323BH   LINE      CODE     ---       #24
      01003254H   LINE      CODE     ---       #25
      0100326DH   LINE      CODE     ---       #26
      01003276H   LINE      CODE     ---       #27
      01003279H   LINE      CODE     ---       #28
      0100327BH   LINE      CODE     ---       #29
      0100327EH   LINE      CODE     ---       #30
      0100327EH   LINE      CODE     ---       #31
      01003280H   LINE      CODE     ---       #32
      ---         BLOCKEND  ---      ---       LVL=0

      ---         MODULE    ---      ---       CMD_THERMO
      01002359H   PUBLIC    CODE     ---       _cmd_thermo

      01007A2CH   BLOCK     CODE     ---       LVL=0
      ---         BLOCKEND  ---      ---       LVL=0

      01002359H   BLOCK     CODE     ---       LVL=0
      02000008H   SYMBOL    XDATA    CHAR      arg1
      02000009H   SYMBOL    XDATA    CHAR      arg2
      01002363H   BLOCK     CODE     NEAR LAB  LVL=1
      0200000AH   SYMBOL    XDATA    CHAR      val
      ---         BLOCKEND  ---      ---       LVL=1
LX51 LINKER/LOCATER V4.66.87.0                                                        06/04/2018  21:13:51  PAGE 235


      01002359H   LINE      CODE     ---       #8
      01002363H   LINE      CODE     ---       #9
      01002363H   LINE      CODE     ---       #11
      01002365H   LINE      CODE     ---       #12
      01002368H   LINE      CODE     ---       #13
      0100236FH   LINE      CODE     ---       #14
      01002377H   LINE      CODE     ---       #15
      01002387H   LINE      CODE     ---       #16
      0100238AH   LINE      CODE     ---       #17
      01002391H   LINE      CODE     ---       #18
      010023A3H   LINE      CODE     ---       #19
      010023A6H   LINE      CODE     ---       #20
      010023B4H   LINE      CODE     ---       #21
      010023B7H   LINE      CODE     ---       #22
      010023BAH   LINE      CODE     ---       #23
      010023BAH   LINE      CODE     ---       #24
      010023BAH   LINE      CODE     ---       #25
      010023CAH   LINE      CODE     ---       #26
      010023D7H   LINE      CODE     ---       #27
      010023DAH   LINE      CODE     ---       #28
      010023EAH   LINE      CODE     ---       #29
      010023EDH   LINE      CODE     ---       #30
      010023FDH   LINE      CODE     ---       #31
      01002400H   LINE      CODE     ---       #32
      01002410H   LINE      CODE     ---       #33
      01002412H   LINE      CODE     ---       #34
      01002421H   LINE      CODE     ---       #35
      01002426H   LINE      CODE     ---       #36
      01002428H   LINE      CODE     ---       #37
      0100242BH   LINE      CODE     ---       #38
      0100242EH   LINE      CODE     ---       #39
      0100242EH   LINE      CODE     ---       #40
      01002440H   LINE      CODE     ---       #41
      0100244DH   LINE      CODE     ---       #42
      01002450H   LINE      CODE     ---       #43
      0100245FH   LINE      CODE     ---       #44
      01002462H   LINE      CODE     ---       #45
      01002471H   LINE      CODE     ---       #46
      01002474H   LINE      CODE     ---       #47
      01002483H   LINE      CODE     ---       #48
      01002485H   LINE      CODE     ---       #49
      01002494H   LINE      CODE     ---       #50
      01002499H   LINE      CODE     ---       #51
      0100249BH   LINE      CODE     ---       #52
      0100249EH   LINE      CODE     ---       #53
      010024A1H   LINE      CODE     ---       #54
      010024A1H   LINE      CODE     ---       #55
      010024A3H   LINE      CODE     ---       #56
      010024A6H   LINE      CODE     ---       #57
      010024A6H   LINE      CODE     ---       #58
      010024A6H   LINE      CODE     ---       #59
      010024A8H   LINE      CODE     ---       #60
      ---         BLOCKEND  ---      ---       LVL=0

      ---         MODULE    ---      ---       CMD_MPU
      01004E31H   PUBLIC    CODE     ---       _cmd_mpu

      010083DDH   BLOCK     CODE     ---       LVL=0
      ---         BLOCKEND  ---      ---       LVL=0

      01004E31H   BLOCK     CODE     ---       LVL=0
      02000008H   SYMBOL    XDATA    CHAR      arg1
      02000009H   SYMBOL    XDATA    CHAR      arg2
      01004E31H   LINE      CODE     ---       #10
      01004E3BH   LINE      CODE     ---       #11
LX51 LINKER/LOCATER V4.66.87.0                                                        06/04/2018  21:13:51  PAGE 236


      01004E3BH   LINE      CODE     ---       #12
      01004E5DH   LINE      CODE     ---       #13
      01004E5FH   LINE      CODE     ---       #14
      01004E75H   LINE      CODE     ---       #15
      01004E7AH   LINE      CODE     ---       #16
      01004E90H   LINE      CODE     ---       #17
      01004EA1H   LINE      CODE     ---       #18
      01004EA3H   LINE      CODE     ---       #19
      01004EA6H   LINE      CODE     ---       #20
      01004EA6H   LINE      CODE     ---       #21
      01004EA8H   LINE      CODE     ---       #22
      ---         BLOCKEND  ---      ---       LVL=0

      ---         MODULE    ---      ---       ?C?FPMUL
      0100002EH   PUBLIC    CODE     ---       ?C?FPMUL

      ---         MODULE    ---      ---       ?C?FPDIV
      01000137H   PUBLIC    CODE     ---       ?C?FPDIV

      ---         MODULE    ---      ---       ?C?FCAST
      010001DEH   PUBLIC    CODE     ---       ?C?FCASTC
      010001D9H   PUBLIC    CODE     ---       ?C?FCASTI
      010001D4H   PUBLIC    CODE     ---       ?C?FCASTL

      ---         MODULE    ---      ---       ?C?CASTF
      01000212H   PUBLIC    CODE     ---       ?C?CASTF

      ---         MODULE    ---      ---       PRINTF
      0200004DH   PUBLIC    XDATA    ---       ?_PRINTF?BYTE
      0200004DH   PUBLIC    XDATA    ---       ?_SPRINTF?BYTE
      01000B34H   PUBLIC    CODE     ---       _PRINTF
      01000B2EH   PUBLIC    CODE     ---       _SPRINTF

      ---         MODULE    ---      ---       VPRINTF
      02010047H   PUBLIC    XDATA    ---       ?_VPRINTF?BYTE
      01006C6BH   PUBLIC    CODE     ---       _VPRINTF

      ---         MODULE    ---      ---       ?C?FPGETOPN
      01000249H   PUBLIC    CODE     ---       ?C?FPGETOPN2
      0100027EH   PUBLIC    CODE     ---       ?C?FPNANRESULT
      01000288H   PUBLIC    CODE     ---       ?C?FPOVERFLOW
      01000260H   PUBLIC    CODE     ---       ?C?FPRESULT
      01000274H   PUBLIC    CODE     ---       ?C?FPRESULT2
      01000285H   PUBLIC    CODE     ---       ?C?FPUNDERFLOW

      ---         MODULE    ---      ---       ?C?FPROUND
      01000293H   PUBLIC    CODE     ---       ?C?FPROUND

      ---         MODULE    ---      ---       ?C?FPCONVERT
      010002D0H   PUBLIC    CODE     ---       ?C?FPCONVERT

      ---         MODULE    ---      ---       ?C?FPADD
      010003DCH   PUBLIC    CODE     ---       ?C?FPADD
      010003D8H   PUBLIC    CODE     ---       ?C?FPSUB

      ---         MODULE    ---      ---       ?C?FTNPWR
      010004FDH   PUBLIC    CODE     ---       ?C?FTNPWR

      ---         MODULE    ---      ---       ?C?SCDIV
      0100053DH   PUBLIC    CODE     ---       ?C?SCDIV

      ---         MODULE    ---      ---       ?C?CLDPTR
      0100055FH   PUBLIC    CODE     ---       ?C?CLDPTR

      ---         MODULE    ---      ---       ?C?CLDOPTR
LX51 LINKER/LOCATER V4.66.87.0                                                        06/04/2018  21:13:51  PAGE 237


      01000578H   PUBLIC    CODE     ---       ?C?CLDOPTR

      ---         MODULE    ---      ---       ?C?CSTPTR
      010005A5H   PUBLIC    CODE     ---       ?C?CSTPTR

      ---         MODULE    ---      ---       ?C?IMUL
      010005B7H   PUBLIC    CODE     ---       ?C?IMUL

      ---         MODULE    ---      ---       ?C?UIDIV
      010005C9H   PUBLIC    CODE     ---       ?C?UIDIV

      ---         MODULE    ---      ---       ?C?IILDX
      0100061EH   PUBLIC    CODE     ---       ?C?IILDX

      ---         MODULE    ---      ---       ?C?ILDOPTR
      01000634H   PUBLIC    CODE     ---       ?C?ILDOPTR

      ---         MODULE    ---      ---       ?C?LADD
      0100066CH   PUBLIC    CODE     ---       ?C?LADD

      ---         MODULE    ---      ---       ?C?LSUB
      01000679H   PUBLIC    CODE     ---       ?C?LSUB

      ---         MODULE    ---      ---       ?C?LNEG
      01000687H   PUBLIC    CODE     ---       ?C?LNEG

      ---         MODULE    ---      ---       ?C?SLCMP
      01000695H   PUBLIC    CODE     ---       ?C?SLCMP

      ---         MODULE    ---      ---       ?C?LLDXDATA
      010006ABH   PUBLIC    CODE     ---       ?C?LLDXDATA

      ---         MODULE    ---      ---       ?C?LLDXDATA0
      010006B7H   PUBLIC    CODE     ---       ?C?LLDXDATA0

      ---         MODULE    ---      ---       ?C?LSTXDATA
      010006C3H   PUBLIC    CODE     ---       ?C?LSTXDATA

      ---         MODULE    ---      ---       ?C?LSTKXDATA
      010006CFH   PUBLIC    CODE     ---       ?C?LSTKXDATA

      ---         MODULE    ---      ---       ?C?OFFX256
      01000700H   PUBLIC    CODE     ---       ?C?OFFX256

      ---         MODULE    ---      ---       ?C?OFFXADD
      01000711H   PUBLIC    CODE     ---       ?C?OFFXADD

      ---         MODULE    ---      ---       ?C?PLDXDATA
      0100071DH   PUBLIC    CODE     ---       ?C?PLDXDATA

      ---         MODULE    ---      ---       ?C?PLDIXDATA
      01000726H   PUBLIC    CODE     ---       ?C?PLDIXDATA

      ---         MODULE    ---      ---       ?C?PSTXDATA
      0100073DH   PUBLIC    CODE     ---       ?C?PSTXDATA

      ---         MODULE    ---      ---       ?C?PLDCODE
      01000746H   PUBLIC    CODE     ---       ?C?PLDCODE

      ---         MODULE    ---      ---       ?C?PLDPTR
      01000752H   PUBLIC    CODE     ---       ?C?PLDPTR

      ---         MODULE    ---      ---       ?C?PLDOPTR
      01000772H   PUBLIC    CODE     ---       ?C?PLDOPTR

LX51 LINKER/LOCATER V4.66.87.0                                                        06/04/2018  21:13:51  PAGE 238


      ---         MODULE    ---      ---       ?C?CCASE
      010007A2H   PUBLIC    CODE     ---       ?C?CCASE

      ---         MODULE    ---      ---       ?C?ICALL
      010007C8H   PUBLIC    CODE     ---       ?C?ICALL
      010007CCH   PUBLIC    CODE     ---       ?C?ICALL2

      ---         MODULE    ---      ---       ?C_XBP
      0000001DH   PUBLIC    DATA     ---       ?C_XBP

      ---         MODULE    ---      ---       GETS
      01003281H   PUBLIC    CODE     ---       _GETS

      ---         MODULE    ---      ---       ATOI
      01003536H   PUBLIC    CODE     ---       _ATOI

      ---         MODULE    ---      ---       ?C?MEMSET
      010007CEH   PUBLIC    CODE     ---       ?C?MEMSET

      ---         MODULE    ---      ---       ?C?COPYP2
      010008C6H   PUBLIC    CODE     ---       ?C?COPYP2

      ---         MODULE    ---      ---       ?C?STRCMPP2
      01000A62H   PUBLIC    CODE     ---       ?C?STRCMPP2

      ---         MODULE    ---      ---       ?C?CSTOPTR
      01000A7FH   PUBLIC    CODE     ---       ?C?CSTOPTR

      ---         MODULE    ---      ---       ?C?ILDIX
      01000AA1H   PUBLIC    CODE     ---       ?C?ILDIX

      ---         MODULE    ---      ---       ?C?PLDIDATA
      01000AB7H   PUBLIC    CODE     ---       ?C?PLDIDATA

      ---         MODULE    ---      ---       ?C?PLDPDATA
      01000AC0H   PUBLIC    CODE     ---       ?C?PLDPDATA

      ---         MODULE    ---      ---       GETCHAR
      00000025H.5 PUBLIC    BIT      ---       ?C?CHARLOADED
      020000EAH   PUBLIC    XDATA    ---       ?_UNGETCHAR?BYTE
      0100859EH   PUBLIC    CODE     ---       GETCHAR

      ---         MODULE    ---      ---       ISDIGIT
      010088B9H   PUBLIC    CODE     ---       _ISDIGIT

      ---         MODULE    ---      ---       ISSPACE
      010085B2H   PUBLIC    CODE     ---       _ISSPACE



FUNCTION REGISTER MASKS


FUNCTION . . . . . . . . . . . . . . REG MASK
==============================================

_clock_get_mon_date. . . . . . . . . @0x1e000ca0
_clock_is_leap_year. . . . . . . . . @0x1e000c80
_clock_switch_display_mode . . . . . @0x0e000800
_clock_yymmdd_to_day . . . . . . . . @0x1e000cfd
_delay_10us. . . . . . . . . . . . . @0x080008c0
_delay_ms. . . . . . . . . . . . . . @0x080008e0
_getkey. . . . . . . . . . . . . . . @0x1e000881
_I2C_Write . . . . . . . . . . . . . @0x180008e0
_int_hub_test_bit. . . . . . . . . . @0x180008c1
LX51 LINKER/LOCATER V4.66.87.0                                                        06/04/2018  21:13:51  PAGE 239


_isdigit . . . . . . . . . . . . . . @0x18000800
_isspace . . . . . . . . . . . . . . @0x18000800
_led_clr_blink . . . . . . . . . . . @0x18000801
_led_clr_dp. . . . . . . . . . . . . @0x18000801
_led_set_blink . . . . . . . . . . . @0x18000801
_led_set_code. . . . . . . . . . . . @0x1e0008c3
_led_set_dp. . . . . . . . . . . . . @0x18000801
_mpu_threshold_inc . . . . . . . . . @0x18000880
_putbuf. . . . . . . . . . . . . . . @0x1e0008c1
_putchar . . . . . . . . . . . . . . @0x1e0008e1
_rtc_alarm_set_date. . . . . . . . . @0x1e000cce
_rtc_alarm_set_day . . . . . . . . . @0x1e000800
_rtc_alarm_set_hour. . . . . . . . . @0x1e000cce
_rtc_alarm_set_min . . . . . . . . . @0x1e000cce
_rtc_alarm_set_mode. . . . . . . . . @0x1e000820
_rtc_alarm_set_sec . . . . . . . . . @0x1e000cc0
_rtc_clr_alarm_int_flag. . . . . . . @0x1e000800
_rtc_date_set_day. . . . . . . . . . @0x1e000800
_rtc_date_set_month. . . . . . . . . @0x1e000cc0
_rtc_date_set_year . . . . . . . . . @0x1e000cc0
_rtc_enable_alarm_int. . . . . . . . @0x1e000800
_rtc_set_square_rate . . . . . . . . @0x1e000840
_rtc_test_alarm_int. . . . . . . . . @0x1e000800
_rtc_test_alarm_int_flag . . . . . . @0x1e000800
_rtc_time_set_hour . . . . . . . . . @0x1e000cce
_rtc_time_set_min. . . . . . . . . . @0x1e000cce
_rtc_time_set_sec. . . . . . . . . . @0x1e000cce
_scan_key_proc . . . . . . . . . . . @0x1e0008c1
_serial_set_ctl_bit. . . . . . . . . @0x1e000861
_serial_test_ctl_bit . . . . . . . . @0x1e0008f1
_timer_get_hour. . . . . . . . . . . @0x1e000880
_timer_get_min . . . . . . . . . . . @0x1e000880
_timer_get_sec . . . . . . . . . . . @0x1e000880
_timer_inc_hour. . . . . . . . . . . @0x1e000c00
_timer_inc_min . . . . . . . . . . . @0x1e000c00
_timer_inc_sec . . . . . . . . . . . @0x1e000c00
_timer_set_mode. . . . . . . . . . . @0x0e000800
alarm0_get_day_mask. . . . . . . . . @0x0e000880
alarm0_get_hour. . . . . . . . . . . @0x0e000880
alarm0_get_hour_12 . . . . . . . . . @0x18000000
alarm0_get_min . . . . . . . . . . . @0x0e000880
alarm0_inc_hour. . . . . . . . . . . @0x1e000c00
alarm0_inc_min . . . . . . . . . . . @0x1e000c00
alarm0_set_hour_12 . . . . . . . . . @0x18000000
alarm1_set_enable. . . . . . . . . . @0x18000000
alarm1_test_enable . . . . . . . . . @0x18000000
beeper_get_beep_enable . . . . . . . @0x18000000
beeper_get_music_index . . . . . . . @0x0e000880
beeper_get_music_to. . . . . . . . . @0x0e000880
beeper_inc_music_to. . . . . . . . . @0x1e000cf1
beeper_set_beep_enable . . . . . . . @0x18000000
beeper_stop_music. . . . . . . . . . @0x0e000800
clock_clr_sec. . . . . . . . . . . . @0x08000801
clock_display. . . . . . . . . . . . @0x18000000
clock_enable_interrupt . . . . . . . @0x18000000
clock_enter_shell. . . . . . . . . . @0x80000000
clock_get_date . . . . . . . . . . . @0x08000881
clock_get_day. . . . . . . . . . . . @0x08000881
clock_get_hour . . . . . . . . . . . @0x08000881
clock_get_hour_12. . . . . . . . . . @0x18000000
clock_get_min. . . . . . . . . . . . @0x08000881
clock_get_month. . . . . . . . . . . @0x08000881
clock_get_ms39 . . . . . . . . . . . @0x08000881
clock_get_sec. . . . . . . . . . . . @0x08000881
clock_get_sec_256. . . . . . . . . . @0x08000881
LX51 LINKER/LOCATER V4.66.87.0                                                        06/04/2018  21:13:51  PAGE 240


clock_get_year . . . . . . . . . . . @0x08000881
clock_inc_hour . . . . . . . . . . . @0x18000c01
clock_inc_min. . . . . . . . . . . . @0x18000c01
clock_inc_month. . . . . . . . . . . @0x1e000cfd
clock_inc_year . . . . . . . . . . . @0x1e000cfd
clock_set_hour_12. . . . . . . . . . @0x18000000
com_initialize . . . . . . . . . . . @0x0e000800
com_try_get_key. . . . . . . . . . . @0x1e000881
debug_initialize . . . . . . . . . . @0x80000000
debug_onoff. . . . . . . . . . . . . @0x18000000
I2C_Delay. . . . . . . . . . . . . . @0x18000880
I2C_GetAck . . . . . . . . . . . . . @0x180008c0
I2C_Init . . . . . . . . . . . . . . @0x18000880
I2C_PutAck . . . . . . . . . . . . . @0x18000880
I2C_Read . . . . . . . . . . . . . . @0x180008e0
I2C_Start. . . . . . . . . . . . . . @0x18000880
I2C_Stop . . . . . . . . . . . . . . @0x180008b0
lt_timer_dec_sec . . . . . . . . . . @0x1e000c81
lt_timer_get_date. . . . . . . . . . @0x08000881
lt_timer_get_hour. . . . . . . . . . @0x08000881
lt_timer_get_hour_12 . . . . . . . . @0x18000000
lt_timer_get_min . . . . . . . . . . @0x08000881
lt_timer_get_month . . . . . . . . . @0x08000881
lt_timer_get_sec . . . . . . . . . . @0x08000881
lt_timer_get_year. . . . . . . . . . @0x08000881
lt_timer_inc_date. . . . . . . . . . @0x1e000ca1
lt_timer_inc_hour. . . . . . . . . . @0x18000c01
lt_timer_inc_min . . . . . . . . . . @0x18000c01
lt_timer_inc_month . . . . . . . . . @0x18000c01
lt_timer_inc_sec . . . . . . . . . . @0x18000c01
lt_timer_inc_year. . . . . . . . . . @0x18000c01
lt_timer_set_hour_12 . . . . . . . . @0x18000000
mpu_threshold_get. . . . . . . . . . @0x0e000880
power_5v_get_enable. . . . . . . . . @0x18000000
power_clr_flag . . . . . . . . . . . @0x80000000
power_get_powersave_to . . . . . . . @0x1e000880
power_get_powersave_to_s . . . . . . @0x0e000880
power_get_volume . . . . . . . . . . @0x08000080
power_inc_powersave_to . . . . . . . @0x1e000800
power_reset_powersave_to . . . . . . @0x0e000881
power_set_flag . . . . . . . . . . . @0x80000000
power_test_flag. . . . . . . . . . . @0x18000000
refresh_led. . . . . . . . . . . . . @0x1e0008e9
rom_is_factory_reset . . . . . . . . @0x18000000
rtc_alarm_get_date . . . . . . . . . @0x1e000cc0
rtc_alarm_get_day. . . . . . . . . . @0x1e000880
rtc_alarm_get_hour . . . . . . . . . @0x1e000ce0
rtc_alarm_get_hour_12. . . . . . . . @0x1e000880
rtc_alarm_get_min. . . . . . . . . . @0x1e000cc0
rtc_alarm_get_mod_str. . . . . . . . @0x1e000cfe
rtc_alarm_get_mode . . . . . . . . . @0x0e0008fa
rtc_alarm_get_sec. . . . . . . . . . @0x1e000cc0
rtc_alarm_set_hour_12. . . . . . . . @0x1e000cee
rtc_date_get_date. . . . . . . . . . @0x1e000cc0
rtc_date_get_day . . . . . . . . . . @0x0e000880
rtc_date_get_month . . . . . . . . . @0x1e000cc0
rtc_date_get_year. . . . . . . . . . @0x1e000cc0
rtc_get_square_rate. . . . . . . . . @0x1e000880
rtc_get_square_rate_str. . . . . . . @0x1e000c8e
rtc_is_lt_timer. . . . . . . . . . . @0x18000000
rtc_set_bbsqw. . . . . . . . . . . . @0x0e000800
rtc_set_conv . . . . . . . . . . . . @0x0e000800
rtc_set_en32khz. . . . . . . . . . . @0x0e000800
rtc_set_eosc . . . . . . . . . . . . @0x0e000800
rtc_set_intcn. . . . . . . . . . . . @0x0e000800
LX51 LINKER/LOCATER V4.66.87.0                                                        06/04/2018  21:13:51  PAGE 241


rtc_set_lt_timer . . . . . . . . . . @0x18000000
rtc_set_osf. . . . . . . . . . . . . @0x0e000800
rtc_test_bbsqw . . . . . . . . . . . @0x1e000800
rtc_test_bsy . . . . . . . . . . . . @0x1e000800
rtc_test_conv. . . . . . . . . . . . @0x1e000800
rtc_test_en32khz . . . . . . . . . . @0x1e000800
rtc_test_eosc. . . . . . . . . . . . @0x1e000800
rtc_test_intcn . . . . . . . . . . . @0x1e000800
rtc_test_osf . . . . . . . . . . . . @0x1e000800
rtc_time_get_hour. . . . . . . . . . @0x1e000ce0
rtc_time_get_hour_12 . . . . . . . . @0x1e000880
rtc_time_get_min . . . . . . . . . . @0x1e000cc0
rtc_time_get_sec . . . . . . . . . . @0x1e000cc0
rtc_time_set_hour_12 . . . . . . . . @0x1e000cee
timer_set_led_autorefresh. . . . . . @0x1e000800
timer_stop . . . . . . . . . . . . . @0x80000000



*** WARNING L13: RECURSIVE CALL TO FUNCTION
    CALLED:  ?CO?TASK
    CALLER:  _RUN_STATE_MACHINE/SM

*** WARNING L13: RECURSIVE CALL TO FUNCTION
    CALLED:  ?CO?SHELL
    CALLER:  SHELL

*** WARNING L13: RECURSIVE CALL TO FUNCTION
    CALLED:  ?CO?SHELL
    CALLER:  SHELL_DUMP_CMD/SHELL

*** WARNING L13: RECURSIVE CALL TO FUNCTION
    CALLED:  ?CO?SHELL
    CALLER:  _CMD_HELP/CMD_HELP

*** WARNING L57: UNCALLED FUNCTION, IGNORED FOR OVERLAY PROCESS
    NAME:    _RTC_ALARM_SET_DAY/RTC

*** WARNING L57: UNCALLED FUNCTION, IGNORED FOR OVERLAY PROCESS
    NAME:    RTC_SET_EOSC/RTC

*** WARNING L57: UNCALLED FUNCTION, IGNORED FOR OVERLAY PROCESS
    NAME:    RTC_SET_BBSQW/RTC

*** WARNING L57: UNCALLED FUNCTION, IGNORED FOR OVERLAY PROCESS
    NAME:    RTC_SET_CONV/RTC

*** WARNING L57: UNCALLED FUNCTION, IGNORED FOR OVERLAY PROCESS
    NAME:    _RTC_SET_SQUARE_RATE/RTC

*** WARNING L57: UNCALLED FUNCTION, IGNORED FOR OVERLAY PROCESS
    NAME:    RTC_SET_OSF/RTC

*** WARNING L16: UNCALLED SEGMENT, IGNORED FOR OVERLAY PROCESS
    NAME:    ALARM_SAVE_ROM/ALARM

*** WARNING L57: UNCALLED FUNCTION, IGNORED FOR OVERLAY PROCESS
    NAME:    CLOCK_GET_MS39/CLOCK

*** WARNING L57: UNCALLED FUNCTION, IGNORED FOR OVERLAY PROCESS
    NAME:    THERMO_HI_THRESHOLD_REACH_TOP/THERMO

*** WARNING L57: UNCALLED FUNCTION, IGNORED FOR OVERLAY PROCESS
    NAME:    THERMO_LO_THRESHOLD_REACH_BOTTOM/THERMO

LX51 LINKER/LOCATER V4.66.87.0                                                        06/04/2018  21:13:51  PAGE 242


*** WARNING L57: UNCALLED FUNCTION, IGNORED FOR OVERLAY PROCESS
    NAME:    MPU_THRESHOLD_RESET/MPU

Program Size: data=81.6 xdata=235 const=18516 code=36183
LX51 RUN COMPLETE.  15 WARNING(S),  0 ERROR(S)
