LX51 LINKER/LOCATER V4.66.87.0                                                          05/30/2018  19:50:23  PAGE 1


LX51 LINKER/LOCATER V4.66.87.0, INVOKED BY:
C:\KEIL\C51\BIN\LX51.EXE sm.obj, main.obj, STARTUP.obj, com.obj, rtc.obj, i2c.obj, key.obj, task.obj, led.obj, alarm.obj
>> , power.obj, misc.obj, mod_common.obj, beeper.obj, clock.obj, timer.obj, int_hub.obj, fuse.obj, hg.obj, lt_timer.obj,
>>  serial_hub.obj, thermo.obj, rom.obj, delay_task.obj, shell.obj, debug.obj, mpu.obj, sm_clock_timer.obj, sm_clock_cou
>> nter.obj, sm_clock_display.obj, sm_clock_powersave.obj, sm_clock_mod_alarm.obj, sm_clock_alarm.obj, sm_clock_mod_time
>> .obj, sm_power_pack_display.obj, sm_power_pack_powersave.obj, sm_fuse_test.obj, sm_fuse_param.obj, sm_fuse_timer.obj,
>>  sm_fuse_detonate.obj, sm_fuse_powersave.obj, sm_global_flag_mod.obj, cmd_help.obj, cmd_serial.obj, cmd_int.obj, cmd_
>> i2c.obj, cmd_dbg.obj, cmd_reboot.obj, cmd_task.obj, cmd_sm.obj, cmd_beeper.obj, cmd_thermo.obj, cmd_mpu.obj TO Clock 
>> REGFILE (.\Clock.ORC) CLASSES (XDATA (X:0X0-X:0X3FF), HDATA (X:0X0-X:0X3FF), ECODE (C:0X0-C:0XFFFF), HCONST (C:0X0-C:
>> 0XFFFF))




PROGRAM RECURSIONS REMOVED FROM CALL TREE
=========================================
+--> ?CO?TASK
|  | _TIME_PROC/SM
<--+ _RUN_STATE_MACHINE/SM


+--> ?CO?SHELL
|  | _CMD_HELP/CMD_HELP
|  | SHELL_DUMP_CMD/SHELL
<--+ SHELL


+--> ?CO?SHELL
|  | _CMD_HELP/CMD_HELP
<--+ SHELL_DUMP_CMD/SHELL


+--> ?CO?SHELL
<--+ _CMD_HELP/CMD_HELP



CPU MODE:     8051 MODE
MEMORY MODEL: LARGE WITH FLOATING POINT ARITHMETIC


INPUT MODULES INCLUDED:
  sm.obj (SM)
         COMMENT TYPE 0: C51 V9.57.0.0
  main.obj (MAIN)
         COMMENT TYPE 0: C51 V9.57.0.0
  STARTUP.obj (?C_STARTUP)
         COMMENT TYPE 0: AX51 V3.15.3.0
  com.obj (COM)
         COMMENT TYPE 0: C51 V9.57.0.0
  rtc.obj (RTC)
         COMMENT TYPE 0: C51 V9.57.0.0
  i2c.obj (I2C)
         COMMENT TYPE 0: C51 V9.57.0.0
  key.obj (KEY)
         COMMENT TYPE 0: C51 V9.57.0.0
  task.obj (TASK)
         COMMENT TYPE 0: C51 V9.57.0.0
  led.obj (LED)
         COMMENT TYPE 0: C51 V9.57.0.0
  alarm.obj (ALARM)
         COMMENT TYPE 0: C51 V9.57.0.0
  power.obj (POWER)
         COMMENT TYPE 0: C51 V9.57.0.0
  misc.obj (MISC)
         COMMENT TYPE 0: C51 V9.57.0.0
LX51 LINKER/LOCATER V4.66.87.0                                                        05/30/2018  19:50:23  PAGE 2


  mod_common.obj (MOD_COMMON)
         COMMENT TYPE 0: C51 V9.57.0.0
  beeper.obj (BEEPER)
         COMMENT TYPE 0: C51 V9.57.0.0
  clock.obj (CLOCK)
         COMMENT TYPE 0: C51 V9.57.0.0
  timer.obj (TIMER)
         COMMENT TYPE 0: C51 V9.57.0.0
  int_hub.obj (INT_HUB)
         COMMENT TYPE 0: C51 V9.57.0.0
  fuse.obj (FUSE)
         COMMENT TYPE 0: C51 V9.57.0.0
  hg.obj (HG)
         COMMENT TYPE 0: C51 V9.57.0.0
  lt_timer.obj (LT_TIMER)
         COMMENT TYPE 0: C51 V9.57.0.0
  serial_hub.obj (SERIAL_HUB)
         COMMENT TYPE 0: C51 V9.57.0.0
  thermo.obj (THERMO)
         COMMENT TYPE 0: C51 V9.57.0.0
  rom.obj (ROM)
         COMMENT TYPE 0: C51 V9.57.0.0
  delay_task.obj (DELAY_TASK)
         COMMENT TYPE 0: C51 V9.57.0.0
  shell.obj (SHELL)
         COMMENT TYPE 0: C51 V9.57.0.0
  debug.obj (DEBUG)
         COMMENT TYPE 0: C51 V9.57.0.0
  mpu.obj (MPU)
         COMMENT TYPE 0: C51 V9.57.0.0
  sm_clock_timer.obj (SM_CLOCK_TIMER)
         COMMENT TYPE 0: C51 V9.57.0.0
  sm_clock_counter.obj (SM_CLOCK_COUNTER)
         COMMENT TYPE 0: C51 V9.57.0.0
  sm_clock_display.obj (SM_CLOCK_DISPLAY)
         COMMENT TYPE 0: C51 V9.57.0.0
  sm_clock_powersave.obj (SM_CLOCK_POWERSAVE)
         COMMENT TYPE 0: C51 V9.57.0.0
  sm_clock_mod_alarm.obj (SM_CLOCK_MOD_ALARM)
         COMMENT TYPE 0: C51 V9.57.0.0
  sm_clock_alarm.obj (SM_CLOCK_ALARM)
         COMMENT TYPE 0: C51 V9.57.0.0
  sm_clock_mod_time.obj (SM_CLOCK_MOD_TIME)
         COMMENT TYPE 0: C51 V9.57.0.0
  sm_power_pack_display.obj (SM_POWER_PACK_DISPLAY)
         COMMENT TYPE 0: C51 V9.57.0.0
  sm_power_pack_powersave.obj (SM_POWER_PACK_POWERSAVE)
         COMMENT TYPE 0: C51 V9.57.0.0
  sm_fuse_test.obj (SM_FUSE_TEST)
         COMMENT TYPE 0: C51 V9.57.0.0
  sm_fuse_param.obj (SM_FUSE_PARAM)
         COMMENT TYPE 0: C51 V9.57.0.0
  sm_fuse_timer.obj (SM_FUSE_TIMER)
         COMMENT TYPE 0: C51 V9.57.0.0
  sm_fuse_detonate.obj (SM_FUSE_DETONATE)
         COMMENT TYPE 0: C51 V9.57.0.0
  sm_fuse_powersave.obj (SM_FUSE_POWERSAVE)
         COMMENT TYPE 0: C51 V9.57.0.0
  sm_global_flag_mod.obj (SM_GLOBAL_FLAG_MOD)
         COMMENT TYPE 0: C51 V9.57.0.0
  cmd_help.obj (CMD_HELP)
         COMMENT TYPE 0: C51 V9.57.0.0
  cmd_serial.obj (CMD_SERIAL)
         COMMENT TYPE 0: C51 V9.57.0.0
  cmd_int.obj (CMD_INT)
LX51 LINKER/LOCATER V4.66.87.0                                                        05/30/2018  19:50:23  PAGE 3


         COMMENT TYPE 0: C51 V9.57.0.0
  cmd_i2c.obj (CMD_I2C)
         COMMENT TYPE 0: C51 V9.57.0.0
  cmd_dbg.obj (CMD_DBG)
         COMMENT TYPE 0: C51 V9.57.0.0
  cmd_reboot.obj (CMD_REBOOT)
         COMMENT TYPE 0: C51 V9.57.0.0
  cmd_task.obj (CMD_TASK)
         COMMENT TYPE 0: C51 V9.57.0.0
  cmd_sm.obj (CMD_SM)
         COMMENT TYPE 0: C51 V9.57.0.0
  cmd_beeper.obj (CMD_BEEPER)
         COMMENT TYPE 0: C51 V9.57.0.0
  cmd_thermo.obj (CMD_THERMO)
         COMMENT TYPE 0: C51 V9.57.0.0
  cmd_mpu.obj (CMD_MPU)
         COMMENT TYPE 0: C51 V9.57.0.0
  C:\KEIL\C51\LIB\C51FPL.LIB (?C?FPMUL)
         COMMENT TYPE 1: A51 / ASM51 Assembler
  C:\KEIL\C51\LIB\C51FPL.LIB (?C?FPDIV)
         COMMENT TYPE 1: A51 / ASM51 Assembler
  C:\KEIL\C51\LIB\C51FPL.LIB (?C?FCAST)
         COMMENT TYPE 1: A51 / ASM51 Assembler
  C:\KEIL\C51\LIB\C51FPL.LIB (?C?CASTF)
         COMMENT TYPE 1: A51 / ASM51 Assembler
  C:\KEIL\C51\LIB\C51FPL.LIB (PRINTF)
         COMMENT TYPE 1: A51 / ASM51 Assembler
  C:\KEIL\C51\LIB\C51FPL.LIB (VPRINTF)
         COMMENT TYPE 1: A51 / ASM51 Assembler
  C:\KEIL\C51\LIB\C51FPL.LIB (?C?FPGETOPN)
         COMMENT TYPE 1: A51 / ASM51 Assembler
  C:\KEIL\C51\LIB\C51FPL.LIB (?C?FPROUND)
         COMMENT TYPE 1: A51 / ASM51 Assembler
  C:\KEIL\C51\LIB\C51FPL.LIB (?C?FPCONVERT)
         COMMENT TYPE 1: A51 / ASM51 Assembler
  C:\KEIL\C51\LIB\C51FPL.LIB (?C?FPADD)
         COMMENT TYPE 1: A51 / ASM51 Assembler
  C:\KEIL\C51\LIB\C51FPL.LIB (?C?FTNPWR)
         COMMENT TYPE 1: A51 / ASM51 Assembler
  C:\KEIL\C51\LIB\C51L.LIB (?C?SCDIV)
         COMMENT TYPE 1: A51 / ASM51 Assembler
  C:\KEIL\C51\LIB\C51L.LIB (?C?CLDPTR)
         COMMENT TYPE 1: A51 / ASM51 Assembler
  C:\KEIL\C51\LIB\C51L.LIB (?C?CLDOPTR)
         COMMENT TYPE 1: A51 / ASM51 Assembler
  C:\KEIL\C51\LIB\C51L.LIB (?C?CSTPTR)
         COMMENT TYPE 1: A51 / ASM51 Assembler
  C:\KEIL\C51\LIB\C51L.LIB (?C?IMUL)
         COMMENT TYPE 1: A51 / ASM51 Assembler
  C:\KEIL\C51\LIB\C51L.LIB (?C?UIDIV)
         COMMENT TYPE 1: A51 / ASM51 Assembler
  C:\KEIL\C51\LIB\C51L.LIB (?C?IILDX)
         COMMENT TYPE 1: A51 / ASM51 Assembler
  C:\KEIL\C51\LIB\C51L.LIB (?C?ILDOPTR)
         COMMENT TYPE 1: A51 / ASM51 Assembler
  C:\KEIL\C51\LIB\C51L.LIB (?C?LADD)
         COMMENT TYPE 1: A51 / ASM51 Assembler
  C:\KEIL\C51\LIB\C51L.LIB (?C?LSUB)
         COMMENT TYPE 1: A51 / ASM51 Assembler
  C:\KEIL\C51\LIB\C51L.LIB (?C?LNEG)
         COMMENT TYPE 1: A51 / ASM51 Assembler
  C:\KEIL\C51\LIB\C51L.LIB (?C?SLCMP)
         COMMENT TYPE 1: A51 / ASM51 Assembler
  C:\KEIL\C51\LIB\C51L.LIB (?C?LLDXDATA)
         COMMENT TYPE 1: A51 / ASM51 Assembler
LX51 LINKER/LOCATER V4.66.87.0                                                        05/30/2018  19:50:23  PAGE 4


  C:\KEIL\C51\LIB\C51L.LIB (?C?LLDXDATA0)
         COMMENT TYPE 1: A51 / ASM51 Assembler
  C:\KEIL\C51\LIB\C51L.LIB (?C?LSTXDATA)
         COMMENT TYPE 1: A51 / ASM51 Assembler
  C:\KEIL\C51\LIB\C51L.LIB (?C?LSTKXDATA)
         COMMENT TYPE 1: A51 / ASM51 Assembler
  C:\KEIL\C51\LIB\C51L.LIB (?C?OFFX256)
         COMMENT TYPE 1: A51 / ASM51 Assembler
  C:\KEIL\C51\LIB\C51L.LIB (?C?OFFXADD)
         COMMENT TYPE 1: A51 / ASM51 Assembler
  C:\KEIL\C51\LIB\C51L.LIB (?C?PLDXDATA)
         COMMENT TYPE 1: A51 / ASM51 Assembler
  C:\KEIL\C51\LIB\C51L.LIB (?C?PLDIXDATA)
         COMMENT TYPE 1: A51 / ASM51 Assembler
  C:\KEIL\C51\LIB\C51L.LIB (?C?PSTXDATA)
         COMMENT TYPE 1: A51 / ASM51 Assembler
  C:\KEIL\C51\LIB\C51L.LIB (?C?PLDCODE)
         COMMENT TYPE 1: A51 / ASM51 Assembler
  C:\KEIL\C51\LIB\C51L.LIB (?C?PLDPTR)
         COMMENT TYPE 1: A51 / ASM51 Assembler
  C:\KEIL\C51\LIB\C51L.LIB (?C?PLDOPTR)
         COMMENT TYPE 1: A51 / ASM51 Assembler
  C:\KEIL\C51\LIB\C51L.LIB (?C?CCASE)
         COMMENT TYPE 1: A51 / ASM51 Assembler
  C:\KEIL\C51\LIB\C51L.LIB (?C?ICALL)
         COMMENT TYPE 1: A51 / ASM51 Assembler
  C:\KEIL\C51\LIB\C51L.LIB (?C_XBP)
         COMMENT TYPE 1: A51 / ASM51 Assembler
  C:\KEIL\C51\LIB\C51L.LIB (GETS)
         COMMENT TYPE 1: C51 Compiler
  C:\KEIL\C51\LIB\C51L.LIB (ATOI)
         COMMENT TYPE 1: C51 Compiler
  C:\KEIL\C51\LIB\C51L.LIB (?C?MEMSET)
         COMMENT TYPE 1: A51 / ASM51 Assembler
  C:\KEIL\C51\LIB\C51L.LIB (?C?COPYP2)
         COMMENT TYPE 1: A51 / ASM51 Assembler
  C:\KEIL\C51\LIB\C51L.LIB (?C?STRCMPP2)
         COMMENT TYPE 1: A51 / ASM51 Assembler
  C:\KEIL\C51\LIB\C51L.LIB (?C?CSTOPTR)
         COMMENT TYPE 1: A51 / ASM51 Assembler
  C:\KEIL\C51\LIB\C51L.LIB (?C?ILDIX)
         COMMENT TYPE 1: A51 / ASM51 Assembler
  C:\KEIL\C51\LIB\C51L.LIB (?C?PLDIDATA)
         COMMENT TYPE 1: A51 / ASM51 Assembler
  C:\KEIL\C51\LIB\C51L.LIB (?C?PLDPDATA)
         COMMENT TYPE 1: A51 / ASM51 Assembler
  C:\KEIL\C51\LIB\C51L.LIB (GETCHAR)
         COMMENT TYPE 1: A51 / ASM51 Assembler
  C:\KEIL\C51\LIB\C51L.LIB (ISDIGIT)
         COMMENT TYPE 1: C51 Compiler
  C:\KEIL\C51\LIB\C51L.LIB (ISSPACE)
         COMMENT TYPE 1: C51 Compiler


ACTIVE MEMORY CLASSES OF MODULE:  Clock (SM)

BASE        START       END         USED      MEMORY CLASS
==========================================================
X:000000H   X:000000H   X:0003FFH   0000EBH   XDATA
X:000000H   X:000000H   X:0003FFH             HDATA
C:000000H   C:000000H   C:00FFFFH             ECODE
B00:0000H   C:000000H   C:00FFFFH             HCONST
C:000000H   C:000000H   C:00FFFFH   008CF6H   CODE
C:000000H   C:000000H   C:00FFFFH   0047EEH   CONST
I:000000H   I:000000H   I:0000FFH   00002DH   IDATA
LX51 LINKER/LOCATER V4.66.87.0                                                        05/30/2018  19:50:23  PAGE 5


I:000020H.0 I:000020H.0 I:00002FH.7 000005H.6 BIT
I:000000H   I:000000H   I:00007FH   00001FH   DATA


MEMORY MAP OF MODULE:  Clock (SM)


START     STOP      LENGTH    ALIGN  RELOC    MEMORY CLASS   SEGMENT NAME
=========================================================================

* * * * * * * * * * *   D A T A   M E M O R Y   * * * * * * * * * * * * *
000000H   000007H   000008H   ---    AT..     DATA           "REG BANK 0"
000008H   00000FH   000008H   ---    AT..     DATA           "REG BANK 1"
000010H   000017H   000008H   ---    AT..     DATA           "REG BANK 2"
000018H   00001CH   000005H   BYTE   UNIT     DATA           _DATA_GROUP_
00001DH   00001EH   000002H   BYTE   UNIT     DATA           ?C?LIB_DATA
00001FH.0 00001FH.7 000001H.0 ---    ---      **GAP**
000020H.0 000021H.3 000001H.4 BIT    UNIT     BIT            _BIT_GROUP_
000021H.4 000022H.0 000000H.5 BIT    UNIT     BIT            ?BI?LT_TIMER
000022H.1 000022H.4 000000H.4 BIT    UNIT     BIT            ?BI?TIMER
000022H.5 000022H.7 000000H.3 BIT    UNIT     BIT            ?BI?MOD_COMMON
000023H.0 000023H.2 000000H.3 BIT    UNIT     BIT            ?BI?CLOCK
000023H.3 000023H.4 000000H.2 BIT    UNIT     BIT            ?BI?COM
000023H.5 000023H.6 000000H.2 BIT    UNIT     BIT            ?BI?KEY
000023H.7 000024H.0 000000H.2 BIT    UNIT     BIT            ?BI?ALARM
000024H.1 000024H.2 000000H.2 BIT    UNIT     BIT            ?BI?BEEPER
000024H.3 000024H.3 000000H.1 BIT    UNIT     BIT            ?BI?RTC_SET_EOSC?RTC
000024H.4 000024H.4 000000H.1 BIT    UNIT     BIT            ?BI?RTC_SET_BBSQW?RTC
000024H.5 000024H.5 000000H.1 BIT    UNIT     BIT            ?BI?RTC_SET_CONV?RTC
000024H.6 000024H.6 000000H.1 BIT    UNIT     BIT            ?BI?RTC_SET_OSF?RTC
000024H.7 000024H.7 000000H.1 BIT    UNIT     BIT            ?BI?RTC
000025H.0 000025H.0 000000H.1 BIT    UNIT     BIT            ?BI?LED
000025H.1 000025H.1 000000H.1 BIT    UNIT     BIT            ?BI?POWER
000025H.2 000025H.2 000000H.1 BIT    UNIT     BIT            ?BI?FUSE
000025H.3 000025H.3 000000H.1 BIT    UNIT     BIT            ?BI?HG
000025H.4 000025H.4 000000H.1 BIT    UNIT     BIT            ?BI?DEBUG
000025H.5 000025H.5 000000H.1 BIT    UNIT     BIT            ?BI?GETCHAR
000025H.6 000025H   000000H.2 ---    ---      **GAP**
000026H   000035H   000010H   BYTE   UNIT     IDATA          ?ID?COM
000036H   00003EH   000009H   BYTE   UNIT     IDATA          ?ID?LED
00003FH   000047H   000009H   BYTE   UNIT     IDATA          ?ID?CLOCK
000048H   00004DH   000006H   BYTE   UNIT     IDATA          ?ID?LT_TIMER
00004EH   000051H   000004H   BYTE   UNIT     IDATA          ?ID?TASK
000052H   000052H   000001H   BYTE   UNIT     IDATA          ?STACK

* * * * * * * * * * *   C O D E   M E M O R Y   * * * * * * * * * * * * *
000000H   000002H   000003H   ---    OFFS..   CODE           ?CO?STARTUP?3
000003H   000005H   000003H   BYTE   OFFS..   CODE           ?KEY?00003
000006H   00000AH   000005H   BYTE   UNIT     CODE           ?PR?RTC_SET_LT_TIMER?RTC
00000BH   00000DH   000003H   BYTE   OFFS..   CODE           ?CLOCK?0000B
00000EH   000012H   000005H   BYTE   UNIT     CODE           ?PR?__RTC_GET_DATE?RTC
000013H   000015H   000003H   BYTE   OFFS..   CODE           ?INT_HUB?00013
000016H   000022H   00000DH   BYTE   UNIT     CODE           ?PR?COM_LEAVE_POWERSAVE?COM
000023H   000025H   000003H   BYTE   OFFS..   CODE           ?COM?00023
000026H   00002AH   000005H   BYTE   UNIT     CODE           ?PR?ALARM0_SET_HOUR_12?ALARM
00002BH   00002DH   000003H   BYTE   OFFS..   CODE           ?BEEPER?0002B
00002EH   000AC8H   000A9BH   BYTE   UNIT     CODE           ?C?LIB_CODE
000AC9H   000F4BH   000483H   BYTE   UNIT     CODE           ?PR?PRINTF?PRINTF
000F4CH   0011B1H   000266H   BYTE   UNIT     CODE           ?PR?_INT_HUB_DUMP_EXT_STATUS?INT_HUB
0011B2H   0013FBH   00024AH   BYTE   UNIT     CODE           ?PR?RTC_DUMP?RTC
0013FCH   00162AH   00022FH   BYTE   UNIT     CODE           ?PR?SERIAL_DUMP?SERIAL_HUB
00162BH   001836H   00020CH   BYTE   UNIT     CODE           ?PR?_DISPLAY_TEST?SM_FUSE_TEST
001837H   0019FEH   0001C8H   BYTE   UNIT     CODE           ?PR?_SM_FUSE_TEST_HG_MPU?SM_FUSE_TEST
0019FFH   001BADH   0001AFH   BYTE   UNIT     CODE           ?PR?_SM_FUSE_TEST_THERMO?SM_FUSE_TEST
001BAEH   001D47H   00019AH   BYTE   UNIT     CODE           ?PR?_UPDATE_ALARM?SM_CLOCK_MOD_ALARM
LX51 LINKER/LOCATER V4.66.87.0                                                        05/30/2018  19:50:23  PAGE 6


001D48H   001ED9H   000192H   BYTE   UNIT     CODE           ?PR?_RUN_STATE_MACHINE?SM
001EDAH   00204DH   000174H   BYTE   UNIT     CODE           ?PR?_UPDATE_TIME?SM_FUSE_PARAM
00204EH   0021BCH   00016FH   BYTE   UNIT     CODE           ?PR?SM
0021BDH   002329H   00016DH   BYTE   UNIT     CODE           ?PR?CLOCK_INC_MS39?CLOCK
00232AH   002492H   000169H   BYTE   UNIT     CODE           ?PR?_SM_FUSE_TEST_SUBMOD0?SM_FUSE_TEST
002493H   0025E5H   000153H   BYTE   UNIT     CODE           ?PR?RUN_SHELL?SHELL
0025E6H   002731H   00014CH   BYTE   UNIT     CODE           ?PR?_CMD_THERMO?CMD_THERMO
002732H   002844H   000113H   BYTE   UNIT     CODE           ?PR?_CMD_SM?CMD_SM
002845H   002955H   000111H   BYTE   UNIT     CODE           ?PR?LT_TIMER_SUB_DATE?LT_TIMER
002956H   002A61H   00010CH   BYTE   UNIT     CODE           ?PR?_CLOCK_YYMMDD_TO_DAY?CLOCK
002A62H   002B67H   000106H   BYTE   UNIT     CODE           ?PR?_SCAN_KEY_PROC?KEY
002B68H   002C6DH   000106H   BYTE   UNIT     CODE           ?PR?_SM_FUSE_TIMER_SUBMOD0?SM_FUSE_TIMER
002C6EH   002D6FH   000102H   BYTE   UNIT     CODE           ?PR?_DISPLAY_GLOBAL_FLAG?SM_GLOBAL_FLAG_MOD
002D70H   002E6CH   0000FDH   BYTE   UNIT     CODE           ?PR?TIMER_INC_MS39?TIMER
002E6DH   002F60H   0000F4H   BYTE   UNIT     CODE           ?PR?SM_DUMP?SM
002F61H   003051H   0000F1H   BYTE   UNIT     CODE           ?PR?RTC_INITIALIZE?RTC
003052H   003141H   0000F0H   BYTE   UNIT     CODE           ?PR?__BEEPLER_PLAY?BEEPER
003142H   00322FH   0000EEH   BYTE   UNIT     CODE           ?PR?_CMD_BEEPER?CMD_BEEPER
003230H   00331CH   0000EDH   BYTE   UNIT     CODE           ?PR?_GETS?GETS
00331DH   0033FAH   0000DEH   BYTE   UNIT     CODE           ?PR?_DISPLAY_ALARM?SM_CLOCK_ALARM
0033FBH   0034D5H   0000DBH   BYTE   UNIT     CODE           ?PR?_ATOI?ATOI
0034D6H   0035A3H   0000CEH   BYTE   UNIT     CODE           ?PR?_SM_SET_STATE_BY_NAME?SM
0035A4H   00366FH   0000CCH   BYTE   UNIT     CODE           ?PR?RTC_ALARM_GET_MODE?RTC
003670H   003736H   0000C7H   BYTE   UNIT     CODE           ?PR?_CHECK_AND_SET?SM_FUSE_TIMER
003737H   0037FDH   0000C7H   BYTE   UNIT     CODE           ?PR?_SM_FUSE_TIMER_SUBMOD2?SM_FUSE_TIMER
0037FEH   0038C2H   0000C5H   BYTE   UNIT     CODE           ?PR?RTC
0038C3H   003987H   0000C5H   BYTE   UNIT     CODE           ?PR?_I2C_WRITE?CMD_I2C
003988H   003A49H   0000C2H   BYTE   UNIT     CODE           ?PR?UPDATE_HHMMSS?SM_CLOCK_MOD_TIME
003A4AH   003B05H   0000BCH   BYTE   UNIT     CODE           ?PR?_UPDATE_SET?SM_FUSE_TEST
003B06H   003BC1H   0000BCH   BYTE   UNIT     CODE           ?PR?_CMD_TASK?CMD_TASK
003BC2H   003C7BH   0000BAH   BYTE   UNIT     CODE           ?PR?_SM_CLOCK_MOD_TIME?SM_CLOCK_MOD_TIME
003C7CH   003D33H   0000B8H   BYTE   UNIT     CODE           ?PR?_SM_SET_TABLE_BY_NAME?SM
003D34H   003DE2H   0000AFH   BYTE   UNIT     CODE           ?PR?ROM_RESET?ROM
003DE3H   003E89H   0000A7H   BYTE   UNIT     CODE           ?PR?RUN_TASK?TASK
003E8AH   003F2FH   0000A6H   BYTE   UNIT     CODE           ?PR?_CMD_SERIAL?CMD_SERIAL
003F30H   003FD4H   0000A5H   BYTE   UNIT     CODE           ?PR?_DISPLAY_PREARM?SM_FUSE_TIMER
003FD5H   004072H   00009EH   BYTE   UNIT     CODE           ?PR?_RTC_DATE_SET_DATE?RTC
004073H   00410FH   00009DH   BYTE   UNIT     CODE           ?PR?UPDATE_HHMMSS?SM_CLOCK_COUNTER
004110H   0041ABH   00009CH   BYTE   UNIT     CODE           ?PR?LT_TIMER_DEC_SEC?LT_TIMER
0041ACH   004245H   00009AH   BYTE   UNIT     CODE           ?PR?_INC_ONLY?SM_CLOCK_MOD_TIME
004246H   0042DBH   000096H   BYTE   UNIT     CODE           ?PR?_RTC_GET_TEMPERATURE?RTC
0042DCH   00436EH   000093H   BYTE   UNIT     CODE           ?PR?CLOCK_DUMP?CLOCK
00436FH   004400H   000092H   BYTE   UNIT     CODE           ?PR?_SM_CLOCK_COUNTER_SUBMOD0?SM_CLOCK_COUNTER
004401H   004490H   000090H   BYTE   UNIT     CODE           ?PR?_ENTER_SET?SM_FUSE_TEST
004491H   004520H   000090H   BYTE   UNIT     CODE           ?PR?_SM_FUSE_PARAM_SUBMOD6?SM_FUSE_PARAM
004521H   0045AEH   00008EH   BYTE   UNIT     CODE           ?PR?LT_TIMER
0045AFH   00463AH   00008CH   BYTE   UNIT     CODE           ?PR?UPDATE_YYMMDD?SM_CLOCK_MOD_TIME
00463BH   0046C5H   00008BH   BYTE   UNIT     CODE           ?PR?_RTC_ALARM_SET_MODE?RTC
0046C6H   004750H   00008BH   BYTE   UNIT     CODE           ?PR?DISPLAY_TEMP?SM_CLOCK_DISPLAY
004751H   0047D9H   000089H   BYTE   UNIT     CODE           ?PR?_I2C_READ?CMD_I2C
0047DAH   004860H   000087H   BYTE   UNIT     CODE           ?PR?_SM_SET_SUB_STATE_BY_NAME?SM
004861H   0048E4H   000084H   BYTE   UNIT     CODE           ?PR?LT_TIMER_GET_RELATIVE?LT_TIMER
0048E5H   004967H   000083H   BYTE   UNIT     CODE           ?PR?SM_FUSE_TEST
004968H   0049E6H   00007FH   BYTE   UNIT     CODE           ?PR?_DISPLAY_SLOT?SM_CLOCK_TIMER
0049E7H   004A64H   00007EH   BYTE   UNIT     CODE           ?PR?_SCAN_FUSE?FUSE
004A65H   004AE1H   00007DH   BYTE   UNIT     CODE           ?PR?ROM_DUMP?ROM
004AE2H   004B5DH   00007CH   BYTE   UNIT     CODE           ?PR?_CALL_CMD?SHELL
004B5EH   004BD8H   00007BH   BYTE   UNIT     CODE           ?PR?_WRITE_ONLY?SM_FUSE_PARAM
004BD9H   004C52H   00007AH   BYTE   UNIT     CODE           ?PR?TASK_DUMP?TASK
004C53H   004CCCH   00007AH   BYTE   UNIT     CODE           ?PR?CLOCK
004CCDH   004D44H   000078H   BYTE   UNIT     CODE           ?PR?SCAN_ALARM?ALARM
004D45H   004DBCH   000078H   BYTE   UNIT     CODE           ?PR?_INC_ONLY?SM_FUSE_PARAM
004DBDH   004E34H   000078H   BYTE   UNIT     CODE           ?PR?_CMD_MPU?CMD_MPU
004E35H   004EA9H   000075H   BYTE   UNIT     CODE           ?PR?_SCAN_HG?HG
004EAAH   004F1EH   000075H   BYTE   UNIT     CODE           ?PR?_SM_CLOCK_ALARM?SM_CLOCK_ALARM
LX51 LINKER/LOCATER V4.66.87.0                                                        05/30/2018  19:50:23  PAGE 7


004F1FH   004F8FH   000071H   BYTE   UNIT     CODE           ?PR?_SM_CLOCK_TIMER_SUBMOD1?SM_CLOCK_TIMER
004F90H   005000H   000071H   BYTE   UNIT     CODE           ?PR?VERIFY_PASSWORD?SM_FUSE_TIMER
005001H   005071H   000071H   BYTE   UNIT     CODE           ?PR?_INC_WRITE?SM_GLOBAL_FLAG_MOD
005072H   0050DFH   00006EH   BYTE   UNIT     CODE           ?PR?_I2C_GETS?I2C
0050E0H   00514CH   00006DH   BYTE   UNIT     CODE           ?PR?COM_ISR?COM
00514DH   0051B8H   00006CH   BYTE   UNIT     CODE           ?PR?INT_HUB_INITIALIZE?INT_HUB
0051B9H   005224H   00006CH   BYTE   UNIT     CODE           ?PR?SCAN_THERMO?THERMO
005225H   00528FH   00006BH   BYTE   UNIT     CODE           ?PR?_CLOCK_SYNC_TO_RTC?CLOCK
005290H   0052FAH   00006BH   BYTE   UNIT     CODE           ?PR?_SM_FUSE_PARAM_SET_TIME?SM_FUSE_PARAM
0052FBH   005364H   00006AH   BYTE   UNIT     CODE           ?PR?TIMER
005365H   0053CDH   000069H   BYTE   UNIT     CODE           ?PR?_THERMO_LO_THRESHOLD_SET?THERMO
0053CEH   005434H   000067H   BYTE   UNIT     CODE           ?PR?_WRITE_ONLY?SM_CLOCK_MOD_TIME
005435H   005499H   000065H   BYTE   UNIT     CODE           ?PR?ALARM_DUMP?ALARM
00549AH   0054FEH   000065H   BYTE   UNIT     CODE           ?PR?_DISPLAY_LOGO?MOD_COMMON
0054FFH   005561H   000063H   BYTE   UNIT     CODE           ?PR?INT_HUB_GET_STATUS?INT_HUB
005562H   0055C2H   000061H   BYTE   UNIT     CODE           ?PR?_ALARM0_SET_ENABLE?ALARM
0055C3H   005623H   000061H   BYTE   UNIT     CODE           ?PR?_CLOCK_SYNC_FROM_RTC?CLOCK
005624H   005683H   000060H   BYTE   UNIT     CODE           ?PR?INT_HUB_DUMP?INT_HUB
005684H   0056E3H   000060H   BYTE   UNIT     CODE           ?PR?_SM_CLOCK_MOD_ALARM_SUBMOD0?SM_CLOCK_MOD_ALARM
0056E4H   005743H   000060H   BYTE   UNIT     CODE           ?PR?_INC_ONLY?SM_FUSE_TEST
005744H   0057A3H   000060H   BYTE   UNIT     CODE           ?PR?_SM_FUSE_DETONATE_SUBMOD0?SM_FUSE_DETONATE
0057A4H   005802H   00005FH   BYTE   UNIT     CODE           ?PR?_SCAN_INT_HUB_PROC?INT_HUB
005803H   005861H   00005FH   BYTE   UNIT     CODE           ?PR?_SM_CLOCK_COUNTER_SUBMOD2?SM_CLOCK_COUNTER
005862H   0058BDH   00005CH   BYTE   UNIT     CODE           ?PR?_THERMO_HI_THRESHOLD_SET?THERMO
0058BEH   005919H   00005CH   BYTE   UNIT     CODE           ?PR?_SM_CLOCK_TIMER_SUBMOD2?SM_CLOCK_TIMER
00591AH   005975H   00005CH   BYTE   UNIT     CODE           ?PR?_SM_CLOCK_COUNTER_SUBMOD1?SM_CLOCK_COUNTER
005976H   0059D1H   00005CH   BYTE   UNIT     CODE           ?PR?_SM_CLOCK_MOD_ALARM_SUBMOD1?SM_CLOCK_MOD_ALARM
0059D2H   005A2DH   00005CH   BYTE   UNIT     CODE           ?PR?_SM_FUSE_SET?SM_FUSE_TEST
005A2EH   005A87H   00005AH   BYTE   UNIT     CODE           ?PR?REFRESH_LED?LED
005A88H   005AE0H   000059H   BYTE   UNIT     CODE           ?PR?SM_DUMP_SUB_STATE?SM
005AE1H   005B39H   000059H   BYTE   UNIT     CODE           ?PR?_RTC_READ_DATA?RTC
005B3AH   005B92H   000059H   BYTE   UNIT     CODE           ?PR?_WRITE_ONLY?SM_FUSE_TEST
005B93H   005BEAH   000058H   BYTE   UNIT     CODE           ?PR?_LT_TIMER_SAVE_TO_ROM?LT_TIMER
005BEBH   005C41H   000057H   BYTE   UNIT     CODE           ?PR?_RTC_WRITE_DATA?RTC
005C42H   005C98H   000057H   BYTE   UNIT     CODE           ?PR?THERMO_POWER_ON?THERMO
005C99H   005CEFH   000057H   BYTE   UNIT     CODE           ?PR?_SM_CLOCK_MOD_ALARM_SUBMOD2?SM_CLOCK_MOD_ALARM
005CF0H   005D46H   000057H   BYTE   UNIT     CODE           ?PR?_SM_FUSE_TIMER_SUBMOD1?SM_FUSE_TIMER
005D47H   005D9CH   000056H   BYTE   UNIT     CODE           ?PR?THERMO
005D9DH   005DF1H   000055H   BYTE   UNIT     CODE           ?PR?_I2C_PUTS?I2C
005DF2H   005E46H   000055H   BYTE   UNIT     CODE           ?PR?DISPLAY_POWER_VOLUME?SM_POWER_PACK_DISPLAY
005E47H   005E9AH   000054H   BYTE   UNIT     CODE           ?PR?_CMD_HELP?CMD_HELP
005E9BH   005EEDH   000053H   BYTE   UNIT     CODE           ?PR?_SM_POWER_PACK_DISPLAY_SUBMOD0?SM_POWER_PACK_DISPLAY
005EEEH   005F40H   000053H   BYTE   UNIT     CODE           ?PR?_UPDATE_HG_MASK?SM_FUSE_TEST
005F41H   005F91H   000051H   BYTE   UNIT     CODE           ?PR?ALARM0_SYNC_TO_RTC?ALARM
005F92H   005FE2H   000051H   BYTE   UNIT     CODE           ?PR?DELAY_TASK_CALL?DELAY_TASK
005FE3H   006032H   000050H   BYTE   UNIT     CODE           ?PR?SM_DUMP_STATE?SM
006033H   006082H   000050H   BYTE   UNIT     CODE           ?PR?_MOD_PROC?KEY
006083H   0060D2H   000050H   BYTE   UNIT     CODE           ?PR?_SET_PROC?KEY
0060D3H   006122H   000050H   BYTE   UNIT     CODE           ?PR?_LED_SET_CODE?LED
006123H   006170H   00004EH   BYTE   UNIT     CODE           ?PR?SHELL
006171H   0061BCH   00004CH   BYTE   UNIT     CODE           ?PR?MAIN?MAIN
0061BDH   006208H   00004CH   BYTE   UNIT     CODE           ?PR?POWER_ENTER_POWERSAVE?POWER
006209H   006254H   00004CH   BYTE   UNIT     CODE           ?PR?_WRITE_ONLY?SM_CLOCK_MOD_ALARM
006255H   00629EH   00004AH   BYTE   UNIT     CODE           ?PR?SCAN_LT_TIMER?LT_TIMER
00629FH   0062E7H   000049H   BYTE   UNIT     CODE           ?PR?THERMO_POWER_OFF?THERMO
0062E8H   006330H   000049H   BYTE   UNIT     CODE           ?PR?_DELAY_TASK_REG?DELAY_TASK
006331H   006379H   000049H   BYTE   UNIT     CODE           ?PR?_SHELL_SEARCH_CMD_BY_NAME?SHELL
00637AH   0063C2H   000049H   BYTE   UNIT     CODE           ?PR?_SM_CLOCK_DISPLAY_SUBMOD0?SM_CLOCK_DISPLAY
0063C3H   00640BH   000049H   BYTE   UNIT     CODE           ?PR?_SM_FUSE_PARAM_SUBMOD0?SM_FUSE_PARAM
00640CH   006453H   000048H   BYTE   UNIT     CODE           ?PR?_SM_CLOCK_TIMER_SUBMOD0?SM_CLOCK_TIMER
006454H   00649AH   000047H   BYTE   UNIT     CODE           ?PR?_CMD_DBG?CMD_DBG
00649BH   0064DFH   000045H   BYTE   UNIT     CODE           ?PR?RTC_DUMP_RAW?RTC
0064E0H   006524H   000045H   BYTE   UNIT     CODE           ?PR?_INC_ONLY?SM_CLOCK_COUNTER
006525H   006568H   000044H   BYTE   UNIT     CODE           ?PR?_THERMO_TEMP_TO_HEX?THERMO
006569H   0065ACH   000044H   BYTE   UNIT     CODE           ?PR?_CMD_REBOOT?CMD_REBOOT
LX51 LINKER/LOCATER V4.66.87.0                                                        05/30/2018  19:50:23  PAGE 8


0065ADH   0065EFH   000043H   BYTE   UNIT     CODE           ?PR?BEEPER_INITIALIZE?BEEPER
0065F0H   006631H   000042H   BYTE   UNIT     CODE           ?PR?BEEPER_BEEP_BEEP?BEEPER
006632H   006673H   000042H   BYTE   UNIT     CODE           ?PR?LT_TIMER_SYNC_TO_RTC?LT_TIMER
006674H   0066B4H   000041H   BYTE   UNIT     CODE           ?PR?LT_TIMER_LOAD_FROM_ROM?LT_TIMER
0066B5H   0066F5H   000041H   BYTE   UNIT     CODE           ?PR?_THERMO_THRESHOLD_INC?THERMO
0066F6H   006735H   000040H   BYTE   UNIT     CODE           ?PR?_SM_CLOCK_COUNTER_SUBMOD3?SM_CLOCK_COUNTER
006736H   006774H   00003FH   BYTE   UNIT     CODE           ?PR?SM_SHOW_CURRENT?SM
006775H   0067B3H   00003FH   BYTE   UNIT     CODE           ?PR?ALARM1_SYNC_TO_RTC?ALARM
0067B4H   0067F2H   00003FH   BYTE   UNIT     CODE           ?PR?BEEPER_BEEP_BEEP_ALWAYS?BEEPER
0067F3H   006830H   00003EH   BYTE   UNIT     CODE           ?PR?__RTC_SET_HOUR?RTC
006831H   00686EH   00003EH   BYTE   UNIT     CODE           ?PR?_FUSE_SET_FUSE_BROKE?FUSE
00686FH   0068ACH   00003EH   BYTE   UNIT     CODE           ?PR?ROM_INITIALIZE?ROM
0068ADH   0068E9H   00003DH   BYTE   UNIT     CODE           ?PR?THERMO_LOAD_CONFIG?THERMO
0068EAH   006926H   00003DH   BYTE   UNIT     CODE           ?PR?_DISPLAY_TIMER?SM_FUSE_TIMER
006927H   006962H   00003CH   BYTE   UNIT     CODE           ?PR?_SM_FUSE_TEST_INIT?SM_FUSE_TEST
006963H   00699DH   00003BH   BYTE   UNIT     CODE           ?PR?CMD_SM
00699EH   0069D7H   00003AH   BYTE   UNIT     CODE           ?PR?LED_INITIALIZE?LED
0069D8H   006A11H   00003AH   BYTE   UNIT     CODE           ?PR?LT_TIMER_SUB_MIN_HOUR?LT_TIMER
006A12H   006A4BH   00003AH   BYTE   UNIT     CODE           ?PR?LT_TIMER_SUB_HOUR_DATE?LT_TIMER
006A4CH   006A85H   00003AH   BYTE   UNIT     CODE           ?PR?SERIAL_HUB_INITIALIZE?SERIAL_HUB
006A86H   006ABFH   00003AH   BYTE   UNIT     CODE           ?PR?_ENTER_ALARM?SM_CLOCK_MOD_ALARM
006AC0H   006AF8H   000039H   BYTE   UNIT     CODE           ?PR?_SHOW_SLOT_TITLE?SM_CLOCK_TIMER
006AF9H   006B31H   000039H   BYTE   UNIT     CODE           ?PR?_UPDATE_PASSWORD?SM_FUSE_PARAM
006B32H   006B6AH   000039H   BYTE   UNIT     CODE           ?PR?_CMD_INT?CMD_INT
006B6BH   006BA2H   000038H   BYTE   UNIT     CODE           ?PR?SM_DUMP_TABLE?SM
006BA3H   006BDAH   000038H   BYTE   UNIT     CODE           ?PR?CLOCK0_ISR?CLOCK
006BDBH   006C12H   000038H   BYTE   UNIT     CODE           ?PR?_ENTER_TIME?SM_FUSE_PARAM
006C13H   006C49H   000037H   BYTE   UNIT     CODE           ?PR?_DEBUG_PRINTF?DEBUG
006C4AH   006C7FH   000036H   BYTE   UNIT     CODE           ?PR?_MOD_SET_PROC?KEY
006C80H   006CB5H   000036H   BYTE   UNIT     CODE           ?PR?FUSE_TRIGGER?FUSE
006CB6H   006CEAH   000035H   BYTE   UNIT     CODE           ?PR?SHELL_DUMP_CMD?SHELL
006CEBH   006D1FH   000035H   BYTE   UNIT     CODE           ?PR?_VPRINTF?VPRINTF
006D20H   006D53H   000034H   BYTE   UNIT     CODE           ?PR?ALARM_SAVE_ROM?ALARM
006D54H   006D87H   000034H   BYTE   UNIT     CODE           ?PR?_ROM_READ?ROM
006D88H   006DBBH   000034H   BYTE   UNIT     CODE           ?PR?_INC_ONLY?SM_CLOCK_MOD_ALARM
006DBCH   006DEEH   000033H   BYTE   UNIT     CODE           ?PR?ALARM_LOAD_ROM?ALARM
006DEFH   006E21H   000033H   BYTE   UNIT     CODE           ?PR?POWER_INITIALIZE?POWER
006E22H   006E54H   000033H   BYTE   UNIT     CODE           ?PR?_CMD_I2C?CMD_I2C
006E55H   006E86H   000032H   BYTE   UNIT     CODE           ?PR?INT0_ISR?KEY
006E87H   006EB8H   000032H   BYTE   UNIT     CODE           ?PR?_SM_CLOCK_POWERSAVE?SM_CLOCK_POWERSAVE
006EB9H   006EE9H   000031H   BYTE   UNIT     CODE           ?PR?THERMO_GET_CURRENT?THERMO
006EEAH   006F1AH   000031H   BYTE   UNIT     CODE           ?PR?_ROM_WRITE?ROM
006F1BH   006F4BH   000031H   BYTE   UNIT     CODE           ?PR?MPU_POWER_ON?MPU
006F4CH   006F7BH   000030H   BYTE   UNIT     CODE           ?PR?POWER_LEAVE_POWERSAVE?POWER
006F7CH   006FABH   000030H   BYTE   UNIT     CODE           ?PR?POWER_TEST_POWERSAVE_TO?POWER
006FACH   006FDBH   000030H   BYTE   UNIT     CODE           ?PR?_SERIAL_SET_CTL_BIT?SERIAL_HUB
006FDCH   00700BH   000030H   BYTE   UNIT     CODE           ?PR?ROLL_BACK?SM_FUSE_TIMER
00700CH   00703BH   000030H   BYTE   UNIT     CODE           ?PR?DISPLAY_PASSWORD?SM_FUSE_TIMER
00703CH   00706AH   00002FH   BYTE   UNIT     CODE           ?PR?_PUTBUF?COM
00706BH   007099H   00002FH   BYTE   UNIT     CODE           ?PR?I2C_READ?I2C
00709AH   0070C8H   00002FH   BYTE   UNIT     CODE           ?PR?_ALARM0_TEST_ENABLE?ALARM
0070C9H   0070F7H   00002FH   BYTE   UNIT     CODE           ?PR?SCAN_MPU?MPU
0070F8H   007125H   00002EH   BYTE   UNIT     CODE           ?PR?SHOW_VERSION?MAIN
007126H   007153H   00002EH   BYTE   UNIT     CODE           ?PR?_SERIAL_TEST_CTL_BIT?SERIAL_HUB
007154H   007181H   00002EH   BYTE   UNIT     CODE           ?PR?MPU_POWER_OFF?MPU
007182H   0071AFH   00002EH   BYTE   UNIT     CODE           ?PR?SM_FUSE_TIMER
0071B0H   0071DCH   00002DH   BYTE   UNIT     CODE           ?PR?BEEPER_ISR?BEEPER
0071DDH   007209H   00002DH   BYTE   UNIT     CODE           ?PR?CLOCK_INITIALIZE?CLOCK
00720AH   007236H   00002DH   BYTE   UNIT     CODE           ?PR?_SM_CLOCK_DISPLAY_SUBMOD1?SM_CLOCK_DISPLAY
007237H   007262H   00002CH   BYTE   UNIT     CODE           ?PR?__RTC_SET_MIN_SEC?RTC
007263H   00728EH   00002CH   BYTE   UNIT     CODE           ?PR?__RTC_SET_DATE?RTC
00728FH   0072BAH   00002CH   BYTE   UNIT     CODE           ?PR?_ALARM_PROC?ALARM
0072BBH   0072E6H   00002CH   BYTE   UNIT     CODE           ?PR?_WRITE_ONLY?SM_CLOCK_COUNTER
0072E7H   007312H   00002CH   BYTE   UNIT     CODE           ?PR?_SM_CLOCK_MOD_TIME_SUBMOD0?SM_CLOCK_MOD_TIME
007313H   00733DH   00002BH   BYTE   UNIT     CODE           ?PR?_SM_CLOCK_MOD_ALARM_SUBMOD3?SM_CLOCK_MOD_ALARM
LX51 LINKER/LOCATER V4.66.87.0                                                        05/30/2018  19:50:23  PAGE 9


00733EH   007368H   00002BH   BYTE   UNIT     CODE           ?PR?_SM_CLOCK_MOD_ALARM_SUBMOD4?SM_CLOCK_MOD_ALARM
007369H   007393H   00002BH   BYTE   UNIT     CODE           ?PR?_ENTER_YYMMDD?SM_CLOCK_MOD_TIME
007394H   0073BDH   00002AH   BYTE   UNIT     CODE           ?PR?BEEPER_BEEP?BEEPER
0073BEH   0073E7H   00002AH   BYTE   UNIT     CODE           ?PR?_TIMER_SAVE?TIMER
0073E8H   007411H   00002AH   BYTE   UNIT     CODE           ?PR?_ENTER_HHMMSS?SM_CLOCK_COUNTER
007412H   00743BH   00002AH   BYTE   UNIT     CODE           ?PR?SM_CLOCK_COUNTER
00743CH   007465H   00002AH   BYTE   UNIT     CODE           ?PR?_ENTER_HHMMSS?SM_CLOCK_MOD_TIME
007466H   00748FH   00002AH   BYTE   UNIT     CODE           ?PR?_SM_GLOBAL_FLAG_MOD?SM_GLOBAL_FLAG_MOD
007490H   0074B8H   000029H   BYTE   UNIT     CODE           ?PR?_SM_CLOCK_DISPLAY_SUBMOD3?SM_CLOCK_DISPLAY
0074B9H   0074E0H   000028H   BYTE   UNIT     CODE           ?PR?COM_INITIALIZE?COM
0074E1H   007508H   000028H   BYTE   UNIT     CODE           ?PR?_RTC_SET_HOUR_12?RTC
007509H   007530H   000028H   BYTE   UNIT     CODE           ?PR?FUSE_ENABLE?FUSE
007531H   007558H   000028H   BYTE   UNIT     CODE           ?PR?HG_ENABLE?HG
007559H   00757FH   000027H   BYTE   UNIT     CODE           ?PR?_INT_HUB_TEST_BIT?INT_HUB
007580H   0075A6H   000027H   BYTE   UNIT     CODE           ?PR?FUSE_POWER_ON?FUSE
0075A7H   0075CDH   000027H   BYTE   UNIT     CODE           ?PR?FUSE_POWER_OFF?FUSE
0075CEH   0075F4H   000027H   BYTE   UNIT     CODE           ?PR?_SM_FUSE_TIMER_SUBMOD3?SM_FUSE_TIMER
0075F5H   00761AH   000026H   BYTE   UNIT     CODE           ?PR?LED_SAVE?LED
00761BH   007640H   000026H   BYTE   UNIT     CODE           ?PR?LED_RESTORE?LED
007641H   007666H   000026H   BYTE   UNIT     CODE           ?PR?FUSE_SET_TRIPWIRE_BROKE?FUSE
007667H   00768CH   000026H   BYTE   UNIT     CODE           ?PR?_SM_CLOCK_COUNTER_SUBMOD5?SM_CLOCK_COUNTER
00768DH   0076B2H   000026H   BYTE   UNIT     CODE           ?PR?CMD_BEEPER
0076B3H   0076D7H   000025H   BYTE   UNIT     CODE           ?PR?SM_INITIALIZE?SM
0076D8H   0076FCH   000025H   BYTE   UNIT     CODE           ?PR?_RTC_ENABLE_ALARM_INT?RTC
0076FDH   007720H   000024H   BYTE   UNIT     CODE           ?PR?__RTC_GET_HOUR?RTC
007721H   007744H   000024H   BYTE   UNIT     CODE           ?PR?POWER_INC_POWERSAVE_TO?POWER
007745H   007768H   000024H   BYTE   UNIT     CODE           ?PR?LT_TIMER_LEAVE_POWERSAVE?LT_TIMER
007769H   00778CH   000024H   BYTE   UNIT     CODE           ?PR?_THERMO_HEX_TO_TEMP?THERMO
00778DH   0077B0H   000024H   BYTE   UNIT     CODE           ?PR?MPU_READ_INT_STATUS?MPU
0077B1H   0077D4H   000024H   BYTE   UNIT     CODE           ?PR?_SM_CLOCK_DISPLAY_INIT?SM_CLOCK_DISPLAY
0077D5H   0077F8H   000024H   BYTE   UNIT     CODE           ?PR?_SM_CLOCK_DISPLAY_SUBMOD2?SM_CLOCK_DISPLAY
0077F9H   00781CH   000024H   BYTE   UNIT     CODE           ?PR?_SM_FUSE_PARAM_INIT?SM_FUSE_PARAM
00781DH   00783FH   000023H   BYTE   UNIT     CODE           ?PR?ALARM_SWITCH_OFF?ALARM
007840H   007862H   000023H   BYTE   UNIT     CODE           ?PR?LT_TIMER_SWITCH_OFF?LT_TIMER
007863H   007885H   000023H   BYTE   UNIT     CODE           ?PR?THERMO_LO_THRESHOLD_GET?THERMO
007886H   0078A8H   000023H   BYTE   UNIT     CODE           ?PR?_SM_CLOCK_COUNTER_SUBMOD4?SM_CLOCK_COUNTER
0078A9H   0078CBH   000023H   BYTE   UNIT     CODE           ?PR?SM_CLOCK_MOD_TIME
0078CCH   0078EDH   000022H   BYTE   UNIT     CODE           ?PR?I2C_GETACK?I2C
0078EEH   00790FH   000022H   BYTE   UNIT     CODE           ?PR?BEEPER_PLAY_MUSIC?BEEPER
007910H   007931H   000022H   BYTE   UNIT     CODE           ?PR?_TIMER_GET_MS10?TIMER
007932H   007953H   000022H   BYTE   UNIT     CODE           ?PR?_TOGGLE_ALARM?SM_CLOCK_MOD_ALARM
007954H   007975H   000022H   BYTE   UNIT     CODE           ?PR?_INC_WRITE?SM_FUSE_TEST
007976H   007996H   000021H   BYTE   UNIT     CODE           ?PR?THERMO_HI_THRESHOLD_GET?THERMO
007997H   0079B7H   000021H   BYTE   UNIT     CODE           ?PR?SM_CLOCK_TIMER
0079B8H   0079D8H   000021H   BYTE   UNIT     CODE           ?PR?TOGGLE_ALARM_BS?SM_CLOCK_MOD_ALARM
0079D9H   0079F9H   000021H   BYTE   UNIT     CODE           ?PR?CMD_I2C
0079FAH   007A19H   000020H   BYTE   UNIT     CODE           ?C_C51STARTUP
007A1AH   007A39H   000020H   BYTE   UNIT     CODE           ?PR?CLOCK_INC_DATE?CLOCK
007A3AH   007A59H   000020H   BYTE   UNIT     CODE           ?PR?DELAY_TASK
007A5AH   007A79H   000020H   BYTE   UNIT     CODE           ?PR?MPU_LOAD_CONFIG?MPU
007A7AH   007A99H   000020H   BYTE   UNIT     CODE           ?PR?TEST_AUTOSWITCH?SM_CLOCK_DISPLAY
007A9AH   007AB9H   000020H   BYTE   UNIT     CODE           ?PR?SM_CLOCK_DISPLAY
007ABAH   007AD9H   000020H   BYTE   UNIT     CODE           ?PR?CMD_THERMO
007ADAH   007AF8H   00001FH   BYTE   UNIT     CODE           ?PR?_I2C_WRITE?I2C
007AF9H   007B17H   00001FH   BYTE   UNIT     CODE           ?PR?MPU_ENABLE?MPU
007B18H   007B36H   00001FH   BYTE   UNIT     CODE           ?PR?_SM_FUSE_POWERSAVE_SUBMOD0?SM_FUSE_POWERSAVE
007B37H   007B54H   00001EH   BYTE   UNIT     CODE           ?PR?LT_TIMER_START_RTC?LT_TIMER
007B55H   007B72H   00001EH   BYTE   UNIT     CODE           ?PR?LT_TIMER_STOP_RTC?LT_TIMER
007B73H   007B90H   00001EH   BYTE   UNIT     CODE           ?PR?LT_TIMER_SUB_SEC_MIN?LT_TIMER
007B91H   007BADH   00001DH   BYTE   UNIT     CODE           ?PR?RTC_ALARM_SET_HOUR_12?RTC
007BAEH   007BCAH   00001DH   BYTE   UNIT     CODE           ?PR?_RTC_TEST_ALARM_INT?RTC
007BCBH   007BE7H   00001DH   BYTE   UNIT     CODE           ?PR?_RTC_TEST_ALARM_INT_FLAG?RTC
007BE8H   007C04H   00001DH   BYTE   UNIT     CODE           ?PR?LED
007C05H   007C21H   00001DH   BYTE   UNIT     CODE           ?PR?_CLOCK_GET_MON_DATE?CLOCK
007C22H   007C3EH   00001DH   BYTE   UNIT     CODE           ?PR?_SM_POWER_PACK_POWERSAVE_SUBMOD0?SM_POWER_PACK_POWERSA
LX51 LINKER/LOCATER V4.66.87.0                                                        05/30/2018  19:50:23  PAGE 10


                                                             -VE
007C3FH   007C5BH   00001DH   BYTE   UNIT     CODE           ?PR?_SM_FUSE_TIMER_INIT?SM_FUSE_TIMER
007C5CH   007C77H   00001CH   BYTE   UNIT     CODE           ?PR?_TIMER_INC_HOUR?TIMER
007C78H   007C93H   00001CH   BYTE   UNIT     CODE           ?PR?_SM_CLOCK_MOD_TIME_SUBMOD2?SM_CLOCK_MOD_TIME
007C94H   007CAFH   00001CH   BYTE   UNIT     CODE           ?PR?_SM_CLOCK_MOD_TIME_SUBMOD3?SM_CLOCK_MOD_TIME
007CB0H   007CCBH   00001CH   BYTE   UNIT     CODE           ?PR?_SM_CLOCK_MOD_TIME_SUBMOD4?SM_CLOCK_MOD_TIME
007CCCH   007CE7H   00001CH   BYTE   UNIT     CODE           ?PR?_SM_CLOCK_MOD_TIME_SUBMOD5?SM_CLOCK_MOD_TIME
007CE8H   007D03H   00001CH   BYTE   UNIT     CODE           ?PR?_SM_FUSE_TEST_SUBMOD1?SM_FUSE_TEST
007D04H   007D1FH   00001CH   BYTE   UNIT     CODE           ?PR?_SM_FUSE_TEST_SUBMOD2?SM_FUSE_TEST
007D20H   007D3BH   00001CH   BYTE   UNIT     CODE           ?PR?_SM_FUSE_TEST_SUBMOD3?SM_FUSE_TEST
007D3CH   007D57H   00001CH   BYTE   UNIT     CODE           ?PR?_SM_FUSE_TEST_SUBMOD4?SM_FUSE_TEST
007D58H   007D73H   00001CH   BYTE   UNIT     CODE           ?PR?_SM_FUSE_TEST_SUBMOD5?SM_FUSE_TEST
007D74H   007D8FH   00001CH   BYTE   UNIT     CODE           ?PR?_SM_FUSE_TEST_SUBMOD6?SM_FUSE_TEST
007D90H   007DABH   00001CH   BYTE   UNIT     CODE           ?PR?_SM_FUSE_TEST_SUBMOD7?SM_FUSE_TEST
007DACH   007DC7H   00001CH   BYTE   UNIT     CODE           ?PR?_SM_FUSE_TEST_SUBMOD8?SM_FUSE_TEST
007DC8H   007DE3H   00001CH   BYTE   UNIT     CODE           ?PR?_SM_FUSE_PARAM_SUBMOD1?SM_FUSE_PARAM
007DE4H   007DFFH   00001CH   BYTE   UNIT     CODE           ?PR?_SM_FUSE_PARAM_SUBMOD2?SM_FUSE_PARAM
007E00H   007E1BH   00001CH   BYTE   UNIT     CODE           ?PR?_SM_FUSE_PARAM_SUBMOD3?SM_FUSE_PARAM
007E1CH   007E37H   00001CH   BYTE   UNIT     CODE           ?PR?_SM_FUSE_PARAM_SUBMOD4?SM_FUSE_PARAM
007E38H   007E53H   00001CH   BYTE   UNIT     CODE           ?PR?_SM_FUSE_PARAM_SUBMOD5?SM_FUSE_PARAM
007E54H   007E6FH   00001CH   BYTE   UNIT     CODE           ?PR?_SM_FUSE_TIMER_SUBMOD4?SM_FUSE_TIMER
007E70H   007E8BH   00001CH   BYTE   UNIT     CODE           ?PR?_SM_GLOBAL_FLAG_MOD_SUBMOD2?SM_GLOBAL_FLAG_MOD
007E8CH   007EA7H   00001CH   BYTE   UNIT     CODE           ?PR?_SM_GLOBAL_FLAG_MOD_SUBMOD3?SM_GLOBAL_FLAG_MOD
007EA8H   007EC2H   00001BH   BYTE   UNIT     CODE           ?PR?POWER_5V_ENABLE?POWER
007EC3H   007EDDH   00001BH   BYTE   UNIT     CODE           ?PR?BEEPER_INC_MUSIC_TO?BEEPER
007EDEH   007EF8H   00001BH   BYTE   UNIT     CODE           ?PR?BEEPER
007EF9H   007F13H   00001BH   BYTE   UNIT     CODE           ?PR?HG_POWER_ON?HG
007F14H   007F2EH   00001BH   BYTE   UNIT     CODE           ?PR?SERIAL_CTL_OUT?SERIAL_HUB
007F2FH   007F49H   00001BH   BYTE   UNIT     CODE           ?PR?_SM_POWER_PACK_DISPLAY_INIT?SM_POWER_PACK_DISPLAY
007F4AH   007F63H   00001AH   BYTE   UNIT     CODE           ?PR?_RTC_ALARM_SET_DATE?RTC
007F64H   007F7DH   00001AH   BYTE   UNIT     CODE           ?PR?_POWER_PROC?POWER
007F7EH   007F97H   00001AH   BYTE   UNIT     CODE           ?PR?_FUSE_PROC?FUSE
007F98H   007FB1H   00001AH   BYTE   UNIT     CODE           ?PR?LT_TIMER_DISPLAY?LT_TIMER
007FB2H   007FCBH   00001AH   BYTE   UNIT     CODE           ?PR?_SM_CLOCK_TIMER_INIT?SM_CLOCK_TIMER
007FCCH   007FE5H   00001AH   BYTE   UNIT     CODE           ?PR?_SM_CLOCK_MOD_TIME_INIT?SM_CLOCK_MOD_TIME
007FE6H   007FFFH   00001AH   BYTE   UNIT     CODE           ?PR?_ENTER_PASSWORD?SM_FUSE_PARAM
008000H   008019H   00001AH   BYTE   UNIT     CODE           ?PR?SM_GLOBAL_FLAG_MOD
00801AH   008032H   000019H   BYTE   UNIT     CODE           ?PR?_PUTCHAR?COM
008033H   00804BH   000019H   BYTE   UNIT     CODE           ?PR?KEY_INITIALIZE?KEY
00804CH   008064H   000019H   BYTE   UNIT     CODE           ?PR?SERIAL_HUB
008065H   00807DH   000019H   BYTE   UNIT     CODE           ?PR?_SM_CLOCK_MOD_TIME_SUBMOD1?SM_CLOCK_MOD_TIME
00807EH   008096H   000019H   BYTE   UNIT     CODE           ?PR?_SM_GLOBAL_FLAG_MOD_SUBMOD0?SM_GLOBAL_FLAG_MOD
008097H   0080AFH   000019H   BYTE   UNIT     CODE           ?PR?_SM_GLOBAL_FLAG_MOD_SUBMOD1?SM_GLOBAL_FLAG_MOD
0080B0H   0080C7H   000018H   BYTE   UNIT     CODE           ?PR?RTC_ENTER_POWERSAVE?RTC
0080C8H   0080DFH   000018H   BYTE   UNIT     CODE           ?PR?RTC_LEAVE_POWERSAVE?RTC
0080E0H   0080F7H   000018H   BYTE   UNIT     CODE           ?PR?ALARM_SWITCH_ON?ALARM
0080F8H   00810FH   000018H   BYTE   UNIT     CODE           ?PR?CLOCK_LEAVE_POWERSAVE?CLOCK
008110H   008127H   000018H   BYTE   UNIT     CODE           ?PR?_TIMER_INC_MIN?TIMER
008128H   00813FH   000018H   BYTE   UNIT     CODE           ?PR?_TIMER_INC_SEC?TIMER
008140H   008157H   000018H   BYTE   UNIT     CODE           ?PR?TIMER_CLR?TIMER
008158H   00816FH   000018H   BYTE   UNIT     CODE           ?PR?_SM_GLOBAL_FLAG_MOD_INIT?SM_GLOBAL_FLAG_MOD
008170H   008187H   000018H   BYTE   UNIT     CODE           ?PR?CMD_DBG
008188H   00819EH   000017H   BYTE   UNIT     CODE           ?PR?COM
00819FH   0081B5H   000017H   BYTE   UNIT     CODE           ?PR?_RTC_CLR_ALARM_INT_FLAG?RTC
0081B6H   0081CCH   000017H   BYTE   UNIT     CODE           ?PR?_I2C_GET?I2C
0081CDH   0081E3H   000017H   BYTE   UNIT     CODE           ?PR?_LED_CLR_BLINK?LED
0081E4H   0081FAH   000017H   BYTE   UNIT     CODE           ?PR?POWER_GET_POWERSAVE_TO?POWER
0081FBH   008211H   000017H   BYTE   UNIT     CODE           ?PR?BEEPER_INC_MUSIC_INDEX?BEEPER
008212H   008228H   000017H   BYTE   UNIT     CODE           ?PR?_CLOCK_IS_LEAP_YEAR?CLOCK
008229H   00823FH   000017H   BYTE   UNIT     CODE           ?PR?LT_TIMER_SWITCH_DISPLAY?LT_TIMER
008240H   008256H   000017H   BYTE   UNIT     CODE           ?PR?SM_FUSE_PARAM
008257H   00826DH   000017H   BYTE   UNIT     CODE           ?PR?DISPLAY_DETONATE?SM_FUSE_DETONATE
00826EH   008283H   000016H   BYTE   UNIT     CODE           ?PR?RTC_ALARM_GET_HOUR?RTC
008284H   008299H   000016H   BYTE   UNIT     CODE           ?PR?RTC_ALARM_GET_HOUR_12?RTC
00829AH   0082AFH   000016H   BYTE   UNIT     CODE           ?PR?RTC_ALARM_GET_MIN?RTC
LX51 LINKER/LOCATER V4.66.87.0                                                        05/30/2018  19:50:23  PAGE 11


0082B0H   0082C5H   000016H   BYTE   UNIT     CODE           ?PR?_RTC_ALARM_SET_DAY?RTC
0082C6H   0082DBH   000016H   BYTE   UNIT     CODE           ?PR?_RTC_ALARM_SET_SEC?RTC
0082DCH   0082F1H   000016H   BYTE   UNIT     CODE           ?PR?I2C_STOP?I2C
0082F2H   008307H   000016H   BYTE   UNIT     CODE           ?PR?_LED_SET_BLINK?LED
008308H   00831DH   000016H   BYTE   UNIT     CODE           ?PR?CLOCK_INC_MONTH?CLOCK
00831EH   008333H   000016H   BYTE   UNIT     CODE           ?PR?CLOCK_LEAVE_SHELL?CLOCK
008334H   008349H   000016H   BYTE   UNIT     CODE           ?PR?TIMER_START?TIMER
00834AH   00835FH   000016H   BYTE   UNIT     CODE           ?PR?_THERMO_PROC?THERMO
008360H   008375H   000016H   BYTE   UNIT     CODE           ?PR?CMD_MPU
008376H   00838AH   000015H   BYTE   UNIT     CODE           ?PR?RTC_ALARM_GET_DATE?RTC
00838BH   00839FH   000015H   BYTE   UNIT     CODE           ?PR?LED_LEAVE_POWERSAVE?LED
0083A0H   0083B4H   000015H   BYTE   UNIT     CODE           ?PR?ALARM
0083B5H   0083C9H   000015H   BYTE   UNIT     CODE           ?PR?CLOCK_INC_YEAR?CLOCK
0083CAH   0083DEH   000015H   BYTE   UNIT     CODE           ?PR?LT_TIMER_ENTER_POWERSAVE?LT_TIMER
0083DFH   0083F3H   000015H   BYTE   UNIT     CODE           ?PR?LT_TIMER_SWITCH_ON?LT_TIMER
0083F4H   008408H   000015H   BYTE   UNIT     CODE           ?PR?_SM_CLOCK_COUNTER_INIT?SM_CLOCK_COUNTER
008409H   00841CH   000014H   BYTE   UNIT     CODE           ?PR?COM_TRY_GET_KEY?COM
00841DH   008430H   000014H   BYTE   UNIT     CODE           ?PR?RTC_ALARM_GET_DAY?RTC
008431H   008444H   000014H   BYTE   UNIT     CODE           ?PR?RTC_ALARM_GET_SEC?RTC
008445H   008458H   000014H   BYTE   UNIT     CODE           ?PR?RTC_ALARM_GET_MOD_STR?RTC
008459H   00846CH   000014H   BYTE   UNIT     CODE           ?PR?RTC_GET_SQUARE_RATE_STR?RTC
00846DH   008480H   000014H   BYTE   UNIT     CODE           ?PR?_I2C_PUT?I2C
008481H   008494H   000014H   BYTE   UNIT     CODE           ?PR?TASK_INITIALIZE?TASK
008495H   0084A8H   000014H   BYTE   UNIT     CODE           ?PR?_TIMER_GET_HOUR?TIMER
0084A9H   0084BCH   000014H   BYTE   UNIT     CODE           ?PR?_TIMER_GET_MIN?TIMER
0084BDH   0084D0H   000014H   BYTE   UNIT     CODE           ?PR?_TIMER_GET_SEC?TIMER
0084D1H   0084E4H   000014H   BYTE   UNIT     CODE           ?PR?LT_TIMER_INITIALIZE?LT_TIMER
0084E5H   0084F8H   000014H   BYTE   UNIT     CODE           ?PR?TOGGLE_ALARM_MUSIC?SM_CLOCK_MOD_ALARM
0084F9H   00850CH   000014H   BYTE   UNIT     CODE           ?PR?_SM_FUSE_POWERSAVE_SUBMOD1?SM_FUSE_POWERSAVE
00850DH   008520H   000014H   BYTE   UNIT     CODE           ?PR?CMD_HELP
008521H   008534H   000014H   BYTE   UNIT     CODE           ?PR?GETCHAR?GETCHAR
008535H   008548H   000014H   BYTE   UNIT     CODE           ?PR?_ISSPACE?ISSPACE
008549H   00855BH   000013H   BYTE   UNIT     CODE           ?PR?_TIME_PROC?SM
00855CH   00856EH   000013H   BYTE   UNIT     CODE           ?PR?SCAN_RTC?RTC
00856FH   008581H   000013H   BYTE   UNIT     CODE           ?PR?_RTC_ALARM_SET_HOUR?RTC
008582H   008594H   000013H   BYTE   UNIT     CODE           ?PR?_RTC_ALARM_SET_MIN?RTC
008595H   0085A7H   000013H   BYTE   UNIT     CODE           ?PR?INT_HUB
0085A8H   0085BAH   000013H   BYTE   UNIT     CODE           ?PR?LT_TIMER_INC_DATE?LT_TIMER
0085BBH   0085CDH   000013H   BYTE   UNIT     CODE           ?PR?MPU
0085CEH   0085DFH   000012H   BYTE   UNIT     CODE           ?PR?_RTC_DATE_SET_DAY?RTC
0085E0H   0085F1H   000012H   BYTE   UNIT     CODE           ?PR?I2C_PUTACK?I2C
0085F2H   008603H   000012H   BYTE   UNIT     CODE           ?PR?TIMER_INITIALIZE?TIMER
008604H   008615H   000012H   BYTE   UNIT     CODE           ?PR?__HG_GET_STATE?HG
008616H   008627H   000012H   BYTE   UNIT     CODE           ?PR?HG_GET_STATE?HG
008628H   008639H   000012H   BYTE   UNIT     CODE           ?PR?THERMO_HI_THRESHOLD_DEC?THERMO
00863AH   00864BH   000012H   BYTE   UNIT     CODE           ?PR?THERMO_HI_THRESHOLD_INC?THERMO
00864CH   00865DH   000012H   BYTE   UNIT     CODE           ?PR?THERMO_LO_THRESHOLD_DEC?THERMO
00865EH   00866FH   000012H   BYTE   UNIT     CODE           ?PR?THERMO_LO_THRESHOLD_INC?THERMO
008670H   008681H   000012H   BYTE   UNIT     CODE           ?PR?_MPU_THRESHOLD_INC?MPU
008682H   008693H   000012H   BYTE   UNIT     CODE           ?PR?SM_CLOCK_MOD_ALARM
008694H   0086A5H   000012H   BYTE   UNIT     CODE           ?PR?ROLL_BACK?SM_FUSE_POWERSAVE
0086A6H   0086B6H   000011H   BYTE   UNIT     CODE           ?PR?_SM_SET_STATE?SM
0086B7H   0086C7H   000011H   BYTE   UNIT     CODE           ?PR?_RTC_SET_SQUARE_RATE?RTC
0086C8H   0086D8H   000011H   BYTE   UNIT     CODE           ?PR?I2C_DELAY?I2C
0086D9H   0086E9H   000011H   BYTE   UNIT     CODE           ?PR?KEY
0086EAH   0086FAH   000011H   BYTE   UNIT     CODE           ?PR?LED_CLEAR?LED
0086FBH   00870BH   000011H   BYTE   UNIT     CODE           ?PR?LED_ENTER_POWERSAVE?LED
00870CH   00871CH   000011H   BYTE   UNIT     CODE           ?PR?INT1_ISR?INT_HUB
00871DH   00872CH   000010H   BYTE   UNIT     CODE           ?PR?_GETKEY?COM
00872DH   00873CH   000010H   BYTE   UNIT     CODE           ?PR?RTC_TIME_SET_HOUR_12?RTC
00873DH   00874CH   000010H   BYTE   UNIT     CODE           ?PR?TIMER_SET_LED_AUTOREFRESH?TIMER
00874DH   00875CH   000010H   BYTE   UNIT     CODE           ?PR?_INC_WRITE?SM_CLOCK_MOD_ALARM
00875DH   00876CH   000010H   BYTE   UNIT     CODE           ?PR?_INC_AND_WRITE?SM_CLOCK_MOD_TIME
00876DH   00877CH   000010H   BYTE   UNIT     CODE           ?PR?SM_FUSE_POWERSAVE
00877DH   00878BH   00000FH   BYTE   UNIT     CODE           ?PR?RTC_SET_EOSC?RTC
LX51 LINKER/LOCATER V4.66.87.0                                                        05/30/2018  19:50:23  PAGE 12


00878CH   00879AH   00000FH   BYTE   UNIT     CODE           ?PR?RTC_SET_BBSQW?RTC
00879BH   0087A9H   00000FH   BYTE   UNIT     CODE           ?PR?RTC_SET_CONV?RTC
0087AAH   0087B8H   00000FH   BYTE   UNIT     CODE           ?PR?RTC_SET_INTCN?RTC
0087B9H   0087C7H   00000FH   BYTE   UNIT     CODE           ?PR?RTC_SET_OSF?RTC
0087C8H   0087D6H   00000FH   BYTE   UNIT     CODE           ?PR?RTC_SET_EN32KHZ?RTC
0087D7H   0087E5H   00000FH   BYTE   UNIT     CODE           ?PR?TASK
0087E6H   0087F4H   00000FH   BYTE   UNIT     CODE           ?PR?_LED_CLR_DP?LED
0087F5H   008803H   00000FH   BYTE   UNIT     CODE           ?PR?_LED_SET_DP?LED
008804H   008812H   00000FH   BYTE   UNIT     CODE           ?PR?LT_TIMER_RESET?LT_TIMER
008813H   008821H   00000FH   BYTE   UNIT     CODE           ?PR?MPU_INITIALIZE?MPU
008822H   008830H   00000FH   BYTE   UNIT     CODE           ?PR?_SM_CLOCK_MOD_ALARM_INIT?SM_CLOCK_MOD_ALARM
008831H   00883FH   00000FH   BYTE   UNIT     CODE           ?PR?_SM_FUSE_DETONATE_INIT?SM_FUSE_DETONATE
008840H   00884EH   00000FH   BYTE   UNIT     CODE           ?PR?CMD_TASK
00884FH   00885DH   00000FH   BYTE   UNIT     CODE           ?PR?_ISDIGIT?ISDIGIT
00885EH   00886BH   00000EH   BYTE   UNIT     CODE           ?PR?COM_ENTER_POWERSAVE?COM
00886CH   008879H   00000EH   BYTE   UNIT     CODE           ?PR?ALARM0_INC_MIN?ALARM
00887AH   008887H   00000EH   BYTE   UNIT     CODE           ?PR?ALARM0_INC_HOUR?ALARM
008888H   008895H   00000EH   BYTE   UNIT     CODE           ?PR?_DELAY_10US?MISC
008896H   0088A3H   00000EH   BYTE   UNIT     CODE           ?PR?_DELAY_MS?MISC
0088A4H   0088B1H   00000EH   BYTE   UNIT     CODE           ?PR?_BEEPER_STOP_PLAY?BEEPER
0088B2H   0088BFH   00000EH   BYTE   UNIT     CODE           ?PR?CLOCK_ENTER_POWERSAVE?CLOCK
0088C0H   0088CDH   00000EH   BYTE   UNIT     CODE           ?PR?LT_TIMER_START_RAM?LT_TIMER
0088CEH   0088DBH   00000EH   BYTE   UNIT     CODE           ?PR?_MPU_THRESHOLD_SET?MPU
0088DCH   0088E9H   00000EH   BYTE   UNIT     CODE           ?PR?SM_POWER_PACK_DISPLAY
0088EAH   0088F7H   00000EH   BYTE   UNIT     CODE           ?PR?SM_POWER_PACK_POWERSAVE
0088F8H   008905H   00000EH   BYTE   UNIT     CODE           ?PR?INC_PASSWORD?SM_FUSE_TIMER
008906H   008913H   00000EH   BYTE   UNIT     CODE           ?PR?SM_FUSE_DETONATE
008914H   008920H   00000DH   BYTE   UNIT     CODE           ?PR?RTC_GET_SQUARE_RATE?RTC
008921H   00892DH   00000DH   BYTE   UNIT     CODE           ?PR?HG_POWER_OFF?HG
00892EH   008939H   00000CH   BYTE   UNIT     CODE           ?PR?RTC_DATE_GET_YEAR?RTC
00893AH   008945H   00000CH   BYTE   UNIT     CODE           ?PR?RTC_DATE_GET_MONTH?RTC
008946H   008951H   00000CH   BYTE   UNIT     CODE           ?PR?TIMER_ENTER_POWERSAVE?TIMER
008952H   00895DH   00000CH   BYTE   UNIT     CODE           ?PR?FUSE_INITIALIZE?FUSE
00895EH   008969H   00000CH   BYTE   UNIT     CODE           ?PR?HG_CB_SET_ENABLE?HG
00896AH   008975H   00000CH   BYTE   UNIT     CODE           ?PR?HG_INITIALIZE?HG
008976H   008981H   00000CH   BYTE   UNIT     CODE           ?PR?LT_TIMER_STOP_RAM?LT_TIMER
008982H   00898DH   00000CH   BYTE   UNIT     CODE           ?PR?THERMO_INITIALIZE?THERMO
00898EH   008999H   00000CH   BYTE   UNIT     CODE           ?PR?THERMO_HI_THRESHOLD_REACH_TOP?THERMO
00899AH   0089A5H   00000CH   BYTE   UNIT     CODE           ?PR?THERMO_LO_THRESHOLD_REACH_TOP?THERMO
0089A6H   0089B1H   00000CH   BYTE   UNIT     CODE           ?PR?_CMD_NULL?SHELL
0089B2H   0089BDH   00000CH   BYTE   UNIT     CODE           ?PR?_SM_POWER_PACK_POWERSAVE_INIT?SM_POWER_PACK_POWERSAVE
0089BEH   0089C8H   00000BH   BYTE   UNIT     CODE           ?PR?_SM_SET_SUB_STATE?SM
0089C9H   0089D3H   00000BH   BYTE   UNIT     CODE           ?PR?I2C_START?I2C
0089D4H   0089DEH   00000BH   BYTE   UNIT     CODE           ?PR?CLOCK_INC_MIN?CLOCK
0089DFH   0089E9H   00000BH   BYTE   UNIT     CODE           ?PR?CLOCK_INC_HOUR?CLOCK
0089EAH   0089F4H   00000BH   BYTE   UNIT     CODE           ?PR?HG
0089F5H   0089FFH   00000BH   BYTE   UNIT     CODE           ?PR?LT_TIMER_INC_YEAR?LT_TIMER
008A00H   008A0AH   00000BH   BYTE   UNIT     CODE           ?PR?LT_TIMER_INC_MONTH?LT_TIMER
008A0BH   008A15H   00000BH   BYTE   UNIT     CODE           ?PR?LT_TIMER_INC_HOUR?LT_TIMER
008A16H   008A20H   00000BH   BYTE   UNIT     CODE           ?PR?LT_TIMER_INC_MIN?LT_TIMER
008A21H   008A2BH   00000BH   BYTE   UNIT     CODE           ?PR?LT_TIMER_INC_SEC?LT_TIMER
008A2CH   008A36H   00000BH   BYTE   UNIT     CODE           ?PR?THERMO_HI_THRESHOLD_REACH_BOTTOM?THERMO
008A37H   008A41H   00000BH   BYTE   UNIT     CODE           ?PR?THERMO_LO_THRESHOLD_REACH_BOTTOM?THERMO
008A42H   008A4CH   00000BH   BYTE   UNIT     CODE           ?PR?CMD_SERIAL
008A4DH   008A56H   00000AH   BYTE   UNIT     CODE           ?PR?RTC_TEST_EOSC?RTC
008A57H   008A60H   00000AH   BYTE   UNIT     CODE           ?PR?RTC_TEST_BBSQW?RTC
008A61H   008A6AH   00000AH   BYTE   UNIT     CODE           ?PR?RTC_TEST_CONV?RTC
008A6BH   008A74H   00000AH   BYTE   UNIT     CODE           ?PR?RTC_TEST_INTCN?RTC
008A75H   008A7EH   00000AH   BYTE   UNIT     CODE           ?PR?RTC_TEST_OSF?RTC
008A7FH   008A88H   00000AH   BYTE   UNIT     CODE           ?PR?RTC_TEST_EN32KHZ?RTC
008A89H   008A92H   00000AH   BYTE   UNIT     CODE           ?PR?RTC_TEST_BSY?RTC
008A93H   008A9CH   00000AH   BYTE   UNIT     CODE           ?PR?I2C_INIT?I2C
008A9DH   008AA6H   00000AH   BYTE   UNIT     CODE           ?PR?I2C
008AA7H   008AB0H   00000AH   BYTE   UNIT     CODE           ?PR?INTERNAL_DELAY_MS?MISC
008AB1H   008ABAH   00000AH   BYTE   UNIT     CODE           ?PR?THERMO_ENABLE?THERMO
LX51 LINKER/LOCATER V4.66.87.0                                                        05/30/2018  19:50:23  PAGE 13


008ABBH   008AC4H   00000AH   BYTE   UNIT     CODE           ?PR?_INC_AND_WRITE?SM_CLOCK_COUNTER
008AC5H   008ACEH   00000AH   BYTE   UNIT     CODE           ?PR?_INC_AND_WRITE?SM_FUSE_PARAM
008ACFH   008AD8H   00000AH   BYTE   UNIT     CODE           ?PR?_SM_FUSE_POWERSAVE_INIT?SM_FUSE_POWERSAVE
008AD9H   008AE1H   000009H   BYTE   UNIT     CODE           ?PR?_RTC_TIME_SET_MIN?RTC
008AE2H   008AEAH   000009H   BYTE   UNIT     CODE           ?PR?KEY_ENTER_POWERSAVE?KEY
008AEBH   008AF3H   000009H   BYTE   UNIT     CODE           ?PR?KEY_LEAVE_POWERSAVE?KEY
008AF4H   008AFCH   000009H   BYTE   UNIT     CODE           ?PR?ALARM_INITIALIZE?ALARM
008AFDH   008B05H   000009H   BYTE   UNIT     CODE           ?PR?ALARM_ENTER_POWERSAVE?ALARM
008B06H   008B0EH   000009H   BYTE   UNIT     CODE           ?PR?ALARM_LEAVE_POWERSAVE?ALARM
008B0FH   008B17H   000009H   BYTE   UNIT     CODE           ?PR?POWER_RESET_POWERSAVE_TO?POWER
008B18H   008B20H   000009H   BYTE   UNIT     CODE           ?PR?BEEPER_ENTER_POWERSAVE?BEEPER
008B21H   008B29H   000009H   BYTE   UNIT     CODE           ?PR?BEEPER_LEAVE_POWERSAVE?BEEPER
008B2AH   008B32H   000009H   BYTE   UNIT     CODE           ?PR?CLOCK_ENABLE_INTERRUPT?CLOCK
008B33H   008B3BH   000009H   BYTE   UNIT     CODE           ?PR?TIMER_LEAVE_POWERSAVE?TIMER
008B3CH   008B44H   000009H   BYTE   UNIT     CODE           ?PR?FUSE_ENTER_POWERSAVE?FUSE
008B45H   008B4DH   000009H   BYTE   UNIT     CODE           ?PR?FUSE_LEAVE_POWERSAVE?FUSE
008B4EH   008B56H   000009H   BYTE   UNIT     CODE           ?PR?HG_ENTER_POWERSAVE?HG
008B57H   008B5FH   000009H   BYTE   UNIT     CODE           ?PR?HG_LEAVE_POWERSAVE?HG
008B60H   008B68H   000009H   BYTE   UNIT     CODE           ?PR?THERMO_ENTER_POWERSAVE?THERMO
008B69H   008B71H   000009H   BYTE   UNIT     CODE           ?PR?THERMO_LEAVE_POWERSAVE?THERMO
008B72H   008B7AH   000009H   BYTE   UNIT     CODE           ?PR?DELAY_TASK_INITIALIZE?DELAY_TASK
008B7BH   008B83H   000009H   BYTE   UNIT     CODE           ?PR?MPU_ENTER_POWERSAVE?MPU
008B84H   008B8CH   000009H   BYTE   UNIT     CODE           ?PR?MPU_LEAVE_POWERSAVE?MPU
008B8DH   008B95H   000009H   BYTE   UNIT     CODE           ?PR?RESET_AUTO_SWITCH?SM_CLOCK_DISPLAY
008B96H   008B9DH   000008H   BYTE   UNIT     CODE           ?PR?__RTC_GET_MIN_SEC?RTC
008B9EH   008BA5H   000008H   BYTE   UNIT     CODE           ?PR?RTC_TIME_GET_HOUR?RTC
008BA6H   008BADH   000008H   BYTE   UNIT     CODE           ?PR?RTC_TIME_GET_HOUR_12?RTC
008BAEH   008BB5H   000008H   BYTE   UNIT     CODE           ?PR?RTC_TIME_GET_MIN?RTC
008BB6H   008BBDH   000008H   BYTE   UNIT     CODE           ?PR?RTC_TIME_GET_SEC?RTC
008BBEH   008BC5H   000008H   BYTE   UNIT     CODE           ?PR?_RTC_DATE_SET_YEAR?RTC
008BC6H   008BCDH   000008H   BYTE   UNIT     CODE           ?PR?_RTC_DATE_SET_MONTH?RTC
008BCEH   008BD5H   000008H   BYTE   UNIT     CODE           ?PR?RTC_DATE_GET_DATE?RTC
008BD6H   008BDDH   000008H   BYTE   UNIT     CODE           ?PR?THERMO_HI_THRESHOLD_RESET?THERMO
008BDEH   008BE5H   000008H   BYTE   UNIT     CODE           ?PR?THERMO_LO_THRESHOLD_RESET?THERMO
008BE6H   008BEDH   000008H   BYTE   UNIT     CODE           ?PR?ROM_IS_FACTORY_RESET?ROM
008BEEH   008BF5H   000008H   BYTE   UNIT     CODE           ?PR?MPU_THRESHOLD_RESET?MPU
008BF6H   008BFCH   000007H   BYTE   UNIT     CODE           ?PR?__RTC_GET_HOUR_12?RTC
008BFDH   008C03H   000007H   BYTE   UNIT     CODE           ?PR?SM_CLOCK_ALARM
008C04H   008C09H   000006H   BYTE   UNIT     CODE           ?PR?_RTC_TIME_SET_HOUR?RTC
008C0AH   008C0FH   000006H   BYTE   UNIT     CODE           ?PR?_RTC_TIME_SET_SEC?RTC
008C10H   008C15H   000006H   BYTE   UNIT     CODE           ?PR?RTC_DATE_GET_DAY?RTC
008C16H   008C1BH   000006H   BYTE   UNIT     CODE           ?PR?ALARM0_GET_DAY_MASK?ALARM
008C1CH   008C21H   000006H   BYTE   UNIT     CODE           ?PR?ALARM0_GET_MIN?ALARM
008C22H   008C27H   000006H   BYTE   UNIT     CODE           ?PR?ALARM0_GET_HOUR?ALARM
008C28H   008C2DH   000006H   BYTE   UNIT     CODE           ?PR?POWER_GET_POWERSAVE_TO_S?POWER
008C2EH   008C33H   000006H   BYTE   UNIT     CODE           ?PR?INTERNAL_DELAY_10US?MISC
008C34H   008C39H   000006H   BYTE   UNIT     CODE           ?PR?BEEPER_GET_MUSIC_TO?BEEPER
008C3AH   008C3FH   000006H   BYTE   UNIT     CODE           ?PR?BEEPER_GET_MUSIC_INDEX?BEEPER
008C40H   008C45H   000006H   BYTE   UNIT     CODE           ?PR?_CLOCK_SWITCH_DISPLAY_MODE?CLOCK
008C46H   008C4BH   000006H   BYTE   UNIT     CODE           ?PR?CLOCK_GET_DATE?CLOCK
008C4CH   008C51H   000006H   BYTE   UNIT     CODE           ?PR?CLOCK_GET_DAY?CLOCK
008C52H   008C57H   000006H   BYTE   UNIT     CODE           ?PR?CLOCK_GET_MONTH?CLOCK
008C58H   008C5DH   000006H   BYTE   UNIT     CODE           ?PR?_TIMER_SET_MODE?TIMER
008C5EH   008C63H   000006H   BYTE   UNIT     CODE           ?PR?LT_TIMER_GET_MONTH?LT_TIMER
008C64H   008C69H   000006H   BYTE   UNIT     CODE           ?PR?LT_TIMER_GET_DATE?LT_TIMER
008C6AH   008C6FH   000006H   BYTE   UNIT     CODE           ?PR?MPU_THRESHOLD_GET?MPU
008C70H   008C74H   000005H   BYTE   UNIT     CODE           ?PR?ALARM1_SET_ENABLE?ALARM
008C75H   008C79H   000005H   BYTE   UNIT     CODE           ?PR?BEEPER_SET_BEEP_ENABLE?BEEPER
008C7AH   008C7EH   000005H   BYTE   UNIT     CODE           ?PR?CLOCK_DISPLAY?CLOCK
008C7FH   008C83H   000005H   BYTE   UNIT     CODE           ?PR?CLOCK_SET_HOUR_12?CLOCK
008C84H   008C88H   000005H   BYTE   UNIT     CODE           ?PR?CLOCK_GET_MS39?CLOCK
008C89H   008C8DH   000005H   BYTE   UNIT     CODE           ?PR?CLOCK_GET_SEC_256?CLOCK
008C8EH   008C92H   000005H   BYTE   UNIT     CODE           ?PR?CLOCK_GET_SEC?CLOCK
008C93H   008C97H   000005H   BYTE   UNIT     CODE           ?PR?CLOCK_CLR_SEC?CLOCK
008C98H   008C9CH   000005H   BYTE   UNIT     CODE           ?PR?CLOCK_GET_MIN?CLOCK
LX51 LINKER/LOCATER V4.66.87.0                                                        05/30/2018  19:50:23  PAGE 14


008C9DH   008CA1H   000005H   BYTE   UNIT     CODE           ?PR?CLOCK_GET_HOUR?CLOCK
008CA2H   008CA6H   000005H   BYTE   UNIT     CODE           ?PR?CLOCK_GET_YEAR?CLOCK
008CA7H   008CABH   000005H   BYTE   UNIT     CODE           ?PR?LT_TIMER_SET_HOUR_12?LT_TIMER
008CACH   008CB0H   000005H   BYTE   UNIT     CODE           ?PR?LT_TIMER_GET_YEAR?LT_TIMER
008CB1H   008CB5H   000005H   BYTE   UNIT     CODE           ?PR?LT_TIMER_GET_HOUR?LT_TIMER
008CB6H   008CBAH   000005H   BYTE   UNIT     CODE           ?PR?LT_TIMER_GET_MIN?LT_TIMER
008CBBH   008CBFH   000005H   BYTE   UNIT     CODE           ?PR?LT_TIMER_GET_SEC?LT_TIMER
008CC0H   008CC4H   000005H   BYTE   UNIT     CODE           ?PR?DEBUG_ONOFF?DEBUG
008CC5H   008CC8H   000004H   BYTE   UNIT     CODE           ?PR?POWER_5V_GET_ENABLE?POWER
008CC9H   008CCBH   000003H   BYTE   UNIT     CODE           ?PR?_NULL_PROC?SM
008CCCH   008CCEH   000003H   BYTE   UNIT     CODE           ?PR?RTC_IS_LT_TIMER?RTC
008CCFH   008CD1H   000003H   BYTE   UNIT     CODE           ?PR?ALARM0_GET_HOUR_12?ALARM
008CD2H   008CD4H   000003H   BYTE   UNIT     CODE           ?PR?ALARM1_TEST_ENABLE?ALARM
008CD5H   008CD7H   000003H   BYTE   UNIT     CODE           ?PR?POWER_TEST_FLAG?POWER
008CD8H   008CDAH   000003H   BYTE   UNIT     CODE           ?PR?POWER_SET_FLAG?POWER
008CDBH   008CDDH   000003H   BYTE   UNIT     CODE           ?PR?POWER_CLR_FLAG?POWER
008CDEH   008CE0H   000003H   BYTE   UNIT     CODE           ?PR?POWER_GET_VOLUME?POWER
008CE1H   008CE3H   000003H   BYTE   UNIT     CODE           ?PR?BEEPER_GET_BEEP_ENABLE?BEEPER
008CE4H   008CE6H   000003H   BYTE   UNIT     CODE           ?PR?BEEPER_STOP_MUSIC?BEEPER
008CE7H   008CE9H   000003H   BYTE   UNIT     CODE           ?PR?CLOCK_GET_HOUR_12?CLOCK
008CEAH   008CECH   000003H   BYTE   UNIT     CODE           ?PR?CLOCK_ENTER_SHELL?CLOCK
008CEDH   008CEFH   000003H   BYTE   UNIT     CODE           ?PR?TIMER_STOP?TIMER
008CF0H   008CF2H   000003H   BYTE   UNIT     CODE           ?PR?LT_TIMER_GET_HOUR_12?LT_TIMER
008CF3H   008CF5H   000003H   BYTE   UNIT     CODE           ?PR?DEBUG_INITIALIZE?DEBUG
008CF6H   00975CH   000A67H   BYTE   UNIT     CONST          ?CO?SM
00975DH   009E03H   0006A7H   BYTE   UNIT     CONST          ?CO?SHELL
009E04H   00A3BDH   0005BAH   BYTE   UNIT     CONST          ?CO?CLOCK
00A3BEH   00A80DH   000450H   BYTE   UNIT     CONST          ?CO?RTC
00A80EH   00AB9BH   00038EH   BYTE   UNIT     CONST          ?CO?BEEPER
00AB9CH   00AEE7H   00034CH   BYTE   UNIT     CONST          ?CO?SM_FUSE_TEST
00AEE8H   00B17FH   000298H   BYTE   UNIT     CONST          ?CO?INT_HUB
00B180H   00B3CCH   00024DH   BYTE   UNIT     CONST          ?CO?LT_TIMER
00B3CDH   00B5FDH   000231H   BYTE   UNIT     CONST          ?CO?TASK
00B5FEH   00B823H   000226H   BYTE   UNIT     CONST          ?CO?SM_FUSE_TIMER
00B824H   00BA29H   000206H   BYTE   UNIT     CONST          ?CO?SM_CLOCK_MOD_TIME
00BA2AH   00BC1FH   0001F6H   BYTE   UNIT     CONST          ?CO?SM_FUSE_PARAM
00BC20H   00BE06H   0001E7H   BYTE   UNIT     CONST          ?CO?SM_CLOCK_COUNTER
00BE07H   00BFE0H   0001DAH   BYTE   UNIT     CONST          ?CO?SERIAL_HUB
00BFE1H   00C1A7H   0001C7H   BYTE   UNIT     CONST          ?CO?SM_CLOCK_MOD_ALARM
00C1A8H   00C343H   00019CH   BYTE   UNIT     CONST          ?CO?THERMO
00C344H   00C4C4H   000181H   BYTE   UNIT     CONST          ?CO?KEY
00C4C5H   00C63DH   000179H   BYTE   UNIT     CONST          ?CO?SM_GLOBAL_FLAG_MOD
00C63EH   00C7AEH   000171H   BYTE   UNIT     CONST          ?CO?ALARM
00C7AFH   00C8FAH   00014CH   BYTE   UNIT     CONST          ?CO?SM_CLOCK_DISPLAY
00C8FBH   00C9EAH   0000F0H   BYTE   UNIT     CONST          ?CO?SM_CLOCK_TIMER
00C9EBH   00CAD7H   0000EDH   BYTE   UNIT     CONST          ?CO?FUSE
00CAD8H   00CBC2H   0000EBH   BYTE   UNIT     CONST          ?CO?MPU
00CBC3H   00CCA0H   0000DEH   BYTE   UNIT     CONST          ?CO?HG
00CCA1H   00CD68H   0000C8H   BYTE   UNIT     CONST          ?CO?SM_FUSE_POWERSAVE
00CD69H   00CE03H   00009BH   BYTE   UNIT     CONST          ?CO?SM_POWER_PACK_POWERSAVE
00CE04H   00CE96H   000093H   BYTE   UNIT     CONST          ?CO?SM_POWER_PACK_DISPLAY
00CE97H   00CF18H   000082H   BYTE   UNIT     CONST          ?CO?POWER
00CF19H   00CF99H   000081H   BYTE   UNIT     CONST          ?CO?MAIN
00CF9AH   00D019H   000080H   BYTE   UNIT     CONST          ?CO?SM_FUSE_DETONATE
00D01AH   00D096H   00007DH   BYTE   UNIT     CONST          ?CO?CMD_I2C
00D097H   00D112H   00007CH   BYTE   UNIT     CONST          ?CO?ROM
00D113H   00D185H   000073H   BYTE   UNIT     CONST          ?CO?CMD_BEEPER
00D186H   00D1F4H   00006FH   BYTE   UNIT     CONST          ?CO?LED
00D1F5H   00D256H   000062H   BYTE   UNIT     CONST          ?CO?CMD_THERMO
00D257H   00D2B0H   00005AH   BYTE   UNIT     CONST          ?CO?DELAY_TASK
00D2B1H   00D309H   000059H   BYTE   UNIT     CONST          ?CO?TIMER
00D30AH   00D362H   000059H   BYTE   UNIT     CONST          ?CO?SM_CLOCK_ALARM
00D363H   00D3B9H   000057H   BYTE   UNIT     CONST          ?CO?SM_CLOCK_POWERSAVE
00D3BAH   00D3FEH   000045H   BYTE   UNIT     CONST          ?CO?CMD_SM
00D3FFH   00D428H   00002AH   BYTE   UNIT     CONST          ?CO?COM
LX51 LINKER/LOCATER V4.66.87.0                                                        05/30/2018  19:50:23  PAGE 15


00D429H   00D44DH   000025H   BYTE   UNIT     CONST          ?CO?CMD_REBOOT
00D44EH   00D472H   000025H   BYTE   UNIT     CONST          ?CO?CMD_MPU
00D473H   00D490H   00001EH   BYTE   UNIT     CONST          ?CO?CMD_SERIAL
00D491H   00D4ADH   00001DH   BYTE   UNIT     CONST          ?CO?CMD_HELP
00D4AEH   00D4C9H   00001CH   BYTE   UNIT     CONST          ?CO?CMD_DBG
00D4CAH   00D4DFH   000016H   BYTE   UNIT     CONST          ?CO?MOD_COMMON
00D4E0H   00D4E3H   000004H   BYTE   UNIT     CONST          ?CO?CMD_INT

* * * * * * * * * * *  X D A T A   M E M O R Y  * * * * * * * * * * * * *
000000H   00007CH   00007DH   BYTE   UNIT     XDATA          _XDATA_GROUP_
00007DH   0000A5H   000029H   BYTE   UNIT     XDATA          ?XD?SHELL
0000A6H   0000BAH   000015H   BYTE   UNIT     XDATA          ?XD?TIMER
0000BBH   0000C3H   000009H   BYTE   UNIT     XDATA          ?XD?LED
0000C4H   0000C8H   000005H   BYTE   UNIT     XDATA          ?XD?RTC
0000C9H   0000CDH   000005H   BYTE   UNIT     XDATA          ?XD?DELAY_TASK
0000CEH   0000D1H   000004H   BYTE   UNIT     XDATA          ?XD?COM
0000D2H   0000D4H   000003H   BYTE   UNIT     XDATA          ?XD?SM
0000D5H   0000D7H   000003H   BYTE   UNIT     XDATA          ?XD?ALARM
0000D8H   0000DAH   000003H   BYTE   UNIT     XDATA          ?XD?MOD_COMMON
0000DBH   0000DDH   000003H   BYTE   UNIT     XDATA          ?XD?BEEPER
0000DEH   0000DFH   000002H   BYTE   UNIT     XDATA          ?XD?KEY
0000E0H   0000E1H   000002H   BYTE   UNIT     XDATA          ?XD?POWER
0000E2H   0000E3H   000002H   BYTE   UNIT     XDATA          ?XD?SERIAL_HUB
0000E4H   0000E5H   000002H   BYTE   UNIT     XDATA          ?XD?THERMO
0000E6H   0000E6H   000001H   BYTE   UNIT     XDATA          ?XD?CLOCK
0000E7H   0000E7H   000001H   BYTE   UNIT     XDATA          ?XD?HG
0000E8H   0000E8H   000001H   BYTE   UNIT     XDATA          ?XD?MPU
0000E9H   0000E9H   000001H   BYTE   UNIT     XDATA          ?XD?CMD_I2C
0000EAH   0000EAH   000001H   BYTE   UNIT     XDATA          ?XD?GETCHAR



OVERLAY MAP OF MODULE:   Clock (SM)


FUNCTION/MODULE                                BIT_GROUP   DATA_GROUP   XDATA_GROUP
--> CALLED FUNCTION/MODULE                    START  STOP  START  STOP  START  STOP
===================================================================================
?C_C51STARTUP                                 ----- -----  ----- -----  ----- -----
  +--> MAIN/MAIN

MAIN/MAIN                                     ----- -----  ----- -----  ----- -----
  +--> DEBUG_INITIALIZE/DEBUG
  +--> COM_INITIALIZE/COM
  +--> SHOW_VERSION/MAIN
  +--> ROM_INITIALIZE/ROM
  +--> SERIAL_HUB_INITIALIZE/SERIAL_HUB
  +--> RTC_INITIALIZE/RTC
  +--> CLOCK_INITIALIZE/CLOCK
  +--> KEY_INITIALIZE/KEY
  +--> LED_INITIALIZE/LED
  +--> POWER_INITIALIZE/POWER
  +--> ALARM_INITIALIZE/ALARM
  +--> LT_TIMER_INITIALIZE/LT_TIMER
  +--> TIMER_INITIALIZE/TIMER
  +--> BEEPER_INITIALIZE/BEEPER
  +--> THERMO_INITIALIZE/THERMO
  +--> FUSE_INITIALIZE/FUSE
  +--> MPU_INITIALIZE/MPU
  +--> HG_INITIALIZE/HG
  +--> INT_HUB_INITIALIZE/INT_HUB
  +--> TASK_INITIALIZE/TASK
  +--> SM_INITIALIZE/SM
  +--> DELAY_TASK_INITIALIZE/DELAY_TASK
  +--> RUN_TASK/TASK
LX51 LINKER/LOCATER V4.66.87.0                                                        05/30/2018  19:50:23  PAGE 16


  +--> RUN_SHELL/SHELL

DEBUG_INITIALIZE/DEBUG                        ----- -----  ----- -----  ----- -----

COM_INITIALIZE/COM                            ----- -----  ----- -----  ----- -----

SHOW_VERSION/MAIN                             ----- -----  ----- -----  ----- -----
  +--> _DEBUG_PRINTF/DEBUG

_DEBUG_PRINTF/DEBUG                           ----- -----  ----- -----  001CH 0049H
  +--> _VPRINTF/VPRINTF

_VPRINTF/VPRINTF                              ----- -----  ----- -----  004AH 004CH
  +--> PRINTF/PRINTF

PRINTF/PRINTF                                 20H.2 21H.2  0018H 001CH  004DH 007CH
  +--> _PUTCHAR/COM

_PUTCHAR/COM                                  ----- -----  ----- -----  ----- -----
  +--> _PUTBUF/COM

_PUTBUF/COM                                   ----- -----  ----- -----  ----- -----

ROM_INITIALIZE/ROM                            ----- -----  ----- -----  ----- -----
  +--> _DEBUG_PRINTF/DEBUG
  +--> ROM_IS_FACTORY_RESET/ROM
  +--> ROM_RESET/ROM
  +--> ROM_DUMP/ROM

ROM_IS_FACTORY_RESET/ROM                      ----- -----  ----- -----  ----- -----

ROM_RESET/ROM                                 ----- -----  ----- -----  ----- -----
  +--> _ROM_WRITE/ROM

_ROM_WRITE/ROM                                ----- -----  ----- -----  0017H 0018H
  +--> I2C_INIT/I2C
  +--> _I2C_PUT/I2C
  +--> _DEBUG_PRINTF/DEBUG

I2C_INIT/I2C                                  ----- -----  ----- -----  ----- -----
  +--> I2C_DELAY/I2C

I2C_DELAY/I2C                                 ----- -----  ----- -----  ----- -----

_I2C_PUT/I2C                                  ----- -----  ----- -----  0019H 0019H
  +--> _I2C_PUTS/I2C

_I2C_PUTS/I2C                                 ----- -----  ----- -----  001AH 001FH
  +--> I2C_START/I2C
  +--> _I2C_WRITE/I2C
  +--> I2C_GETACK/I2C
  +--> I2C_STOP/I2C

I2C_START/I2C                                 ----- -----  ----- -----  ----- -----
  +--> I2C
  +--> I2C_DELAY/I2C

I2C                                           ----- -----  ----- -----  ----- -----
  +--> I2C_DELAY/I2C

_I2C_WRITE/I2C                                ----- -----  ----- -----  ----- -----
  +--> I2C_DELAY/I2C

I2C_GETACK/I2C                                20H.2 20H.2  ----- -----  ----- -----
  +--> I2C
LX51 LINKER/LOCATER V4.66.87.0                                                        05/30/2018  19:50:23  PAGE 17


  +--> I2C_DELAY/I2C

I2C_STOP/I2C                                  ----- -----  ----- -----  ----- -----
  +--> I2C_DELAY/I2C
  +--> I2C

ROM_DUMP/ROM                                  ----- -----  ----- -----  ----- -----
  +--> _ROM_READ/ROM

_ROM_READ/ROM                                 ----- -----  ----- -----  0016H 0017H
  +--> I2C_INIT/I2C
  +--> _I2C_GET/I2C
  +--> _DEBUG_PRINTF/DEBUG

_I2C_GET/I2C                                  ----- -----  ----- -----  001AH 001CH
  +--> _I2C_GETS/I2C

_I2C_GETS/I2C                                 ----- -----  ----- -----  001DH 0022H
  +--> I2C_START/I2C
  +--> _I2C_WRITE/I2C
  +--> I2C_GETACK/I2C
  +--> I2C_STOP/I2C
  +--> I2C_READ/I2C
  +--> I2C_PUTACK/I2C

I2C_READ/I2C                                  20H.2 20H.2  ----- -----  ----- -----
  +--> I2C_DELAY/I2C
  +--> I2C

I2C_PUTACK/I2C                                20H.2 20H.2  ----- -----  ----- -----
  +--> I2C_DELAY/I2C

SERIAL_HUB_INITIALIZE/SERIAL_HUB              ----- -----  ----- -----  ----- -----
  +--> _DEBUG_PRINTF/DEBUG
  +--> _I2C_PUT/I2C
  +--> SERIAL_CTL_OUT/SERIAL_HUB

SERIAL_CTL_OUT/SERIAL_HUB                     ----- -----  ----- -----  ----- -----
  +--> _I2C_PUT/I2C
  +--> SERIAL_DUMP/SERIAL_HUB

SERIAL_DUMP/SERIAL_HUB                        ----- -----  ----- -----  ----- -----
  +--> _DEBUG_PRINTF/DEBUG
  +--> _SERIAL_TEST_CTL_BIT/SERIAL_HUB
  +--> SERIAL_HUB

_SERIAL_TEST_CTL_BIT/SERIAL_HUB               ----- -----  ----- -----  ----- -----
  +--> SERIAL_HUB

SERIAL_HUB                                    ----- -----  ----- -----  ----- -----

RTC_INITIALIZE/RTC                            ----- -----  ----- -----  0000H 0001H
  +--> _DEBUG_PRINTF/DEBUG
  +--> RTC_DUMP_RAW/RTC
  +--> RTC_DUMP/RTC
  +--> RTC
  +--> _ROM_READ/ROM
  +--> I2C_INIT/I2C
  +--> _RTC_READ_DATA/RTC
  +--> RTC_TIME_GET_HOUR/RTC
  +--> RTC_TIME_SET_HOUR_12/RTC
  +--> _RTC_TIME_SET_HOUR/RTC
  +--> ROM_IS_FACTORY_RESET/ROM
  +--> _RTC_WRITE_DATA/RTC
  +--> RTC_DATE_GET_YEAR/RTC
LX51 LINKER/LOCATER V4.66.87.0                                                        05/30/2018  19:50:23  PAGE 18


  +--> RTC_DATE_GET_MONTH/RTC
  +--> RTC_DATE_GET_DATE/RTC
  +--> _CLOCK_YYMMDD_TO_DAY/CLOCK
  +--> _RTC_DATE_SET_DAY/RTC
  +--> _RTC_ENABLE_ALARM_INT/RTC
  +--> _RTC_CLR_ALARM_INT_FLAG/RTC
  +--> RTC_SET_INTCN/RTC
  +--> RTC_SET_EN32KHZ/RTC
  +--> _RTC_TIME_SET_MIN/RTC
  +--> _RTC_TIME_SET_SEC/RTC
  +--> _RTC_DATE_SET_YEAR/RTC
  +--> _RTC_DATE_SET_MONTH/RTC
  +--> _RTC_DATE_SET_DATE/RTC

RTC_DUMP_RAW/RTC                              ----- -----  ----- -----  0002H 0003H
  +--> _DEBUG_PRINTF/DEBUG
  +--> _I2C_GET/I2C

RTC_DUMP/RTC                                  ----- -----  ----- -----  ----- -----
  +--> _RTC_READ_DATA/RTC
  +--> RTC_DATE_GET_YEAR/RTC
  +--> RTC_DATE_GET_MONTH/RTC
  +--> RTC_DATE_GET_DATE/RTC
  +--> RTC_DATE_GET_DAY/RTC
  +--> _DEBUG_PRINTF/DEBUG
  +--> RTC_TIME_GET_HOUR/RTC
  +--> RTC_TIME_GET_MIN/RTC
  +--> RTC_TIME_GET_SEC/RTC
  +--> RTC_TIME_GET_HOUR_12/RTC
  +--> RTC_ALARM_GET_SEC/RTC
  +--> RTC
  +--> RTC_ALARM_GET_HOUR_12/RTC
  +--> _RTC_TEST_ALARM_INT/RTC
  +--> _RTC_TEST_ALARM_INT_FLAG/RTC
  +--> RTC_TEST_EOSC/RTC
  +--> RTC_TEST_BBSQW/RTC
  +--> RTC_TEST_CONV/RTC
  +--> RTC_GET_SQUARE_RATE_STR/RTC
  +--> RTC_TEST_INTCN/RTC
  +--> RTC_TEST_OSF/RTC
  +--> RTC_TEST_EN32KHZ/RTC
  +--> RTC_TEST_BSY/RTC
  +--> RTC_ALARM_GET_DAY/RTC
  +--> RTC_ALARM_GET_DATE/RTC
  +--> RTC_ALARM_GET_HOUR/RTC
  +--> RTC_ALARM_GET_MIN/RTC
  +--> RTC_ALARM_GET_MOD_STR/RTC

_RTC_READ_DATA/RTC                            ----- -----  ----- -----  0017H 0017H
  +--> RTC
  +--> _I2C_GETS/I2C

RTC                                           ----- -----  ----- -----  ----- -----

RTC_DATE_GET_YEAR/RTC                         ----- -----  ----- -----  ----- -----
  +--> RTC

RTC_DATE_GET_MONTH/RTC                        ----- -----  ----- -----  ----- -----
  +--> RTC

RTC_DATE_GET_DATE/RTC                         ----- -----  ----- -----  ----- -----
  +--> __RTC_GET_DATE/RTC

__RTC_GET_DATE/RTC                            ----- -----  ----- -----  ----- -----
  +--> RTC
LX51 LINKER/LOCATER V4.66.87.0                                                        05/30/2018  19:50:23  PAGE 19



RTC_DATE_GET_DAY/RTC                          ----- -----  ----- -----  ----- -----

RTC_TIME_GET_HOUR/RTC                         ----- -----  ----- -----  ----- -----
  +--> __RTC_GET_HOUR/RTC

__RTC_GET_HOUR/RTC                            ----- -----  ----- -----  ----- -----
  +--> RTC

RTC_TIME_GET_MIN/RTC                          ----- -----  ----- -----  ----- -----
  +--> __RTC_GET_MIN_SEC/RTC

__RTC_GET_MIN_SEC/RTC                         ----- -----  ----- -----  ----- -----
  +--> RTC

RTC_TIME_GET_SEC/RTC                          ----- -----  ----- -----  ----- -----
  +--> __RTC_GET_MIN_SEC/RTC

RTC_TIME_GET_HOUR_12/RTC                      ----- -----  ----- -----  ----- -----
  +--> __RTC_GET_HOUR_12/RTC

__RTC_GET_HOUR_12/RTC                         ----- -----  ----- -----  ----- -----

RTC_ALARM_GET_SEC/RTC                         ----- -----  ----- -----  ----- -----
  +--> RTC

RTC_ALARM_GET_HOUR_12/RTC                     ----- -----  ----- -----  ----- -----
  +--> __RTC_GET_HOUR_12/RTC

_RTC_TEST_ALARM_INT/RTC                       ----- -----  ----- -----  ----- -----

_RTC_TEST_ALARM_INT_FLAG/RTC                  ----- -----  ----- -----  ----- -----

RTC_TEST_EOSC/RTC                             ----- -----  ----- -----  ----- -----

RTC_TEST_BBSQW/RTC                            ----- -----  ----- -----  ----- -----

RTC_TEST_CONV/RTC                             ----- -----  ----- -----  ----- -----

RTC_GET_SQUARE_RATE_STR/RTC                   ----- -----  ----- -----  ----- -----
  +--> RTC_GET_SQUARE_RATE/RTC

RTC_GET_SQUARE_RATE/RTC                       ----- -----  ----- -----  ----- -----

RTC_TEST_INTCN/RTC                            ----- -----  ----- -----  ----- -----

RTC_TEST_OSF/RTC                              ----- -----  ----- -----  ----- -----

RTC_TEST_EN32KHZ/RTC                          ----- -----  ----- -----  ----- -----

RTC_TEST_BSY/RTC                              ----- -----  ----- -----  ----- -----

RTC_ALARM_GET_DAY/RTC                         ----- -----  ----- -----  ----- -----

RTC_ALARM_GET_DATE/RTC                        ----- -----  ----- -----  ----- -----
  +--> __RTC_GET_DATE/RTC

RTC_ALARM_GET_HOUR/RTC                        ----- -----  ----- -----  ----- -----
  +--> __RTC_GET_HOUR/RTC

RTC_ALARM_GET_MIN/RTC                         ----- -----  ----- -----  ----- -----
  +--> __RTC_GET_MIN_SEC/RTC

RTC_ALARM_GET_MOD_STR/RTC                     ----- -----  ----- -----  ----- -----
  +--> RTC_ALARM_GET_MODE/RTC
LX51 LINKER/LOCATER V4.66.87.0                                                        05/30/2018  19:50:23  PAGE 20



RTC_ALARM_GET_MODE/RTC                        ----- -----  ----- -----  ----- -----
  +--> RTC

RTC_TIME_SET_HOUR_12/RTC                      20H.1 20H.1  ----- -----  ----- -----
  +--> RTC
  +--> _RTC_SET_HOUR_12/RTC

_RTC_SET_HOUR_12/RTC                          20H.2 20H.2  ----- -----  0017H 0019H
  +--> RTC
  +--> __RTC_GET_HOUR/RTC
  +--> __RTC_SET_HOUR/RTC

__RTC_SET_HOUR/RTC                            ----- -----  ----- -----  001AH 001CH
  +--> RTC

_RTC_TIME_SET_HOUR/RTC                        ----- -----  ----- -----  ----- -----
  +--> RTC
  +--> __RTC_SET_HOUR/RTC

_RTC_WRITE_DATA/RTC                           ----- -----  ----- -----  0017H 0017H
  +--> I2C_INIT/I2C
  +--> RTC
  +--> _I2C_PUTS/I2C

_CLOCK_YYMMDD_TO_DAY/CLOCK                    ----- -----  ----- -----  0017H 001EH
  +--> CLOCK

CLOCK                                         ----- -----  ----- -----  ----- -----

_RTC_DATE_SET_DAY/RTC                         ----- -----  ----- -----  ----- -----

_RTC_ENABLE_ALARM_INT/RTC                     20H.1 20H.1  ----- -----  ----- -----

_RTC_CLR_ALARM_INT_FLAG/RTC                   ----- -----  ----- -----  ----- -----

RTC_SET_INTCN/RTC                             20H.0 20H.0  ----- -----  ----- -----

RTC_SET_EN32KHZ/RTC                           20H.0 20H.0  ----- -----  ----- -----

_RTC_TIME_SET_MIN/RTC                         ----- -----  ----- -----  ----- -----
  +--> __RTC_SET_MIN_SEC/RTC

__RTC_SET_MIN_SEC/RTC                         ----- -----  ----- -----  0017H 0019H
  +--> RTC

_RTC_TIME_SET_SEC/RTC                         ----- -----  ----- -----  ----- -----
  +--> RTC
  +--> __RTC_SET_MIN_SEC/RTC

_RTC_DATE_SET_YEAR/RTC                        ----- -----  ----- -----  ----- -----
  +--> RTC

_RTC_DATE_SET_MONTH/RTC                       ----- -----  ----- -----  ----- -----
  +--> RTC

_RTC_DATE_SET_DATE/RTC                        ----- -----  ----- -----  0017H 0018H
  +--> RTC_DATE_GET_MONTH/RTC
  +--> _DEBUG_PRINTF/DEBUG
  +--> RTC_DATE_GET_YEAR/RTC
  +--> _CLOCK_IS_LEAP_YEAR/CLOCK
  +--> __RTC_SET_DATE/RTC

_CLOCK_IS_LEAP_YEAR/CLOCK                     ----- -----  ----- -----  ----- -----
  +--> CLOCK
LX51 LINKER/LOCATER V4.66.87.0                                                        05/30/2018  19:50:23  PAGE 21



__RTC_SET_DATE/RTC                            ----- -----  ----- -----  0019H 001BH
  +--> RTC

CLOCK_INITIALIZE/CLOCK                        ----- -----  ----- -----  ----- -----
  +--> _DEBUG_PRINTF/DEBUG
  +--> _CLOCK_SYNC_FROM_RTC/CLOCK
  +--> CLOCK_ENABLE_INTERRUPT/CLOCK
  +--> CLOCK_DUMP/CLOCK

_CLOCK_SYNC_FROM_RTC/CLOCK                    ----- -----  ----- -----  0013H 0013H
  +--> _DEBUG_PRINTF/DEBUG
  +--> _RTC_READ_DATA/RTC
  +--> RTC_TIME_GET_HOUR/RTC
  +--> RTC_TIME_GET_MIN/RTC
  +--> RTC_TIME_GET_SEC/RTC
  +--> RTC_TIME_GET_HOUR_12/RTC
  +--> RTC_DATE_GET_YEAR/RTC
  +--> RTC_DATE_GET_MONTH/RTC
  +--> RTC_DATE_GET_DATE/RTC
  +--> RTC_DATE_GET_DAY/RTC

CLOCK_ENABLE_INTERRUPT/CLOCK                  20H.2 20H.2  ----- -----  ----- -----

CLOCK_DUMP/CLOCK                              ----- -----  ----- -----  ----- -----
  +--> _DEBUG_PRINTF/DEBUG

KEY_INITIALIZE/KEY                            ----- -----  ----- -----  ----- -----
  +--> _DEBUG_PRINTF/DEBUG

LED_INITIALIZE/LED                            ----- -----  ----- -----  ----- -----
  +--> _DEBUG_PRINTF/DEBUG
  +--> LED
  +--> REFRESH_LED/LED
  +--> _DELAY_MS/MISC

LED                                           ----- -----  ----- -----  ----- -----

REFRESH_LED/LED                               ----- -----  ----- -----  ----- -----

_DELAY_MS/MISC                                ----- -----  ----- -----  ----- -----
  +--> INTERNAL_DELAY_MS/MISC

INTERNAL_DELAY_MS/MISC                        ----- -----  ----- -----  ----- -----

POWER_INITIALIZE/POWER                        ----- -----  ----- -----  ----- -----
  +--> _DEBUG_PRINTF/DEBUG
  +--> _ROM_READ/ROM

ALARM_INITIALIZE/ALARM                        ----- -----  ----- -----  ----- -----
  +--> _DEBUG_PRINTF/DEBUG

LT_TIMER_INITIALIZE/LT_TIMER                  ----- -----  ----- -----  ----- -----
  +--> _DEBUG_PRINTF/DEBUG

TIMER_INITIALIZE/TIMER                        ----- -----  ----- -----  ----- -----
  +--> _DEBUG_PRINTF/DEBUG

BEEPER_INITIALIZE/BEEPER                      ----- -----  ----- -----  ----- -----
  +--> _DEBUG_PRINTF/DEBUG
  +--> _ROM_READ/ROM

THERMO_INITIALIZE/THERMO                      ----- -----  ----- -----  ----- -----
  +--> _DEBUG_PRINTF/DEBUG
  +--> THERMO_POWER_OFF/THERMO
LX51 LINKER/LOCATER V4.66.87.0                                                        05/30/2018  19:50:23  PAGE 22



THERMO_POWER_OFF/THERMO                       ----- -----  ----- -----  0015H 0015H
  +--> THERMO_LOAD_CONFIG/THERMO
  +--> _I2C_PUT/I2C
  +--> THERMO_HI_THRESHOLD_RESET/THERMO
  +--> THERMO_LO_THRESHOLD_RESET/THERMO
  +--> THERMO
  +--> _I2C_GET/I2C

THERMO_LOAD_CONFIG/THERMO                     ----- -----  ----- -----  ----- -----
  +--> _DEBUG_PRINTF/DEBUG
  +--> _ROM_READ/ROM

THERMO_HI_THRESHOLD_RESET/THERMO              ----- -----  ----- -----  ----- -----
  +--> _THERMO_HI_THRESHOLD_SET/THERMO

_THERMO_HI_THRESHOLD_SET/THERMO               ----- -----  ----- -----  0016H 0018H
  +--> THERMO
  +--> _DEBUG_PRINTF/DEBUG
  +--> _THERMO_TEMP_TO_HEX/THERMO
  +--> _I2C_PUTS/I2C

THERMO                                        ----- -----  ----- -----  ----- -----

_THERMO_TEMP_TO_HEX/THERMO                    ----- -----  ----- -----  0019H 001AH
  +--> _DEBUG_PRINTF/DEBUG

THERMO_LO_THRESHOLD_RESET/THERMO              ----- -----  ----- -----  ----- -----
  +--> _THERMO_LO_THRESHOLD_SET/THERMO

_THERMO_LO_THRESHOLD_SET/THERMO               ----- -----  ----- -----  0016H 0018H
  +--> _DEBUG_PRINTF/DEBUG
  +--> _THERMO_TEMP_TO_HEX/THERMO
  +--> THERMO
  +--> _I2C_PUTS/I2C

FUSE_INITIALIZE/FUSE                          ----- -----  ----- -----  ----- -----
  +--> _DEBUG_PRINTF/DEBUG
  +--> FUSE_POWER_OFF/FUSE

FUSE_POWER_OFF/FUSE                           ----- -----  ----- -----  ----- -----
  +--> _SERIAL_SET_CTL_BIT/SERIAL_HUB
  +--> SERIAL_CTL_OUT/SERIAL_HUB

_SERIAL_SET_CTL_BIT/SERIAL_HUB                20H.2 20H.2  ----- -----  ----- -----
  +--> SERIAL_HUB

MPU_INITIALIZE/MPU                            ----- -----  ----- -----  ----- -----
  +--> _DEBUG_PRINTF/DEBUG
  +--> MPU_LOAD_CONFIG/MPU
  +--> MPU_POWER_OFF/MPU

MPU_LOAD_CONFIG/MPU                           ----- -----  ----- -----  ----- -----
  +--> _DEBUG_PRINTF/DEBUG
  +--> _ROM_READ/ROM

MPU_POWER_OFF/MPU                             ----- -----  ----- -----  0015H 0015H
  +--> _DEBUG_PRINTF/DEBUG
  +--> _I2C_PUT/I2C
  +--> MPU
  +--> _I2C_GET/I2C

MPU                                           ----- -----  ----- -----  ----- -----

HG_INITIALIZE/HG                              ----- -----  ----- -----  ----- -----
LX51 LINKER/LOCATER V4.66.87.0                                                        05/30/2018  19:50:23  PAGE 23


  +--> _DEBUG_PRINTF/DEBUG
  +--> HG_POWER_OFF/HG

HG_POWER_OFF/HG                               ----- -----  ----- -----  ----- -----
  +--> _SERIAL_SET_CTL_BIT/SERIAL_HUB
  +--> SERIAL_CTL_OUT/SERIAL_HUB

INT_HUB_INITIALIZE/INT_HUB                    ----- -----  ----- -----  0000H 0000H
  +--> _DEBUG_PRINTF/DEBUG
  +--> _I2C_PUT/I2C
  +--> _I2C_GET/I2C

TASK_INITIALIZE/TASK                          ----- -----  ----- -----  ----- -----
  +--> _DEBUG_PRINTF/DEBUG

_TIME_PROC/SM                                 ----- -----  ----- -----  000CH 000CH
  +--> DELAY_TASK_CALL/DELAY_TASK
  +--> _RUN_STATE_MACHINE/SM

DELAY_TASK_CALL/DELAY_TASK                    ----- -----  ----- -----  000DH 000DH
  +--> DELAY_TASK
  +--> _DEBUG_PRINTF/DEBUG

DELAY_TASK                                    ----- -----  ----- -----  ----- -----

_RUN_STATE_MACHINE/SM                         ----- -----  ----- -----  000DH 0010H
  +--> SM
  +--> _DEBUG_PRINTF/DEBUG

SM                                            ----- -----  ----- -----  ----- -----

_SM_CLOCK_DISPLAY_SUBMOD0/SM_CLOCK_DISPL+     ----- -----  ----- -----  0011H 0012H
... AY
  +--> SM_CLOCK_DISPLAY
  +--> _DEBUG_PRINTF/DEBUG
  +--> LED_CLEAR/LED
  +--> CLOCK_DISPLAY/CLOCK
  +--> _CLOCK_SWITCH_DISPLAY_MODE/CLOCK
  +--> POWER_RESET_POWERSAVE_TO/POWER
  +--> POWER_TEST_POWERSAVE_TO/POWER

SM_CLOCK_DISPLAY                              ----- -----  ----- -----  ----- -----

LED_CLEAR/LED                                 ----- -----  ----- -----  ----- -----

CLOCK_DISPLAY/CLOCK                           20H.0 20H.0  ----- -----  ----- -----

_CLOCK_SWITCH_DISPLAY_MODE/CLOCK              ----- -----  ----- -----  ----- -----

POWER_RESET_POWERSAVE_TO/POWER                ----- -----  ----- -----  ----- -----
  +--> CLOCK_GET_SEC_256/CLOCK

CLOCK_GET_SEC_256/CLOCK                       ----- -----  ----- -----  ----- -----

POWER_TEST_POWERSAVE_TO/POWER                 ----- -----  ----- -----  ----- -----
  +--> CLOCK_GET_SEC_256/CLOCK
  +--> _DEBUG_PRINTF/DEBUG

_SM_CLOCK_DISPLAY_SUBMOD1/SM_CLOCK_DISPL+     ----- -----  ----- -----  0011H 0011H
... AY
  +--> SM_CLOCK_DISPLAY
  +--> _DEBUG_PRINTF/DEBUG
  +--> _CLOCK_SWITCH_DISPLAY_MODE/CLOCK
  +--> RESET_AUTO_SWITCH/SM_CLOCK_DISPLAY
  +--> POWER_RESET_POWERSAVE_TO/POWER
LX51 LINKER/LOCATER V4.66.87.0                                                        05/30/2018  19:50:23  PAGE 24


  +--> TEST_AUTOSWITCH/SM_CLOCK_DISPLAY

RESET_AUTO_SWITCH/SM_CLOCK_DISPLAY            ----- -----  ----- -----  ----- -----
  +--> CLOCK_GET_SEC_256/CLOCK

TEST_AUTOSWITCH/SM_CLOCK_DISPLAY              ----- -----  ----- -----  ----- -----
  +--> CLOCK_GET_SEC_256/CLOCK
  +--> _DEBUG_PRINTF/DEBUG

_SM_CLOCK_MOD_TIME_INIT/SM_CLOCK_MOD_TIM+     ----- -----  ----- -----  ----- -----
... E
  +--> SM_CLOCK_MOD_TIME
  +--> _DEBUG_PRINTF/DEBUG
  +--> CLOCK_DISPLAY/CLOCK
  +--> _DISPLAY_LOGO/MOD_COMMON

SM_CLOCK_MOD_TIME                             ----- -----  ----- -----  ----- -----

_DISPLAY_LOGO/MOD_COMMON                      ----- -----  ----- -----  0012H 0013H
  +--> _DEBUG_PRINTF/DEBUG
  +--> LED_CLEAR/LED
  +--> _LED_SET_CODE/LED
  +--> BEEPER_BEEP_BEEP_ALWAYS/BEEPER

_LED_SET_CODE/LED                             ----- -----  ----- -----  ----- -----

BEEPER_BEEP_BEEP_ALWAYS/BEEPER                ----- -----  ----- -----  0014H 0014H
  +--> _DEBUG_PRINTF/DEBUG
  +--> _DELAY_10US/MISC
  +--> _DELAY_MS/MISC

_DELAY_10US/MISC                              ----- -----  ----- -----  ----- -----
  +--> INTERNAL_DELAY_10US/MISC

INTERNAL_DELAY_10US/MISC                      ----- -----  ----- -----  ----- -----

_SM_CLOCK_ALARM/SM_CLOCK_ALARM                ----- -----  ----- -----  0011H 0012H
  +--> _DEBUG_PRINTF/DEBUG
  +--> SM_CLOCK_ALARM
  +--> CLOCK_DISPLAY/CLOCK
  +--> _DISPLAY_ALARM/SM_CLOCK_ALARM
  +--> BEEPER_PLAY_MUSIC/BEEPER
  +--> BEEPER_BEEP_BEEP_ALWAYS/BEEPER

SM_CLOCK_ALARM                                ----- -----  ----- -----  ----- -----

_DISPLAY_ALARM/SM_CLOCK_ALARM                 20H.0 20H.0  ----- -----  0013H 0015H
  +--> LED_CLEAR/LED
  +--> _LED_SET_CODE/LED
  +--> ALARM0_GET_HOUR/ALARM
  +--> ALARM0_GET_MIN/ALARM
  +--> ALARM0_GET_HOUR_12/ALARM
  +--> CLOCK_GET_HOUR/CLOCK
  +--> CLOCK_GET_MIN/CLOCK
  +--> CLOCK_GET_HOUR_12/CLOCK
  +--> _LED_SET_DP/LED
  +--> _LED_CLR_DP/LED

ALARM0_GET_HOUR/ALARM                         ----- -----  ----- -----  ----- -----

ALARM0_GET_MIN/ALARM                          ----- -----  ----- -----  ----- -----

ALARM0_GET_HOUR_12/ALARM                      ----- -----  ----- -----  ----- -----

CLOCK_GET_HOUR/CLOCK                          ----- -----  ----- -----  ----- -----
LX51 LINKER/LOCATER V4.66.87.0                                                        05/30/2018  19:50:23  PAGE 25



CLOCK_GET_MIN/CLOCK                           ----- -----  ----- -----  ----- -----

CLOCK_GET_HOUR_12/CLOCK                       ----- -----  ----- -----  ----- -----

_LED_SET_DP/LED                               ----- -----  ----- -----  ----- -----

_LED_CLR_DP/LED                               ----- -----  ----- -----  ----- -----

BEEPER_PLAY_MUSIC/BEEPER                      ----- -----  ----- -----  ----- -----
  +--> _DEBUG_PRINTF/DEBUG
  +--> __BEEPLER_PLAY/BEEPER

__BEEPLER_PLAY/BEEPER                         20H.0 20H.0  ----- -----  0013H 0018H
  +--> BEEPER
  +--> CLOCK_GET_SEC_256/CLOCK
  +--> _DEBUG_PRINTF/DEBUG
  +--> _BEEPER_STOP_PLAY/BEEPER
  +--> _DELAY_MS/MISC
  +--> _DELAY_10US/MISC

BEEPER                                        ----- -----  ----- -----  ----- -----

_BEEPER_STOP_PLAY/BEEPER                      ----- -----  ----- -----  ----- -----

_SM_CLOCK_POWERSAVE/SM_CLOCK_POWERSAVE        ----- -----  ----- -----  0011H 0012H
  +--> _DEBUG_PRINTF/DEBUG
  +--> POWER_ENTER_POWERSAVE/POWER
  +--> POWER_LEAVE_POWERSAVE/POWER

POWER_ENTER_POWERSAVE/POWER                   ----- -----  ----- -----  ----- -----
  +--> _DEBUG_PRINTF/DEBUG
  +--> POWER_SET_FLAG/POWER
  +--> LED_ENTER_POWERSAVE/LED
  +--> TIMER_ENTER_POWERSAVE/TIMER
  +--> LT_TIMER_ENTER_POWERSAVE/LT_TIMER
  +--> CLOCK_ENTER_POWERSAVE/CLOCK
  +--> RTC_ENTER_POWERSAVE/RTC
  +--> KEY_ENTER_POWERSAVE/KEY
  +--> ALARM_ENTER_POWERSAVE/ALARM
  +--> BEEPER_ENTER_POWERSAVE/BEEPER
  +--> FUSE_ENTER_POWERSAVE/FUSE
  +--> HG_ENTER_POWERSAVE/HG
  +--> MPU_ENTER_POWERSAVE/MPU
  +--> THERMO_ENTER_POWERSAVE/THERMO
  +--> COM_ENTER_POWERSAVE/COM
  +--> POWER_TEST_FLAG/POWER
  +--> COM_LEAVE_POWERSAVE/COM
  +--> _SCAN_INT_HUB_PROC/INT_HUB

POWER_SET_FLAG/POWER                          ----- -----  ----- -----  ----- -----

LED_ENTER_POWERSAVE/LED                       ----- -----  ----- -----  ----- -----
  +--> _DEBUG_PRINTF/DEBUG
  +--> LED
  +--> LED_CLEAR/LED

TIMER_ENTER_POWERSAVE/TIMER                   ----- -----  ----- -----  ----- -----
  +--> _DEBUG_PRINTF/DEBUG
  +--> TIMER_CLR/TIMER

TIMER_CLR/TIMER                               ----- -----  ----- -----  ----- -----

LT_TIMER_ENTER_POWERSAVE/LT_TIMER             ----- -----  ----- -----  ----- -----
  +--> _DEBUG_PRINTF/DEBUG
LX51 LINKER/LOCATER V4.66.87.0                                                        05/30/2018  19:50:23  PAGE 26


  +--> RTC_IS_LT_TIMER/RTC
  +--> LT_TIMER_STOP_RAM/LT_TIMER
  +--> LT_TIMER_START_RTC/LT_TIMER

RTC_IS_LT_TIMER/RTC                           ----- -----  ----- -----  ----- -----

LT_TIMER_STOP_RAM/LT_TIMER                    ----- -----  ----- -----  ----- -----
  +--> _DEBUG_PRINTF/DEBUG

LT_TIMER_START_RTC/LT_TIMER                   ----- -----  ----- -----  ----- -----
  +--> _DEBUG_PRINTF/DEBUG
  +--> _RTC_READ_DATA/RTC
  +--> _RTC_ENABLE_ALARM_INT/RTC
  +--> _RTC_CLR_ALARM_INT_FLAG/RTC
  +--> _RTC_WRITE_DATA/RTC

CLOCK_ENTER_POWERSAVE/CLOCK                   ----- -----  ----- -----  ----- -----
  +--> _DEBUG_PRINTF/DEBUG
  +--> CLOCK_ENABLE_INTERRUPT/CLOCK

RTC_ENTER_POWERSAVE/RTC                       ----- -----  ----- -----  ----- -----
  +--> _DEBUG_PRINTF/DEBUG
  +--> _RTC_READ_DATA/RTC
  +--> RTC_SET_EN32KHZ/RTC
  +--> _RTC_WRITE_DATA/RTC

KEY_ENTER_POWERSAVE/KEY                       ----- -----  ----- -----  ----- -----
  +--> _DEBUG_PRINTF/DEBUG

ALARM_ENTER_POWERSAVE/ALARM                   ----- -----  ----- -----  ----- -----
  +--> _DEBUG_PRINTF/DEBUG

BEEPER_ENTER_POWERSAVE/BEEPER                 ----- -----  ----- -----  ----- -----
  +--> _DEBUG_PRINTF/DEBUG

FUSE_ENTER_POWERSAVE/FUSE                     ----- -----  ----- -----  ----- -----
  +--> _DEBUG_PRINTF/DEBUG

HG_ENTER_POWERSAVE/HG                         ----- -----  ----- -----  ----- -----
  +--> _DEBUG_PRINTF/DEBUG

MPU_ENTER_POWERSAVE/MPU                       ----- -----  ----- -----  ----- -----
  +--> _DEBUG_PRINTF/DEBUG

THERMO_ENTER_POWERSAVE/THERMO                 ----- -----  ----- -----  ----- -----
  +--> _DEBUG_PRINTF/DEBUG

COM_ENTER_POWERSAVE/COM                       ----- -----  ----- -----  ----- -----
  +--> _DEBUG_PRINTF/DEBUG

POWER_TEST_FLAG/POWER                         ----- -----  ----- -----  ----- -----

COM_LEAVE_POWERSAVE/COM                       ----- -----  ----- -----  ----- -----
  +--> _DEBUG_PRINTF/DEBUG

_SCAN_INT_HUB_PROC/INT_HUB                    ----- -----  ----- -----  0013H 0015H
  +--> _DEBUG_PRINTF/DEBUG
  +--> INT_HUB_DUMP/INT_HUB
  +--> SCAN_RTC/RTC
  +--> INT_HUB_GET_STATUS/INT_HUB
  +--> _INT_HUB_DUMP_EXT_STATUS/INT_HUB
  +--> _SCAN_HG/HG
  +--> _SCAN_FUSE/FUSE
  +--> SCAN_THERMO/THERMO
  +--> SCAN_MPU/MPU
LX51 LINKER/LOCATER V4.66.87.0                                                        05/30/2018  19:50:23  PAGE 27


  +--> INT_HUB

INT_HUB_DUMP/INT_HUB                          ----- -----  ----- -----  ----- -----
  +--> _DEBUG_PRINTF/DEBUG

SCAN_RTC/RTC                                  ----- -----  ----- -----  ----- -----
  +--> _DEBUG_PRINTF/DEBUG
  +--> SCAN_ALARM/ALARM
  +--> SCAN_LT_TIMER/LT_TIMER

SCAN_ALARM/ALARM                              20H.0 20H.1  ----- -----  ----- -----
  +--> _RTC_READ_DATA/RTC
  +--> _RTC_TEST_ALARM_INT_FLAG/RTC
  +--> _RTC_CLR_ALARM_INT_FLAG/RTC
  +--> _RTC_WRITE_DATA/RTC
  +--> CLOCK_GET_DAY/CLOCK
  +--> ALARM
  +--> POWER_TEST_FLAG/POWER
  +--> POWER_CLR_FLAG/POWER
  +--> RTC_TIME_GET_MIN/RTC
  +--> RTC_TIME_GET_SEC/RTC

CLOCK_GET_DAY/CLOCK                           ----- -----  ----- -----  ----- -----

ALARM                                         ----- -----  ----- -----  ----- -----

POWER_CLR_FLAG/POWER                          ----- -----  ----- -----  ----- -----

SCAN_LT_TIMER/LT_TIMER                        20H.0 20H.0  ----- -----  ----- -----
  +--> _DEBUG_PRINTF/DEBUG
  +--> _RTC_READ_DATA/RTC
  +--> _RTC_TEST_ALARM_INT_FLAG/RTC
  +--> _RTC_CLR_ALARM_INT_FLAG/RTC
  +--> _RTC_WRITE_DATA/RTC
  +--> LT_TIMER_GET_YEAR/LT_TIMER
  +--> RTC_DATE_GET_YEAR/RTC
  +--> LT_TIMER_GET_MONTH/LT_TIMER
  +--> RTC_DATE_GET_MONTH/RTC
  +--> POWER_TEST_FLAG/POWER
  +--> POWER_CLR_FLAG/POWER
  +--> LT_TIMER

LT_TIMER_GET_YEAR/LT_TIMER                    ----- -----  ----- -----  ----- -----

LT_TIMER_GET_MONTH/LT_TIMER                   ----- -----  ----- -----  ----- -----

LT_TIMER                                      ----- -----  ----- -----  ----- -----

INT_HUB_GET_STATUS/INT_HUB                    ----- -----  ----- -----  0016H 0018H
  +--> _I2C_GET/I2C
  +--> _DEBUG_PRINTF/DEBUG

_INT_HUB_DUMP_EXT_STATUS/INT_HUB              ----- -----  ----- -----  0016H 0017H
  +--> _DEBUG_PRINTF/DEBUG
  +--> _INT_HUB_TEST_BIT/INT_HUB
  +--> INT_HUB

_INT_HUB_TEST_BIT/INT_HUB                     ----- -----  ----- -----  ----- -----

INT_HUB                                       ----- -----  ----- -----  ----- -----

_SCAN_HG/HG                                   ----- -----  ----- -----  0016H 0018H
  +--> _DEBUG_PRINTF/DEBUG
  +--> __HG_GET_STATE/HG
  +--> HG
LX51 LINKER/LOCATER V4.66.87.0                                                        05/30/2018  19:50:23  PAGE 28


  +--> POWER_TEST_FLAG/POWER
  +--> POWER_CLR_FLAG/POWER

__HG_GET_STATE/HG                             ----- -----  ----- -----  ----- -----

HG                                            ----- -----  ----- -----  ----- -----

_SCAN_FUSE/FUSE                               20H.0 20H.0  ----- -----  0016H 0017H
  +--> _DEBUG_PRINTF/DEBUG
  +--> POWER_TEST_FLAG/POWER
  +--> POWER_CLR_FLAG/POWER

SCAN_THERMO/THERMO                            20H.0 20H.0  ----- -----  0016H 0019H
  +--> _DEBUG_PRINTF/DEBUG
  +--> _I2C_GET/I2C
  +--> THERMO
  +--> POWER_TEST_FLAG/POWER
  +--> POWER_CLR_FLAG/POWER

SCAN_MPU/MPU                                  20H.0 20H.0  ----- -----  ----- -----
  +--> _DEBUG_PRINTF/DEBUG
  +--> MPU_READ_INT_STATUS/MPU
  +--> POWER_TEST_FLAG/POWER
  +--> POWER_CLR_FLAG/POWER

MPU_READ_INT_STATUS/MPU                       ----- -----  ----- -----  0016H 0016H
  +--> _I2C_GET/I2C
  +--> _DEBUG_PRINTF/DEBUG

POWER_LEAVE_POWERSAVE/POWER                   ----- -----  ----- -----  ----- -----
  +--> COM_LEAVE_POWERSAVE/COM
  +--> THERMO_LEAVE_POWERSAVE/THERMO
  +--> MPU_LEAVE_POWERSAVE/MPU
  +--> HG_LEAVE_POWERSAVE/HG
  +--> FUSE_LEAVE_POWERSAVE/FUSE
  +--> BEEPER_LEAVE_POWERSAVE/BEEPER
  +--> ALARM_LEAVE_POWERSAVE/ALARM
  +--> KEY_LEAVE_POWERSAVE/KEY
  +--> RTC_LEAVE_POWERSAVE/RTC
  +--> CLOCK_LEAVE_POWERSAVE/CLOCK
  +--> LT_TIMER_LEAVE_POWERSAVE/LT_TIMER
  +--> TIMER_LEAVE_POWERSAVE/TIMER
  +--> LED_LEAVE_POWERSAVE/LED
  +--> _DEBUG_PRINTF/DEBUG

THERMO_LEAVE_POWERSAVE/THERMO                 ----- -----  ----- -----  ----- -----
  +--> _DEBUG_PRINTF/DEBUG

MPU_LEAVE_POWERSAVE/MPU                       ----- -----  ----- -----  ----- -----
  +--> _DEBUG_PRINTF/DEBUG

HG_LEAVE_POWERSAVE/HG                         ----- -----  ----- -----  ----- -----
  +--> _DEBUG_PRINTF/DEBUG

FUSE_LEAVE_POWERSAVE/FUSE                     ----- -----  ----- -----  ----- -----
  +--> _DEBUG_PRINTF/DEBUG

BEEPER_LEAVE_POWERSAVE/BEEPER                 ----- -----  ----- -----  ----- -----
  +--> _DEBUG_PRINTF/DEBUG

ALARM_LEAVE_POWERSAVE/ALARM                   ----- -----  ----- -----  ----- -----
  +--> _DEBUG_PRINTF/DEBUG

KEY_LEAVE_POWERSAVE/KEY                       ----- -----  ----- -----  ----- -----
  +--> _DEBUG_PRINTF/DEBUG
LX51 LINKER/LOCATER V4.66.87.0                                                        05/30/2018  19:50:23  PAGE 29



RTC_LEAVE_POWERSAVE/RTC                       ----- -----  ----- -----  ----- -----
  +--> _DEBUG_PRINTF/DEBUG
  +--> _RTC_READ_DATA/RTC
  +--> RTC_SET_EN32KHZ/RTC
  +--> _RTC_WRITE_DATA/RTC

CLOCK_LEAVE_POWERSAVE/CLOCK                   ----- -----  ----- -----  ----- -----
  +--> _DEBUG_PRINTF/DEBUG
  +--> _CLOCK_SYNC_FROM_RTC/CLOCK
  +--> CLOCK_ENABLE_INTERRUPT/CLOCK

LT_TIMER_LEAVE_POWERSAVE/LT_TIMER             ----- -----  ----- -----  ----- -----
  +--> _DEBUG_PRINTF/DEBUG
  +--> RTC_IS_LT_TIMER/RTC
  +--> LT_TIMER_STOP_RTC/LT_TIMER
  +--> LT_TIMER_LOAD_FROM_ROM/LT_TIMER
  +--> LT_TIMER_GET_RELATIVE/LT_TIMER
  +--> LT_TIMER
  +--> LT_TIMER_START_RAM/LT_TIMER

LT_TIMER_STOP_RTC/LT_TIMER                    ----- -----  ----- -----  ----- -----
  +--> _DEBUG_PRINTF/DEBUG
  +--> _RTC_READ_DATA/RTC
  +--> _RTC_ENABLE_ALARM_INT/RTC
  +--> _RTC_CLR_ALARM_INT_FLAG/RTC
  +--> _RTC_WRITE_DATA/RTC

LT_TIMER_LOAD_FROM_ROM/LT_TIMER               ----- -----  ----- -----  ----- -----
  +--> _ROM_READ/ROM

LT_TIMER_GET_RELATIVE/LT_TIMER                20H.0 20H.1  ----- -----  ----- -----
  +--> CLOCK_ENABLE_INTERRUPT/CLOCK
  +--> LT_TIMER_SUB_SEC_MIN/LT_TIMER
  +--> LT_TIMER_SUB_MIN_HOUR/LT_TIMER
  +--> LT_TIMER_SUB_HOUR_DATE/LT_TIMER
  +--> LT_TIMER_SUB_DATE/LT_TIMER
  +--> LT_TIMER
  +--> _DEBUG_PRINTF/DEBUG

LT_TIMER_SUB_SEC_MIN/LT_TIMER                 20H.2 20H.2  ----- -----  ----- -----
  +--> CLOCK_GET_SEC/CLOCK

CLOCK_GET_SEC/CLOCK                           ----- -----  ----- -----  ----- -----

LT_TIMER_SUB_MIN_HOUR/LT_TIMER                20H.2 20H.3  ----- -----  ----- -----
  +--> CLOCK_GET_MIN/CLOCK
  +--> LT_TIMER

LT_TIMER_SUB_HOUR_DATE/LT_TIMER               20H.2 20H.3  ----- -----  ----- -----
  +--> CLOCK_GET_HOUR/CLOCK
  +--> LT_TIMER

LT_TIMER_SUB_DATE/LT_TIMER                    20H.2 20H.2  ----- -----  0015H 001AH
  +--> CLOCK_GET_YEAR/CLOCK
  +--> LT_TIMER
  +--> _CLOCK_IS_LEAP_YEAR/CLOCK
  +--> CLOCK_GET_MONTH/CLOCK
  +--> CLOCK_GET_DATE/CLOCK

CLOCK_GET_YEAR/CLOCK                          ----- -----  ----- -----  ----- -----

CLOCK_GET_MONTH/CLOCK                         ----- -----  ----- -----  ----- -----

CLOCK_GET_DATE/CLOCK                          ----- -----  ----- -----  ----- -----
LX51 LINKER/LOCATER V4.66.87.0                                                        05/30/2018  19:50:23  PAGE 30



LT_TIMER_START_RAM/LT_TIMER                   ----- -----  ----- -----  ----- -----
  +--> _DEBUG_PRINTF/DEBUG

TIMER_LEAVE_POWERSAVE/TIMER                   ----- -----  ----- -----  ----- -----
  +--> _DEBUG_PRINTF/DEBUG

LED_LEAVE_POWERSAVE/LED                       ----- -----  ----- -----  ----- -----
  +--> _DEBUG_PRINTF/DEBUG
  +--> LED_CLEAR/LED

_SM_CLOCK_TIMER_INIT/SM_CLOCK_TIMER           ----- -----  ----- -----  ----- -----
  +--> SM_CLOCK_TIMER
  +--> _DEBUG_PRINTF/DEBUG
  +--> CLOCK_DISPLAY/CLOCK
  +--> _DISPLAY_LOGO/MOD_COMMON

SM_CLOCK_TIMER                                ----- -----  ----- -----  ----- -----

_SM_POWER_PACK_DISPLAY_INIT/SM_POWER_PAC+     ----- -----  ----- -----  ----- -----
... K_DISPLAY
  +--> SM_POWER_PACK_DISPLAY
  +--> _DEBUG_PRINTF/DEBUG
  +--> CLOCK_DISPLAY/CLOCK
  +--> ALARM_SWITCH_OFF/ALARM
  +--> _DISPLAY_LOGO/MOD_COMMON

SM_POWER_PACK_DISPLAY                         ----- -----  ----- -----  ----- -----

ALARM_SWITCH_OFF/ALARM                        ----- -----  ----- -----  ----- -----
  +--> _DEBUG_PRINTF/DEBUG
  +--> _RTC_READ_DATA/RTC
  +--> _RTC_ENABLE_ALARM_INT/RTC
  +--> _RTC_WRITE_DATA/RTC
  +--> RTC_DUMP/RTC

_SM_CLOCK_DISPLAY_SUBMOD2/SM_CLOCK_DISPL+     ----- -----  ----- -----  0011H 0011H
... AY
  +--> SM_CLOCK_DISPLAY
  +--> _DEBUG_PRINTF/DEBUG
  +--> _CLOCK_SWITCH_DISPLAY_MODE/CLOCK
  +--> RESET_AUTO_SWITCH/SM_CLOCK_DISPLAY
  +--> POWER_RESET_POWERSAVE_TO/POWER
  +--> TEST_AUTOSWITCH/SM_CLOCK_DISPLAY

_SM_CLOCK_DISPLAY_SUBMOD3/SM_CLOCK_DISPL+     ----- -----  ----- -----  0011H 0011H
... AY
  +--> SM_CLOCK_DISPLAY
  +--> _DEBUG_PRINTF/DEBUG
  +--> CLOCK_DISPLAY/CLOCK
  +--> DISPLAY_TEMP/SM_CLOCK_DISPLAY
  +--> RESET_AUTO_SWITCH/SM_CLOCK_DISPLAY
  +--> POWER_RESET_POWERSAVE_TO/POWER
  +--> TEST_AUTOSWITCH/SM_CLOCK_DISPLAY

DISPLAY_TEMP/SM_CLOCK_DISPLAY                 20H.0 20H.0  ----- -----  0012H 0013H
  +--> _RTC_READ_DATA/RTC
  +--> _RTC_GET_TEMPERATURE/RTC
  +--> _DEBUG_PRINTF/DEBUG
  +--> LED_CLEAR/LED
  +--> _LED_SET_DP/LED
  +--> _LED_SET_CODE/LED
  +--> SM_CLOCK_DISPLAY

_RTC_GET_TEMPERATURE/RTC                      20H.1 20H.1  ----- -----  0014H 001DH
LX51 LINKER/LOCATER V4.66.87.0                                                        05/30/2018  19:50:23  PAGE 31


  +--> RTC

_SM_CLOCK_MOD_TIME_SUBMOD0/SM_CLOCK_MOD_+     ----- -----  ----- -----  0011H 0012H
... TIME
  +--> SM_CLOCK_MOD_TIME
  +--> _DEBUG_PRINTF/DEBUG
  +--> _SM_CLOCK_MOD_TIME/SM_CLOCK_MOD_TIME

_SM_CLOCK_MOD_TIME/SM_CLOCK_MOD_TIME          ----- -----  ----- -----  0013H 0014H
  +--> _ENTER_HHMMSS/SM_CLOCK_MOD_TIME
  +--> _ENTER_YYMMDD/SM_CLOCK_MOD_TIME
  +--> _INC_AND_WRITE/SM_CLOCK_MOD_TIME
  +--> _INC_ONLY/SM_CLOCK_MOD_TIME
  +--> _WRITE_ONLY/SM_CLOCK_MOD_TIME
  +--> UPDATE_HHMMSS/SM_CLOCK_MOD_TIME
  +--> UPDATE_YYMMDD/SM_CLOCK_MOD_TIME

_ENTER_HHMMSS/SM_CLOCK_MOD_TIME               ----- -----  ----- -----  0015H 0015H
  +--> LED_CLEAR/LED
  +--> _LED_SET_BLINK/LED
  +--> UPDATE_HHMMSS/SM_CLOCK_MOD_TIME

_LED_SET_BLINK/LED                            ----- -----  ----- -----  ----- -----

UPDATE_HHMMSS/SM_CLOCK_MOD_TIME               ----- -----  ----- -----  0017H 0019H
  +--> CLOCK_GET_HOUR/CLOCK
  +--> CLOCK_GET_MIN/CLOCK
  +--> CLOCK_GET_SEC/CLOCK
  +--> _LED_SET_DP/LED
  +--> CLOCK_GET_HOUR_12/CLOCK
  +--> _LED_CLR_DP/LED
  +--> _DEBUG_PRINTF/DEBUG
  +--> _LED_SET_CODE/LED
  +--> SM_CLOCK_MOD_TIME

_ENTER_YYMMDD/SM_CLOCK_MOD_TIME               ----- -----  ----- -----  0015H 0015H
  +--> LED_CLEAR/LED
  +--> _LED_SET_BLINK/LED
  +--> UPDATE_YYMMDD/SM_CLOCK_MOD_TIME

UPDATE_YYMMDD/SM_CLOCK_MOD_TIME               ----- -----  ----- -----  0017H 0019H
  +--> CLOCK_GET_YEAR/CLOCK
  +--> CLOCK_GET_MONTH/CLOCK
  +--> CLOCK_GET_DATE/CLOCK
  +--> _LED_SET_DP/LED
  +--> _DEBUG_PRINTF/DEBUG
  +--> _LED_SET_CODE/LED
  +--> SM_CLOCK_MOD_TIME

_INC_AND_WRITE/SM_CLOCK_MOD_TIME              ----- -----  ----- -----  0015H 0015H
  +--> _INC_ONLY/SM_CLOCK_MOD_TIME
  +--> _WRITE_ONLY/SM_CLOCK_MOD_TIME

_INC_ONLY/SM_CLOCK_MOD_TIME                   ----- -----  ----- -----  0016H 0016H
  +--> CLOCK_INC_HOUR/CLOCK
  +--> CLOCK_INC_YEAR/CLOCK
  +--> CLOCK_INC_MIN/CLOCK
  +--> CLOCK_INC_MONTH/CLOCK
  +--> _LED_CLR_BLINK/LED
  +--> CLOCK_CLR_SEC/CLOCK
  +--> CLOCK_INC_DATE/CLOCK
  +--> UPDATE_HHMMSS/SM_CLOCK_MOD_TIME
  +--> UPDATE_YYMMDD/SM_CLOCK_MOD_TIME

CLOCK_INC_HOUR/CLOCK                          ----- -----  ----- -----  ----- -----
LX51 LINKER/LOCATER V4.66.87.0                                                        05/30/2018  19:50:23  PAGE 32



CLOCK_INC_YEAR/CLOCK                          ----- -----  ----- -----  ----- -----
  +--> CLOCK
  +--> _CLOCK_YYMMDD_TO_DAY/CLOCK

CLOCK_INC_MIN/CLOCK                           ----- -----  ----- -----  ----- -----

CLOCK_INC_MONTH/CLOCK                         ----- -----  ----- -----  ----- -----
  +--> CLOCK
  +--> _CLOCK_YYMMDD_TO_DAY/CLOCK

_LED_CLR_BLINK/LED                            ----- -----  ----- -----  ----- -----

CLOCK_CLR_SEC/CLOCK                           ----- -----  ----- -----  ----- -----

CLOCK_INC_DATE/CLOCK                          ----- -----  ----- -----  ----- -----
  +--> _CLOCK_GET_MON_DATE/CLOCK
  +--> CLOCK
  +--> _CLOCK_YYMMDD_TO_DAY/CLOCK

_CLOCK_GET_MON_DATE/CLOCK                     ----- -----  ----- -----  ----- -----
  +--> CLOCK

_WRITE_ONLY/SM_CLOCK_MOD_TIME                 ----- -----  ----- -----  ----- -----
  +--> _CLOCK_SYNC_TO_RTC/CLOCK
  +--> _LED_SET_BLINK/LED

_CLOCK_SYNC_TO_RTC/CLOCK                      ----- -----  ----- -----  0016H 0016H
  +--> _DEBUG_PRINTF/DEBUG
  +--> CLOCK_ENABLE_INTERRUPT/CLOCK
  +--> _RTC_READ_DATA/RTC
  +--> RTC_TIME_SET_HOUR_12/RTC
  +--> _RTC_TIME_SET_HOUR/RTC
  +--> _RTC_TIME_SET_MIN/RTC
  +--> _RTC_TIME_SET_SEC/RTC
  +--> _RTC_DATE_SET_YEAR/RTC
  +--> _RTC_DATE_SET_MONTH/RTC
  +--> _RTC_DATE_SET_DATE/RTC
  +--> _RTC_WRITE_DATA/RTC

_SM_CLOCK_MOD_TIME_SUBMOD1/SM_CLOCK_MOD_+     ----- -----  ----- -----  0011H 0011H
... TIME
  +--> SM_CLOCK_MOD_TIME
  +--> _DEBUG_PRINTF/DEBUG
  +--> _SM_CLOCK_MOD_TIME/SM_CLOCK_MOD_TIME

_SM_CLOCK_MOD_ALARM_INIT/SM_CLOCK_MOD_AL+     ----- -----  ----- -----  ----- -----
... ARM
  +--> SM_CLOCK_MOD_ALARM
  +--> _DEBUG_PRINTF/DEBUG
  +--> _DISPLAY_LOGO/MOD_COMMON

SM_CLOCK_MOD_ALARM                            ----- -----  ----- -----  ----- -----

_SM_CLOCK_MOD_TIME_SUBMOD2/SM_CLOCK_MOD_+     ----- -----  ----- -----  0011H 0011H
... TIME
  +--> SM_CLOCK_MOD_TIME
  +--> _DEBUG_PRINTF/DEBUG
  +--> _SM_CLOCK_MOD_TIME/SM_CLOCK_MOD_TIME

_SM_CLOCK_MOD_TIME_SUBMOD3/SM_CLOCK_MOD_+     ----- -----  ----- -----  0011H 0011H
... TIME
  +--> SM_CLOCK_MOD_TIME
  +--> _DEBUG_PRINTF/DEBUG
  +--> _SM_CLOCK_MOD_TIME/SM_CLOCK_MOD_TIME
LX51 LINKER/LOCATER V4.66.87.0                                                        05/30/2018  19:50:23  PAGE 33



_SM_CLOCK_MOD_TIME_SUBMOD4/SM_CLOCK_MOD_+     ----- -----  ----- -----  0011H 0011H
... TIME
  +--> SM_CLOCK_MOD_TIME
  +--> _DEBUG_PRINTF/DEBUG
  +--> _SM_CLOCK_MOD_TIME/SM_CLOCK_MOD_TIME

_SM_CLOCK_MOD_TIME_SUBMOD5/SM_CLOCK_MOD_+     ----- -----  ----- -----  0011H 0011H
... TIME
  +--> SM_CLOCK_MOD_TIME
  +--> _DEBUG_PRINTF/DEBUG
  +--> _SM_CLOCK_MOD_TIME/SM_CLOCK_MOD_TIME

_SM_CLOCK_MOD_ALARM_SUBMOD0/SM_CLOCK_MOD+     ----- -----  ----- -----  0011H 0012H
... _ALARM
  +--> SM_CLOCK_MOD_ALARM
  +--> _DEBUG_PRINTF/DEBUG
  +--> _ENTER_ALARM/SM_CLOCK_MOD_ALARM
  +--> _INC_WRITE/SM_CLOCK_MOD_ALARM
  +--> _INC_ONLY/SM_CLOCK_MOD_ALARM
  +--> _WRITE_ONLY/SM_CLOCK_MOD_ALARM

_ENTER_ALARM/SM_CLOCK_MOD_ALARM               ----- -----  ----- -----  0013H 0014H
  +--> LED_CLEAR/LED
  +--> _LED_SET_BLINK/LED
  +--> _UPDATE_ALARM/SM_CLOCK_MOD_ALARM

_UPDATE_ALARM/SM_CLOCK_MOD_ALARM              ----- -----  ----- -----  0015H 0018H
  +--> ALARM0_GET_HOUR/ALARM
  +--> ALARM0_GET_MIN/ALARM
  +--> _LED_SET_DP/LED
  +--> ALARM0_GET_HOUR_12/ALARM
  +--> _LED_CLR_DP/LED
  +--> _DEBUG_PRINTF/DEBUG
  +--> _LED_SET_CODE/LED
  +--> _ALARM0_TEST_ENABLE/ALARM
  +--> ALARM1_TEST_ENABLE/ALARM
  +--> BEEPER_GET_MUSIC_INDEX/BEEPER

_ALARM0_TEST_ENABLE/ALARM                     ----- -----  ----- -----  0019H 0019H
  +--> ALARM
  +--> _DEBUG_PRINTF/DEBUG

ALARM1_TEST_ENABLE/ALARM                      ----- -----  ----- -----  ----- -----

BEEPER_GET_MUSIC_INDEX/BEEPER                 ----- -----  ----- -----  ----- -----

_INC_WRITE/SM_CLOCK_MOD_ALARM                 ----- -----  ----- -----  0013H 0013H
  +--> _INC_ONLY/SM_CLOCK_MOD_ALARM
  +--> _WRITE_ONLY/SM_CLOCK_MOD_ALARM

_INC_ONLY/SM_CLOCK_MOD_ALARM                  ----- -----  ----- -----  ----- -----
  +--> _LED_CLR_BLINK/LED
  +--> ALARM0_INC_HOUR/ALARM
  +--> ALARM0_INC_MIN/ALARM
  +--> _UPDATE_ALARM/SM_CLOCK_MOD_ALARM

ALARM0_INC_HOUR/ALARM                         ----- -----  ----- -----  ----- -----

ALARM0_INC_MIN/ALARM                          ----- -----  ----- -----  ----- -----

_WRITE_ONLY/SM_CLOCK_MOD_ALARM                ----- -----  ----- -----  0014H 0014H
  +--> ALARM0_SYNC_TO_RTC/ALARM
  +--> _LED_SET_BLINK/LED
  +--> ALARM0_GET_HOUR/ALARM
LX51 LINKER/LOCATER V4.66.87.0                                                        05/30/2018  19:50:23  PAGE 34


  +--> ALARM0_GET_MIN/ALARM
  +--> ALARM0_GET_DAY_MASK/ALARM
  +--> _ROM_WRITE/ROM

ALARM0_SYNC_TO_RTC/ALARM                      ----- -----  ----- -----  ----- -----
  +--> _DEBUG_PRINTF/DEBUG
  +--> _RTC_READ_DATA/RTC
  +--> _RTC_ALARM_SET_MODE/RTC
  +--> RTC_ALARM_SET_HOUR_12/RTC
  +--> _RTC_ALARM_SET_HOUR/RTC
  +--> _RTC_ALARM_SET_MIN/RTC
  +--> _RTC_ALARM_SET_SEC/RTC
  +--> _RTC_WRITE_DATA/RTC
  +--> _RTC_ENABLE_ALARM_INT/RTC
  +--> _RTC_CLR_ALARM_INT_FLAG/RTC

_RTC_ALARM_SET_MODE/RTC                       ----- -----  ----- -----  ----- -----
  +--> RTC

RTC_ALARM_SET_HOUR_12/RTC                     20H.0 20H.0  ----- -----  ----- -----
  +--> RTC
  +--> _RTC_SET_HOUR_12/RTC

_RTC_ALARM_SET_HOUR/RTC                       ----- -----  ----- -----  ----- -----
  +--> RTC
  +--> __RTC_SET_HOUR/RTC

_RTC_ALARM_SET_MIN/RTC                        ----- -----  ----- -----  ----- -----
  +--> RTC
  +--> __RTC_SET_MIN_SEC/RTC

_RTC_ALARM_SET_SEC/RTC                        ----- -----  ----- -----  ----- -----
  +--> RTC

ALARM0_GET_DAY_MASK/ALARM                     ----- -----  ----- -----  ----- -----

_SM_CLOCK_MOD_ALARM_SUBMOD1/SM_CLOCK_MOD+     ----- -----  ----- -----  0011H 0011H
... _ALARM
  +--> SM_CLOCK_MOD_ALARM
  +--> _DEBUG_PRINTF/DEBUG
  +--> _ENTER_ALARM/SM_CLOCK_MOD_ALARM
  +--> _INC_WRITE/SM_CLOCK_MOD_ALARM
  +--> _INC_ONLY/SM_CLOCK_MOD_ALARM
  +--> _WRITE_ONLY/SM_CLOCK_MOD_ALARM

_SM_CLOCK_DISPLAY_INIT/SM_CLOCK_DISPLAY       ----- -----  ----- -----  ----- -----
  +--> SM_CLOCK_DISPLAY
  +--> _DEBUG_PRINTF/DEBUG
  +--> LT_TIMER_SWITCH_OFF/LT_TIMER
  +--> ALARM_SWITCH_ON/ALARM
  +--> RTC_SET_LT_TIMER/RTC
  +--> POWER_5V_ENABLE/POWER
  +--> _DISPLAY_LOGO/MOD_COMMON

LT_TIMER_SWITCH_OFF/LT_TIMER                  ----- -----  ----- -----  ----- -----
  +--> _DEBUG_PRINTF/DEBUG
  +--> _RTC_READ_DATA/RTC
  +--> _RTC_ENABLE_ALARM_INT/RTC
  +--> _RTC_WRITE_DATA/RTC
  +--> RTC_DUMP/RTC

ALARM_SWITCH_ON/ALARM                         ----- -----  ----- -----  ----- -----
  +--> _DEBUG_PRINTF/DEBUG
  +--> ALARM_LOAD_ROM/ALARM
  +--> ALARM_DUMP/ALARM
LX51 LINKER/LOCATER V4.66.87.0                                                        05/30/2018  19:50:23  PAGE 35


  +--> ALARM0_SYNC_TO_RTC/ALARM
  +--> ALARM1_SYNC_TO_RTC/ALARM
  +--> RTC_DUMP/RTC

ALARM_LOAD_ROM/ALARM                          ----- -----  ----- -----  ----- -----
  +--> _ROM_READ/ROM

ALARM_DUMP/ALARM                              ----- -----  ----- -----  ----- -----
  +--> ALARM
  +--> _DEBUG_PRINTF/DEBUG

ALARM1_SYNC_TO_RTC/ALARM                      ----- -----  ----- -----  ----- -----
  +--> _DEBUG_PRINTF/DEBUG
  +--> _RTC_READ_DATA/RTC
  +--> _RTC_ALARM_SET_MODE/RTC
  +--> RTC_ALARM_SET_HOUR_12/RTC
  +--> _RTC_ALARM_SET_HOUR/RTC
  +--> _RTC_ALARM_SET_MIN/RTC
  +--> _RTC_WRITE_DATA/RTC
  +--> _RTC_ENABLE_ALARM_INT/RTC
  +--> _RTC_CLR_ALARM_INT_FLAG/RTC

RTC_SET_LT_TIMER/RTC                          20H.0 20H.0  ----- -----  ----- -----

POWER_5V_ENABLE/POWER                         20H.1 20H.1  ----- -----  ----- -----
  +--> _DEBUG_PRINTF/DEBUG

_SM_CLOCK_MOD_ALARM_SUBMOD2/SM_CLOCK_MOD+     ----- -----  ----- -----  0011H 0012H
... _ALARM
  +--> SM_CLOCK_MOD_ALARM
  +--> _DEBUG_PRINTF/DEBUG
  +--> _TOGGLE_ALARM/SM_CLOCK_MOD_ALARM
  +--> _ENTER_ALARM/SM_CLOCK_MOD_ALARM

_TOGGLE_ALARM/SM_CLOCK_MOD_ALARM              ----- -----  ----- -----  0013H 0013H
  +--> _ALARM0_TEST_ENABLE/ALARM
  +--> _ALARM0_SET_ENABLE/ALARM
  +--> _UPDATE_ALARM/SM_CLOCK_MOD_ALARM
  +--> _WRITE_ONLY/SM_CLOCK_MOD_ALARM

_ALARM0_SET_ENABLE/ALARM                      20H.0 20H.0  ----- -----  0014H 0014H
  +--> _DEBUG_PRINTF/DEBUG
  +--> ALARM

_SM_CLOCK_MOD_ALARM_SUBMOD3/SM_CLOCK_MOD+     ----- -----  ----- -----  0011H 0011H
... _ALARM
  +--> SM_CLOCK_MOD_ALARM
  +--> _DEBUG_PRINTF/DEBUG
  +--> _ENTER_ALARM/SM_CLOCK_MOD_ALARM
  +--> TOGGLE_ALARM_BS/SM_CLOCK_MOD_ALARM

TOGGLE_ALARM_BS/SM_CLOCK_MOD_ALARM            ----- -----  ----- -----  ----- -----
  +--> ALARM1_TEST_ENABLE/ALARM
  +--> ALARM1_SET_ENABLE/ALARM
  +--> ALARM1_SYNC_TO_RTC/ALARM
  +--> _ROM_WRITE/ROM
  +--> _UPDATE_ALARM/SM_CLOCK_MOD_ALARM

ALARM1_SET_ENABLE/ALARM                       20H.0 20H.0  ----- -----  ----- -----

_SM_CLOCK_MOD_ALARM_SUBMOD4/SM_CLOCK_MOD+     ----- -----  ----- -----  0011H 0011H
... _ALARM
  +--> SM_CLOCK_MOD_ALARM
  +--> _DEBUG_PRINTF/DEBUG
  +--> _ENTER_ALARM/SM_CLOCK_MOD_ALARM
LX51 LINKER/LOCATER V4.66.87.0                                                        05/30/2018  19:50:23  PAGE 36


  +--> TOGGLE_ALARM_MUSIC/SM_CLOCK_MOD_ALARM

TOGGLE_ALARM_MUSIC/SM_CLOCK_MOD_ALARM         ----- -----  ----- -----  ----- -----
  +--> BEEPER_INC_MUSIC_INDEX/BEEPER
  +--> BEEPER_GET_MUSIC_INDEX/BEEPER
  +--> _ROM_WRITE/ROM
  +--> _UPDATE_ALARM/SM_CLOCK_MOD_ALARM

BEEPER_INC_MUSIC_INDEX/BEEPER                 ----- -----  ----- -----  ----- -----
  +--> _DEBUG_PRINTF/DEBUG

_SM_CLOCK_TIMER_SUBMOD0/SM_CLOCK_TIMER        ----- -----  ----- -----  0011H 0013H
  +--> SM_CLOCK_TIMER
  +--> _DEBUG_PRINTF/DEBUG
  +--> _DISPLAY_SLOT/SM_CLOCK_TIMER
  +--> _TIMER_SET_MODE/TIMER
  +--> TIMER_CLR/TIMER

_DISPLAY_SLOT/SM_CLOCK_TIMER                  ----- -----  ----- -----  0014H 0014H
  +--> LED_CLEAR/LED
  +--> _LED_SET_DP/LED
  +--> _TIMER_GET_MIN/TIMER
  +--> _TIMER_GET_SEC/TIMER
  +--> SM_CLOCK_TIMER
  +--> _LED_SET_CODE/LED
  +--> _TIMER_GET_MS10/TIMER

_TIMER_GET_MIN/TIMER                          ----- -----  ----- -----  ----- -----
  +--> TIMER

TIMER                                         ----- -----  ----- -----  ----- -----

_TIMER_GET_SEC/TIMER                          ----- -----  ----- -----  ----- -----
  +--> TIMER

_TIMER_GET_MS10/TIMER                         ----- -----  ----- -----  ----- -----
  +--> TIMER

_TIMER_SET_MODE/TIMER                         ----- -----  ----- -----  ----- -----

_SM_CLOCK_COUNTER_INIT/SM_CLOCK_COUNTER       ----- -----  ----- -----  ----- -----
  +--> SM_CLOCK_COUNTER
  +--> _DEBUG_PRINTF/DEBUG
  +--> _DISPLAY_LOGO/MOD_COMMON

SM_CLOCK_COUNTER                              ----- -----  ----- -----  ----- -----

_SM_CLOCK_TIMER_SUBMOD1/SM_CLOCK_TIMER        ----- -----  ----- -----  0011H 0011H
  +--> SM_CLOCK_TIMER
  +--> _DEBUG_PRINTF/DEBUG
  +--> TIMER_START/TIMER
  +--> TIMER_SET_LED_AUTOREFRESH/TIMER
  +--> _SHOW_SLOT_TITLE/SM_CLOCK_TIMER
  +--> _TIMER_SAVE/TIMER

TIMER_START/TIMER                             ----- -----  ----- -----  ----- -----
  +--> _DEBUG_PRINTF/DEBUG

TIMER_SET_LED_AUTOREFRESH/TIMER               20H.0 20H.0  ----- -----  0014H 0014H

_SHOW_SLOT_TITLE/SM_CLOCK_TIMER               ----- -----  ----- -----  0012H 0012H
  +--> LED_CLEAR/LED
  +--> _LED_SET_CODE/LED
  +--> SM_CLOCK_TIMER

LX51 LINKER/LOCATER V4.66.87.0                                                        05/30/2018  19:50:23  PAGE 37


_TIMER_SAVE/TIMER                             ----- -----  ----- -----  ----- -----

_SM_CLOCK_TIMER_SUBMOD2/SM_CLOCK_TIMER        ----- -----  ----- -----  0011H 0011H
  +--> SM_CLOCK_TIMER
  +--> _DEBUG_PRINTF/DEBUG
  +--> TIMER_STOP/TIMER
  +--> TIMER_SET_LED_AUTOREFRESH/TIMER
  +--> _DISPLAY_SLOT/SM_CLOCK_TIMER
  +--> _SHOW_SLOT_TITLE/SM_CLOCK_TIMER

TIMER_STOP/TIMER                              ----- -----  ----- -----  ----- -----

_SM_CLOCK_COUNTER_SUBMOD0/SM_CLOCK_COUNT+     ----- -----  ----- -----  0011H 0013H
... ER
  +--> SM_CLOCK_COUNTER
  +--> _DEBUG_PRINTF/DEBUG
  +--> _ENTER_HHMMSS/SM_CLOCK_COUNTER
  +--> TIMER_CLR/TIMER
  +--> _TIMER_SET_MODE/TIMER
  +--> TIMER_SET_LED_AUTOREFRESH/TIMER
  +--> UPDATE_HHMMSS/SM_CLOCK_COUNTER
  +--> _INC_AND_WRITE/SM_CLOCK_COUNTER
  +--> _INC_ONLY/SM_CLOCK_COUNTER
  +--> _WRITE_ONLY/SM_CLOCK_COUNTER

_ENTER_HHMMSS/SM_CLOCK_COUNTER                ----- -----  ----- -----  0014H 0014H
  +--> LED_CLEAR/LED
  +--> _LED_SET_BLINK/LED
  +--> UPDATE_HHMMSS/SM_CLOCK_COUNTER

UPDATE_HHMMSS/SM_CLOCK_COUNTER                ----- -----  ----- -----  0015H 0017H
  +--> _TIMER_GET_HOUR/TIMER
  +--> _TIMER_GET_MIN/TIMER
  +--> _TIMER_GET_SEC/TIMER
  +--> _LED_SET_DP/LED
  +--> _DEBUG_PRINTF/DEBUG
  +--> SM_CLOCK_COUNTER
  +--> _LED_SET_CODE/LED

_TIMER_GET_HOUR/TIMER                         ----- -----  ----- -----  ----- -----
  +--> TIMER

_INC_AND_WRITE/SM_CLOCK_COUNTER               ----- -----  ----- -----  ----- -----
  +--> _INC_ONLY/SM_CLOCK_COUNTER
  +--> _WRITE_ONLY/SM_CLOCK_COUNTER

_INC_ONLY/SM_CLOCK_COUNTER                    ----- -----  ----- -----  ----- -----
  +--> _TIMER_INC_HOUR/TIMER
  +--> _TIMER_INC_MIN/TIMER
  +--> _LED_CLR_BLINK/LED
  +--> _TIMER_INC_SEC/TIMER

_TIMER_INC_HOUR/TIMER                         ----- -----  ----- -----  ----- -----
  +--> TIMER

_TIMER_INC_MIN/TIMER                          ----- -----  ----- -----  ----- -----
  +--> TIMER

_TIMER_INC_SEC/TIMER                          ----- -----  ----- -----  ----- -----
  +--> TIMER

_WRITE_ONLY/SM_CLOCK_COUNTER                  ----- -----  ----- -----  ----- -----
  +--> _LED_SET_BLINK/LED

_SM_CLOCK_COUNTER_SUBMOD1/SM_CLOCK_COUNT+     ----- -----  ----- -----  0011H 0011H
LX51 LINKER/LOCATER V4.66.87.0                                                        05/30/2018  19:50:23  PAGE 38


... ER
  +--> SM_CLOCK_COUNTER
  +--> _DEBUG_PRINTF/DEBUG
  +--> UPDATE_HHMMSS/SM_CLOCK_COUNTER
  +--> _ENTER_HHMMSS/SM_CLOCK_COUNTER
  +--> _INC_AND_WRITE/SM_CLOCK_COUNTER
  +--> _INC_ONLY/SM_CLOCK_COUNTER
  +--> _WRITE_ONLY/SM_CLOCK_COUNTER

_SM_CLOCK_COUNTER_SUBMOD2/SM_CLOCK_COUNT+     ----- -----  ----- -----  0011H 0011H
... ER
  +--> SM_CLOCK_COUNTER
  +--> _DEBUG_PRINTF/DEBUG
  +--> UPDATE_HHMMSS/SM_CLOCK_COUNTER
  +--> _ENTER_HHMMSS/SM_CLOCK_COUNTER
  +--> _INC_AND_WRITE/SM_CLOCK_COUNTER
  +--> _INC_ONLY/SM_CLOCK_COUNTER
  +--> _WRITE_ONLY/SM_CLOCK_COUNTER

_SM_CLOCK_COUNTER_SUBMOD3/SM_CLOCK_COUNT+     ----- -----  ----- -----  0011H 0011H
... ER
  +--> SM_CLOCK_COUNTER
  +--> _DEBUG_PRINTF/DEBUG
  +--> _LED_CLR_BLINK/LED
  +--> TIMER_START/TIMER
  +--> TIMER_SET_LED_AUTOREFRESH/TIMER

_SM_CLOCK_COUNTER_SUBMOD4/SM_CLOCK_COUNT+     ----- -----  ----- -----  0011H 0011H
... ER
  +--> SM_CLOCK_COUNTER
  +--> _DEBUG_PRINTF/DEBUG
  +--> TIMER_STOP/TIMER
  +--> TIMER_SET_LED_AUTOREFRESH/TIMER

_SM_CLOCK_COUNTER_SUBMOD5/SM_CLOCK_COUNT+     ----- -----  ----- -----  0011H 0011H
... ER
  +--> SM_CLOCK_COUNTER
  +--> _DEBUG_PRINTF/DEBUG
  +--> TIMER_SET_LED_AUTOREFRESH/TIMER
  +--> TIMER_CLR/TIMER
  +--> BEEPER_BEEP_BEEP_ALWAYS/BEEPER

_SM_POWER_PACK_DISPLAY_SUBMOD0/SM_POWER_+     ----- -----  ----- -----  0011H 0011H
... PACK_DISPLAY
  +--> SM_POWER_PACK_DISPLAY
  +--> _DEBUG_PRINTF/DEBUG
  +--> POWER_5V_ENABLE/POWER
  +--> POWER_RESET_POWERSAVE_TO/POWER
  +--> POWER_5V_GET_ENABLE/POWER
  +--> DISPLAY_POWER_VOLUME/SM_POWER_PACK_DISPLAY
  +--> POWER_TEST_POWERSAVE_TO/POWER

POWER_5V_GET_ENABLE/POWER                     ----- -----  ----- -----  ----- -----

DISPLAY_POWER_VOLUME/SM_POWER_PACK_DISPL+     ----- -----  ----- -----  0012H 0012H
... AY
  +--> POWER_GET_VOLUME/POWER
  +--> LED_CLEAR/LED
  +--> _LED_SET_CODE/LED

POWER_GET_VOLUME/POWER                        ----- -----  ----- -----  ----- -----

_SM_FUSE_TEST_INIT/SM_FUSE_TEST               ----- -----  ----- -----  0011H 0011H
  +--> SM_FUSE_TEST
  +--> _DEBUG_PRINTF/DEBUG
LX51 LINKER/LOCATER V4.66.87.0                                                        05/30/2018  19:50:23  PAGE 39


  +--> CLOCK_DISPLAY/CLOCK
  +--> _DISPLAY_LOGO/MOD_COMMON
  +--> LT_TIMER_SWITCH_ON/LT_TIMER
  +--> RTC_SET_LT_TIMER/RTC
  +--> POWER_5V_ENABLE/POWER

SM_FUSE_TEST                                  ----- -----  ----- -----  ----- -----

LT_TIMER_SWITCH_ON/LT_TIMER                   ----- -----  ----- -----  ----- -----
  +--> _DEBUG_PRINTF/DEBUG
  +--> LT_TIMER_LOAD_FROM_ROM/LT_TIMER
  +--> LT_TIMER_SYNC_TO_RTC/LT_TIMER
  +--> LT_TIMER_STOP_RTC/LT_TIMER
  +--> RTC_DUMP/RTC

LT_TIMER_SYNC_TO_RTC/LT_TIMER                 ----- -----  ----- -----  ----- -----
  +--> LT_TIMER
  +--> _DEBUG_PRINTF/DEBUG
  +--> _RTC_READ_DATA/RTC
  +--> _RTC_ALARM_SET_MODE/RTC
  +--> RTC_ALARM_SET_HOUR_12/RTC
  +--> _RTC_ALARM_SET_DATE/RTC
  +--> _RTC_ALARM_SET_HOUR/RTC
  +--> _RTC_ALARM_SET_MIN/RTC
  +--> _RTC_ALARM_SET_SEC/RTC
  +--> _RTC_WRITE_DATA/RTC

_RTC_ALARM_SET_DATE/RTC                       ----- -----  ----- -----  ----- -----
  +--> RTC
  +--> __RTC_SET_DATE/RTC

_SM_POWER_PACK_POWERSAVE_INIT/SM_POWER_P+     ----- -----  ----- -----  ----- -----
... ACK_POWERSAVE
  +--> SM_POWER_PACK_POWERSAVE
  +--> _DEBUG_PRINTF/DEBUG

SM_POWER_PACK_POWERSAVE                       ----- -----  ----- -----  ----- -----

_SM_POWER_PACK_POWERSAVE_SUBMOD0/SM_POWE+     ----- -----  ----- -----  0011H 0011H
... R_PACK_POWERSAVE
  +--> SM_POWER_PACK_POWERSAVE
  +--> _DEBUG_PRINTF/DEBUG
  +--> POWER_ENTER_POWERSAVE/POWER
  +--> POWER_LEAVE_POWERSAVE/POWER

_SM_FUSE_TEST_SUBMOD0/SM_FUSE_TEST            ----- -----  ----- -----  0011H 0011H
  +--> SM_FUSE_TEST
  +--> _DEBUG_PRINTF/DEBUG
  +--> CLOCK_GET_SEC_256/CLOCK
  +--> FUSE_ENABLE/FUSE
  +--> _FUSE_SET_FUSE_BROKE/FUSE
  +--> FUSE_SET_TRIPWIRE_BROKE/FUSE
  +--> _DISPLAY_TEST/SM_FUSE_TEST

FUSE_ENABLE/FUSE                              20H.1 20H.1  ----- -----  ----- -----
  +--> _DEBUG_PRINTF/DEBUG
  +--> FUSE_POWER_ON/FUSE
  +--> FUSE_POWER_OFF/FUSE

FUSE_POWER_ON/FUSE                            ----- -----  ----- -----  ----- -----
  +--> _SERIAL_SET_CTL_BIT/SERIAL_HUB
  +--> SERIAL_CTL_OUT/SERIAL_HUB

_FUSE_SET_FUSE_BROKE/FUSE                     20H.0 20H.0  ----- -----  0012H 0012H
  +--> _DEBUG_PRINTF/DEBUG
LX51 LINKER/LOCATER V4.66.87.0                                                        05/30/2018  19:50:23  PAGE 40


  +--> _SERIAL_SET_CTL_BIT/SERIAL_HUB
  +--> SERIAL_CTL_OUT/SERIAL_HUB

FUSE_SET_TRIPWIRE_BROKE/FUSE                  20H.0 20H.0  ----- -----  ----- -----
  +--> _DEBUG_PRINTF/DEBUG
  +--> _SERIAL_SET_CTL_BIT/SERIAL_HUB
  +--> SERIAL_CTL_OUT/SERIAL_HUB

_DISPLAY_TEST/SM_FUSE_TEST                    ----- -----  ----- -----  0015H 0018H
  +--> SM_FUSE_TEST
  +--> _DEBUG_PRINTF/DEBUG
  +--> LED_CLEAR/LED
  +--> _LED_SET_DP/LED
  +--> _LED_SET_CODE/LED
  +--> _LED_SET_BLINK/LED

_SM_FUSE_TEST_SUBMOD1/SM_FUSE_TEST            ----- -----  ----- -----  0011H 0011H
  +--> SM_FUSE_TEST
  +--> _DEBUG_PRINTF/DEBUG
  +--> _SM_FUSE_SET/SM_FUSE_TEST

_SM_FUSE_SET/SM_FUSE_TEST                     ----- -----  ----- -----  0012H 0013H
  +--> _ENTER_SET/SM_FUSE_TEST
  +--> _INC_WRITE/SM_FUSE_TEST
  +--> _INC_ONLY/SM_FUSE_TEST
  +--> _WRITE_ONLY/SM_FUSE_TEST

_ENTER_SET/SM_FUSE_TEST                       ----- -----  ----- -----  0014H 0014H
  +--> SM_FUSE_TEST
  +--> _DEBUG_PRINTF/DEBUG
  +--> LED_CLEAR/LED
  +--> _LED_SET_DP/LED
  +--> _LED_SET_BLINK/LED
  +--> _LED_SET_CODE/LED
  +--> _ROM_READ/ROM
  +--> _UPDATE_SET/SM_FUSE_TEST

_UPDATE_SET/SM_FUSE_TEST                      ----- -----  ----- -----  ----- -----
  +--> _LED_SET_CODE/LED
  +--> SM_FUSE_TEST

_INC_WRITE/SM_FUSE_TEST                       ----- -----  ----- -----  0014H 0014H
  +--> _DEBUG_PRINTF/DEBUG
  +--> _INC_ONLY/SM_FUSE_TEST
  +--> _WRITE_ONLY/SM_FUSE_TEST

_INC_ONLY/SM_FUSE_TEST                        ----- -----  ----- -----  0015H 0015H
  +--> SM_FUSE_TEST
  +--> _DEBUG_PRINTF/DEBUG
  +--> _LED_CLR_BLINK/LED
  +--> _THERMO_THRESHOLD_INC/THERMO
  +--> _MPU_THRESHOLD_INC/MPU
  +--> _UPDATE_SET/SM_FUSE_TEST

_THERMO_THRESHOLD_INC/THERMO                  ----- -----  ----- -----  0016H 0016H
  +--> _DEBUG_PRINTF/DEBUG

_MPU_THRESHOLD_INC/MPU                        ----- -----  ----- -----  ----- -----

_WRITE_ONLY/SM_FUSE_TEST                      ----- -----  ----- -----  0015H 0015H
  +--> SM_FUSE_TEST
  +--> _DEBUG_PRINTF/DEBUG
  +--> _LED_SET_BLINK/LED
  +--> _ROM_WRITE/ROM

LX51 LINKER/LOCATER V4.66.87.0                                                        05/30/2018  19:50:23  PAGE 41


_SM_FUSE_PARAM_INIT/SM_FUSE_PARAM             ----- -----  ----- -----  0011H 0011H
  +--> SM_FUSE_PARAM
  +--> _DEBUG_PRINTF/DEBUG
  +--> _DISPLAY_LOGO/MOD_COMMON

SM_FUSE_PARAM                                 ----- -----  ----- -----  ----- -----

_SM_GLOBAL_FLAG_MOD_INIT/SM_GLOBAL_FLAG_+     ----- -----  ----- -----  ----- -----
... MOD
  +--> SM_GLOBAL_FLAG_MOD
  +--> _DEBUG_PRINTF/DEBUG
  +--> LT_TIMER_SWITCH_OFF/LT_TIMER
  +--> _DISPLAY_LOGO/MOD_COMMON

SM_GLOBAL_FLAG_MOD                            ----- -----  ----- -----  ----- -----

_SM_FUSE_TEST_SUBMOD2/SM_FUSE_TEST            ----- -----  ----- -----  0011H 0011H
  +--> SM_FUSE_TEST
  +--> _DEBUG_PRINTF/DEBUG
  +--> _SM_FUSE_TEST_THERMO/SM_FUSE_TEST

_SM_FUSE_TEST_THERMO/SM_FUSE_TEST             ----- -----  ----- -----  0012H 0014H
  +--> SM_FUSE_TEST
  +--> THERMO_ENABLE/THERMO
  +--> THERMO_HI_THRESHOLD_GET/THERMO
  +--> THERMO_LO_THRESHOLD_GET/THERMO
  +--> _ROM_READ/ROM
  +--> _DEBUG_PRINTF/DEBUG
  +--> CLOCK_GET_SEC_256/CLOCK
  +--> THERMO_HI_THRESHOLD_REACH_BOTTOM/THERMO
  +--> THERMO_HI_THRESHOLD_DEC/THERMO
  +--> THERMO_LO_THRESHOLD_REACH_TOP/THERMO
  +--> THERMO_LO_THRESHOLD_INC/THERMO
  +--> _DISPLAY_TEST/SM_FUSE_TEST

THERMO_ENABLE/THERMO                          20H.1 20H.1  ----- -----  ----- -----
  +--> THERMO_POWER_ON/THERMO
  +--> THERMO_POWER_OFF/THERMO

THERMO_POWER_ON/THERMO                        ----- -----  ----- -----  0015H 0015H
  +--> THERMO_LOAD_CONFIG/THERMO
  +--> _I2C_PUT/I2C
  +--> THERMO_HI_THRESHOLD_RESET/THERMO
  +--> THERMO_LO_THRESHOLD_RESET/THERMO
  +--> _DELAY_MS/MISC
  +--> THERMO
  +--> _I2C_GET/I2C
  +--> _DEBUG_PRINTF/DEBUG

THERMO_HI_THRESHOLD_GET/THERMO                ----- -----  ----- -----  0015H 0016H
  +--> THERMO
  +--> _I2C_GETS/I2C
  +--> _THERMO_HEX_TO_TEMP/THERMO

_THERMO_HEX_TO_TEMP/THERMO                    ----- -----  ----- -----  0017H 0017H
  +--> THERMO
  +--> _DEBUG_PRINTF/DEBUG

THERMO_LO_THRESHOLD_GET/THERMO                ----- -----  ----- -----  0015H 0016H
  +--> THERMO
  +--> _I2C_GETS/I2C
  +--> _THERMO_HEX_TO_TEMP/THERMO

THERMO_HI_THRESHOLD_REACH_BOTTOM/THERMO       ----- -----  ----- -----  ----- -----
  +--> THERMO_HI_THRESHOLD_GET/THERMO
LX51 LINKER/LOCATER V4.66.87.0                                                        05/30/2018  19:50:23  PAGE 42


  +--> THERMO

THERMO_HI_THRESHOLD_DEC/THERMO                ----- -----  ----- -----  ----- -----
  +--> THERMO_HI_THRESHOLD_GET/THERMO
  +--> THERMO
  +--> _THERMO_HI_THRESHOLD_SET/THERMO

THERMO_LO_THRESHOLD_REACH_TOP/THERMO          ----- -----  ----- -----  ----- -----
  +--> THERMO_LO_THRESHOLD_GET/THERMO
  +--> THERMO

THERMO_LO_THRESHOLD_INC/THERMO                ----- -----  ----- -----  ----- -----
  +--> THERMO_LO_THRESHOLD_GET/THERMO
  +--> THERMO
  +--> _THERMO_LO_THRESHOLD_SET/THERMO

_SM_FUSE_TEST_SUBMOD3/SM_FUSE_TEST            ----- -----  ----- -----  0011H 0011H
  +--> SM_FUSE_TEST
  +--> _DEBUG_PRINTF/DEBUG
  +--> _SM_FUSE_SET/SM_FUSE_TEST

_SM_FUSE_TEST_SUBMOD4/SM_FUSE_TEST            ----- -----  ----- -----  0011H 0011H
  +--> SM_FUSE_TEST
  +--> _DEBUG_PRINTF/DEBUG
  +--> _SM_FUSE_TEST_THERMO/SM_FUSE_TEST

_SM_FUSE_TEST_SUBMOD5/SM_FUSE_TEST            ----- -----  ----- -----  0011H 0011H
  +--> SM_FUSE_TEST
  +--> _DEBUG_PRINTF/DEBUG
  +--> _SM_FUSE_SET/SM_FUSE_TEST

_SM_FUSE_TEST_SUBMOD6/SM_FUSE_TEST            ----- -----  ----- -----  0011H 0011H
  +--> SM_FUSE_TEST
  +--> _DEBUG_PRINTF/DEBUG
  +--> _SM_FUSE_TEST_HG_MPU/SM_FUSE_TEST

_SM_FUSE_TEST_HG_MPU/SM_FUSE_TEST             ----- -----  ----- -----  0012H 0014H
  +--> HG_ENABLE/HG
  +--> MPU_ENABLE/MPU
  +--> SM_FUSE_TEST
  +--> _ROM_READ/ROM
  +--> MPU_THRESHOLD_GET/MPU
  +--> HG_GET_STATE/HG
  +--> _UPDATE_HG_MASK/SM_FUSE_TEST
  +--> _DISPLAY_TEST/SM_FUSE_TEST
  +--> CLOCK_GET_SEC_256/CLOCK

HG_ENABLE/HG                                  20H.1 20H.1  ----- -----  ----- -----
  +--> _DEBUG_PRINTF/DEBUG
  +--> HG_POWER_ON/HG
  +--> HG_POWER_OFF/HG

HG_POWER_ON/HG                                ----- -----  ----- -----  ----- -----
  +--> _SERIAL_SET_CTL_BIT/SERIAL_HUB
  +--> SERIAL_CTL_OUT/SERIAL_HUB
  +--> HG_CB_SET_ENABLE/HG
  +--> _DELAY_TASK_REG/DELAY_TASK

HG_CB_SET_ENABLE/HG                           ----- -----  ----- -----  ----- -----
  +--> _DEBUG_PRINTF/DEBUG

_DELAY_TASK_REG/DELAY_TASK                    ----- -----  ----- -----  0015H 0018H
  +--> _DEBUG_PRINTF/DEBUG
  +--> DELAY_TASK

LX51 LINKER/LOCATER V4.66.87.0                                                        05/30/2018  19:50:23  PAGE 43


MPU_ENABLE/MPU                                20H.1 20H.1  ----- -----  ----- -----
  +--> _DEBUG_PRINTF/DEBUG
  +--> MPU_POWER_ON/MPU
  +--> MPU_POWER_OFF/MPU

MPU_POWER_ON/MPU                              ----- -----  ----- -----  0015H 0015H
  +--> _DEBUG_PRINTF/DEBUG
  +--> MPU_LOAD_CONFIG/MPU
  +--> _I2C_PUT/I2C
  +--> MPU
  +--> _I2C_GET/I2C

MPU_THRESHOLD_GET/MPU                         ----- -----  ----- -----  ----- -----

HG_GET_STATE/HG                               ----- -----  ----- -----  ----- -----
  +--> HG
  +--> _DEBUG_PRINTF/DEBUG

_UPDATE_HG_MASK/SM_FUSE_TEST                  ----- -----  ----- -----  0015H 0016H
  +--> SM_FUSE_TEST
  +--> _DEBUG_PRINTF/DEBUG

_SM_FUSE_TEST_SUBMOD7/SM_FUSE_TEST            ----- -----  ----- -----  0011H 0011H
  +--> SM_FUSE_TEST
  +--> _DEBUG_PRINTF/DEBUG
  +--> _SM_FUSE_SET/SM_FUSE_TEST

_SM_FUSE_TEST_SUBMOD8/SM_FUSE_TEST            ----- -----  ----- -----  0011H 0011H
  +--> SM_FUSE_TEST
  +--> _DEBUG_PRINTF/DEBUG
  +--> _SM_FUSE_TEST_HG_MPU/SM_FUSE_TEST

_SM_FUSE_PARAM_SUBMOD0/SM_FUSE_PARAM          ----- -----  ----- -----  0011H 0012H
  +--> SM_FUSE_PARAM
  +--> _DEBUG_PRINTF/DEBUG
  +--> LT_TIMER_LOAD_FROM_ROM/LT_TIMER
  +--> _SM_FUSE_PARAM_SET_TIME/SM_FUSE_PARAM

_SM_FUSE_PARAM_SET_TIME/SM_FUSE_PARAM         ----- -----  ----- -----  0013H 0014H
  +--> _ENTER_TIME/SM_FUSE_PARAM
  +--> _INC_AND_WRITE/SM_FUSE_PARAM
  +--> _UPDATE_TIME/SM_FUSE_PARAM
  +--> _INC_ONLY/SM_FUSE_PARAM
  +--> _WRITE_ONLY/SM_FUSE_PARAM

_ENTER_TIME/SM_FUSE_PARAM                     ----- -----  ----- -----  0015H 0015H
  +--> LED_CLEAR/LED
  +--> _LED_SET_BLINK/LED
  +--> _UPDATE_TIME/SM_FUSE_PARAM

_UPDATE_TIME/SM_FUSE_PARAM                    ----- -----  ----- -----  0016H 001BH
  +--> LT_TIMER_GET_YEAR/LT_TIMER
  +--> LT_TIMER_GET_MONTH/LT_TIMER
  +--> LT_TIMER_GET_DATE/LT_TIMER
  +--> _LED_SET_DP/LED
  +--> _DEBUG_PRINTF/DEBUG
  +--> _LED_SET_CODE/LED
  +--> LT_TIMER_GET_HOUR/LT_TIMER
  +--> LT_TIMER_GET_MIN/LT_TIMER
  +--> LT_TIMER_GET_SEC/LT_TIMER
  +--> LT_TIMER_GET_HOUR_12/LT_TIMER
  +--> _LED_CLR_DP/LED

LT_TIMER_GET_DATE/LT_TIMER                    ----- -----  ----- -----  ----- -----

LX51 LINKER/LOCATER V4.66.87.0                                                        05/30/2018  19:50:23  PAGE 44


LT_TIMER_GET_HOUR/LT_TIMER                    ----- -----  ----- -----  ----- -----

LT_TIMER_GET_MIN/LT_TIMER                     ----- -----  ----- -----  ----- -----

LT_TIMER_GET_SEC/LT_TIMER                     ----- -----  ----- -----  ----- -----

LT_TIMER_GET_HOUR_12/LT_TIMER                 ----- -----  ----- -----  ----- -----

_INC_AND_WRITE/SM_FUSE_PARAM                  ----- -----  ----- -----  ----- -----
  +--> _INC_ONLY/SM_FUSE_PARAM
  +--> _WRITE_ONLY/SM_FUSE_PARAM

_INC_ONLY/SM_FUSE_PARAM                       ----- -----  ----- -----  ----- -----
  +--> LT_TIMER_INC_HOUR/LT_TIMER
  +--> LT_TIMER_INC_YEAR/LT_TIMER
  +--> LT_TIMER_INC_MIN/LT_TIMER
  +--> LT_TIMER_INC_MONTH/LT_TIMER
  +--> _LED_CLR_BLINK/LED
  +--> LT_TIMER_INC_SEC/LT_TIMER
  +--> LT_TIMER_INC_DATE/LT_TIMER

LT_TIMER_INC_HOUR/LT_TIMER                    ----- -----  ----- -----  ----- -----

LT_TIMER_INC_YEAR/LT_TIMER                    ----- -----  ----- -----  ----- -----

LT_TIMER_INC_MIN/LT_TIMER                     ----- -----  ----- -----  ----- -----

LT_TIMER_INC_MONTH/LT_TIMER                   ----- -----  ----- -----  ----- -----

LT_TIMER_INC_SEC/LT_TIMER                     ----- -----  ----- -----  ----- -----

LT_TIMER_INC_DATE/LT_TIMER                    ----- -----  ----- -----  ----- -----
  +--> _CLOCK_GET_MON_DATE/CLOCK

_WRITE_ONLY/SM_FUSE_PARAM                     ----- -----  ----- -----  0015H 0015H
  +--> _ROM_WRITE/ROM
  +--> _LT_TIMER_SAVE_TO_ROM/LT_TIMER
  +--> _LED_SET_BLINK/LED

_LT_TIMER_SAVE_TO_ROM/LT_TIMER                ----- -----  ----- -----  0016H 0016H
  +--> LT_TIMER
  +--> _DEBUG_PRINTF/DEBUG
  +--> _ROM_WRITE/ROM

_SM_FUSE_PARAM_SUBMOD1/SM_FUSE_PARAM          ----- -----  ----- -----  0011H 0011H
  +--> SM_FUSE_PARAM
  +--> _DEBUG_PRINTF/DEBUG
  +--> _SM_FUSE_PARAM_SET_TIME/SM_FUSE_PARAM

_SM_FUSE_TIMER_INIT/SM_FUSE_TIMER             ----- -----  ----- -----  ----- -----
  +--> SM_FUSE_TIMER
  +--> _DEBUG_PRINTF/DEBUG
  +--> _DISPLAY_LOGO/MOD_COMMON

SM_FUSE_TIMER                                 ----- -----  ----- -----  ----- -----

_SM_FUSE_PARAM_SUBMOD2/SM_FUSE_PARAM          ----- -----  ----- -----  0011H 0011H
  +--> SM_FUSE_PARAM
  +--> _DEBUG_PRINTF/DEBUG
  +--> _SM_FUSE_PARAM_SET_TIME/SM_FUSE_PARAM

_SM_FUSE_PARAM_SUBMOD3/SM_FUSE_PARAM          ----- -----  ----- -----  0011H 0011H
  +--> SM_FUSE_PARAM
  +--> _DEBUG_PRINTF/DEBUG
  +--> _SM_FUSE_PARAM_SET_TIME/SM_FUSE_PARAM
LX51 LINKER/LOCATER V4.66.87.0                                                        05/30/2018  19:50:23  PAGE 45



_SM_FUSE_PARAM_SUBMOD4/SM_FUSE_PARAM          ----- -----  ----- -----  0011H 0011H
  +--> SM_FUSE_PARAM
  +--> _DEBUG_PRINTF/DEBUG
  +--> _SM_FUSE_PARAM_SET_TIME/SM_FUSE_PARAM

_SM_FUSE_PARAM_SUBMOD5/SM_FUSE_PARAM          ----- -----  ----- -----  0011H 0011H
  +--> SM_FUSE_PARAM
  +--> _DEBUG_PRINTF/DEBUG
  +--> _SM_FUSE_PARAM_SET_TIME/SM_FUSE_PARAM

_SM_FUSE_PARAM_SUBMOD6/SM_FUSE_PARAM          ----- -----  ----- -----  0011H 0012H
  +--> SM_FUSE_PARAM
  +--> _DEBUG_PRINTF/DEBUG
  +--> _ENTER_PASSWORD/SM_FUSE_PARAM
  +--> _INC_AND_WRITE/SM_FUSE_PARAM
  +--> _UPDATE_PASSWORD/SM_FUSE_PARAM
  +--> _INC_ONLY/SM_FUSE_PARAM
  +--> _WRITE_ONLY/SM_FUSE_PARAM

_ENTER_PASSWORD/SM_FUSE_PARAM                 ----- -----  ----- -----  0013H 0013H
  +--> _ROM_READ/ROM
  +--> _UPDATE_PASSWORD/SM_FUSE_PARAM

_UPDATE_PASSWORD/SM_FUSE_PARAM                ----- -----  ----- -----  0014H 0014H
  +--> LED_CLEAR/LED
  +--> _LED_SET_CODE/LED

_SM_FUSE_TIMER_SUBMOD0/SM_FUSE_TIMER          ----- -----  ----- -----  0011H 0012H
  +--> SM_FUSE_TIMER
  +--> _DEBUG_PRINTF/DEBUG
  +--> _DISPLAY_PREARM/SM_FUSE_TIMER
  +--> _CHECK_AND_SET/SM_FUSE_TIMER
  +--> ROLL_BACK/SM_FUSE_TIMER

_DISPLAY_PREARM/SM_FUSE_TIMER                 ----- -----  ----- -----  0013H 0014H
  +--> LED_CLEAR/LED
  +--> _LED_SET_CODE/LED
  +--> SM_FUSE_TIMER

_CHECK_AND_SET/SM_FUSE_TIMER                  ----- -----  ----- -----  0013H 0014H
  +--> FUSE_ENABLE/FUSE
  +--> MPU_ENABLE/MPU
  +--> HG_ENABLE/HG
  +--> _ROM_READ/ROM
  +--> THERMO_ENABLE/THERMO
  +--> LT_TIMER_LOAD_FROM_ROM/LT_TIMER
  +--> LT_TIMER_SYNC_TO_RTC/LT_TIMER
  +--> LT_TIMER_GET_RELATIVE/LT_TIMER
  +--> LT_TIMER_START_RAM/LT_TIMER

ROLL_BACK/SM_FUSE_TIMER                       20H.0 20H.0  ----- -----  ----- -----
  +--> _DEBUG_PRINTF/DEBUG
  +--> THERMO_ENABLE/THERMO
  +--> MPU_ENABLE/MPU
  +--> HG_ENABLE/HG
  +--> LT_TIMER_RESET/LT_TIMER
  +--> FUSE_ENABLE/FUSE

LT_TIMER_RESET/LT_TIMER                       ----- -----  ----- -----  ----- -----
  +--> LT_TIMER_STOP_RTC/LT_TIMER
  +--> LT_TIMER_STOP_RAM/LT_TIMER

_SM_FUSE_TIMER_SUBMOD1/SM_FUSE_TIMER          ----- -----  ----- -----  0011H 0012H
  +--> SM_FUSE_TIMER
LX51 LINKER/LOCATER V4.66.87.0                                                        05/30/2018  19:50:23  PAGE 46


  +--> _DEBUG_PRINTF/DEBUG
  +--> LT_TIMER_DISPLAY/LT_TIMER
  +--> POWER_TEST_POWERSAVE_TO/POWER
  +--> POWER_RESET_POWERSAVE_TO/POWER
  +--> LT_TIMER_SWITCH_DISPLAY/LT_TIMER

LT_TIMER_DISPLAY/LT_TIMER                     20H.0 20H.0  ----- -----  ----- -----
  +--> _DEBUG_PRINTF/DEBUG

LT_TIMER_SWITCH_DISPLAY/LT_TIMER              ----- -----  ----- -----  ----- -----
  +--> _DEBUG_PRINTF/DEBUG

_SM_FUSE_TIMER_SUBMOD2/SM_FUSE_TIMER          ----- -----  ----- -----  0011H 0012H
  +--> SM_FUSE_TIMER
  +--> _DEBUG_PRINTF/DEBUG
  +--> LT_TIMER_DISPLAY/LT_TIMER
  +--> VERIFY_PASSWORD/SM_FUSE_TIMER
  +--> DISPLAY_PASSWORD/SM_FUSE_TIMER
  +--> INC_PASSWORD/SM_FUSE_TIMER

VERIFY_PASSWORD/SM_FUSE_TIMER                 ----- -----  ----- -----  0013H 0013H
  +--> _ROM_READ/ROM
  +--> SM_FUSE_TIMER
  +--> _DEBUG_PRINTF/DEBUG

DISPLAY_PASSWORD/SM_FUSE_TIMER                ----- -----  ----- -----  ----- -----
  +--> LED_CLEAR/LED
  +--> _LED_SET_CODE/LED

INC_PASSWORD/SM_FUSE_TIMER                    ----- -----  ----- -----  ----- -----

_SM_FUSE_TIMER_SUBMOD3/SM_FUSE_TIMER          ----- -----  ----- -----  0011H 0011H
  +--> SM_FUSE_TIMER
  +--> _DEBUG_PRINTF/DEBUG
  +--> ROLL_BACK/SM_FUSE_TIMER
  +--> _DISPLAY_TIMER/SM_FUSE_TIMER

_DISPLAY_TIMER/SM_FUSE_TIMER                  ----- -----  ----- -----  0012H 0012H
  +--> LED_CLEAR/LED
  +--> _LED_SET_CODE/LED

_SM_FUSE_TIMER_SUBMOD4/SM_FUSE_TIMER          ----- -----  ----- -----  ----- -----
  +--> SM_FUSE_TIMER
  +--> _DEBUG_PRINTF/DEBUG
  +--> ROLL_BACK/SM_FUSE_TIMER
  +--> _DISPLAY_TIMER/SM_FUSE_TIMER

_SM_FUSE_DETONATE_INIT/SM_FUSE_DETONATE       ----- -----  ----- -----  ----- -----
  +--> SM_FUSE_DETONATE
  +--> _DEBUG_PRINTF/DEBUG
  +--> DISPLAY_DETONATE/SM_FUSE_DETONATE

SM_FUSE_DETONATE                              ----- -----  ----- -----  ----- -----

DISPLAY_DETONATE/SM_FUSE_DETONATE             ----- -----  ----- -----  ----- -----
  +--> LED_CLEAR/LED
  +--> _LED_SET_CODE/LED
  +--> _LED_SET_BLINK/LED

_SM_FUSE_POWERSAVE_INIT/SM_FUSE_POWERSAV+     ----- -----  ----- -----  ----- -----
... E
  +--> SM_FUSE_POWERSAVE
  +--> _DEBUG_PRINTF/DEBUG

SM_FUSE_POWERSAVE                             ----- -----  ----- -----  ----- -----
LX51 LINKER/LOCATER V4.66.87.0                                                        05/30/2018  19:50:23  PAGE 47



_SM_FUSE_DETONATE_SUBMOD0/SM_FUSE_DETONA+     ----- -----  ----- -----  0011H 0011H
... TE
  +--> SM_FUSE_DETONATE
  +--> _DEBUG_PRINTF/DEBUG
  +--> FUSE_TRIGGER/FUSE
  +--> FUSE_ENABLE/FUSE

FUSE_TRIGGER/FUSE                             20H.0 20H.0  ----- -----  ----- -----
  +--> _DEBUG_PRINTF/DEBUG
  +--> POWER_5V_ENABLE/POWER
  +--> _SERIAL_SET_CTL_BIT/SERIAL_HUB
  +--> SERIAL_CTL_OUT/SERIAL_HUB

_SM_FUSE_POWERSAVE_SUBMOD0/SM_FUSE_POWER+     ----- -----  ----- -----  0011H 0011H
... SAVE
  +--> SM_FUSE_POWERSAVE
  +--> _DEBUG_PRINTF/DEBUG
  +--> POWER_ENTER_POWERSAVE/POWER
  +--> POWER_LEAVE_POWERSAVE/POWER

_SM_FUSE_POWERSAVE_SUBMOD1/SM_FUSE_POWER+     ----- -----  ----- -----  ----- -----
... SAVE
  +--> SM_FUSE_POWERSAVE
  +--> _DEBUG_PRINTF/DEBUG
  +--> ROLL_BACK/SM_FUSE_POWERSAVE

ROLL_BACK/SM_FUSE_POWERSAVE                   ----- -----  ----- -----  ----- -----
  +--> THERMO_ENABLE/THERMO
  +--> MPU_ENABLE/MPU
  +--> HG_ENABLE/HG
  +--> LT_TIMER_RESET/LT_TIMER

_SM_GLOBAL_FLAG_MOD_SUBMOD0/SM_GLOBAL_FL+     ----- -----  ----- -----  0011H 0011H
... AG_MOD
  +--> SM_GLOBAL_FLAG_MOD
  +--> _DEBUG_PRINTF/DEBUG
  +--> _SM_GLOBAL_FLAG_MOD/SM_GLOBAL_FLAG_MOD

_SM_GLOBAL_FLAG_MOD/SM_GLOBAL_FLAG_MOD        ----- -----  ----- -----  0012H 0013H
  +--> _INC_WRITE/SM_GLOBAL_FLAG_MOD
  +--> _DISPLAY_GLOBAL_FLAG/SM_GLOBAL_FLAG_MOD

_INC_WRITE/SM_GLOBAL_FLAG_MOD                 20H.0 20H.0  ----- -----  ----- -----
  +--> POWER_INC_POWERSAVE_TO/POWER
  +--> POWER_GET_POWERSAVE_TO/POWER
  +--> BEEPER_GET_BEEP_ENABLE/BEEPER
  +--> BEEPER_SET_BEEP_ENABLE/BEEPER
  +--> BEEPER_INC_MUSIC_TO/BEEPER
  +--> BEEPER_GET_MUSIC_TO/BEEPER
  +--> _ROM_READ/ROM
  +--> CLOCK_SET_HOUR_12/CLOCK
  +--> _CLOCK_SYNC_TO_RTC/CLOCK
  +--> ALARM0_SET_HOUR_12/ALARM
  +--> LT_TIMER_SET_HOUR_12/LT_TIMER
  +--> _ROM_WRITE/ROM

POWER_INC_POWERSAVE_TO/POWER                  ----- -----  ----- -----  ----- -----

POWER_GET_POWERSAVE_TO/POWER                  ----- -----  ----- -----  ----- -----

BEEPER_GET_BEEP_ENABLE/BEEPER                 ----- -----  ----- -----  ----- -----

BEEPER_SET_BEEP_ENABLE/BEEPER                 20H.1 20H.1  ----- -----  ----- -----

LX51 LINKER/LOCATER V4.66.87.0                                                        05/30/2018  19:50:23  PAGE 48


BEEPER_INC_MUSIC_TO/BEEPER                    ----- -----  ----- -----  ----- -----

BEEPER_GET_MUSIC_TO/BEEPER                    ----- -----  ----- -----  ----- -----

CLOCK_SET_HOUR_12/CLOCK                       20H.1 20H.1  ----- -----  ----- -----

ALARM0_SET_HOUR_12/ALARM                      20H.1 20H.1  ----- -----  ----- -----

LT_TIMER_SET_HOUR_12/LT_TIMER                 20H.1 20H.1  ----- -----  ----- -----

_DISPLAY_GLOBAL_FLAG/SM_GLOBAL_FLAG_MOD       ----- -----  ----- -----  0014H 0014H
  +--> LED_CLEAR/LED
  +--> _DEBUG_PRINTF/DEBUG
  +--> POWER_GET_POWERSAVE_TO_S/POWER
  +--> SM_GLOBAL_FLAG_MOD
  +--> _LED_SET_CODE/LED
  +--> BEEPER_GET_BEEP_ENABLE/BEEPER
  +--> BEEPER_GET_MUSIC_TO/BEEPER
  +--> _ROM_READ/ROM

POWER_GET_POWERSAVE_TO_S/POWER                ----- -----  ----- -----  ----- -----

_SM_GLOBAL_FLAG_MOD_SUBMOD1/SM_GLOBAL_FL+     ----- -----  ----- -----  0011H 0011H
... AG_MOD
  +--> SM_GLOBAL_FLAG_MOD
  +--> _DEBUG_PRINTF/DEBUG
  +--> _SM_GLOBAL_FLAG_MOD/SM_GLOBAL_FLAG_MOD

_SM_GLOBAL_FLAG_MOD_SUBMOD2/SM_GLOBAL_FL+     ----- -----  ----- -----  0011H 0011H
... AG_MOD
  +--> SM_GLOBAL_FLAG_MOD
  +--> _DEBUG_PRINTF/DEBUG
  +--> _SM_GLOBAL_FLAG_MOD/SM_GLOBAL_FLAG_MOD

_SM_GLOBAL_FLAG_MOD_SUBMOD3/SM_GLOBAL_FL+     ----- -----  ----- -----  0011H 0011H
... AG_MOD
  +--> SM_GLOBAL_FLAG_MOD
  +--> _DEBUG_PRINTF/DEBUG
  +--> _SM_GLOBAL_FLAG_MOD/SM_GLOBAL_FLAG_MOD

_SCAN_KEY_PROC/KEY                            ----- -----  ----- -----  ----- -----
  +--> _DELAY_10US/MISC
  +--> CLOCK_GET_SEC_256/CLOCK
  +--> KEY

KEY                                           ----- -----  ----- -----  ----- -----

_SET_PROC/KEY                                 ----- -----  ----- -----  000CH 000CH
  +--> KEY
  +--> _DEBUG_PRINTF/DEBUG
  +--> BEEPER_BEEP/BEEPER
  +--> _RUN_STATE_MACHINE/SM

BEEPER_BEEP/BEEPER                            ----- -----  ----- -----  000DH 000DH
  +--> _DEBUG_PRINTF/DEBUG
  +--> _DELAY_10US/MISC

_MOD_PROC/KEY                                 ----- -----  ----- -----  000CH 000CH
  +--> KEY
  +--> _DEBUG_PRINTF/DEBUG
  +--> BEEPER_BEEP/BEEPER
  +--> _RUN_STATE_MACHINE/SM

_MOD_SET_PROC/KEY                             ----- -----  ----- -----  000CH 000CH
  +--> _DEBUG_PRINTF/DEBUG
LX51 LINKER/LOCATER V4.66.87.0                                                        05/30/2018  19:50:23  PAGE 49


  +--> _RUN_STATE_MACHINE/SM

_FUSE_PROC/FUSE                               ----- -----  ----- -----  000CH 000CH
  +--> _DEBUG_PRINTF/DEBUG
  +--> _RUN_STATE_MACHINE/SM

_NULL_PROC/SM                                 ----- -----  ----- -----  ----- -----
  +--> _RUN_STATE_MACHINE/SM

_THERMO_PROC/THERMO                           ----- -----  ----- -----  000CH 000CH
  +--> _DEBUG_PRINTF/DEBUG
  +--> _RUN_STATE_MACHINE/SM

_ALARM_PROC/ALARM                             ----- -----  ----- -----  000CH 000CH
  +--> _DEBUG_PRINTF/DEBUG
  +--> _RUN_STATE_MACHINE/SM

_POWER_PROC/POWER                             ----- -----  ----- -----  000CH 000CH
  +--> _DEBUG_PRINTF/DEBUG
  +--> _RUN_STATE_MACHINE/SM

SM_INITIALIZE/SM                              ----- -----  ----- -----  ----- -----
  +--> _DEBUG_PRINTF/DEBUG
  +--> LT_TIMER_SWITCH_OFF/LT_TIMER
  +--> ALARM_SWITCH_ON/ALARM
  +--> RTC_SET_LT_TIMER/RTC

DELAY_TASK_INITIALIZE/DELAY_TASK              ----- -----  ----- -----  ----- -----
  +--> _DEBUG_PRINTF/DEBUG

RUN_TASK/TASK                                 ----- -----  ----- -----  0000H 0000H
  +--> COM_TRY_GET_KEY/COM
  +--> TASK

COM_TRY_GET_KEY/COM                           ----- -----  ----- -----  ----- -----
  +--> COM

COM                                           ----- -----  ----- -----  ----- -----

TASK                                          ----- -----  ----- -----  ----- -----

RUN_SHELL/SHELL                               ----- -----  ----- -----  0000H 0001H
  +--> PRINTF/PRINTF
  +--> CLOCK_ENTER_SHELL/CLOCK
  +--> LED_SAVE/LED
  +--> LED_CLEAR/LED
  +--> _LED_SET_CODE/LED
  +--> _GETS/GETS
  +--> SHELL
  +--> _CALL_CMD/SHELL
  +--> LED_RESTORE/LED
  +--> CLOCK_LEAVE_SHELL/CLOCK

_CMD_HELP/CMD_HELP                            ----- -----  ----- -----  0008H 0008H
  +--> SHELL_DUMP_CMD/SHELL
  +--> CMD_HELP
  +--> _SHELL_SEARCH_CMD_BY_NAME/SHELL
  +--> PRINTF/PRINTF

SHELL_DUMP_CMD/SHELL                          ----- -----  ----- -----  0009H 0009H
  +--> SHELL
  +--> PRINTF/PRINTF

SHELL                                         ----- -----  ----- -----  ----- -----

LX51 LINKER/LOCATER V4.66.87.0                                                        05/30/2018  19:50:23  PAGE 50


CMD_HELP                                      ----- -----  ----- -----  ----- -----

_SHELL_SEARCH_CMD_BY_NAME/SHELL               ----- -----  ----- -----  0009H 000CH
  +--> SHELL

_CMD_DBG/CMD_DBG                              ----- -----  ----- -----  0008H 0008H
  +--> CMD_DBG
  +--> PRINTF/PRINTF
  +--> DEBUG_ONOFF/DEBUG

CMD_DBG                                       ----- -----  ----- -----  ----- -----

DEBUG_ONOFF/DEBUG                             20H.0 20H.0  ----- -----  ----- -----

_CMD_SERIAL/CMD_SERIAL                        ----- -----  ----- -----  0008H 000BH
  +--> SERIAL_DUMP/SERIAL_HUB
  +--> _SERIAL_TEST_CTL_BIT/SERIAL_HUB
  +--> CMD_SERIAL
  +--> PRINTF/PRINTF
  +--> _SERIAL_SET_CTL_BIT/SERIAL_HUB
  +--> SERIAL_CTL_OUT/SERIAL_HUB
  +--> _ATOI/ATOI

CMD_SERIAL                                    ----- -----  ----- -----  ----- -----

_ATOI/ATOI                                    20H.1 20H.1  ----- -----  000FH 0013H
  +--> _ISSPACE/ISSPACE
  +--> _ISDIGIT/ISDIGIT

_ISSPACE/ISSPACE                              ----- -----  ----- -----  ----- -----

_ISDIGIT/ISDIGIT                              ----- -----  ----- -----  ----- -----

_CMD_INT/CMD_INT                              ----- -----  ----- -----  0008H 0008H
  +--> INT_HUB_DUMP/INT_HUB
  +--> INT_HUB_GET_STATUS/INT_HUB
  +--> _INT_HUB_DUMP_EXT_STATUS/INT_HUB

_CMD_I2C/CMD_I2C                              ----- -----  ----- -----  0008H 0009H
  +--> CMD_I2C
  +--> _I2C_READ/CMD_I2C
  +--> _I2C_WRITE/CMD_I2C

CMD_I2C                                       ----- -----  ----- -----  ----- -----

_I2C_READ/CMD_I2C                             20H.0 20H.0  ----- -----  000AH 000DH
  +--> CMD_I2C
  +--> _ATOI/ATOI
  +--> I2C_INIT/I2C
  +--> _I2C_GET/I2C
  +--> PRINTF/PRINTF

_I2C_WRITE/CMD_I2C                            20H.0 20H.0  ----- -----  000AH 000EH
  +--> CMD_I2C
  +--> _ATOI/ATOI
  +--> PRINTF/PRINTF
  +--> I2C_INIT/I2C
  +--> _I2C_PUT/I2C

_CMD_REBOOT/CMD_REBOOT                        ----- -----  ----- -----  0008H 0008H
  +--> PRINTF/PRINTF

_CMD_TASK/CMD_TASK                            ----- -----  ----- -----  0008H 000AH
  +--> TASK_DUMP/TASK
  +--> CMD_TASK
LX51 LINKER/LOCATER V4.66.87.0                                                        05/30/2018  19:50:23  PAGE 51


  +--> _ATOI/ATOI

TASK_DUMP/TASK                                ----- -----  ----- -----  000BH 000BH
  +--> TASK
  +--> PRINTF/PRINTF

CMD_TASK                                      ----- -----  ----- -----  ----- -----

_CMD_SM/CMD_SM                                ----- -----  ----- -----  0008H 0009H
  +--> SM_SHOW_CURRENT/SM
  +--> CMD_SM
  +--> SM_DUMP/SM
  +--> SM_DUMP_TABLE/SM
  +--> _SM_SET_TABLE_BY_NAME/SM
  +--> SM_DUMP_STATE/SM
  +--> _SM_SET_STATE_BY_NAME/SM
  +--> SM_DUMP_SUB_STATE/SM
  +--> _SM_SET_SUB_STATE_BY_NAME/SM
  +--> PRINTF/PRINTF

SM_SHOW_CURRENT/SM                            ----- -----  ----- -----  ----- -----
  +--> SM
  +--> PRINTF/PRINTF

CMD_SM                                        ----- -----  ----- -----  ----- -----

SM_DUMP/SM                                    ----- -----  ----- -----  000AH 000CH
  +--> SM
  +--> PRINTF/PRINTF

SM_DUMP_TABLE/SM                              ----- -----  ----- -----  000AH 000AH
  +--> SM
  +--> PRINTF/PRINTF

_SM_SET_TABLE_BY_NAME/SM                      ----- -----  ----- -----  000AH 000DH
  +--> SM
  +--> PRINTF/PRINTF

SM_DUMP_STATE/SM                              ----- -----  ----- -----  000AH 000AH
  +--> SM
  +--> PRINTF/PRINTF

_SM_SET_STATE_BY_NAME/SM                      ----- -----  ----- -----  000AH 000DH
  +--> SM
  +--> PRINTF/PRINTF
  +--> _SM_SET_STATE/SM
  +--> _SM_SET_SUB_STATE/SM

_SM_SET_STATE/SM                              ----- -----  ----- -----  ----- -----

_SM_SET_SUB_STATE/SM                          ----- -----  ----- -----  ----- -----
  +--> SM

SM_DUMP_SUB_STATE/SM                          ----- -----  ----- -----  000AH 000AH
  +--> SM
  +--> PRINTF/PRINTF

_SM_SET_SUB_STATE_BY_NAME/SM                  ----- -----  ----- -----  000AH 000DH
  +--> SM
  +--> PRINTF/PRINTF
  +--> _SM_SET_SUB_STATE/SM

_CMD_BEEPER/CMD_BEEPER                        ----- -----  ----- -----  0008H 000AH
  +--> CMD_BEEPER
  +--> BEEPER_BEEP/BEEPER
LX51 LINKER/LOCATER V4.66.87.0                                                        05/30/2018  19:50:23  PAGE 52


  +--> BEEPER_BEEP_BEEP/BEEPER
  +--> BEEPER_SET_BEEP_ENABLE/BEEPER
  +--> BEEPER_GET_MUSIC_INDEX/BEEPER
  +--> BEEPER_INC_MUSIC_INDEX/BEEPER
  +--> PRINTF/PRINTF
  +--> BEEPER_PLAY_MUSIC/BEEPER

CMD_BEEPER                                    ----- -----  ----- -----  ----- -----

BEEPER_BEEP_BEEP/BEEPER                       ----- -----  ----- -----  000BH 000BH
  +--> _DEBUG_PRINTF/DEBUG
  +--> _DELAY_10US/MISC
  +--> _DELAY_MS/MISC

_CMD_THERMO/CMD_THERMO                        ----- -----  ----- -----  0008H 000AH
  +--> THERMO_GET_CURRENT/THERMO
  +--> CMD_THERMO
  +--> THERMO_ENABLE/THERMO
  +--> THERMO_HI_THRESHOLD_GET/THERMO
  +--> THERMO_LO_THRESHOLD_GET/THERMO
  +--> PRINTF/PRINTF
  +--> THERMO_HI_THRESHOLD_INC/THERMO
  +--> THERMO_HI_THRESHOLD_DEC/THERMO
  +--> THERMO_HI_THRESHOLD_RESET/THERMO
  +--> _THERMO_HI_THRESHOLD_SET/THERMO
  +--> THERMO_LO_THRESHOLD_INC/THERMO
  +--> THERMO_LO_THRESHOLD_DEC/THERMO
  +--> THERMO_LO_THRESHOLD_RESET/THERMO
  +--> _THERMO_LO_THRESHOLD_SET/THERMO
  +--> _ATOI/ATOI

THERMO_GET_CURRENT/THERMO                     ----- -----  ----- -----  000BH 000DH
  +--> THERMO
  +--> _I2C_GETS/I2C
  +--> _DEBUG_PRINTF/DEBUG
  +--> _THERMO_HEX_TO_TEMP/THERMO

CMD_THERMO                                    ----- -----  ----- -----  ----- -----

THERMO_HI_THRESHOLD_INC/THERMO                ----- -----  ----- -----  ----- -----
  +--> THERMO_HI_THRESHOLD_GET/THERMO
  +--> THERMO
  +--> _THERMO_HI_THRESHOLD_SET/THERMO

THERMO_LO_THRESHOLD_DEC/THERMO                ----- -----  ----- -----  ----- -----
  +--> THERMO_LO_THRESHOLD_GET/THERMO
  +--> THERMO
  +--> _THERMO_LO_THRESHOLD_SET/THERMO

_CMD_MPU/CMD_MPU                              ----- -----  ----- -----  0008H 0009H
  +--> CMD_MPU
  +--> MPU_ENABLE/MPU
  +--> MPU_READ_INT_STATUS/MPU
  +--> PRINTF/PRINTF

CMD_MPU                                       ----- -----  ----- -----  ----- -----

_CMD_NULL/SHELL                               ----- -----  ----- -----  ----- -----
  +--> PRINTF/PRINTF

CLOCK_ENTER_SHELL/CLOCK                       ----- -----  ----- -----  ----- -----

LED_SAVE/LED                                  ----- -----  ----- -----  ----- -----

_GETS/GETS                                    ----- -----  ----- -----  0002H 0008H
LX51 LINKER/LOCATER V4.66.87.0                                                        05/30/2018  19:50:23  PAGE 53


  +--> GETCHAR/GETCHAR
  +--> _PUTCHAR/COM

GETCHAR/GETCHAR                               ----- -----  ----- -----  ----- -----
  +--> _GETKEY/COM
  +--> _PUTCHAR/COM

_GETKEY/COM                                   ----- -----  ----- -----  ----- -----
  +--> COM

_CALL_CMD/SHELL                               ----- -----  ----- -----  0002H 0007H
  +--> SHELL
  +--> PRINTF/PRINTF
  +--> _SHELL_SEARCH_CMD_BY_NAME/SHELL

LED_RESTORE/LED                               ----- -----  ----- -----  ----- -----

CLOCK_LEAVE_SHELL/CLOCK                       ----- -----  ----- -----  ----- -----
  +--> CLOCK_ENABLE_INTERRUPT/CLOCK
  +--> _CLOCK_SYNC_FROM_RTC/CLOCK

*** NEW ROOT ********************************

COM_ISR/COM                                   ----- -----  ----- -----  ----- -----

*** NEW ROOT ********************************

INT0_ISR/KEY                                  ----- -----  ----- -----  ----- -----
  +--> POWER_TEST_FLAG/POWER
  +--> POWER_CLR_FLAG/POWER
  +--> KEY
  +--> BEEPER_STOP_MUSIC/BEEPER

BEEPER_STOP_MUSIC/BEEPER                      ----- -----  ----- -----  ----- -----
  +--> _BEEPER_STOP_PLAY/BEEPER

*** NEW ROOT ********************************

BEEPER_ISR/BEEPER                             ----- -----  ----- -----  ----- -----

*** NEW ROOT ********************************

CLOCK0_ISR/CLOCK                              ----- -----  ----- -----  ----- -----
  +--> CLOCK_INC_MS39/CLOCK
  +--> TIMER_INC_MS39/TIMER
  +--> REFRESH_LED/LED

CLOCK_INC_MS39/CLOCK                          21H.3 21H.3  ----- -----  ----- -----
  +--> LT_TIMER_DEC_SEC/LT_TIMER
  +--> CLOCK

LT_TIMER_DEC_SEC/LT_TIMER                     ----- -----  ----- -----  ----- -----
  +--> LT_TIMER

TIMER_INC_MS39/TIMER                          ----- -----  ----- -----  ----- -----
  +--> TIMER

*** NEW ROOT ********************************

INT1_ISR/INT_HUB                              ----- -----  ----- -----  ----- -----
  +--> INT_HUB



PUBLIC SYMBOLS OF MODULE:  Clock (SM)
LX51 LINKER/LOCATER V4.66.87.0                                                        05/30/2018  19:50:23  PAGE 54




      VALUE       CLASS    TYPE      PUBLIC SYMBOL NAME
      =================================================
      00000020H.0 BIT      BIT       ?_alarm0_set_enable?BIT
      0200001CH   XDATA    BYTE      ?_debug_printf?BYTE
      00000020H.0 BIT      BIT       ?_fuse_set_fuse_broke?BIT
      0200001DH   XDATA    BYTE      ?_I2C_Gets?BYTE
      0200001AH   XDATA    BYTE      ?_I2C_Puts?BYTE
      0200004DH   XDATA    ---       ?_PRINTF?BYTE
      00000020H.1 BIT      BIT       ?_rtc_enable_alarm_int?BIT
      02000014H   XDATA    BYTE      ?_rtc_get_temperature?BYTE
      00000020H.2 BIT      BIT       ?_serial_set_ctl_bit?BIT
      0200004DH   XDATA    ---       ?_SPRINTF?BYTE
      020000EAH   XDATA    ---       ?_UNGETCHAR?BYTE
      02010047H   XDATA    ---       ?_VPRINTF?BYTE
      00000020H.1 BIT      BIT       ?alarm0_set_hour_12?BIT
      00000020H.0 BIT      BIT       ?alarm1_set_enable?BIT
      00000020H.1 BIT      BIT       ?beeper_set_beep_enable?BIT
      01000212H   CODE     ---       ?C?CASTF
      010007A2H   CODE     ---       ?C?CCASE
      00000025H.5 BIT      ---       ?C?CHARLOADED
      01000578H   CODE     ---       ?C?CLDOPTR
      0100055FH   CODE     ---       ?C?CLDPTR
      00000000H   NUMBER   ---       ?C?CODESEG
      010008C6H   CODE     ---       ?C?COPYP2
      01000A7FH   CODE     ---       ?C?CSTOPTR
      010005A5H   CODE     ---       ?C?CSTPTR
      010001DEH   CODE     ---       ?C?FCASTC
      010001D9H   CODE     ---       ?C?FCASTI
      010001D4H   CODE     ---       ?C?FCASTL
      010003DCH   CODE     ---       ?C?FPADD
      010002D0H   CODE     ---       ?C?FPCONVERT
      01000137H   CODE     ---       ?C?FPDIV
      01000249H   CODE     ---       ?C?FPGETOPN2
      0100002EH   CODE     ---       ?C?FPMUL
      0100027EH   CODE     ---       ?C?FPNANRESULT
      01000288H   CODE     ---       ?C?FPOVERFLOW
      01000260H   CODE     ---       ?C?FPRESULT
      01000274H   CODE     ---       ?C?FPRESULT2
      01000293H   CODE     ---       ?C?FPROUND
      010003D8H   CODE     ---       ?C?FPSUB
      01000285H   CODE     ---       ?C?FPUNDERFLOW
      010004FDH   CODE     ---       ?C?FTNPWR
      010007C8H   CODE     ---       ?C?ICALL
      010007CCH   CODE     ---       ?C?ICALL2
      0100061EH   CODE     ---       ?C?IILDX
      01000AA1H   CODE     ---       ?C?ILDIX
      01000634H   CODE     ---       ?C?ILDOPTR
      010005B7H   CODE     ---       ?C?IMUL
      0100066CH   CODE     ---       ?C?LADD
      010006ABH   CODE     ---       ?C?LLDXDATA
      010006B7H   CODE     ---       ?C?LLDXDATA0
      01000687H   CODE     ---       ?C?LNEG
      010006CFH   CODE     ---       ?C?LSTKXDATA
      010006C3H   CODE     ---       ?C?LSTXDATA
      01000679H   CODE     ---       ?C?LSUB
      010007CEH   CODE     ---       ?C?MEMSET
      01000700H   CODE     ---       ?C?OFFX256
      01000711H   CODE     ---       ?C?OFFXADD
      01000746H   CODE     ---       ?C?PLDCODE
      01000AB7H   CODE     ---       ?C?PLDIDATA
      01000726H   CODE     ---       ?C?PLDIXDATA
      01000772H   CODE     ---       ?C?PLDOPTR
      01000AC0H   CODE     ---       ?C?PLDPDATA
LX51 LINKER/LOCATER V4.66.87.0                                                        05/30/2018  19:50:23  PAGE 55


      01000752H   CODE     ---       ?C?PLDPTR
      0100071DH   CODE     ---       ?C?PLDXDATA
      0100073DH   CODE     ---       ?C?PSTXDATA
      0100053DH   CODE     ---       ?C?SCDIV
      01000695H   CODE     ---       ?C?SLCMP
      01000A62H   CODE     ---       ?C?STRCMPP2
      010005C9H   CODE     ---       ?C?UIDIV
      00000000H   NUMBER   ---       ?C?XDATASEG
      01006171H   CODE     ---       ?C_START
      01000000H   CODE     NEAR LAB  ?C_STARTUP
      0000001DH   DATA     ---       ?C_XBP
      00000020H.0 BIT      BIT       ?clock_display?BIT
      00000020H.2 BIT      BIT       ?clock_enable_interrupt?BIT
      00000020H.1 BIT      BIT       ?clock_set_hour_12?BIT
      00000020H.0 BIT      BIT       ?debug_onoff?BIT
      00000020H.1 BIT      BIT       ?fuse_enable?BIT
      00000020H.0 BIT      BIT       ?fuse_set_tripwire_broke?BIT
      00000020H.0 BIT      BIT       ?fuse_trigger?BIT
      00000020H.1 BIT      BIT       ?hg_enable?BIT
      00000020H.2 BIT      BIT       ?I2C_PutAck?BIT
      00000020H.0 BIT      BIT       ?lt_timer_display?BIT
      00000020H.0 BIT      BIT       ?lt_timer_get_relative?BIT
      00000020H.1 BIT      BIT       ?lt_timer_set_hour_12?BIT
      00000020H.1 BIT      BIT       ?mpu_enable?BIT
      00000020H.1 BIT      BIT       ?power_5v_enable?BIT
      00000020H.0 BIT      BIT       ?rtc_alarm_set_hour_12?BIT
      00000024H.4 BIT      BIT       ?rtc_set_bbsqw?BIT
      00000024H.5 BIT      BIT       ?rtc_set_conv?BIT
      00000020H.0 BIT      BIT       ?rtc_set_en32khz?BIT
      00000024H.3 BIT      BIT       ?rtc_set_eosc?BIT
      00000020H.0 BIT      BIT       ?rtc_set_intcn?BIT
      00000020H.0 BIT      BIT       ?rtc_set_lt_timer?BIT
      00000024H.6 BIT      BIT       ?rtc_set_osf?BIT
      00000020H.1 BIT      BIT       ?rtc_time_set_hour_12?BIT
      00000020H.1 BIT      BIT       ?thermo_enable?BIT
      00000020H.0 BIT      BIT       ?timer_set_led_autorefresh?BIT
      02000014H   XDATA    BYTE      ?timer_set_led_autorefresh?BYTE
      01005562H   CODE     ---       _alarm0_set_enable
      0100709AH   CODE     ---       _alarm0_test_enable
      0100728FH   CODE     ---       _alarm_proc
      010033FBH   CODE     ---       _atoi
      01007C05H   CODE     ---       _clock_get_mon_date
      01008212H   CODE     ---       _clock_is_leap_year
      01008C40H   CODE     ---       _clock_switch_display_mode
      010055C3H   CODE     ---       _clock_sync_from_rtc
      01005225H   CODE     ---       _clock_sync_to_rtc
      01002956H   CODE     ---       _clock_yymmdd_to_day
      01003142H   CODE     ---       _cmd_beeper
      01006454H   CODE     ---       _cmd_dbg
      01005E47H   CODE     ---       _cmd_help
      01006E22H   CODE     ---       _cmd_i2c
      01006B32H   CODE     ---       _cmd_int
      01004DBDH   CODE     ---       _cmd_mpu
      01006569H   CODE     ---       _cmd_reboot
      01003E8AH   CODE     ---       _cmd_serial
      01002732H   CODE     ---       _cmd_sm
      01003B06H   CODE     ---       _cmd_task
      010025E6H   CODE     ---       _cmd_thermo
      01006C13H   CODE     ---       _debug_printf
      01008888H   CODE     ---       _delay_10us
      01008896H   CODE     ---       _delay_ms
      010062E8H   CODE     ---       _delay_task_reg
      0100549AH   CODE     ---       _display_logo
      01007F7EH   CODE     ---       _fuse_proc
      01006831H   CODE     ---       _fuse_set_fuse_broke
LX51 LINKER/LOCATER V4.66.87.0                                                        05/30/2018  19:50:23  PAGE 56


      0100871DH   CODE     ---       _getkey
      01003230H   CODE     ---       _gets
      010081B6H   CODE     ---       _I2C_Get
      01005072H   CODE     ---       _I2C_Gets
      0100846DH   CODE     ---       _I2C_Put
      01005D9DH   CODE     ---       _I2C_Puts
      01007ADAH   CODE     ---       _I2C_Write
      01000F4CH   CODE     ---       _int_hub_dump_ext_status
      01007559H   CODE     ---       _int_hub_test_bit
      0100884FH   CODE     ---       _isdigit
      01008535H   CODE     ---       _isspace
      010081CDH   CODE     ---       _led_clr_blink
      010087E6H   CODE     ---       _led_clr_dp
      010082F2H   CODE     ---       _led_set_blink
      010060D3H   CODE     ---       _led_set_code
      010087F5H   CODE     ---       _led_set_dp
      01005B93H   CODE     ---       _lt_timer_save_to_rom
      01006033H   CODE     ---       _mod_proc
      01006C4AH   CODE     ---       _mod_set_proc
      01008670H   CODE     ---       _mpu_threshold_inc
      010088CEH   CODE     ---       _mpu_threshold_set
      01008CC9H   CODE     ---       _null_proc
      01007F64H   CODE     ---       _power_proc
      01000B34H   CODE     ---       _PRINTF
      0100703CH   CODE     ---       _putbuf
      0100801AH   CODE     ---       _putchar
      01006D54H   CODE     ---       _rom_read
      01006EEAH   CODE     ---       _rom_write
      01007F4AH   CODE     ---       _rtc_alarm_set_date
      010082B0H   CODE     ---       _rtc_alarm_set_day
      0100856FH   CODE     ---       _rtc_alarm_set_hour
      01008582H   CODE     ---       _rtc_alarm_set_min
      0100463BH   CODE     ---       _rtc_alarm_set_mode
      010082C6H   CODE     ---       _rtc_alarm_set_sec
      0100819FH   CODE     ---       _rtc_clr_alarm_int_flag
      01003FD5H   CODE     ---       _rtc_date_set_date
      010085CEH   CODE     ---       _rtc_date_set_day
      01008BC6H   CODE     ---       _rtc_date_set_month
      01008BBEH   CODE     ---       _rtc_date_set_year
      010076D8H   CODE     ---       _rtc_enable_alarm_int
      01004246H   CODE     ---       _rtc_get_temperature
      01005AE1H   CODE     ---       _rtc_read_data
      010086B7H   CODE     ---       _rtc_set_square_rate
      01007BAEH   CODE     ---       _rtc_test_alarm_int
      01007BCBH   CODE     ---       _rtc_test_alarm_int_flag
      01008C04H   CODE     ---       _rtc_time_set_hour
      01008AD9H   CODE     ---       _rtc_time_set_min
      01008C0AH   CODE     ---       _rtc_time_set_sec
      01005BEBH   CODE     ---       _rtc_write_data
      01001D48H   CODE     ---       _run_state_machine
      010049E7H   CODE     ---       _scan_fuse
      01004E35H   CODE     ---       _scan_hg
      010057A4H   CODE     ---       _scan_int_hub_proc
      01002A62H   CODE     ---       _scan_key_proc
      01006FACH   CODE     ---       _serial_set_ctl_bit
      01007126H   CODE     ---       _serial_test_ctl_bit
      01006083H   CODE     ---       _set_proc
      01006331H   CODE     ---       _shell_search_cmd_by_name
      01004EAAH   CODE     ---       _sm_clock_alarm
      010083F4H   CODE     ---       _sm_clock_counter_init
      0100436FH   CODE     ---       _sm_clock_counter_submod0
      0100591AH   CODE     ---       _sm_clock_counter_submod1
      01005803H   CODE     ---       _sm_clock_counter_submod2
      010066F6H   CODE     ---       _sm_clock_counter_submod3
      01007886H   CODE     ---       _sm_clock_counter_submod4
LX51 LINKER/LOCATER V4.66.87.0                                                        05/30/2018  19:50:23  PAGE 57


      01007667H   CODE     ---       _sm_clock_counter_submod5
      010077B1H   CODE     ---       _sm_clock_display_init
      0100637AH   CODE     ---       _sm_clock_display_submod0
      0100720AH   CODE     ---       _sm_clock_display_submod1
      010077D5H   CODE     ---       _sm_clock_display_submod2
      01007490H   CODE     ---       _sm_clock_display_submod3
      01008822H   CODE     ---       _sm_clock_mod_alarm_init
      01005684H   CODE     ---       _sm_clock_mod_alarm_submod0
      01005976H   CODE     ---       _sm_clock_mod_alarm_submod1
      01005C99H   CODE     ---       _sm_clock_mod_alarm_submod2
      01007313H   CODE     ---       _sm_clock_mod_alarm_submod3
      0100733EH   CODE     ---       _sm_clock_mod_alarm_submod4
      01007FCCH   CODE     ---       _sm_clock_mod_time_init
      010072E7H   CODE     ---       _sm_clock_mod_time_submod0
      01008065H   CODE     ---       _sm_clock_mod_time_submod1
      01007C78H   CODE     ---       _sm_clock_mod_time_submod2
      01007C94H   CODE     ---       _sm_clock_mod_time_submod3
      01007CB0H   CODE     ---       _sm_clock_mod_time_submod4
      01007CCCH   CODE     ---       _sm_clock_mod_time_submod5
      01006E87H   CODE     ---       _sm_clock_powersave
      01007FB2H   CODE     ---       _sm_clock_timer_init
      0100640CH   CODE     ---       _sm_clock_timer_submod0
      01004F1FH   CODE     ---       _sm_clock_timer_submod1
      010058BEH   CODE     ---       _sm_clock_timer_submod2
      01008831H   CODE     ---       _sm_fuse_detonate_init
      01005744H   CODE     ---       _sm_fuse_detonate_submod0
      010077F9H   CODE     ---       _sm_fuse_param_init
      010063C3H   CODE     ---       _sm_fuse_param_submod0
      01007DC8H   CODE     ---       _sm_fuse_param_submod1
      01007DE4H   CODE     ---       _sm_fuse_param_submod2
      01007E00H   CODE     ---       _sm_fuse_param_submod3
      01007E1CH   CODE     ---       _sm_fuse_param_submod4
      01007E38H   CODE     ---       _sm_fuse_param_submod5
      01004491H   CODE     ---       _sm_fuse_param_submod6
      01008ACFH   CODE     ---       _sm_fuse_powersave_init
      01007B18H   CODE     ---       _sm_fuse_powersave_submod0
      010084F9H   CODE     ---       _sm_fuse_powersave_submod1
      01006927H   CODE     ---       _sm_fuse_test_init
      0100232AH   CODE     ---       _sm_fuse_test_submod0
      01007CE8H   CODE     ---       _sm_fuse_test_submod1
      01007D04H   CODE     ---       _sm_fuse_test_submod2
      01007D20H   CODE     ---       _sm_fuse_test_submod3
      01007D3CH   CODE     ---       _sm_fuse_test_submod4
      01007D58H   CODE     ---       _sm_fuse_test_submod5
      01007D74H   CODE     ---       _sm_fuse_test_submod6
      01007D90H   CODE     ---       _sm_fuse_test_submod7
      01007DACH   CODE     ---       _sm_fuse_test_submod8
      01007C3FH   CODE     ---       _sm_fuse_timer_init
      01002B68H   CODE     ---       _sm_fuse_timer_submod0
      01005CF0H   CODE     ---       _sm_fuse_timer_submod1
      01003737H   CODE     ---       _sm_fuse_timer_submod2
      010075CEH   CODE     ---       _sm_fuse_timer_submod3
      01007E54H   CODE     ---       _sm_fuse_timer_submod4
      01008158H   CODE     ---       _sm_global_flag_mod_init
      0100807EH   CODE     ---       _sm_global_flag_mod_submod0
      01008097H   CODE     ---       _sm_global_flag_mod_submod1
      01007E70H   CODE     ---       _sm_global_flag_mod_submod2
      01007E8CH   CODE     ---       _sm_global_flag_mod_submod3
      01007F2FH   CODE     ---       _sm_power_pack_display_init
      01005E9BH   CODE     ---       _sm_power_pack_display_submod0
      010089B2H   CODE     ---       _sm_power_pack_powersave_init
      01007C22H   CODE     ---       _sm_power_pack_powersave_submod0
      010034D6H   CODE     ---       _sm_set_state_by_name
      010047DAH   CODE     ---       _sm_set_sub_state_by_name
      01003C7CH   CODE     ---       _sm_set_table_by_name
LX51 LINKER/LOCATER V4.66.87.0                                                        05/30/2018  19:50:23  PAGE 58


      01000B2EH   CODE     ---       _SPRINTF
      01005862H   CODE     ---       _thermo_hi_threshold_set
      01005365H   CODE     ---       _thermo_lo_threshold_set
      0100834AH   CODE     ---       _thermo_proc
      010066B5H   CODE     ---       _thermo_threshold_inc
      01008549H   CODE     ---       _time_proc
      01008495H   CODE     ---       _timer_get_hour
      010084A9H   CODE     ---       _timer_get_min
      01007910H   CODE     ---       _timer_get_ms10
      010084BDH   CODE     ---       _timer_get_sec
      01007C5CH   CODE     ---       _timer_inc_hour
      01008110H   CODE     ---       _timer_inc_min
      01008128H   CODE     ---       _timer_inc_sec
      010073BEH   CODE     ---       _timer_save
      01008C58H   CODE     ---       _timer_set_mode
      01006CEBH   CODE     ---       _VPRINTF
*SFR* 000000D0H.6 DATA     BIT       AC
*SFR* 000000E0H   DATA     BYTE      ACC
      01008C16H   CODE     ---       alarm0_get_day_mask
      01008C22H   CODE     ---       alarm0_get_hour
      01008CCFH   CODE     ---       alarm0_get_hour_12
      01008C1CH   CODE     ---       alarm0_get_min
      0100887AH   CODE     ---       alarm0_inc_hour
      0100886CH   CODE     ---       alarm0_inc_min
      01000026H   CODE     ---       alarm0_set_hour_12
      01005F41H   CODE     ---       alarm0_sync_to_rtc
      01008C70H   CODE     ---       alarm1_set_enable
      01006775H   CODE     ---       alarm1_sync_to_rtc
      01008CD2H   CODE     ---       alarm1_test_enable
      01005435H   CODE     ---       alarm_dump
      01008AFDH   CODE     ---       alarm_enter_powersave
      01008AF4H   CODE     ---       alarm_initialize
      01008B06H   CODE     ---       alarm_leave_powersave
      0100781DH   CODE     ---       alarm_switch_off
      010080E0H   CODE     ---       alarm_switch_on
*SFR* 0000008EH   DATA     BYTE      AUXR
*SFR* 000000A2H   DATA     BYTE      AUXR1
*SFR* 000000F0H   DATA     BYTE      B
      01007394H   CODE     ---       beeper_beep
      010065F0H   CODE     ---       beeper_beep_beep
      010067B4H   CODE     ---       beeper_beep_beep_always
      01008B18H   CODE     ---       beeper_enter_powersave
      01008CE1H   CODE     ---       beeper_get_beep_enable
      01008C3AH   CODE     ---       beeper_get_music_index
      01008C34H   CODE     ---       beeper_get_music_to
      010081FBH   CODE     ---       beeper_inc_music_index
      01007EC3H   CODE     ---       beeper_inc_music_to
      010065ADH   CODE     ---       beeper_initialize
      01008B21H   CODE     ---       beeper_leave_powersave
*SFR* 00000090H.0 DATA     BIT       beeper_out
      010078EEH   CODE     ---       beeper_play_music
      01008C75H   CODE     ---       beeper_set_beep_enable
      01008CE4H   CODE     ---       beeper_stop_music
*SFR* 000000C8H.1 DATA     BIT       C_T2
      01008C93H   CODE     ---       clock_clr_sec
      01008C7AH   CODE     ---       clock_display
      010042DCH   CODE     ---       clock_dump
      01008B2AH   CODE     ---       clock_enable_interrupt
      010088B2H   CODE     ---       clock_enter_powersave
      01008CEAH   CODE     ---       clock_enter_shell
      01008C46H   CODE     ---       clock_get_date
      01008C4CH   CODE     ---       clock_get_day
      01008C9DH   CODE     ---       clock_get_hour
      01008CE7H   CODE     ---       clock_get_hour_12
      01008C98H   CODE     ---       clock_get_min
LX51 LINKER/LOCATER V4.66.87.0                                                        05/30/2018  19:50:23  PAGE 59


      01008C52H   CODE     ---       clock_get_month
      01008C84H   CODE     ---       clock_get_ms39
      01008C8EH   CODE     ---       clock_get_sec
      01008C89H   CODE     ---       clock_get_sec_256
      01008CA2H   CODE     ---       clock_get_year
      01007A1AH   CODE     ---       clock_inc_date
      010089DFH   CODE     ---       clock_inc_hour
      010089D4H   CODE     ---       clock_inc_min
      01008308H   CODE     ---       clock_inc_month
      010083B5H   CODE     ---       clock_inc_year
      010071DDH   CODE     ---       clock_initialize
      010080F8H   CODE     ---       clock_leave_powersave
      0100831EH   CODE     ---       clock_leave_shell
      01008C7FH   CODE     ---       clock_set_hour_12
      01009D75H   CONST    ---       cmds
      0100885EH   CODE     ---       com_enter_powersave
      010074B9H   CODE     ---       com_initialize
      01000016H   CODE     ---       com_leave_powersave
      01008409H   CODE     ---       com_try_get_key
      020000D8H   XDATA    BYTE      common_state
*SFR* 000000C8H.0 DATA     BIT       CP_RL2
*SFR* 000000D0H.7 DATA     BIT       CY
      01008CF3H   CODE     ---       debug_initialize
      01008CC0H   CODE     ---       debug_onoff
      01005F92H   CODE     ---       delay_task_call
      01008B72H   CODE     ---       delay_task_initialize
*SFR* 00000083H   DATA     BYTE      DPH
*SFR* 00000082H   DATA     BYTE      DPL
*SFR* 000000A8H.7 DATA     BIT       EA
*SFR* 000000A8H.6 DATA     BIT       EC
*SFR* 000000A8H.4 DATA     BIT       ES
*SFR* 000000A8H.1 DATA     BIT       ET0
*SFR* 000000A8H.3 DATA     BIT       ET1
*SFR* 000000A8H.5 DATA     BIT       ET2
      0000004EH   IDATA    WORD      ev_bits0
      00000050H   IDATA    WORD      ev_bits1
*SFR* 000000A8H.0 DATA     BIT       EX0
*SFR* 000000A8H.2 DATA     BIT       EX1
*SFR* 000000C8H.3 DATA     BIT       EXEN2
*SFR* 000000C8H.6 DATA     BIT       EXF2
*SFR* 00000090H.4 DATA     BIT       EXT_INT
*SFR* 000000D0H.5 DATA     BIT       F0
*SFR* 00000098H.7 DATA     BIT       FE
      01007509H   CODE     ---       fuse_enable
      01008B3CH   CODE     ---       fuse_enter_powersave
      01008952H   CODE     ---       fuse_initialize
      01008B45H   CODE     ---       fuse_leave_powersave
      01007641H   CODE     ---       fuse_set_tripwire_broke
      01006C80H   CODE     ---       fuse_trigger
      01008521H   CODE     ---       GETCHAR
      01007531H   CODE     ---       hg_enable
      01008B4EH   CODE     ---       hg_enter_powersave
      01008616H   CODE     ---       hg_get_state
      0100896AH   CODE     ---       hg_initialize
      01008B57H   CODE     ---       hg_leave_powersave
      010086D0H   CODE     ---       I2C_Delay
      010078CCH   CODE     ---       I2C_GetAck
      01008A93H   CODE     ---       I2C_Init
      010085E0H   CODE     ---       I2C_PutAck
      0100706BH   CODE     ---       I2C_Read
*SFR* 00000090H.7 DATA     BIT       I2C_SCL
*SFR* 00000090H.6 DATA     BIT       I2C_SDA
      010089C9H   CODE     ---       I2C_Start
      010082DCH   CODE     ---       I2C_Stop
*SFR* 000000A8H   DATA     BYTE      IE
LX51 LINKER/LOCATER V4.66.87.0                                                        05/30/2018  19:50:23  PAGE 60


*SFR* 00000088H.1 DATA     BIT       IE0
*SFR* 00000088H.3 DATA     BIT       IE1
*SFR* 000000B0H.2 DATA     BIT       INT0
*SFR* 000000B0H.3 DATA     BIT       INT1
*SFR* 000000B0H.3 DATA     BIT       INT_BIT
      01005624H   CODE     ---       int_hub_dump
      010054FFH   CODE     ---       int_hub_get_status
      0100514DH   CODE     ---       int_hub_initialize
*SFR* 000000B8H   DATA     BYTE      IP
*SFR* 000000B7H   DATA     BYTE      IPH
*SFR* 000000E3H   DATA     BYTE      ISP_ADDRH
*SFR* 000000E4H   DATA     BYTE      ISP_ADDRL
*SFR* 000000E5H   DATA     BYTE      ISP_CMD
*SFR* 000000E7H   DATA     BYTE      ISP_CONTR
*SFR* 000000E2H   DATA     BYTE      ISP_DATA
*SFR* 000000E6H   DATA     BYTE      ISP_TRIG
*SFR* 00000088H.0 DATA     BIT       IT0
*SFR* 00000088H.2 DATA     BIT       IT1
      01008AE2H   CODE     ---       key_enter_powersave
      01008033H   CODE     ---       key_initialize
      01008AEBH   CODE     ---       key_leave_powersave
      020000DAH   XDATA    BYTE      last_display_s
      00000036H   IDATA    BYTE      led_blink
      010086EAH   CODE     ---       led_clear
      0100D1C0H   CONST    ---       led_code
      00000038H   IDATA    ---       led_data
      010086FBH   CODE     ---       led_enter_powersave
      0100699EH   CODE     ---       led_initialize
      0100838BH   CODE     ---       led_leave_powersave
      00000025H.0 BIT      BIT       led_powersave
      0100761BH   CODE     ---       led_restore
      010075F5H   CODE     ---       led_save
      00000022H.7 BIT      BIT       lpress_lock_day_sec
      00000022H.5 BIT      BIT       lpress_lock_month_min
      00000022H.6 BIT      BIT       lpress_lock_year_hour
      020000D9H   XDATA    BYTE      lpress_start
      01004110H   CODE     ---       lt_timer_dec_sec
      01007F98H   CODE     ---       lt_timer_display
      010083CAH   CODE     ---       lt_timer_enter_powersave
      01008C64H   CODE     ---       lt_timer_get_date
      01008CB1H   CODE     ---       lt_timer_get_hour
      01008CF0H   CODE     ---       lt_timer_get_hour_12
      01008CB6H   CODE     ---       lt_timer_get_min
      01008C5EH   CODE     ---       lt_timer_get_month
      01004861H   CODE     ---       lt_timer_get_relative
      01008CBBH   CODE     ---       lt_timer_get_sec
      01008CACH   CODE     ---       lt_timer_get_year
      010085A8H   CODE     ---       lt_timer_inc_date
      01008A0BH   CODE     ---       lt_timer_inc_hour
      01008A16H   CODE     ---       lt_timer_inc_min
      01008A00H   CODE     ---       lt_timer_inc_month
      01008A21H   CODE     ---       lt_timer_inc_sec
      010089F5H   CODE     ---       lt_timer_inc_year
      010084D1H   CODE     ---       lt_timer_initialize
      01007745H   CODE     ---       lt_timer_leave_powersave
      01006674H   CODE     ---       lt_timer_load_from_rom
      01008804H   CODE     ---       lt_timer_reset
      01008CA7H   CODE     ---       lt_timer_set_hour_12
      010088C0H   CODE     ---       lt_timer_start_ram
      01007B37H   CODE     ---       lt_timer_start_rtc
      01008976H   CODE     ---       lt_timer_stop_ram
      01007B55H   CODE     ---       lt_timer_stop_rtc
      01008229H   CODE     ---       lt_timer_switch_display
      01007840H   CODE     ---       lt_timer_switch_off
      010083DFH   CODE     ---       lt_timer_switch_on
LX51 LINKER/LOCATER V4.66.87.0                                                        05/30/2018  19:50:23  PAGE 61


      01006632H   CODE     ---       lt_timer_sync_to_rtc
      01006171H   CODE     ---       main
*SFR* 000000A0H.6 DATA     BIT       MOD_KEY
      01007AF9H   CODE     ---       mpu_enable
      01008B7BH   CODE     ---       mpu_enter_powersave
      01008813H   CODE     ---       mpu_initialize
*SFR* 00000090H.2 DATA     BIT       MPU_INT
      01008B84H   CODE     ---       mpu_leave_powersave
      0100778DH   CODE     ---       mpu_read_int_status
      01008C6AH   CODE     ---       mpu_threshold_get
      01008BEEH   CODE     ---       mpu_threshold_reset
*SFR* 000000D0H.2 DATA     BIT       OV
*SFR* 000000D0H.0 DATA     BIT       P
*SFR* 00000080H   DATA     BYTE      P0
*SFR* 00000080H.0 DATA     BIT       P00
*SFR* 00000080H.1 DATA     BIT       P01
*SFR* 00000080H.2 DATA     BIT       P02
*SFR* 00000080H.3 DATA     BIT       P03
*SFR* 00000080H.4 DATA     BIT       P04
*SFR* 00000080H.5 DATA     BIT       P05
*SFR* 00000080H.6 DATA     BIT       P06
*SFR* 00000080H.7 DATA     BIT       P07
*SFR* 00000090H   DATA     BYTE      P1
*SFR* 00000090H.0 DATA     BIT       P10
*SFR* 00000090H.1 DATA     BIT       P11
*SFR* 00000090H.2 DATA     BIT       P12
*SFR* 00000090H.3 DATA     BIT       P13
*SFR* 00000090H.4 DATA     BIT       P14
*SFR* 00000090H.5 DATA     BIT       P15
*SFR* 00000090H.6 DATA     BIT       P16
*SFR* 00000090H.7 DATA     BIT       P17
*SFR* 000000A0H   DATA     BYTE      P2
*SFR* 000000A0H.0 DATA     BIT       P20
*SFR* 000000A0H.1 DATA     BIT       P21
*SFR* 000000A0H.2 DATA     BIT       P22
*SFR* 000000A0H.3 DATA     BIT       P23
*SFR* 000000A0H.4 DATA     BIT       P24
*SFR* 000000A0H.5 DATA     BIT       P25
*SFR* 000000A0H.6 DATA     BIT       P26
*SFR* 000000A0H.7 DATA     BIT       P27
*SFR* 000000B0H   DATA     BYTE      P3
*SFR* 000000B0H.0 DATA     BIT       P30
*SFR* 000000B0H.1 DATA     BIT       P31
*SFR* 000000B0H.2 DATA     BIT       P32
*SFR* 000000B0H.3 DATA     BIT       P33
*SFR* 000000B0H.4 DATA     BIT       P34
*SFR* 000000B0H.5 DATA     BIT       P35
*SFR* 000000B0H.6 DATA     BIT       P36
*SFR* 000000B0H.7 DATA     BIT       P37
*SFR* 000000E8H   DATA     BYTE      P4
*SFR* 000000E8H.0 DATA     BIT       P40
*SFR* 000000E8H.1 DATA     BIT       P41
*SFR* 000000E8H.2 DATA     BIT       P42
*SFR* 000000E8H.3 DATA     BIT       P43
*SFR* 000000E8H.4 DATA     BIT       P44
*SFR* 000000E8H.5 DATA     BIT       P45
*SFR* 000000E8H.6 DATA     BIT       P46
*SFR* 00000087H   DATA     BYTE      PCON
*SFR* 000000B0H.6 DATA     BIT       POWER_5V_EN
      01007EA8H   CODE     ---       power_5v_enable
      01008CC5H   CODE     ---       power_5v_get_enable
      01008CDBH   CODE     ---       power_clr_flag
      010061BDH   CODE     ---       power_enter_powersave
      010081E4H   CODE     ---       power_get_powersave_to
      01008C28H   CODE     ---       power_get_powersave_to_s
LX51 LINKER/LOCATER V4.66.87.0                                                        05/30/2018  19:50:23  PAGE 62


      01008CDEH   CODE     ---       power_get_volume
      01007721H   CODE     ---       power_inc_powersave_to
      01006DEFH   CODE     ---       power_initialize
      01006F4CH   CODE     ---       power_leave_powersave
      01008B0FH   CODE     ---       power_reset_powersave_to
      01008CD8H   CODE     ---       power_set_flag
      01008CD5H   CODE     ---       power_test_flag
      01006F7CH   CODE     ---       power_test_powersave_to
      00000025H.1 BIT      BIT       powersave_flag
*SFR* 000000A0H   DATA     BYTE      PPAGE_SFR
*SFR* 000000B8H.4 DATA     BIT       PS
*SFR* 000000D0H   DATA     BYTE      PSW
*SFR* 000000B8H.1 DATA     BIT       PT0
*SFR* 000000B8H.3 DATA     BIT       PT1
*SFR* 000000B8H.5 DATA     BIT       PT2
*SFR* 000000B8H.0 DATA     BIT       PX0
*SFR* 000000B8H.2 DATA     BIT       PX1
*SFR* 00000098H.2 DATA     BIT       RB8
*SFR* 000000CBH   DATA     BYTE      RCAP2H
*SFR* 000000CAH   DATA     BYTE      RCAP2L
*SFR* 000000C8H.5 DATA     BIT       RCLK
*SFR* 000000B0H.7 DATA     BIT       RD
      01005A2EH   CODE     ---       refresh_led
*SFR* 00000098H.4 DATA     BIT       REN
*SFR* 00000098H.0 DATA     BIT       RI
      0100686FH   CODE     ---       rom_initialize
      01008BE6H   CODE     ---       rom_is_factory_reset
*SFR* 000000B0H.7 DATA     BIT       ROM_RESET
*SFR* 000000D0H.3 DATA     BIT       RS0
*SFR* 000000D0H.4 DATA     BIT       RS1
      01008376H   CODE     ---       rtc_alarm_get_date
      0100841DH   CODE     ---       rtc_alarm_get_day
      0100826EH   CODE     ---       rtc_alarm_get_hour
      01008284H   CODE     ---       rtc_alarm_get_hour_12
      0100829AH   CODE     ---       rtc_alarm_get_min
      01008445H   CODE     ---       rtc_alarm_get_mod_str
      010035A4H   CODE     ---       rtc_alarm_get_mode
      01008431H   CODE     ---       rtc_alarm_get_sec
      01007B91H   CODE     ---       rtc_alarm_set_hour_12
      01008BCEH   CODE     ---       rtc_date_get_date
      01008C10H   CODE     ---       rtc_date_get_day
      0100893AH   CODE     ---       rtc_date_get_month
      0100892EH   CODE     ---       rtc_date_get_year
      010011B2H   CODE     ---       rtc_dump
      010080B0H   CODE     ---       rtc_enter_powersave
      01008914H   CODE     ---       rtc_get_square_rate
      01008459H   CODE     ---       rtc_get_square_rate_str
      01002F61H   CODE     ---       rtc_initialize
*SFR* 00000090H.1 DATA     BIT       RTC_INT
      01008CCCH   CODE     ---       rtc_is_lt_timer
      010080C8H   CODE     ---       rtc_leave_powersave
      0100878CH   CODE     ---       rtc_set_bbsqw
      0100879BH   CODE     ---       rtc_set_conv
      010087C8H   CODE     ---       rtc_set_en32khz
      0100877DH   CODE     ---       rtc_set_eosc
      010087AAH   CODE     ---       rtc_set_intcn
      01000006H   CODE     ---       rtc_set_lt_timer
      010087B9H   CODE     ---       rtc_set_osf
      01008A57H   CODE     ---       rtc_test_bbsqw
      01008A89H   CODE     ---       rtc_test_bsy
      01008A61H   CODE     ---       rtc_test_conv
      01008A7FH   CODE     ---       rtc_test_en32khz
      01008A4DH   CODE     ---       rtc_test_eosc
      01008A6BH   CODE     ---       rtc_test_intcn
      01008A75H   CODE     ---       rtc_test_osf
LX51 LINKER/LOCATER V4.66.87.0                                                        05/30/2018  19:50:23  PAGE 63


      01008B9EH   CODE     ---       rtc_time_get_hour
      01008BA6H   CODE     ---       rtc_time_get_hour_12
      01008BAEH   CODE     ---       rtc_time_get_min
      01008BB6H   CODE     ---       rtc_time_get_sec
      0100872DH   CODE     ---       rtc_time_set_hour_12
      01002493H   CODE     ---       run_shell
      01003DE3H   CODE     ---       run_task
*SFR* 000000B0H.0 DATA     BIT       RXD
*SFR* 000000A9H   DATA     BYTE      SADDR
*SFR* 000000B9H   DATA     BYTE      SADEN
      020000BBH   XDATA    BYTE      saved_led_blink
      020000BDH   XDATA    ---       saved_led_data
*SFR* 00000099H   DATA     BYTE      SBUF
      01004CCDH   CODE     ---       scan_alarm
      01006255H   CODE     ---       scan_lt_timer
      010070C9H   CODE     ---       scan_mpu
      0100855CH   CODE     ---       scan_rtc
      010051B9H   CODE     ---       scan_thermo
*SFR* 00000098H   DATA     BYTE      SCON
      00000023H.3 BIT      BIT       sendactive
      00000023H.4 BIT      BIT       sendfull
      01007F14H   CODE     ---       serial_ctl_out
      010013FCH   CODE     ---       serial_dump
      01006A4CH   CODE     ---       serial_hub_initialize
*SFR* 000000A0H.7 DATA     BIT       SET_KEY
      0200007DH   XDATA    ---       shell_buf
      01006CB6H   CODE     ---       shell_dump_cmd
*SFR* 00000098H.7 DATA     BIT       SM0
*SFR* 00000098H.6 DATA     BIT       SM1
*SFR* 00000098H.5 DATA     BIT       SM2
      0100D35AH   CONST    ---       sm_clock_alarm_ss_name
      0100BDEFH   CONST    ---       sm_clock_counter_ss_name
      0100C8E9H   CONST    ---       sm_clock_display_ss_name
      0100C193H   CONST    ---       sm_clock_mod_alarm_ss_name
      0100BA12H   CONST    ---       sm_clock_mod_time_name
      0100D3B1H   CONST    ---       sm_clock_powersave_ss_name
      0100C9DCH   CONST    ---       sm_clock_timer_ss_name
      020000D3H   XDATA    BYTE      sm_curr_table
      01002E6DH   CODE     ---       sm_dump
      01005FE3H   CODE     ---       sm_dump_state
      01005A88H   CODE     ---       sm_dump_sub_state
      01006B6BH   CODE     ---       sm_dump_table
      0100D011H   CONST    ---       sm_fuse_detonate_ss_name
      0100BC05H   CONST    ---       sm_fuse_param_ss_name
      0100CD5DH   CONST    ---       sm_fuse_powersave_ss_name
      0100AEC7H   CONST    ---       sm_fuse_test_ss_name
      0100B80FH   CONST    ---       sm_fuse_timer_ss_name
      0100C62CH   CONST    ---       sm_global_flag_mod_ss_name
      010076B3H   CODE     ---       sm_initialize
      020000D4H   XDATA    BYTE      sm_new_table
      0100CE8EH   CONST    ---       sm_power_pack_display_ss_name
      0100CDFBH   CONST    ---       sm_power_pack_powersave_ss_name
      01006736H   CODE     ---       sm_show_current
*SFR* 00000081H   DATA     BYTE      SP
*SFR* 000000B0H.4 DATA     BIT       T0
*SFR* 000000B0H.5 DATA     BIT       T1
*SFR* 00000090H.0 DATA     BIT       T2
*SFR* 000000C8H   DATA     BYTE      T2CON
*SFR* 00000090H.1 DATA     BIT       T2EX
*SFR* 000000C9H   DATA     BYTE      T2MOD
      01004BD9H   CODE     ---       task_dump
      01008481H   CODE     ---       task_initialize
      0100B572H   CONST    ---       task_name
*SFR* 00000098H.3 DATA     BIT       TB8
*SFR* 000000C8H.4 DATA     BIT       TCLK
LX51 LINKER/LOCATER V4.66.87.0                                                        05/30/2018  19:50:23  PAGE 64


*SFR* 00000088H   DATA     BYTE      TCON
*SFR* 00000088H.5 DATA     BIT       TF0
*SFR* 00000088H.7 DATA     BIT       TF1
*SFR* 000000C8H.7 DATA     BIT       TF2
*SFR* 0000008CH   DATA     BYTE      TH0
*SFR* 0000008DH   DATA     BYTE      TH1
*SFR* 000000CDH   DATA     BYTE      TH2
      01008AB1H   CODE     ---       thermo_enable
      01008B60H   CODE     ---       thermo_enter_powersave
      01006EB9H   CODE     ---       thermo_get_current
      01008628H   CODE     ---       thermo_hi_threshold_dec
      01007976H   CODE     ---       thermo_hi_threshold_get
      0100863AH   CODE     ---       thermo_hi_threshold_inc
      01008A2CH   CODE     ---       thermo_hi_threshold_reach_bottom
      0100898EH   CODE     ---       thermo_hi_threshold_reach_top
      01008BD6H   CODE     ---       thermo_hi_threshold_reset
      01008982H   CODE     ---       thermo_initialize
*SFR* 00000090H.3 DATA     BIT       THERMO_INT
      01008B69H   CODE     ---       thermo_leave_powersave
      0100864CH   CODE     ---       thermo_lo_threshold_dec
      01007863H   CODE     ---       thermo_lo_threshold_get
      0100865EH   CODE     ---       thermo_lo_threshold_inc
      01008A37H   CODE     ---       thermo_lo_threshold_reach_bottom
      0100899AH   CODE     ---       thermo_lo_threshold_reach_top
      01008BDEH   CODE     ---       thermo_lo_threshold_reset
*SFR* 00000098H.1 DATA     BIT       TI
      01008140H   CODE     ---       timer_clr
      01008946H   CODE     ---       timer_enter_powersave
      01002D70H   CODE     ---       timer_inc_ms39
      010085F2H   CODE     ---       timer_initialize
      01008B33H   CODE     ---       timer_leave_powersave
      0100873DH   CODE     ---       timer_set_led_autorefresh
      01008334H   CODE     ---       timer_start
      01008CEDH   CODE     ---       timer_stop
*SFR* 0000008AH   DATA     BYTE      TL0
*SFR* 0000008BH   DATA     BYTE      TL1
*SFR* 000000CCH   DATA     BYTE      TL2
*SFR* 00000089H   DATA     BYTE      TMOD
*SFR* 00000088H.4 DATA     BIT       TR0
*SFR* 00000088H.6 DATA     BIT       TR1
*SFR* 000000C8H.2 DATA     BIT       TR2
*SFR* 000000B0H.1 DATA     BIT       TXD
*SFR* 000000E1H   DATA     BYTE      WDT_CONTR
*SFR* 000000B0H.6 DATA     BIT       WR
*SFR* 000000C0H   DATA     BYTE      XICON



SYMBOL TABLE OF MODULE:  Clock (SM)

      VALUE       REP       CLASS    TYPE      SYMBOL NAME
      ====================================================
      ---         MODULE    ---      ---       SM
      020000D4H   PUBLIC    XDATA    BYTE      sm_new_table
      020000D3H   PUBLIC    XDATA    BYTE      sm_curr_table
      010047DAH   PUBLIC    CODE     ---       _sm_set_sub_state_by_name
      010034D6H   PUBLIC    CODE     ---       _sm_set_state_by_name
      01003C7CH   PUBLIC    CODE     ---       _sm_set_table_by_name
      01005A88H   PUBLIC    CODE     ---       sm_dump_sub_state
      01005FE3H   PUBLIC    CODE     ---       sm_dump_state
      01006B6BH   PUBLIC    CODE     ---       sm_dump_table
      01002E6DH   PUBLIC    CODE     ---       sm_dump
      01006736H   PUBLIC    CODE     ---       sm_show_current
      010076B3H   PUBLIC    CODE     ---       sm_initialize
      01001D48H   PUBLIC    CODE     ---       _run_state_machine
LX51 LINKER/LOCATER V4.66.87.0                                                        05/30/2018  19:50:23  PAGE 65


      01008CC9H   PUBLIC    CODE     ---       _null_proc
      01008549H   PUBLIC    CODE     ---       _time_proc
      010096A1H   SYMBOL    CONST    ---       sm_group_power_pack
      010096A9H   SYMBOL    CONST    ---       sm_group_fuse
      010094B0H   SYMBOL    CONST    ---       sm_trans_fuse_timer
      01008FD2H   SYMBOL    CONST    ---       sm_trans_clock_mod_time
      010086A6H   SYMBOL    CODE     ---       _sm_set_state
      01009145H   SYMBOL    CONST    ---       sm_trans_clock_powersave
      010092B8H   SYMBOL    CONST    ---       sm_trans_fuse_test
      01009721H   SYMBOL    CONST    ---       sm_global_flag_names
      01008F2AH   SYMBOL    CONST    ---       sm_trans_clock_display
      010095C8H   SYMBOL    CONST    ---       sm_trans_fuse_detonate
      010089BEH   SYMBOL    CODE     ---       _sm_set_sub_state
      010091CAH   SYMBOL    CONST    ---       sm_trans_clock_counter
      010092A3H   SYMBOL    CONST    ---       sm_trans_power_pack_powersave
      010096BDH   SYMBOL    CONST    ---       sm_group_global_flag
      010095EBH   SYMBOL    CONST    ---       sm_trans_fuse_powersave
      010096CDH   SYMBOL    CONST    ---       sm_clock_names
      01009168H   SYMBOL    CONST    ---       sm_trans_clock_alarm
      0100973FH   SYMBOL    CONST    ---       sm_names
      010096C1H   SYMBOL    CONST    ---       sm_trans_table
      01009272H   SYMBOL    CONST    ---       sm_trans_power_pack_display
      01009685H   SYMBOL    CONST    ---       sm_group_clock
      0100963FH   SYMBOL    CONST    ---       sm_trans_global_flag_mod
      0100918BH   SYMBOL    CONST    ---       sm_trans_clock_timer
      020000D2H   SYMBOL    XDATA    BYTE      sm_state
      0100972DH   SYMBOL    CONST    ---       sm_power_pack_names
      010096FDH   SYMBOL    CONST    ---       sm_fuse_names
      010090C7H   SYMBOL    CONST    ---       sm_trans_clock_mod_alarm
      010093D0H   SYMBOL    CONST    ---       sm_trans_fuse_param

      0100204EH   BLOCK     CODE     ---       LVL=0
      ---         BLOCKEND  ---      ---       LVL=0

      01008549H   BLOCK     CODE     ---       LVL=0
      0200000CH   SYMBOL    XDATA    BYTE      ev
      01008549H   LINE      CODE     ---       #735
      0100854EH   LINE      CODE     ---       #736
      0100854EH   LINE      CODE     ---       #737
      01008551H   LINE      CODE     ---       #738
      01008554H   LINE      CODE     ---       #740
      ---         BLOCKEND  ---      ---       LVL=0

      01008CC9H   BLOCK     CODE     ---       LVL=0
      00000007H   SYMBOL    DATA     BYTE      ev
      01008CC9H   LINE      CODE     ---       #744
      01008CC9H   LINE      CODE     ---       #745
      01008CC9H   LINE      CODE     ---       #746
      ---         BLOCKEND  ---      ---       LVL=0

      01001D48H   BLOCK     CODE     ---       LVL=0
      0200000DH   SYMBOL    XDATA    BYTE      ev
      01001D4DH   BLOCK     CODE     NEAR LAB  LVL=1
      0200000EH   SYMBOL    XDATA    BYTE      c
      0200000FH   SYMBOL    XDATA    BYTE      newstate
      02000010H   SYMBOL    XDATA    BYTE      index
      ---         BLOCKEND  ---      ---       LVL=1
      01001D48H   LINE      CODE     ---       #749
      01001D4DH   LINE      CODE     ---       #750
      01001D4DH   LINE      CODE     ---       #755
      01001D58H   LINE      CODE     ---       #756
      01001D8FH   LINE      CODE     ---       #757
      01001DD6H   LINE      CODE     ---       #759
      01001DD6H   LINE      CODE     ---       #760
      01001DE7H   LINE      CODE     ---       #761
LX51 LINKER/LOCATER V4.66.87.0                                                        05/30/2018  19:50:23  PAGE 66


      01001DF1H   LINE      CODE     ---       #762
      01001E8DH   LINE      CODE     ---       #771
      01001EBFH   LINE      CODE     ---       #772
      01001EC7H   LINE      CODE     ---       #773
      01001ECFH   LINE      CODE     ---       #774
      01001ED0H   LINE      CODE     ---       #775
      01001ED0H   LINE      CODE     ---       #776
      01001ED9H   LINE      CODE     ---       #778
      ---         BLOCKEND  ---      ---       LVL=0

      010076B3H   BLOCK     CODE     ---       LVL=0
      010076B3H   LINE      CODE     ---       #781
      010076B3H   LINE      CODE     ---       #782
      010076B3H   LINE      CODE     ---       #783
      010076BCH   LINE      CODE     ---       #784
      010076C1H   LINE      CODE     ---       #785
      010076C3H   LINE      CODE     ---       #787
      010076C6H   LINE      CODE     ---       #788
      010076C9H   LINE      CODE     ---       #789
      010076CEH   LINE      CODE     ---       #791
      010076D7H   LINE      CODE     ---       #792
      ---         BLOCKEND  ---      ---       LVL=0

      01006736H   BLOCK     CODE     ---       LVL=0
      01006736H   LINE      CODE     ---       #794
      01006736H   LINE      CODE     ---       #795
      01006736H   LINE      CODE     ---       #796
      ---         BLOCKEND  ---      ---       LVL=0

      01002E6DH   BLOCK     CODE     ---       LVL=0
      01002E6DH   BLOCK     CODE     NEAR LAB  LVL=1
      0200000AH   SYMBOL    XDATA    CHAR      i
      0200000BH   SYMBOL    XDATA    CHAR      j
      0200000CH   SYMBOL    XDATA    CHAR      k
      ---         BLOCKEND  ---      ---       LVL=1
      01002E6DH   LINE      CODE     ---       #803
      01002E6DH   LINE      CODE     ---       #804
      01002E6DH   LINE      CODE     ---       #807
      01002E80H   LINE      CODE     ---       #808
      01002E9FH   LINE      CODE     ---       #809
      01002EBFH   LINE      CODE     ---       #810
      01002EFAH   LINE      CODE     ---       #811
      01002F07H   LINE      CODE     ---       #812
      01002F46H   LINE      CODE     ---       #814
      01002F4EH   LINE      CODE     ---       #815
      01002F57H   LINE      CODE     ---       #816
      01002F60H   LINE      CODE     ---       #817
      ---         BLOCKEND  ---      ---       LVL=0

      01006B6BH   BLOCK     CODE     ---       LVL=0
      01006B6BH   BLOCK     CODE     NEAR LAB  LVL=1
      0200000AH   SYMBOL    XDATA    CHAR      i
      ---         BLOCKEND  ---      ---       LVL=1
      01006B6BH   LINE      CODE     ---       #819
      01006B6BH   LINE      CODE     ---       #820
      01006B6BH   LINE      CODE     ---       #822
      01006B7BH   LINE      CODE     ---       #823
      01006B9AH   LINE      CODE     ---       #824
      01006BA2H   LINE      CODE     ---       #825
      ---         BLOCKEND  ---      ---       LVL=0

      01005FE3H   BLOCK     CODE     ---       LVL=0
      01005FE3H   BLOCK     CODE     NEAR LAB  LVL=1
      0200000AH   SYMBOL    XDATA    CHAR      i
      ---         BLOCKEND  ---      ---       LVL=1
LX51 LINKER/LOCATER V4.66.87.0                                                        05/30/2018  19:50:23  PAGE 67


      01005FE3H   LINE      CODE     ---       #827
      01005FE3H   LINE      CODE     ---       #828
      01005FE3H   LINE      CODE     ---       #830
      01005FFEH   LINE      CODE     ---       #831
      0100602AH   LINE      CODE     ---       #832
      01006032H   LINE      CODE     ---       #833
      ---         BLOCKEND  ---      ---       LVL=0

      01005A88H   BLOCK     CODE     ---       LVL=0
      01005A88H   BLOCK     CODE     NEAR LAB  LVL=1
      0200000AH   SYMBOL    XDATA    CHAR      i
      ---         BLOCKEND  ---      ---       LVL=1
      01005A88H   LINE      CODE     ---       #835
      01005A88H   LINE      CODE     ---       #836
      01005A88H   LINE      CODE     ---       #838
      01005AA6H   LINE      CODE     ---       #839
      01005AD8H   LINE      CODE     ---       #841
      01005AE0H   LINE      CODE     ---       #842
      ---         BLOCKEND  ---      ---       LVL=0

      01003C7CH   BLOCK     CODE     ---       LVL=0
      0200000AH   SYMBOL    XDATA    ---       table_name
      01003C82H   BLOCK     CODE     NEAR LAB  LVL=1
      0200000DH   SYMBOL    XDATA    CHAR      i
      ---         BLOCKEND  ---      ---       LVL=1
      01003C7CH   LINE      CODE     ---       #845
      01003C82H   LINE      CODE     ---       #846
      01003C82H   LINE      CODE     ---       #848
      01003C9CH   LINE      CODE     ---       #849
      01003CB4H   LINE      CODE     ---       #850
      01003CCEH   LINE      CODE     ---       #851
      01003CF4H   LINE      CODE     ---       #855
      01003D16H   LINE      CODE     ---       #859
      01003D22H   LINE      CODE     ---       #860
      01003D27H   LINE      CODE     ---       #861
      01003D29H   LINE      CODE     ---       #862
      01003D29H   LINE      CODE     ---       #863
      01003D32H   LINE      CODE     ---       #864
      01003D33H   LINE      CODE     ---       #865
      ---         BLOCKEND  ---      ---       LVL=0

      010086A6H   BLOCK     CODE     ---       LVL=0
      00000007H   SYMBOL    DATA     BYTE      state
      010086A6H   LINE      CODE     ---       #867
      010086A6H   LINE      CODE     ---       #868
      010086A6H   LINE      CODE     ---       #869
      010086AEH   LINE      CODE     ---       #870
      010086B6H   LINE      CODE     ---       #871
      ---         BLOCKEND  ---      ---       LVL=0

      010089BEH   BLOCK     CODE     ---       LVL=0
      00000007H   SYMBOL    DATA     BYTE      sub_state
      010089BEH   LINE      CODE     ---       #873
      010089BEH   LINE      CODE     ---       #874
      010089BEH   LINE      CODE     ---       #875
      010089C3H   LINE      CODE     ---       #876
      010089C8H   LINE      CODE     ---       #877
      ---         BLOCKEND  ---      ---       LVL=0

      010034D6H   BLOCK     CODE     ---       LVL=0
      0200000AH   SYMBOL    XDATA    ---       state_name
      010034DCH   BLOCK     CODE     NEAR LAB  LVL=1
      0200000DH   SYMBOL    XDATA    CHAR      i
      ---         BLOCKEND  ---      ---       LVL=1
      010034D6H   LINE      CODE     ---       #879
LX51 LINKER/LOCATER V4.66.87.0                                                        05/30/2018  19:50:23  PAGE 68


      010034DCH   LINE      CODE     ---       #880
      010034DCH   LINE      CODE     ---       #882
      010034FEH   LINE      CODE     ---       #883
      01003525H   LINE      CODE     ---       #884
      01003554H   LINE      CODE     ---       #887
      0100358AH   LINE      CODE     ---       #891
      01003592H   LINE      CODE     ---       #892
      01003597H   LINE      CODE     ---       #893
      01003599H   LINE      CODE     ---       #894
      01003599H   LINE      CODE     ---       #895
      010035A2H   LINE      CODE     ---       #896
      010035A3H   LINE      CODE     ---       #897
      ---         BLOCKEND  ---      ---       LVL=0

      010047DAH   BLOCK     CODE     ---       LVL=0
      0200000AH   SYMBOL    XDATA    ---       sub_state_name
      010047E0H   BLOCK     CODE     NEAR LAB  LVL=1
      0200000DH   SYMBOL    XDATA    CHAR      i
      ---         BLOCKEND  ---      ---       LVL=1
      010047DAH   LINE      CODE     ---       #899
      010047E0H   LINE      CODE     ---       #900
      010047E0H   LINE      CODE     ---       #902
      010047F6H   LINE      CODE     ---       #903
      0100481AH   LINE      CODE     ---       #904
      0100484DH   LINE      CODE     ---       #908
      01004855H   LINE      CODE     ---       #909
      01004857H   LINE      CODE     ---       #910
      01004857H   LINE      CODE     ---       #911
      0100485FH   LINE      CODE     ---       #912
      01004860H   LINE      CODE     ---       #913
      ---         BLOCKEND  ---      ---       LVL=0

      ---         MODULE    ---      ---       MAIN
      01006171H   PUBLIC    CODE     ---       main
      00000080H   SFRSYM    DATA     BYTE      P0
      00000090H   SFRSYM    DATA     BYTE      P1
      000000A0H   SFRSYM    DATA     BYTE      P2
      000000B0H   SFRSYM    DATA     BYTE      P3
      000000C0H   SFRSYM    DATA     BYTE      XICON
      000000B0H.4 SFRSYM    DATA     BIT       T0
      000000D0H.6 SFRSYM    DATA     BIT       AC
      000000E8H   SFRSYM    DATA     BYTE      P4
      000000B0H.5 SFRSYM    DATA     BIT       T1
      000000E6H   SFRSYM    DATA     BYTE      ISP_TRIG
      00000090H.0 SFRSYM    DATA     BIT       T2
      000000A8H.7 SFRSYM    DATA     BIT       EA
      000000A8H.6 SFRSYM    DATA     BIT       EC
      00000098H.7 SFRSYM    DATA     BIT       FE
      000000A8H   SFRSYM    DATA     BYTE      IE
      000000C8H.6 SFRSYM    DATA     BIT       EXF2
      000000B0H.7 SFRSYM    DATA     BIT       RD
      000000A8H.4 SFRSYM    DATA     BIT       ES
      000000B8H   SFRSYM    DATA     BYTE      IP
      00000098H.0 SFRSYM    DATA     BIT       RI
      000000B0H.2 SFRSYM    DATA     BIT       INT0
      000000D0H.7 SFRSYM    DATA     BIT       CY
      00000098H.1 SFRSYM    DATA     BIT       TI
      000000B0H.3 SFRSYM    DATA     BIT       INT1
      000000CBH   SFRSYM    DATA     BYTE      RCAP2H
      000000E5H   SFRSYM    DATA     BYTE      ISP_CMD
      000000B8H.4 SFRSYM    DATA     BIT       PS
      00000081H   SFRSYM    DATA     BYTE      SP
      00000090H.1 SFRSYM    DATA     BIT       T2EX
      000000D0H.2 SFRSYM    DATA     BIT       OV
      000000CAH   SFRSYM    DATA     BYTE      RCAP2L
LX51 LINKER/LOCATER V4.66.87.0                                                        05/30/2018  19:50:23  PAGE 69


      000000C8H.1 SFRSYM    DATA     BIT       C_T2
      000000B0H.6 SFRSYM    DATA     BIT       WR
      000000C8H.5 SFRSYM    DATA     BIT       RCLK
      000000C8H.4 SFRSYM    DATA     BIT       TCLK
      00000080H.0 SFRSYM    DATA     BIT       P00
      00000099H   SFRSYM    DATA     BYTE      SBUF
      00000087H   SFRSYM    DATA     BYTE      PCON
      00000090H.0 SFRSYM    DATA     BIT       P10
      00000080H.1 SFRSYM    DATA     BIT       P01
      000000A0H.0 SFRSYM    DATA     BIT       P20
      00000090H.1 SFRSYM    DATA     BIT       P11
      00000080H.2 SFRSYM    DATA     BIT       P02
      000000E3H   SFRSYM    DATA     BYTE      ISP_ADDRH
      000000B0H.0 SFRSYM    DATA     BIT       P30
      000000A0H.1 SFRSYM    DATA     BIT       P21
      00000090H.2 SFRSYM    DATA     BIT       P12
      00000080H.3 SFRSYM    DATA     BIT       P03
      00000098H   SFRSYM    DATA     BYTE      SCON
      000000B0H.1 SFRSYM    DATA     BIT       P31
      000000A0H.2 SFRSYM    DATA     BIT       P22
      00000090H.3 SFRSYM    DATA     BIT       P13
      00000080H.4 SFRSYM    DATA     BIT       P04
      000000E8H.0 SFRSYM    DATA     BIT       P40
      00000089H   SFRSYM    DATA     BYTE      TMOD
      00000088H   SFRSYM    DATA     BYTE      TCON
      000000B0H.2 SFRSYM    DATA     BIT       P32
      000000A0H.3 SFRSYM    DATA     BIT       P23
      00000090H.4 SFRSYM    DATA     BIT       P14
      00000080H.5 SFRSYM    DATA     BIT       P05
      000000E8H.1 SFRSYM    DATA     BIT       P41
      000000B0H.3 SFRSYM    DATA     BIT       P33
      000000A0H.4 SFRSYM    DATA     BIT       P24
      00000090H.5 SFRSYM    DATA     BIT       P15
      00000080H.6 SFRSYM    DATA     BIT       P06
      000000E4H   SFRSYM    DATA     BYTE      ISP_ADDRL
      000000E8H.2 SFRSYM    DATA     BIT       P42
      000000B0H.4 SFRSYM    DATA     BIT       P34
      000000A0H.5 SFRSYM    DATA     BIT       P25
      00000090H.6 SFRSYM    DATA     BIT       P16
      00000080H.7 SFRSYM    DATA     BIT       P07
      000000E8H.3 SFRSYM    DATA     BIT       P43
      000000B0H.5 SFRSYM    DATA     BIT       P35
      000000A0H.6 SFRSYM    DATA     BIT       P26
      00000090H.7 SFRSYM    DATA     BIT       P17
      000000E8H.4 SFRSYM    DATA     BIT       P44
      000000B0H.6 SFRSYM    DATA     BIT       P36
      000000A0H.7 SFRSYM    DATA     BIT       P27
      000000E8H.5 SFRSYM    DATA     BIT       P45
      000000B0H.7 SFRSYM    DATA     BIT       P37
      000000E8H.6 SFRSYM    DATA     BIT       P46
      00000088H.1 SFRSYM    DATA     BIT       IE0
      00000088H.3 SFRSYM    DATA     BIT       IE1
      0000008EH   SFRSYM    DATA     BYTE      AUXR
      000000F0H   SFRSYM    DATA     BYTE      B
      000000C8H.0 SFRSYM    DATA     BIT       CP_RL2
      000000E0H   SFRSYM    DATA     BYTE      ACC
      000000A8H.1 SFRSYM    DATA     BIT       ET0
      000000A8H.3 SFRSYM    DATA     BIT       ET1
      00000088H.5 SFRSYM    DATA     BIT       TF0
      000000A8H.5 SFRSYM    DATA     BIT       ET2
      00000088H.7 SFRSYM    DATA     BIT       TF1
      000000C8H.7 SFRSYM    DATA     BIT       TF2
      00000098H.2 SFRSYM    DATA     BIT       RB8
      0000008CH   SFRSYM    DATA     BYTE      TH0
      000000A8H.0 SFRSYM    DATA     BIT       EX0
LX51 LINKER/LOCATER V4.66.87.0                                                        05/30/2018  19:50:23  PAGE 70


      00000088H.0 SFRSYM    DATA     BIT       IT0
      0000008DH   SFRSYM    DATA     BYTE      TH1
      00000098H.3 SFRSYM    DATA     BIT       TB8
      000000A8H.2 SFRSYM    DATA     BIT       EX1
      00000088H.2 SFRSYM    DATA     BIT       IT1
      000000CDH   SFRSYM    DATA     BYTE      TH2
      000000D0H.0 SFRSYM    DATA     BIT       P
      00000098H.7 SFRSYM    DATA     BIT       SM0
      0000008AH   SFRSYM    DATA     BYTE      TL0
      00000098H.6 SFRSYM    DATA     BIT       SM1
      0000008BH   SFRSYM    DATA     BYTE      TL1
      00000098H.5 SFRSYM    DATA     BIT       SM2
      000000CCH   SFRSYM    DATA     BYTE      TL2
      000000B8H.1 SFRSYM    DATA     BIT       PT0
      000000B8H.3 SFRSYM    DATA     BIT       PT1
      000000D0H.3 SFRSYM    DATA     BIT       RS0
      000000E7H   SFRSYM    DATA     BYTE      ISP_CONTR
      000000B8H.5 SFRSYM    DATA     BIT       PT2
      00000088H.4 SFRSYM    DATA     BIT       TR0
      000000D0H.4 SFRSYM    DATA     BIT       RS1
      00000088H.6 SFRSYM    DATA     BIT       TR1
      000000C8H.2 SFRSYM    DATA     BIT       TR2
      000000B8H.0 SFRSYM    DATA     BIT       PX0
      000000E1H   SFRSYM    DATA     BYTE      WDT_CONTR
      000000B8H.2 SFRSYM    DATA     BIT       PX1
      00000083H   SFRSYM    DATA     BYTE      DPH
      00000082H   SFRSYM    DATA     BYTE      DPL
      000000B7H   SFRSYM    DATA     BYTE      IPH
      000000C8H.3 SFRSYM    DATA     BIT       EXEN2
      00000098H.4 SFRSYM    DATA     BIT       REN
      000000C9H   SFRSYM    DATA     BYTE      T2MOD
      000000C8H   SFRSYM    DATA     BYTE      T2CON
      000000E2H   SFRSYM    DATA     BYTE      ISP_DATA
      000000B9H   SFRSYM    DATA     BYTE      SADEN
      000000B0H.0 SFRSYM    DATA     BIT       RXD
      000000A9H   SFRSYM    DATA     BYTE      SADDR
      000000B0H.1 SFRSYM    DATA     BIT       TXD
      000000A2H   SFRSYM    DATA     BYTE      AUXR1
      000000D0H.5 SFRSYM    DATA     BIT       F0
      000000D0H   SFRSYM    DATA     BYTE      PSW
      010070F8H   SYMBOL    CODE     ---       show_version

      010070F8H   BLOCK     CODE     ---       LVL=0
      010070F8H   LINE      CODE     ---       #32
      010070F8H   LINE      CODE     ---       #33
      010070F8H   LINE      CODE     ---       #35
      01007101H   LINE      CODE     ---       #36
      01007114H   LINE      CODE     ---       #37
      0100711DH   LINE      CODE     ---       #38
      ---         BLOCKEND  ---      ---       LVL=0

      01006171H   BLOCK     CODE     ---       LVL=0
      01006171H   LINE      CODE     ---       #42
      01006171H   LINE      CODE     ---       #43
      01006171H   LINE      CODE     ---       #44
      01006173H   LINE      CODE     ---       #45
      01006176H   LINE      CODE     ---       #46
      01006179H   LINE      CODE     ---       #47
      0100617CH   LINE      CODE     ---       #48
      0100617FH   LINE      CODE     ---       #49
      01006182H   LINE      CODE     ---       #50
      01006185H   LINE      CODE     ---       #51
      01006188H   LINE      CODE     ---       #52
      0100618BH   LINE      CODE     ---       #53
      0100618EH   LINE      CODE     ---       #54
LX51 LINKER/LOCATER V4.66.87.0                                                        05/30/2018  19:50:23  PAGE 71


      01006191H   LINE      CODE     ---       #55
      01006194H   LINE      CODE     ---       #56
      01006197H   LINE      CODE     ---       #57
      0100619AH   LINE      CODE     ---       #58
      0100619DH   LINE      CODE     ---       #59
      010061A0H   LINE      CODE     ---       #60
      010061A3H   LINE      CODE     ---       #61
      010061A6H   LINE      CODE     ---       #62
      010061A9H   LINE      CODE     ---       #63
      010061ACH   LINE      CODE     ---       #64
      010061AFH   LINE      CODE     ---       #65
      010061B2H   LINE      CODE     ---       #66
      010061B5H   LINE      CODE     ---       #67
      010061B5H   LINE      CODE     ---       #68
      010061B8H   LINE      CODE     ---       #69
      010061BBH   LINE      CODE     ---       #70
      ---         BLOCKEND  ---      ---       LVL=0

      ---         MODULE    ---      ---       ?C_STARTUP
      01000000H   PUBLIC    CODE     NEAR LAB  ?C_STARTUP
      000000E0H   SFRSYM    DATA     BYTE      ACC
      000000F0H   SFRSYM    DATA     BYTE      B
      00000083H   SFRSYM    DATA     BYTE      DPH
      00000082H   SFRSYM    DATA     BYTE      DPL
      000000A0H   SFRSYM    DATA     BYTE      PPAGE_SFR
      00000081H   SFRSYM    DATA     BYTE      SP
      00000000H   SYMBOL    NUMBER   ---       IBPSTACK
      00000100H   SYMBOL    NUMBER   ---       IBPSTACKTOP
      00000080H   SYMBOL    NUMBER   ---       IDATALEN
      010079FDH   SYMBOL    CODE     NEAR LAB  IDATALOOP
      00000000H   SYMBOL    NUMBER   ---       PBPSTACK
      00000100H   SYMBOL    NUMBER   ---       PBPSTACKTOP
      00000000H   SYMBOL    NUMBER   ---       PDATALEN
      00000000H   SYMBOL    NUMBER   ---       PDATASTART
      00000000H   SYMBOL    NUMBER   ---       PPAGE
      00000000H   SYMBOL    NUMBER   ---       PPAGEENABLE
      010079FAH   SYMBOL    CODE     NEAR LAB  STARTUP1
      00000001H   SYMBOL    NUMBER   ---       XBPSTACK
      00010000H   SYMBOL    NUMBER   ---       XBPSTACKTOP
      00000400H   SYMBOL    NUMBER   ---       XDATALEN
      01007A08H   SYMBOL    CODE     NEAR LAB  XDATALOOP
      00000000H   SYMBOL    NUMBER   ---       XDATASTART

      01000000H   BLOCK     CODE     NEAR LAB  LVL=0
      01000000H   LINE      CODE     ---       #126
      ---         BLOCKEND  ---      ---       LVL=0

      010079FAH   BLOCK     CODE     NEAR LAB  LVL=0
      010079FAH   LINE      CODE     ---       #133
      010079FCH   LINE      CODE     ---       #134
      010079FDH   LINE      CODE     ---       #135
      010079FEH   LINE      CODE     ---       #136
      01007A00H   LINE      CODE     ---       #140
      01007A03H   LINE      CODE     ---       #141
      01007A05H   LINE      CODE     ---       #145
      01007A07H   LINE      CODE     ---       #147
      01007A08H   LINE      CODE     ---       #148
      01007A09H   LINE      CODE     ---       #149
      01007A0AH   LINE      CODE     ---       #150
      01007A0CH   LINE      CODE     ---       #151
      01007A0EH   LINE      CODE     ---       #176
      01007A11H   LINE      CODE     ---       #177
      01007A14H   LINE      CODE     ---       #185
      01007A17H   LINE      CODE     ---       #196
      ---         BLOCKEND  ---      ---       LVL=0
LX51 LINKER/LOCATER V4.66.87.0                                                        05/30/2018  19:50:23  PAGE 72



      ---         MODULE    ---      ---       COM
      00000023H.4 PUBLIC    BIT      BIT       sendfull
      00000023H.3 PUBLIC    BIT      BIT       sendactive
      01000016H   PUBLIC    CODE     ---       com_leave_powersave
      0100885EH   PUBLIC    CODE     ---       com_enter_powersave
      01008409H   PUBLIC    CODE     ---       com_try_get_key
      0100871DH   PUBLIC    CODE     ---       _getkey
      0100801AH   PUBLIC    CODE     ---       _putchar
      0100703CH   PUBLIC    CODE     ---       _putbuf
      010074B9H   PUBLIC    CODE     ---       com_initialize
      00000080H   SFRSYM    DATA     BYTE      P0
      00000090H   SFRSYM    DATA     BYTE      P1
      000000A0H   SFRSYM    DATA     BYTE      P2
      000000B0H   SFRSYM    DATA     BYTE      P3
      000000C0H   SFRSYM    DATA     BYTE      XICON
      000000B0H.4 SFRSYM    DATA     BIT       T0
      000000D0H.6 SFRSYM    DATA     BIT       AC
      000000E8H   SFRSYM    DATA     BYTE      P4
      000000B0H.5 SFRSYM    DATA     BIT       T1
      000000E6H   SFRSYM    DATA     BYTE      ISP_TRIG
      00000090H.0 SFRSYM    DATA     BIT       T2
      000000A8H.7 SFRSYM    DATA     BIT       EA
      000000A8H.6 SFRSYM    DATA     BIT       EC
      00000098H.7 SFRSYM    DATA     BIT       FE
      000000A8H   SFRSYM    DATA     BYTE      IE
      000000C8H.6 SFRSYM    DATA     BIT       EXF2
      000000B0H.7 SFRSYM    DATA     BIT       RD
      000000A8H.4 SFRSYM    DATA     BIT       ES
      000000B8H   SFRSYM    DATA     BYTE      IP
      00000098H.0 SFRSYM    DATA     BIT       RI
      000000B0H.2 SFRSYM    DATA     BIT       INT0
      000000D0H.7 SFRSYM    DATA     BIT       CY
      00000098H.1 SFRSYM    DATA     BIT       TI
      000000B0H.3 SFRSYM    DATA     BIT       INT1
      000000CBH   SFRSYM    DATA     BYTE      RCAP2H
      000000E5H   SFRSYM    DATA     BYTE      ISP_CMD
      000000B8H.4 SFRSYM    DATA     BIT       PS
      00000081H   SFRSYM    DATA     BYTE      SP
      00000090H.1 SFRSYM    DATA     BIT       T2EX
      000000D0H.2 SFRSYM    DATA     BIT       OV
      000000CAH   SFRSYM    DATA     BYTE      RCAP2L
      000000C8H.1 SFRSYM    DATA     BIT       C_T2
      000000B0H.6 SFRSYM    DATA     BIT       WR
      000000C8H.5 SFRSYM    DATA     BIT       RCLK
      000000C8H.4 SFRSYM    DATA     BIT       TCLK
      00000080H.0 SFRSYM    DATA     BIT       P00
      00000099H   SFRSYM    DATA     BYTE      SBUF
      00000087H   SFRSYM    DATA     BYTE      PCON
      00000090H.0 SFRSYM    DATA     BIT       P10
      00000080H.1 SFRSYM    DATA     BIT       P01
      000000A0H.0 SFRSYM    DATA     BIT       P20
      00000090H.1 SFRSYM    DATA     BIT       P11
      00000080H.2 SFRSYM    DATA     BIT       P02
      000000E3H   SFRSYM    DATA     BYTE      ISP_ADDRH
      000000B0H.0 SFRSYM    DATA     BIT       P30
      000000A0H.1 SFRSYM    DATA     BIT       P21
      00000090H.2 SFRSYM    DATA     BIT       P12
      00000080H.3 SFRSYM    DATA     BIT       P03
      00000098H   SFRSYM    DATA     BYTE      SCON
      000000B0H.1 SFRSYM    DATA     BIT       P31
      000000A0H.2 SFRSYM    DATA     BIT       P22
      00000090H.3 SFRSYM    DATA     BIT       P13
      00000080H.4 SFRSYM    DATA     BIT       P04
      000000E8H.0 SFRSYM    DATA     BIT       P40
LX51 LINKER/LOCATER V4.66.87.0                                                        05/30/2018  19:50:23  PAGE 73


      00000089H   SFRSYM    DATA     BYTE      TMOD
      00000088H   SFRSYM    DATA     BYTE      TCON
      000000B0H.2 SFRSYM    DATA     BIT       P32
      000000A0H.3 SFRSYM    DATA     BIT       P23
      00000090H.4 SFRSYM    DATA     BIT       P14
      00000080H.5 SFRSYM    DATA     BIT       P05
      000000E8H.1 SFRSYM    DATA     BIT       P41
      000000B0H.3 SFRSYM    DATA     BIT       P33
      000000A0H.4 SFRSYM    DATA     BIT       P24
      00000090H.5 SFRSYM    DATA     BIT       P15
      00000080H.6 SFRSYM    DATA     BIT       P06
      000000E4H   SFRSYM    DATA     BYTE      ISP_ADDRL
      000000E8H.2 SFRSYM    DATA     BIT       P42
      000000B0H.4 SFRSYM    DATA     BIT       P34
      000000A0H.5 SFRSYM    DATA     BIT       P25
      00000090H.6 SFRSYM    DATA     BIT       P16
      00000080H.7 SFRSYM    DATA     BIT       P07
      000000E8H.3 SFRSYM    DATA     BIT       P43
      000000B0H.5 SFRSYM    DATA     BIT       P35
      000000A0H.6 SFRSYM    DATA     BIT       P26
      00000090H.7 SFRSYM    DATA     BIT       P17
      000000E8H.4 SFRSYM    DATA     BIT       P44
      000000B0H.6 SFRSYM    DATA     BIT       P36
      000000A0H.7 SFRSYM    DATA     BIT       P27
      000000E8H.5 SFRSYM    DATA     BIT       P45
      000000B0H.7 SFRSYM    DATA     BIT       P37
      000000E8H.6 SFRSYM    DATA     BIT       P46
      00000088H.1 SFRSYM    DATA     BIT       IE0
      00000088H.3 SFRSYM    DATA     BIT       IE1
      0000008EH   SFRSYM    DATA     BYTE      AUXR
      000000F0H   SFRSYM    DATA     BYTE      B
      000000C8H.0 SFRSYM    DATA     BIT       CP_RL2
      000000E0H   SFRSYM    DATA     BYTE      ACC
      000000A8H.1 SFRSYM    DATA     BIT       ET0
      000000A8H.3 SFRSYM    DATA     BIT       ET1
      00000088H.5 SFRSYM    DATA     BIT       TF0
      000000A8H.5 SFRSYM    DATA     BIT       ET2
      00000088H.7 SFRSYM    DATA     BIT       TF1
      000000C8H.7 SFRSYM    DATA     BIT       TF2
      00000098H.2 SFRSYM    DATA     BIT       RB8
      0000008CH   SFRSYM    DATA     BYTE      TH0
      000000A8H.0 SFRSYM    DATA     BIT       EX0
      00000088H.0 SFRSYM    DATA     BIT       IT0
      0000008DH   SFRSYM    DATA     BYTE      TH1
      00000098H.3 SFRSYM    DATA     BIT       TB8
      000000A8H.2 SFRSYM    DATA     BIT       EX1
      00000088H.2 SFRSYM    DATA     BIT       IT1
      000000CDH   SFRSYM    DATA     BYTE      TH2
      000000D0H.0 SFRSYM    DATA     BIT       P
      00000098H.7 SFRSYM    DATA     BIT       SM0
      0000008AH   SFRSYM    DATA     BYTE      TL0
      00000098H.6 SFRSYM    DATA     BIT       SM1
      0000008BH   SFRSYM    DATA     BYTE      TL1
      00000098H.5 SFRSYM    DATA     BIT       SM2
      000000CCH   SFRSYM    DATA     BYTE      TL2
      000000B8H.1 SFRSYM    DATA     BIT       PT0
      000000B8H.3 SFRSYM    DATA     BIT       PT1
      000000D0H.3 SFRSYM    DATA     BIT       RS0
      000000E7H   SFRSYM    DATA     BYTE      ISP_CONTR
      000000B8H.5 SFRSYM    DATA     BIT       PT2
      00000088H.4 SFRSYM    DATA     BIT       TR0
      000000D0H.4 SFRSYM    DATA     BIT       RS1
      00000088H.6 SFRSYM    DATA     BIT       TR1
      000000C8H.2 SFRSYM    DATA     BIT       TR2
      000000B8H.0 SFRSYM    DATA     BIT       PX0
LX51 LINKER/LOCATER V4.66.87.0                                                        05/30/2018  19:50:23  PAGE 74


      000000E1H   SFRSYM    DATA     BYTE      WDT_CONTR
      000000B8H.2 SFRSYM    DATA     BIT       PX1
      00000083H   SFRSYM    DATA     BYTE      DPH
      00000082H   SFRSYM    DATA     BYTE      DPL
      000000B7H   SFRSYM    DATA     BYTE      IPH
      000000C8H.3 SFRSYM    DATA     BIT       EXEN2
      00000098H.4 SFRSYM    DATA     BIT       REN
      000000C9H   SFRSYM    DATA     BYTE      T2MOD
      000000C8H   SFRSYM    DATA     BYTE      T2CON
      000000E2H   SFRSYM    DATA     BYTE      ISP_DATA
      000000B9H   SFRSYM    DATA     BYTE      SADEN
      000000B0H.0 SFRSYM    DATA     BIT       RXD
      000000A9H   SFRSYM    DATA     BYTE      SADDR
      000000B0H.1 SFRSYM    DATA     BIT       TXD
      000000A2H   SFRSYM    DATA     BYTE      AUXR1
      000000D0H.5 SFRSYM    DATA     BIT       F0
      000000D0H   SFRSYM    DATA     BYTE      PSW
      00000026H   SYMBOL    IDATA    ---       inbuf
      0000002EH   SYMBOL    IDATA    ---       outbuf
      020000CEH   SYMBOL    XDATA    BYTE      istart
      020000CFH   SYMBOL    XDATA    BYTE      ostart
      020000D0H   SYMBOL    XDATA    BYTE      iend
      020000D1H   SYMBOL    XDATA    BYTE      oend
      010050E0H   SYMBOL    CODE     ---       com_isr

      01008188H   BLOCK     CODE     ---       LVL=0
      ---         BLOCKEND  ---      ---       LVL=0

      010050E0H   BLOCK     CODE     ---       LVL=0
      010050F2H   BLOCK     CODE     NEAR LAB  LVL=1
      00000017H   SYMBOL    DATA     CHAR      c
      ---         BLOCKEND  ---      ---       LVL=1
      010050E0H   LINE      CODE     ---       #31
      010050F2H   LINE      CODE     ---       #36
      010050F5H   LINE      CODE     ---       #37
      010050F7H   LINE      CODE     ---       #38
      010050F9H   LINE      CODE     ---       #39
      0100510DH   LINE      CODE     ---       #40
      01005119H   LINE      CODE     ---       #41
      01005119H   LINE      CODE     ---       #42
      01005119H   LINE      CODE     ---       #45
      0100511CH   LINE      CODE     ---       #46
      0100511EH   LINE      CODE     ---       #47
      0100512AH   LINE      CODE     ---       #48
      01005137H   LINE      CODE     ---       #49
      01005139H   LINE      CODE     ---       #50
      0100513BH   LINE      CODE     ---       #51
      0100513BH   LINE      CODE     ---       #52
      0100513DH   LINE      CODE     ---       #53
      0100513DH   LINE      CODE     ---       #54
      0100513DH   LINE      CODE     ---       #55
      ---         BLOCKEND  ---      ---       LVL=0

      010074B9H   BLOCK     CODE     ---       LVL=0
      010074B9H   LINE      CODE     ---       #61
      010074B9H   LINE      CODE     ---       #62
      010074BEH   LINE      CODE     ---       #63
      010074C2H   LINE      CODE     ---       #64
      010074C6H   LINE      CODE     ---       #65
      010074CAH   LINE      CODE     ---       #66
      010074CCH   LINE      CODE     ---       #67
      010074CEH   LINE      CODE     ---       #69
      010074D1H   LINE      CODE     ---       #71
      010074D4H   LINE      CODE     ---       #72
      010074D7H   LINE      CODE     ---       #74
LX51 LINKER/LOCATER V4.66.87.0                                                        05/30/2018  19:50:23  PAGE 75


      010074DAH   LINE      CODE     ---       #75
      010074DCH   LINE      CODE     ---       #76
      010074DEH   LINE      CODE     ---       #77
      010074E0H   LINE      CODE     ---       #78
      ---         BLOCKEND  ---      ---       LVL=0

      0100703CH   BLOCK     CODE     ---       LVL=0
      00000007H   SYMBOL    DATA     CHAR      c
      0100703CH   LINE      CODE     ---       #89
      0100703CH   LINE      CODE     ---       #90
      0100703FH   LINE      CODE     ---       #91
      01007042H   LINE      CODE     ---       #92
      01007044H   LINE      CODE     ---       #93
      01007046H   LINE      CODE     ---       #94
      01007047H   LINE      CODE     ---       #95
      01007047H   LINE      CODE     ---       #96
      01007049H   LINE      CODE     ---       #97
      01007058H   LINE      CODE     ---       #98
      01007066H   LINE      CODE     ---       #99
      01007068H   LINE      CODE     ---       #100
      01007068H   LINE      CODE     ---       #101
      0100706AH   LINE      CODE     ---       #102
      0100706AH   LINE      CODE     ---       #103
      0100706AH   LINE      CODE     ---       #104
      ---         BLOCKEND  ---      ---       LVL=0

      0100801AH   BLOCK     CODE     ---       LVL=0
      00000005H   SYMBOL    DATA     CHAR      c
      0100801AH   LINE      CODE     ---       #111
      0100801CH   LINE      CODE     ---       #112
      01008020H   LINE      CODE     ---       #113
      01008023H   LINE      CODE     ---       #114
      01008028H   LINE      CODE     ---       #115
      01008028H   LINE      CODE     ---       #116
      0100802BH   LINE      CODE     ---       #117
      01008030H   LINE      CODE     ---       #118
      01008032H   LINE      CODE     ---       #119
      ---         BLOCKEND  ---      ---       LVL=0

      0100871DH   BLOCK     CODE     ---       LVL=0
      0100871DH   BLOCK     CODE     NEAR LAB  LVL=1
      00000007H   SYMBOL    DATA     CHAR      c
      ---         BLOCKEND  ---      ---       LVL=1
      0100871DH   LINE      CODE     ---       #126
      0100871DH   LINE      CODE     ---       #128
      01008723H   LINE      CODE     ---       #130
      01008723H   LINE      CODE     ---       #131
      01008725H   LINE      CODE     ---       #132
      01008729H   LINE      CODE     ---       #133
      0100872CH   LINE      CODE     ---       #134
      0100872CH   LINE      CODE     ---       #135
      ---         BLOCKEND  ---      ---       LVL=0

      01008409H   BLOCK     CODE     ---       LVL=0
      01008409H   BLOCK     CODE     NEAR LAB  LVL=1
      00000007H   SYMBOL    DATA     CHAR      c
      ---         BLOCKEND  ---      ---       LVL=1
      01008409H   LINE      CODE     ---       #137
      01008409H   LINE      CODE     ---       #138
      01008409H   LINE      CODE     ---       #140
      0100840FH   LINE      CODE     ---       #141
      01008412H   LINE      CODE     ---       #142
      01008412H   LINE      CODE     ---       #143
      01008414H   LINE      CODE     ---       #144
      01008419H   LINE      CODE     ---       #145
LX51 LINKER/LOCATER V4.66.87.0                                                        05/30/2018  19:50:23  PAGE 76


      0100841CH   LINE      CODE     ---       #146
      0100841CH   LINE      CODE     ---       #147
      ---         BLOCKEND  ---      ---       LVL=0

      0100885EH   BLOCK     CODE     ---       LVL=0
      0100885EH   LINE      CODE     ---       #149
      0100885EH   LINE      CODE     ---       #150
      0100885EH   LINE      CODE     ---       #151
      01008867H   LINE      CODE     ---       #152
      01008869H   LINE      CODE     ---       #153
      0100886BH   LINE      CODE     ---       #154
      ---         BLOCKEND  ---      ---       LVL=0

      01000016H   BLOCK     CODE     ---       LVL=0
      01000016H   LINE      CODE     ---       #156
      01000016H   LINE      CODE     ---       #157
      01000016H   LINE      CODE     ---       #158
      01000018H   LINE      CODE     ---       #159
      0100001AH   LINE      CODE     ---       #160
      ---         BLOCKEND  ---      ---       LVL=0

      ---         MODULE    ---      ---       RTC
      010080C8H   PUBLIC    CODE     ---       rtc_leave_powersave
      010080B0H   PUBLIC    CODE     ---       rtc_enter_powersave
      01008A89H   PUBLIC    CODE     ---       rtc_test_bsy
      00000020H.0 PUBLIC    BIT      BIT       ?rtc_set_en32khz?BIT
      010087C8H   PUBLIC    CODE     ---       rtc_set_en32khz
      01008A7FH   PUBLIC    CODE     ---       rtc_test_en32khz
      00000024H.6 PUBLIC    BIT      BIT       ?rtc_set_osf?BIT
      010087B9H   PUBLIC    CODE     ---       rtc_set_osf
      01008A75H   PUBLIC    CODE     ---       rtc_test_osf
      00000020H.0 PUBLIC    BIT      BIT       ?rtc_set_intcn?BIT
      010087AAH   PUBLIC    CODE     ---       rtc_set_intcn
      01008A6BH   PUBLIC    CODE     ---       rtc_test_intcn
      01008459H   PUBLIC    CODE     ---       rtc_get_square_rate_str
      010086B7H   PUBLIC    CODE     ---       _rtc_set_square_rate
      01008914H   PUBLIC    CODE     ---       rtc_get_square_rate
      00000024H.5 PUBLIC    BIT      BIT       ?rtc_set_conv?BIT
      0100879BH   PUBLIC    CODE     ---       rtc_set_conv
      01008A61H   PUBLIC    CODE     ---       rtc_test_conv
      00000024H.4 PUBLIC    BIT      BIT       ?rtc_set_bbsqw?BIT
      0100878CH   PUBLIC    CODE     ---       rtc_set_bbsqw
      01008A57H   PUBLIC    CODE     ---       rtc_test_bbsqw
      00000024H.3 PUBLIC    BIT      BIT       ?rtc_set_eosc?BIT
      0100877DH   PUBLIC    CODE     ---       rtc_set_eosc
      01008A4DH   PUBLIC    CODE     ---       rtc_test_eosc
      01007BCBH   PUBLIC    CODE     ---       _rtc_test_alarm_int_flag
      0100819FH   PUBLIC    CODE     ---       _rtc_clr_alarm_int_flag
      01007BAEH   PUBLIC    CODE     ---       _rtc_test_alarm_int
      00000020H.1 PUBLIC    BIT      BIT       ?_rtc_enable_alarm_int?BIT
      010076D8H   PUBLIC    CODE     ---       _rtc_enable_alarm_int
      02000014H   PUBLIC    XDATA    BYTE      ?_rtc_get_temperature?BYTE
      01004246H   PUBLIC    CODE     ---       _rtc_get_temperature
      01008445H   PUBLIC    CODE     ---       rtc_alarm_get_mod_str
      0100463BH   PUBLIC    CODE     ---       _rtc_alarm_set_mode
      010035A4H   PUBLIC    CODE     ---       rtc_alarm_get_mode
      010082C6H   PUBLIC    CODE     ---       _rtc_alarm_set_sec
      01008431H   PUBLIC    CODE     ---       rtc_alarm_get_sec
      01007F4AH   PUBLIC    CODE     ---       _rtc_alarm_set_date
      01008376H   PUBLIC    CODE     ---       rtc_alarm_get_date
      010082B0H   PUBLIC    CODE     ---       _rtc_alarm_set_day
      0100841DH   PUBLIC    CODE     ---       rtc_alarm_get_day
      01008582H   PUBLIC    CODE     ---       _rtc_alarm_set_min
      0100829AH   PUBLIC    CODE     ---       rtc_alarm_get_min
      0100856FH   PUBLIC    CODE     ---       _rtc_alarm_set_hour
LX51 LINKER/LOCATER V4.66.87.0                                                        05/30/2018  19:50:23  PAGE 77


      00000020H.0 PUBLIC    BIT      BIT       ?rtc_alarm_set_hour_12?BIT
      01007B91H   PUBLIC    CODE     ---       rtc_alarm_set_hour_12
      01008284H   PUBLIC    CODE     ---       rtc_alarm_get_hour_12
      0100826EH   PUBLIC    CODE     ---       rtc_alarm_get_hour
      010085CEH   PUBLIC    CODE     ---       _rtc_date_set_day
      01008C10H   PUBLIC    CODE     ---       rtc_date_get_day
      01003FD5H   PUBLIC    CODE     ---       _rtc_date_set_date
      01008BCEH   PUBLIC    CODE     ---       rtc_date_get_date
      01008BC6H   PUBLIC    CODE     ---       _rtc_date_set_month
      0100893AH   PUBLIC    CODE     ---       rtc_date_get_month
      01008BBEH   PUBLIC    CODE     ---       _rtc_date_set_year
      0100892EH   PUBLIC    CODE     ---       rtc_date_get_year
      01008C0AH   PUBLIC    CODE     ---       _rtc_time_set_sec
      01008BB6H   PUBLIC    CODE     ---       rtc_time_get_sec
      01008AD9H   PUBLIC    CODE     ---       _rtc_time_set_min
      01008BAEH   PUBLIC    CODE     ---       rtc_time_get_min
      01008BA6H   PUBLIC    CODE     ---       rtc_time_get_hour_12
      00000020H.1 PUBLIC    BIT      BIT       ?rtc_time_set_hour_12?BIT
      0100872DH   PUBLIC    CODE     ---       rtc_time_set_hour_12
      01008C04H   PUBLIC    CODE     ---       _rtc_time_set_hour
      01008B9EH   PUBLIC    CODE     ---       rtc_time_get_hour
      01005BEBH   PUBLIC    CODE     ---       _rtc_write_data
      01005AE1H   PUBLIC    CODE     ---       _rtc_read_data
      01002F61H   PUBLIC    CODE     ---       rtc_initialize
      0100855CH   PUBLIC    CODE     ---       scan_rtc
      00000020H.0 PUBLIC    BIT      BIT       ?rtc_set_lt_timer?BIT
      01000006H   PUBLIC    CODE     ---       rtc_set_lt_timer
      01008CCCH   PUBLIC    CODE     ---       rtc_is_lt_timer
      010011B2H   PUBLIC    CODE     ---       rtc_dump
      00000080H   SFRSYM    DATA     BYTE      P0
      00000090H   SFRSYM    DATA     BYTE      P1
      000000A0H   SFRSYM    DATA     BYTE      P2
      000000B0H   SFRSYM    DATA     BYTE      P3
      000000C0H   SFRSYM    DATA     BYTE      XICON
      000000B0H.4 SFRSYM    DATA     BIT       T0
      000000D0H.6 SFRSYM    DATA     BIT       AC
      000000E8H   SFRSYM    DATA     BYTE      P4
      000000B0H.5 SFRSYM    DATA     BIT       T1
      000000E6H   SFRSYM    DATA     BYTE      ISP_TRIG
      00000090H.0 SFRSYM    DATA     BIT       T2
      000000A8H.7 SFRSYM    DATA     BIT       EA
      000000A8H.6 SFRSYM    DATA     BIT       EC
      00000098H.7 SFRSYM    DATA     BIT       FE
      000000A8H   SFRSYM    DATA     BYTE      IE
      000000C8H.6 SFRSYM    DATA     BIT       EXF2
      000000B0H.7 SFRSYM    DATA     BIT       RD
      000000A8H.4 SFRSYM    DATA     BIT       ES
      000000B8H   SFRSYM    DATA     BYTE      IP
      00000098H.0 SFRSYM    DATA     BIT       RI
      000000B0H.2 SFRSYM    DATA     BIT       INT0
      000000D0H.7 SFRSYM    DATA     BIT       CY
      00000098H.1 SFRSYM    DATA     BIT       TI
      000000B0H.3 SFRSYM    DATA     BIT       INT1
      000000CBH   SFRSYM    DATA     BYTE      RCAP2H
      000000E5H   SFRSYM    DATA     BYTE      ISP_CMD
      000000B8H.4 SFRSYM    DATA     BIT       PS
      00000081H   SFRSYM    DATA     BYTE      SP
      00000090H.1 SFRSYM    DATA     BIT       T2EX
      000000D0H.2 SFRSYM    DATA     BIT       OV
      000000CAH   SFRSYM    DATA     BYTE      RCAP2L
      000000C8H.1 SFRSYM    DATA     BIT       C_T2
      000000B0H.6 SFRSYM    DATA     BIT       WR
      000000C8H.5 SFRSYM    DATA     BIT       RCLK
      000000C8H.4 SFRSYM    DATA     BIT       TCLK
      00000080H.0 SFRSYM    DATA     BIT       P00
LX51 LINKER/LOCATER V4.66.87.0                                                        05/30/2018  19:50:23  PAGE 78


      00000099H   SFRSYM    DATA     BYTE      SBUF
      00000087H   SFRSYM    DATA     BYTE      PCON
      00000090H.0 SFRSYM    DATA     BIT       P10
      00000080H.1 SFRSYM    DATA     BIT       P01
      000000A0H.0 SFRSYM    DATA     BIT       P20
      00000090H.1 SFRSYM    DATA     BIT       P11
      00000080H.2 SFRSYM    DATA     BIT       P02
      000000E3H   SFRSYM    DATA     BYTE      ISP_ADDRH
      000000B0H.0 SFRSYM    DATA     BIT       P30
      000000A0H.1 SFRSYM    DATA     BIT       P21
      00000090H.2 SFRSYM    DATA     BIT       P12
      00000080H.3 SFRSYM    DATA     BIT       P03
      00000098H   SFRSYM    DATA     BYTE      SCON
      000000B0H.1 SFRSYM    DATA     BIT       P31
      000000A0H.2 SFRSYM    DATA     BIT       P22
      00000090H.3 SFRSYM    DATA     BIT       P13
      00000080H.4 SFRSYM    DATA     BIT       P04
      000000E8H.0 SFRSYM    DATA     BIT       P40
      00000089H   SFRSYM    DATA     BYTE      TMOD
      00000088H   SFRSYM    DATA     BYTE      TCON
      000000B0H.2 SFRSYM    DATA     BIT       P32
      000000A0H.3 SFRSYM    DATA     BIT       P23
      00000090H.4 SFRSYM    DATA     BIT       P14
      00000080H.5 SFRSYM    DATA     BIT       P05
      000000E8H.1 SFRSYM    DATA     BIT       P41
      000000B0H.3 SFRSYM    DATA     BIT       P33
      000000A0H.4 SFRSYM    DATA     BIT       P24
      00000090H.5 SFRSYM    DATA     BIT       P15
      00000080H.6 SFRSYM    DATA     BIT       P06
      000000E4H   SFRSYM    DATA     BYTE      ISP_ADDRL
      000000E8H.2 SFRSYM    DATA     BIT       P42
      000000B0H.4 SFRSYM    DATA     BIT       P34
      000000A0H.5 SFRSYM    DATA     BIT       P25
      00000090H.6 SFRSYM    DATA     BIT       P16
      00000080H.7 SFRSYM    DATA     BIT       P07
      000000E8H.3 SFRSYM    DATA     BIT       P43
      000000B0H.5 SFRSYM    DATA     BIT       P35
      000000A0H.6 SFRSYM    DATA     BIT       P26
      00000090H.7 SFRSYM    DATA     BIT       P17
      000000E8H.4 SFRSYM    DATA     BIT       P44
      000000B0H.6 SFRSYM    DATA     BIT       P36
      000000A0H.7 SFRSYM    DATA     BIT       P27
      000000E8H.5 SFRSYM    DATA     BIT       P45
      000000B0H.7 SFRSYM    DATA     BIT       P37
      000000E8H.6 SFRSYM    DATA     BIT       P46
      00000088H.1 SFRSYM    DATA     BIT       IE0
      00000088H.3 SFRSYM    DATA     BIT       IE1
      0000008EH   SFRSYM    DATA     BYTE      AUXR
      000000F0H   SFRSYM    DATA     BYTE      B
      000000C8H.0 SFRSYM    DATA     BIT       CP_RL2
      000000E0H   SFRSYM    DATA     BYTE      ACC
      000000A8H.1 SFRSYM    DATA     BIT       ET0
      000000A8H.3 SFRSYM    DATA     BIT       ET1
      00000088H.5 SFRSYM    DATA     BIT       TF0
      000000A8H.5 SFRSYM    DATA     BIT       ET2
      00000088H.7 SFRSYM    DATA     BIT       TF1
      000000C8H.7 SFRSYM    DATA     BIT       TF2
      00000098H.2 SFRSYM    DATA     BIT       RB8
      0000008CH   SFRSYM    DATA     BYTE      TH0
      000000A8H.0 SFRSYM    DATA     BIT       EX0
      00000088H.0 SFRSYM    DATA     BIT       IT0
      0000008DH   SFRSYM    DATA     BYTE      TH1
      00000098H.3 SFRSYM    DATA     BIT       TB8
      000000A8H.2 SFRSYM    DATA     BIT       EX1
      00000088H.2 SFRSYM    DATA     BIT       IT1
LX51 LINKER/LOCATER V4.66.87.0                                                        05/30/2018  19:50:23  PAGE 79


      000000CDH   SFRSYM    DATA     BYTE      TH2
      000000D0H.0 SFRSYM    DATA     BIT       P
      00000098H.7 SFRSYM    DATA     BIT       SM0
      0000008AH   SFRSYM    DATA     BYTE      TL0
      00000098H.6 SFRSYM    DATA     BIT       SM1
      0000008BH   SFRSYM    DATA     BYTE      TL1
      00000098H.5 SFRSYM    DATA     BIT       SM2
      000000CCH   SFRSYM    DATA     BYTE      TL2
      000000B8H.1 SFRSYM    DATA     BIT       PT0
      000000B8H.3 SFRSYM    DATA     BIT       PT1
      000000D0H.3 SFRSYM    DATA     BIT       RS0
      000000E7H   SFRSYM    DATA     BYTE      ISP_CONTR
      000000B8H.5 SFRSYM    DATA     BIT       PT2
      00000088H.4 SFRSYM    DATA     BIT       TR0
      000000D0H.4 SFRSYM    DATA     BIT       RS1
      00000088H.6 SFRSYM    DATA     BIT       TR1
      000000C8H.2 SFRSYM    DATA     BIT       TR2
      000000B8H.0 SFRSYM    DATA     BIT       PX0
      000000E1H   SFRSYM    DATA     BYTE      WDT_CONTR
      000000B8H.2 SFRSYM    DATA     BIT       PX1
      00000083H   SFRSYM    DATA     BYTE      DPH
      00000082H   SFRSYM    DATA     BYTE      DPL
      000000B7H   SFRSYM    DATA     BYTE      IPH
      000000C8H.3 SFRSYM    DATA     BIT       EXEN2
      00000098H.4 SFRSYM    DATA     BIT       REN
      000000C9H   SFRSYM    DATA     BYTE      T2MOD
      000000C8H   SFRSYM    DATA     BYTE      T2CON
      000000E2H   SFRSYM    DATA     BYTE      ISP_DATA
      000000B9H   SFRSYM    DATA     BYTE      SADEN
      000000B0H.0 SFRSYM    DATA     BIT       RXD
      000000A9H   SFRSYM    DATA     BYTE      SADDR
      000000B0H.1 SFRSYM    DATA     BIT       TXD
      000000A2H   SFRSYM    DATA     BYTE      AUXR1
      000000D0H.5 SFRSYM    DATA     BIT       F0
      000000D0H   SFRSYM    DATA     BYTE      PSW
      0100A7DEH   SYMBOL    CONST    ---       rtc_alarm_mode_str
      0100A802H   SYMBOL    CONST    ---       rtc_square_rate_str
      01008B96H   SYMBOL    CODE     ---       __rtc_get_min_sec
      0100649BH   SYMBOL    CODE     ---       rtc_dump_raw
      01007237H   SYMBOL    CODE     ---       __rtc_set_min_sec
      00000024H.7 SYMBOL    BIT      BIT       is_lt_timer_mode
      01008BF6H   SYMBOL    CODE     ---       __rtc_get_hour_12
      020000C4H   SYMBOL    XDATA    BYTE      last_read
      010074E1H   SYMBOL    CODE     ---       _rtc_set_hour_12
      020000C5H   SYMBOL    XDATA    ---       rtc_data
      0100000EH   SYMBOL    CODE     ---       __rtc_get_date
      01007263H   SYMBOL    CODE     ---       __rtc_set_date
      010076FDH   SYMBOL    CODE     ---       __rtc_get_hour
      010067F3H   SYMBOL    CODE     ---       __rtc_set_hour

      010037FEH   BLOCK     CODE     ---       LVL=0
      ---         BLOCKEND  ---      ---       LVL=0

      0100649BH   BLOCK     CODE     ---       LVL=0
      0100649BH   BLOCK     CODE     NEAR LAB  LVL=1
      02000002H   SYMBOL    XDATA    BYTE      addr
      02000003H   SYMBOL    XDATA    BYTE      c
      ---         BLOCKEND  ---      ---       LVL=1
      0100649BH   LINE      CODE     ---       #54
      0100649BH   LINE      CODE     ---       #55
      0100649BH   LINE      CODE     ---       #58
      010064A4H   LINE      CODE     ---       #59
      010064B3H   LINE      CODE     ---       #60
      010064BEH   LINE      CODE     ---       #61
      010064D7H   LINE      CODE     ---       #62
LX51 LINKER/LOCATER V4.66.87.0                                                        05/30/2018  19:50:23  PAGE 80


      010064DFH   LINE      CODE     ---       #63
      ---         BLOCKEND  ---      ---       LVL=0

      010011B2H   BLOCK     CODE     ---       LVL=0
      010011B2H   LINE      CODE     ---       #65
      010011B2H   LINE      CODE     ---       #66
      010011B2H   LINE      CODE     ---       #67
      010011B7H   LINE      CODE     ---       #68
      010011E9H   LINE      CODE     ---       #73
      010011EEH   LINE      CODE     ---       #74
      0100122FH   LINE      CODE     ---       #79
      01001231H   LINE      CODE     ---       #80
      01001238H   LINE      CODE     ---       #81
      01001238H   LINE      CODE     ---       #82
      01001238H   LINE      CODE     ---       #83
      01001238H   LINE      CODE     ---       #84
      01001242H   LINE      CODE     ---       #85
      0100124FH   LINE      CODE     ---       #86
      0100126AH   LINE      CODE     ---       #88
      0100126CH   LINE      CODE     ---       #89
      01001273H   LINE      CODE     ---       #90
      01001273H   LINE      CODE     ---       #91
      01001273H   LINE      CODE     ---       #92
      01001273H   LINE      CODE     ---       #93
      0100127DH   LINE      CODE     ---       #94
      01001298H   LINE      CODE     ---       #96
      0100129DH   LINE      CODE     ---       #97
      010012A6H   LINE      CODE     ---       #98
      010012C3H   LINE      CODE     ---       #99
      010012E0H   LINE      CODE     ---       #100
      010012FDH   LINE      CODE     ---       #101
      0100131AH   LINE      CODE     ---       #102
      0100132DH   LINE      CODE     ---       #103
      01001340H   LINE      CODE     ---       #104
      01001353H   LINE      CODE     ---       #105
      01001360H   LINE      CODE     ---       #106
      01001373H   LINE      CODE     ---       #107
      01001386H   LINE      CODE     ---       #108
      01001399H   LINE      CODE     ---       #109
      010013ACH   LINE      CODE     ---       #110
      ---         BLOCKEND  ---      ---       LVL=0

      01008CCCH   BLOCK     CODE     ---       LVL=0
      01008CCCH   LINE      CODE     ---       #112
      01008CCCH   LINE      CODE     ---       #113
      01008CCCH   LINE      CODE     ---       #114
      01008CCEH   LINE      CODE     ---       #115
      ---         BLOCKEND  ---      ---       LVL=0

      01000006H   BLOCK     CODE     ---       LVL=0
      00000020H.0 SYMBOL    BIT      BIT       enable
      01000006H   LINE      CODE     ---       #117
      01000006H   LINE      CODE     ---       #118
      01000006H   LINE      CODE     ---       #119
      0100000AH   LINE      CODE     ---       #120
      ---         BLOCKEND  ---      ---       LVL=0

      0100855CH   BLOCK     CODE     ---       LVL=0
      0100855CH   LINE      CODE     ---       #122
      0100855CH   LINE      CODE     ---       #123
      0100855CH   LINE      CODE     ---       #124
      01008565H   LINE      CODE     ---       #126
      01008568H   LINE      CODE     ---       #127
      0100856BH   LINE      CODE     ---       #128
      0100856BH   LINE      CODE     ---       #129
LX51 LINKER/LOCATER V4.66.87.0                                                        05/30/2018  19:50:23  PAGE 81


      0100856EH   LINE      CODE     ---       #130
      0100856EH   LINE      CODE     ---       #131
      ---         BLOCKEND  ---      ---       LVL=0

      01002F61H   BLOCK     CODE     ---       LVL=0
      01002F61H   BLOCK     CODE     NEAR LAB  LVL=1
      02000000H   SYMBOL    XDATA    BYTE      count
      02000001H   SYMBOL    XDATA    BYTE      is12
      ---         BLOCKEND  ---      ---       LVL=1
      01002F61H   LINE      CODE     ---       #133
      01002F61H   LINE      CODE     ---       #134
      01002F61H   LINE      CODE     ---       #138
      01002F6AH   LINE      CODE     ---       #140
      01002F73H   LINE      CODE     ---       #141
      01002F76H   LINE      CODE     ---       #142
      01002F79H   LINE      CODE     ---       #144
      01002F7BH   LINE      CODE     ---       #146
      01002F87H   LINE      CODE     ---       #149
      01002F91H   LINE      CODE     ---       #151
      01002F94H   LINE      CODE     ---       #152
      01002F99H   LINE      CODE     ---       #155
      01002FA1H   LINE      CODE     ---       #156
      01002FAAH   LINE      CODE     ---       #157
      01002FB2H   LINE      CODE     ---       #160
      01002FB2H   LINE      CODE     ---       #161
      01002FB2H   LINE      CODE     ---       #162
      01002FB5H   LINE      CODE     ---       #165
      01002FBAH   LINE      CODE     ---       #166
      01002FBAH   LINE      CODE     ---       #167
      01002FBAH   LINE      CODE     ---       #168
      01002FBDH   LINE      CODE     ---       #169
      01002FBDH   LINE      CODE     ---       #170
      01002FC2H   LINE      CODE     ---       #173
      01002FC7H   LINE      CODE     ---       #176
      01002FC7H   LINE      CODE     ---       #177
      01002FC7H   LINE      CODE     ---       #178
      01002FCAH   LINE      CODE     ---       #181
      01002FCFH   LINE      CODE     ---       #182
      01002FCFH   LINE      CODE     ---       #183
      01002FCFH   LINE      CODE     ---       #184
      01002FD2H   LINE      CODE     ---       #185
      01002FD2H   LINE      CODE     ---       #187
      01002FF2H   LINE      CODE     ---       #192
      01002FF7H   LINE      CODE     ---       #195
      01002FFCH   LINE      CODE     ---       #196
      01003003H   LINE      CODE     ---       #197
      01003008H   LINE      CODE     ---       #198
      0100300FH   LINE      CODE     ---       #199
      01003014H   LINE      CODE     ---       #201
      01003019H   LINE      CODE     ---       #203
      0100301EH   LINE      CODE     ---       #204
      01003023H   LINE      CODE     ---       #206
      0100302CH   LINE      CODE     ---       #207
      0100302FH   LINE      CODE     ---       #208
      01003032H   LINE      CODE     ---       #209
      ---         BLOCKEND  ---      ---       LVL=0

      01005AE1H   BLOCK     CODE     ---       LVL=0
      00000007H   SYMBOL    DATA     BYTE      type
      01005AE1H   BLOCK     CODE     NEAR LAB  LVL=1
      02000017H   SYMBOL    XDATA    BYTE      offset
      ---         BLOCKEND  ---      ---       LVL=1
      01005AE1H   LINE      CODE     ---       #212
      01005AE1H   LINE      CODE     ---       #213
      01005AE1H   LINE      CODE     ---       #215
LX51 LINKER/LOCATER V4.66.87.0                                                        05/30/2018  19:50:23  PAGE 82


      01005AF5H   LINE      CODE     ---       #216
      01005AF5H   LINE      CODE     ---       #217
      01005AFCH   LINE      CODE     ---       #218
      01005AFCH   LINE      CODE     ---       #219
      01005B04H   LINE      CODE     ---       #220
      01005B04H   LINE      CODE     ---       #221
      01005B0CH   LINE      CODE     ---       #222
      01005B0CH   LINE      CODE     ---       #223
      01005B14H   LINE      CODE     ---       #224
      01005B14H   LINE      CODE     ---       #225
      01005B1CH   LINE      CODE     ---       #226
      01005B1CH   LINE      CODE     ---       #227
      01005B22H   LINE      CODE     ---       #228
      01005B22H   LINE      CODE     ---       #230
      01005B27H   LINE      CODE     ---       #232
      ---         BLOCKEND  ---      ---       LVL=0

      01005BEBH   BLOCK     CODE     ---       LVL=0
      00000007H   SYMBOL    DATA     BYTE      type
      01005BEBH   BLOCK     CODE     NEAR LAB  LVL=1
      02000017H   SYMBOL    XDATA    BYTE      offset
      ---         BLOCKEND  ---      ---       LVL=1
      01005BEBH   LINE      CODE     ---       #236
      01005BEBH   LINE      CODE     ---       #237
      01005BEBH   LINE      CODE     ---       #239
      01005BFFH   LINE      CODE     ---       #240
      01005BFFH   LINE      CODE     ---       #241
      01005C06H   LINE      CODE     ---       #242
      01005C06H   LINE      CODE     ---       #243
      01005C0EH   LINE      CODE     ---       #244
      01005C0EH   LINE      CODE     ---       #245
      01005C16H   LINE      CODE     ---       #246
      01005C16H   LINE      CODE     ---       #247
      01005C1EH   LINE      CODE     ---       #248
      01005C1EH   LINE      CODE     ---       #249
      01005C26H   LINE      CODE     ---       #250
      01005C26H   LINE      CODE     ---       #251
      01005C2CH   LINE      CODE     ---       #252
      01005C2CH   LINE      CODE     ---       #253
      01005C2FH   LINE      CODE     ---       #254
      ---         BLOCKEND  ---      ---       LVL=0

      010076FDH   BLOCK     CODE     ---       LVL=0
      00000007H   SYMBOL    DATA     BYTE      hour
      010076FDH   BLOCK     CODE     NEAR LAB  LVL=1
      00000006H   SYMBOL    DATA     BYTE      ret
      ---         BLOCKEND  ---      ---       LVL=1
      010076FDH   LINE      CODE     ---       #257
      010076FDH   LINE      CODE     ---       #258
      010076FDH   LINE      CODE     ---       #260
      01007701H   LINE      CODE     ---       #261
      01007710H   LINE      CODE     ---       #262
      01007714H   LINE      CODE     ---       #263
      01007718H   LINE      CODE     ---       #264
      01007718H   LINE      CODE     ---       #265
      0100771AH   LINE      CODE     ---       #266
      0100771EH   LINE      CODE     ---       #267
      0100771EH   LINE      CODE     ---       #268
      01007720H   LINE      CODE     ---       #269
      ---         BLOCKEND  ---      ---       LVL=0

      010067F3H   BLOCK     CODE     ---       LVL=0
      00000007H   SYMBOL    DATA     BYTE      hour
      0200001AH   SYMBOL    XDATA    ---       dat
      010067F3H   LINE      CODE     ---       #272
LX51 LINKER/LOCATER V4.66.87.0                                                        05/30/2018  19:50:23  PAGE 83


      010067F9H   LINE      CODE     ---       #273
      010067F9H   LINE      CODE     ---       #274
      01006800H   LINE      CODE     ---       #275
      01006806H   LINE      CODE     ---       #276
      0100680CH   LINE      CODE     ---       #277
      01006810H   LINE      CODE     ---       #278
      01006812H   LINE      CODE     ---       #279
      0100681AH   LINE      CODE     ---       #280
      0100681AH   LINE      CODE     ---       #281
      0100681AH   LINE      CODE     ---       #282
      0100681AH   LINE      CODE     ---       #283
      0100681FH   LINE      CODE     ---       #284
      0100681FH   LINE      CODE     ---       #285
      01006821H   LINE      CODE     ---       #287
      01006821H   LINE      CODE     ---       #288
      01006821H   LINE      CODE     ---       #289
      01006826H   LINE      CODE     ---       #290
      01006830H   LINE      CODE     ---       #291
      01006830H   LINE      CODE     ---       #292
      ---         BLOCKEND  ---      ---       LVL=0

      010074E1H   BLOCK     CODE     ---       LVL=0
      00000020H.2 SYMBOL    BIT      BIT       enable
      02000017H   SYMBOL    XDATA    ---       dat
      010074E1H   BLOCK     CODE     NEAR LAB  LVL=1
      00000007H   SYMBOL    DATA     BYTE      hour
      ---         BLOCKEND  ---      ---       LVL=1
      010074E1H   LINE      CODE     ---       #294
      010074E1H   LINE      CODE     ---       #295
      010074E1H   LINE      CODE     ---       #297
      010074EBH   LINE      CODE     ---       #298
      010074F1H   LINE      CODE     ---       #299
      010074F6H   LINE      CODE     ---       #300
      010074F8H   LINE      CODE     ---       #301
      01007500H   LINE      CODE     ---       #302
      01007500H   LINE      CODE     ---       #303
      ---         BLOCKEND  ---      ---       LVL=0

      01008BF6H   BLOCK     CODE     ---       LVL=0
      00000007H   SYMBOL    DATA     BYTE      hour
      01008BF6H   LINE      CODE     ---       #306
      01008BF6H   LINE      CODE     ---       #307
      01008BF6H   LINE      CODE     ---       #308
      01008BFCH   LINE      CODE     ---       #309
      ---         BLOCKEND  ---      ---       LVL=0

      01008B96H   BLOCK     CODE     ---       LVL=0
      00000007H   SYMBOL    DATA     BYTE      min
      01008B96H   LINE      CODE     ---       #311
      01008B96H   LINE      CODE     ---       #312
      01008B96H   LINE      CODE     ---       #313
      01008B9DH   LINE      CODE     ---       #314
      ---         BLOCKEND  ---      ---       LVL=0

      01007237H   BLOCK     CODE     ---       LVL=0
      00000007H   SYMBOL    DATA     BYTE      min
      02000017H   SYMBOL    XDATA    ---       dat
      01007237H   LINE      CODE     ---       #316
      0100723DH   LINE      CODE     ---       #317
      0100723DH   LINE      CODE     ---       #318
      01007245H   LINE      CODE     ---       #319
      0100724EH   LINE      CODE     ---       #320
      01007256H   LINE      CODE     ---       #321
      ---         BLOCKEND  ---      ---       LVL=0

LX51 LINKER/LOCATER V4.66.87.0                                                        05/30/2018  19:50:23  PAGE 84


      01008B9EH   BLOCK     CODE     ---       LVL=0
      01008B9EH   LINE      CODE     ---       #326
      01008B9EH   LINE      CODE     ---       #327
      01008B9EH   LINE      CODE     ---       #328
      ---         BLOCKEND  ---      ---       LVL=0

      01008C04H   BLOCK     CODE     ---       LVL=0
      00000007H   SYMBOL    DATA     BYTE      hour
      01008C04H   LINE      CODE     ---       #333
      01008C04H   LINE      CODE     ---       #334
      01008C04H   LINE      CODE     ---       #335
      ---         BLOCKEND  ---      ---       LVL=0

      0100872DH   BLOCK     CODE     ---       LVL=0
      00000020H.1 SYMBOL    BIT      BIT       enable
      0100872DH   LINE      CODE     ---       #338
      0100872DH   LINE      CODE     ---       #339
      0100872DH   LINE      CODE     ---       #340
      ---         BLOCKEND  ---      ---       LVL=0

      01008BA6H   BLOCK     CODE     ---       LVL=0
      01008BA6H   LINE      CODE     ---       #343
      01008BA6H   LINE      CODE     ---       #344
      01008BA6H   LINE      CODE     ---       #345
      ---         BLOCKEND  ---      ---       LVL=0

      01008BAEH   BLOCK     CODE     ---       LVL=0
      01008BAEH   LINE      CODE     ---       #348
      01008BAEH   LINE      CODE     ---       #349
      01008BAEH   LINE      CODE     ---       #350
      ---         BLOCKEND  ---      ---       LVL=0

      01008AD9H   BLOCK     CODE     ---       LVL=0
      00000007H   SYMBOL    DATA     BYTE      min
      01008AD9H   LINE      CODE     ---       #353
      01008AD9H   LINE      CODE     ---       #354
      01008AD9H   LINE      CODE     ---       #355
      ---         BLOCKEND  ---      ---       LVL=0

      01008BB6H   BLOCK     CODE     ---       LVL=0
      01008BB6H   LINE      CODE     ---       #358
      01008BB6H   LINE      CODE     ---       #359
      01008BB6H   LINE      CODE     ---       #360
      ---         BLOCKEND  ---      ---       LVL=0

      01008C0AH   BLOCK     CODE     ---       LVL=0
      00000007H   SYMBOL    DATA     BYTE      sec
      01008C0AH   LINE      CODE     ---       #363
      01008C0AH   LINE      CODE     ---       #364
      01008C0AH   LINE      CODE     ---       #365
      ---         BLOCKEND  ---      ---       LVL=0

      0100892EH   BLOCK     CODE     ---       LVL=0
      0100892EH   LINE      CODE     ---       #369
      0100892EH   LINE      CODE     ---       #370
      0100892EH   LINE      CODE     ---       #371
      01008939H   LINE      CODE     ---       #372
      ---         BLOCKEND  ---      ---       LVL=0

      01008BBEH   BLOCK     CODE     ---       LVL=0
      00000007H   SYMBOL    DATA     BYTE      year
      01008BBEH   LINE      CODE     ---       #374
      01008BBEH   LINE      CODE     ---       #375
      01008BBEH   LINE      CODE     ---       #376
      01008BC1H   LINE      CODE     ---       #377
LX51 LINKER/LOCATER V4.66.87.0                                                        05/30/2018  19:50:23  PAGE 85


      01008BC1H   LINE      CODE     ---       #378
      01008BC1H   LINE      CODE     ---       #379
      01008BC5H   LINE      CODE     ---       #380
      ---         BLOCKEND  ---      ---       LVL=0

      0100893AH   BLOCK     CODE     ---       LVL=0
      0100893AH   LINE      CODE     ---       #382
      0100893AH   LINE      CODE     ---       #383
      0100893AH   LINE      CODE     ---       #384
      01008945H   LINE      CODE     ---       #385
      ---         BLOCKEND  ---      ---       LVL=0

      01008BC6H   BLOCK     CODE     ---       LVL=0
      00000007H   SYMBOL    DATA     BYTE      month
      01008BC6H   LINE      CODE     ---       #387
      01008BC6H   LINE      CODE     ---       #388
      01008BC6H   LINE      CODE     ---       #389
      01008BC9H   LINE      CODE     ---       #390
      01008BC9H   LINE      CODE     ---       #391
      01008BC9H   LINE      CODE     ---       #392
      01008BCDH   LINE      CODE     ---       #393
      ---         BLOCKEND  ---      ---       LVL=0

      0100000EH   BLOCK     CODE     ---       LVL=0
      00000007H   SYMBOL    DATA     BYTE      date
      0100000EH   LINE      CODE     ---       #395
      0100000EH   LINE      CODE     ---       #396
      0100000EH   LINE      CODE     ---       #397
      01000012H   LINE      CODE     ---       #398
      ---         BLOCKEND  ---      ---       LVL=0

      01007263H   BLOCK     CODE     ---       LVL=0
      00000007H   SYMBOL    DATA     BYTE      date
      02000019H   SYMBOL    XDATA    ---       dat
      01007263H   LINE      CODE     ---       #400
      01007269H   LINE      CODE     ---       #401
      01007269H   LINE      CODE     ---       #402
      01007271H   LINE      CODE     ---       #403
      0100727AH   LINE      CODE     ---       #404
      01007282H   LINE      CODE     ---       #405
      ---         BLOCKEND  ---      ---       LVL=0

      01008BCEH   BLOCK     CODE     ---       LVL=0
      01008BCEH   LINE      CODE     ---       #408
      01008BCEH   LINE      CODE     ---       #409
      01008BCEH   LINE      CODE     ---       #410
      ---         BLOCKEND  ---      ---       LVL=0

      01003FD5H   BLOCK     CODE     ---       LVL=0
      02000017H   SYMBOL    XDATA    BYTE      date
      01003FDAH   BLOCK     CODE     NEAR LAB  LVL=1
      02000018H   SYMBOL    XDATA    CHAR      mon
      ---         BLOCKEND  ---      ---       LVL=1
      01003FD5H   LINE      CODE     ---       #414
      01003FDAH   LINE      CODE     ---       #415
      01003FDAH   LINE      CODE     ---       #416
      01003FE2H   LINE      CODE     ---       #418
      01003FEBH   LINE      CODE     ---       #419
      01004011H   LINE      CODE     ---       #420
      01004011H   LINE      CODE     ---       #421
      0100401CH   LINE      CODE     ---       #422
      0100401CH   LINE      CODE     ---       #423
      01004027H   LINE      CODE     ---       #424
      01004036H   LINE      CODE     ---       #425
      01004040H   LINE      CODE     ---       #426
LX51 LINKER/LOCATER V4.66.87.0                                                        05/30/2018  19:50:23  PAGE 86


      0100404FH   LINE      CODE     ---       #427
      0100405AH   LINE      CODE     ---       #428
      0100405AH   LINE      CODE     ---       #429
      0100405AH   LINE      CODE     ---       #431
      01004063H   LINE      CODE     ---       #432
      01004071H   LINE      CODE     ---       #434
      01004072H   LINE      CODE     ---       #435
      ---         BLOCKEND  ---      ---       LVL=0

      01008C10H   BLOCK     CODE     ---       LVL=0
      01008C10H   LINE      CODE     ---       #437
      01008C10H   LINE      CODE     ---       #438
      01008C10H   LINE      CODE     ---       #439
      01008C15H   LINE      CODE     ---       #440
      ---         BLOCKEND  ---      ---       LVL=0

      010085CEH   BLOCK     CODE     ---       LVL=0
      00000007H   SYMBOL    DATA     BYTE      day
      010085CEH   LINE      CODE     ---       #442
      010085CEH   LINE      CODE     ---       #443
      010085CEH   LINE      CODE     ---       #444
      010085DAH   LINE      CODE     ---       #445
      010085DFH   LINE      CODE     ---       #446
      010085DFH   LINE      CODE     ---       #447
      ---         BLOCKEND  ---      ---       LVL=0

      0100826EH   BLOCK     CODE     ---       LVL=0
      0100826EH   LINE      CODE     ---       #450
      0100826EH   LINE      CODE     ---       #451
      0100826EH   LINE      CODE     ---       #452
      ---         BLOCKEND  ---      ---       LVL=0

      01008284H   BLOCK     CODE     ---       LVL=0
      01008284H   LINE      CODE     ---       #455
      01008284H   LINE      CODE     ---       #456
      01008284H   LINE      CODE     ---       #457
      ---         BLOCKEND  ---      ---       LVL=0

      01007B91H   BLOCK     CODE     ---       LVL=0
      00000020H.0 SYMBOL    BIT      BIT       enable
      01007B91H   LINE      CODE     ---       #460
      01007B91H   LINE      CODE     ---       #461
      01007B91H   LINE      CODE     ---       #462
      ---         BLOCKEND  ---      ---       LVL=0

      0100856FH   BLOCK     CODE     ---       LVL=0
      00000007H   SYMBOL    DATA     BYTE      hour
      0100856FH   LINE      CODE     ---       #465
      0100856FH   LINE      CODE     ---       #466
      0100856FH   LINE      CODE     ---       #467
      ---         BLOCKEND  ---      ---       LVL=0

      0100829AH   BLOCK     CODE     ---       LVL=0
      0100829AH   LINE      CODE     ---       #470
      0100829AH   LINE      CODE     ---       #471
      0100829AH   LINE      CODE     ---       #472
      ---         BLOCKEND  ---      ---       LVL=0

      01008582H   BLOCK     CODE     ---       LVL=0
      00000007H   SYMBOL    DATA     BYTE      min
      01008582H   LINE      CODE     ---       #475
      01008582H   LINE      CODE     ---       #476
      01008582H   LINE      CODE     ---       #477
      ---         BLOCKEND  ---      ---       LVL=0

LX51 LINKER/LOCATER V4.66.87.0                                                        05/30/2018  19:50:23  PAGE 87


      0100841DH   BLOCK     CODE     ---       LVL=0
      0100841DH   LINE      CODE     ---       #480
      0100841DH   LINE      CODE     ---       #481
      0100841DH   LINE      CODE     ---       #482
      01008430H   LINE      CODE     ---       #483
      ---         BLOCKEND  ---      ---       LVL=0

      010082B0H   BLOCK     CODE     ---       LVL=0
      00000007H   SYMBOL    DATA     BYTE      day
      010082B0H   LINE      CODE     ---       #485
      010082B0H   LINE      CODE     ---       #486
      010082B0H   LINE      CODE     ---       #487
      010082B7H   LINE      CODE     ---       #488
      010082BAH   LINE      CODE     ---       #489
      010082BAH   LINE      CODE     ---       #490
      010082BCH   LINE      CODE     ---       #491
      010082C3H   LINE      CODE     ---       #492
      010082C5H   LINE      CODE     ---       #493
      010082C5H   LINE      CODE     ---       #494
      ---         BLOCKEND  ---      ---       LVL=0

      01008376H   BLOCK     CODE     ---       LVL=0
      01008376H   LINE      CODE     ---       #496
      01008376H   LINE      CODE     ---       #497
      01008376H   LINE      CODE     ---       #498
      0100838AH   LINE      CODE     ---       #500
      ---         BLOCKEND  ---      ---       LVL=0

      01007F4AH   BLOCK     CODE     ---       LVL=0
      00000006H   SYMBOL    DATA     BYTE      date
      01007F4AH   LINE      CODE     ---       #502
      01007F4CH   LINE      CODE     ---       #503
      01007F4CH   LINE      CODE     ---       #504
      01007F63H   LINE      CODE     ---       #506
      ---         BLOCKEND  ---      ---       LVL=0

      01008431H   BLOCK     CODE     ---       LVL=0
      01008431H   LINE      CODE     ---       #508
      01008431H   LINE      CODE     ---       #509
      01008431H   LINE      CODE     ---       #510
      01008438H   LINE      CODE     ---       #511
      01008442H   LINE      CODE     ---       #512
      01008442H   LINE      CODE     ---       #513
      01008444H   LINE      CODE     ---       #514
      ---         BLOCKEND  ---      ---       LVL=0

      010082C6H   BLOCK     CODE     ---       LVL=0
      00000007H   SYMBOL    DATA     BYTE      sec
      010082C6H   LINE      CODE     ---       #517
      010082C6H   LINE      CODE     ---       #518
      010082C6H   LINE      CODE     ---       #519
      010082CBH   LINE      CODE     ---       #520
      010082D1H   LINE      CODE     ---       #521
      010082D5H   LINE      CODE     ---       #522
      010082D7H   LINE      CODE     ---       #523
      010082DBH   LINE      CODE     ---       #524
      010082DBH   LINE      CODE     ---       #525
      ---         BLOCKEND  ---      ---       LVL=0

      010035A4H   BLOCK     CODE     ---       LVL=0
      010035A4H   BLOCK     CODE     NEAR LAB  LVL=1
      00000003H   SYMBOL    DATA     BYTE      dy
      00000007H   SYMBOL    DATA     BYTE      a1m1
      00000004H   SYMBOL    DATA     BYTE      a1m2
      00000005H   SYMBOL    DATA     BYTE      a1m3
LX51 LINKER/LOCATER V4.66.87.0                                                        05/30/2018  19:50:23  PAGE 88


      00000006H   SYMBOL    DATA     BYTE      a1m4
      ---         BLOCKEND  ---      ---       LVL=1
      010035A4H   LINE      CODE     ---       #541
      010035A4H   LINE      CODE     ---       #542
      010035A4H   LINE      CODE     ---       #544
      010035A9H   LINE      CODE     ---       #545
      010035AEH   LINE      CODE     ---       #546
      010035B2H   LINE      CODE     ---       #547
      010035B7H   LINE      CODE     ---       #548
      010035BCH   LINE      CODE     ---       #549
      010035C0H   LINE      CODE     ---       #550
      010035CCH   LINE      CODE     ---       #551
      010035CFH   LINE      CODE     ---       #552
      010035DBH   LINE      CODE     ---       #553
      010035DEH   LINE      CODE     ---       #554
      010035EAH   LINE      CODE     ---       #555
      010035EDH   LINE      CODE     ---       #556
      010035F9H   LINE      CODE     ---       #557
      010035FCH   LINE      CODE     ---       #558
      0100360BH   LINE      CODE     ---       #559
      0100360EH   LINE      CODE     ---       #560
      0100360EH   LINE      CODE     ---       #561
      01003611H   LINE      CODE     ---       #562
      01003611H   LINE      CODE     ---       #563
      01003619H   LINE      CODE     ---       #564
      0100361EH   LINE      CODE     ---       #565
      01003622H   LINE      CODE     ---       #566
      01003627H   LINE      CODE     ---       #567
      0100362BH   LINE      CODE     ---       #568
      01003634H   LINE      CODE     ---       #569
      01003637H   LINE      CODE     ---       #570
      01003640H   LINE      CODE     ---       #571
      01003643H   LINE      CODE     ---       #572
      0100364CH   LINE      CODE     ---       #573
      0100364FH   LINE      CODE     ---       #574
      01003658H   LINE      CODE     ---       #575
      0100365BH   LINE      CODE     ---       #576
      01003667H   LINE      CODE     ---       #577
      0100366AH   LINE      CODE     ---       #578
      0100366AH   LINE      CODE     ---       #579
      0100366DH   LINE      CODE     ---       #580
      0100366DH   LINE      CODE     ---       #581
      0100366DH   LINE      CODE     ---       #582
      0100366FH   LINE      CODE     ---       #583
      ---         BLOCKEND  ---      ---       LVL=0

      0100463BH   BLOCK     CODE     ---       LVL=0
      00000005H   SYMBOL    DATA     BYTE      mode
      0100463BH   LINE      CODE     ---       #584
      0100463DH   LINE      CODE     ---       #585
      0100463DH   LINE      CODE     ---       #586
      01004648H   LINE      CODE     ---       #587
      01004648H   LINE      CODE     ---       #588
      01004648H   LINE      CODE     ---       #589
      0100464BH   LINE      CODE     ---       #590
      01004650H   LINE      CODE     ---       #591
      01004653H   LINE      CODE     ---       #592
      01004665H   LINE      CODE     ---       #593
      01004665H   LINE      CODE     ---       #594
      0100466CH   LINE      CODE     ---       #595
      0100466CH   LINE      CODE     ---       #596
      01004673H   LINE      CODE     ---       #597
      01004673H   LINE      CODE     ---       #598
      0100467AH   LINE      CODE     ---       #599
      0100467AH   LINE      CODE     ---       #600
LX51 LINKER/LOCATER V4.66.87.0                                                        05/30/2018  19:50:23  PAGE 89


      0100467DH   LINE      CODE     ---       #601
      0100467DH   LINE      CODE     ---       #602
      0100467FH   LINE      CODE     ---       #603
      0100467FH   LINE      CODE     ---       #604
      01004682H   LINE      CODE     ---       #605
      01004682H   LINE      CODE     ---       #606
      01004692H   LINE      CODE     ---       #607
      01004692H   LINE      CODE     ---       #608
      01004692H   LINE      CODE     ---       #609
      01004695H   LINE      CODE     ---       #610
      01004698H   LINE      CODE     ---       #611
      010046A8H   LINE      CODE     ---       #612
      010046A8H   LINE      CODE     ---       #613
      010046AFH   LINE      CODE     ---       #614
      010046AFH   LINE      CODE     ---       #615
      010046B6H   LINE      CODE     ---       #616
      010046B6H   LINE      CODE     ---       #617
      010046BDH   LINE      CODE     ---       #618
      010046BDH   LINE      CODE     ---       #619
      010046BEH   LINE      CODE     ---       #620
      010046BEH   LINE      CODE     ---       #621
      010046C5H   LINE      CODE     ---       #622
      010046C5H   LINE      CODE     ---       #623
      010046C5H   LINE      CODE     ---       #624
      ---         BLOCKEND  ---      ---       LVL=0

      01008445H   BLOCK     CODE     ---       LVL=0
      01008445H   LINE      CODE     ---       #626
      01008445H   LINE      CODE     ---       #627
      01008445H   LINE      CODE     ---       #628
      ---         BLOCKEND  ---      ---       LVL=0

      01004246H   BLOCK     CODE     ---       LVL=0
      02000014H   SYMBOL    XDATA    ---       integer
      02000017H   SYMBOL    XDATA    ---       flt
      0100424CH   BLOCK     CODE     NEAR LAB  LVL=1
      0200001AH   SYMBOL    XDATA    FLOAT     ret
      00000020H.1 SYMBOL    BIT      BIT       sign
      ---         BLOCKEND  ---      ---       LVL=1
      01004246H   LINE      CODE     ---       #632
      0100424CH   LINE      CODE     ---       #633
      0100424CH   LINE      CODE     ---       #634
      01004256H   LINE      CODE     ---       #635
      01004262H   LINE      CODE     ---       #638
      01004265H   LINE      CODE     ---       #639
      0100426BH   LINE      CODE     ---       #640
      0100426CH   LINE      CODE     ---       #641
      0100426FH   LINE      CODE     ---       #642
      01004272H   LINE      CODE     ---       #643
      01004275H   LINE      CODE     ---       #644
      01004277H   LINE      CODE     ---       #645
      0100427DH   LINE      CODE     ---       #646
      0100427DH   LINE      CODE     ---       #647
      0100427FH   LINE      CODE     ---       #648
      01004282H   LINE      CODE     ---       #649
      01004285H   LINE      CODE     ---       #650
      01004285H   LINE      CODE     ---       #652
      01004294H   LINE      CODE     ---       #654
      0100429EH   LINE      CODE     ---       #655
      010042A6H   LINE      CODE     ---       #656
      010042ABH   LINE      CODE     ---       #657
      010042B3H   LINE      CODE     ---       #658
      010042BBH   LINE      CODE     ---       #659
      010042C0H   LINE      CODE     ---       #660
      010042C2H   LINE      CODE     ---       #661
LX51 LINKER/LOCATER V4.66.87.0                                                        05/30/2018  19:50:23  PAGE 90


      010042C9H   LINE      CODE     ---       #662
      010042C9H   LINE      CODE     ---       #664
      010042D9H   LINE      CODE     ---       #666
      010042DBH   LINE      CODE     ---       #667
      ---         BLOCKEND  ---      ---       LVL=0

      010076D8H   BLOCK     CODE     ---       LVL=0
      00000007H   SYMBOL    DATA     BYTE      index
      00000020H.1 SYMBOL    BIT      BIT       enable
      010076D8H   LINE      CODE     ---       #670
      010076D8H   LINE      CODE     ---       #671
      010076D8H   LINE      CODE     ---       #672
      010076DBH   LINE      CODE     ---       #673
      010076E2H   LINE      CODE     ---       #674
      010076E6H   LINE      CODE     ---       #676
      010076E9H   LINE      CODE     ---       #677
      010076EEH   LINE      CODE     ---       #678
      010076F5H   LINE      CODE     ---       #679
      010076F9H   LINE      CODE     ---       #681
      010076FCH   LINE      CODE     ---       #682
      010076FCH   LINE      CODE     ---       #683
      ---         BLOCKEND  ---      ---       LVL=0

      01007BAEH   BLOCK     CODE     ---       LVL=0
      00000007H   SYMBOL    DATA     BYTE      index
      01007BAEH   LINE      CODE     ---       #685
      01007BAEH   LINE      CODE     ---       #686
      01007BAEH   LINE      CODE     ---       #687
      01007BB1H   LINE      CODE     ---       #688
      01007BBBH   LINE      CODE     ---       #689
      01007BBFH   LINE      CODE     ---       #690
      01007BC9H   LINE      CODE     ---       #691
      01007BC9H   LINE      CODE     ---       #692
      01007BCAH   LINE      CODE     ---       #693
      ---         BLOCKEND  ---      ---       LVL=0

      0100819FH   BLOCK     CODE     ---       LVL=0
      00000007H   SYMBOL    DATA     BYTE      index
      0100819FH   LINE      CODE     ---       #695
      0100819FH   LINE      CODE     ---       #696
      0100819FH   LINE      CODE     ---       #697
      010081A2H   LINE      CODE     ---       #698
      010081A9H   LINE      CODE     ---       #699
      010081AEH   LINE      CODE     ---       #700
      010081B5H   LINE      CODE     ---       #701
      010081B5H   LINE      CODE     ---       #702
      ---         BLOCKEND  ---      ---       LVL=0

      01007BCBH   BLOCK     CODE     ---       LVL=0
      00000007H   SYMBOL    DATA     BYTE      index
      01007BCBH   LINE      CODE     ---       #704
      01007BCBH   LINE      CODE     ---       #705
      01007BCBH   LINE      CODE     ---       #706
      01007BCEH   LINE      CODE     ---       #707
      01007BD8H   LINE      CODE     ---       #708
      01007BDCH   LINE      CODE     ---       #709
      01007BE6H   LINE      CODE     ---       #710
      01007BE6H   LINE      CODE     ---       #711
      01007BE7H   LINE      CODE     ---       #712
      ---         BLOCKEND  ---      ---       LVL=0

      01008A4DH   BLOCK     CODE     ---       LVL=0
      01008A4DH   LINE      CODE     ---       #714
      01008A4DH   LINE      CODE     ---       #715
      01008A4DH   LINE      CODE     ---       #716
LX51 LINKER/LOCATER V4.66.87.0                                                        05/30/2018  19:50:23  PAGE 91


      01008A56H   LINE      CODE     ---       #717
      ---         BLOCKEND  ---      ---       LVL=0

      0100877DH   BLOCK     CODE     ---       LVL=0
      00000024H.3 SYMBOL    BIT      BIT       val
      0100877DH   LINE      CODE     ---       #719
      0100877DH   LINE      CODE     ---       #720
      0100877DH   LINE      CODE     ---       #721
      01008784H   LINE      CODE     ---       #722
      01008787H   LINE      CODE     ---       #723
      0100878BH   LINE      CODE     ---       #724
      ---         BLOCKEND  ---      ---       LVL=0

      01008A57H   BLOCK     CODE     ---       LVL=0
      01008A57H   LINE      CODE     ---       #726
      01008A57H   LINE      CODE     ---       #727
      01008A57H   LINE      CODE     ---       #728
      01008A60H   LINE      CODE     ---       #729
      ---         BLOCKEND  ---      ---       LVL=0

      0100878CH   BLOCK     CODE     ---       LVL=0
      00000024H.4 SYMBOL    BIT      BIT       val
      0100878CH   LINE      CODE     ---       #731
      0100878CH   LINE      CODE     ---       #732
      0100878CH   LINE      CODE     ---       #733
      01008793H   LINE      CODE     ---       #734
      01008796H   LINE      CODE     ---       #735
      0100879AH   LINE      CODE     ---       #736
      ---         BLOCKEND  ---      ---       LVL=0

      01008A61H   BLOCK     CODE     ---       LVL=0
      01008A61H   LINE      CODE     ---       #738
      01008A61H   LINE      CODE     ---       #739
      01008A61H   LINE      CODE     ---       #740
      01008A6AH   LINE      CODE     ---       #741
      ---         BLOCKEND  ---      ---       LVL=0

      0100879BH   BLOCK     CODE     ---       LVL=0
      00000024H.5 SYMBOL    BIT      BIT       val
      0100879BH   LINE      CODE     ---       #743
      0100879BH   LINE      CODE     ---       #744
      0100879BH   LINE      CODE     ---       #745
      010087A2H   LINE      CODE     ---       #746
      010087A5H   LINE      CODE     ---       #747
      010087A9H   LINE      CODE     ---       #748
      ---         BLOCKEND  ---      ---       LVL=0

      01008914H   BLOCK     CODE     ---       LVL=0
      01008914H   LINE      CODE     ---       #750
      01008914H   LINE      CODE     ---       #751
      01008914H   LINE      CODE     ---       #752
      01008920H   LINE      CODE     ---       #753
      ---         BLOCKEND  ---      ---       LVL=0

      010086B7H   BLOCK     CODE     ---       LVL=0
      00000007H   SYMBOL    DATA     BYTE      rt
      010086B7H   BLOCK     CODE     NEAR LAB  LVL=1
      00000007H   SYMBOL    DATA     BYTE      val
      ---         BLOCKEND  ---      ---       LVL=1
      010086B7H   LINE      CODE     ---       #755
      010086B7H   LINE      CODE     ---       #756
      010086B7H   LINE      CODE     ---       #757
      010086B7H   LINE      CODE     ---       #758
      010086BFH   LINE      CODE     ---       #759
      010086C7H   LINE      CODE     ---       #760
LX51 LINKER/LOCATER V4.66.87.0                                                        05/30/2018  19:50:23  PAGE 92


      ---         BLOCKEND  ---      ---       LVL=0

      01008459H   BLOCK     CODE     ---       LVL=0
      01008459H   LINE      CODE     ---       #762
      01008459H   LINE      CODE     ---       #763
      01008459H   LINE      CODE     ---       #764
      ---         BLOCKEND  ---      ---       LVL=0

      01008A6BH   BLOCK     CODE     ---       LVL=0
      01008A6BH   LINE      CODE     ---       #767
      01008A6BH   LINE      CODE     ---       #768
      01008A6BH   LINE      CODE     ---       #769
      01008A74H   LINE      CODE     ---       #770
      ---         BLOCKEND  ---      ---       LVL=0

      010087AAH   BLOCK     CODE     ---       LVL=0
      00000020H.0 SYMBOL    BIT      BIT       val
      010087AAH   LINE      CODE     ---       #772
      010087AAH   LINE      CODE     ---       #773
      010087AAH   LINE      CODE     ---       #774
      010087B1H   LINE      CODE     ---       #775
      010087B4H   LINE      CODE     ---       #776
      010087B8H   LINE      CODE     ---       #777
      ---         BLOCKEND  ---      ---       LVL=0

      01008A75H   BLOCK     CODE     ---       LVL=0
      01008A75H   LINE      CODE     ---       #779
      01008A75H   LINE      CODE     ---       #780
      01008A75H   LINE      CODE     ---       #781
      01008A7EH   LINE      CODE     ---       #782
      ---         BLOCKEND  ---      ---       LVL=0

      010087B9H   BLOCK     CODE     ---       LVL=0
      00000024H.6 SYMBOL    BIT      BIT       val
      010087B9H   LINE      CODE     ---       #784
      010087B9H   LINE      CODE     ---       #785
      010087B9H   LINE      CODE     ---       #786
      010087C0H   LINE      CODE     ---       #787
      010087C3H   LINE      CODE     ---       #788
      010087C7H   LINE      CODE     ---       #789
      ---         BLOCKEND  ---      ---       LVL=0

      01008A7FH   BLOCK     CODE     ---       LVL=0
      01008A7FH   LINE      CODE     ---       #791
      01008A7FH   LINE      CODE     ---       #792
      01008A7FH   LINE      CODE     ---       #793
      01008A88H   LINE      CODE     ---       #794
      ---         BLOCKEND  ---      ---       LVL=0

      010087C8H   BLOCK     CODE     ---       LVL=0
      00000020H.0 SYMBOL    BIT      BIT       val
      010087C8H   LINE      CODE     ---       #796
      010087C8H   LINE      CODE     ---       #797
      010087C8H   LINE      CODE     ---       #798
      010087CFH   LINE      CODE     ---       #799
      010087D2H   LINE      CODE     ---       #800
      010087D6H   LINE      CODE     ---       #801
      ---         BLOCKEND  ---      ---       LVL=0

      01008A89H   BLOCK     CODE     ---       LVL=0
      01008A89H   LINE      CODE     ---       #803
      01008A89H   LINE      CODE     ---       #804
      01008A89H   LINE      CODE     ---       #805
      01008A92H   LINE      CODE     ---       #806
      ---         BLOCKEND  ---      ---       LVL=0
LX51 LINKER/LOCATER V4.66.87.0                                                        05/30/2018  19:50:23  PAGE 93



      010080B0H   BLOCK     CODE     ---       LVL=0
      010080B0H   LINE      CODE     ---       #808
      010080B0H   LINE      CODE     ---       #809
      010080B0H   LINE      CODE     ---       #811
      010080B9H   LINE      CODE     ---       #813
      010080BEH   LINE      CODE     ---       #814
      010080C3H   LINE      CODE     ---       #815
      ---         BLOCKEND  ---      ---       LVL=0

      010080C8H   BLOCK     CODE     ---       LVL=0
      010080C8H   LINE      CODE     ---       #819
      010080C8H   LINE      CODE     ---       #820
      010080C8H   LINE      CODE     ---       #821
      010080D1H   LINE      CODE     ---       #823
      010080D6H   LINE      CODE     ---       #824
      010080DBH   LINE      CODE     ---       #825
      ---         BLOCKEND  ---      ---       LVL=0

      ---         MODULE    ---      ---       I2C
      010081B6H   PUBLIC    CODE     ---       _I2C_Get
      0200001DH   PUBLIC    XDATA    BYTE      ?_I2C_Gets?BYTE
      01005072H   PUBLIC    CODE     ---       _I2C_Gets
      0100846DH   PUBLIC    CODE     ---       _I2C_Put
      0200001AH   PUBLIC    XDATA    BYTE      ?_I2C_Puts?BYTE
      01005D9DH   PUBLIC    CODE     ---       _I2C_Puts
      00000020H.2 PUBLIC    BIT      BIT       ?I2C_PutAck?BIT
      010085E0H   PUBLIC    CODE     ---       I2C_PutAck
      010078CCH   PUBLIC    CODE     ---       I2C_GetAck
      0100706BH   PUBLIC    CODE     ---       I2C_Read
      01007ADAH   PUBLIC    CODE     ---       _I2C_Write
      010082DCH   PUBLIC    CODE     ---       I2C_Stop
      010089C9H   PUBLIC    CODE     ---       I2C_Start
      01008A93H   PUBLIC    CODE     ---       I2C_Init
      010086D0H   PUBLIC    CODE     ---       I2C_Delay
      00000080H   SFRSYM    DATA     BYTE      P0
      00000090H   SFRSYM    DATA     BYTE      P1
      00000090H.7 SFRSYM    DATA     BIT       I2C_SCL
      000000A0H   SFRSYM    DATA     BYTE      P2
      000000B0H   SFRSYM    DATA     BYTE      P3
      000000C0H   SFRSYM    DATA     BYTE      XICON
      000000B0H.4 SFRSYM    DATA     BIT       T0
      000000D0H.6 SFRSYM    DATA     BIT       AC
      000000E8H   SFRSYM    DATA     BYTE      P4
      000000B0H.5 SFRSYM    DATA     BIT       T1
      000000E6H   SFRSYM    DATA     BYTE      ISP_TRIG
      00000090H.0 SFRSYM    DATA     BIT       T2
      000000A8H.7 SFRSYM    DATA     BIT       EA
      000000A8H.6 SFRSYM    DATA     BIT       EC
      00000098H.7 SFRSYM    DATA     BIT       FE
      000000A8H   SFRSYM    DATA     BYTE      IE
      000000C8H.6 SFRSYM    DATA     BIT       EXF2
      000000B0H.7 SFRSYM    DATA     BIT       RD
      000000A8H.4 SFRSYM    DATA     BIT       ES
      000000B8H   SFRSYM    DATA     BYTE      IP
      00000098H.0 SFRSYM    DATA     BIT       RI
      000000B0H.2 SFRSYM    DATA     BIT       INT0
      000000D0H.7 SFRSYM    DATA     BIT       CY
      00000098H.1 SFRSYM    DATA     BIT       TI
      000000B0H.3 SFRSYM    DATA     BIT       INT1
      000000CBH   SFRSYM    DATA     BYTE      RCAP2H
      000000E5H   SFRSYM    DATA     BYTE      ISP_CMD
      000000B8H.4 SFRSYM    DATA     BIT       PS
      00000081H   SFRSYM    DATA     BYTE      SP
      00000090H.1 SFRSYM    DATA     BIT       T2EX
LX51 LINKER/LOCATER V4.66.87.0                                                        05/30/2018  19:50:23  PAGE 94


      000000D0H.2 SFRSYM    DATA     BIT       OV
      000000CAH   SFRSYM    DATA     BYTE      RCAP2L
      000000C8H.1 SFRSYM    DATA     BIT       C_T2
      000000B0H.6 SFRSYM    DATA     BIT       WR
      000000C8H.5 SFRSYM    DATA     BIT       RCLK
      000000C8H.4 SFRSYM    DATA     BIT       TCLK
      00000080H.0 SFRSYM    DATA     BIT       P00
      00000099H   SFRSYM    DATA     BYTE      SBUF
      00000087H   SFRSYM    DATA     BYTE      PCON
      00000090H.0 SFRSYM    DATA     BIT       P10
      00000080H.1 SFRSYM    DATA     BIT       P01
      000000A0H.0 SFRSYM    DATA     BIT       P20
      00000090H.1 SFRSYM    DATA     BIT       P11
      00000080H.2 SFRSYM    DATA     BIT       P02
      000000E3H   SFRSYM    DATA     BYTE      ISP_ADDRH
      000000B0H.0 SFRSYM    DATA     BIT       P30
      000000A0H.1 SFRSYM    DATA     BIT       P21
      00000090H.2 SFRSYM    DATA     BIT       P12
      00000080H.3 SFRSYM    DATA     BIT       P03
      00000098H   SFRSYM    DATA     BYTE      SCON
      000000B0H.1 SFRSYM    DATA     BIT       P31
      000000A0H.2 SFRSYM    DATA     BIT       P22
      00000090H.3 SFRSYM    DATA     BIT       P13
      00000080H.4 SFRSYM    DATA     BIT       P04
      000000E8H.0 SFRSYM    DATA     BIT       P40
      00000089H   SFRSYM    DATA     BYTE      TMOD
      00000088H   SFRSYM    DATA     BYTE      TCON
      000000B0H.2 SFRSYM    DATA     BIT       P32
      000000A0H.3 SFRSYM    DATA     BIT       P23
      00000090H.4 SFRSYM    DATA     BIT       P14
      00000080H.5 SFRSYM    DATA     BIT       P05
      000000E8H.1 SFRSYM    DATA     BIT       P41
      000000B0H.3 SFRSYM    DATA     BIT       P33
      000000A0H.4 SFRSYM    DATA     BIT       P24
      00000090H.5 SFRSYM    DATA     BIT       P15
      00000080H.6 SFRSYM    DATA     BIT       P06
      000000E4H   SFRSYM    DATA     BYTE      ISP_ADDRL
      000000E8H.2 SFRSYM    DATA     BIT       P42
      000000B0H.4 SFRSYM    DATA     BIT       P34
      000000A0H.5 SFRSYM    DATA     BIT       P25
      00000090H.6 SFRSYM    DATA     BIT       P16
      00000080H.7 SFRSYM    DATA     BIT       P07
      000000E8H.3 SFRSYM    DATA     BIT       P43
      000000B0H.5 SFRSYM    DATA     BIT       P35
      000000A0H.6 SFRSYM    DATA     BIT       P26
      00000090H.7 SFRSYM    DATA     BIT       P17
      000000E8H.4 SFRSYM    DATA     BIT       P44
      000000B0H.6 SFRSYM    DATA     BIT       P36
      000000A0H.7 SFRSYM    DATA     BIT       P27
      000000E8H.5 SFRSYM    DATA     BIT       P45
      000000B0H.7 SFRSYM    DATA     BIT       P37
      000000E8H.6 SFRSYM    DATA     BIT       P46
      00000088H.1 SFRSYM    DATA     BIT       IE0
      00000088H.3 SFRSYM    DATA     BIT       IE1
      0000008EH   SFRSYM    DATA     BYTE      AUXR
      000000F0H   SFRSYM    DATA     BYTE      B
      000000C8H.0 SFRSYM    DATA     BIT       CP_RL2
      000000E0H   SFRSYM    DATA     BYTE      ACC
      000000A8H.1 SFRSYM    DATA     BIT       ET0
      000000A8H.3 SFRSYM    DATA     BIT       ET1
      00000088H.5 SFRSYM    DATA     BIT       TF0
      000000A8H.5 SFRSYM    DATA     BIT       ET2
      00000088H.7 SFRSYM    DATA     BIT       TF1
      000000C8H.7 SFRSYM    DATA     BIT       TF2
      00000098H.2 SFRSYM    DATA     BIT       RB8
LX51 LINKER/LOCATER V4.66.87.0                                                        05/30/2018  19:50:23  PAGE 95


      0000008CH   SFRSYM    DATA     BYTE      TH0
      000000A8H.0 SFRSYM    DATA     BIT       EX0
      00000088H.0 SFRSYM    DATA     BIT       IT0
      0000008DH   SFRSYM    DATA     BYTE      TH1
      00000098H.3 SFRSYM    DATA     BIT       TB8
      000000A8H.2 SFRSYM    DATA     BIT       EX1
      00000088H.2 SFRSYM    DATA     BIT       IT1
      000000CDH   SFRSYM    DATA     BYTE      TH2
      000000D0H.0 SFRSYM    DATA     BIT       P
      00000098H.7 SFRSYM    DATA     BIT       SM0
      0000008AH   SFRSYM    DATA     BYTE      TL0
      00000098H.6 SFRSYM    DATA     BIT       SM1
      0000008BH   SFRSYM    DATA     BYTE      TL1
      00000098H.5 SFRSYM    DATA     BIT       SM2
      000000CCH   SFRSYM    DATA     BYTE      TL2
      000000B8H.1 SFRSYM    DATA     BIT       PT0
      000000B8H.3 SFRSYM    DATA     BIT       PT1
      000000D0H.3 SFRSYM    DATA     BIT       RS0
      000000E7H   SFRSYM    DATA     BYTE      ISP_CONTR
      000000B8H.5 SFRSYM    DATA     BIT       PT2
      00000088H.4 SFRSYM    DATA     BIT       TR0
      000000D0H.4 SFRSYM    DATA     BIT       RS1
      00000088H.6 SFRSYM    DATA     BIT       TR1
      000000C8H.2 SFRSYM    DATA     BIT       TR2
      000000B8H.0 SFRSYM    DATA     BIT       PX0
      000000E1H   SFRSYM    DATA     BYTE      WDT_CONTR
      000000B8H.2 SFRSYM    DATA     BIT       PX1
      00000083H   SFRSYM    DATA     BYTE      DPH
      00000082H   SFRSYM    DATA     BYTE      DPL
      000000B7H   SFRSYM    DATA     BYTE      IPH
      000000C8H.3 SFRSYM    DATA     BIT       EXEN2
      00000098H.4 SFRSYM    DATA     BIT       REN
      000000C9H   SFRSYM    DATA     BYTE      T2MOD
      000000C8H   SFRSYM    DATA     BYTE      T2CON
      000000E2H   SFRSYM    DATA     BYTE      ISP_DATA
      000000B9H   SFRSYM    DATA     BYTE      SADEN
      000000B0H.0 SFRSYM    DATA     BIT       RXD
      000000A9H   SFRSYM    DATA     BYTE      SADDR
      000000B0H.1 SFRSYM    DATA     BIT       TXD
      000000A2H   SFRSYM    DATA     BYTE      AUXR1
      000000D0H.5 SFRSYM    DATA     BIT       F0
      00000090H.6 SFRSYM    DATA     BIT       I2C_SDA
      000000D0H   SFRSYM    DATA     BYTE      PSW

      01008A9DH   BLOCK     CODE     ---       LVL=0
      ---         BLOCKEND  ---      ---       LVL=0

      010086C8H   BLOCK     CODE     ---       LVL=0
      ---         BLOCKEND  ---      ---       LVL=0

      010086D0H   BLOCK     CODE     ---       LVL=0
      00000007H   SYMBOL    DATA     BYTE      c
      010086D0H   BLOCK     CODE     NEAR LAB  LVL=1
      00000007H   SYMBOL    DATA     BYTE      c
      ---         BLOCKEND  ---      ---       LVL=1
      010086D0H   LINE      CODE     ---       #5
      010086D0H   LINE      CODE     ---       #6
      010086D0H   LINE      CODE     ---       #8
      010086D2H   LINE      CODE     ---       #9
      010086D8H   LINE      CODE     ---       #10
      ---         BLOCKEND  ---      ---       LVL=0

      01008A93H   BLOCK     CODE     ---       LVL=0
      01008A93H   LINE      CODE     ---       #15
      01008A93H   LINE      CODE     ---       #16
LX51 LINKER/LOCATER V4.66.87.0                                                        05/30/2018  19:50:23  PAGE 96


      01008A93H   LINE      CODE     ---       #17
      01008A95H   LINE      CODE     ---       #18
      01008A98H   LINE      CODE     ---       #19
      01008A9AH   LINE      CODE     ---       #20
      ---         BLOCKEND  ---      ---       LVL=0

      010089C9H   BLOCK     CODE     ---       LVL=0
      010089C9H   LINE      CODE     ---       #24
      010089C9H   LINE      CODE     ---       #25
      010089C9H   LINE      CODE     ---       #28
      010089C9H   LINE      CODE     ---       #29
      010089C9H   LINE      CODE     ---       #30
      010089C9H   LINE      CODE     ---       #31
      010089CCH   LINE      CODE     ---       #32
      010089CEH   LINE      CODE     ---       #33
      010089CEH   LINE      CODE     ---       #34
      010089CEH   LINE      CODE     ---       #35
      010089CEH   LINE      CODE     ---       #36
      010089D1H   LINE      CODE     ---       #37
      ---         BLOCKEND  ---      ---       LVL=0

      010082DCH   BLOCK     CODE     ---       LVL=0
      010082DCH   BLOCK     CODE     NEAR LAB  LVL=1
      00000004H   SYMBOL    DATA     WORD      t
      ---         BLOCKEND  ---      ---       LVL=1
      010082DCH   LINE      CODE     ---       #40
      010082DCH   LINE      CODE     ---       #41
      010082DCH   LINE      CODE     ---       #42
      010082E0H   LINE      CODE     ---       #44
      010082E2H   LINE      CODE     ---       #45
      010082E5H   LINE      CODE     ---       #47
      010082E5H   LINE      CODE     ---       #48
      010082E5H   LINE      CODE     ---       #49
      010082E5H   LINE      CODE     ---       #50
      010082E8H   LINE      CODE     ---       #54
      010082F1H   LINE      CODE     ---       #55
      ---         BLOCKEND  ---      ---       LVL=0

      01007ADAH   BLOCK     CODE     ---       LVL=0
      00000006H   SYMBOL    DATA     BYTE      dat
      01007ADCH   BLOCK     CODE     NEAR LAB  LVL=1
      00000005H   SYMBOL    DATA     BYTE      t
      ---         BLOCKEND  ---      ---       LVL=1
      01007ADAH   LINE      CODE     ---       #59
      01007ADCH   LINE      CODE     ---       #60
      01007ADCH   LINE      CODE     ---       #63
      01007ADEH   LINE      CODE     ---       #64
      01007ADEH   LINE      CODE     ---       #66
      01007AE2H   LINE      CODE     ---       #67
      01007AE5H   LINE      CODE     ---       #68
      01007AE7H   LINE      CODE     ---       #69
      01007AEAH   LINE      CODE     ---       #70
      01007AECH   LINE      CODE     ---       #71
      01007AEFH   LINE      CODE     ---       #72
      01007AF3H   LINE      CODE     ---       #73
      01007AF8H   LINE      CODE     ---       #76
      ---         BLOCKEND  ---      ---       LVL=0

      0100706BH   BLOCK     CODE     ---       LVL=0
      0100706BH   BLOCK     CODE     NEAR LAB  LVL=1
      00000006H   SYMBOL    DATA     BYTE      dat
      00000005H   SYMBOL    DATA     BYTE      t
      00000020H.2 SYMBOL    BIT      BIT       temp
      ---         BLOCKEND  ---      ---       LVL=1
      0100706BH   LINE      CODE     ---       #78
LX51 LINKER/LOCATER V4.66.87.0                                                        05/30/2018  19:50:23  PAGE 97


      0100706BH   LINE      CODE     ---       #79
      0100706BH   LINE      CODE     ---       #80
      0100706DH   LINE      CODE     ---       #83
      01007070H   LINE      CODE     ---       #84
      01007070H   LINE      CODE     ---       #85
      01007070H   LINE      CODE     ---       #87
      01007073H   LINE      CODE     ---       #89
      01007075H   LINE      CODE     ---       #90
      01007075H   LINE      CODE     ---       #91
      01007077H   LINE      CODE     ---       #92
      0100707AH   LINE      CODE     ---       #93
      0100707CH   LINE      CODE     ---       #94
      0100707FH   LINE      CODE     ---       #95
      01007083H   LINE      CODE     ---       #96
      01007087H   LINE      CODE     ---       #97
      0100708DH   LINE      CODE     ---       #98
      01007092H   LINE      CODE     ---       #100
      01007094H   LINE      CODE     ---       #101
      01007097H   LINE      CODE     ---       #103
      01007099H   LINE      CODE     ---       #104
      ---         BLOCKEND  ---      ---       LVL=0

      010078CCH   BLOCK     CODE     ---       LVL=0
      010078CCH   BLOCK     CODE     NEAR LAB  LVL=1
      00000020H.2 SYMBOL    BIT      BIT       ack
      00000006H   SYMBOL    DATA     BYTE      Error_time
      ---         BLOCKEND  ---      ---       LVL=1
      010078CCH   LINE      CODE     ---       #108
      010078CCH   LINE      CODE     ---       #109
      010078CCH   LINE      CODE     ---       #111
      010078CEH   LINE      CODE     ---       #113
      010078CEH   LINE      CODE     ---       #114
      010078CEH   LINE      CODE     ---       #115
      010078D1H   LINE      CODE     ---       #116
      010078D3H   LINE      CODE     ---       #117
      010078D6H   LINE      CODE     ---       #119
      010078D6H   LINE      CODE     ---       #120
      010078DAH   LINE      CODE     ---       #121
      010078DCH   LINE      CODE     ---       #122
      010078DCH   LINE      CODE     ---       #123
      010078DCH   LINE      CODE     ---       #124
      010078DEH   LINE      CODE     ---       #125
      010078E1H   LINE      CODE     ---       #126
      010078E3H   LINE      CODE     ---       #127
      010078E3H   LINE      CODE     ---       #128
      010078E6H   LINE      CODE     ---       #131
      010078E6H   LINE      CODE     ---       #132
      010078E6H   LINE      CODE     ---       #133
      010078E9H   LINE      CODE     ---       #134
      010078ECH   LINE      CODE     ---       #135
      010078EDH   LINE      CODE     ---       #136
      ---         BLOCKEND  ---      ---       LVL=0

      010085E0H   BLOCK     CODE     ---       LVL=0
      00000020H.2 SYMBOL    BIT      BIT       ack
      010085E0H   LINE      CODE     ---       #138
      010085E0H   LINE      CODE     ---       #139
      010085E0H   LINE      CODE     ---       #141
      010085E4H   LINE      CODE     ---       #142
      010085E7H   LINE      CODE     ---       #143
      010085E9H   LINE      CODE     ---       #144
      010085E9H   LINE      CODE     ---       #146
      010085E9H   LINE      CODE     ---       #147
      010085E9H   LINE      CODE     ---       #148
      010085ECH   LINE      CODE     ---       #149
LX51 LINKER/LOCATER V4.66.87.0                                                        05/30/2018  19:50:23  PAGE 98


      010085EFH   LINE      CODE     ---       #150
      ---         BLOCKEND  ---      ---       LVL=0

      01005D9DH   BLOCK     CODE     ---       LVL=0
      00000006H   SYMBOL    DATA     BYTE      SlaveAddr
      00000004H   SYMBOL    DATA     BYTE      SubAddr
      0200001CH   SYMBOL    XDATA    BYTE      Size
      0200001DH   SYMBOL    XDATA    ---       dat
      01005D9DH   LINE      CODE     ---       #219
      01005DA6H   LINE      CODE     ---       #220
      01005DA6H   LINE      CODE     ---       #222
      01005DAAH   LINE      CODE     ---       #224
      01005DAEH   LINE      CODE     ---       #226
      01005DB1H   LINE      CODE     ---       #228
      01005DB3H   LINE      CODE     ---       #229
      01005DB8H   LINE      CODE     ---       #230
      01005DB8H   LINE      CODE     ---       #231
      01005DB8H   LINE      CODE     ---       #232
      01005DBAH   LINE      CODE     ---       #233
      01005DBAH   LINE      CODE     ---       #235
      01005DBCH   LINE      CODE     ---       #236
      01005DC1H   LINE      CODE     ---       #237
      01005DC1H   LINE      CODE     ---       #238
      01005DC1H   LINE      CODE     ---       #239
      01005DC3H   LINE      CODE     ---       #240
      01005DC3H   LINE      CODE     ---       #243
      01005DC3H   LINE      CODE     ---       #244
      01005DD4H   LINE      CODE     ---       #245
      01005DD9H   LINE      CODE     ---       #246
      01005DD9H   LINE      CODE     ---       #247
      01005DDCH   LINE      CODE     ---       #248
      01005DDEH   LINE      CODE     ---       #249
      01005DDEH   LINE      CODE     ---       #250
      01005DE6H   LINE      CODE     ---       #252
      01005DE9H   LINE      CODE     ---       #253
      01005DEAH   LINE      CODE     ---       #254
      ---         BLOCKEND  ---      ---       LVL=0

      0100846DH   BLOCK     CODE     ---       LVL=0
      00000007H   SYMBOL    DATA     BYTE      SlaveAddr
      00000005H   SYMBOL    DATA     BYTE      SubAddr
      02000019H   SYMBOL    XDATA    CHAR      dat
      0100846DH   LINE      CODE     ---       #256
      01008472H   LINE      CODE     ---       #257
      01008472H   LINE      CODE     ---       #258
      ---         BLOCKEND  ---      ---       LVL=0

      01005072H   BLOCK     CODE     ---       LVL=0
      00000004H   SYMBOL    DATA     BYTE      SlaveAddr
      00000001H   SYMBOL    DATA     BYTE      SubAddr
      0200001FH   SYMBOL    XDATA    BYTE      Size
      02000020H   SYMBOL    XDATA    ---       dat
      01005072H   LINE      CODE     ---       #262
      0100507BH   LINE      CODE     ---       #263
      0100507BH   LINE      CODE     ---       #264
      0100507FH   LINE      CODE     ---       #266
      01005083H   LINE      CODE     ---       #268
      01005086H   LINE      CODE     ---       #270
      01005088H   LINE      CODE     ---       #271
      0100508DH   LINE      CODE     ---       #272
      0100508DH   LINE      CODE     ---       #273
      0100508DH   LINE      CODE     ---       #274
      0100508FH   LINE      CODE     ---       #275
      0100508FH   LINE      CODE     ---       #277
      01005091H   LINE      CODE     ---       #278
LX51 LINKER/LOCATER V4.66.87.0                                                        05/30/2018  19:50:23  PAGE 99


      01005096H   LINE      CODE     ---       #279
      01005096H   LINE      CODE     ---       #280
      01005096H   LINE      CODE     ---       #281
      01005098H   LINE      CODE     ---       #282
      01005098H   LINE      CODE     ---       #284
      0100509BH   LINE      CODE     ---       #286
      0100509FH   LINE      CODE     ---       #287
      010050A3H   LINE      CODE     ---       #288
      010050A8H   LINE      CODE     ---       #289
      010050A8H   LINE      CODE     ---       #290
      010050ABH   LINE      CODE     ---       #291
      010050ADH   LINE      CODE     ---       #292
      010050ADH   LINE      CODE     ---       #294
      010050ADH   LINE      CODE     ---       #295
      010050ADH   LINE      CODE     ---       #296
      010050BEH   LINE      CODE     ---       #297
      010050C6H   LINE      CODE     ---       #298
      010050C6H   LINE      CODE     ---       #299
      010050CBH   LINE      CODE     ---       #300
      010050CDH   LINE      CODE     ---       #301
      010050CDH   LINE      CODE     ---       #302
      010050D2H   LINE      CODE     ---       #303
      010050D4H   LINE      CODE     ---       #305
      010050D7H   LINE      CODE     ---       #306
      010050D8H   LINE      CODE     ---       #307
      ---         BLOCKEND  ---      ---       LVL=0

      010081B6H   BLOCK     CODE     ---       LVL=0
      00000007H   SYMBOL    DATA     BYTE      SlaveAddr
      00000005H   SYMBOL    DATA     BYTE      SubAddr
      0200001AH   SYMBOL    XDATA    ---       dat
      010081B6H   LINE      CODE     ---       #309
      010081BCH   LINE      CODE     ---       #310
      010081BCH   LINE      CODE     ---       #311
      ---         BLOCKEND  ---      ---       LVL=0

      ---         MODULE    ---      ---       KEY
      01008AEBH   PUBLIC    CODE     ---       key_leave_powersave
      01008AE2H   PUBLIC    CODE     ---       key_enter_powersave
      01008033H   PUBLIC    CODE     ---       key_initialize
      01006C4AH   PUBLIC    CODE     ---       _mod_set_proc
      01006083H   PUBLIC    CODE     ---       _set_proc
      01006033H   PUBLIC    CODE     ---       _mod_proc
      01002A62H   PUBLIC    CODE     ---       _scan_key_proc
      00000080H   SFRSYM    DATA     BYTE      P0
      00000090H   SFRSYM    DATA     BYTE      P1
      000000A0H   SFRSYM    DATA     BYTE      P2
      000000B0H   SFRSYM    DATA     BYTE      P3
      000000C0H   SFRSYM    DATA     BYTE      XICON
      000000B0H.4 SFRSYM    DATA     BIT       T0
      000000D0H.6 SFRSYM    DATA     BIT       AC
      000000E8H   SFRSYM    DATA     BYTE      P4
      000000B0H.5 SFRSYM    DATA     BIT       T1
      000000E6H   SFRSYM    DATA     BYTE      ISP_TRIG
      00000090H.0 SFRSYM    DATA     BIT       T2
      000000A8H.7 SFRSYM    DATA     BIT       EA
      000000A8H.6 SFRSYM    DATA     BIT       EC
      00000098H.7 SFRSYM    DATA     BIT       FE
      000000A8H   SFRSYM    DATA     BYTE      IE
      000000C8H.6 SFRSYM    DATA     BIT       EXF2
      000000B0H.7 SFRSYM    DATA     BIT       RD
      000000A8H.4 SFRSYM    DATA     BIT       ES
      000000B8H   SFRSYM    DATA     BYTE      IP
      00000098H.0 SFRSYM    DATA     BIT       RI
      000000B0H.2 SFRSYM    DATA     BIT       INT0
LX51 LINKER/LOCATER V4.66.87.0                                                        05/30/2018  19:50:23  PAGE 100


      000000D0H.7 SFRSYM    DATA     BIT       CY
      00000098H.1 SFRSYM    DATA     BIT       TI
      000000B0H.3 SFRSYM    DATA     BIT       INT1
      000000CBH   SFRSYM    DATA     BYTE      RCAP2H
      000000E5H   SFRSYM    DATA     BYTE      ISP_CMD
      000000B8H.4 SFRSYM    DATA     BIT       PS
      00000081H   SFRSYM    DATA     BYTE      SP
      00000090H.1 SFRSYM    DATA     BIT       T2EX
      000000D0H.2 SFRSYM    DATA     BIT       OV
      000000CAH   SFRSYM    DATA     BYTE      RCAP2L
      000000C8H.1 SFRSYM    DATA     BIT       C_T2
      000000B0H.6 SFRSYM    DATA     BIT       WR
      000000A0H.6 SFRSYM    DATA     BIT       MOD_KEY
      000000C8H.5 SFRSYM    DATA     BIT       RCLK
      000000C8H.4 SFRSYM    DATA     BIT       TCLK
      00000080H.0 SFRSYM    DATA     BIT       P00
      00000099H   SFRSYM    DATA     BYTE      SBUF
      00000087H   SFRSYM    DATA     BYTE      PCON
      00000090H.0 SFRSYM    DATA     BIT       P10
      00000080H.1 SFRSYM    DATA     BIT       P01
      000000A0H.0 SFRSYM    DATA     BIT       P20
      00000090H.1 SFRSYM    DATA     BIT       P11
      00000080H.2 SFRSYM    DATA     BIT       P02
      000000E3H   SFRSYM    DATA     BYTE      ISP_ADDRH
      000000B0H.0 SFRSYM    DATA     BIT       P30
      000000A0H.1 SFRSYM    DATA     BIT       P21
      00000090H.2 SFRSYM    DATA     BIT       P12
      00000080H.3 SFRSYM    DATA     BIT       P03
      00000098H   SFRSYM    DATA     BYTE      SCON
      000000B0H.1 SFRSYM    DATA     BIT       P31
      000000A0H.2 SFRSYM    DATA     BIT       P22
      00000090H.3 SFRSYM    DATA     BIT       P13
      00000080H.4 SFRSYM    DATA     BIT       P04
      000000E8H.0 SFRSYM    DATA     BIT       P40
      00000089H   SFRSYM    DATA     BYTE      TMOD
      00000088H   SFRSYM    DATA     BYTE      TCON
      000000B0H.2 SFRSYM    DATA     BIT       P32
      000000A0H.3 SFRSYM    DATA     BIT       P23
      00000090H.4 SFRSYM    DATA     BIT       P14
      00000080H.5 SFRSYM    DATA     BIT       P05
      000000E8H.1 SFRSYM    DATA     BIT       P41
      000000B0H.3 SFRSYM    DATA     BIT       P33
      000000A0H.4 SFRSYM    DATA     BIT       P24
      00000090H.5 SFRSYM    DATA     BIT       P15
      00000080H.6 SFRSYM    DATA     BIT       P06
      000000E4H   SFRSYM    DATA     BYTE      ISP_ADDRL
      000000E8H.2 SFRSYM    DATA     BIT       P42
      000000A0H.7 SFRSYM    DATA     BIT       SET_KEY
      000000B0H.4 SFRSYM    DATA     BIT       P34
      000000A0H.5 SFRSYM    DATA     BIT       P25
      00000090H.6 SFRSYM    DATA     BIT       P16
      00000080H.7 SFRSYM    DATA     BIT       P07
      000000E8H.3 SFRSYM    DATA     BIT       P43
      000000B0H.5 SFRSYM    DATA     BIT       P35
      000000A0H.6 SFRSYM    DATA     BIT       P26
      00000090H.7 SFRSYM    DATA     BIT       P17
      000000E8H.4 SFRSYM    DATA     BIT       P44
      000000B0H.6 SFRSYM    DATA     BIT       P36
      000000A0H.7 SFRSYM    DATA     BIT       P27
      000000E8H.5 SFRSYM    DATA     BIT       P45
      000000B0H.7 SFRSYM    DATA     BIT       P37
      000000E8H.6 SFRSYM    DATA     BIT       P46
      00000088H.1 SFRSYM    DATA     BIT       IE0
      00000088H.3 SFRSYM    DATA     BIT       IE1
      0000008EH   SFRSYM    DATA     BYTE      AUXR
LX51 LINKER/LOCATER V4.66.87.0                                                        05/30/2018  19:50:23  PAGE 101


      000000F0H   SFRSYM    DATA     BYTE      B
      000000C8H.0 SFRSYM    DATA     BIT       CP_RL2
      000000E0H   SFRSYM    DATA     BYTE      ACC
      000000A8H.1 SFRSYM    DATA     BIT       ET0
      000000A8H.3 SFRSYM    DATA     BIT       ET1
      00000088H.5 SFRSYM    DATA     BIT       TF0
      000000A8H.5 SFRSYM    DATA     BIT       ET2
      00000088H.7 SFRSYM    DATA     BIT       TF1
      000000C8H.7 SFRSYM    DATA     BIT       TF2
      00000098H.2 SFRSYM    DATA     BIT       RB8
      0000008CH   SFRSYM    DATA     BYTE      TH0
      000000A8H.0 SFRSYM    DATA     BIT       EX0
      00000088H.0 SFRSYM    DATA     BIT       IT0
      0000008DH   SFRSYM    DATA     BYTE      TH1
      00000098H.3 SFRSYM    DATA     BIT       TB8
      000000A8H.2 SFRSYM    DATA     BIT       EX1
      00000088H.2 SFRSYM    DATA     BIT       IT1
      000000CDH   SFRSYM    DATA     BYTE      TH2
      000000D0H.0 SFRSYM    DATA     BIT       P
      00000098H.7 SFRSYM    DATA     BIT       SM0
      0000008AH   SFRSYM    DATA     BYTE      TL0
      00000098H.6 SFRSYM    DATA     BIT       SM1
      0000008BH   SFRSYM    DATA     BYTE      TL1
      00000098H.5 SFRSYM    DATA     BIT       SM2
      000000CCH   SFRSYM    DATA     BYTE      TL2
      000000B8H.1 SFRSYM    DATA     BIT       PT0
      000000B8H.3 SFRSYM    DATA     BIT       PT1
      000000D0H.3 SFRSYM    DATA     BIT       RS0
      000000E7H   SFRSYM    DATA     BYTE      ISP_CONTR
      000000B8H.5 SFRSYM    DATA     BIT       PT2
      00000088H.4 SFRSYM    DATA     BIT       TR0
      000000D0H.4 SFRSYM    DATA     BIT       RS1
      00000088H.6 SFRSYM    DATA     BIT       TR1
      000000C8H.2 SFRSYM    DATA     BIT       TR2
      000000B8H.0 SFRSYM    DATA     BIT       PX0
      000000E1H   SFRSYM    DATA     BYTE      WDT_CONTR
      000000B8H.2 SFRSYM    DATA     BIT       PX1
      00000083H   SFRSYM    DATA     BYTE      DPH
      00000082H   SFRSYM    DATA     BYTE      DPL
      000000B7H   SFRSYM    DATA     BYTE      IPH
      000000C8H.3 SFRSYM    DATA     BIT       EXEN2
      00000098H.4 SFRSYM    DATA     BIT       REN
      000000C9H   SFRSYM    DATA     BYTE      T2MOD
      000000C8H   SFRSYM    DATA     BYTE      T2CON
      000000E2H   SFRSYM    DATA     BYTE      ISP_DATA
      000000B9H   SFRSYM    DATA     BYTE      SADEN
      000000B0H.0 SFRSYM    DATA     BIT       RXD
      000000A9H   SFRSYM    DATA     BYTE      SADDR
      000000B0H.1 SFRSYM    DATA     BIT       TXD
      000000A2H   SFRSYM    DATA     BYTE      AUXR1
      000000D0H.5 SFRSYM    DATA     BIT       F0
      000000D0H   SFRSYM    DATA     BYTE      PSW
      020000DEH   SYMBOL    XDATA    BYTE      last_mod_tmr_count
      020000DFH   SYMBOL    XDATA    BYTE      last_set_tmr_count
      01006E55H   SYMBOL    CODE     ---       int0_ISR
      00000023H.5 SYMBOL    BIT      BIT       mod_press
      00000023H.6 SYMBOL    BIT      BIT       set_press

      010086D9H   BLOCK     CODE     ---       LVL=0
      ---         BLOCKEND  ---      ---       LVL=0

      01006E55H   BLOCK     CODE     ---       LVL=0
      01006E55H   LINE      CODE     ---       #26
      01006E67H   LINE      CODE     ---       #28
      01006E69H   LINE      CODE     ---       #29
LX51 LINKER/LOCATER V4.66.87.0                                                        05/30/2018  19:50:23  PAGE 102


      01006E6EH   LINE      CODE     ---       #30
      01006E71H   LINE      CODE     ---       #31
      01006E74H   LINE      CODE     ---       #32
      01006E74H   LINE      CODE     ---       #33
      01006E77H   LINE      CODE     ---       #35
      ---         BLOCKEND  ---      ---       LVL=0

      01002A62H   BLOCK     CODE     ---       LVL=0
      02000000H   SYMBOL    XDATA    BYTE      ev
      01002A62H   LINE      CODE     ---       #37
      01002A62H   LINE      CODE     ---       #38
      01002A62H   LINE      CODE     ---       #39
      01002A62H   LINE      CODE     ---       #40
      01002A68H   LINE      CODE     ---       #41
      01002A6DH   LINE      CODE     ---       #42
      01002A70H   LINE      CODE     ---       #43
      01002A76H   LINE      CODE     ---       #44
      01002A78H   LINE      CODE     ---       #45
      01002A80H   LINE      CODE     ---       #46
      01002A80H   LINE      CODE     ---       #47
      01002A88H   LINE      CODE     ---       #48
      01002A8FH   LINE      CODE     ---       #49
      01002A97H   LINE      CODE     ---       #50
      01002A97H   LINE      CODE     ---       #51
      01002A9DH   LINE      CODE     ---       #52
      01002AA3H   LINE      CODE     ---       #53
      01002AA5H   LINE      CODE     ---       #54
      01002AACH   LINE      CODE     ---       #55
      01002AB2H   LINE      CODE     ---       #56
      01002AB5H   LINE      CODE     ---       #57
      01002ABDH   LINE      CODE     ---       #58
      01002ABDH   LINE      CODE     ---       #59
      01002ABDH   LINE      CODE     ---       #60
      01002ABDH   LINE      CODE     ---       #62
      01002AC3H   LINE      CODE     ---       #63
      01002AC8H   LINE      CODE     ---       #64
      01002ACBH   LINE      CODE     ---       #65
      01002AD1H   LINE      CODE     ---       #66
      01002AD3H   LINE      CODE     ---       #67
      01002ADBH   LINE      CODE     ---       #68
      01002ADBH   LINE      CODE     ---       #69
      01002AE3H   LINE      CODE     ---       #70
      01002AEAH   LINE      CODE     ---       #71
      01002AF5H   LINE      CODE     ---       #72
      01002AF5H   LINE      CODE     ---       #73
      01002AFBH   LINE      CODE     ---       #74
      01002B04H   LINE      CODE     ---       #75
      01002B0BH   LINE      CODE     ---       #76
      01002B0EH   LINE      CODE     ---       #77
      01002B11H   LINE      CODE     ---       #78
      01002B19H   LINE      CODE     ---       #79
      01002B19H   LINE      CODE     ---       #80
      01002B19H   LINE      CODE     ---       #81
      01002B1BH   LINE      CODE     ---       #82
      01002B1BH   LINE      CODE     ---       #84
      01002B27H   LINE      CODE     ---       #85
      01002B27H   LINE      CODE     ---       #87
      01002B44H   LINE      CODE     ---       #88
      01002B4DH   LINE      CODE     ---       #89
      01002B4DH   LINE      CODE     ---       #90
      01002B4DH   LINE      CODE     ---       #91
      ---         BLOCKEND  ---      ---       LVL=0

      01006033H   BLOCK     CODE     ---       LVL=0
      0200000CH   SYMBOL    XDATA    BYTE      ev
LX51 LINKER/LOCATER V4.66.87.0                                                        05/30/2018  19:50:23  PAGE 103


      01006033H   LINE      CODE     ---       #93
      01006038H   LINE      CODE     ---       #94
      01006038H   LINE      CODE     ---       #95
      01006042H   LINE      CODE     ---       #97
      01006054H   LINE      CODE     ---       #98
      01006054H   LINE      CODE     ---       #99
      0100605DH   LINE      CODE     ---       #100
      01006060H   LINE      CODE     ---       #101
      01006062H   LINE      CODE     ---       #102
      01006062H   LINE      CODE     ---       #103
      01006068H   LINE      CODE     ---       #104
      0100606AH   LINE      CODE     ---       #105
      0100606AH   LINE      CODE     ---       #106
      01006070H   LINE      CODE     ---       #107
      01006072H   LINE      CODE     ---       #108
      01006072H   LINE      CODE     ---       #109
      0100607BH   LINE      CODE     ---       #110
      0100607BH   LINE      CODE     ---       #111
      0100607BH   LINE      CODE     ---       #113
      ---         BLOCKEND  ---      ---       LVL=0

      01006083H   BLOCK     CODE     ---       LVL=0
      0200000CH   SYMBOL    XDATA    BYTE      ev
      01006083H   LINE      CODE     ---       #117
      01006088H   LINE      CODE     ---       #118
      01006088H   LINE      CODE     ---       #119
      01006092H   LINE      CODE     ---       #121
      010060A4H   LINE      CODE     ---       #122
      010060A4H   LINE      CODE     ---       #123
      010060ADH   LINE      CODE     ---       #124
      010060B0H   LINE      CODE     ---       #125
      010060B2H   LINE      CODE     ---       #126
      010060B2H   LINE      CODE     ---       #127
      010060B8H   LINE      CODE     ---       #128
      010060BAH   LINE      CODE     ---       #129
      010060BAH   LINE      CODE     ---       #130
      010060C0H   LINE      CODE     ---       #131
      010060C2H   LINE      CODE     ---       #132
      010060C2H   LINE      CODE     ---       #133
      010060CBH   LINE      CODE     ---       #134
      010060CBH   LINE      CODE     ---       #135
      010060CBH   LINE      CODE     ---       #137
      ---         BLOCKEND  ---      ---       LVL=0

      01006C4AH   BLOCK     CODE     ---       LVL=0
      0200000CH   SYMBOL    XDATA    BYTE      ev
      01006C4AH   LINE      CODE     ---       #140
      01006C4FH   LINE      CODE     ---       #141
      01006C4FH   LINE      CODE     ---       #142
      01006C5CH   LINE      CODE     ---       #144
      01006C67H   LINE      CODE     ---       #145
      01006C67H   LINE      CODE     ---       #146
      01006C6DH   LINE      CODE     ---       #147
      01006C6FH   LINE      CODE     ---       #148
      01006C6FH   LINE      CODE     ---       #149
      01006C78H   LINE      CODE     ---       #150
      01006C78H   LINE      CODE     ---       #151
      01006C78H   LINE      CODE     ---       #153
      ---         BLOCKEND  ---      ---       LVL=0

      01008033H   BLOCK     CODE     ---       LVL=0
      01008033H   LINE      CODE     ---       #156
      01008033H   LINE      CODE     ---       #157
      01008033H   LINE      CODE     ---       #158
      0100803CH   LINE      CODE     ---       #160
LX51 LINKER/LOCATER V4.66.87.0                                                        05/30/2018  19:50:23  PAGE 104


      01008041H   LINE      CODE     ---       #161
      01008043H   LINE      CODE     ---       #163
      01008045H   LINE      CODE     ---       #164
      01008047H   LINE      CODE     ---       #166
      01008049H   LINE      CODE     ---       #167
      0100804BH   LINE      CODE     ---       #168
      ---         BLOCKEND  ---      ---       LVL=0

      01008AE2H   BLOCK     CODE     ---       LVL=0
      01008AE2H   LINE      CODE     ---       #170
      01008AE2H   LINE      CODE     ---       #171
      01008AE2H   LINE      CODE     ---       #172
      ---         BLOCKEND  ---      ---       LVL=0

      01008AEBH   BLOCK     CODE     ---       LVL=0
      01008AEBH   LINE      CODE     ---       #175
      01008AEBH   LINE      CODE     ---       #176
      01008AEBH   LINE      CODE     ---       #177
      ---         BLOCKEND  ---      ---       LVL=0

      ---         MODULE    ---      ---       TASK
      00000050H   PUBLIC    IDATA    WORD      ev_bits1
      0000004EH   PUBLIC    IDATA    WORD      ev_bits0
      0100B572H   PUBLIC    CONST    ---       task_name
      01004BD9H   PUBLIC    CODE     ---       task_dump
      01003DE3H   PUBLIC    CODE     ---       run_task
      01008481H   PUBLIC    CODE     ---       task_initialize
      0100B5C6H   SYMBOL    CONST    ---       task_procs

      010087D7H   BLOCK     CODE     ---       LVL=0
      ---         BLOCKEND  ---      ---       LVL=0

      01008481H   BLOCK     CODE     ---       LVL=0
      01008481H   LINE      CODE     ---       #143
      01008481H   LINE      CODE     ---       #144
      01008481H   LINE      CODE     ---       #145
      0100848AH   LINE      CODE     ---       #146
      01008490H   LINE      CODE     ---       #147
      01008494H   LINE      CODE     ---       #148
      ---         BLOCKEND  ---      ---       LVL=0

      01003DE3H   BLOCK     CODE     ---       LVL=0
      01003DE3H   BLOCK     CODE     NEAR LAB  LVL=1
      02000000H   SYMBOL    XDATA    BYTE      c
      ---         BLOCKEND  ---      ---       LVL=1
      01003DE3H   LINE      CODE     ---       #150
      01003DE3H   LINE      CODE     ---       #151
      01003DE3H   LINE      CODE     ---       #154
      01003DECH   LINE      CODE     ---       #155
      01003DFAH   LINE      CODE     ---       #156
      01003E2CH   LINE      CODE     ---       #157
      01003E62H   LINE      CODE     ---       #158
      01003E80H   LINE      CODE     ---       #159
      01003E80H   LINE      CODE     ---       #160
      01003E89H   LINE      CODE     ---       #161
      01003E89H   LINE      CODE     ---       #163
      ---         BLOCKEND  ---      ---       LVL=0

      01004BD9H   BLOCK     CODE     ---       LVL=0
      01004BD9H   BLOCK     CODE     NEAR LAB  LVL=1
      0200000BH   SYMBOL    XDATA    BYTE      i
      ---         BLOCKEND  ---      ---       LVL=1
      01004BD9H   LINE      CODE     ---       #165
      01004BD9H   LINE      CODE     ---       #166
      01004BD9H   LINE      CODE     ---       #168
LX51 LINKER/LOCATER V4.66.87.0                                                        05/30/2018  19:50:23  PAGE 105


      01004BE8H   LINE      CODE     ---       #169
      01004C4AH   LINE      CODE     ---       #170
      01004C52H   LINE      CODE     ---       #171
      ---         BLOCKEND  ---      ---       LVL=0

      ---         MODULE    ---      ---       LED
      00000025H.0 PUBLIC    BIT      BIT       led_powersave
      00000038H   PUBLIC    IDATA    ---       led_data
      00000036H   PUBLIC    IDATA    BYTE      led_blink
      020000BDH   PUBLIC    XDATA    ---       saved_led_data
      020000BBH   PUBLIC    XDATA    BYTE      saved_led_blink
      0100D1C0H   PUBLIC    CONST    ---       led_code
      0100761BH   PUBLIC    CODE     ---       led_restore
      010075F5H   PUBLIC    CODE     ---       led_save
      0100838BH   PUBLIC    CODE     ---       led_leave_powersave
      010086FBH   PUBLIC    CODE     ---       led_enter_powersave
      010060D3H   PUBLIC    CODE     ---       _led_set_code
      010087F5H   PUBLIC    CODE     ---       _led_set_dp
      010087E6H   PUBLIC    CODE     ---       _led_clr_dp
      010081CDH   PUBLIC    CODE     ---       _led_clr_blink
      010082F2H   PUBLIC    CODE     ---       _led_set_blink
      010086EAH   PUBLIC    CODE     ---       led_clear
      0100699EH   PUBLIC    CODE     ---       led_initialize
      01005A2EH   PUBLIC    CODE     ---       refresh_led
      00000080H   SFRSYM    DATA     BYTE      P0
      00000090H   SFRSYM    DATA     BYTE      P1
      000000A0H   SFRSYM    DATA     BYTE      P2
      000000B0H   SFRSYM    DATA     BYTE      P3
      000000C0H   SFRSYM    DATA     BYTE      XICON
      000000B0H.4 SFRSYM    DATA     BIT       T0
      000000D0H.6 SFRSYM    DATA     BIT       AC
      000000E8H   SFRSYM    DATA     BYTE      P4
      000000B0H.5 SFRSYM    DATA     BIT       T1
      000000E6H   SFRSYM    DATA     BYTE      ISP_TRIG
      00000090H.0 SFRSYM    DATA     BIT       T2
      000000A8H.7 SFRSYM    DATA     BIT       EA
      000000A8H.6 SFRSYM    DATA     BIT       EC
      00000098H.7 SFRSYM    DATA     BIT       FE
      000000A8H   SFRSYM    DATA     BYTE      IE
      000000C8H.6 SFRSYM    DATA     BIT       EXF2
      000000B0H.7 SFRSYM    DATA     BIT       RD
      000000A8H.4 SFRSYM    DATA     BIT       ES
      000000B8H   SFRSYM    DATA     BYTE      IP
      00000098H.0 SFRSYM    DATA     BIT       RI
      000000B0H.2 SFRSYM    DATA     BIT       INT0
      000000D0H.7 SFRSYM    DATA     BIT       CY
      00000098H.1 SFRSYM    DATA     BIT       TI
      000000B0H.3 SFRSYM    DATA     BIT       INT1
      000000CBH   SFRSYM    DATA     BYTE      RCAP2H
      000000E5H   SFRSYM    DATA     BYTE      ISP_CMD
      000000B8H.4 SFRSYM    DATA     BIT       PS
      00000081H   SFRSYM    DATA     BYTE      SP
      00000090H.1 SFRSYM    DATA     BIT       T2EX
      000000D0H.2 SFRSYM    DATA     BIT       OV
      000000CAH   SFRSYM    DATA     BYTE      RCAP2L
      000000C8H.1 SFRSYM    DATA     BIT       C_T2
      000000B0H.6 SFRSYM    DATA     BIT       WR
      000000C8H.5 SFRSYM    DATA     BIT       RCLK
      000000C8H.4 SFRSYM    DATA     BIT       TCLK
      00000080H.0 SFRSYM    DATA     BIT       P00
      00000099H   SFRSYM    DATA     BYTE      SBUF
      00000087H   SFRSYM    DATA     BYTE      PCON
      00000090H.0 SFRSYM    DATA     BIT       P10
      00000080H.1 SFRSYM    DATA     BIT       P01
      000000A0H.0 SFRSYM    DATA     BIT       P20
LX51 LINKER/LOCATER V4.66.87.0                                                        05/30/2018  19:50:23  PAGE 106


      00000090H.1 SFRSYM    DATA     BIT       P11
      00000080H.2 SFRSYM    DATA     BIT       P02
      000000E3H   SFRSYM    DATA     BYTE      ISP_ADDRH
      000000B0H.0 SFRSYM    DATA     BIT       P30
      000000A0H.1 SFRSYM    DATA     BIT       P21
      00000090H.2 SFRSYM    DATA     BIT       P12
      00000080H.3 SFRSYM    DATA     BIT       P03
      00000098H   SFRSYM    DATA     BYTE      SCON
      000000B0H.1 SFRSYM    DATA     BIT       P31
      000000A0H.2 SFRSYM    DATA     BIT       P22
      00000090H.3 SFRSYM    DATA     BIT       P13
      00000080H.4 SFRSYM    DATA     BIT       P04
      000000E8H.0 SFRSYM    DATA     BIT       P40
      00000089H   SFRSYM    DATA     BYTE      TMOD
      00000088H   SFRSYM    DATA     BYTE      TCON
      000000B0H.2 SFRSYM    DATA     BIT       P32
      000000A0H.3 SFRSYM    DATA     BIT       P23
      00000090H.4 SFRSYM    DATA     BIT       P14
      00000080H.5 SFRSYM    DATA     BIT       P05
      000000E8H.1 SFRSYM    DATA     BIT       P41
      000000B0H.3 SFRSYM    DATA     BIT       P33
      000000A0H.4 SFRSYM    DATA     BIT       P24
      00000090H.5 SFRSYM    DATA     BIT       P15
      00000080H.6 SFRSYM    DATA     BIT       P06
      000000E4H   SFRSYM    DATA     BYTE      ISP_ADDRL
      000000E8H.2 SFRSYM    DATA     BIT       P42
      000000B0H.4 SFRSYM    DATA     BIT       P34
      000000A0H.5 SFRSYM    DATA     BIT       P25
      00000090H.6 SFRSYM    DATA     BIT       P16
      00000080H.7 SFRSYM    DATA     BIT       P07
      000000E8H.3 SFRSYM    DATA     BIT       P43
      000000B0H.5 SFRSYM    DATA     BIT       P35
      000000A0H.6 SFRSYM    DATA     BIT       P26
      00000090H.7 SFRSYM    DATA     BIT       P17
      000000E8H.4 SFRSYM    DATA     BIT       P44
      000000B0H.6 SFRSYM    DATA     BIT       P36
      000000A0H.7 SFRSYM    DATA     BIT       P27
      000000E8H.5 SFRSYM    DATA     BIT       P45
      000000B0H.7 SFRSYM    DATA     BIT       P37
      000000E8H.6 SFRSYM    DATA     BIT       P46
      00000088H.1 SFRSYM    DATA     BIT       IE0
      00000088H.3 SFRSYM    DATA     BIT       IE1
      0000008EH   SFRSYM    DATA     BYTE      AUXR
      000000F0H   SFRSYM    DATA     BYTE      B
      000000C8H.0 SFRSYM    DATA     BIT       CP_RL2
      000000E0H   SFRSYM    DATA     BYTE      ACC
      000000A8H.1 SFRSYM    DATA     BIT       ET0
      000000A8H.3 SFRSYM    DATA     BIT       ET1
      00000088H.5 SFRSYM    DATA     BIT       TF0
      000000A8H.5 SFRSYM    DATA     BIT       ET2
      00000088H.7 SFRSYM    DATA     BIT       TF1
      000000C8H.7 SFRSYM    DATA     BIT       TF2
      00000098H.2 SFRSYM    DATA     BIT       RB8
      0000008CH   SFRSYM    DATA     BYTE      TH0
      000000A8H.0 SFRSYM    DATA     BIT       EX0
      00000088H.0 SFRSYM    DATA     BIT       IT0
      0000008DH   SFRSYM    DATA     BYTE      TH1
      00000098H.3 SFRSYM    DATA     BIT       TB8
      000000A8H.2 SFRSYM    DATA     BIT       EX1
      00000088H.2 SFRSYM    DATA     BIT       IT1
      000000CDH   SFRSYM    DATA     BYTE      TH2
      000000D0H.0 SFRSYM    DATA     BIT       P
      00000098H.7 SFRSYM    DATA     BIT       SM0
      0000008AH   SFRSYM    DATA     BYTE      TL0
      00000098H.6 SFRSYM    DATA     BIT       SM1
LX51 LINKER/LOCATER V4.66.87.0                                                        05/30/2018  19:50:23  PAGE 107


      0000008BH   SFRSYM    DATA     BYTE      TL1
      00000098H.5 SFRSYM    DATA     BIT       SM2
      000000CCH   SFRSYM    DATA     BYTE      TL2
      000000B8H.1 SFRSYM    DATA     BIT       PT0
      000000B8H.3 SFRSYM    DATA     BIT       PT1
      000000D0H.3 SFRSYM    DATA     BIT       RS0
      000000E7H   SFRSYM    DATA     BYTE      ISP_CONTR
      000000B8H.5 SFRSYM    DATA     BIT       PT2
      00000088H.4 SFRSYM    DATA     BIT       TR0
      000000D0H.4 SFRSYM    DATA     BIT       RS1
      00000088H.6 SFRSYM    DATA     BIT       TR1
      000000C8H.2 SFRSYM    DATA     BIT       TR2
      000000B8H.0 SFRSYM    DATA     BIT       PX0
      000000E1H   SFRSYM    DATA     BYTE      WDT_CONTR
      000000B8H.2 SFRSYM    DATA     BIT       PX1
      00000083H   SFRSYM    DATA     BYTE      DPH
      00000082H   SFRSYM    DATA     BYTE      DPL
      000000B7H   SFRSYM    DATA     BYTE      IPH
      000000C8H.3 SFRSYM    DATA     BIT       EXEN2
      00000098H.4 SFRSYM    DATA     BIT       REN
      000000C9H   SFRSYM    DATA     BYTE      T2MOD
      000000C8H   SFRSYM    DATA     BYTE      T2CON
      000000E2H   SFRSYM    DATA     BYTE      ISP_DATA
      000000B9H   SFRSYM    DATA     BYTE      SADEN
      000000B0H.0 SFRSYM    DATA     BIT       RXD
      000000A9H   SFRSYM    DATA     BYTE      SADDR
      000000B0H.1 SFRSYM    DATA     BIT       TXD
      000000A2H   SFRSYM    DATA     BYTE      AUXR1
      000000D0H.5 SFRSYM    DATA     BIT       F0
      000000D0H   SFRSYM    DATA     BYTE      PSW
      020000BCH   SYMBOL    XDATA    BYTE      saved_led_index
      00000037H   SYMBOL    IDATA    BYTE      led_index
      0100D1EFH   SYMBOL    CONST    ---       led_scan
      020000C3H   SYMBOL    XDATA    BYTE      saved_scan_loop_cnt
      0000003EH   SYMBOL    IDATA    BYTE      scan_loop_cnt

      01007BE8H   BLOCK     CODE     ---       LVL=0
      ---         BLOCKEND  ---      ---       LVL=0

      01005A2EH   BLOCK     CODE     ---       LVL=0
      01005A2EH   LINE      CODE     ---       #94
      01005A2EH   LINE      CODE     ---       #95
      01005A2EH   LINE      CODE     ---       #96
      01005A31H   LINE      CODE     ---       #98
      01005A34H   LINE      CODE     ---       #100
      01005A52H   LINE      CODE     ---       #101
      01005A5AH   LINE      CODE     ---       #102
      01005A65H   LINE      CODE     ---       #103
      01005A67H   LINE      CODE     ---       #107
      01005A70H   LINE      CODE     ---       #108
      01005A70H   LINE      CODE     ---       #110
      01005A79H   LINE      CODE     ---       #112
      01005A7AH   LINE      CODE     ---       #113
      01005A7EH   LINE      CODE     ---       #114
      01005A80H   LINE      CODE     ---       #115
      01005A87H   LINE      CODE     ---       #116
      01005A87H   LINE      CODE     ---       #117
      ---         BLOCKEND  ---      ---       LVL=0

      0100699EH   BLOCK     CODE     ---       LVL=0
      0100699EH   BLOCK     CODE     NEAR LAB  LVL=1
      00000004H   SYMBOL    DATA     BYTE      i
      00000002H   SYMBOL    DATA     BYTE      j
      ---         BLOCKEND  ---      ---       LVL=1
      0100699EH   LINE      CODE     ---       #120
LX51 LINKER/LOCATER V4.66.87.0                                                        05/30/2018  19:50:23  PAGE 108


      0100699EH   LINE      CODE     ---       #121
      0100699EH   LINE      CODE     ---       #123
      010069A7H   LINE      CODE     ---       #125
      010069A9H   LINE      CODE     ---       #126
      010069A9H   LINE      CODE     ---       #127
      010069A9H   LINE      CODE     ---       #128
      010069A9H   LINE      CODE     ---       #129
      010069A9H   LINE      CODE     ---       #131
      010069A9H   LINE      CODE     ---       #132
      010069ACH   LINE      CODE     ---       #134
      010069AEH   LINE      CODE     ---       #135
      010069B6H   LINE      CODE     ---       #136
      010069B8H   LINE      CODE     ---       #137
      010069BAH   LINE      CODE     ---       #138
      010069BCH   LINE      CODE     ---       #139
      010069BEH   LINE      CODE     ---       #140
      010069C0H   LINE      CODE     ---       #141
      010069C2H   LINE      CODE     ---       #142
      010069C5H   LINE      CODE     ---       #143
      010069CAH   LINE      CODE     ---       #144
      010069CFH   LINE      CODE     ---       #145
      010069D4H   LINE      CODE     ---       #147
      010069D4H   LINE      CODE     ---       #148
      010069D4H   LINE      CODE     ---       #149
      010069D4H   LINE      CODE     ---       #150
      010069D4H   LINE      CODE     ---       #152
      010069D4H   LINE      CODE     ---       #153
      010069D7H   LINE      CODE     ---       #154
      ---         BLOCKEND  ---      ---       LVL=0

      010086EAH   BLOCK     CODE     ---       LVL=0
      010086EAH   LINE      CODE     ---       #156
      010086EAH   LINE      CODE     ---       #157
      010086EAH   LINE      CODE     ---       #158
      010086EEH   LINE      CODE     ---       #159
      ---         BLOCKEND  ---      ---       LVL=0

      010082F2H   BLOCK     CODE     ---       LVL=0
      00000007H   SYMBOL    DATA     BYTE      i
      010082F2H   LINE      CODE     ---       #162
      010082F2H   LINE      CODE     ---       #163
      010082F2H   LINE      CODE     ---       #164
      010082F8H   LINE      CODE     ---       #165
      01008307H   LINE      CODE     ---       #166
      01008307H   LINE      CODE     ---       #167
      ---         BLOCKEND  ---      ---       LVL=0

      010081CDH   BLOCK     CODE     ---       LVL=0
      00000007H   SYMBOL    DATA     BYTE      i
      010081CDH   LINE      CODE     ---       #169
      010081CDH   LINE      CODE     ---       #170
      010081CDH   LINE      CODE     ---       #171
      010081D3H   LINE      CODE     ---       #172
      010081E3H   LINE      CODE     ---       #173
      010081E3H   LINE      CODE     ---       #174
      ---         BLOCKEND  ---      ---       LVL=0

      010087E6H   BLOCK     CODE     ---       LVL=0
      00000007H   SYMBOL    DATA     BYTE      i
      010087E6H   LINE      CODE     ---       #176
      010087E6H   LINE      CODE     ---       #177
      010087E6H   LINE      CODE     ---       #178
      010087ECH   LINE      CODE     ---       #179
      010087F4H   LINE      CODE     ---       #180
      010087F4H   LINE      CODE     ---       #181
LX51 LINKER/LOCATER V4.66.87.0                                                        05/30/2018  19:50:23  PAGE 109


      ---         BLOCKEND  ---      ---       LVL=0

      010087F5H   BLOCK     CODE     ---       LVL=0
      00000007H   SYMBOL    DATA     BYTE      i
      010087F5H   LINE      CODE     ---       #183
      010087F5H   LINE      CODE     ---       #184
      010087F5H   LINE      CODE     ---       #185
      010087FBH   LINE      CODE     ---       #186
      01008803H   LINE      CODE     ---       #187
      01008803H   LINE      CODE     ---       #188
      ---         BLOCKEND  ---      ---       LVL=0

      010060D3H   BLOCK     CODE     ---       LVL=0
      00000007H   SYMBOL    DATA     BYTE      i
      00000005H   SYMBOL    DATA     CHAR      c
      010060D3H   LINE      CODE     ---       #192
      010060D3H   LINE      CODE     ---       #193
      010060D3H   LINE      CODE     ---       #194
      010060D9H   LINE      CODE     ---       #195
      010060E1H   LINE      CODE     ---       #196
      010060E4H   LINE      CODE     ---       #197
      010060EFH   LINE      CODE     ---       #198
      010060F0H   LINE      CODE     ---       #199
      01006100H   LINE      CODE     ---       #200
      01006119H   LINE      CODE     ---       #201
      0100611AH   LINE      CODE     ---       #202
      01006122H   LINE      CODE     ---       #203
      01006122H   LINE      CODE     ---       #204
      01006122H   LINE      CODE     ---       #205
      ---         BLOCKEND  ---      ---       LVL=0

      010086FBH   BLOCK     CODE     ---       LVL=0
      010086FBH   LINE      CODE     ---       #207
      010086FBH   LINE      CODE     ---       #208
      010086FBH   LINE      CODE     ---       #209
      01008704H   LINE      CODE     ---       #211
      01008706H   LINE      CODE     ---       #213
      01008706H   LINE      CODE     ---       #214
      01008709H   LINE      CODE     ---       #215
      ---         BLOCKEND  ---      ---       LVL=0

      0100838BH   BLOCK     CODE     ---       LVL=0
      0100838BH   LINE      CODE     ---       #218
      0100838BH   LINE      CODE     ---       #219
      0100838BH   LINE      CODE     ---       #220
      01008394H   LINE      CODE     ---       #222
      01008397H   LINE      CODE     ---       #223
      0100839AH   LINE      CODE     ---       #224
      0100839DH   LINE      CODE     ---       #226
      0100839FH   LINE      CODE     ---       #227
      ---         BLOCKEND  ---      ---       LVL=0

      010075F5H   BLOCK     CODE     ---       LVL=0
      010075F5H   LINE      CODE     ---       #229
      010075F5H   LINE      CODE     ---       #230
      010075F5H   LINE      CODE     ---       #231
      01007608H   LINE      CODE     ---       #232
      0100760FH   LINE      CODE     ---       #233
      01007613H   LINE      CODE     ---       #234
      0100761AH   LINE      CODE     ---       #235
      ---         BLOCKEND  ---      ---       LVL=0

      0100761BH   BLOCK     CODE     ---       LVL=0
      0100761BH   LINE      CODE     ---       #237
      0100761BH   LINE      CODE     ---       #238
LX51 LINKER/LOCATER V4.66.87.0                                                        05/30/2018  19:50:23  PAGE 110


      0100761BH   LINE      CODE     ---       #239
      0100762EH   LINE      CODE     ---       #240
      01007635H   LINE      CODE     ---       #241
      01007639H   LINE      CODE     ---       #242
      01007640H   LINE      CODE     ---       #243
      ---         BLOCKEND  ---      ---       LVL=0

      ---         MODULE    ---      ---       ALARM
      01006775H   PUBLIC    CODE     ---       alarm1_sync_to_rtc
      00000020H.0 PUBLIC    BIT      BIT       ?alarm1_set_enable?BIT
      01008C70H   PUBLIC    CODE     ---       alarm1_set_enable
      01008CD2H   PUBLIC    CODE     ---       alarm1_test_enable
      01005F41H   PUBLIC    CODE     ---       alarm0_sync_to_rtc
      0100887AH   PUBLIC    CODE     ---       alarm0_inc_hour
      01008C22H   PUBLIC    CODE     ---       alarm0_get_hour
      0100886CH   PUBLIC    CODE     ---       alarm0_inc_min
      01008C1CH   PUBLIC    CODE     ---       alarm0_get_min
      00000020H.1 PUBLIC    BIT      BIT       ?alarm0_set_hour_12?BIT
      01000026H   PUBLIC    CODE     ---       alarm0_set_hour_12
      01008CCFH   PUBLIC    CODE     ---       alarm0_get_hour_12
      01008C16H   PUBLIC    CODE     ---       alarm0_get_day_mask
      00000020H.0 PUBLIC    BIT      BIT       ?_alarm0_set_enable?BIT
      01005562H   PUBLIC    CODE     ---       _alarm0_set_enable
      0100709AH   PUBLIC    CODE     ---       _alarm0_test_enable
      01008B06H   PUBLIC    CODE     ---       alarm_leave_powersave
      01008AFDH   PUBLIC    CODE     ---       alarm_enter_powersave
      01005435H   PUBLIC    CODE     ---       alarm_dump
      0100781DH   PUBLIC    CODE     ---       alarm_switch_off
      010080E0H   PUBLIC    CODE     ---       alarm_switch_on
      01008AF4H   PUBLIC    CODE     ---       alarm_initialize
      01004CCDH   PUBLIC    CODE     ---       scan_alarm
      0100728FH   PUBLIC    CODE     ---       _alarm_proc
      00000023H.7 SYMBOL    BIT      BIT       alarm1_enable
      020000D5H   SYMBOL    XDATA    ---       alarm0
      01006DBCH   SYMBOL    CODE     ---       alarm_load_rom
      01006D20H   SYMBOL    CODE     ---       alarm_save_rom
      00000024H.0 SYMBOL    BIT      BIT       alarm0_is12

      010083A0H   BLOCK     CODE     ---       LVL=0
      ---         BLOCKEND  ---      ---       LVL=0

      0100728FH   BLOCK     CODE     ---       LVL=0
      0200000CH   SYMBOL    XDATA    BYTE      ev
      0100728FH   LINE      CODE     ---       #15
      01007294H   LINE      CODE     ---       #16
      01007294H   LINE      CODE     ---       #18
      01007297H   LINE      CODE     ---       #19
      010072A0H   LINE      CODE     ---       #20
      010072A5H   LINE      CODE     ---       #21
      010072A5H   LINE      CODE     ---       #23
      010072ACH   LINE      CODE     ---       #24
      010072B5H   LINE      CODE     ---       #25
      010072BAH   LINE      CODE     ---       #26
      010072BAH   LINE      CODE     ---       #27
      ---         BLOCKEND  ---      ---       LVL=0

      01004CCDH   BLOCK     CODE     ---       LVL=0
      01004CCDH   BLOCK     CODE     NEAR LAB  LVL=1
      00000020H.0 SYMBOL    BIT      BIT       alarm0_hit
      00000020H.1 SYMBOL    BIT      BIT       alarm1_hit
      ---         BLOCKEND  ---      ---       LVL=1
      01004CCDH   LINE      CODE     ---       #29
      01004CCDH   LINE      CODE     ---       #30
      01004CCDH   LINE      CODE     ---       #33
      01004CD2H   LINE      CODE     ---       #34
LX51 LINKER/LOCATER V4.66.87.0                                                        05/30/2018  19:50:23  PAGE 111


      01004CD9H   LINE      CODE     ---       #35
      01004CDFH   LINE      CODE     ---       #36
      01004CE3H   LINE      CODE     ---       #37
      01004CE7H   LINE      CODE     ---       #38
      01004CECH   LINE      CODE     ---       #40
      01004CEFH   LINE      CODE     ---       #41
      01004D09H   LINE      CODE     ---       #42
      01004D0EH   LINE      CODE     ---       #43
      01004D11H   LINE      CODE     ---       #44
      01004D11H   LINE      CODE     ---       #45
      01004D1AH   LINE      CODE     ---       #46
      01004D1DH   LINE      CODE     ---       #47
      01004D1FH   LINE      CODE     ---       #48
      01004D1FH   LINE      CODE     ---       #49
      01004D1FH   LINE      CODE     ---       #50
      01004D1FH   LINE      CODE     ---       #53
      01004D22H   LINE      CODE     ---       #54
      01004D27H   LINE      CODE     ---       #55
      01004D33H   LINE      CODE     ---       #56
      01004D33H   LINE      CODE     ---       #57
      01004D38H   LINE      CODE     ---       #58
      01004D3BH   LINE      CODE     ---       #59
      01004D3BH   LINE      CODE     ---       #60
      01004D44H   LINE      CODE     ---       #61
      01004D44H   LINE      CODE     ---       #62
      01004D44H   LINE      CODE     ---       #63
      ---         BLOCKEND  ---      ---       LVL=0

      01006DBCH   BLOCK     CODE     ---       LVL=0
      01006DBCH   LINE      CODE     ---       #65
      01006DBCH   LINE      CODE     ---       #66
      01006DBCH   LINE      CODE     ---       #67
      01006DC6H   LINE      CODE     ---       #68
      01006DD0H   LINE      CODE     ---       #69
      01006DDAH   LINE      CODE     ---       #70
      01006DE4H   LINE      CODE     ---       #71
      01006DEEH   LINE      CODE     ---       #72
      ---         BLOCKEND  ---      ---       LVL=0

      01006D20H   BLOCK     CODE     ---       LVL=0
      01006D20H   LINE      CODE     ---       #74
      01006D20H   LINE      CODE     ---       #75
      01006D20H   LINE      CODE     ---       #76
      01006D2AH   LINE      CODE     ---       #77
      01006D34H   LINE      CODE     ---       #78
      01006D3EH   LINE      CODE     ---       #79
      01006D4AH   LINE      CODE     ---       #80
      ---         BLOCKEND  ---      ---       LVL=0

      01008AF4H   BLOCK     CODE     ---       LVL=0
      01008AF4H   LINE      CODE     ---       #83
      01008AF4H   LINE      CODE     ---       #84
      01008AF4H   LINE      CODE     ---       #85
      ---         BLOCKEND  ---      ---       LVL=0

      010080E0H   BLOCK     CODE     ---       LVL=0
      010080E0H   LINE      CODE     ---       #88
      010080E0H   LINE      CODE     ---       #89
      010080E0H   LINE      CODE     ---       #90
      010080E9H   LINE      CODE     ---       #91
      010080ECH   LINE      CODE     ---       #92
      010080EFH   LINE      CODE     ---       #93
      010080F2H   LINE      CODE     ---       #94
      010080F5H   LINE      CODE     ---       #95
      ---         BLOCKEND  ---      ---       LVL=0
LX51 LINKER/LOCATER V4.66.87.0                                                        05/30/2018  19:50:23  PAGE 112



      0100781DH   BLOCK     CODE     ---       LVL=0
      0100781DH   LINE      CODE     ---       #98
      0100781DH   LINE      CODE     ---       #99
      0100781DH   LINE      CODE     ---       #100
      01007826H   LINE      CODE     ---       #101
      0100782BH   LINE      CODE     ---       #102
      01007832H   LINE      CODE     ---       #103
      01007838H   LINE      CODE     ---       #104
      0100783DH   LINE      CODE     ---       #105
      ---         BLOCKEND  ---      ---       LVL=0

      01005435H   BLOCK     CODE     ---       LVL=0
      01005435H   LINE      CODE     ---       #108
      01005435H   LINE      CODE     ---       #109
      01005435H   LINE      CODE     ---       #110
      0100543FH   LINE      CODE     ---       #111
      01005449H   LINE      CODE     ---       #112
      01005453H   LINE      CODE     ---       #113
      01005471H   LINE      CODE     ---       #114
      0100548FH   LINE      CODE     ---       #115
      ---         BLOCKEND  ---      ---       LVL=0

      01008AFDH   BLOCK     CODE     ---       LVL=0
      01008AFDH   LINE      CODE     ---       #117
      01008AFDH   LINE      CODE     ---       #118
      01008AFDH   LINE      CODE     ---       #119
      ---         BLOCKEND  ---      ---       LVL=0

      01008B06H   BLOCK     CODE     ---       LVL=0
      01008B06H   LINE      CODE     ---       #122
      01008B06H   LINE      CODE     ---       #123
      01008B06H   LINE      CODE     ---       #124
      ---         BLOCKEND  ---      ---       LVL=0

      0100709AH   BLOCK     CODE     ---       LVL=0
      02000019H   SYMBOL    XDATA    BYTE      day
      0100709AH   LINE      CODE     ---       #128
      0100709FH   LINE      CODE     ---       #129
      0100709FH   LINE      CODE     ---       #130
      010070ACH   LINE      CODE     ---       #131
      010070C8H   LINE      CODE     ---       #132
      ---         BLOCKEND  ---      ---       LVL=0

      01005562H   BLOCK     CODE     ---       LVL=0
      02000014H   SYMBOL    XDATA    BYTE      day
      00000020H.0 SYMBOL    BIT      BIT       enable
      01005562H   LINE      CODE     ---       #135
      01005567H   LINE      CODE     ---       #136
      01005567H   LINE      CODE     ---       #137
      01005589H   LINE      CODE     ---       #138
      0100559EH   LINE      CODE     ---       #139
      010055AAH   LINE      CODE     ---       #140
      010055ADH   LINE      CODE     ---       #141
      010055AFH   LINE      CODE     ---       #142
      010055B7H   LINE      CODE     ---       #143
      010055B7H   LINE      CODE     ---       #144
      ---         BLOCKEND  ---      ---       LVL=0

      01008C16H   BLOCK     CODE     ---       LVL=0
      01008C16H   LINE      CODE     ---       #148
      01008C16H   LINE      CODE     ---       #149
      01008C16H   LINE      CODE     ---       #150
      01008C1BH   LINE      CODE     ---       #151
      ---         BLOCKEND  ---      ---       LVL=0
LX51 LINKER/LOCATER V4.66.87.0                                                        05/30/2018  19:50:23  PAGE 113



      01008CCFH   BLOCK     CODE     ---       LVL=0
      01008CCFH   LINE      CODE     ---       #153
      01008CCFH   LINE      CODE     ---       #154
      01008CCFH   LINE      CODE     ---       #155
      01008CD1H   LINE      CODE     ---       #156
      ---         BLOCKEND  ---      ---       LVL=0

      01000026H   BLOCK     CODE     ---       LVL=0
      00000020H.1 SYMBOL    BIT      BIT       enable
      01000026H   LINE      CODE     ---       #158
      01000026H   LINE      CODE     ---       #159
      01000026H   LINE      CODE     ---       #160
      0100002AH   LINE      CODE     ---       #161
      ---         BLOCKEND  ---      ---       LVL=0

      01008C1CH   BLOCK     CODE     ---       LVL=0
      01008C1CH   LINE      CODE     ---       #164
      01008C1CH   LINE      CODE     ---       #165
      01008C1CH   LINE      CODE     ---       #166
      01008C21H   LINE      CODE     ---       #167
      ---         BLOCKEND  ---      ---       LVL=0

      0100886CH   BLOCK     CODE     ---       LVL=0
      0100886CH   LINE      CODE     ---       #169
      0100886CH   LINE      CODE     ---       #170
      0100886CH   LINE      CODE     ---       #171
      01008879H   LINE      CODE     ---       #172
      ---         BLOCKEND  ---      ---       LVL=0

      01008C22H   BLOCK     CODE     ---       LVL=0
      01008C22H   LINE      CODE     ---       #174
      01008C22H   LINE      CODE     ---       #175
      01008C22H   LINE      CODE     ---       #176
      01008C27H   LINE      CODE     ---       #177
      ---         BLOCKEND  ---      ---       LVL=0

      0100887AH   BLOCK     CODE     ---       LVL=0
      0100887AH   LINE      CODE     ---       #179
      0100887AH   LINE      CODE     ---       #180
      0100887AH   LINE      CODE     ---       #181
      01008887H   LINE      CODE     ---       #182
      ---         BLOCKEND  ---      ---       LVL=0

      01005F41H   BLOCK     CODE     ---       LVL=0
      01005F41H   LINE      CODE     ---       #184
      01005F41H   LINE      CODE     ---       #185
      01005F41H   LINE      CODE     ---       #186
      01005F4AH   LINE      CODE     ---       #187
      01005F4FH   LINE      CODE     ---       #188
      01005F54H   LINE      CODE     ---       #189
      01005F5BH   LINE      CODE     ---       #190
      01005F63H   LINE      CODE     ---       #191
      01005F6BH   LINE      CODE     ---       #192
      01005F70H   LINE      CODE     ---       #193
      01005F75H   LINE      CODE     ---       #195
      01005F7AH   LINE      CODE     ---       #196
      01005F89H   LINE      CODE     ---       #197
      01005F8DH   LINE      CODE     ---       #198
      ---         BLOCKEND  ---      ---       LVL=0

      01008CD2H   BLOCK     CODE     ---       LVL=0
      01008CD2H   LINE      CODE     ---       #201
      01008CD2H   LINE      CODE     ---       #202
      01008CD2H   LINE      CODE     ---       #203
LX51 LINKER/LOCATER V4.66.87.0                                                        05/30/2018  19:50:23  PAGE 114


      01008CD4H   LINE      CODE     ---       #204
      ---         BLOCKEND  ---      ---       LVL=0

      01008C70H   BLOCK     CODE     ---       LVL=0
      00000020H.0 SYMBOL    BIT      BIT       enable
      01008C70H   LINE      CODE     ---       #206
      01008C70H   LINE      CODE     ---       #207
      01008C70H   LINE      CODE     ---       #208
      01008C74H   LINE      CODE     ---       #209
      ---         BLOCKEND  ---      ---       LVL=0

      01006775H   BLOCK     CODE     ---       LVL=0
      01006775H   LINE      CODE     ---       #211
      01006775H   LINE      CODE     ---       #212
      01006775H   LINE      CODE     ---       #213
      0100677EH   LINE      CODE     ---       #214
      01006783H   LINE      CODE     ---       #215
      01006788H   LINE      CODE     ---       #216
      0100678FH   LINE      CODE     ---       #217
      01006794H   LINE      CODE     ---       #218
      01006799H   LINE      CODE     ---       #219
      0100679EH   LINE      CODE     ---       #221
      010067A3H   LINE      CODE     ---       #222
      010067ACH   LINE      CODE     ---       #223
      010067AFH   LINE      CODE     ---       #224
      ---         BLOCKEND  ---      ---       LVL=0

      ---         MODULE    ---      ---       POWER
      00000025H.1 PUBLIC    BIT      BIT       powersave_flag
      01008CDEH   PUBLIC    CODE     ---       power_get_volume
      01008CC5H   PUBLIC    CODE     ---       power_5v_get_enable
      00000020H.1 PUBLIC    BIT      BIT       ?power_5v_enable?BIT
      01007EA8H   PUBLIC    CODE     ---       power_5v_enable
      01008B0FH   PUBLIC    CODE     ---       power_reset_powersave_to
      01008CDBH   PUBLIC    CODE     ---       power_clr_flag
      01008CD8H   PUBLIC    CODE     ---       power_set_flag
      01008CD5H   PUBLIC    CODE     ---       power_test_flag
      01006F7CH   PUBLIC    CODE     ---       power_test_powersave_to
      01007721H   PUBLIC    CODE     ---       power_inc_powersave_to
      010081E4H   PUBLIC    CODE     ---       power_get_powersave_to
      01008C28H   PUBLIC    CODE     ---       power_get_powersave_to_s
      01006F4CH   PUBLIC    CODE     ---       power_leave_powersave
      010061BDH   PUBLIC    CODE     ---       power_enter_powersave
      01007F64H   PUBLIC    CODE     ---       _power_proc
      01006DEFH   PUBLIC    CODE     ---       power_initialize
      00000080H   SFRSYM    DATA     BYTE      P0
      00000090H   SFRSYM    DATA     BYTE      P1
      000000A0H   SFRSYM    DATA     BYTE      P2
      000000B0H   SFRSYM    DATA     BYTE      P3
      000000C0H   SFRSYM    DATA     BYTE      XICON
      000000B0H.4 SFRSYM    DATA     BIT       T0
      000000D0H.6 SFRSYM    DATA     BIT       AC
      000000E8H   SFRSYM    DATA     BYTE      P4
      000000B0H.5 SFRSYM    DATA     BIT       T1
      000000E6H   SFRSYM    DATA     BYTE      ISP_TRIG
      00000090H.0 SFRSYM    DATA     BIT       T2
      000000A8H.7 SFRSYM    DATA     BIT       EA
      000000A8H.6 SFRSYM    DATA     BIT       EC
      00000098H.7 SFRSYM    DATA     BIT       FE
      000000A8H   SFRSYM    DATA     BYTE      IE
      000000C8H.6 SFRSYM    DATA     BIT       EXF2
      000000B0H.7 SFRSYM    DATA     BIT       RD
      000000A8H.4 SFRSYM    DATA     BIT       ES
      000000B8H   SFRSYM    DATA     BYTE      IP
      00000098H.0 SFRSYM    DATA     BIT       RI
LX51 LINKER/LOCATER V4.66.87.0                                                        05/30/2018  19:50:23  PAGE 115


      000000B0H.2 SFRSYM    DATA     BIT       INT0
      000000D0H.7 SFRSYM    DATA     BIT       CY
      00000098H.1 SFRSYM    DATA     BIT       TI
      000000B0H.3 SFRSYM    DATA     BIT       INT1
      000000CBH   SFRSYM    DATA     BYTE      RCAP2H
      000000E5H   SFRSYM    DATA     BYTE      ISP_CMD
      000000B8H.4 SFRSYM    DATA     BIT       PS
      00000081H   SFRSYM    DATA     BYTE      SP
      00000090H.1 SFRSYM    DATA     BIT       T2EX
      000000D0H.2 SFRSYM    DATA     BIT       OV
      000000CAH   SFRSYM    DATA     BYTE      RCAP2L
      000000C8H.1 SFRSYM    DATA     BIT       C_T2
      000000B0H.6 SFRSYM    DATA     BIT       WR
      000000C8H.5 SFRSYM    DATA     BIT       RCLK
      000000C8H.4 SFRSYM    DATA     BIT       TCLK
      00000080H.0 SFRSYM    DATA     BIT       P00
      00000099H   SFRSYM    DATA     BYTE      SBUF
      00000087H   SFRSYM    DATA     BYTE      PCON
      00000090H.0 SFRSYM    DATA     BIT       P10
      00000080H.1 SFRSYM    DATA     BIT       P01
      000000A0H.0 SFRSYM    DATA     BIT       P20
      00000090H.1 SFRSYM    DATA     BIT       P11
      00000080H.2 SFRSYM    DATA     BIT       P02
      000000E3H   SFRSYM    DATA     BYTE      ISP_ADDRH
      000000B0H.0 SFRSYM    DATA     BIT       P30
      000000A0H.1 SFRSYM    DATA     BIT       P21
      00000090H.2 SFRSYM    DATA     BIT       P12
      00000080H.3 SFRSYM    DATA     BIT       P03
      00000098H   SFRSYM    DATA     BYTE      SCON
      000000B0H.1 SFRSYM    DATA     BIT       P31
      000000A0H.2 SFRSYM    DATA     BIT       P22
      00000090H.3 SFRSYM    DATA     BIT       P13
      00000080H.4 SFRSYM    DATA     BIT       P04
      000000E8H.0 SFRSYM    DATA     BIT       P40
      00000089H   SFRSYM    DATA     BYTE      TMOD
      00000088H   SFRSYM    DATA     BYTE      TCON
      000000B0H.2 SFRSYM    DATA     BIT       P32
      000000A0H.3 SFRSYM    DATA     BIT       P23
      00000090H.4 SFRSYM    DATA     BIT       P14
      00000080H.5 SFRSYM    DATA     BIT       P05
      000000E8H.1 SFRSYM    DATA     BIT       P41
      000000B0H.3 SFRSYM    DATA     BIT       P33
      000000A0H.4 SFRSYM    DATA     BIT       P24
      00000090H.5 SFRSYM    DATA     BIT       P15
      00000080H.6 SFRSYM    DATA     BIT       P06
      000000E4H   SFRSYM    DATA     BYTE      ISP_ADDRL
      000000E8H.2 SFRSYM    DATA     BIT       P42
      000000B0H.4 SFRSYM    DATA     BIT       P34
      000000A0H.5 SFRSYM    DATA     BIT       P25
      00000090H.6 SFRSYM    DATA     BIT       P16
      00000080H.7 SFRSYM    DATA     BIT       P07
      000000E8H.3 SFRSYM    DATA     BIT       P43
      000000B0H.5 SFRSYM    DATA     BIT       P35
      000000A0H.6 SFRSYM    DATA     BIT       P26
      00000090H.7 SFRSYM    DATA     BIT       P17
      000000E8H.4 SFRSYM    DATA     BIT       P44
      000000B0H.6 SFRSYM    DATA     BIT       P36
      000000A0H.7 SFRSYM    DATA     BIT       P27
      000000E8H.5 SFRSYM    DATA     BIT       P45
      000000B0H.7 SFRSYM    DATA     BIT       P37
      000000E8H.6 SFRSYM    DATA     BIT       P46
      00000088H.1 SFRSYM    DATA     BIT       IE0
      00000088H.3 SFRSYM    DATA     BIT       IE1
      0000008EH   SFRSYM    DATA     BYTE      AUXR
      000000F0H   SFRSYM    DATA     BYTE      B
LX51 LINKER/LOCATER V4.66.87.0                                                        05/30/2018  19:50:23  PAGE 116


      000000C8H.0 SFRSYM    DATA     BIT       CP_RL2
      000000E0H   SFRSYM    DATA     BYTE      ACC
      000000A8H.1 SFRSYM    DATA     BIT       ET0
      000000A8H.3 SFRSYM    DATA     BIT       ET1
      00000088H.5 SFRSYM    DATA     BIT       TF0
      000000A8H.5 SFRSYM    DATA     BIT       ET2
      00000088H.7 SFRSYM    DATA     BIT       TF1
      000000C8H.7 SFRSYM    DATA     BIT       TF2
      00000098H.2 SFRSYM    DATA     BIT       RB8
      0000008CH   SFRSYM    DATA     BYTE      TH0
      000000A8H.0 SFRSYM    DATA     BIT       EX0
      00000088H.0 SFRSYM    DATA     BIT       IT0
      0000008DH   SFRSYM    DATA     BYTE      TH1
      00000098H.3 SFRSYM    DATA     BIT       TB8
      000000A8H.2 SFRSYM    DATA     BIT       EX1
      00000088H.2 SFRSYM    DATA     BIT       IT1
      000000CDH   SFRSYM    DATA     BYTE      TH2
      000000D0H.0 SFRSYM    DATA     BIT       P
      00000098H.7 SFRSYM    DATA     BIT       SM0
      0000008AH   SFRSYM    DATA     BYTE      TL0
      00000098H.6 SFRSYM    DATA     BIT       SM1
      0000008BH   SFRSYM    DATA     BYTE      TL1
      00000098H.5 SFRSYM    DATA     BIT       SM2
      000000CCH   SFRSYM    DATA     BYTE      TL2
      000000B8H.1 SFRSYM    DATA     BIT       PT0
      000000B8H.3 SFRSYM    DATA     BIT       PT1
      000000D0H.3 SFRSYM    DATA     BIT       RS0
      000000E7H   SFRSYM    DATA     BYTE      ISP_CONTR
      000000B8H.5 SFRSYM    DATA     BIT       PT2
      00000088H.4 SFRSYM    DATA     BIT       TR0
      000000D0H.4 SFRSYM    DATA     BIT       RS1
      00000088H.6 SFRSYM    DATA     BIT       TR1
      000000C8H.2 SFRSYM    DATA     BIT       TR2
      000000B8H.0 SFRSYM    DATA     BIT       PX0
      000000E1H   SFRSYM    DATA     BYTE      WDT_CONTR
      000000B8H.2 SFRSYM    DATA     BIT       PX1
      00000083H   SFRSYM    DATA     BYTE      DPH
      00000082H   SFRSYM    DATA     BYTE      DPL
      000000B7H   SFRSYM    DATA     BYTE      IPH
      000000C8H.3 SFRSYM    DATA     BIT       EXEN2
      00000098H.4 SFRSYM    DATA     BIT       REN
      000000C9H   SFRSYM    DATA     BYTE      T2MOD
      000000C8H   SFRSYM    DATA     BYTE      T2CON
      000000E2H   SFRSYM    DATA     BYTE      ISP_DATA
      000000B9H   SFRSYM    DATA     BYTE      SADEN
      000000B0H.6 SFRSYM    DATA     BIT       POWER_5V_EN
      000000B0H.0 SFRSYM    DATA     BIT       RXD
      000000A9H   SFRSYM    DATA     BYTE      SADDR
      000000B0H.1 SFRSYM    DATA     BIT       TXD
      000000A2H   SFRSYM    DATA     BYTE      AUXR1
      000000D0H.5 SFRSYM    DATA     BIT       F0
      000000D0H   SFRSYM    DATA     BYTE      PSW
      020000E0H   SYMBOL    XDATA    BYTE      last_ps_s
      020000E1H   SYMBOL    XDATA    BYTE      powersave_to_s

      01006DEFH   BLOCK     CODE     ---       LVL=0
      01006DEFH   BLOCK     CODE     NEAR LAB  LVL=1
      00000007H   SYMBOL    DATA     BYTE      powersave_to
      ---         BLOCKEND  ---      ---       LVL=1
      01006DEFH   LINE      CODE     ---       #31
      01006DEFH   LINE      CODE     ---       #32
      01006DEFH   LINE      CODE     ---       #34
      01006DF8H   LINE      CODE     ---       #35
      01006DFDH   LINE      CODE     ---       #36
      01006E08H   LINE      CODE     ---       #37
LX51 LINKER/LOCATER V4.66.87.0                                                        05/30/2018  19:50:23  PAGE 117


      01006E0FH   LINE      CODE     ---       #38
      01006E17H   LINE      CODE     ---       #39
      01006E1DH   LINE      CODE     ---       #40
      01006E1DH   LINE      CODE     ---       #41
      01006E1FH   LINE      CODE     ---       #42
      01006E21H   LINE      CODE     ---       #43
      ---         BLOCKEND  ---      ---       LVL=0

      01007F64H   BLOCK     CODE     ---       LVL=0
      0200000CH   SYMBOL    XDATA    BYTE      ev
      01007F64H   LINE      CODE     ---       #45
      01007F69H   LINE      CODE     ---       #46
      01007F69H   LINE      CODE     ---       #47
      01007F76H   LINE      CODE     ---       #48
      ---         BLOCKEND  ---      ---       LVL=0

      010061BDH   BLOCK     CODE     ---       LVL=0
      010061BDH   LINE      CODE     ---       #51
      010061BDH   LINE      CODE     ---       #52
      010061BDH   LINE      CODE     ---       #53
      010061C6H   LINE      CODE     ---       #54
      010061C9H   LINE      CODE     ---       #55
      010061CCH   LINE      CODE     ---       #56
      010061CFH   LINE      CODE     ---       #57
      010061D2H   LINE      CODE     ---       #58
      010061D5H   LINE      CODE     ---       #59
      010061D8H   LINE      CODE     ---       #60
      010061DBH   LINE      CODE     ---       #61
      010061DEH   LINE      CODE     ---       #62
      010061E1H   LINE      CODE     ---       #63
      010061E4H   LINE      CODE     ---       #64
      010061E7H   LINE      CODE     ---       #65
      010061EAH   LINE      CODE     ---       #66
      010061EDH   LINE      CODE     ---       #67
      010061F0H   LINE      CODE     ---       #68
      010061F5H   LINE      CODE     ---       #70
      010061F8H   LINE      CODE     ---       #74
      010061FBH   LINE      CODE     ---       #75
      01006200H   LINE      CODE     ---       #76
      01006203H   LINE      CODE     ---       #77
      01006208H   LINE      CODE     ---       #78
      01006208H   LINE      CODE     ---       #79
      01006208H   LINE      CODE     ---       #80
      01006208H   LINE      CODE     ---       #81
      ---         BLOCKEND  ---      ---       LVL=0

      01006F4CH   BLOCK     CODE     ---       LVL=0
      01006F4CH   LINE      CODE     ---       #83
      01006F4CH   LINE      CODE     ---       #84
      01006F4CH   LINE      CODE     ---       #86
      01006F4FH   LINE      CODE     ---       #87
      01006F52H   LINE      CODE     ---       #88
      01006F55H   LINE      CODE     ---       #89
      01006F58H   LINE      CODE     ---       #90
      01006F5BH   LINE      CODE     ---       #91
      01006F5EH   LINE      CODE     ---       #92
      01006F61H   LINE      CODE     ---       #93
      01006F64H   LINE      CODE     ---       #94
      01006F67H   LINE      CODE     ---       #95
      01006F6AH   LINE      CODE     ---       #96
      01006F6DH   LINE      CODE     ---       #97
      01006F70H   LINE      CODE     ---       #98
      01006F73H   LINE      CODE     ---       #99
      ---         BLOCKEND  ---      ---       LVL=0

LX51 LINKER/LOCATER V4.66.87.0                                                        05/30/2018  19:50:23  PAGE 118


      01008C28H   BLOCK     CODE     ---       LVL=0
      01008C28H   LINE      CODE     ---       #102
      01008C28H   LINE      CODE     ---       #103
      01008C28H   LINE      CODE     ---       #104
      01008C2DH   LINE      CODE     ---       #105
      ---         BLOCKEND  ---      ---       LVL=0

      010081E4H   BLOCK     CODE     ---       LVL=0
      010081E4H   LINE      CODE     ---       #107
      010081E4H   LINE      CODE     ---       #108
      010081E4H   LINE      CODE     ---       #109
      010081F2H   LINE      CODE     ---       #110
      010081F5H   LINE      CODE     ---       #111
      010081F8H   LINE      CODE     ---       #112
      010081FBH   LINE      CODE     ---       #113
      ---         BLOCKEND  ---      ---       LVL=0

      01007721H   BLOCK     CODE     ---       LVL=0
      01007721H   LINE      CODE     ---       #117
      01007721H   LINE      CODE     ---       #118
      01007721H   LINE      CODE     ---       #119
      01007731H   LINE      CODE     ---       #120
      01007731H   LINE      CODE     ---       #121
      01007738H   LINE      CODE     ---       #122
      01007738H   LINE      CODE     ---       #123
      0100773FH   LINE      CODE     ---       #124
      0100773FH   LINE      CODE     ---       #125
      01007744H   LINE      CODE     ---       #126
      01007744H   LINE      CODE     ---       #127
      ---         BLOCKEND  ---      ---       LVL=0

      01006F7CH   BLOCK     CODE     ---       LVL=0
      01006F7CH   LINE      CODE     ---       #129
      01006F7CH   LINE      CODE     ---       #130
      01006F7CH   LINE      CODE     ---       #132
      01006F96H   LINE      CODE     ---       #133
      01006F9FH   LINE      CODE     ---       #134
      01006FA8H   LINE      CODE     ---       #135
      01006FAAH   LINE      CODE     ---       #136
      01006FAAH   LINE      CODE     ---       #137
      01006FABH   LINE      CODE     ---       #138
      ---         BLOCKEND  ---      ---       LVL=0

      01008CD5H   BLOCK     CODE     ---       LVL=0
      01008CD5H   LINE      CODE     ---       #140
      01008CD5H   LINE      CODE     ---       #141
      01008CD5H   LINE      CODE     ---       #142
      01008CD7H   LINE      CODE     ---       #143
      ---         BLOCKEND  ---      ---       LVL=0

      01008CD8H   BLOCK     CODE     ---       LVL=0
      01008CD8H   LINE      CODE     ---       #145
      01008CD8H   LINE      CODE     ---       #146
      01008CD8H   LINE      CODE     ---       #147
      01008CDAH   LINE      CODE     ---       #148
      ---         BLOCKEND  ---      ---       LVL=0

      01008CDBH   BLOCK     CODE     ---       LVL=0
      01008CDBH   LINE      CODE     ---       #150
      01008CDBH   LINE      CODE     ---       #151
      01008CDBH   LINE      CODE     ---       #152
      01008CDDH   LINE      CODE     ---       #153
      ---         BLOCKEND  ---      ---       LVL=0

      01008B0FH   BLOCK     CODE     ---       LVL=0
LX51 LINKER/LOCATER V4.66.87.0                                                        05/30/2018  19:50:23  PAGE 119


      01008B0FH   LINE      CODE     ---       #155
      01008B0FH   LINE      CODE     ---       #156
      01008B0FH   LINE      CODE     ---       #157
      01008B17H   LINE      CODE     ---       #158
      ---         BLOCKEND  ---      ---       LVL=0

      01007EA8H   BLOCK     CODE     ---       LVL=0
      00000020H.1 SYMBOL    BIT      BIT       enable
      01007EA8H   LINE      CODE     ---       #160
      01007EA8H   LINE      CODE     ---       #161
      01007EA8H   LINE      CODE     ---       #162
      01007EBDH   LINE      CODE     ---       #164
      01007EC2H   LINE      CODE     ---       #165
      ---         BLOCKEND  ---      ---       LVL=0

      01008CC5H   BLOCK     CODE     ---       LVL=0
      01008CC5H   LINE      CODE     ---       #167
      01008CC5H   LINE      CODE     ---       #168
      01008CC5H   LINE      CODE     ---       #169
      01008CC8H   LINE      CODE     ---       #170
      ---         BLOCKEND  ---      ---       LVL=0

      01008CDEH   BLOCK     CODE     ---       LVL=0
      01008CDEH   LINE      CODE     ---       #173
      01008CDEH   LINE      CODE     ---       #174
      01008CDEH   LINE      CODE     ---       #176
      01008CE0H   LINE      CODE     ---       #181
      ---         BLOCKEND  ---      ---       LVL=0

      ---         MODULE    ---      ---       MISC
      01008896H   PUBLIC    CODE     ---       _delay_ms
      01008888H   PUBLIC    CODE     ---       _delay_10us
      01008C2EH   SYMBOL    CODE     ---       internal_delay_10us
      01008AA7H   SYMBOL    CODE     ---       internal_delay_ms

      01008C2EH   BLOCK     CODE     ---       LVL=0
      01008C2EH   BLOCK     CODE     NEAR LAB  LVL=1
      00000007H   SYMBOL    DATA     BYTE      i
      ---         BLOCKEND  ---      ---       LVL=1
      01008C2EH   LINE      CODE     ---       #7
      01008C2EH   LINE      CODE     ---       #8
      01008C2EH   LINE      CODE     ---       #11
      01008C2FH   LINE      CODE     ---       #12
      01008C31H   LINE      CODE     ---       #13
      01008C33H   LINE      CODE     ---       #14
      ---         BLOCKEND  ---      ---       LVL=0

      01008AA7H   BLOCK     CODE     ---       LVL=0
      01008AA7H   BLOCK     CODE     NEAR LAB  LVL=1
      00000007H   SYMBOL    DATA     BYTE      i
      00000006H   SYMBOL    DATA     BYTE      j
      ---         BLOCKEND  ---      ---       LVL=1
      01008AA7H   LINE      CODE     ---       #16
      01008AA7H   LINE      CODE     ---       #17
      01008AA7H   LINE      CODE     ---       #20
      01008AA8H   LINE      CODE     ---       #21
      01008AAAH   LINE      CODE     ---       #22
      01008AACH   LINE      CODE     ---       #24
      01008AACH   LINE      CODE     ---       #25
      01008AAEH   LINE      CODE     ---       #26
      01008AB0H   LINE      CODE     ---       #27
      ---         BLOCKEND  ---      ---       LVL=0

      01008888H   BLOCK     CODE     ---       LVL=0
      00000006H   SYMBOL    DATA     BYTE      t
LX51 LINKER/LOCATER V4.66.87.0                                                        05/30/2018  19:50:23  PAGE 120


      01008888H   LINE      CODE     ---       #53
      0100888AH   LINE      CODE     ---       #54
      0100888AH   LINE      CODE     ---       #55
      01008890H   LINE      CODE     ---       #56
      01008893H   LINE      CODE     ---       #57
      01008895H   LINE      CODE     ---       #58
      ---         BLOCKEND  ---      ---       LVL=0

      01008896H   BLOCK     CODE     ---       LVL=0
      00000005H   SYMBOL    DATA     BYTE      t
      01008896H   LINE      CODE     ---       #60
      01008898H   LINE      CODE     ---       #61
      01008898H   LINE      CODE     ---       #62
      0100889EH   LINE      CODE     ---       #63
      010088A1H   LINE      CODE     ---       #64
      010088A3H   LINE      CODE     ---       #65
      ---         BLOCKEND  ---      ---       LVL=0

      ---         MODULE    ---      ---       MOD_COMMON
      00000022H.7 PUBLIC    BIT      BIT       lpress_lock_day_sec
      020000DAH   PUBLIC    XDATA    BYTE      last_display_s
      00000022H.6 PUBLIC    BIT      BIT       lpress_lock_year_hour
      00000022H.5 PUBLIC    BIT      BIT       lpress_lock_month_min
      020000D9H   PUBLIC    XDATA    BYTE      lpress_start
      020000D8H   PUBLIC    XDATA    BYTE      common_state
      0100549AH   PUBLIC    CODE     ---       _display_logo

      0100549AH   BLOCK     CODE     ---       LVL=0
      02000012H   SYMBOL    XDATA    BYTE      type
      02000013H   SYMBOL    XDATA    BYTE      num
      0100549AH   LINE      CODE     ---       #16
      010054A2H   LINE      CODE     ---       #17
      010054A2H   LINE      CODE     ---       #18
      010054B3H   LINE      CODE     ---       #20
      010054B6H   LINE      CODE     ---       #22
      010054C7H   LINE      CODE     ---       #23
      010054C7H   LINE      CODE     ---       #24
      010054C9H   LINE      CODE     ---       #25
      010054CBH   LINE      CODE     ---       #26
      010054CBH   LINE      CODE     ---       #27
      010054CDH   LINE      CODE     ---       #28
      010054CFH   LINE      CODE     ---       #29
      010054CFH   LINE      CODE     ---       #30
      010054D1H   LINE      CODE     ---       #31
      010054D3H   LINE      CODE     ---       #32
      010054D3H   LINE      CODE     ---       #33
      010054DAH   LINE      CODE     ---       #34
      010054DAH   LINE      CODE     ---       #35
      010054DAH   LINE      CODE     ---       #36
      010054EAH   LINE      CODE     ---       #37
      010054FCH   LINE      CODE     ---       #38
      ---         BLOCKEND  ---      ---       LVL=0

      ---         MODULE    ---      ---       BEEPER
      01008CE4H   PUBLIC    CODE     ---       beeper_stop_music
      010078EEH   PUBLIC    CODE     ---       beeper_play_music
      010065F0H   PUBLIC    CODE     ---       beeper_beep_beep
      010067B4H   PUBLIC    CODE     ---       beeper_beep_beep_always
      01007394H   PUBLIC    CODE     ---       beeper_beep
      01008C3AH   PUBLIC    CODE     ---       beeper_get_music_index
      010081FBH   PUBLIC    CODE     ---       beeper_inc_music_index
      01007EC3H   PUBLIC    CODE     ---       beeper_inc_music_to
      01008C34H   PUBLIC    CODE     ---       beeper_get_music_to
      00000020H.1 PUBLIC    BIT      BIT       ?beeper_set_beep_enable?BIT
      01008C75H   PUBLIC    CODE     ---       beeper_set_beep_enable
LX51 LINKER/LOCATER V4.66.87.0                                                        05/30/2018  19:50:23  PAGE 121


      01008CE1H   PUBLIC    CODE     ---       beeper_get_beep_enable
      01008B21H   PUBLIC    CODE     ---       beeper_leave_powersave
      01008B18H   PUBLIC    CODE     ---       beeper_enter_powersave
      010065ADH   PUBLIC    CODE     ---       beeper_initialize
      00000080H   SFRSYM    DATA     BYTE      P0
      00000090H   SFRSYM    DATA     BYTE      P1
      000000A0H   SFRSYM    DATA     BYTE      P2
      000000B0H   SFRSYM    DATA     BYTE      P3
      000000C0H   SFRSYM    DATA     BYTE      XICON
      000000B0H.4 SFRSYM    DATA     BIT       T0
      000000D0H.6 SFRSYM    DATA     BIT       AC
      000000E8H   SFRSYM    DATA     BYTE      P4
      000000B0H.5 SFRSYM    DATA     BIT       T1
      000000E6H   SFRSYM    DATA     BYTE      ISP_TRIG
      00000090H.0 SFRSYM    DATA     BIT       T2
      000000A8H.7 SFRSYM    DATA     BIT       EA
      000000A8H.6 SFRSYM    DATA     BIT       EC
      00000098H.7 SFRSYM    DATA     BIT       FE
      000000A8H   SFRSYM    DATA     BYTE      IE
      000000C8H.6 SFRSYM    DATA     BIT       EXF2
      000000B0H.7 SFRSYM    DATA     BIT       RD
      000000A8H.4 SFRSYM    DATA     BIT       ES
      000000B8H   SFRSYM    DATA     BYTE      IP
      00000098H.0 SFRSYM    DATA     BIT       RI
      000000B0H.2 SFRSYM    DATA     BIT       INT0
      000000D0H.7 SFRSYM    DATA     BIT       CY
      00000098H.1 SFRSYM    DATA     BIT       TI
      000000B0H.3 SFRSYM    DATA     BIT       INT1
      000000CBH   SFRSYM    DATA     BYTE      RCAP2H
      000000E5H   SFRSYM    DATA     BYTE      ISP_CMD
      000000B8H.4 SFRSYM    DATA     BIT       PS
      00000081H   SFRSYM    DATA     BYTE      SP
      00000090H.1 SFRSYM    DATA     BIT       T2EX
      000000D0H.2 SFRSYM    DATA     BIT       OV
      000000CAH   SFRSYM    DATA     BYTE      RCAP2L
      000000C8H.1 SFRSYM    DATA     BIT       C_T2
      000000B0H.6 SFRSYM    DATA     BIT       WR
      000000C8H.5 SFRSYM    DATA     BIT       RCLK
      000000C8H.4 SFRSYM    DATA     BIT       TCLK
      00000080H.0 SFRSYM    DATA     BIT       P00
      00000090H.0 SFRSYM    DATA     BIT       beeper_out
      00000099H   SFRSYM    DATA     BYTE      SBUF
      00000087H   SFRSYM    DATA     BYTE      PCON
      00000090H.0 SFRSYM    DATA     BIT       P10
      00000080H.1 SFRSYM    DATA     BIT       P01
      000000A0H.0 SFRSYM    DATA     BIT       P20
      00000090H.1 SFRSYM    DATA     BIT       P11
      00000080H.2 SFRSYM    DATA     BIT       P02
      000000E3H   SFRSYM    DATA     BYTE      ISP_ADDRH
      000000B0H.0 SFRSYM    DATA     BIT       P30
      000000A0H.1 SFRSYM    DATA     BIT       P21
      00000090H.2 SFRSYM    DATA     BIT       P12
      00000080H.3 SFRSYM    DATA     BIT       P03
      00000098H   SFRSYM    DATA     BYTE      SCON
      000000B0H.1 SFRSYM    DATA     BIT       P31
      000000A0H.2 SFRSYM    DATA     BIT       P22
      00000090H.3 SFRSYM    DATA     BIT       P13
      00000080H.4 SFRSYM    DATA     BIT       P04
      000000E8H.0 SFRSYM    DATA     BIT       P40
      00000089H   SFRSYM    DATA     BYTE      TMOD
      00000088H   SFRSYM    DATA     BYTE      TCON
      000000B0H.2 SFRSYM    DATA     BIT       P32
      000000A0H.3 SFRSYM    DATA     BIT       P23
      00000090H.4 SFRSYM    DATA     BIT       P14
      00000080H.5 SFRSYM    DATA     BIT       P05
LX51 LINKER/LOCATER V4.66.87.0                                                        05/30/2018  19:50:23  PAGE 122


      000000E8H.1 SFRSYM    DATA     BIT       P41
      000000B0H.3 SFRSYM    DATA     BIT       P33
      000000A0H.4 SFRSYM    DATA     BIT       P24
      00000090H.5 SFRSYM    DATA     BIT       P15
      00000080H.6 SFRSYM    DATA     BIT       P06
      000000E4H   SFRSYM    DATA     BYTE      ISP_ADDRL
      000000E8H.2 SFRSYM    DATA     BIT       P42
      000000B0H.4 SFRSYM    DATA     BIT       P34
      000000A0H.5 SFRSYM    DATA     BIT       P25
      00000090H.6 SFRSYM    DATA     BIT       P16
      00000080H.7 SFRSYM    DATA     BIT       P07
      000000E8H.3 SFRSYM    DATA     BIT       P43
      000000B0H.5 SFRSYM    DATA     BIT       P35
      000000A0H.6 SFRSYM    DATA     BIT       P26
      00000090H.7 SFRSYM    DATA     BIT       P17
      000000E8H.4 SFRSYM    DATA     BIT       P44
      000000B0H.6 SFRSYM    DATA     BIT       P36
      000000A0H.7 SFRSYM    DATA     BIT       P27
      000000E8H.5 SFRSYM    DATA     BIT       P45
      000000B0H.7 SFRSYM    DATA     BIT       P37
      000000E8H.6 SFRSYM    DATA     BIT       P46
      00000088H.1 SFRSYM    DATA     BIT       IE0
      00000088H.3 SFRSYM    DATA     BIT       IE1
      0000008EH   SFRSYM    DATA     BYTE      AUXR
      000000F0H   SFRSYM    DATA     BYTE      B
      000000C8H.0 SFRSYM    DATA     BIT       CP_RL2
      000000E0H   SFRSYM    DATA     BYTE      ACC
      000000A8H.1 SFRSYM    DATA     BIT       ET0
      000000A8H.3 SFRSYM    DATA     BIT       ET1
      00000088H.5 SFRSYM    DATA     BIT       TF0
      000000A8H.5 SFRSYM    DATA     BIT       ET2
      00000088H.7 SFRSYM    DATA     BIT       TF1
      000000C8H.7 SFRSYM    DATA     BIT       TF2
      00000098H.2 SFRSYM    DATA     BIT       RB8
      0000008CH   SFRSYM    DATA     BYTE      TH0
      000000A8H.0 SFRSYM    DATA     BIT       EX0
      00000088H.0 SFRSYM    DATA     BIT       IT0
      0000008DH   SFRSYM    DATA     BYTE      TH1
      00000098H.3 SFRSYM    DATA     BIT       TB8
      000000A8H.2 SFRSYM    DATA     BIT       EX1
      00000088H.2 SFRSYM    DATA     BIT       IT1
      000000CDH   SFRSYM    DATA     BYTE      TH2
      000000D0H.0 SFRSYM    DATA     BIT       P
      00000098H.7 SFRSYM    DATA     BIT       SM0
      0000008AH   SFRSYM    DATA     BYTE      TL0
      00000098H.6 SFRSYM    DATA     BIT       SM1
      0000008BH   SFRSYM    DATA     BYTE      TL1
      00000098H.5 SFRSYM    DATA     BIT       SM2
      000000CCH   SFRSYM    DATA     BYTE      TL2
      000000B8H.1 SFRSYM    DATA     BIT       PT0
      000000B8H.3 SFRSYM    DATA     BIT       PT1
      000000D0H.3 SFRSYM    DATA     BIT       RS0
      000000E7H   SFRSYM    DATA     BYTE      ISP_CONTR
      000000B8H.5 SFRSYM    DATA     BIT       PT2
      00000088H.4 SFRSYM    DATA     BIT       TR0
      000000D0H.4 SFRSYM    DATA     BIT       RS1
      00000088H.6 SFRSYM    DATA     BIT       TR1
      000000C8H.2 SFRSYM    DATA     BIT       TR2
      000000B8H.0 SFRSYM    DATA     BIT       PX0
      000000E1H   SFRSYM    DATA     BYTE      WDT_CONTR
      000000B8H.2 SFRSYM    DATA     BIT       PX1
      00000083H   SFRSYM    DATA     BYTE      DPH
      00000082H   SFRSYM    DATA     BYTE      DPL
      000000B7H   SFRSYM    DATA     BYTE      IPH
      000000C8H.3 SFRSYM    DATA     BIT       EXEN2
LX51 LINKER/LOCATER V4.66.87.0                                                        05/30/2018  19:50:23  PAGE 123


      00000098H.4 SFRSYM    DATA     BIT       REN
      000000C9H   SFRSYM    DATA     BYTE      T2MOD
      000000C8H   SFRSYM    DATA     BYTE      T2CON
      000000E2H   SFRSYM    DATA     BYTE      ISP_DATA
      000000B9H   SFRSYM    DATA     BYTE      SADEN
      000000B0H.0 SFRSYM    DATA     BIT       RXD
      000000A9H   SFRSYM    DATA     BYTE      SADDR
      000000B0H.1 SFRSYM    DATA     BIT       TXD
      000000A2H   SFRSYM    DATA     BYTE      AUXR1
      000000D0H.5 SFRSYM    DATA     BIT       F0
      000000D0H   SFRSYM    DATA     BYTE      PSW
      0100AB90H   SYMBOL    CONST    ---       music_table
      010088A4H   SYMBOL    CODE     ---       _beeper_stop_play
      00000024H.1 SYMBOL    BIT      BIT       beeper_stop
      020000DBH   SYMBOL    XDATA    BYTE      pai
      020000DCH   SYMBOL    XDATA    BYTE      beeper_music_to
      0100A8F8H   SYMBOL    CONST    ---       music_table0
      0100A9BAH   SYMBOL    CONST    ---       music_table1
      0100AA94H   SYMBOL    CONST    ---       music_table2
      0100AB4CH   SYMBOL    CONST    ---       music_table3
      010071B0H   SYMBOL    CODE     ---       beeper_ISR
      01003052H   SYMBOL    CODE     ---       __beepler_play
      00000024H.2 SYMBOL    BIT      BIT       beep_enable
      020000DDH   SYMBOL    XDATA    BYTE      beeper_music_index

      01007EDEH   BLOCK     CODE     ---       LVL=0
      ---         BLOCKEND  ---      ---       LVL=0

      010071B0H   BLOCK     CODE     ---       LVL=0
      010071B0H   LINE      CODE     ---       #116
      010071BFH   LINE      CODE     ---       #119
      010071C8H   LINE      CODE     ---       #120
      010071CBH   LINE      CODE     ---       #121
      010071CDH   LINE      CODE     ---       #122
      ---         BLOCKEND  ---      ---       LVL=0

      010065ADH   BLOCK     CODE     ---       LVL=0
      010065ADH   LINE      CODE     ---       #125
      010065ADH   LINE      CODE     ---       #126
      010065ADH   LINE      CODE     ---       #127
      010065B6H   LINE      CODE     ---       #134
      010065B9H   LINE      CODE     ---       #138
      010065BCH   LINE      CODE     ---       #139
      010065BFH   LINE      CODE     ---       #140
      010065C2H   LINE      CODE     ---       #141
      010065C5H   LINE      CODE     ---       #150
      010065C7H   LINE      CODE     ---       #152
      010065C9H   LINE      CODE     ---       #154
      010065CBH   LINE      CODE     ---       #156
      010065D7H   LINE      CODE     ---       #157
      010065D9H   LINE      CODE     ---       #158
      010065E3H   LINE      CODE     ---       #159
      010065EDH   LINE      CODE     ---       #160
      010065EFH   LINE      CODE     ---       #161
      ---         BLOCKEND  ---      ---       LVL=0

      01008B18H   BLOCK     CODE     ---       LVL=0
      01008B18H   LINE      CODE     ---       #163
      01008B18H   LINE      CODE     ---       #164
      01008B18H   LINE      CODE     ---       #165
      ---         BLOCKEND  ---      ---       LVL=0

      01008B21H   BLOCK     CODE     ---       LVL=0
      01008B21H   LINE      CODE     ---       #168
      01008B21H   LINE      CODE     ---       #169
LX51 LINKER/LOCATER V4.66.87.0                                                        05/30/2018  19:50:23  PAGE 124


      01008B21H   LINE      CODE     ---       #170
      ---         BLOCKEND  ---      ---       LVL=0

      01008CE1H   BLOCK     CODE     ---       LVL=0
      01008CE1H   LINE      CODE     ---       #173
      01008CE1H   LINE      CODE     ---       #174
      01008CE1H   LINE      CODE     ---       #175
      01008CE3H   LINE      CODE     ---       #176
      ---         BLOCKEND  ---      ---       LVL=0

      01008C75H   BLOCK     CODE     ---       LVL=0
      00000020H.1 SYMBOL    BIT      BIT       enable
      01008C75H   LINE      CODE     ---       #178
      01008C75H   LINE      CODE     ---       #179
      01008C75H   LINE      CODE     ---       #180
      01008C79H   LINE      CODE     ---       #181
      ---         BLOCKEND  ---      ---       LVL=0

      01008C34H   BLOCK     CODE     ---       LVL=0
      01008C34H   LINE      CODE     ---       #183
      01008C34H   LINE      CODE     ---       #184
      01008C34H   LINE      CODE     ---       #185
      01008C39H   LINE      CODE     ---       #186
      ---         BLOCKEND  ---      ---       LVL=0

      01007EC3H   BLOCK     CODE     ---       LVL=0
      01007EC3H   LINE      CODE     ---       #188
      01007EC3H   LINE      CODE     ---       #189
      01007EC3H   LINE      CODE     ---       #190
      01007ED8H   LINE      CODE     ---       #191
      01007EDAH   LINE      CODE     ---       #192
      01007EDDH   LINE      CODE     ---       #193
      ---         BLOCKEND  ---      ---       LVL=0

      010081FBH   BLOCK     CODE     ---       LVL=0
      010081FBH   LINE      CODE     ---       #195
      010081FBH   LINE      CODE     ---       #196
      010081FBH   LINE      CODE     ---       #197
      01008204H   LINE      CODE     ---       #198
      ---         BLOCKEND  ---      ---       LVL=0

      01008C3AH   BLOCK     CODE     ---       LVL=0
      01008C3AH   LINE      CODE     ---       #201
      01008C3AH   LINE      CODE     ---       #202
      01008C3AH   LINE      CODE     ---       #203
      01008C3FH   LINE      CODE     ---       #204
      ---         BLOCKEND  ---      ---       LVL=0

      010088A4H   BLOCK     CODE     ---       LVL=0
      010088A4H   LINE      CODE     ---       #206
      010088A4H   LINE      CODE     ---       #207
      010088A4H   LINE      CODE     ---       #208
      010088A6H   LINE      CODE     ---       #209
      010088A8H   LINE      CODE     ---       #210
      010088ADH   LINE      CODE     ---       #211
      010088AFH   LINE      CODE     ---       #212
      010088B1H   LINE      CODE     ---       #213
      ---         BLOCKEND  ---      ---       LVL=0

      01003052H   BLOCK     CODE     ---       LVL=0
      02000013H   SYMBOL    XDATA    ---       music
      00000020H.0 SYMBOL    BIT      BIT       once
      01003058H   BLOCK     CODE     NEAR LAB  LVL=1
      02000016H   SYMBOL    XDATA    BYTE      cm
      02000017H   SYMBOL    XDATA    BYTE      tune
LX51 LINKER/LOCATER V4.66.87.0                                                        05/30/2018  19:50:23  PAGE 125


      02000018H   SYMBOL    XDATA    BYTE      start_s
      ---         BLOCKEND  ---      ---       LVL=1
      01003052H   LINE      CODE     ---       #215
      01003058H   LINE      CODE     ---       #216
      01003058H   LINE      CODE     ---       #221
      01003058H   LINE      CODE     ---       #222
      01003058H   LINE      CODE     ---       #223
      0100305BH   LINE      CODE     ---       #224
      0100305DH   LINE      CODE     ---       #225
      01003063H   LINE      CODE     ---       #227
      01003074H   LINE      CODE     ---       #229
      0100307AH   LINE      CODE     ---       #230
      0100307AH   LINE      CODE     ---       #231
      0100308FH   LINE      CODE     ---       #232
      0100308FH   LINE      CODE     ---       #233
      0100308FH   LINE      CODE     ---       #234
      0100308FH   LINE      CODE     ---       #235
      01003092H   LINE      CODE     ---       #236
      01003095H   LINE      CODE     ---       #237
      01003098H   LINE      CODE     ---       #238
      0100309AH   LINE      CODE     ---       #239
      0100309AH   LINE      CODE     ---       #241
      0100309FH   LINE      CODE     ---       #242
      0100309FH   LINE      CODE     ---       #243
      010030A1H   LINE      CODE     ---       #244
      010030A1H   LINE      CODE     ---       #245
      010030A1H   LINE      CODE     ---       #246
      010030A1H   LINE      CODE     ---       #247
      010030A6H   LINE      CODE     ---       #248
      010030A6H   LINE      CODE     ---       #249
      010030A8H   LINE      CODE     ---       #250
      010030A8H   LINE      CODE     ---       #251
      010030AFH   LINE      CODE     ---       #252
      010030B4H   LINE      CODE     ---       #253
      010030B6H   LINE      CODE     ---       #254
      010030B6H   LINE      CODE     ---       #255
      010030C3H   LINE      CODE     ---       #256
      010030CAH   LINE      CODE     ---       #257
      010030CCH   LINE      CODE     ---       #258
      010030CEH   LINE      CODE     ---       #259
      010030D0H   LINE      CODE     ---       #260
      010030D9H   LINE      CODE     ---       #261
      010030DBH   LINE      CODE     ---       #262
      010030E5H   LINE      CODE     ---       #263
      010030E7H   LINE      CODE     ---       #264
      010030E9H   LINE      CODE     ---       #265
      010030E9H   LINE      CODE     ---       #266
      010030F8H   LINE      CODE     ---       #267
      01003108H   LINE      CODE     ---       #268
      01003119H   LINE      CODE     ---       #269
      0100311CH   LINE      CODE     ---       #270
      0100311CH   LINE      CODE     ---       #271
      0100311CH   LINE      CODE     ---       #272
      0100311CH   LINE      CODE     ---       #273
      0100311CH   LINE      CODE     ---       #274
      0100311FH   LINE      CODE     ---       #275
      01003120H   LINE      CODE     ---       #276
      ---         BLOCKEND  ---      ---       LVL=0

      01007394H   BLOCK     CODE     ---       LVL=0
      01007394H   BLOCK     CODE     NEAR LAB  LVL=1
      0200000DH   SYMBOL    XDATA    BYTE      c
      ---         BLOCKEND  ---      ---       LVL=1
      01007394H   LINE      CODE     ---       #278
      01007394H   LINE      CODE     ---       #279
LX51 LINKER/LOCATER V4.66.87.0                                                        05/30/2018  19:50:23  PAGE 126


      01007394H   LINE      CODE     ---       #280
      0100739AH   LINE      CODE     ---       #281
      010073A3H   LINE      CODE     ---       #282
      010073A6H   LINE      CODE     ---       #284
      010073A8H   LINE      CODE     ---       #285
      010073B2H   LINE      CODE     ---       #286
      010073B4H   LINE      CODE     ---       #287
      010073B9H   LINE      CODE     ---       #288
      010073BBH   LINE      CODE     ---       #289
      010073BDH   LINE      CODE     ---       #290
      ---         BLOCKEND  ---      ---       LVL=0

      010067B4H   BLOCK     CODE     ---       LVL=0
      010067B4H   BLOCK     CODE     NEAR LAB  LVL=1
      02000014H   SYMBOL    XDATA    BYTE      c
      ---         BLOCKEND  ---      ---       LVL=1
      010067B4H   LINE      CODE     ---       #292
      010067B4H   LINE      CODE     ---       #293
      010067B4H   LINE      CODE     ---       #294
      010067BAH   LINE      CODE     ---       #295
      010067C3H   LINE      CODE     ---       #296
      010067C5H   LINE      CODE     ---       #297
      010067CFH   LINE      CODE     ---       #298
      010067D1H   LINE      CODE     ---       #299
      010067D6H   LINE      CODE     ---       #300
      010067D8H   LINE      CODE     ---       #302
      010067DDH   LINE      CODE     ---       #304
      010067E7H   LINE      CODE     ---       #305
      010067E9H   LINE      CODE     ---       #306
      010067EEH   LINE      CODE     ---       #307
      010067F0H   LINE      CODE     ---       #308
      010067F2H   LINE      CODE     ---       #309
      ---         BLOCKEND  ---      ---       LVL=0

      010065F0H   BLOCK     CODE     ---       LVL=0
      010065F0H   BLOCK     CODE     NEAR LAB  LVL=1
      0200000BH   SYMBOL    XDATA    BYTE      c
      ---         BLOCKEND  ---      ---       LVL=1
      010065F0H   LINE      CODE     ---       #311
      010065F0H   LINE      CODE     ---       #312
      010065F0H   LINE      CODE     ---       #313
      010065F6H   LINE      CODE     ---       #314
      010065FFH   LINE      CODE     ---       #315
      01006602H   LINE      CODE     ---       #317
      01006604H   LINE      CODE     ---       #318
      0100660EH   LINE      CODE     ---       #319
      01006610H   LINE      CODE     ---       #320
      01006615H   LINE      CODE     ---       #321
      01006617H   LINE      CODE     ---       #323
      0100661CH   LINE      CODE     ---       #325
      01006626H   LINE      CODE     ---       #326
      01006628H   LINE      CODE     ---       #327
      0100662DH   LINE      CODE     ---       #328
      0100662FH   LINE      CODE     ---       #329
      01006631H   LINE      CODE     ---       #330
      ---         BLOCKEND  ---      ---       LVL=0

      010078EEH   BLOCK     CODE     ---       LVL=0
      010078EEH   LINE      CODE     ---       #332
      010078EEH   LINE      CODE     ---       #333
      010078EEH   LINE      CODE     ---       #335
      010078F7H   LINE      CODE     ---       #336
      ---         BLOCKEND  ---      ---       LVL=0

      01008CE4H   BLOCK     CODE     ---       LVL=0
LX51 LINKER/LOCATER V4.66.87.0                                                        05/30/2018  19:50:23  PAGE 127


      01008CE4H   LINE      CODE     ---       #339
      01008CE4H   LINE      CODE     ---       #340
      01008CE4H   LINE      CODE     ---       #341
      ---         BLOCKEND  ---      ---       LVL=0

      ---         MODULE    ---      ---       CLOCK
      0100831EH   PUBLIC    CODE     ---       clock_leave_shell
      01008CEAH   PUBLIC    CODE     ---       clock_enter_shell
      010080F8H   PUBLIC    CODE     ---       clock_leave_powersave
      010088B2H   PUBLIC    CODE     ---       clock_enter_powersave
      010071DDH   PUBLIC    CODE     ---       clock_initialize
      00000020H.2 PUBLIC    BIT      BIT       ?clock_enable_interrupt?BIT
      01008B2AH   PUBLIC    CODE     ---       clock_enable_interrupt
      01007C05H   PUBLIC    CODE     ---       _clock_get_mon_date
      01008212H   PUBLIC    CODE     ---       _clock_is_leap_year
      01005225H   PUBLIC    CODE     ---       _clock_sync_to_rtc
      010055C3H   PUBLIC    CODE     ---       _clock_sync_from_rtc
      010083B5H   PUBLIC    CODE     ---       clock_inc_year
      01008CA2H   PUBLIC    CODE     ---       clock_get_year
      01008308H   PUBLIC    CODE     ---       clock_inc_month
      01008C52H   PUBLIC    CODE     ---       clock_get_month
      01008C4CH   PUBLIC    CODE     ---       clock_get_day
      01007A1AH   PUBLIC    CODE     ---       clock_inc_date
      01008C46H   PUBLIC    CODE     ---       clock_get_date
      010089DFH   PUBLIC    CODE     ---       clock_inc_hour
      01008C9DH   PUBLIC    CODE     ---       clock_get_hour
      010089D4H   PUBLIC    CODE     ---       clock_inc_min
      01008C98H   PUBLIC    CODE     ---       clock_get_min
      01008C93H   PUBLIC    CODE     ---       clock_clr_sec
      01008C8EH   PUBLIC    CODE     ---       clock_get_sec
      01008C89H   PUBLIC    CODE     ---       clock_get_sec_256
      01008C84H   PUBLIC    CODE     ---       clock_get_ms39
      00000020H.1 PUBLIC    BIT      BIT       ?clock_set_hour_12?BIT
      01008C7FH   PUBLIC    CODE     ---       clock_set_hour_12
      01008CE7H   PUBLIC    CODE     ---       clock_get_hour_12
      01002956H   PUBLIC    CODE     ---       _clock_yymmdd_to_day
      010042DCH   PUBLIC    CODE     ---       clock_dump
      01008C40H   PUBLIC    CODE     ---       _clock_switch_display_mode
      00000020H.0 PUBLIC    BIT      BIT       ?clock_display?BIT
      01008C7AH   PUBLIC    CODE     ---       clock_display
      00000080H   SFRSYM    DATA     BYTE      P0
      00000090H   SFRSYM    DATA     BYTE      P1
      000000A0H   SFRSYM    DATA     BYTE      P2
      000000B0H   SFRSYM    DATA     BYTE      P3
      000000C0H   SFRSYM    DATA     BYTE      XICON
      000000B0H.4 SFRSYM    DATA     BIT       T0
      000000D0H.6 SFRSYM    DATA     BIT       AC
      000000E8H   SFRSYM    DATA     BYTE      P4
      000000B0H.5 SFRSYM    DATA     BIT       T1
      000000E6H   SFRSYM    DATA     BYTE      ISP_TRIG
      00000090H.0 SFRSYM    DATA     BIT       T2
      000000A8H.7 SFRSYM    DATA     BIT       EA
      000000A8H.6 SFRSYM    DATA     BIT       EC
      00000098H.7 SFRSYM    DATA     BIT       FE
      000000A8H   SFRSYM    DATA     BYTE      IE
      000000C8H.6 SFRSYM    DATA     BIT       EXF2
      000000B0H.7 SFRSYM    DATA     BIT       RD
      000000A8H.4 SFRSYM    DATA     BIT       ES
      000000B8H   SFRSYM    DATA     BYTE      IP
      00000098H.0 SFRSYM    DATA     BIT       RI
      000000B0H.2 SFRSYM    DATA     BIT       INT0
      000000D0H.7 SFRSYM    DATA     BIT       CY
      00000098H.1 SFRSYM    DATA     BIT       TI
      000000B0H.3 SFRSYM    DATA     BIT       INT1
      000000CBH   SFRSYM    DATA     BYTE      RCAP2H
LX51 LINKER/LOCATER V4.66.87.0                                                        05/30/2018  19:50:23  PAGE 128


      000000E5H   SFRSYM    DATA     BYTE      ISP_CMD
      000000B8H.4 SFRSYM    DATA     BIT       PS
      00000081H   SFRSYM    DATA     BYTE      SP
      00000090H.1 SFRSYM    DATA     BIT       T2EX
      000000D0H.2 SFRSYM    DATA     BIT       OV
      000000CAH   SFRSYM    DATA     BYTE      RCAP2L
      000000C8H.1 SFRSYM    DATA     BIT       C_T2
      000000B0H.6 SFRSYM    DATA     BIT       WR
      000000C8H.5 SFRSYM    DATA     BIT       RCLK
      000000C8H.4 SFRSYM    DATA     BIT       TCLK
      00000080H.0 SFRSYM    DATA     BIT       P00
      00000099H   SFRSYM    DATA     BYTE      SBUF
      00000087H   SFRSYM    DATA     BYTE      PCON
      00000090H.0 SFRSYM    DATA     BIT       P10
      00000080H.1 SFRSYM    DATA     BIT       P01
      000000A0H.0 SFRSYM    DATA     BIT       P20
      00000090H.1 SFRSYM    DATA     BIT       P11
      00000080H.2 SFRSYM    DATA     BIT       P02
      000000E3H   SFRSYM    DATA     BYTE      ISP_ADDRH
      000000B0H.0 SFRSYM    DATA     BIT       P30
      000000A0H.1 SFRSYM    DATA     BIT       P21
      00000090H.2 SFRSYM    DATA     BIT       P12
      00000080H.3 SFRSYM    DATA     BIT       P03
      00000098H   SFRSYM    DATA     BYTE      SCON
      000000B0H.1 SFRSYM    DATA     BIT       P31
      000000A0H.2 SFRSYM    DATA     BIT       P22
      00000090H.3 SFRSYM    DATA     BIT       P13
      00000080H.4 SFRSYM    DATA     BIT       P04
      000000E8H.0 SFRSYM    DATA     BIT       P40
      00000089H   SFRSYM    DATA     BYTE      TMOD
      00000088H   SFRSYM    DATA     BYTE      TCON
      000000B0H.2 SFRSYM    DATA     BIT       P32
      000000A0H.3 SFRSYM    DATA     BIT       P23
      00000090H.4 SFRSYM    DATA     BIT       P14
      00000080H.5 SFRSYM    DATA     BIT       P05
      000000E8H.1 SFRSYM    DATA     BIT       P41
      000000B0H.3 SFRSYM    DATA     BIT       P33
      000000A0H.4 SFRSYM    DATA     BIT       P24
      00000090H.5 SFRSYM    DATA     BIT       P15
      00000080H.6 SFRSYM    DATA     BIT       P06
      000000E4H   SFRSYM    DATA     BYTE      ISP_ADDRL
      000000E8H.2 SFRSYM    DATA     BIT       P42
      000000B0H.4 SFRSYM    DATA     BIT       P34
      000000A0H.5 SFRSYM    DATA     BIT       P25
      00000090H.6 SFRSYM    DATA     BIT       P16
      00000080H.7 SFRSYM    DATA     BIT       P07
      000000E8H.3 SFRSYM    DATA     BIT       P43
      000000B0H.5 SFRSYM    DATA     BIT       P35
      000000A0H.6 SFRSYM    DATA     BIT       P26
      00000090H.7 SFRSYM    DATA     BIT       P17
      000000E8H.4 SFRSYM    DATA     BIT       P44
      000000B0H.6 SFRSYM    DATA     BIT       P36
      000000A0H.7 SFRSYM    DATA     BIT       P27
      000000E8H.5 SFRSYM    DATA     BIT       P45
      000000B0H.7 SFRSYM    DATA     BIT       P37
      000000E8H.6 SFRSYM    DATA     BIT       P46
      00000088H.1 SFRSYM    DATA     BIT       IE0
      00000088H.3 SFRSYM    DATA     BIT       IE1
      0000008EH   SFRSYM    DATA     BYTE      AUXR
      000000F0H   SFRSYM    DATA     BYTE      B
      000000C8H.0 SFRSYM    DATA     BIT       CP_RL2
      000000E0H   SFRSYM    DATA     BYTE      ACC
      000000A8H.1 SFRSYM    DATA     BIT       ET0
      000000A8H.3 SFRSYM    DATA     BIT       ET1
      00000088H.5 SFRSYM    DATA     BIT       TF0
LX51 LINKER/LOCATER V4.66.87.0                                                        05/30/2018  19:50:23  PAGE 129


      000000A8H.5 SFRSYM    DATA     BIT       ET2
      00000088H.7 SFRSYM    DATA     BIT       TF1
      000000C8H.7 SFRSYM    DATA     BIT       TF2
      00000098H.2 SFRSYM    DATA     BIT       RB8
      0000008CH   SFRSYM    DATA     BYTE      TH0
      000000A8H.0 SFRSYM    DATA     BIT       EX0
      00000088H.0 SFRSYM    DATA     BIT       IT0
      0000008DH   SFRSYM    DATA     BYTE      TH1
      00000098H.3 SFRSYM    DATA     BIT       TB8
      000000A8H.2 SFRSYM    DATA     BIT       EX1
      00000088H.2 SFRSYM    DATA     BIT       IT1
      000000CDH   SFRSYM    DATA     BYTE      TH2
      000000D0H.0 SFRSYM    DATA     BIT       P
      00000098H.7 SFRSYM    DATA     BIT       SM0
      0000008AH   SFRSYM    DATA     BYTE      TL0
      00000098H.6 SFRSYM    DATA     BIT       SM1
      0000008BH   SFRSYM    DATA     BYTE      TL1
      00000098H.5 SFRSYM    DATA     BIT       SM2
      000000CCH   SFRSYM    DATA     BYTE      TL2
      000000B8H.1 SFRSYM    DATA     BIT       PT0
      000000B8H.3 SFRSYM    DATA     BIT       PT1
      000000D0H.3 SFRSYM    DATA     BIT       RS0
      000000E7H   SFRSYM    DATA     BYTE      ISP_CONTR
      000000B8H.5 SFRSYM    DATA     BIT       PT2
      00000088H.4 SFRSYM    DATA     BIT       TR0
      000000D0H.4 SFRSYM    DATA     BIT       RS1
      00000088H.6 SFRSYM    DATA     BIT       TR1
      000000C8H.2 SFRSYM    DATA     BIT       TR2
      000000B8H.0 SFRSYM    DATA     BIT       PX0
      000000E1H   SFRSYM    DATA     BYTE      WDT_CONTR
      000000B8H.2 SFRSYM    DATA     BIT       PX1
      00000083H   SFRSYM    DATA     BYTE      DPH
      00000082H   SFRSYM    DATA     BYTE      DPL
      000000B7H   SFRSYM    DATA     BYTE      IPH
      000000C8H.3 SFRSYM    DATA     BIT       EXEN2
      00000098H.4 SFRSYM    DATA     BIT       REN
      000000C9H   SFRSYM    DATA     BYTE      T2MOD
      000000C8H   SFRSYM    DATA     BYTE      T2CON
      000000E2H   SFRSYM    DATA     BYTE      ISP_DATA
      000000B9H   SFRSYM    DATA     BYTE      SADEN
      000000B0H.0 SFRSYM    DATA     BIT       RXD
      000000A9H   SFRSYM    DATA     BYTE      SADDR
      000000B0H.1 SFRSYM    DATA     BIT       TXD
      000000A2H   SFRSYM    DATA     BYTE      AUXR1
      000000D0H.5 SFRSYM    DATA     BIT       F0
      000000D0H   SFRSYM    DATA     BYTE      PSW
      020000E6H   SYMBOL    XDATA    BYTE      display_mode
      01009F0EH   SYMBOL    CONST    ---       date_table
      01006BA3H   SYMBOL    CODE     ---       clock0_ISR
      0000003FH   SYMBOL    IDATA    BYTE      sec_256
      00000040H   SYMBOL    IDATA    ---       clk
      00000023H.0 SYMBOL    BIT      BIT       display_enable
      00000023H.1 SYMBOL    BIT      BIT       in_shell
      010021BDH   SYMBOL    CODE     ---       clock_inc_ms39
      00000023H.2 SYMBOL    BIT      BIT       clk_is12

      01004C53H   BLOCK     CODE     ---       LVL=0
      ---         BLOCKEND  ---      ---       LVL=0

      01008C7AH   BLOCK     CODE     ---       LVL=0
      00000020H.0 SYMBOL    BIT      BIT       enable
      01008C7AH   LINE      CODE     ---       #129
      01008C7AH   LINE      CODE     ---       #130
      01008C7AH   LINE      CODE     ---       #131
      01008C7EH   LINE      CODE     ---       #132
LX51 LINKER/LOCATER V4.66.87.0                                                        05/30/2018  19:50:23  PAGE 130


      ---         BLOCKEND  ---      ---       LVL=0

      01008C40H   BLOCK     CODE     ---       LVL=0
      00000007H   SYMBOL    DATA     BYTE      mode
      01008C40H   LINE      CODE     ---       #134
      01008C40H   LINE      CODE     ---       #135
      01008C40H   LINE      CODE     ---       #136
      01008C45H   LINE      CODE     ---       #137
      ---         BLOCKEND  ---      ---       LVL=0

      010021BDH   BLOCK     CODE     ---       LVL=0
      010021BDH   BLOCK     CODE     NEAR LAB  LVL=1
      00000005H   SYMBOL    DATA     BYTE      hour
      00000021H.3 SYMBOL    BIT      BIT       is_pm
      ---         BLOCKEND  ---      ---       LVL=1
      010021BDH   LINE      CODE     ---       #140
      010021BDH   LINE      CODE     ---       #141
      010021BDH   LINE      CODE     ---       #145
      010021C0H   LINE      CODE     ---       #147
      010021CAH   LINE      CODE     ---       #148
      010021D0H   LINE      CODE     ---       #149
      010021D0H   LINE      CODE     ---       #151
      010021D5H   LINE      CODE     ---       #152
      010021DBH   LINE      CODE     ---       #153
      010021DBH   LINE      CODE     ---       #155
      010021E0H   LINE      CODE     ---       #156
      010021EAH   LINE      CODE     ---       #157
      010021EDH   LINE      CODE     ---       #158
      010021F0H   LINE      CODE     ---       #159
      010021F6H   LINE      CODE     ---       #160
      010021FBH   LINE      CODE     ---       #161
      01002200H   LINE      CODE     ---       #162
      01002205H   LINE      CODE     ---       #163
      0100220AH   LINE      CODE     ---       #164
      0100220FH   LINE      CODE     ---       #165
      0100222BH   LINE      CODE     ---       #166
      01002235H   LINE      CODE     ---       #167
      01002238H   LINE      CODE     ---       #168
      01002243H   LINE      CODE     ---       #169
      01002246H   LINE      CODE     ---       #170
      01002250H   LINE      CODE     ---       #171
      01002250H   LINE      CODE     ---       #172
      01002250H   LINE      CODE     ---       #173
      01002250H   LINE      CODE     ---       #174
      01002250H   LINE      CODE     ---       #175
      01002250H   LINE      CODE     ---       #176
      01002250H   LINE      CODE     ---       #177
      0100225CH   LINE      CODE     ---       #178
      01002263H   LINE      CODE     ---       #179
      01002268H   LINE      CODE     ---       #180
      0100226AH   LINE      CODE     ---       #181
      01002272H   LINE      CODE     ---       #182
      01002276H   LINE      CODE     ---       #183
      01002278H   LINE      CODE     ---       #184
      01002281H   LINE      CODE     ---       #185
      01002283H   LINE      CODE     ---       #186
      01002283H   LINE      CODE     ---       #188
      0100228AH   LINE      CODE     ---       #189
      01002298H   LINE      CODE     ---       #190
      0100229AH   LINE      CODE     ---       #191
      010022A7H   LINE      CODE     ---       #192
      010022A7H   LINE      CODE     ---       #193
      010022B2H   LINE      CODE     ---       #194
      010022B7H   LINE      CODE     ---       #195
      010022BDH   LINE      CODE     ---       #196
LX51 LINKER/LOCATER V4.66.87.0                                                        05/30/2018  19:50:23  PAGE 131


      010022C2H   LINE      CODE     ---       #197
      010022CAH   LINE      CODE     ---       #198
      010022D0H   LINE      CODE     ---       #199
      010022E1H   LINE      CODE     ---       #200
      010022E8H   LINE      CODE     ---       #201
      010022EFH   LINE      CODE     ---       #202
      010022F9H   LINE      CODE     ---       #203
      010022FBH   LINE      CODE     ---       #204
      010022FBH   LINE      CODE     ---       #205
      010022FDH   LINE      CODE     ---       #206
      01002307H   LINE      CODE     ---       #207
      0100230DH   LINE      CODE     ---       #208
      01002313H   LINE      CODE     ---       #209
      01002319H   LINE      CODE     ---       #210
      01002320H   LINE      CODE     ---       #211
      01002329H   LINE      CODE     ---       #212
      01002329H   LINE      CODE     ---       #213
      01002329H   LINE      CODE     ---       #214
      ---         BLOCKEND  ---      ---       LVL=0

      010042DCH   BLOCK     CODE     ---       LVL=0
      010042DCH   LINE      CODE     ---       #217
      010042DCH   LINE      CODE     ---       #218
      010042DCH   LINE      CODE     ---       #219
      010042E2H   LINE      CODE     ---       #220
      010042EEH   LINE      CODE     ---       #221
      010042F4H   LINE      CODE     ---       #222
      01004300H   LINE      CODE     ---       #223
      01004306H   LINE      CODE     ---       #224
      01004317H   LINE      CODE     ---       #225
      0100431DH   LINE      CODE     ---       #226
      0100432EH   LINE      CODE     ---       #227
      0100434CH   LINE      CODE     ---       #228
      ---         BLOCKEND  ---      ---       LVL=0

      01002956H   BLOCK     CODE     ---       LVL=0
      00000004H   SYMBOL    DATA     BYTE      year
      00000005H   SYMBOL    DATA     BYTE      mon
      00000003H   SYMBOL    DATA     BYTE      date
      01002958H   BLOCK     CODE     NEAR LAB  LVL=1
      02000017H   SYMBOL    XDATA    WORD      d
      02000019H   SYMBOL    XDATA    WORD      m
      0200001BH   SYMBOL    XDATA    WORD      y
      0200001DH   SYMBOL    XDATA    WORD      c
      ---         BLOCKEND  ---      ---       LVL=1
      01002956H   LINE      CODE     ---       #235
      01002958H   LINE      CODE     ---       #236
      01002958H   LINE      CODE     ---       #238
      01002965H   LINE      CODE     ---       #239
      01002972H   LINE      CODE     ---       #240
      0100297EH   LINE      CODE     ---       #242
      01002987H   LINE      CODE     ---       #243
      01002991H   LINE      CODE     ---       #244
      0100299BH   LINE      CODE     ---       #245
      0100299BH   LINE      CODE     ---       #247
      010029AAH   LINE      CODE     ---       #248
      010029C0H   LINE      CODE     ---       #250
      01002A37H   LINE      CODE     ---       #251
      01002A54H   LINE      CODE     ---       #253
      01002A57H   LINE      CODE     ---       #254
      01002A5AH   LINE      CODE     ---       #255
      01002A5AH   LINE      CODE     ---       #257
      01002A61H   LINE      CODE     ---       #258
      ---         BLOCKEND  ---      ---       LVL=0

LX51 LINKER/LOCATER V4.66.87.0                                                        05/30/2018  19:50:23  PAGE 132


      01008CE7H   BLOCK     CODE     ---       LVL=0
      01008CE7H   LINE      CODE     ---       #260
      01008CE7H   LINE      CODE     ---       #261
      01008CE7H   LINE      CODE     ---       #262
      01008CE9H   LINE      CODE     ---       #263
      ---         BLOCKEND  ---      ---       LVL=0

      01008C7FH   BLOCK     CODE     ---       LVL=0
      00000020H.1 SYMBOL    BIT      BIT       enable
      01008C7FH   LINE      CODE     ---       #264
      01008C7FH   LINE      CODE     ---       #265
      01008C7FH   LINE      CODE     ---       #266
      01008C83H   LINE      CODE     ---       #267
      ---         BLOCKEND  ---      ---       LVL=0

      01008C84H   BLOCK     CODE     ---       LVL=0
      01008C84H   LINE      CODE     ---       #269
      01008C84H   LINE      CODE     ---       #270
      01008C84H   LINE      CODE     ---       #271
      01008C88H   LINE      CODE     ---       #272
      ---         BLOCKEND  ---      ---       LVL=0

      01008C89H   BLOCK     CODE     ---       LVL=0
      01008C89H   LINE      CODE     ---       #274
      01008C89H   LINE      CODE     ---       #275
      01008C89H   LINE      CODE     ---       #276
      01008C8DH   LINE      CODE     ---       #277
      ---         BLOCKEND  ---      ---       LVL=0

      01008C8EH   BLOCK     CODE     ---       LVL=0
      01008C8EH   LINE      CODE     ---       #279
      01008C8EH   LINE      CODE     ---       #280
      01008C8EH   LINE      CODE     ---       #281
      01008C92H   LINE      CODE     ---       #282
      ---         BLOCKEND  ---      ---       LVL=0

      01008C93H   BLOCK     CODE     ---       LVL=0
      01008C93H   LINE      CODE     ---       #283
      01008C93H   LINE      CODE     ---       #284
      01008C93H   LINE      CODE     ---       #285
      01008C97H   LINE      CODE     ---       #286
      ---         BLOCKEND  ---      ---       LVL=0

      01008C98H   BLOCK     CODE     ---       LVL=0
      01008C98H   LINE      CODE     ---       #288
      01008C98H   LINE      CODE     ---       #289
      01008C98H   LINE      CODE     ---       #290
      01008C9CH   LINE      CODE     ---       #291
      ---         BLOCKEND  ---      ---       LVL=0

      010089D4H   BLOCK     CODE     ---       LVL=0
      010089D4H   LINE      CODE     ---       #292
      010089D4H   LINE      CODE     ---       #293
      010089D4H   LINE      CODE     ---       #294
      010089DEH   LINE      CODE     ---       #295
      ---         BLOCKEND  ---      ---       LVL=0

      01008C9DH   BLOCK     CODE     ---       LVL=0
      01008C9DH   LINE      CODE     ---       #297
      01008C9DH   LINE      CODE     ---       #298
      01008C9DH   LINE      CODE     ---       #299
      01008CA1H   LINE      CODE     ---       #300
      ---         BLOCKEND  ---      ---       LVL=0

      010089DFH   BLOCK     CODE     ---       LVL=0
LX51 LINKER/LOCATER V4.66.87.0                                                        05/30/2018  19:50:23  PAGE 133


      010089DFH   LINE      CODE     ---       #301
      010089DFH   LINE      CODE     ---       #302
      010089DFH   LINE      CODE     ---       #303
      010089E9H   LINE      CODE     ---       #304
      ---         BLOCKEND  ---      ---       LVL=0

      01008C46H   BLOCK     CODE     ---       LVL=0
      01008C46H   LINE      CODE     ---       #307
      01008C46H   LINE      CODE     ---       #308
      01008C46H   LINE      CODE     ---       #309
      01008C4BH   LINE      CODE     ---       #310
      ---         BLOCKEND  ---      ---       LVL=0

      01007A1AH   BLOCK     CODE     ---       LVL=0
      01007A1AH   LINE      CODE     ---       #311
      01007A1AH   LINE      CODE     ---       #312
      01007A1AH   LINE      CODE     ---       #313
      01007A2DH   LINE      CODE     ---       #314
      01007A39H   LINE      CODE     ---       #315
      ---         BLOCKEND  ---      ---       LVL=0

      01008C4CH   BLOCK     CODE     ---       LVL=0
      01008C4CH   LINE      CODE     ---       #317
      01008C4CH   LINE      CODE     ---       #318
      01008C4CH   LINE      CODE     ---       #319
      01008C51H   LINE      CODE     ---       #320
      ---         BLOCKEND  ---      ---       LVL=0

      01008C52H   BLOCK     CODE     ---       LVL=0
      01008C52H   LINE      CODE     ---       #322
      01008C52H   LINE      CODE     ---       #323
      01008C52H   LINE      CODE     ---       #324
      01008C57H   LINE      CODE     ---       #325
      ---         BLOCKEND  ---      ---       LVL=0

      01008308H   BLOCK     CODE     ---       LVL=0
      01008308H   LINE      CODE     ---       #326
      01008308H   LINE      CODE     ---       #327
      01008308H   LINE      CODE     ---       #328
      01008312H   LINE      CODE     ---       #329
      0100831DH   LINE      CODE     ---       #330
      ---         BLOCKEND  ---      ---       LVL=0

      01008CA2H   BLOCK     CODE     ---       LVL=0
      01008CA2H   LINE      CODE     ---       #332
      01008CA2H   LINE      CODE     ---       #333
      01008CA2H   LINE      CODE     ---       #334
      01008CA6H   LINE      CODE     ---       #335
      ---         BLOCKEND  ---      ---       LVL=0

      010083B5H   BLOCK     CODE     ---       LVL=0
      010083B5H   LINE      CODE     ---       #336
      010083B5H   LINE      CODE     ---       #337
      010083B5H   LINE      CODE     ---       #338
      010083BFH   LINE      CODE     ---       #339
      010083C9H   LINE      CODE     ---       #340
      ---         BLOCKEND  ---      ---       LVL=0

      010055C3H   BLOCK     CODE     ---       LVL=0
      02000013H   SYMBOL    XDATA    BYTE      type
      010055C3H   LINE      CODE     ---       #342
      010055C8H   LINE      CODE     ---       #343
      010055C8H   LINE      CODE     ---       #344
      010055D5H   LINE      CODE     ---       #345
      010055DBH   LINE      CODE     ---       #346
LX51 LINKER/LOCATER V4.66.87.0                                                        05/30/2018  19:50:23  PAGE 134


      010055DFH   LINE      CODE     ---       #347
      010055E6H   LINE      CODE     ---       #348
      010055ECH   LINE      CODE     ---       #349
      010055F2H   LINE      CODE     ---       #350
      010055F5H   LINE      CODE     ---       #351
      010055FAH   LINE      CODE     ---       #352
      01005602H   LINE      CODE     ---       #353
      01005607H   LINE      CODE     ---       #354
      0100560EH   LINE      CODE     ---       #355
      01005615H   LINE      CODE     ---       #356
      0100561CH   LINE      CODE     ---       #357
      01005623H   LINE      CODE     ---       #358
      01005623H   LINE      CODE     ---       #359
      ---         BLOCKEND  ---      ---       LVL=0

      01005225H   BLOCK     CODE     ---       LVL=0
      02000016H   SYMBOL    XDATA    BYTE      type
      01005225H   LINE      CODE     ---       #361
      0100522AH   LINE      CODE     ---       #362
      0100522AH   LINE      CODE     ---       #363
      01005237H   LINE      CODE     ---       #364
      0100523CH   LINE      CODE     ---       #365
      01005242H   LINE      CODE     ---       #366
      01005246H   LINE      CODE     ---       #367
      0100524DH   LINE      CODE     ---       #368
      01005254H   LINE      CODE     ---       #369
      0100525AH   LINE      CODE     ---       #370
      01005260H   LINE      CODE     ---       #371
      01005262H   LINE      CODE     ---       #372
      0100526CH   LINE      CODE     ---       #373
      01005271H   LINE      CODE     ---       #374
      01005278H   LINE      CODE     ---       #375
      0100527FH   LINE      CODE     ---       #376
      01005286H   LINE      CODE     ---       #377
      0100528BH   LINE      CODE     ---       #378
      0100528BH   LINE      CODE     ---       #379
      ---         BLOCKEND  ---      ---       LVL=0

      01006BA3H   BLOCK     CODE     ---       LVL=0
      01006BA3H   LINE      CODE     ---       #382
      01006BB7H   LINE      CODE     ---       #384
      01006BBAH   LINE      CODE     ---       #385
      01006BBEH   LINE      CODE     ---       #387
      01006BBEH   LINE      CODE     ---       #389
      01006BC1H   LINE      CODE     ---       #390
      01006BC4H   LINE      CODE     ---       #392
      01006BC7H   LINE      CODE     ---       #394
      01006BC9H   LINE      CODE     ---       #395
      ---         BLOCKEND  ---      ---       LVL=0

      01008212H   BLOCK     CODE     ---       LVL=0
      00000007H   SYMBOL    DATA     BYTE      year
      01008212H   LINE      CODE     ---       #399
      01008212H   LINE      CODE     ---       #400
      01008212H   LINE      CODE     ---       #401
      0100821AH   LINE      CODE     ---       #402
      01008228H   LINE      CODE     ---       #403
      ---         BLOCKEND  ---      ---       LVL=0

      01007C05H   BLOCK     CODE     ---       LVL=0
      00000007H   SYMBOL    DATA     BYTE      year
      00000005H   SYMBOL    DATA     BYTE      mon
      01007C05H   LINE      CODE     ---       #405
      01007C05H   LINE      CODE     ---       #406
      01007C05H   LINE      CODE     ---       #407
LX51 LINKER/LOCATER V4.66.87.0                                                        05/30/2018  19:50:23  PAGE 135


      01007C0DH   LINE      CODE     ---       #408
      01007C15H   LINE      CODE     ---       #409
      01007C21H   LINE      CODE     ---       #410
      ---         BLOCKEND  ---      ---       LVL=0

      01008B2AH   BLOCK     CODE     ---       LVL=0
      00000020H.2 SYMBOL    BIT      BIT       enable
      01008B2AH   LINE      CODE     ---       #412
      01008B2AH   LINE      CODE     ---       #413
      01008B2AH   LINE      CODE     ---       #414
      01008B2EH   LINE      CODE     ---       #415
      01008B32H   LINE      CODE     ---       #416
      ---         BLOCKEND  ---      ---       LVL=0

      010071DDH   BLOCK     CODE     ---       LVL=0
      010071DDH   LINE      CODE     ---       #418
      010071DDH   LINE      CODE     ---       #419
      010071DDH   LINE      CODE     ---       #420
      010071E6H   LINE      CODE     ---       #421
      010071EBH   LINE      CODE     ---       #422
      010071F0H   LINE      CODE     ---       #427
      010071F3H   LINE      CODE     ---       #428
      010071F6H   LINE      CODE     ---       #429
      010071F9H   LINE      CODE     ---       #430
      010071FBH   LINE      CODE     ---       #431
      01007200H   LINE      CODE     ---       #432
      01007202H   LINE      CODE     ---       #434
      01007207H   LINE      CODE     ---       #436
      ---         BLOCKEND  ---      ---       LVL=0

      010088B2H   BLOCK     CODE     ---       LVL=0
      010088B2H   LINE      CODE     ---       #440
      010088B2H   LINE      CODE     ---       #441
      010088B2H   LINE      CODE     ---       #442
      010088BBH   LINE      CODE     ---       #443
      ---         BLOCKEND  ---      ---       LVL=0

      010080F8H   BLOCK     CODE     ---       LVL=0
      010080F8H   LINE      CODE     ---       #446
      010080F8H   LINE      CODE     ---       #447
      010080F8H   LINE      CODE     ---       #448
      01008101H   LINE      CODE     ---       #449
      01008106H   LINE      CODE     ---       #450
      0100810BH   LINE      CODE     ---       #451
      ---         BLOCKEND  ---      ---       LVL=0

      01008CEAH   BLOCK     CODE     ---       LVL=0
      01008CEAH   LINE      CODE     ---       #454
      01008CEAH   LINE      CODE     ---       #455
      01008CEAH   LINE      CODE     ---       #456
      01008CECH   LINE      CODE     ---       #457
      ---         BLOCKEND  ---      ---       LVL=0

      0100831EH   BLOCK     CODE     ---       LVL=0
      0100831EH   LINE      CODE     ---       #459
      0100831EH   LINE      CODE     ---       #460
      0100831EH   LINE      CODE     ---       #461
      01008320H   LINE      CODE     ---       #462
      01008325H   LINE      CODE     ---       #463
      0100832AH   LINE      CODE     ---       #464
      0100832FH   LINE      CODE     ---       #465
      ---         BLOCKEND  ---      ---       LVL=0

      ---         MODULE    ---      ---       TIMER
      01008140H   PUBLIC    CODE     ---       timer_clr
LX51 LINKER/LOCATER V4.66.87.0                                                        05/30/2018  19:50:23  PAGE 136


      01008CEDH   PUBLIC    CODE     ---       timer_stop
      01007910H   PUBLIC    CODE     ---       _timer_get_ms10
      01008128H   PUBLIC    CODE     ---       _timer_inc_sec
      010084BDH   PUBLIC    CODE     ---       _timer_get_sec
      01008110H   PUBLIC    CODE     ---       _timer_inc_min
      010084A9H   PUBLIC    CODE     ---       _timer_get_min
      01007C5CH   PUBLIC    CODE     ---       _timer_inc_hour
      01008495H   PUBLIC    CODE     ---       _timer_get_hour
      010073BEH   PUBLIC    CODE     ---       _timer_save
      01008334H   PUBLIC    CODE     ---       timer_start
      01008C58H   PUBLIC    CODE     ---       _timer_set_mode
      00000020H.0 PUBLIC    BIT      BIT       ?timer_set_led_autorefresh?BIT
      02000014H   PUBLIC    XDATA    BYTE      ?timer_set_led_autorefresh?BYTE
      0100873DH   PUBLIC    CODE     ---       timer_set_led_autorefresh
      01008B33H   PUBLIC    CODE     ---       timer_leave_powersave
      01008946H   PUBLIC    CODE     ---       timer_enter_powersave
      010085F2H   PUBLIC    CODE     ---       timer_initialize
      01002D70H   PUBLIC    CODE     ---       timer_inc_ms39
      00000022H.1 SYMBOL    BIT      BIT       tmr_display
      00000022H.2 SYMBOL    BIT      BIT       tmr_countdown_stop
      020000A6H   SYMBOL    XDATA    ---       tmr
      020000BAH   SYMBOL    XDATA    BYTE      tmr_mode
      00000022H.3 SYMBOL    BIT      BIT       tmr_start
      00000022H.4 SYMBOL    BIT      BIT       tmr_disp_mmssms

      010052FBH   BLOCK     CODE     ---       LVL=0
      ---         BLOCKEND  ---      ---       LVL=0

      01002D70H   BLOCK     CODE     ---       LVL=0
      01002D70H   BLOCK     CODE     NEAR LAB  LVL=1
      00000007H   SYMBOL    DATA     BYTE      ms10
      ---         BLOCKEND  ---      ---       LVL=1
      01002D70H   LINE      CODE     ---       #18
      01002D70H   LINE      CODE     ---       #19
      01002D70H   LINE      CODE     ---       #22
      01002D76H   LINE      CODE     ---       #25
      01002D7CH   LINE      CODE     ---       #26
      01002D82H   LINE      CODE     ---       #27
      01002D88H   LINE      CODE     ---       #28
      01002D91H   LINE      CODE     ---       #29
      01002D94H   LINE      CODE     ---       #30
      01002D9DH   LINE      CODE     ---       #31
      01002DA0H   LINE      CODE     ---       #32
      01002DADH   LINE      CODE     ---       #33
      01002DADH   LINE      CODE     ---       #34
      01002DADH   LINE      CODE     ---       #35
      01002DADH   LINE      CODE     ---       #36
      01002DAFH   LINE      CODE     ---       #37
      01002DB2H   LINE      CODE     ---       #38
      01002DCAH   LINE      CODE     ---       #41
      01002DCAH   LINE      CODE     ---       #42
      01002DD0H   LINE      CODE     ---       #43
      01002DD4H   LINE      CODE     ---       #44
      01002DDAH   LINE      CODE     ---       #45
      01002DDEH   LINE      CODE     ---       #46
      01002DE1H   LINE      CODE     ---       #47
      01002DE7H   LINE      CODE     ---       #48
      01002DEBH   LINE      CODE     ---       #49
      01002DEEH   LINE      CODE     ---       #50
      01002DF7H   LINE      CODE     ---       #51
      01002DFAH   LINE      CODE     ---       #52
      01002DFAH   LINE      CODE     ---       #53
      01002DFAH   LINE      CODE     ---       #54
      01002DFAH   LINE      CODE     ---       #55
      01002DFAH   LINE      CODE     ---       #56
LX51 LINKER/LOCATER V4.66.87.0                                                        05/30/2018  19:50:23  PAGE 137


      01002DFCH   LINE      CODE     ---       #57
      01002DFEH   LINE      CODE     ---       #58
      01002E07H   LINE      CODE     ---       #59
      01002E07H   LINE      CODE     ---       #60
      01002E07H   LINE      CODE     ---       #61
      01002E07H   LINE      CODE     ---       #62
      01002E0AH   LINE      CODE     ---       #63
      01002E13H   LINE      CODE     ---       #64
      01002E16H   LINE      CODE     ---       #65
      01002E20H   LINE      CODE     ---       #66
      01002E24H   LINE      CODE     ---       #67
      01002E2DH   LINE      CODE     ---       #68
      01002E31H   LINE      CODE     ---       #69
      01002E36H   LINE      CODE     ---       #70
      01002E36H   LINE      CODE     ---       #71
      01002E38H   LINE      CODE     ---       #72
      01002E43H   LINE      CODE     ---       #73
      01002E46H   LINE      CODE     ---       #74
      01002E50H   LINE      CODE     ---       #75
      01002E53H   LINE      CODE     ---       #76
      01002E5DH   LINE      CODE     ---       #77
      01002E60H   LINE      CODE     ---       #78
      01002E60H   LINE      CODE     ---       #79
      01002E66H   LINE      CODE     ---       #80
      01002E6CH   LINE      CODE     ---       #81
      01002E6CH   LINE      CODE     ---       #82
      ---         BLOCKEND  ---      ---       LVL=0

      010085F2H   BLOCK     CODE     ---       LVL=0
      010085F2H   LINE      CODE     ---       #85
      010085F2H   LINE      CODE     ---       #86
      010085F2H   LINE      CODE     ---       #87
      010085FBH   LINE      CODE     ---       #89
      010085FDH   LINE      CODE     ---       #90
      010085FFH   LINE      CODE     ---       #91
      01008601H   LINE      CODE     ---       #92
      01008603H   LINE      CODE     ---       #93
      ---         BLOCKEND  ---      ---       LVL=0

      01008946H   BLOCK     CODE     ---       LVL=0
      01008946H   LINE      CODE     ---       #95
      01008946H   LINE      CODE     ---       #96
      01008946H   LINE      CODE     ---       #97
      0100894FH   LINE      CODE     ---       #98
      ---         BLOCKEND  ---      ---       LVL=0

      01008B33H   BLOCK     CODE     ---       LVL=0
      01008B33H   LINE      CODE     ---       #101
      01008B33H   LINE      CODE     ---       #102
      01008B33H   LINE      CODE     ---       #103
      ---         BLOCKEND  ---      ---       LVL=0

      0100873DH   BLOCK     CODE     ---       LVL=0
      00000020H.0 SYMBOL    BIT      BIT       enable
      02000014H   SYMBOL    XDATA    BYTE      mode
      0100873DH   LINE      CODE     ---       #106
      0100873DH   LINE      CODE     ---       #107
      0100873DH   LINE      CODE     ---       #108
      01008741H   LINE      CODE     ---       #109
      01008747H   LINE      CODE     ---       #110
      01008749H   LINE      CODE     ---       #111
      0100874AH   LINE      CODE     ---       #112
      0100874CH   LINE      CODE     ---       #113
      0100874CH   LINE      CODE     ---       #114
      ---         BLOCKEND  ---      ---       LVL=0
LX51 LINKER/LOCATER V4.66.87.0                                                        05/30/2018  19:50:23  PAGE 138



      01008C58H   BLOCK     CODE     ---       LVL=0
      00000007H   SYMBOL    DATA     BYTE      mode
      01008C58H   LINE      CODE     ---       #116
      01008C58H   LINE      CODE     ---       #117
      01008C58H   LINE      CODE     ---       #118
      01008C5DH   LINE      CODE     ---       #119
      ---         BLOCKEND  ---      ---       LVL=0

      01008334H   BLOCK     CODE     ---       LVL=0
      01008334H   LINE      CODE     ---       #121
      01008334H   LINE      CODE     ---       #122
      01008334H   LINE      CODE     ---       #123
      01008345H   LINE      CODE     ---       #124
      01008347H   LINE      CODE     ---       #125
      01008349H   LINE      CODE     ---       #126
      ---         BLOCKEND  ---      ---       LVL=0

      010073BEH   BLOCK     CODE     ---       LVL=0
      00000007H   SYMBOL    DATA     BYTE      slot
      010073BEH   LINE      CODE     ---       #128
      010073BEH   LINE      CODE     ---       #129
      010073BEH   LINE      CODE     ---       #130
      010073C9H   LINE      CODE     ---       #131
      010073E7H   LINE      CODE     ---       #132
      010073E7H   LINE      CODE     ---       #133
      ---         BLOCKEND  ---      ---       LVL=0

      01008495H   BLOCK     CODE     ---       LVL=0
      00000007H   SYMBOL    DATA     BYTE      slot
      01008495H   LINE      CODE     ---       #135
      01008495H   LINE      CODE     ---       #136
      01008495H   LINE      CODE     ---       #137
      010084A0H   LINE      CODE     ---       #138
      010084A6H   LINE      CODE     ---       #139
      010084A6H   LINE      CODE     ---       #140
      010084A8H   LINE      CODE     ---       #141
      ---         BLOCKEND  ---      ---       LVL=0

      01007C5CH   BLOCK     CODE     ---       LVL=0
      00000007H   SYMBOL    DATA     BYTE      slot
      01007C5CH   LINE      CODE     ---       #142
      01007C5CH   LINE      CODE     ---       #143
      01007C5CH   LINE      CODE     ---       #144
      01007C67H   LINE      CODE     ---       #145
      01007C77H   LINE      CODE     ---       #146
      01007C77H   LINE      CODE     ---       #147
      ---         BLOCKEND  ---      ---       LVL=0

      010084A9H   BLOCK     CODE     ---       LVL=0
      00000007H   SYMBOL    DATA     BYTE      slot
      010084A9H   LINE      CODE     ---       #149
      010084A9H   LINE      CODE     ---       #150
      010084A9H   LINE      CODE     ---       #151
      010084B4H   LINE      CODE     ---       #152
      010084BAH   LINE      CODE     ---       #153
      010084BAH   LINE      CODE     ---       #154
      010084BCH   LINE      CODE     ---       #155
      ---         BLOCKEND  ---      ---       LVL=0

      01008110H   BLOCK     CODE     ---       LVL=0
      00000007H   SYMBOL    DATA     BYTE      slot
      01008110H   LINE      CODE     ---       #156
      01008110H   LINE      CODE     ---       #157
      01008110H   LINE      CODE     ---       #158
LX51 LINKER/LOCATER V4.66.87.0                                                        05/30/2018  19:50:23  PAGE 139


      0100811BH   LINE      CODE     ---       #159
      01008127H   LINE      CODE     ---       #160
      01008127H   LINE      CODE     ---       #161
      ---         BLOCKEND  ---      ---       LVL=0

      010084BDH   BLOCK     CODE     ---       LVL=0
      00000007H   SYMBOL    DATA     BYTE      slot
      010084BDH   LINE      CODE     ---       #164
      010084BDH   LINE      CODE     ---       #165
      010084BDH   LINE      CODE     ---       #166
      010084C8H   LINE      CODE     ---       #167
      010084CEH   LINE      CODE     ---       #168
      010084CEH   LINE      CODE     ---       #169
      010084D0H   LINE      CODE     ---       #170
      ---         BLOCKEND  ---      ---       LVL=0

      01008128H   BLOCK     CODE     ---       LVL=0
      00000007H   SYMBOL    DATA     BYTE      slot
      01008128H   LINE      CODE     ---       #171
      01008128H   LINE      CODE     ---       #172
      01008128H   LINE      CODE     ---       #173
      01008133H   LINE      CODE     ---       #174
      0100813FH   LINE      CODE     ---       #175
      0100813FH   LINE      CODE     ---       #176
      ---         BLOCKEND  ---      ---       LVL=0

      01007910H   BLOCK     CODE     ---       LVL=0
      00000007H   SYMBOL    DATA     BYTE      slot
      01007910H   LINE      CODE     ---       #178
      01007910H   LINE      CODE     ---       #179
      01007910H   LINE      CODE     ---       #181
      0100791BH   LINE      CODE     ---       #182
      0100792FH   LINE      CODE     ---       #183
      0100792FH   LINE      CODE     ---       #184
      01007931H   LINE      CODE     ---       #185
      ---         BLOCKEND  ---      ---       LVL=0

      01008CEDH   BLOCK     CODE     ---       LVL=0
      01008CEDH   LINE      CODE     ---       #187
      01008CEDH   LINE      CODE     ---       #188
      01008CEDH   LINE      CODE     ---       #189
      01008CEFH   LINE      CODE     ---       #190
      ---         BLOCKEND  ---      ---       LVL=0

      01008140H   BLOCK     CODE     ---       LVL=0
      01008140H   LINE      CODE     ---       #192
      01008140H   LINE      CODE     ---       #193
      01008140H   LINE      CODE     ---       #194
      0100814FH   LINE      CODE     ---       #196
      01008151H   LINE      CODE     ---       #197
      01008153H   LINE      CODE     ---       #198
      01008155H   LINE      CODE     ---       #199
      01008157H   LINE      CODE     ---       #200
      ---         BLOCKEND  ---      ---       LVL=0

      ---         MODULE    ---      ---       INT_HUB
      010057A4H   PUBLIC    CODE     ---       _scan_int_hub_proc
      01000F4CH   PUBLIC    CODE     ---       _int_hub_dump_ext_status
      010054FFH   PUBLIC    CODE     ---       int_hub_get_status
      01005624H   PUBLIC    CODE     ---       int_hub_dump
      01007559H   PUBLIC    CODE     ---       _int_hub_test_bit
      0100514DH   PUBLIC    CODE     ---       int_hub_initialize
      00000080H   SFRSYM    DATA     BYTE      P0
      00000090H   SFRSYM    DATA     BYTE      P1
      000000A0H   SFRSYM    DATA     BYTE      P2
LX51 LINKER/LOCATER V4.66.87.0                                                        05/30/2018  19:50:23  PAGE 140


      000000B0H   SFRSYM    DATA     BYTE      P3
      000000C0H   SFRSYM    DATA     BYTE      XICON
      000000B0H.4 SFRSYM    DATA     BIT       T0
      000000D0H.6 SFRSYM    DATA     BIT       AC
      000000E8H   SFRSYM    DATA     BYTE      P4
      000000B0H.5 SFRSYM    DATA     BIT       T1
      000000E6H   SFRSYM    DATA     BYTE      ISP_TRIG
      00000090H.0 SFRSYM    DATA     BIT       T2
      000000A8H.7 SFRSYM    DATA     BIT       EA
      000000A8H.6 SFRSYM    DATA     BIT       EC
      00000098H.7 SFRSYM    DATA     BIT       FE
      000000A8H   SFRSYM    DATA     BYTE      IE
      000000C8H.6 SFRSYM    DATA     BIT       EXF2
      000000B0H.7 SFRSYM    DATA     BIT       RD
      000000A8H.4 SFRSYM    DATA     BIT       ES
      000000B8H   SFRSYM    DATA     BYTE      IP
      00000098H.0 SFRSYM    DATA     BIT       RI
      000000B0H.2 SFRSYM    DATA     BIT       INT0
      000000D0H.7 SFRSYM    DATA     BIT       CY
      00000098H.1 SFRSYM    DATA     BIT       TI
      000000B0H.3 SFRSYM    DATA     BIT       INT1
      00000090H.3 SFRSYM    DATA     BIT       THERMO_INT
      000000CBH   SFRSYM    DATA     BYTE      RCAP2H
      000000E5H   SFRSYM    DATA     BYTE      ISP_CMD
      000000B8H.4 SFRSYM    DATA     BIT       PS
      00000081H   SFRSYM    DATA     BYTE      SP
      00000090H.1 SFRSYM    DATA     BIT       T2EX
      000000D0H.2 SFRSYM    DATA     BIT       OV
      000000CAH   SFRSYM    DATA     BYTE      RCAP2L
      000000C8H.1 SFRSYM    DATA     BIT       C_T2
      000000B0H.6 SFRSYM    DATA     BIT       WR
      000000B0H.3 SFRSYM    DATA     BIT       INT_BIT
      000000C8H.5 SFRSYM    DATA     BIT       RCLK
      000000C8H.4 SFRSYM    DATA     BIT       TCLK
      00000080H.0 SFRSYM    DATA     BIT       P00
      00000099H   SFRSYM    DATA     BYTE      SBUF
      00000087H   SFRSYM    DATA     BYTE      PCON
      00000090H.0 SFRSYM    DATA     BIT       P10
      00000080H.1 SFRSYM    DATA     BIT       P01
      000000A0H.0 SFRSYM    DATA     BIT       P20
      00000090H.1 SFRSYM    DATA     BIT       P11
      00000080H.2 SFRSYM    DATA     BIT       P02
      000000E3H   SFRSYM    DATA     BYTE      ISP_ADDRH
      000000B0H.0 SFRSYM    DATA     BIT       P30
      000000A0H.1 SFRSYM    DATA     BIT       P21
      00000090H.2 SFRSYM    DATA     BIT       P12
      00000080H.3 SFRSYM    DATA     BIT       P03
      00000098H   SFRSYM    DATA     BYTE      SCON
      000000B0H.1 SFRSYM    DATA     BIT       P31
      000000A0H.2 SFRSYM    DATA     BIT       P22
      00000090H.3 SFRSYM    DATA     BIT       P13
      00000080H.4 SFRSYM    DATA     BIT       P04
      000000E8H.0 SFRSYM    DATA     BIT       P40
      00000089H   SFRSYM    DATA     BYTE      TMOD
      00000088H   SFRSYM    DATA     BYTE      TCON
      000000B0H.2 SFRSYM    DATA     BIT       P32
      000000A0H.3 SFRSYM    DATA     BIT       P23
      00000090H.4 SFRSYM    DATA     BIT       P14
      00000080H.5 SFRSYM    DATA     BIT       P05
      000000E8H.1 SFRSYM    DATA     BIT       P41
      00000090H.1 SFRSYM    DATA     BIT       RTC_INT
      000000B0H.3 SFRSYM    DATA     BIT       P33
      000000A0H.4 SFRSYM    DATA     BIT       P24
      00000090H.5 SFRSYM    DATA     BIT       P15
      00000080H.6 SFRSYM    DATA     BIT       P06
LX51 LINKER/LOCATER V4.66.87.0                                                        05/30/2018  19:50:23  PAGE 141


      000000E4H   SFRSYM    DATA     BYTE      ISP_ADDRL
      000000E8H.2 SFRSYM    DATA     BIT       P42
      000000B0H.4 SFRSYM    DATA     BIT       P34
      000000A0H.5 SFRSYM    DATA     BIT       P25
      00000090H.6 SFRSYM    DATA     BIT       P16
      00000080H.7 SFRSYM    DATA     BIT       P07
      000000E8H.3 SFRSYM    DATA     BIT       P43
      000000B0H.5 SFRSYM    DATA     BIT       P35
      000000A0H.6 SFRSYM    DATA     BIT       P26
      00000090H.7 SFRSYM    DATA     BIT       P17
      000000E8H.4 SFRSYM    DATA     BIT       P44
      000000B0H.6 SFRSYM    DATA     BIT       P36
      000000A0H.7 SFRSYM    DATA     BIT       P27
      000000E8H.5 SFRSYM    DATA     BIT       P45
      000000B0H.7 SFRSYM    DATA     BIT       P37
      000000E8H.6 SFRSYM    DATA     BIT       P46
      00000090H.4 SFRSYM    DATA     BIT       EXT_INT
      00000088H.1 SFRSYM    DATA     BIT       IE0
      00000090H.2 SFRSYM    DATA     BIT       MPU_INT
      00000088H.3 SFRSYM    DATA     BIT       IE1
      0000008EH   SFRSYM    DATA     BYTE      AUXR
      000000F0H   SFRSYM    DATA     BYTE      B
      000000C8H.0 SFRSYM    DATA     BIT       CP_RL2
      000000E0H   SFRSYM    DATA     BYTE      ACC
      000000A8H.1 SFRSYM    DATA     BIT       ET0
      000000A8H.3 SFRSYM    DATA     BIT       ET1
      00000088H.5 SFRSYM    DATA     BIT       TF0
      000000A8H.5 SFRSYM    DATA     BIT       ET2
      00000088H.7 SFRSYM    DATA     BIT       TF1
      000000C8H.7 SFRSYM    DATA     BIT       TF2
      00000098H.2 SFRSYM    DATA     BIT       RB8
      0000008CH   SFRSYM    DATA     BYTE      TH0
      000000A8H.0 SFRSYM    DATA     BIT       EX0
      00000088H.0 SFRSYM    DATA     BIT       IT0
      0000008DH   SFRSYM    DATA     BYTE      TH1
      00000098H.3 SFRSYM    DATA     BIT       TB8
      000000A8H.2 SFRSYM    DATA     BIT       EX1
      00000088H.2 SFRSYM    DATA     BIT       IT1
      000000CDH   SFRSYM    DATA     BYTE      TH2
      000000D0H.0 SFRSYM    DATA     BIT       P
      00000098H.7 SFRSYM    DATA     BIT       SM0
      0000008AH   SFRSYM    DATA     BYTE      TL0
      00000098H.6 SFRSYM    DATA     BIT       SM1
      0000008BH   SFRSYM    DATA     BYTE      TL1
      00000098H.5 SFRSYM    DATA     BIT       SM2
      000000CCH   SFRSYM    DATA     BYTE      TL2
      000000B8H.1 SFRSYM    DATA     BIT       PT0
      000000B8H.3 SFRSYM    DATA     BIT       PT1
      000000D0H.3 SFRSYM    DATA     BIT       RS0
      000000E7H   SFRSYM    DATA     BYTE      ISP_CONTR
      000000B8H.5 SFRSYM    DATA     BIT       PT2
      00000088H.4 SFRSYM    DATA     BIT       TR0
      000000D0H.4 SFRSYM    DATA     BIT       RS1
      00000088H.6 SFRSYM    DATA     BIT       TR1
      000000C8H.2 SFRSYM    DATA     BIT       TR2
      000000B8H.0 SFRSYM    DATA     BIT       PX0
      000000E1H   SFRSYM    DATA     BYTE      WDT_CONTR
      000000B8H.2 SFRSYM    DATA     BIT       PX1
      00000083H   SFRSYM    DATA     BYTE      DPH
      00000082H   SFRSYM    DATA     BYTE      DPL
      000000B7H   SFRSYM    DATA     BYTE      IPH
      000000C8H.3 SFRSYM    DATA     BIT       EXEN2
      00000098H.4 SFRSYM    DATA     BIT       REN
      000000C9H   SFRSYM    DATA     BYTE      T2MOD
      000000C8H   SFRSYM    DATA     BYTE      T2CON
LX51 LINKER/LOCATER V4.66.87.0                                                        05/30/2018  19:50:23  PAGE 142


      000000E2H   SFRSYM    DATA     BYTE      ISP_DATA
      000000B9H   SFRSYM    DATA     BYTE      SADEN
      000000B0H.0 SFRSYM    DATA     BIT       RXD
      000000A9H   SFRSYM    DATA     BYTE      SADDR
      000000B0H.1 SFRSYM    DATA     BIT       TXD
      000000A2H   SFRSYM    DATA     BYTE      AUXR1
      000000D0H.5 SFRSYM    DATA     BIT       F0
      000000D0H   SFRSYM    DATA     BYTE      PSW
      0100870CH   SYMBOL    CODE     ---       int1_ISR

      01008595H   BLOCK     CODE     ---       LVL=0
      ---         BLOCKEND  ---      ---       LVL=0

      0100870CH   BLOCK     CODE     ---       LVL=0
      0100870CH   LINE      CODE     ---       #29
      01008713H   LINE      CODE     ---       #31
      01008715H   LINE      CODE     ---       #32
      01008718H   LINE      CODE     ---       #33
      ---         BLOCKEND  ---      ---       LVL=0

      0100514DH   BLOCK     CODE     ---       LVL=0
      0100514DH   BLOCK     CODE     NEAR LAB  LVL=1
      02000000H   SYMBOL    XDATA    BYTE      val
      ---         BLOCKEND  ---      ---       LVL=1
      0100514DH   LINE      CODE     ---       #35
      0100514DH   LINE      CODE     ---       #36
      0100514DH   LINE      CODE     ---       #38
      01005156H   LINE      CODE     ---       #40
      0100515FH   LINE      CODE     ---       #42
      01005161H   LINE      CODE     ---       #46
      0100516BH   LINE      CODE     ---       #47
      01005172H   LINE      CODE     ---       #50
      0100517BH   LINE      CODE     ---       #52
      0100517DH   LINE      CODE     ---       #55
      01005187H   LINE      CODE     ---       #56
      0100518EH   LINE      CODE     ---       #58
      01005190H   LINE      CODE     ---       #59
      01005192H   LINE      CODE     ---       #60
      01005194H   LINE      CODE     ---       #61
      01005196H   LINE      CODE     ---       #62
      01005198H   LINE      CODE     ---       #64
      0100519AH   LINE      CODE     ---       #65
      0100519CH   LINE      CODE     ---       #66
      ---         BLOCKEND  ---      ---       LVL=0

      01007559H   BLOCK     CODE     ---       LVL=0
      00000007H   SYMBOL    DATA     BYTE      index
      00000004H   SYMBOL    DATA     WORD      status
      01007559H   LINE      CODE     ---       #69
      01007559H   LINE      CODE     ---       #70
      01007559H   LINE      CODE     ---       #71
      0100755FH   LINE      CODE     ---       #72
      01007560H   LINE      CODE     ---       #74
      0100757FH   LINE      CODE     ---       #75
      ---         BLOCKEND  ---      ---       LVL=0

      01005624H   BLOCK     CODE     ---       LVL=0
      01005624H   LINE      CODE     ---       #77
      01005624H   LINE      CODE     ---       #78
      01005624H   LINE      CODE     ---       #80
      0100562DH   LINE      CODE     ---       #81
      0100563AH   LINE      CODE     ---       #82
      01005648H   LINE      CODE     ---       #83
      01005656H   LINE      CODE     ---       #84
      01005664H   LINE      CODE     ---       #85
LX51 LINKER/LOCATER V4.66.87.0                                                        05/30/2018  19:50:23  PAGE 143


      0100566EH   LINE      CODE     ---       #86
      ---         BLOCKEND  ---      ---       LVL=0

      010054FFH   BLOCK     CODE     ---       LVL=0
      010054FFH   BLOCK     CODE     NEAR LAB  LVL=1
      02000016H   SYMBOL    XDATA    WORD      status
      02000018H   SYMBOL    XDATA    BYTE      val
      ---         BLOCKEND  ---      ---       LVL=1
      010054FFH   LINE      CODE     ---       #88
      010054FFH   LINE      CODE     ---       #89
      010054FFH   LINE      CODE     ---       #90
      01005506H   LINE      CODE     ---       #93
      01005513H   LINE      CODE     ---       #94
      01005517H   LINE      CODE     ---       #95
      0100551FH   LINE      CODE     ---       #97
      01005528H   LINE      CODE     ---       #98
      01005535H   LINE      CODE     ---       #99
      01005539H   LINE      CODE     ---       #100
      0100554BH   LINE      CODE     ---       #102
      0100554BH   LINE      CODE     ---       #103
      ---         BLOCKEND  ---      ---       LVL=0

      01000F4CH   BLOCK     CODE     ---       LVL=0
      02000016H   SYMBOL    XDATA    WORD      status
      01000F4CH   LINE      CODE     ---       #105
      01000F54H   LINE      CODE     ---       #106
      01000F54H   LINE      CODE     ---       #107
      01000F5DH   LINE      CODE     ---       #108
      01000F7EH   LINE      CODE     ---       #109
      01000F96H   LINE      CODE     ---       #110
      01000FAEH   LINE      CODE     ---       #111
      01000FC6H   LINE      CODE     ---       #112
      01000FDEH   LINE      CODE     ---       #113
      01000FF6H   LINE      CODE     ---       #114
      0100100EH   LINE      CODE     ---       #115
      01001026H   LINE      CODE     ---       #116
      0100103EH   LINE      CODE     ---       #117
      01001056H   LINE      CODE     ---       #118
      0100106EH   LINE      CODE     ---       #119
      01001086H   LINE      CODE     ---       #120
      0100109EH   LINE      CODE     ---       #121
      010010B6H   LINE      CODE     ---       #122
      010010D1H   LINE      CODE     ---       #123
      010010F1H   LINE      CODE     ---       #124
      010010FAH   LINE      CODE     ---       #125
      ---         BLOCKEND  ---      ---       LVL=0

      010057A4H   BLOCK     CODE     ---       LVL=0
      02000013H   SYMBOL    XDATA    BYTE      ev
      010057A9H   BLOCK     CODE     NEAR LAB  LVL=1
      02000014H   SYMBOL    XDATA    WORD      status
      ---         BLOCKEND  ---      ---       LVL=1
      010057A4H   LINE      CODE     ---       #127
      010057A9H   LINE      CODE     ---       #128
      010057A9H   LINE      CODE     ---       #129
      010057AEH   LINE      CODE     ---       #130
      010057B7H   LINE      CODE     ---       #132
      010057B7H   LINE      CODE     ---       #134
      010057BAH   LINE      CODE     ---       #136
      010057BDH   LINE      CODE     ---       #137
      010057C0H   LINE      CODE     ---       #138
      010057C0H   LINE      CODE     ---       #141
      010057C3H   LINE      CODE     ---       #149
      010057CEH   LINE      CODE     ---       #150
      010057D1H   LINE      CODE     ---       #151
LX51 LINKER/LOCATER V4.66.87.0                                                        05/30/2018  19:50:23  PAGE 144


      010057DCH   LINE      CODE     ---       #152
      010057E7H   LINE      CODE     ---       #153
      010057E7H   LINE      CODE     ---       #156
      010057EAH   LINE      CODE     ---       #157
      010057EDH   LINE      CODE     ---       #158
      010057EDH   LINE      CODE     ---       #160
      010057F0H   LINE      CODE     ---       #161
      010057F3H   LINE      CODE     ---       #162
      010057F3H   LINE      CODE     ---       #164
      010057FFH   LINE      CODE     ---       #165
      01005802H   LINE      CODE     ---       #166
      01005802H   LINE      CODE     ---       #167
      ---         BLOCKEND  ---      ---       LVL=0

      ---         MODULE    ---      ---       FUSE
      00000020H.1 PUBLIC    BIT      BIT       ?fuse_enable?BIT
      01007509H   PUBLIC    CODE     ---       fuse_enable
      00000020H.0 PUBLIC    BIT      BIT       ?fuse_set_tripwire_broke?BIT
      01007641H   PUBLIC    CODE     ---       fuse_set_tripwire_broke
      00000020H.0 PUBLIC    BIT      BIT       ?_fuse_set_fuse_broke?BIT
      01006831H   PUBLIC    CODE     ---       _fuse_set_fuse_broke
      01007F7EH   PUBLIC    CODE     ---       _fuse_proc
      010049E7H   PUBLIC    CODE     ---       _scan_fuse
      01008B45H   PUBLIC    CODE     ---       fuse_leave_powersave
      01008B3CH   PUBLIC    CODE     ---       fuse_enter_powersave
      00000020H.0 PUBLIC    BIT      BIT       ?fuse_trigger?BIT
      01006C80H   PUBLIC    CODE     ---       fuse_trigger
      01008952H   PUBLIC    CODE     ---       fuse_initialize
      00000080H   SFRSYM    DATA     BYTE      P0
      00000090H   SFRSYM    DATA     BYTE      P1
      000000A0H   SFRSYM    DATA     BYTE      P2
      000000B0H   SFRSYM    DATA     BYTE      P3
      000000C0H   SFRSYM    DATA     BYTE      XICON
      000000B0H.4 SFRSYM    DATA     BIT       T0
      000000D0H.6 SFRSYM    DATA     BIT       AC
      000000E8H   SFRSYM    DATA     BYTE      P4
      000000B0H.5 SFRSYM    DATA     BIT       T1
      000000E6H   SFRSYM    DATA     BYTE      ISP_TRIG
      00000090H.0 SFRSYM    DATA     BIT       T2
      000000A8H.7 SFRSYM    DATA     BIT       EA
      000000A8H.6 SFRSYM    DATA     BIT       EC
      00000098H.7 SFRSYM    DATA     BIT       FE
      000000A8H   SFRSYM    DATA     BYTE      IE
      000000C8H.6 SFRSYM    DATA     BIT       EXF2
      000000B0H.7 SFRSYM    DATA     BIT       RD
      000000A8H.4 SFRSYM    DATA     BIT       ES
      000000B8H   SFRSYM    DATA     BYTE      IP
      00000098H.0 SFRSYM    DATA     BIT       RI
      000000B0H.2 SFRSYM    DATA     BIT       INT0
      000000D0H.7 SFRSYM    DATA     BIT       CY
      00000098H.1 SFRSYM    DATA     BIT       TI
      000000B0H.3 SFRSYM    DATA     BIT       INT1
      000000CBH   SFRSYM    DATA     BYTE      RCAP2H
      000000E5H   SFRSYM    DATA     BYTE      ISP_CMD
      000000B8H.4 SFRSYM    DATA     BIT       PS
      00000081H   SFRSYM    DATA     BYTE      SP
      00000090H.1 SFRSYM    DATA     BIT       T2EX
      000000D0H.2 SFRSYM    DATA     BIT       OV
      000000CAH   SFRSYM    DATA     BYTE      RCAP2L
      000000C8H.1 SFRSYM    DATA     BIT       C_T2
      000000B0H.6 SFRSYM    DATA     BIT       WR
      000000C8H.5 SFRSYM    DATA     BIT       RCLK
      000000C8H.4 SFRSYM    DATA     BIT       TCLK
      00000080H.0 SFRSYM    DATA     BIT       P00
      00000099H   SFRSYM    DATA     BYTE      SBUF
LX51 LINKER/LOCATER V4.66.87.0                                                        05/30/2018  19:50:23  PAGE 145


      00000087H   SFRSYM    DATA     BYTE      PCON
      00000090H.0 SFRSYM    DATA     BIT       P10
      00000080H.1 SFRSYM    DATA     BIT       P01
      000000A0H.0 SFRSYM    DATA     BIT       P20
      00000090H.1 SFRSYM    DATA     BIT       P11
      00000080H.2 SFRSYM    DATA     BIT       P02
      000000E3H   SFRSYM    DATA     BYTE      ISP_ADDRH
      000000B0H.0 SFRSYM    DATA     BIT       P30
      000000A0H.1 SFRSYM    DATA     BIT       P21
      00000090H.2 SFRSYM    DATA     BIT       P12
      00000080H.3 SFRSYM    DATA     BIT       P03
      00000098H   SFRSYM    DATA     BYTE      SCON
      000000B0H.1 SFRSYM    DATA     BIT       P31
      000000A0H.2 SFRSYM    DATA     BIT       P22
      00000090H.3 SFRSYM    DATA     BIT       P13
      00000080H.4 SFRSYM    DATA     BIT       P04
      000000E8H.0 SFRSYM    DATA     BIT       P40
      00000089H   SFRSYM    DATA     BYTE      TMOD
      00000088H   SFRSYM    DATA     BYTE      TCON
      000000B0H.2 SFRSYM    DATA     BIT       P32
      000000A0H.3 SFRSYM    DATA     BIT       P23
      00000090H.4 SFRSYM    DATA     BIT       P14
      00000080H.5 SFRSYM    DATA     BIT       P05
      000000E8H.1 SFRSYM    DATA     BIT       P41
      000000B0H.3 SFRSYM    DATA     BIT       P33
      000000A0H.4 SFRSYM    DATA     BIT       P24
      00000090H.5 SFRSYM    DATA     BIT       P15
      00000080H.6 SFRSYM    DATA     BIT       P06
      000000E4H   SFRSYM    DATA     BYTE      ISP_ADDRL
      000000E8H.2 SFRSYM    DATA     BIT       P42
      000000B0H.4 SFRSYM    DATA     BIT       P34
      000000A0H.5 SFRSYM    DATA     BIT       P25
      00000090H.6 SFRSYM    DATA     BIT       P16
      00000080H.7 SFRSYM    DATA     BIT       P07
      000000E8H.3 SFRSYM    DATA     BIT       P43
      000000B0H.5 SFRSYM    DATA     BIT       P35
      000000A0H.6 SFRSYM    DATA     BIT       P26
      00000090H.7 SFRSYM    DATA     BIT       P17
      000000E8H.4 SFRSYM    DATA     BIT       P44
      000000B0H.6 SFRSYM    DATA     BIT       P36
      000000A0H.7 SFRSYM    DATA     BIT       P27
      000000E8H.5 SFRSYM    DATA     BIT       P45
      000000B0H.7 SFRSYM    DATA     BIT       P37
      000000E8H.6 SFRSYM    DATA     BIT       P46
      00000088H.1 SFRSYM    DATA     BIT       IE0
      00000088H.3 SFRSYM    DATA     BIT       IE1
      0000008EH   SFRSYM    DATA     BYTE      AUXR
      000000F0H   SFRSYM    DATA     BYTE      B
      000000C8H.0 SFRSYM    DATA     BIT       CP_RL2
      000000E0H   SFRSYM    DATA     BYTE      ACC
      000000A8H.1 SFRSYM    DATA     BIT       ET0
      000000A8H.3 SFRSYM    DATA     BIT       ET1
      00000088H.5 SFRSYM    DATA     BIT       TF0
      000000A8H.5 SFRSYM    DATA     BIT       ET2
      00000088H.7 SFRSYM    DATA     BIT       TF1
      000000C8H.7 SFRSYM    DATA     BIT       TF2
      00000098H.2 SFRSYM    DATA     BIT       RB8
      0000008CH   SFRSYM    DATA     BYTE      TH0
      000000A8H.0 SFRSYM    DATA     BIT       EX0
      00000088H.0 SFRSYM    DATA     BIT       IT0
      0000008DH   SFRSYM    DATA     BYTE      TH1
      00000098H.3 SFRSYM    DATA     BIT       TB8
      000000A8H.2 SFRSYM    DATA     BIT       EX1
      00000088H.2 SFRSYM    DATA     BIT       IT1
      000000CDH   SFRSYM    DATA     BYTE      TH2
LX51 LINKER/LOCATER V4.66.87.0                                                        05/30/2018  19:50:23  PAGE 146


      000000D0H.0 SFRSYM    DATA     BIT       P
      00000098H.7 SFRSYM    DATA     BIT       SM0
      0000008AH   SFRSYM    DATA     BYTE      TL0
      00000098H.6 SFRSYM    DATA     BIT       SM1
      0000008BH   SFRSYM    DATA     BYTE      TL1
      00000098H.5 SFRSYM    DATA     BIT       SM2
      000000CCH   SFRSYM    DATA     BYTE      TL2
      000000B8H.1 SFRSYM    DATA     BIT       PT0
      000000B8H.3 SFRSYM    DATA     BIT       PT1
      000000D0H.3 SFRSYM    DATA     BIT       RS0
      000000E7H   SFRSYM    DATA     BYTE      ISP_CONTR
      000000B8H.5 SFRSYM    DATA     BIT       PT2
      00000088H.4 SFRSYM    DATA     BIT       TR0
      000000D0H.4 SFRSYM    DATA     BIT       RS1
      00000088H.6 SFRSYM    DATA     BIT       TR1
      000000C8H.2 SFRSYM    DATA     BIT       TR2
      000000B8H.0 SFRSYM    DATA     BIT       PX0
      000000E1H   SFRSYM    DATA     BYTE      WDT_CONTR
      000000B8H.2 SFRSYM    DATA     BIT       PX1
      00000083H   SFRSYM    DATA     BYTE      DPH
      00000082H   SFRSYM    DATA     BYTE      DPL
      000000B7H   SFRSYM    DATA     BYTE      IPH
      000000C8H.3 SFRSYM    DATA     BIT       EXEN2
      00000098H.4 SFRSYM    DATA     BIT       REN
      000000C9H   SFRSYM    DATA     BYTE      T2MOD
      000000C8H   SFRSYM    DATA     BYTE      T2CON
      000000E2H   SFRSYM    DATA     BYTE      ISP_DATA
      000000B9H   SFRSYM    DATA     BYTE      SADEN
      000000B0H.0 SFRSYM    DATA     BIT       RXD
      000000A9H   SFRSYM    DATA     BYTE      SADDR
      000000B0H.1 SFRSYM    DATA     BIT       TXD
      000000A2H   SFRSYM    DATA     BYTE      AUXR1
      000000D0H.5 SFRSYM    DATA     BIT       F0
      000000D0H   SFRSYM    DATA     BYTE      PSW
      01007580H   SYMBOL    CODE     ---       fuse_power_on
      010075A7H   SYMBOL    CODE     ---       fuse_power_off
      00000025H.2 SYMBOL    BIT      BIT       fuse_enabled

      01007580H   BLOCK     CODE     ---       LVL=0
      01007580H   LINE      CODE     ---       #17
      01007580H   LINE      CODE     ---       #18
      01007580H   LINE      CODE     ---       #19
      01007587H   LINE      CODE     ---       #20
      0100758EH   LINE      CODE     ---       #21
      0100758EH   LINE      CODE     ---       #22
      01007591H   LINE      CODE     ---       #23
      01007591H   LINE      CODE     ---       #24
      01007594H   LINE      CODE     ---       #25
      01007597H   LINE      CODE     ---       #26
      01007599H   LINE      CODE     ---       #27
      ---         BLOCKEND  ---      ---       LVL=0

      010075A7H   BLOCK     CODE     ---       LVL=0
      010075A7H   LINE      CODE     ---       #29
      010075A7H   LINE      CODE     ---       #30
      010075A7H   LINE      CODE     ---       #31
      010075AEH   LINE      CODE     ---       #32
      010075B5H   LINE      CODE     ---       #33
      010075B5H   LINE      CODE     ---       #34
      010075B8H   LINE      CODE     ---       #35
      010075B8H   LINE      CODE     ---       #36
      010075BBH   LINE      CODE     ---       #37
      010075BEH   LINE      CODE     ---       #38
      010075C0H   LINE      CODE     ---       #39
      ---         BLOCKEND  ---      ---       LVL=0
LX51 LINKER/LOCATER V4.66.87.0                                                        05/30/2018  19:50:23  PAGE 147



      01008952H   BLOCK     CODE     ---       LVL=0
      01008952H   LINE      CODE     ---       #41
      01008952H   LINE      CODE     ---       #42
      01008952H   LINE      CODE     ---       #43
      0100895BH   LINE      CODE     ---       #44
      ---         BLOCKEND  ---      ---       LVL=0

      01006C80H   BLOCK     CODE     ---       LVL=0
      00000020H.0 SYMBOL    BIT      BIT       enable
      01006C80H   LINE      CODE     ---       #48
      01006C80H   LINE      CODE     ---       #49
      01006C80H   LINE      CODE     ---       #50
      01006C95H   LINE      CODE     ---       #52
      01006C98H   LINE      CODE     ---       #55
      01006C9FH   LINE      CODE     ---       #58
      01006CA9H   LINE      CODE     ---       #59
      01006CB2H   LINE      CODE     ---       #60
      01006CB5H   LINE      CODE     ---       #61
      ---         BLOCKEND  ---      ---       LVL=0

      01008B3CH   BLOCK     CODE     ---       LVL=0
      01008B3CH   LINE      CODE     ---       #63
      01008B3CH   LINE      CODE     ---       #64
      01008B3CH   LINE      CODE     ---       #65
      ---         BLOCKEND  ---      ---       LVL=0

      01008B45H   BLOCK     CODE     ---       LVL=0
      01008B45H   LINE      CODE     ---       #68
      01008B45H   LINE      CODE     ---       #69
      01008B45H   LINE      CODE     ---       #70
      ---         BLOCKEND  ---      ---       LVL=0

      010049E7H   BLOCK     CODE     ---       LVL=0
      02000016H   SYMBOL    XDATA    WORD      status
      010049EFH   BLOCK     CODE     NEAR LAB  LVL=1
      00000020H.0 SYMBOL    BIT      BIT       has_event
      ---         BLOCKEND  ---      ---       LVL=1
      010049E7H   LINE      CODE     ---       #73
      010049EFH   LINE      CODE     ---       #74
      010049EFH   LINE      CODE     ---       #75
      010049F1H   LINE      CODE     ---       #76
      01004A02H   LINE      CODE     ---       #78
      01004A09H   LINE      CODE     ---       #79
      01004A12H   LINE      CODE     ---       #80
      01004A15H   LINE      CODE     ---       #81
      01004A1EH   LINE      CODE     ---       #82
      01004A20H   LINE      CODE     ---       #83
      01004A20H   LINE      CODE     ---       #85
      01004A27H   LINE      CODE     ---       #86
      01004A30H   LINE      CODE     ---       #87
      01004A33H   LINE      CODE     ---       #88
      01004A3CH   LINE      CODE     ---       #89
      01004A3EH   LINE      CODE     ---       #90
      01004A3EH   LINE      CODE     ---       #92
      01004A45H   LINE      CODE     ---       #93
      01004A4EH   LINE      CODE     ---       #94
      01004A51H   LINE      CODE     ---       #95
      01004A57H   LINE      CODE     ---       #96
      01004A59H   LINE      CODE     ---       #97
      01004A59H   LINE      CODE     ---       #99
      01004A61H   LINE      CODE     ---       #100
      01004A64H   LINE      CODE     ---       #101
      01004A64H   LINE      CODE     ---       #102
      ---         BLOCKEND  ---      ---       LVL=0
LX51 LINKER/LOCATER V4.66.87.0                                                        05/30/2018  19:50:23  PAGE 148



      01007F7EH   BLOCK     CODE     ---       LVL=0
      0200000CH   SYMBOL    XDATA    BYTE      ev
      01007F7EH   LINE      CODE     ---       #104
      01007F83H   LINE      CODE     ---       #105
      01007F83H   LINE      CODE     ---       #106
      01007F90H   LINE      CODE     ---       #107
      ---         BLOCKEND  ---      ---       LVL=0

      01006831H   BLOCK     CODE     ---       LVL=0
      02000012H   SYMBOL    XDATA    BYTE      index
      00000020H.0 SYMBOL    BIT      BIT       enable
      01006831H   LINE      CODE     ---       #111
      01006836H   LINE      CODE     ---       #112
      01006836H   LINE      CODE     ---       #113
      0100684FH   LINE      CODE     ---       #115
      01006852H   LINE      CODE     ---       #117
      01006858H   LINE      CODE     ---       #118
      01006861H   LINE      CODE     ---       #120
      0100686BH   LINE      CODE     ---       #122
      0100686EH   LINE      CODE     ---       #123
      ---         BLOCKEND  ---      ---       LVL=0

      01007641H   BLOCK     CODE     ---       LVL=0
      00000020H.0 SYMBOL    BIT      BIT       broke
      01007641H   LINE      CODE     ---       #125
      01007641H   LINE      CODE     ---       #126
      01007641H   LINE      CODE     ---       #127
      01007656H   LINE      CODE     ---       #129
      01007659H   LINE      CODE     ---       #131
      01007663H   LINE      CODE     ---       #132
      01007666H   LINE      CODE     ---       #133
      ---         BLOCKEND  ---      ---       LVL=0

      01007509H   BLOCK     CODE     ---       LVL=0
      00000020H.1 SYMBOL    BIT      BIT       enable
      01007509H   LINE      CODE     ---       #135
      01007509H   LINE      CODE     ---       #136
      01007509H   LINE      CODE     ---       #137
      0100751EH   LINE      CODE     ---       #139
      01007524H   LINE      CODE     ---       #140
      01007527H   LINE      CODE     ---       #141
      0100752DH   LINE      CODE     ---       #142
      01007530H   LINE      CODE     ---       #143
      01007530H   LINE      CODE     ---       #144
      ---         BLOCKEND  ---      ---       LVL=0

      ---         MODULE    ---      ---       HG
      01008616H   PUBLIC    CODE     ---       hg_get_state
      00000020H.1 PUBLIC    BIT      BIT       ?hg_enable?BIT
      01007531H   PUBLIC    CODE     ---       hg_enable
      0100896AH   PUBLIC    CODE     ---       hg_initialize
      01004E35H   PUBLIC    CODE     ---       _scan_hg
      01008B57H   PUBLIC    CODE     ---       hg_leave_powersave
      01008B4EH   PUBLIC    CODE     ---       hg_enter_powersave
      00000025H.3 SYMBOL    BIT      BIT       hg_enabled
      01007EF9H   SYMBOL    CODE     ---       hg_power_on
      020000E7H   SYMBOL    XDATA    BYTE      hg_state
      01008604H   SYMBOL    CODE     ---       __hg_get_state
      0100895EH   SYMBOL    CODE     ---       hg_cb_set_enable
      01008921H   SYMBOL    CODE     ---       hg_power_off

      010089EAH   BLOCK     CODE     ---       LVL=0
      ---         BLOCKEND  ---      ---       LVL=0

LX51 LINKER/LOCATER V4.66.87.0                                                        05/30/2018  19:50:23  PAGE 149


      01008B4EH   BLOCK     CODE     ---       LVL=0
      01008B4EH   LINE      CODE     ---       #15
      01008B4EH   LINE      CODE     ---       #16
      01008B4EH   LINE      CODE     ---       #17
      ---         BLOCKEND  ---      ---       LVL=0

      01008B57H   BLOCK     CODE     ---       LVL=0
      01008B57H   LINE      CODE     ---       #20
      01008B57H   LINE      CODE     ---       #21
      01008B57H   LINE      CODE     ---       #22
      ---         BLOCKEND  ---      ---       LVL=0

      01008604H   BLOCK     CODE     ---       LVL=0
      00000006H   SYMBOL    DATA     WORD      status
      01008604H   LINE      CODE     ---       #25
      01008604H   LINE      CODE     ---       #26
      01008604H   LINE      CODE     ---       #27
      01008615H   LINE      CODE     ---       #28
      ---         BLOCKEND  ---      ---       LVL=0

      0100895EH   BLOCK     CODE     ---       LVL=0
      0100895EH   LINE      CODE     ---       #30
      0100895EH   LINE      CODE     ---       #31
      0100895EH   LINE      CODE     ---       #32
      01008967H   LINE      CODE     ---       #33
      01008969H   LINE      CODE     ---       #34
      ---         BLOCKEND  ---      ---       LVL=0

      01004E35H   BLOCK     CODE     ---       LVL=0
      02000016H   SYMBOL    XDATA    WORD      status
      01004E3DH   BLOCK     CODE     NEAR LAB  LVL=1
      02000018H   SYMBOL    XDATA    BYTE      hg_new_state
      ---         BLOCKEND  ---      ---       LVL=1
      01004E35H   LINE      CODE     ---       #36
      01004E3DH   LINE      CODE     ---       #37
      01004E3DH   LINE      CODE     ---       #39
      01004E4EH   LINE      CODE     ---       #41
      01004E5CH   LINE      CODE     ---       #43
      01004E69H   LINE      CODE     ---       #45
      01004E75H   LINE      CODE     ---       #46
      01004E78H   LINE      CODE     ---       #47
      01004E81H   LINE      CODE     ---       #48
      01004E87H   LINE      CODE     ---       #49
      01004E87H   LINE      CODE     ---       #50
      01004E8CH   LINE      CODE     ---       #51
      01004E8FH   LINE      CODE     ---       #52
      01004E8FH   LINE      CODE     ---       #54
      01004EA1H   LINE      CODE     ---       #55
      01004EA9H   LINE      CODE     ---       #56
      01004EA9H   LINE      CODE     ---       #58
      ---         BLOCKEND  ---      ---       LVL=0

      01007EF9H   BLOCK     CODE     ---       LVL=0
      01007EF9H   LINE      CODE     ---       #60
      01007EF9H   LINE      CODE     ---       #61
      01007EF9H   LINE      CODE     ---       #62
      01007F00H   LINE      CODE     ---       #63
      01007F03H   LINE      CODE     ---       #64
      01007F09H   LINE      CODE     ---       #65
      ---         BLOCKEND  ---      ---       LVL=0

      01008921H   BLOCK     CODE     ---       LVL=0
      01008921H   LINE      CODE     ---       #68
      01008921H   LINE      CODE     ---       #69
      01008921H   LINE      CODE     ---       #70
LX51 LINKER/LOCATER V4.66.87.0                                                        05/30/2018  19:50:23  PAGE 150


      01008928H   LINE      CODE     ---       #71
      0100892BH   LINE      CODE     ---       #72
      0100892DH   LINE      CODE     ---       #73
      ---         BLOCKEND  ---      ---       LVL=0

      0100896AH   BLOCK     CODE     ---       LVL=0
      0100896AH   LINE      CODE     ---       #75
      0100896AH   LINE      CODE     ---       #76
      0100896AH   LINE      CODE     ---       #77
      01008973H   LINE      CODE     ---       #78
      ---         BLOCKEND  ---      ---       LVL=0

      01007531H   BLOCK     CODE     ---       LVL=0
      00000020H.1 SYMBOL    BIT      BIT       enable
      01007531H   LINE      CODE     ---       #81
      01007531H   LINE      CODE     ---       #82
      01007531H   LINE      CODE     ---       #83
      01007546H   LINE      CODE     ---       #84
      0100754CH   LINE      CODE     ---       #85
      0100754FH   LINE      CODE     ---       #87
      01007555H   LINE      CODE     ---       #88
      01007558H   LINE      CODE     ---       #89
      01007558H   LINE      CODE     ---       #90
      ---         BLOCKEND  ---      ---       LVL=0

      01008616H   BLOCK     CODE     ---       LVL=0
      01008616H   LINE      CODE     ---       #92
      01008616H   LINE      CODE     ---       #93
      01008616H   LINE      CODE     ---       #94
      01008622H   LINE      CODE     ---       #95
      01008627H   LINE      CODE     ---       #96
      ---         BLOCKEND  ---      ---       LVL=0

      ---         MODULE    ---      ---       LT_TIMER
      01006632H   PUBLIC    CODE     ---       lt_timer_sync_to_rtc
      00000020H.0 PUBLIC    BIT      BIT       ?lt_timer_get_relative?BIT
      01004861H   PUBLIC    CODE     ---       lt_timer_get_relative
      01005B93H   PUBLIC    CODE     ---       _lt_timer_save_to_rom
      01006674H   PUBLIC    CODE     ---       lt_timer_load_from_rom
      01004110H   PUBLIC    CODE     ---       lt_timer_dec_sec
      01008804H   PUBLIC    CODE     ---       lt_timer_reset
      00000020H.0 PUBLIC    BIT      BIT       ?lt_timer_display?BIT
      01007F98H   PUBLIC    CODE     ---       lt_timer_display
      01008229H   PUBLIC    CODE     ---       lt_timer_switch_display
      01008976H   PUBLIC    CODE     ---       lt_timer_stop_ram
      010088C0H   PUBLIC    CODE     ---       lt_timer_start_ram
      01007B55H   PUBLIC    CODE     ---       lt_timer_stop_rtc
      01007B37H   PUBLIC    CODE     ---       lt_timer_start_rtc
      01008C64H   PUBLIC    CODE     ---       lt_timer_get_date
      01008CBBH   PUBLIC    CODE     ---       lt_timer_get_sec
      01008CB6H   PUBLIC    CODE     ---       lt_timer_get_min
      01008CB1H   PUBLIC    CODE     ---       lt_timer_get_hour
      01008C5EH   PUBLIC    CODE     ---       lt_timer_get_month
      01008CACH   PUBLIC    CODE     ---       lt_timer_get_year
      01008A21H   PUBLIC    CODE     ---       lt_timer_inc_sec
      01008A16H   PUBLIC    CODE     ---       lt_timer_inc_min
      01008A0BH   PUBLIC    CODE     ---       lt_timer_inc_hour
      010085A8H   PUBLIC    CODE     ---       lt_timer_inc_date
      01008A00H   PUBLIC    CODE     ---       lt_timer_inc_month
      010089F5H   PUBLIC    CODE     ---       lt_timer_inc_year
      01006255H   PUBLIC    CODE     ---       scan_lt_timer
      01007840H   PUBLIC    CODE     ---       lt_timer_switch_off
      010083DFH   PUBLIC    CODE     ---       lt_timer_switch_on
      01007745H   PUBLIC    CODE     ---       lt_timer_leave_powersave
      010083CAH   PUBLIC    CODE     ---       lt_timer_enter_powersave
LX51 LINKER/LOCATER V4.66.87.0                                                        05/30/2018  19:50:23  PAGE 151


      00000020H.1 PUBLIC    BIT      BIT       ?lt_timer_set_hour_12?BIT
      01008CA7H   PUBLIC    CODE     ---       lt_timer_set_hour_12
      01008CF0H   PUBLIC    CODE     ---       lt_timer_get_hour_12
      010084D1H   PUBLIC    CODE     ---       lt_timer_initialize
      01002845H   SYMBOL    CODE     ---       lt_timer_sub_date
      00000021H.4 SYMBOL    BIT      BIT       lt_tmr_start
      0100B3B5H   SYMBOL    CONST    ---       leap_month
      01006A12H   SYMBOL    CODE     ---       lt_timer_sub_hour_date
      00000021H.5 SYMBOL    BIT      BIT       lt_tmr_disp_day
      00000048H   SYMBOL    IDATA    ---       ltm
      01007B73H   SYMBOL    CODE     ---       lt_timer_sub_sec_min
      010069D8H   SYMBOL    CODE     ---       lt_timer_sub_min_hour
      00000021H.6 SYMBOL    BIT      BIT       lt_timer_is_12
      00000021H.7 SYMBOL    BIT      BIT       lt_tmr_display
      00000022H.0 SYMBOL    BIT      BIT       lt_tmr_stopped

      01004521H   BLOCK     CODE     ---       LVL=0
      ---         BLOCKEND  ---      ---       LVL=0

      010084D1H   BLOCK     CODE     ---       LVL=0
      010084D1H   LINE      CODE     ---       #23
      010084D1H   LINE      CODE     ---       #24
      010084D1H   LINE      CODE     ---       #25
      010084DAH   LINE      CODE     ---       #26
      010084DCH   LINE      CODE     ---       #27
      010084DEH   LINE      CODE     ---       #28
      010084E0H   LINE      CODE     ---       #29
      010084E2H   LINE      CODE     ---       #30
      010084E4H   LINE      CODE     ---       #31
      ---         BLOCKEND  ---      ---       LVL=0

      01008CF0H   BLOCK     CODE     ---       LVL=0
      01008CF0H   LINE      CODE     ---       #33
      01008CF0H   LINE      CODE     ---       #34
      01008CF0H   LINE      CODE     ---       #35
      01008CF2H   LINE      CODE     ---       #36
      ---         BLOCKEND  ---      ---       LVL=0

      01008CA7H   BLOCK     CODE     ---       LVL=0
      00000020H.1 SYMBOL    BIT      BIT       val
      01008CA7H   LINE      CODE     ---       #38
      01008CA7H   LINE      CODE     ---       #39
      01008CA7H   LINE      CODE     ---       #40
      01008CABH   LINE      CODE     ---       #41
      ---         BLOCKEND  ---      ---       LVL=0

      010083CAH   BLOCK     CODE     ---       LVL=0
      010083CAH   LINE      CODE     ---       #43
      010083CAH   LINE      CODE     ---       #44
      010083CAH   LINE      CODE     ---       #45
      010083D3H   LINE      CODE     ---       #46
      010083D8H   LINE      CODE     ---       #47
      010083DBH   LINE      CODE     ---       #48
      010083DEH   LINE      CODE     ---       #49
      010083DEH   LINE      CODE     ---       #50
      ---         BLOCKEND  ---      ---       LVL=0

      01007745H   BLOCK     CODE     ---       LVL=0
      01007745H   LINE      CODE     ---       #52
      01007745H   LINE      CODE     ---       #53
      01007745H   LINE      CODE     ---       #54
      0100774EH   LINE      CODE     ---       #55
      01007753H   LINE      CODE     ---       #56
      01007756H   LINE      CODE     ---       #57
      01007759H   LINE      CODE     ---       #58
LX51 LINKER/LOCATER V4.66.87.0                                                        05/30/2018  19:50:23  PAGE 152


      01007761H   LINE      CODE     ---       #59
      01007761H   LINE      CODE     ---       #60
      01007764H   LINE      CODE     ---       #61
      01007765H   LINE      CODE     ---       #62
      01007768H   LINE      CODE     ---       #63
      01007768H   LINE      CODE     ---       #64
      01007768H   LINE      CODE     ---       #65
      ---         BLOCKEND  ---      ---       LVL=0

      010083DFH   BLOCK     CODE     ---       LVL=0
      010083DFH   LINE      CODE     ---       #67
      010083DFH   LINE      CODE     ---       #68
      010083DFH   LINE      CODE     ---       #69
      010083E8H   LINE      CODE     ---       #70
      010083EBH   LINE      CODE     ---       #71
      010083EEH   LINE      CODE     ---       #72
      010083F1H   LINE      CODE     ---       #73
      ---         BLOCKEND  ---      ---       LVL=0

      01007840H   BLOCK     CODE     ---       LVL=0
      01007840H   LINE      CODE     ---       #76
      01007840H   LINE      CODE     ---       #77
      01007840H   LINE      CODE     ---       #78
      01007849H   LINE      CODE     ---       #79
      0100784EH   LINE      CODE     ---       #80
      01007855H   LINE      CODE     ---       #81
      0100785BH   LINE      CODE     ---       #82
      01007860H   LINE      CODE     ---       #83
      ---         BLOCKEND  ---      ---       LVL=0

      01006255H   BLOCK     CODE     ---       LVL=0
      01006255H   BLOCK     CODE     NEAR LAB  LVL=1
      00000020H.0 SYMBOL    BIT      BIT       alarm0_hit
      ---         BLOCKEND  ---      ---       LVL=1
      01006255H   LINE      CODE     ---       #86
      01006255H   LINE      CODE     ---       #87
      01006255H   LINE      CODE     ---       #90
      0100625EH   LINE      CODE     ---       #92
      01006263H   LINE      CODE     ---       #93
      0100626AH   LINE      CODE     ---       #94
      0100626EH   LINE      CODE     ---       #95
      01006273H   LINE      CODE     ---       #97
      01006276H   LINE      CODE     ---       #98
      0100627BH   LINE      CODE     ---       #99
      01006293H   LINE      CODE     ---       #100
      01006293H   LINE      CODE     ---       #101
      01006298H   LINE      CODE     ---       #102
      0100629BH   LINE      CODE     ---       #103
      0100629BH   LINE      CODE     ---       #104
      0100629EH   LINE      CODE     ---       #105
      0100629EH   LINE      CODE     ---       #106
      0100629EH   LINE      CODE     ---       #107
      ---         BLOCKEND  ---      ---       LVL=0

      010089F5H   BLOCK     CODE     ---       LVL=0
      010089F5H   LINE      CODE     ---       #109
      010089F5H   LINE      CODE     ---       #110
      010089F5H   LINE      CODE     ---       #111
      010089FFH   LINE      CODE     ---       #112
      ---         BLOCKEND  ---      ---       LVL=0

      01008A00H   BLOCK     CODE     ---       LVL=0
      01008A00H   LINE      CODE     ---       #114
      01008A00H   LINE      CODE     ---       #115
      01008A00H   LINE      CODE     ---       #116
LX51 LINKER/LOCATER V4.66.87.0                                                        05/30/2018  19:50:23  PAGE 153


      01008A0AH   LINE      CODE     ---       #117
      ---         BLOCKEND  ---      ---       LVL=0

      010085A8H   BLOCK     CODE     ---       LVL=0
      010085A8H   LINE      CODE     ---       #119
      010085A8H   LINE      CODE     ---       #120
      010085A8H   LINE      CODE     ---       #121
      010085BAH   LINE      CODE     ---       #122
      ---         BLOCKEND  ---      ---       LVL=0

      01008A0BH   BLOCK     CODE     ---       LVL=0
      01008A0BH   LINE      CODE     ---       #124
      01008A0BH   LINE      CODE     ---       #125
      01008A0BH   LINE      CODE     ---       #126
      01008A15H   LINE      CODE     ---       #127
      ---         BLOCKEND  ---      ---       LVL=0

      01008A16H   BLOCK     CODE     ---       LVL=0
      01008A16H   LINE      CODE     ---       #129
      01008A16H   LINE      CODE     ---       #130
      01008A16H   LINE      CODE     ---       #131
      01008A20H   LINE      CODE     ---       #132
      ---         BLOCKEND  ---      ---       LVL=0

      01008A21H   BLOCK     CODE     ---       LVL=0
      01008A21H   LINE      CODE     ---       #134
      01008A21H   LINE      CODE     ---       #135
      01008A21H   LINE      CODE     ---       #136
      01008A2BH   LINE      CODE     ---       #137
      ---         BLOCKEND  ---      ---       LVL=0

      01008CACH   BLOCK     CODE     ---       LVL=0
      01008CACH   LINE      CODE     ---       #139
      01008CACH   LINE      CODE     ---       #140
      01008CACH   LINE      CODE     ---       #141
      01008CB0H   LINE      CODE     ---       #142
      ---         BLOCKEND  ---      ---       LVL=0

      01008C5EH   BLOCK     CODE     ---       LVL=0
      01008C5EH   LINE      CODE     ---       #144
      01008C5EH   LINE      CODE     ---       #145
      01008C5EH   LINE      CODE     ---       #146
      01008C63H   LINE      CODE     ---       #147
      ---         BLOCKEND  ---      ---       LVL=0

      01008CB1H   BLOCK     CODE     ---       LVL=0
      01008CB1H   LINE      CODE     ---       #149
      01008CB1H   LINE      CODE     ---       #150
      01008CB1H   LINE      CODE     ---       #151
      01008CB5H   LINE      CODE     ---       #152
      ---         BLOCKEND  ---      ---       LVL=0

      01008CB6H   BLOCK     CODE     ---       LVL=0
      01008CB6H   LINE      CODE     ---       #154
      01008CB6H   LINE      CODE     ---       #155
      01008CB6H   LINE      CODE     ---       #156
      01008CBAH   LINE      CODE     ---       #157
      ---         BLOCKEND  ---      ---       LVL=0

      01008CBBH   BLOCK     CODE     ---       LVL=0
      01008CBBH   LINE      CODE     ---       #159
      01008CBBH   LINE      CODE     ---       #160
      01008CBBH   LINE      CODE     ---       #161
      01008CBFH   LINE      CODE     ---       #162
      ---         BLOCKEND  ---      ---       LVL=0
LX51 LINKER/LOCATER V4.66.87.0                                                        05/30/2018  19:50:23  PAGE 154



      01008C64H   BLOCK     CODE     ---       LVL=0
      01008C64H   LINE      CODE     ---       #164
      01008C64H   LINE      CODE     ---       #165
      01008C64H   LINE      CODE     ---       #166
      01008C69H   LINE      CODE     ---       #167
      ---         BLOCKEND  ---      ---       LVL=0

      01007B37H   BLOCK     CODE     ---       LVL=0
      01007B37H   LINE      CODE     ---       #169
      01007B37H   LINE      CODE     ---       #170
      01007B37H   LINE      CODE     ---       #171
      01007B40H   LINE      CODE     ---       #172
      01007B45H   LINE      CODE     ---       #173
      01007B4CH   LINE      CODE     ---       #174
      01007B50H   LINE      CODE     ---       #175
      ---         BLOCKEND  ---      ---       LVL=0

      01007B55H   BLOCK     CODE     ---       LVL=0
      01007B55H   LINE      CODE     ---       #178
      01007B55H   LINE      CODE     ---       #179
      01007B55H   LINE      CODE     ---       #180
      01007B5EH   LINE      CODE     ---       #181
      01007B63H   LINE      CODE     ---       #182
      01007B6AH   LINE      CODE     ---       #183
      01007B6EH   LINE      CODE     ---       #184
      ---         BLOCKEND  ---      ---       LVL=0

      010088C0H   BLOCK     CODE     ---       LVL=0
      010088C0H   LINE      CODE     ---       #187
      010088C0H   LINE      CODE     ---       #188
      010088C0H   LINE      CODE     ---       #189
      010088C9H   LINE      CODE     ---       #190
      010088CBH   LINE      CODE     ---       #191
      010088CDH   LINE      CODE     ---       #192
      ---         BLOCKEND  ---      ---       LVL=0

      01008976H   BLOCK     CODE     ---       LVL=0
      01008976H   LINE      CODE     ---       #194
      01008976H   LINE      CODE     ---       #195
      01008976H   LINE      CODE     ---       #196
      0100897FH   LINE      CODE     ---       #197
      01008981H   LINE      CODE     ---       #198
      ---         BLOCKEND  ---      ---       LVL=0

      01008229H   BLOCK     CODE     ---       LVL=0
      01008229H   LINE      CODE     ---       #200
      01008229H   LINE      CODE     ---       #201
      01008229H   LINE      CODE     ---       #202
      0100822BH   LINE      CODE     ---       #203
      ---         BLOCKEND  ---      ---       LVL=0

      01007F98H   BLOCK     CODE     ---       LVL=0
      00000020H.0 SYMBOL    BIT      BIT       enable
      01007F98H   LINE      CODE     ---       #206
      01007F98H   LINE      CODE     ---       #207
      01007F98H   LINE      CODE     ---       #208
      01007FADH   LINE      CODE     ---       #209
      01007FB1H   LINE      CODE     ---       #210
      ---         BLOCKEND  ---      ---       LVL=0

      01008804H   BLOCK     CODE     ---       LVL=0
      01008804H   LINE      CODE     ---       #212
      01008804H   LINE      CODE     ---       #213
      01008804H   LINE      CODE     ---       #214
LX51 LINKER/LOCATER V4.66.87.0                                                        05/30/2018  19:50:23  PAGE 155


      01008807H   LINE      CODE     ---       #215
      0100880AH   LINE      CODE     ---       #216
      0100880CH   LINE      CODE     ---       #217
      0100880EH   LINE      CODE     ---       #218
      01008810H   LINE      CODE     ---       #219
      01008812H   LINE      CODE     ---       #220
      ---         BLOCKEND  ---      ---       LVL=0

      01007B73H   BLOCK     CODE     ---       LVL=0
      01007B73H   BLOCK     CODE     NEAR LAB  LVL=1
      00000020H.2 SYMBOL    BIT      BIT       borrow_min
      ---         BLOCKEND  ---      ---       LVL=1
      01007B73H   LINE      CODE     ---       #224
      01007B73H   LINE      CODE     ---       #225
      01007B73H   LINE      CODE     ---       #227
      01007B75H   LINE      CODE     ---       #229
      01007B7FH   LINE      CODE     ---       #231
      01007B83H   LINE      CODE     ---       #232
      01007B85H   LINE      CODE     ---       #233
      01007B85H   LINE      CODE     ---       #235
      01007B8EH   LINE      CODE     ---       #237
      01007B90H   LINE      CODE     ---       #238
      ---         BLOCKEND  ---      ---       LVL=0

      010069D8H   BLOCK     CODE     ---       LVL=0
      00000020H.2 SYMBOL    BIT      BIT       borrow_min
      010069D8H   BLOCK     CODE     NEAR LAB  LVL=1
      00000020H.3 SYMBOL    BIT      BIT       borrow_hour
      ---         BLOCKEND  ---      ---       LVL=1
      010069D8H   LINE      CODE     ---       #242
      010069D8H   LINE      CODE     ---       #243
      010069D8H   LINE      CODE     ---       #245
      010069DAH   LINE      CODE     ---       #247
      010069F1H   LINE      CODE     ---       #249
      010069F7H   LINE      CODE     ---       #250
      010069F9H   LINE      CODE     ---       #251
      010069F9H   LINE      CODE     ---       #253
      01006A02H   LINE      CODE     ---       #254
      01006A0FH   LINE      CODE     ---       #256
      01006A11H   LINE      CODE     ---       #257
      ---         BLOCKEND  ---      ---       LVL=0

      01006A12H   BLOCK     CODE     ---       LVL=0
      00000020H.2 SYMBOL    BIT      BIT       borrow_hour
      01006A12H   BLOCK     CODE     NEAR LAB  LVL=1
      00000020H.3 SYMBOL    BIT      BIT       borrow_date
      ---         BLOCKEND  ---      ---       LVL=1
      01006A12H   LINE      CODE     ---       #260
      01006A12H   LINE      CODE     ---       #261
      01006A12H   LINE      CODE     ---       #263
      01006A14H   LINE      CODE     ---       #265
      01006A2BH   LINE      CODE     ---       #267
      01006A31H   LINE      CODE     ---       #268
      01006A33H   LINE      CODE     ---       #269
      01006A33H   LINE      CODE     ---       #271
      01006A3CH   LINE      CODE     ---       #272
      01006A49H   LINE      CODE     ---       #274
      01006A4BH   LINE      CODE     ---       #275
      ---         BLOCKEND  ---      ---       LVL=0

      01002845H   BLOCK     CODE     ---       LVL=0
      00000020H.2 SYMBOL    BIT      BIT       borrow_date
      01002845H   BLOCK     CODE     NEAR LAB  LVL=1
      02000015H   SYMBOL    XDATA    BYTE      i
      02000016H   SYMBOL    XDATA    BYTE      j
LX51 LINKER/LOCATER V4.66.87.0                                                        05/30/2018  19:50:23  PAGE 156


      02000017H   SYMBOL    XDATA    LONG      day
      ---         BLOCKEND  ---      ---       LVL=1
      01002845H   LINE      CODE     ---       #279
      01002845H   LINE      CODE     ---       #280
      01002845H   LINE      CODE     ---       #284
      0100284FH   LINE      CODE     ---       #287
      01002862H   LINE      CODE     ---       #288
      0100287AH   LINE      CODE     ---       #290
      0100288CH   LINE      CODE     ---       #292
      0100289BH   LINE      CODE     ---       #293
      010028ABH   LINE      CODE     ---       #295
      010028BEH   LINE      CODE     ---       #296
      010028D5H   LINE      CODE     ---       #298
      0100290DH   LINE      CODE     ---       #300
      01002910H   LINE      CODE     ---       #301
      01002922H   LINE      CODE     ---       #303
      01002929H   LINE      CODE     ---       #304
      0100292DH   LINE      CODE     ---       #305
      0100292FH   LINE      CODE     ---       #306
      01002931H   LINE      CODE     ---       #307
      01002933H   LINE      CODE     ---       #308
      01002944H   LINE      CODE     ---       #309
      0100294EH   LINE      CODE     ---       #310
      0100294EH   LINE      CODE     ---       #312
      01002955H   LINE      CODE     ---       #313
      ---         BLOCKEND  ---      ---       LVL=0

      01004110H   BLOCK     CODE     ---       LVL=0
      01004110H   LINE      CODE     ---       #382
      01004110H   LINE      CODE     ---       #383
      01004110H   LINE      CODE     ---       #384
      01004116H   LINE      CODE     ---       #387
      01004119H   LINE      CODE     ---       #388
      01004126H   LINE      CODE     ---       #390
      01004126H   LINE      CODE     ---       #391
      01004129H   LINE      CODE     ---       #392
      0100412DH   LINE      CODE     ---       #393
      0100412FH   LINE      CODE     ---       #394
      01004131H   LINE      CODE     ---       #395
      01004135H   LINE      CODE     ---       #396
      01004137H   LINE      CODE     ---       #397
      01004139H   LINE      CODE     ---       #398
      0100413DH   LINE      CODE     ---       #399
      0100413FH   LINE      CODE     ---       #400
      01004146H   LINE      CODE     ---       #401
      01004147H   LINE      CODE     ---       #402
      01004147H   LINE      CODE     ---       #403
      01004147H   LINE      CODE     ---       #404
      01004147H   LINE      CODE     ---       #405
      01004147H   LINE      CODE     ---       #406
      01004149H   LINE      CODE     ---       #407
      01004149H   LINE      CODE     ---       #408
      0100414CH   LINE      CODE     ---       #409
      0100414CH   LINE      CODE     ---       #410
      0100414CH   LINE      CODE     ---       #412
      01004152H   LINE      CODE     ---       #413
      01004155H   LINE      CODE     ---       #414
      0100415FH   LINE      CODE     ---       #415
      01004165H   LINE      CODE     ---       #416
      0100416BH   LINE      CODE     ---       #417
      01004171H   LINE      CODE     ---       #418
      0100417AH   LINE      CODE     ---       #419
      01004181H   LINE      CODE     ---       #420
      01004182H   LINE      CODE     ---       #421
      01004189H   LINE      CODE     ---       #422
LX51 LINKER/LOCATER V4.66.87.0                                                        05/30/2018  19:50:23  PAGE 157


      0100418EH   LINE      CODE     ---       #423
      01004193H   LINE      CODE     ---       #424
      01004198H   LINE      CODE     ---       #425
      0100419DH   LINE      CODE     ---       #426
      010041A2H   LINE      CODE     ---       #427
      010041A5H   LINE      CODE     ---       #428
      010041ABH   LINE      CODE     ---       #429
      010041ABH   LINE      CODE     ---       #430
      010041ABH   LINE      CODE     ---       #431
      ---         BLOCKEND  ---      ---       LVL=0

      01006674H   BLOCK     CODE     ---       LVL=0
      01006674H   LINE      CODE     ---       #436
      01006674H   LINE      CODE     ---       #437
      01006674H   LINE      CODE     ---       #438
      0100667DH   LINE      CODE     ---       #439
      01006686H   LINE      CODE     ---       #440
      0100668FH   LINE      CODE     ---       #441
      01006698H   LINE      CODE     ---       #442
      010066A1H   LINE      CODE     ---       #443
      010066AAH   LINE      CODE     ---       #444
      010066B4H   LINE      CODE     ---       #445
      ---         BLOCKEND  ---      ---       LVL=0

      01005B93H   BLOCK     CODE     ---       LVL=0
      02000016H   SYMBOL    XDATA    BYTE      type
      01005B93H   LINE      CODE     ---       #448
      01005B98H   LINE      CODE     ---       #449
      01005B98H   LINE      CODE     ---       #450
      01005BA2H   LINE      CODE     ---       #451
      01005BB9H   LINE      CODE     ---       #452
      01005BB9H   LINE      CODE     ---       #453
      01005BBFH   LINE      CODE     ---       #454
      01005BC1H   LINE      CODE     ---       #455
      01005BC1H   LINE      CODE     ---       #456
      01005BC7H   LINE      CODE     ---       #457
      01005BC9H   LINE      CODE     ---       #458
      01005BC9H   LINE      CODE     ---       #459
      01005BCFH   LINE      CODE     ---       #460
      01005BD1H   LINE      CODE     ---       #461
      01005BD1H   LINE      CODE     ---       #462
      01005BD7H   LINE      CODE     ---       #463
      01005BD9H   LINE      CODE     ---       #464
      01005BD9H   LINE      CODE     ---       #465
      01005BDFH   LINE      CODE     ---       #466
      01005BE1H   LINE      CODE     ---       #467
      01005BE1H   LINE      CODE     ---       #468
      01005BEAH   LINE      CODE     ---       #469
      01005BEAH   LINE      CODE     ---       #471
      01005BEAH   LINE      CODE     ---       #472
      ---         BLOCKEND  ---      ---       LVL=0

      01004861H   BLOCK     CODE     ---       LVL=0
      00000020H.0 SYMBOL    BIT      BIT       too_close_check
      01004861H   BLOCK     CODE     NEAR LAB  LVL=1
      00000020H.1 SYMBOL    BIT      BIT       borrow
      ---         BLOCKEND  ---      ---       LVL=1
      01004861H   LINE      CODE     ---       #480
      01004861H   LINE      CODE     ---       #481
      01004861H   LINE      CODE     ---       #485
      01004866H   LINE      CODE     ---       #486
      0100486BH   LINE      CODE     ---       #487
      01004874H   LINE      CODE     ---       #488
      0100487DH   LINE      CODE     ---       #489
      01004884H   LINE      CODE     ---       #490
LX51 LINKER/LOCATER V4.66.87.0                                                        05/30/2018  19:50:23  PAGE 158


      01004889H   LINE      CODE     ---       #492
      01004898H   LINE      CODE     ---       #496
      010048A5H   LINE      CODE     ---       #497
      010048A9H   LINE      CODE     ---       #498
      010048AFH   LINE      CODE     ---       #499
      010048B1H   LINE      CODE     ---       #500
      010048BCH   LINE      CODE     ---       #501
      010048C5H   LINE      CODE     ---       #502
      010048C8H   LINE      CODE     ---       #503
      010048C8H   LINE      CODE     ---       #504
      010048C8H   LINE      CODE     ---       #506
      010048D0H   LINE      CODE     ---       #507
      010048DFH   LINE      CODE     ---       #508
      010048E2H   LINE      CODE     ---       #509
      010048E2H   LINE      CODE     ---       #511
      010048E4H   LINE      CODE     ---       #512
      ---         BLOCKEND  ---      ---       LVL=0

      01006632H   BLOCK     CODE     ---       LVL=0
      01006632H   LINE      CODE     ---       #515
      01006632H   LINE      CODE     ---       #516
      01006632H   LINE      CODE     ---       #517
      01006644H   LINE      CODE     ---       #520
      01006649H   LINE      CODE     ---       #521
      0100664EH   LINE      CODE     ---       #522
      01006655H   LINE      CODE     ---       #523
      0100665DH   LINE      CODE     ---       #524
      01006663H   LINE      CODE     ---       #525
      01006669H   LINE      CODE     ---       #526
      0100666FH   LINE      CODE     ---       #527
      ---         BLOCKEND  ---      ---       LVL=0

      ---         MODULE    ---      ---       SERIAL_HUB
      01006A4CH   PUBLIC    CODE     ---       serial_hub_initialize
      01007126H   PUBLIC    CODE     ---       _serial_test_ctl_bit
      00000020H.2 PUBLIC    BIT      BIT       ?_serial_set_ctl_bit?BIT
      01006FACH   PUBLIC    CODE     ---       _serial_set_ctl_bit
      01007F14H   PUBLIC    CODE     ---       serial_ctl_out
      010013FCH   PUBLIC    CODE     ---       serial_dump
      00000080H   SFRSYM    DATA     BYTE      P0
      00000090H   SFRSYM    DATA     BYTE      P1
      000000A0H   SFRSYM    DATA     BYTE      P2
      000000B0H   SFRSYM    DATA     BYTE      P3
      000000C0H   SFRSYM    DATA     BYTE      XICON
      000000B0H.4 SFRSYM    DATA     BIT       T0
      000000D0H.6 SFRSYM    DATA     BIT       AC
      000000E8H   SFRSYM    DATA     BYTE      P4
      000000B0H.5 SFRSYM    DATA     BIT       T1
      000000E6H   SFRSYM    DATA     BYTE      ISP_TRIG
      00000090H.0 SFRSYM    DATA     BIT       T2
      000000A8H.7 SFRSYM    DATA     BIT       EA
      000000A8H.6 SFRSYM    DATA     BIT       EC
      00000098H.7 SFRSYM    DATA     BIT       FE
      000000A8H   SFRSYM    DATA     BYTE      IE
      000000C8H.6 SFRSYM    DATA     BIT       EXF2
      000000B0H.7 SFRSYM    DATA     BIT       RD
      000000A8H.4 SFRSYM    DATA     BIT       ES
      000000B8H   SFRSYM    DATA     BYTE      IP
      00000098H.0 SFRSYM    DATA     BIT       RI
      000000B0H.2 SFRSYM    DATA     BIT       INT0
      000000D0H.7 SFRSYM    DATA     BIT       CY
      00000098H.1 SFRSYM    DATA     BIT       TI
      000000B0H.3 SFRSYM    DATA     BIT       INT1
      000000CBH   SFRSYM    DATA     BYTE      RCAP2H
      000000E5H   SFRSYM    DATA     BYTE      ISP_CMD
LX51 LINKER/LOCATER V4.66.87.0                                                        05/30/2018  19:50:23  PAGE 159


      000000B8H.4 SFRSYM    DATA     BIT       PS
      00000081H   SFRSYM    DATA     BYTE      SP
      00000090H.1 SFRSYM    DATA     BIT       T2EX
      000000D0H.2 SFRSYM    DATA     BIT       OV
      000000CAH   SFRSYM    DATA     BYTE      RCAP2L
      000000C8H.1 SFRSYM    DATA     BIT       C_T2
      000000B0H.6 SFRSYM    DATA     BIT       WR
      000000C8H.5 SFRSYM    DATA     BIT       RCLK
      000000C8H.4 SFRSYM    DATA     BIT       TCLK
      00000080H.0 SFRSYM    DATA     BIT       P00
      00000099H   SFRSYM    DATA     BYTE      SBUF
      00000087H   SFRSYM    DATA     BYTE      PCON
      00000090H.0 SFRSYM    DATA     BIT       P10
      00000080H.1 SFRSYM    DATA     BIT       P01
      000000A0H.0 SFRSYM    DATA     BIT       P20
      00000090H.1 SFRSYM    DATA     BIT       P11
      00000080H.2 SFRSYM    DATA     BIT       P02
      000000E3H   SFRSYM    DATA     BYTE      ISP_ADDRH
      000000B0H.0 SFRSYM    DATA     BIT       P30
      000000A0H.1 SFRSYM    DATA     BIT       P21
      00000090H.2 SFRSYM    DATA     BIT       P12
      00000080H.3 SFRSYM    DATA     BIT       P03
      00000098H   SFRSYM    DATA     BYTE      SCON
      000000B0H.1 SFRSYM    DATA     BIT       P31
      000000A0H.2 SFRSYM    DATA     BIT       P22
      00000090H.3 SFRSYM    DATA     BIT       P13
      00000080H.4 SFRSYM    DATA     BIT       P04
      000000E8H.0 SFRSYM    DATA     BIT       P40
      00000089H   SFRSYM    DATA     BYTE      TMOD
      00000088H   SFRSYM    DATA     BYTE      TCON
      000000B0H.2 SFRSYM    DATA     BIT       P32
      000000A0H.3 SFRSYM    DATA     BIT       P23
      00000090H.4 SFRSYM    DATA     BIT       P14
      00000080H.5 SFRSYM    DATA     BIT       P05
      000000E8H.1 SFRSYM    DATA     BIT       P41
      000000B0H.3 SFRSYM    DATA     BIT       P33
      000000A0H.4 SFRSYM    DATA     BIT       P24
      00000090H.5 SFRSYM    DATA     BIT       P15
      00000080H.6 SFRSYM    DATA     BIT       P06
      000000E4H   SFRSYM    DATA     BYTE      ISP_ADDRL
      000000E8H.2 SFRSYM    DATA     BIT       P42
      000000B0H.4 SFRSYM    DATA     BIT       P34
      000000A0H.5 SFRSYM    DATA     BIT       P25
      00000090H.6 SFRSYM    DATA     BIT       P16
      00000080H.7 SFRSYM    DATA     BIT       P07
      000000E8H.3 SFRSYM    DATA     BIT       P43
      000000B0H.5 SFRSYM    DATA     BIT       P35
      000000A0H.6 SFRSYM    DATA     BIT       P26
      00000090H.7 SFRSYM    DATA     BIT       P17
      000000E8H.4 SFRSYM    DATA     BIT       P44
      000000B0H.6 SFRSYM    DATA     BIT       P36
      000000A0H.7 SFRSYM    DATA     BIT       P27
      000000E8H.5 SFRSYM    DATA     BIT       P45
      000000B0H.7 SFRSYM    DATA     BIT       P37
      000000E8H.6 SFRSYM    DATA     BIT       P46
      00000088H.1 SFRSYM    DATA     BIT       IE0
      00000088H.3 SFRSYM    DATA     BIT       IE1
      0000008EH   SFRSYM    DATA     BYTE      AUXR
      000000F0H   SFRSYM    DATA     BYTE      B
      000000C8H.0 SFRSYM    DATA     BIT       CP_RL2
      000000E0H   SFRSYM    DATA     BYTE      ACC
      000000A8H.1 SFRSYM    DATA     BIT       ET0
      000000A8H.3 SFRSYM    DATA     BIT       ET1
      00000088H.5 SFRSYM    DATA     BIT       TF0
      000000A8H.5 SFRSYM    DATA     BIT       ET2
LX51 LINKER/LOCATER V4.66.87.0                                                        05/30/2018  19:50:23  PAGE 160


      00000088H.7 SFRSYM    DATA     BIT       TF1
      000000C8H.7 SFRSYM    DATA     BIT       TF2
      00000098H.2 SFRSYM    DATA     BIT       RB8
      0000008CH   SFRSYM    DATA     BYTE      TH0
      000000A8H.0 SFRSYM    DATA     BIT       EX0
      00000088H.0 SFRSYM    DATA     BIT       IT0
      0000008DH   SFRSYM    DATA     BYTE      TH1
      00000098H.3 SFRSYM    DATA     BIT       TB8
      000000A8H.2 SFRSYM    DATA     BIT       EX1
      00000088H.2 SFRSYM    DATA     BIT       IT1
      000000CDH   SFRSYM    DATA     BYTE      TH2
      000000D0H.0 SFRSYM    DATA     BIT       P
      00000098H.7 SFRSYM    DATA     BIT       SM0
      0000008AH   SFRSYM    DATA     BYTE      TL0
      00000098H.6 SFRSYM    DATA     BIT       SM1
      0000008BH   SFRSYM    DATA     BYTE      TL1
      00000098H.5 SFRSYM    DATA     BIT       SM2
      000000CCH   SFRSYM    DATA     BYTE      TL2
      000000B8H.1 SFRSYM    DATA     BIT       PT0
      000000B8H.3 SFRSYM    DATA     BIT       PT1
      000000D0H.3 SFRSYM    DATA     BIT       RS0
      000000E7H   SFRSYM    DATA     BYTE      ISP_CONTR
      000000B8H.5 SFRSYM    DATA     BIT       PT2
      00000088H.4 SFRSYM    DATA     BIT       TR0
      000000D0H.4 SFRSYM    DATA     BIT       RS1
      00000088H.6 SFRSYM    DATA     BIT       TR1
      000000C8H.2 SFRSYM    DATA     BIT       TR2
      000000B8H.0 SFRSYM    DATA     BIT       PX0
      000000E1H   SFRSYM    DATA     BYTE      WDT_CONTR
      000000B8H.2 SFRSYM    DATA     BIT       PX1
      00000083H   SFRSYM    DATA     BYTE      DPH
      00000082H   SFRSYM    DATA     BYTE      DPL
      000000B7H   SFRSYM    DATA     BYTE      IPH
      000000C8H.3 SFRSYM    DATA     BIT       EXEN2
      00000098H.4 SFRSYM    DATA     BIT       REN
      000000C9H   SFRSYM    DATA     BYTE      T2MOD
      000000C8H   SFRSYM    DATA     BYTE      T2CON
      000000E2H   SFRSYM    DATA     BYTE      ISP_DATA
      000000B9H   SFRSYM    DATA     BYTE      SADEN
      000000B0H.0 SFRSYM    DATA     BIT       RXD
      000000A9H   SFRSYM    DATA     BYTE      SADDR
      000000B0H.1 SFRSYM    DATA     BIT       TXD
      000000A2H   SFRSYM    DATA     BYTE      AUXR1
      000000D0H.5 SFRSYM    DATA     BIT       F0
      000000D0H   SFRSYM    DATA     BYTE      PSW
      020000E2H   SYMBOL    XDATA    ---       ctl_buffer

      0100804CH   BLOCK     CODE     ---       LVL=0
      ---         BLOCKEND  ---      ---       LVL=0

      010013FCH   BLOCK     CODE     ---       LVL=0
      010013FCH   LINE      CODE     ---       #15
      010013FCH   LINE      CODE     ---       #16
      010013FCH   LINE      CODE     ---       #17
      01001405H   LINE      CODE     ---       #18
      0100141EH   LINE      CODE     ---       #19
      01001436H   LINE      CODE     ---       #20
      0100144EH   LINE      CODE     ---       #21
      01001466H   LINE      CODE     ---       #22
      0100147EH   LINE      CODE     ---       #23
      01001496H   LINE      CODE     ---       #24
      010014AEH   LINE      CODE     ---       #25
      010014C6H   LINE      CODE     ---       #26
      010014DEH   LINE      CODE     ---       #27
      010014F6H   LINE      CODE     ---       #28
LX51 LINKER/LOCATER V4.66.87.0                                                        05/30/2018  19:50:23  PAGE 161


      0100150EH   LINE      CODE     ---       #29
      01001526H   LINE      CODE     ---       #30
      0100153EH   LINE      CODE     ---       #31
      01001556H   LINE      CODE     ---       #32
      0100156EH   LINE      CODE     ---       #33
      01001586H   LINE      CODE     ---       #34
      010015A2H   LINE      CODE     ---       #35
      010015ABH   LINE      CODE     ---       #36
      ---         BLOCKEND  ---      ---       LVL=0

      01007F14H   BLOCK     CODE     ---       LVL=0
      01007F14H   LINE      CODE     ---       #38
      01007F14H   LINE      CODE     ---       #39
      01007F14H   LINE      CODE     ---       #40
      01007F20H   LINE      CODE     ---       #41
      01007F2CH   LINE      CODE     ---       #43
      ---         BLOCKEND  ---      ---       LVL=0

      01006FACH   BLOCK     CODE     ---       LVL=0
      00000007H   SYMBOL    DATA     BYTE      index
      00000020H.2 SYMBOL    BIT      BIT       what
      01006FACH   LINE      CODE     ---       #46
      01006FACH   LINE      CODE     ---       #47
      01006FACH   LINE      CODE     ---       #48
      01006FB2H   LINE      CODE     ---       #51
      01006FD2H   LINE      CODE     ---       #52
      01006FD5H   LINE      CODE     ---       #53
      01006FDBH   LINE      CODE     ---       #54
      ---         BLOCKEND  ---      ---       LVL=0

      01007126H   BLOCK     CODE     ---       LVL=0
      00000007H   SYMBOL    DATA     BYTE      index
      01007126H   LINE      CODE     ---       #56
      01007126H   LINE      CODE     ---       #57
      01007126H   LINE      CODE     ---       #58
      0100712CH   LINE      CODE     ---       #59
      0100712DH   LINE      CODE     ---       #61
      01007153H   LINE      CODE     ---       #62
      ---         BLOCKEND  ---      ---       LVL=0

      01006A4CH   BLOCK     CODE     ---       LVL=0
      01006A4CH   LINE      CODE     ---       #65
      01006A4CH   LINE      CODE     ---       #66
      01006A4CH   LINE      CODE     ---       #67
      01006A55H   LINE      CODE     ---       #69
      01006A5FH   LINE      CODE     ---       #72
      01006A68H   LINE      CODE     ---       #75
      01006A71H   LINE      CODE     ---       #78
      01006A7AH   LINE      CODE     ---       #81
      01006A83H   LINE      CODE     ---       #83
      ---         BLOCKEND  ---      ---       LVL=0

      ---         MODULE    ---      ---       THERMO
      01008B69H   PUBLIC    CODE     ---       thermo_leave_powersave
      01008B60H   PUBLIC    CODE     ---       thermo_enter_powersave
      0100834AH   PUBLIC    CODE     ---       _thermo_proc
      01008BDEH   PUBLIC    CODE     ---       thermo_lo_threshold_reset
      01008BD6H   PUBLIC    CODE     ---       thermo_hi_threshold_reset
      00000020H.1 PUBLIC    BIT      BIT       ?thermo_enable?BIT
      01008AB1H   PUBLIC    CODE     ---       thermo_enable
      0100899AH   PUBLIC    CODE     ---       thermo_lo_threshold_reach_top
      01008A37H   PUBLIC    CODE     ---       thermo_lo_threshold_reach_bottom
      0100898EH   PUBLIC    CODE     ---       thermo_hi_threshold_reach_top
      01008A2CH   PUBLIC    CODE     ---       thermo_hi_threshold_reach_bottom
      010066B5H   PUBLIC    CODE     ---       _thermo_threshold_inc
LX51 LINKER/LOCATER V4.66.87.0                                                        05/30/2018  19:50:23  PAGE 162


      0100865EH   PUBLIC    CODE     ---       thermo_lo_threshold_inc
      0100864CH   PUBLIC    CODE     ---       thermo_lo_threshold_dec
      0100863AH   PUBLIC    CODE     ---       thermo_hi_threshold_inc
      01008628H   PUBLIC    CODE     ---       thermo_hi_threshold_dec
      01005365H   PUBLIC    CODE     ---       _thermo_lo_threshold_set
      01005862H   PUBLIC    CODE     ---       _thermo_hi_threshold_set
      01007863H   PUBLIC    CODE     ---       thermo_lo_threshold_get
      01007976H   PUBLIC    CODE     ---       thermo_hi_threshold_get
      01006EB9H   PUBLIC    CODE     ---       thermo_get_current
      010051B9H   PUBLIC    CODE     ---       scan_thermo
      01008982H   PUBLIC    CODE     ---       thermo_initialize
      020000E4H   SYMBOL    XDATA    CHAR      thermo_threshold_lo
      01007769H   SYMBOL    CODE     ---       _thermo_hex_to_temp
      01006525H   SYMBOL    CODE     ---       _thermo_temp_to_hex
      0100629FH   SYMBOL    CODE     ---       thermo_power_off
      01005C42H   SYMBOL    CODE     ---       thermo_power_on
      010068ADH   SYMBOL    CODE     ---       thermo_load_config
      020000E5H   SYMBOL    XDATA    CHAR      thermo_threshold_hi

      01005D47H   BLOCK     CODE     ---       LVL=0
      ---         BLOCKEND  ---      ---       LVL=0

      010068ADH   BLOCK     CODE     ---       LVL=0
      010068ADH   LINE      CODE     ---       #35
      010068ADH   LINE      CODE     ---       #36
      010068ADH   LINE      CODE     ---       #37
      010068B6H   LINE      CODE     ---       #39
      010068C0H   LINE      CODE     ---       #40
      010068CAH   LINE      CODE     ---       #41
      010068D9H   LINE      CODE     ---       #42
      ---         BLOCKEND  ---      ---       LVL=0

      0100629FH   BLOCK     CODE     ---       LVL=0
      0100629FH   BLOCK     CODE     NEAR LAB  LVL=1
      02000015H   SYMBOL    XDATA    BYTE      val
      ---         BLOCKEND  ---      ---       LVL=1
      0100629FH   LINE      CODE     ---       #45
      0100629FH   LINE      CODE     ---       #46
      0100629FH   LINE      CODE     ---       #49
      010062A2H   LINE      CODE     ---       #56
      010062A7H   LINE      CODE     ---       #59
      010062B0H   LINE      CODE     ---       #62
      010062B3H   LINE      CODE     ---       #63
      010062B6H   LINE      CODE     ---       #66
      010062BBH   LINE      CODE     ---       #67
      010062C4H   LINE      CODE     ---       #71
      010062CDH   LINE      CODE     ---       #74
      010062D6H   LINE      CODE     ---       #77
      010062E0H   LINE      CODE     ---       #92
      ---         BLOCKEND  ---      ---       LVL=0

      01008982H   BLOCK     CODE     ---       LVL=0
      01008982H   LINE      CODE     ---       #95
      01008982H   LINE      CODE     ---       #96
      01008982H   LINE      CODE     ---       #97
      0100898BH   LINE      CODE     ---       #98
      ---         BLOCKEND  ---      ---       LVL=0

      01005C42H   BLOCK     CODE     ---       LVL=0
      01005C42H   BLOCK     CODE     NEAR LAB  LVL=1
      02000015H   SYMBOL    XDATA    BYTE      val
      ---         BLOCKEND  ---      ---       LVL=1
      01005C42H   LINE      CODE     ---       #101
      01005C42H   LINE      CODE     ---       #102
      01005C42H   LINE      CODE     ---       #105
LX51 LINKER/LOCATER V4.66.87.0                                                        05/30/2018  19:50:23  PAGE 163


      01005C45H   LINE      CODE     ---       #111
      01005C4AH   LINE      CODE     ---       #114
      01005C53H   LINE      CODE     ---       #117
      01005C56H   LINE      CODE     ---       #118
      01005C59H   LINE      CODE     ---       #121
      01005C5EH   LINE      CODE     ---       #122
      01005C67H   LINE      CODE     ---       #124
      01005C6CH   LINE      CODE     ---       #128
      01005C75H   LINE      CODE     ---       #131
      01005C7EH   LINE      CODE     ---       #134
      01005C88H   LINE      CODE     ---       #136
      01005C91H   LINE      CODE     ---       #156
      ---         BLOCKEND  ---      ---       LVL=0

      010051B9H   BLOCK     CODE     ---       LVL=0
      010051B9H   BLOCK     CODE     NEAR LAB  LVL=1
      02000016H   SYMBOL    XDATA    BYTE      val
      02000017H   SYMBOL    XDATA    CHAR      hi
      02000018H   SYMBOL    XDATA    CHAR      lo
      02000019H   SYMBOL    XDATA    CHAR      current
      00000020H.0 SYMBOL    BIT      BIT       has_event
      ---         BLOCKEND  ---      ---       LVL=1
      010051B9H   LINE      CODE     ---       #158
      010051B9H   LINE      CODE     ---       #159
      010051B9H   LINE      CODE     ---       #163
      010051BBH   LINE      CODE     ---       #166
      010051BBH   LINE      CODE     ---       #167
      010051BBH   LINE      CODE     ---       #168
      010051BBH   LINE      CODE     ---       #169
      010051C4H   LINE      CODE     ---       #172
      010051D1H   LINE      CODE     ---       #173
      010051DAH   LINE      CODE     ---       #175
      010051E9H   LINE      CODE     ---       #176
      010051F2H   LINE      CODE     ---       #177
      010051F7H   LINE      CODE     ---       #178
      010051F7H   LINE      CODE     ---       #179
      01005208H   LINE      CODE     ---       #180
      01005211H   LINE      CODE     ---       #181
      01005217H   LINE      CODE     ---       #182
      01005219H   LINE      CODE     ---       #183
      01005219H   LINE      CODE     ---       #202
      01005221H   LINE      CODE     ---       #203
      01005224H   LINE      CODE     ---       #204
      01005224H   LINE      CODE     ---       #205
      ---         BLOCKEND  ---      ---       LVL=0

      01006525H   BLOCK     CODE     ---       LVL=0
      00000005H   SYMBOL    DATA     CHAR      temp
      01006527H   BLOCK     CODE     NEAR LAB  LVL=1
      02000019H   SYMBOL    XDATA    WORD      ret
      ---         BLOCKEND  ---      ---       LVL=1
      01006525H   LINE      CODE     ---       #207
      01006527H   LINE      CODE     ---       #208
      01006527H   LINE      CODE     ---       #209
      01006532H   LINE      CODE     ---       #210
      0100653AH   LINE      CODE     ---       #211
      01006543H   LINE      CODE     ---       #212
      01006560H   LINE      CODE     ---       #213
      01006568H   LINE      CODE     ---       #214
      ---         BLOCKEND  ---      ---       LVL=0

      01007769H   BLOCK     CODE     ---       LVL=0
      00000004H   SYMBOL    DATA     WORD      val
      0100776DH   BLOCK     CODE     NEAR LAB  LVL=1
      02000017H   SYMBOL    XDATA    CHAR      temp
LX51 LINKER/LOCATER V4.66.87.0                                                        05/30/2018  19:50:23  PAGE 164


      ---         BLOCKEND  ---      ---       LVL=1
      01007769H   LINE      CODE     ---       #216
      0100776DH   LINE      CODE     ---       #217
      0100776DH   LINE      CODE     ---       #219
      01007772H   LINE      CODE     ---       #220
      01007787H   LINE      CODE     ---       #221
      0100778CH   LINE      CODE     ---       #222
      ---         BLOCKEND  ---      ---       LVL=0

      01006EB9H   BLOCK     CODE     ---       LVL=0
      01006EB9H   BLOCK     CODE     NEAR LAB  LVL=1
      0200000BH   SYMBOL    XDATA    WORD      val
      0200000DH   SYMBOL    XDATA    BYTE      tmp
      ---         BLOCKEND  ---      ---       LVL=1
      01006EB9H   LINE      CODE     ---       #225
      01006EB9H   LINE      CODE     ---       #226
      01006EB9H   LINE      CODE     ---       #230
      01006EB9H   LINE      CODE     ---       #231
      01006EC7H   LINE      CODE     ---       #232
      01006EDFH   LINE      CODE     ---       #234
      ---         BLOCKEND  ---      ---       LVL=0

      01007976H   BLOCK     CODE     ---       LVL=0
      01007976H   BLOCK     CODE     NEAR LAB  LVL=1
      02000015H   SYMBOL    XDATA    WORD      val
      00000007H   SYMBOL    DATA     CHAR      ret
      ---         BLOCKEND  ---      ---       LVL=1
      01007976H   LINE      CODE     ---       #250
      01007976H   LINE      CODE     ---       #251
      01007976H   LINE      CODE     ---       #255
      01007984H   LINE      CODE     ---       #259
      0100798FH   LINE      CODE     ---       #260
      01007993H   LINE      CODE     ---       #261
      01007996H   LINE      CODE     ---       #263
      01007996H   LINE      CODE     ---       #264
      ---         BLOCKEND  ---      ---       LVL=0

      01007863H   BLOCK     CODE     ---       LVL=0
      01007863H   BLOCK     CODE     NEAR LAB  LVL=1
      02000015H   SYMBOL    XDATA    WORD      val
      00000007H   SYMBOL    DATA     CHAR      ret
      ---         BLOCKEND  ---      ---       LVL=1
      01007863H   LINE      CODE     ---       #266
      01007863H   LINE      CODE     ---       #267
      01007863H   LINE      CODE     ---       #271
      01007873H   LINE      CODE     ---       #275
      0100787EH   LINE      CODE     ---       #276
      01007882H   LINE      CODE     ---       #277
      01007885H   LINE      CODE     ---       #279
      01007885H   LINE      CODE     ---       #280
      ---         BLOCKEND  ---      ---       LVL=0

      01005862H   BLOCK     CODE     ---       LVL=0
      02000016H   SYMBOL    XDATA    CHAR      temp
      01005867H   BLOCK     CODE     NEAR LAB  LVL=1
      02000017H   SYMBOL    XDATA    WORD      val
      ---         BLOCKEND  ---      ---       LVL=1
      01005862H   LINE      CODE     ---       #283
      01005867H   LINE      CODE     ---       #284
      01005867H   LINE      CODE     ---       #286
      01005871H   LINE      CODE     ---       #288
      01005879H   LINE      CODE     ---       #289
      0100587EH   LINE      CODE     ---       #290
      0100587EH   LINE      CODE     ---       #291
      01005886H   LINE      CODE     ---       #292
LX51 LINKER/LOCATER V4.66.87.0                                                        05/30/2018  19:50:23  PAGE 165


      0100588CH   LINE      CODE     ---       #294
      01005897H   LINE      CODE     ---       #295
      0100589AH   LINE      CODE     ---       #296
      0100589AH   LINE      CODE     ---       #297
      010058AAH   LINE      CODE     ---       #299
      010058B4H   LINE      CODE     ---       #300
      ---         BLOCKEND  ---      ---       LVL=0

      01005365H   BLOCK     CODE     ---       LVL=0
      02000016H   SYMBOL    XDATA    CHAR      temp
      0100536AH   BLOCK     CODE     NEAR LAB  LVL=1
      02000017H   SYMBOL    XDATA    WORD      val
      ---         BLOCKEND  ---      ---       LVL=1
      01005365H   LINE      CODE     ---       #306
      0100536AH   LINE      CODE     ---       #307
      0100536AH   LINE      CODE     ---       #309
      01005377H   LINE      CODE     ---       #311
      0100537FH   LINE      CODE     ---       #312
      01005384H   LINE      CODE     ---       #313
      01005384H   LINE      CODE     ---       #314
      0100538CH   LINE      CODE     ---       #315
      01005392H   LINE      CODE     ---       #317
      0100539DH   LINE      CODE     ---       #318
      010053A0H   LINE      CODE     ---       #319
      010053A0H   LINE      CODE     ---       #321
      010053B0H   LINE      CODE     ---       #323
      010053BEH   LINE      CODE     ---       #324
      ---         BLOCKEND  ---      ---       LVL=0

      01008628H   BLOCK     CODE     ---       LVL=0
      01008628H   BLOCK     CODE     NEAR LAB  LVL=1
      00000007H   SYMBOL    DATA     CHAR      val
      ---         BLOCKEND  ---      ---       LVL=1
      01008628H   LINE      CODE     ---       #331
      01008628H   LINE      CODE     ---       #332
      01008628H   LINE      CODE     ---       #334
      0100862BH   LINE      CODE     ---       #336
      01008630H   LINE      CODE     ---       #339
      01008635H   LINE      CODE     ---       #340
      01008636H   LINE      CODE     ---       #341
      01008639H   LINE      CODE     ---       #342
      01008639H   LINE      CODE     ---       #343
      ---         BLOCKEND  ---      ---       LVL=0

      0100863AH   BLOCK     CODE     ---       LVL=0
      0100863AH   BLOCK     CODE     NEAR LAB  LVL=1
      00000007H   SYMBOL    DATA     CHAR      val
      ---         BLOCKEND  ---      ---       LVL=1
      0100863AH   LINE      CODE     ---       #345
      0100863AH   LINE      CODE     ---       #346
      0100863AH   LINE      CODE     ---       #348
      0100863DH   LINE      CODE     ---       #350
      01008642H   LINE      CODE     ---       #353
      01008647H   LINE      CODE     ---       #354
      01008648H   LINE      CODE     ---       #355
      0100864BH   LINE      CODE     ---       #356
      0100864BH   LINE      CODE     ---       #357
      ---         BLOCKEND  ---      ---       LVL=0

      0100864CH   BLOCK     CODE     ---       LVL=0
      0100864CH   BLOCK     CODE     NEAR LAB  LVL=1
      00000007H   SYMBOL    DATA     CHAR      val
      ---         BLOCKEND  ---      ---       LVL=1
      0100864CH   LINE      CODE     ---       #359
      0100864CH   LINE      CODE     ---       #360
LX51 LINKER/LOCATER V4.66.87.0                                                        05/30/2018  19:50:23  PAGE 166


      0100864CH   LINE      CODE     ---       #362
      0100864FH   LINE      CODE     ---       #364
      01008654H   LINE      CODE     ---       #367
      01008659H   LINE      CODE     ---       #368
      0100865AH   LINE      CODE     ---       #369
      0100865DH   LINE      CODE     ---       #370
      0100865DH   LINE      CODE     ---       #371
      ---         BLOCKEND  ---      ---       LVL=0

      0100865EH   BLOCK     CODE     ---       LVL=0
      0100865EH   BLOCK     CODE     NEAR LAB  LVL=1
      00000007H   SYMBOL    DATA     CHAR      val
      ---         BLOCKEND  ---      ---       LVL=1
      0100865EH   LINE      CODE     ---       #373
      0100865EH   LINE      CODE     ---       #374
      0100865EH   LINE      CODE     ---       #376
      01008661H   LINE      CODE     ---       #378
      01008666H   LINE      CODE     ---       #381
      0100866BH   LINE      CODE     ---       #382
      0100866CH   LINE      CODE     ---       #383
      0100866FH   LINE      CODE     ---       #384
      0100866FH   LINE      CODE     ---       #385
      ---         BLOCKEND  ---      ---       LVL=0

      010066B5H   BLOCK     CODE     ---       LVL=0
      00000007H   SYMBOL    DATA     BYTE      thres
      010066B5H   BLOCK     CODE     NEAR LAB  LVL=1
      00000006H   SYMBOL    DATA     CHAR      value
      02000016H   SYMBOL    XDATA    BYTE      ret
      ---         BLOCKEND  ---      ---       LVL=1
      010066B5H   LINE      CODE     ---       #387
      010066B5H   LINE      CODE     ---       #388
      010066B5H   LINE      CODE     ---       #391
      010066BAH   LINE      CODE     ---       #392
      010066BCH   LINE      CODE     ---       #393
      010066C4H   LINE      CODE     ---       #394
      010066C5H   LINE      CODE     ---       #395
      010066CAH   LINE      CODE     ---       #396
      010066CCH   LINE      CODE     ---       #397
      010066D2H   LINE      CODE     ---       #398
      010066D2H   LINE      CODE     ---       #399
      010066D4H   LINE      CODE     ---       #400
      010066DAH   LINE      CODE     ---       #401
      010066DAH   LINE      CODE     ---       #402
      010066F0H   LINE      CODE     ---       #403
      010066F5H   LINE      CODE     ---       #404
      ---         BLOCKEND  ---      ---       LVL=0

      01008A2CH   BLOCK     CODE     ---       LVL=0
      01008A2CH   LINE      CODE     ---       #406
      01008A2CH   LINE      CODE     ---       #407
      01008A2CH   LINE      CODE     ---       #408
      01008A36H   LINE      CODE     ---       #409
      ---         BLOCKEND  ---      ---       LVL=0

      0100898EH   BLOCK     CODE     ---       LVL=0
      0100898EH   LINE      CODE     ---       #411
      0100898EH   LINE      CODE     ---       #412
      0100898EH   LINE      CODE     ---       #413
      01008999H   LINE      CODE     ---       #414
      ---         BLOCKEND  ---      ---       LVL=0

      01008A37H   BLOCK     CODE     ---       LVL=0
      01008A37H   LINE      CODE     ---       #416
      01008A37H   LINE      CODE     ---       #417
LX51 LINKER/LOCATER V4.66.87.0                                                        05/30/2018  19:50:23  PAGE 167


      01008A37H   LINE      CODE     ---       #418
      01008A41H   LINE      CODE     ---       #419
      ---         BLOCKEND  ---      ---       LVL=0

      0100899AH   BLOCK     CODE     ---       LVL=0
      0100899AH   LINE      CODE     ---       #421
      0100899AH   LINE      CODE     ---       #422
      0100899AH   LINE      CODE     ---       #423
      010089A5H   LINE      CODE     ---       #424
      ---         BLOCKEND  ---      ---       LVL=0

      01008AB1H   BLOCK     CODE     ---       LVL=0
      00000020H.1 SYMBOL    BIT      BIT       enable
      01008AB1H   LINE      CODE     ---       #426
      01008AB1H   LINE      CODE     ---       #427
      01008AB1H   LINE      CODE     ---       #428
      01008AB4H   LINE      CODE     ---       #429
      01008AB7H   LINE      CODE     ---       #430
      01008AB7H   LINE      CODE     ---       #431
      01008ABAH   LINE      CODE     ---       #432
      01008ABAH   LINE      CODE     ---       #433
      ---         BLOCKEND  ---      ---       LVL=0

      01008BD6H   BLOCK     CODE     ---       LVL=0
      01008BD6H   LINE      CODE     ---       #435
      01008BD6H   LINE      CODE     ---       #436
      01008BD6H   LINE      CODE     ---       #437
      ---         BLOCKEND  ---      ---       LVL=0

      01008BDEH   BLOCK     CODE     ---       LVL=0
      01008BDEH   LINE      CODE     ---       #440
      01008BDEH   LINE      CODE     ---       #441
      01008BDEH   LINE      CODE     ---       #442
      ---         BLOCKEND  ---      ---       LVL=0

      0100834AH   BLOCK     CODE     ---       LVL=0
      0200000CH   SYMBOL    XDATA    BYTE      ev
      0100834AH   LINE      CODE     ---       #445
      0100834FH   LINE      CODE     ---       #446
      0100834FH   LINE      CODE     ---       #447
      01008358H   LINE      CODE     ---       #448
      ---         BLOCKEND  ---      ---       LVL=0

      01008B60H   BLOCK     CODE     ---       LVL=0
      01008B60H   LINE      CODE     ---       #451
      01008B60H   LINE      CODE     ---       #452
      01008B60H   LINE      CODE     ---       #453
      ---         BLOCKEND  ---      ---       LVL=0

      01008B69H   BLOCK     CODE     ---       LVL=0
      01008B69H   LINE      CODE     ---       #456
      01008B69H   LINE      CODE     ---       #457
      01008B69H   LINE      CODE     ---       #458
      ---         BLOCKEND  ---      ---       LVL=0

      ---         MODULE    ---      ---       ROM
      0100686FH   PUBLIC    CODE     ---       rom_initialize
      01008BE6H   PUBLIC    CODE     ---       rom_is_factory_reset
      01006EEAH   PUBLIC    CODE     ---       _rom_write
      01006D54H   PUBLIC    CODE     ---       _rom_read
      00000080H   SFRSYM    DATA     BYTE      P0
      00000090H   SFRSYM    DATA     BYTE      P1
      000000A0H   SFRSYM    DATA     BYTE      P2
      000000B0H   SFRSYM    DATA     BYTE      P3
      000000C0H   SFRSYM    DATA     BYTE      XICON
LX51 LINKER/LOCATER V4.66.87.0                                                        05/30/2018  19:50:23  PAGE 168


      000000B0H.4 SFRSYM    DATA     BIT       T0
      000000D0H.6 SFRSYM    DATA     BIT       AC
      000000E8H   SFRSYM    DATA     BYTE      P4
      000000B0H.5 SFRSYM    DATA     BIT       T1
      000000E6H   SFRSYM    DATA     BYTE      ISP_TRIG
      00000090H.0 SFRSYM    DATA     BIT       T2
      000000A8H.7 SFRSYM    DATA     BIT       EA
      000000A8H.6 SFRSYM    DATA     BIT       EC
      00000098H.7 SFRSYM    DATA     BIT       FE
      000000A8H   SFRSYM    DATA     BYTE      IE
      000000C8H.6 SFRSYM    DATA     BIT       EXF2
      000000B0H.7 SFRSYM    DATA     BIT       RD
      000000A8H.4 SFRSYM    DATA     BIT       ES
      000000B8H   SFRSYM    DATA     BYTE      IP
      00000098H.0 SFRSYM    DATA     BIT       RI
      000000B0H.2 SFRSYM    DATA     BIT       INT0
      000000D0H.7 SFRSYM    DATA     BIT       CY
      00000098H.1 SFRSYM    DATA     BIT       TI
      000000B0H.3 SFRSYM    DATA     BIT       INT1
      000000CBH   SFRSYM    DATA     BYTE      RCAP2H
      000000E5H   SFRSYM    DATA     BYTE      ISP_CMD
      000000B8H.4 SFRSYM    DATA     BIT       PS
      00000081H   SFRSYM    DATA     BYTE      SP
      00000090H.1 SFRSYM    DATA     BIT       T2EX
      000000D0H.2 SFRSYM    DATA     BIT       OV
      000000CAH   SFRSYM    DATA     BYTE      RCAP2L
      000000C8H.1 SFRSYM    DATA     BIT       C_T2
      000000B0H.6 SFRSYM    DATA     BIT       WR
      000000C8H.5 SFRSYM    DATA     BIT       RCLK
      000000C8H.4 SFRSYM    DATA     BIT       TCLK
      00000080H.0 SFRSYM    DATA     BIT       P00
      00000099H   SFRSYM    DATA     BYTE      SBUF
      00000087H   SFRSYM    DATA     BYTE      PCON
      00000090H.0 SFRSYM    DATA     BIT       P10
      00000080H.1 SFRSYM    DATA     BIT       P01
      000000A0H.0 SFRSYM    DATA     BIT       P20
      00000090H.1 SFRSYM    DATA     BIT       P11
      00000080H.2 SFRSYM    DATA     BIT       P02
      000000E3H   SFRSYM    DATA     BYTE      ISP_ADDRH
      000000B0H.0 SFRSYM    DATA     BIT       P30
      000000A0H.1 SFRSYM    DATA     BIT       P21
      00000090H.2 SFRSYM    DATA     BIT       P12
      00000080H.3 SFRSYM    DATA     BIT       P03
      00000098H   SFRSYM    DATA     BYTE      SCON
      000000B0H.1 SFRSYM    DATA     BIT       P31
      000000A0H.2 SFRSYM    DATA     BIT       P22
      00000090H.3 SFRSYM    DATA     BIT       P13
      00000080H.4 SFRSYM    DATA     BIT       P04
      000000E8H.0 SFRSYM    DATA     BIT       P40
      00000089H   SFRSYM    DATA     BYTE      TMOD
      00000088H   SFRSYM    DATA     BYTE      TCON
      000000B0H.2 SFRSYM    DATA     BIT       P32
      000000A0H.3 SFRSYM    DATA     BIT       P23
      00000090H.4 SFRSYM    DATA     BIT       P14
      00000080H.5 SFRSYM    DATA     BIT       P05
      000000E8H.1 SFRSYM    DATA     BIT       P41
      000000B0H.3 SFRSYM    DATA     BIT       P33
      000000A0H.4 SFRSYM    DATA     BIT       P24
      00000090H.5 SFRSYM    DATA     BIT       P15
      00000080H.6 SFRSYM    DATA     BIT       P06
      000000E4H   SFRSYM    DATA     BYTE      ISP_ADDRL
      000000E8H.2 SFRSYM    DATA     BIT       P42
      000000B0H.4 SFRSYM    DATA     BIT       P34
      000000A0H.5 SFRSYM    DATA     BIT       P25
      00000090H.6 SFRSYM    DATA     BIT       P16
LX51 LINKER/LOCATER V4.66.87.0                                                        05/30/2018  19:50:23  PAGE 169


      00000080H.7 SFRSYM    DATA     BIT       P07
      000000E8H.3 SFRSYM    DATA     BIT       P43
      000000B0H.5 SFRSYM    DATA     BIT       P35
      000000A0H.6 SFRSYM    DATA     BIT       P26
      00000090H.7 SFRSYM    DATA     BIT       P17
      000000E8H.4 SFRSYM    DATA     BIT       P44
      000000B0H.6 SFRSYM    DATA     BIT       P36
      000000A0H.7 SFRSYM    DATA     BIT       P27
      000000E8H.5 SFRSYM    DATA     BIT       P45
      000000B0H.7 SFRSYM    DATA     BIT       P37
      000000E8H.6 SFRSYM    DATA     BIT       P46
      00000088H.1 SFRSYM    DATA     BIT       IE0
      00000088H.3 SFRSYM    DATA     BIT       IE1
      0000008EH   SFRSYM    DATA     BYTE      AUXR
      000000F0H   SFRSYM    DATA     BYTE      B
      000000C8H.0 SFRSYM    DATA     BIT       CP_RL2
      000000E0H   SFRSYM    DATA     BYTE      ACC
      000000A8H.1 SFRSYM    DATA     BIT       ET0
      000000A8H.3 SFRSYM    DATA     BIT       ET1
      00000088H.5 SFRSYM    DATA     BIT       TF0
      000000A8H.5 SFRSYM    DATA     BIT       ET2
      00000088H.7 SFRSYM    DATA     BIT       TF1
      000000C8H.7 SFRSYM    DATA     BIT       TF2
      00000098H.2 SFRSYM    DATA     BIT       RB8
      0000008CH   SFRSYM    DATA     BYTE      TH0
      000000A8H.0 SFRSYM    DATA     BIT       EX0
      00000088H.0 SFRSYM    DATA     BIT       IT0
      0000008DH   SFRSYM    DATA     BYTE      TH1
      00000098H.3 SFRSYM    DATA     BIT       TB8
      000000A8H.2 SFRSYM    DATA     BIT       EX1
      00000088H.2 SFRSYM    DATA     BIT       IT1
      000000CDH   SFRSYM    DATA     BYTE      TH2
      000000D0H.0 SFRSYM    DATA     BIT       P
      00000098H.7 SFRSYM    DATA     BIT       SM0
      0000008AH   SFRSYM    DATA     BYTE      TL0
      00000098H.6 SFRSYM    DATA     BIT       SM1
      0000008BH   SFRSYM    DATA     BYTE      TL1
      00000098H.5 SFRSYM    DATA     BIT       SM2
      000000CCH   SFRSYM    DATA     BYTE      TL2
      000000B0H.7 SFRSYM    DATA     BIT       ROM_RESET
      000000B8H.1 SFRSYM    DATA     BIT       PT0
      000000B8H.3 SFRSYM    DATA     BIT       PT1
      000000D0H.3 SFRSYM    DATA     BIT       RS0
      000000E7H   SFRSYM    DATA     BYTE      ISP_CONTR
      000000B8H.5 SFRSYM    DATA     BIT       PT2
      00000088H.4 SFRSYM    DATA     BIT       TR0
      000000D0H.4 SFRSYM    DATA     BIT       RS1
      00000088H.6 SFRSYM    DATA     BIT       TR1
      000000C8H.2 SFRSYM    DATA     BIT       TR2
      000000B8H.0 SFRSYM    DATA     BIT       PX0
      000000E1H   SFRSYM    DATA     BYTE      WDT_CONTR
      000000B8H.2 SFRSYM    DATA     BIT       PX1
      00000083H   SFRSYM    DATA     BYTE      DPH
      00000082H   SFRSYM    DATA     BYTE      DPL
      000000B7H   SFRSYM    DATA     BYTE      IPH
      000000C8H.3 SFRSYM    DATA     BIT       EXEN2
      00000098H.4 SFRSYM    DATA     BIT       REN
      000000C9H   SFRSYM    DATA     BYTE      T2MOD
      000000C8H   SFRSYM    DATA     BYTE      T2CON
      000000E2H   SFRSYM    DATA     BYTE      ISP_DATA
      000000B9H   SFRSYM    DATA     BYTE      SADEN
      000000B0H.0 SFRSYM    DATA     BIT       RXD
      000000A9H   SFRSYM    DATA     BYTE      SADDR
      000000B0H.1 SFRSYM    DATA     BIT       TXD
      000000A2H   SFRSYM    DATA     BYTE      AUXR1
LX51 LINKER/LOCATER V4.66.87.0                                                        05/30/2018  19:50:23  PAGE 170


      000000D0H.5 SFRSYM    DATA     BIT       F0
      000000D0H   SFRSYM    DATA     BYTE      PSW
      01003D34H   SYMBOL    CODE     ---       rom_reset
      01004A65H   SYMBOL    CODE     ---       rom_dump

      01006D54H   BLOCK     CODE     ---       LVL=0
      02000016H   SYMBOL    XDATA    BYTE      addr
      01006D59H   BLOCK     CODE     NEAR LAB  LVL=1
      02000017H   SYMBOL    XDATA    BYTE      dat
      ---         BLOCKEND  ---      ---       LVL=1
      01006D54H   LINE      CODE     ---       #11
      01006D59H   LINE      CODE     ---       #12
      01006D59H   LINE      CODE     ---       #14
      01006D5CH   LINE      CODE     ---       #15
      01006D69H   LINE      CODE     ---       #16
      01006D82H   LINE      CODE     ---       #17
      01006D87H   LINE      CODE     ---       #18
      ---         BLOCKEND  ---      ---       LVL=0

      01006EEAH   BLOCK     CODE     ---       LVL=0
      02000017H   SYMBOL    XDATA    BYTE      addr
      02000018H   SYMBOL    XDATA    BYTE      val
      01006EEAH   LINE      CODE     ---       #20
      01006EF2H   LINE      CODE     ---       #21
      01006EF2H   LINE      CODE     ---       #22
      01006EF5H   LINE      CODE     ---       #23
      01006F02H   LINE      CODE     ---       #24
      ---         BLOCKEND  ---      ---       LVL=0

      01004A65H   BLOCK     CODE     ---       LVL=0
      01004A65H   LINE      CODE     ---       #27
      01004A65H   LINE      CODE     ---       #28
      01004A65H   LINE      CODE     ---       #29
      01004A6AH   LINE      CODE     ---       #30
      01004A6FH   LINE      CODE     ---       #31
      01004A74H   LINE      CODE     ---       #32
      01004A79H   LINE      CODE     ---       #34
      01004A7EH   LINE      CODE     ---       #35
      01004A83H   LINE      CODE     ---       #36
      01004A88H   LINE      CODE     ---       #37
      01004A8DH   LINE      CODE     ---       #38
      01004A92H   LINE      CODE     ---       #40
      01004A97H   LINE      CODE     ---       #41
      01004A9CH   LINE      CODE     ---       #42
      01004AA1H   LINE      CODE     ---       #43
      01004AA6H   LINE      CODE     ---       #45
      01004AABH   LINE      CODE     ---       #46
      01004AB0H   LINE      CODE     ---       #47
      01004AB5H   LINE      CODE     ---       #48
      01004ABAH   LINE      CODE     ---       #49
      01004ABFH   LINE      CODE     ---       #50
      01004AC4H   LINE      CODE     ---       #52
      01004AC9H   LINE      CODE     ---       #53
      01004ACEH   LINE      CODE     ---       #54
      01004AD3H   LINE      CODE     ---       #55
      01004AD8H   LINE      CODE     ---       #56
      01004ADDH   LINE      CODE     ---       #57
      ---         BLOCKEND  ---      ---       LVL=0

      01003D34H   BLOCK     CODE     ---       LVL=0
      01003D34H   LINE      CODE     ---       #60
      01003D34H   LINE      CODE     ---       #61
      01003D34H   LINE      CODE     ---       #62
      01003D3BH   LINE      CODE     ---       #63
      01003D42H   LINE      CODE     ---       #64
LX51 LINKER/LOCATER V4.66.87.0                                                        05/30/2018  19:50:23  PAGE 171


      01003D49H   LINE      CODE     ---       #65
      01003D4BH   LINE      CODE     ---       #67
      01003D53H   LINE      CODE     ---       #68
      01003D5AH   LINE      CODE     ---       #69
      01003D61H   LINE      CODE     ---       #70
      01003D68H   LINE      CODE     ---       #73
      01003D6AH   LINE      CODE     ---       #75
      01003D72H   LINE      CODE     ---       #76
      01003D79H   LINE      CODE     ---       #77
      01003D80H   LINE      CODE     ---       #78
      01003D87H   LINE      CODE     ---       #80
      01003D8EH   LINE      CODE     ---       #81
      01003D95H   LINE      CODE     ---       #82
      01003D9CH   LINE      CODE     ---       #83
      01003DA3H   LINE      CODE     ---       #84
      01003DAAH   LINE      CODE     ---       #85
      01003DB1H   LINE      CODE     ---       #87
      01003DB8H   LINE      CODE     ---       #88
      01003DBFH   LINE      CODE     ---       #89
      01003DC6H   LINE      CODE     ---       #90
      01003DCDH   LINE      CODE     ---       #91
      01003DD4H   LINE      CODE     ---       #92
      01003DDBH   LINE      CODE     ---       #93
      ---         BLOCKEND  ---      ---       LVL=0

      01008BE6H   BLOCK     CODE     ---       LVL=0
      01008BE6H   LINE      CODE     ---       #95
      01008BE6H   LINE      CODE     ---       #96
      01008BE6H   LINE      CODE     ---       #97
      01008BEDH   LINE      CODE     ---       #98
      ---         BLOCKEND  ---      ---       LVL=0

      0100686FH   BLOCK     CODE     ---       LVL=0
      0100686FH   LINE      CODE     ---       #100
      0100686FH   LINE      CODE     ---       #101
      0100686FH   LINE      CODE     ---       #102
      01006899H   LINE      CODE     ---       #103
      0100689EH   LINE      CODE     ---       #104
      010068A7H   LINE      CODE     ---       #105
      010068AAH   LINE      CODE     ---       #106
      010068AAH   LINE      CODE     ---       #108
      ---         BLOCKEND  ---      ---       LVL=0

      ---         MODULE    ---      ---       DELAY_TASK
      01005F92H   PUBLIC    CODE     ---       delay_task_call
      010062E8H   PUBLIC    CODE     ---       _delay_task_reg
      01008B72H   PUBLIC    CODE     ---       delay_task_initialize
      020000C9H   SYMBOL    XDATA    ---       delay_tasks
      020000CCH   SYMBOL    XDATA    ---       task

      01007A3AH   BLOCK     CODE     ---       LVL=0
      ---         BLOCKEND  ---      ---       LVL=0

      01008B72H   BLOCK     CODE     ---       LVL=0
      01008B72H   LINE      CODE     ---       #9
      01008B72H   LINE      CODE     ---       #10
      01008B72H   LINE      CODE     ---       #11
      ---         BLOCKEND  ---      ---       LVL=0

      010062E8H   BLOCK     CODE     ---       LVL=0
      02000015H   SYMBOL    XDATA    BYTE      index
      02000016H   SYMBOL    XDATA    ---       task
      02000018H   SYMBOL    XDATA    BYTE      delay_sec
      010062E8H   LINE      CODE     ---       #14
      010062FBH   LINE      CODE     ---       #15
LX51 LINKER/LOCATER V4.66.87.0                                                        05/30/2018  19:50:23  PAGE 172


      010062FBH   LINE      CODE     ---       #16
      0100630CH   LINE      CODE     ---       #17
      01006316H   LINE      CODE     ---       #19
      01006316H   LINE      CODE     ---       #21
      01006325H   LINE      CODE     ---       #22
      01006330H   LINE      CODE     ---       #23
      ---         BLOCKEND  ---      ---       LVL=0

      01005F92H   BLOCK     CODE     ---       LVL=0
      01005F92H   BLOCK     CODE     NEAR LAB  LVL=1
      0200000DH   SYMBOL    XDATA    BYTE      i
      ---         BLOCKEND  ---      ---       LVL=1
      01005F92H   LINE      CODE     ---       #26
      01005F92H   LINE      CODE     ---       #27
      01005F92H   LINE      CODE     ---       #30
      01005FA1H   LINE      CODE     ---       #31
      01005FB8H   LINE      CODE     ---       #32
      01005FC6H   LINE      CODE     ---       #33
      01005FD3H   LINE      CODE     ---       #34
      01005FDAH   LINE      CODE     ---       #35
      01005FDAH   LINE      CODE     ---       #36
      01005FE2H   LINE      CODE     ---       #37
      ---         BLOCKEND  ---      ---       LVL=0

      ---         MODULE    ---      ---       SHELL
      0200007DH   PUBLIC    XDATA    ---       shell_buf
      01009D75H   PUBLIC    CONST    ---       cmds
      01002493H   PUBLIC    CODE     ---       run_shell
      01006CB6H   PUBLIC    CODE     ---       shell_dump_cmd
      01006331H   PUBLIC    CODE     ---       _shell_search_cmd_by_name
      01004AE2H   SYMBOL    CODE     ---       _call_cmd
      010089A6H   SYMBOL    CODE     ---       _cmd_null

      01006123H   BLOCK     CODE     ---       LVL=0
      ---         BLOCKEND  ---      ---       LVL=0

      010089A6H   BLOCK     CODE     ---       LVL=0
      02000000H   SYMBOL    XDATA    CHAR      arg1
      02000001H   SYMBOL    XDATA    CHAR      arg2
      010089A6H   LINE      CODE     ---       #26
      010089A6H   LINE      CODE     ---       #27
      010089A6H   LINE      CODE     ---       #28
      010089A6H   LINE      CODE     ---       #29
      010089A6H   LINE      CODE     ---       #30
      010089AFH   LINE      CODE     ---       #31
      010089B1H   LINE      CODE     ---       #32
      ---         BLOCKEND  ---      ---       LVL=0

      01006331H   BLOCK     CODE     ---       LVL=0
      02000009H   SYMBOL    XDATA    ---       cmd
      01006337H   BLOCK     CODE     NEAR LAB  LVL=1
      0200000CH   SYMBOL    XDATA    CHAR      i
      ---         BLOCKEND  ---      ---       LVL=1
      01006331H   LINE      CODE     ---       #81
      01006337H   LINE      CODE     ---       #82
      01006337H   LINE      CODE     ---       #84
      01006348H   LINE      CODE     ---       #85
      01006369H   LINE      CODE     ---       #86
      0100636FH   LINE      CODE     ---       #87
      0100636FH   LINE      CODE     ---       #88
      01006377H   LINE      CODE     ---       #89
      01006379H   LINE      CODE     ---       #90
      ---         BLOCKEND  ---      ---       LVL=0

      01004AE2H   BLOCK     CODE     ---       LVL=0
LX51 LINKER/LOCATER V4.66.87.0                                                        05/30/2018  19:50:23  PAGE 173


      02000002H   SYMBOL    XDATA    ---       buf
      02000005H   SYMBOL    XDATA    CHAR      arg1
      02000006H   SYMBOL    XDATA    CHAR      arg2
      01004AEDH   BLOCK     CODE     NEAR LAB  LVL=1
      02000007H   SYMBOL    XDATA    CHAR      i
      ---         BLOCKEND  ---      ---       LVL=1
      01004AE2H   LINE      CODE     ---       #92
      01004AEDH   LINE      CODE     ---       #93
      01004AEDH   LINE      CODE     ---       #95
      01004AF9H   LINE      CODE     ---       #96
      01004B07H   LINE      CODE     ---       #97
      01004B0AH   LINE      CODE     ---       #98
      01004B32H   LINE      CODE     ---       #99
      01004B4FH   LINE      CODE     ---       #100
      01004B4FH   LINE      CODE     ---       #101
      01004B51H   LINE      CODE     ---       #102
      01004B5DH   LINE      CODE     ---       #103
      01004B5DH   LINE      CODE     ---       #104
      ---         BLOCKEND  ---      ---       LVL=0

      01006CB6H   BLOCK     CODE     ---       LVL=0
      01006CB6H   BLOCK     CODE     NEAR LAB  LVL=1
      02000009H   SYMBOL    XDATA    CHAR      i
      ---         BLOCKEND  ---      ---       LVL=1
      01006CB6H   LINE      CODE     ---       #106
      01006CB6H   LINE      CODE     ---       #107
      01006CB6H   LINE      CODE     ---       #109
      01006CC7H   LINE      CODE     ---       #110
      01006CE2H   LINE      CODE     ---       #111
      01006CEAH   LINE      CODE     ---       #112
      ---         BLOCKEND  ---      ---       LVL=0

      01002493H   BLOCK     CODE     ---       LVL=0
      01002493H   BLOCK     CODE     NEAR LAB  LVL=1
      02000000H   SYMBOL    XDATA    CHAR      arg1_pos
      02000001H   SYMBOL    XDATA    CHAR      arg2_pos
      ---         BLOCKEND  ---      ---       LVL=1
      01002493H   LINE      CODE     ---       #114
      01002493H   LINE      CODE     ---       #115
      01002493H   LINE      CODE     ---       #118
      01002496H   LINE      CODE     ---       #119
      0100249FH   LINE      CODE     ---       #120
      010024A2H   LINE      CODE     ---       #123
      010024A5H   LINE      CODE     ---       #124
      010024A8H   LINE      CODE     ---       #125
      010024ABH   LINE      CODE     ---       #126
      010024B2H   LINE      CODE     ---       #127
      010024B9H   LINE      CODE     ---       #128
      010024C0H   LINE      CODE     ---       #129
      010024C7H   LINE      CODE     ---       #130
      010024CCH   LINE      CODE     ---       #131
      010024CCH   LINE      CODE     ---       #132
      010024D5H   LINE      CODE     ---       #134
      010024E2H   LINE      CODE     ---       #136
      010024E7H   LINE      CODE     ---       #138
      010024F0H   LINE      CODE     ---       #139
      010024F0H   LINE      CODE     ---       #141
      010024F5H   LINE      CODE     ---       #142
      010024F7H   LINE      CODE     ---       #144
      0100250CH   LINE      CODE     ---       #146
      01002517H   LINE      CODE     ---       #147
      01002517H   LINE      CODE     ---       #148
      01002519H   LINE      CODE     ---       #149
      01002519H   LINE      CODE     ---       #151
      01002525H   LINE      CODE     ---       #152
LX51 LINKER/LOCATER V4.66.87.0                                                        05/30/2018  19:50:23  PAGE 174


      0100252AH   LINE      CODE     ---       #153
      01002530H   LINE      CODE     ---       #154
      01002532H   LINE      CODE     ---       #156
      0100253DH   LINE      CODE     ---       #157
      01002549H   LINE      CODE     ---       #158
      0100254BH   LINE      CODE     ---       #159
      0100254BH   LINE      CODE     ---       #161
      01002551H   LINE      CODE     ---       #163
      01002569H   LINE      CODE     ---       #165
      01002574H   LINE      CODE     ---       #166
      0100257CH   LINE      CODE     ---       #167
      0100257EH   LINE      CODE     ---       #168
      0100257EH   LINE      CODE     ---       #170
      0100258DH   LINE      CODE     ---       #171
      01002592H   LINE      CODE     ---       #172
      01002598H   LINE      CODE     ---       #173
      0100259AH   LINE      CODE     ---       #175
      010025A8H   LINE      CODE     ---       #176
      010025B0H   LINE      CODE     ---       #177
      010025B2H   LINE      CODE     ---       #178
      010025B2H   LINE      CODE     ---       #180
      010025BEH   LINE      CODE     ---       #182
      010025D3H   LINE      CODE     ---       #184
      010025D6H   LINE      CODE     ---       #185
      010025D9H   LINE      CODE     ---       #186
      010025DCH   LINE      CODE     ---       #187
      ---         BLOCKEND  ---      ---       LVL=0

      ---         MODULE    ---      ---       DEBUG
      0200001CH   PUBLIC    XDATA    BYTE      ?_debug_printf?BYTE
      01006C13H   PUBLIC    CODE     ---       _debug_printf
      00000020H.0 PUBLIC    BIT      BIT       ?debug_onoff?BIT
      01008CC0H   PUBLIC    CODE     ---       debug_onoff
      01008CF3H   PUBLIC    CODE     ---       debug_initialize
      00000025H.4 SYMBOL    BIT      BIT       debug_is_on

      01008CF3H   BLOCK     CODE     ---       LVL=0
      01008CF3H   LINE      CODE     ---       #7
      01008CF3H   LINE      CODE     ---       #8
      01008CF3H   LINE      CODE     ---       #9
      01008CF5H   LINE      CODE     ---       #10
      ---         BLOCKEND  ---      ---       LVL=0

      01008CC0H   BLOCK     CODE     ---       LVL=0
      00000020H.0 SYMBOL    BIT      BIT       enable
      01008CC0H   LINE      CODE     ---       #12
      01008CC0H   LINE      CODE     ---       #13
      01008CC0H   LINE      CODE     ---       #14
      01008CC4H   LINE      CODE     ---       #15
      ---         BLOCKEND  ---      ---       LVL=0

      01006C13H   BLOCK     CODE     ---       LVL=0
      0200001CH   SYMBOL    XDATA    ---       fmt
      01006C19H   BLOCK     CODE     NEAR LAB  LVL=1
      0200001FH   SYMBOL    XDATA    ---       ellipsis_40
      02000047H   SYMBOL    XDATA    ---       arg_ptr
      ---         BLOCKEND  ---      ---       LVL=1
      01006C13H   LINE      CODE     ---       #17
      01006C19H   LINE      CODE     ---       #18
      01006C19H   LINE      CODE     ---       #21
      01006C1CH   LINE      CODE     ---       #22
      01006C28H   LINE      CODE     ---       #23
      01006C3DH   LINE      CODE     ---       #24
      01006C49H   LINE      CODE     ---       #25
      01006C49H   LINE      CODE     ---       #26
LX51 LINKER/LOCATER V4.66.87.0                                                        05/30/2018  19:50:23  PAGE 175


      ---         BLOCKEND  ---      ---       LVL=0

      ---         MODULE    ---      ---       MPU
      0100778DH   PUBLIC    CODE     ---       mpu_read_int_status
      010088CEH   PUBLIC    CODE     ---       _mpu_threshold_set
      01008C6AH   PUBLIC    CODE     ---       mpu_threshold_get
      01008670H   PUBLIC    CODE     ---       _mpu_threshold_inc
      01008BEEH   PUBLIC    CODE     ---       mpu_threshold_reset
      00000020H.1 PUBLIC    BIT      BIT       ?mpu_enable?BIT
      01007AF9H   PUBLIC    CODE     ---       mpu_enable
      010070C9H   PUBLIC    CODE     ---       scan_mpu
      01008B84H   PUBLIC    CODE     ---       mpu_leave_powersave
      01008B7BH   PUBLIC    CODE     ---       mpu_enter_powersave
      01008813H   PUBLIC    CODE     ---       mpu_initialize
      01007154H   SYMBOL    CODE     ---       mpu_power_off
      020000E8H   SYMBOL    XDATA    BYTE      mpu_threshold
      01006F1BH   SYMBOL    CODE     ---       mpu_power_on
      01007A5AH   SYMBOL    CODE     ---       mpu_load_config

      010085BBH   BLOCK     CODE     ---       LVL=0
      ---         BLOCKEND  ---      ---       LVL=0

      01007A5AH   BLOCK     CODE     ---       LVL=0
      01007A5AH   LINE      CODE     ---       #19
      01007A5AH   LINE      CODE     ---       #20
      01007A5AH   LINE      CODE     ---       #21
      01007A63H   LINE      CODE     ---       #22
      01007A6DH   LINE      CODE     ---       #23
      ---         BLOCKEND  ---      ---       LVL=0

      01006F1BH   BLOCK     CODE     ---       LVL=0
      01006F1BH   BLOCK     CODE     NEAR LAB  LVL=1
      02000015H   SYMBOL    XDATA    BYTE      val
      ---         BLOCKEND  ---      ---       LVL=1
      01006F1BH   LINE      CODE     ---       #26
      01006F1BH   LINE      CODE     ---       #27
      01006F1BH   LINE      CODE     ---       #29
      01006F24H   LINE      CODE     ---       #31
      01006F27H   LINE      CODE     ---       #35
      01006F30H   LINE      CODE     ---       #38
      01006F39H   LINE      CODE     ---       #41
      01006F43H   LINE      CODE     ---       #43
      ---         BLOCKEND  ---      ---       LVL=0

      01007154H   BLOCK     CODE     ---       LVL=0
      01007154H   BLOCK     CODE     NEAR LAB  LVL=1
      02000015H   SYMBOL    XDATA    BYTE      val
      ---         BLOCKEND  ---      ---       LVL=1
      01007154H   LINE      CODE     ---       #119
      01007154H   LINE      CODE     ---       #120
      01007154H   LINE      CODE     ---       #122
      0100715DH   LINE      CODE     ---       #125
      01007166H   LINE      CODE     ---       #128
      0100716FH   LINE      CODE     ---       #131
      01007179H   LINE      CODE     ---       #133
      ---         BLOCKEND  ---      ---       LVL=0

      01008813H   BLOCK     CODE     ---       LVL=0
      01008813H   LINE      CODE     ---       #157
      01008813H   LINE      CODE     ---       #158
      01008813H   LINE      CODE     ---       #159
      0100881CH   LINE      CODE     ---       #161
      0100881FH   LINE      CODE     ---       #163
      ---         BLOCKEND  ---      ---       LVL=0

LX51 LINKER/LOCATER V4.66.87.0                                                        05/30/2018  19:50:23  PAGE 176


      01008B7BH   BLOCK     CODE     ---       LVL=0
      01008B7BH   LINE      CODE     ---       #166
      01008B7BH   LINE      CODE     ---       #167
      01008B7BH   LINE      CODE     ---       #168
      ---         BLOCKEND  ---      ---       LVL=0

      01008B84H   BLOCK     CODE     ---       LVL=0
      01008B84H   LINE      CODE     ---       #171
      01008B84H   LINE      CODE     ---       #172
      01008B84H   LINE      CODE     ---       #173
      ---         BLOCKEND  ---      ---       LVL=0

      010070C9H   BLOCK     CODE     ---       LVL=0
      010070C9H   BLOCK     CODE     NEAR LAB  LVL=1
      00000007H   SYMBOL    DATA     BYTE      val
      00000020H.0 SYMBOL    BIT      BIT       has_event
      ---         BLOCKEND  ---      ---       LVL=1
      010070C9H   LINE      CODE     ---       #176
      010070C9H   LINE      CODE     ---       #177
      010070C9H   LINE      CODE     ---       #179
      010070CBH   LINE      CODE     ---       #181
      010070D4H   LINE      CODE     ---       #182
      010070D7H   LINE      CODE     ---       #185
      010070DBH   LINE      CODE     ---       #189
      010070E4H   LINE      CODE     ---       #190
      010070EAH   LINE      CODE     ---       #191
      010070ECH   LINE      CODE     ---       #192
      010070ECH   LINE      CODE     ---       #194
      010070F4H   LINE      CODE     ---       #195
      010070F7H   LINE      CODE     ---       #196
      010070F7H   LINE      CODE     ---       #197
      ---         BLOCKEND  ---      ---       LVL=0

      01007AF9H   BLOCK     CODE     ---       LVL=0
      00000020H.1 SYMBOL    BIT      BIT       enable
      01007AF9H   LINE      CODE     ---       #199
      01007AF9H   LINE      CODE     ---       #200
      01007AF9H   LINE      CODE     ---       #201
      01007B0EH   LINE      CODE     ---       #202
      01007B11H   LINE      CODE     ---       #203
      01007B14H   LINE      CODE     ---       #204
      01007B14H   LINE      CODE     ---       #205
      01007B17H   LINE      CODE     ---       #206
      01007B17H   LINE      CODE     ---       #208
      ---         BLOCKEND  ---      ---       LVL=0

      01008BEEH   BLOCK     CODE     ---       LVL=0
      01008BEEH   LINE      CODE     ---       #210
      01008BEEH   LINE      CODE     ---       #211
      01008BEEH   LINE      CODE     ---       #212
      ---         BLOCKEND  ---      ---       LVL=0

      01008670H   BLOCK     CODE     ---       LVL=0
      00000007H   SYMBOL    DATA     BYTE      thres
      01008670H   LINE      CODE     ---       #216
      01008670H   LINE      CODE     ---       #217
      01008670H   LINE      CODE     ---       #218
      01008674H   LINE      CODE     ---       #219
      0100867AH   LINE      CODE     ---       #220
      0100867BH   LINE      CODE     ---       #221
      0100867CH   LINE      CODE     ---       #222
      0100867CH   LINE      CODE     ---       #223
      0100867FH   LINE      CODE     ---       #224
      0100867FH   LINE      CODE     ---       #225
      0100867FH   LINE      CODE     ---       #226
LX51 LINKER/LOCATER V4.66.87.0                                                        05/30/2018  19:50:23  PAGE 177


      01008681H   LINE      CODE     ---       #227
      01008681H   LINE      CODE     ---       #228
      ---         BLOCKEND  ---      ---       LVL=0

      01008C6AH   BLOCK     CODE     ---       LVL=0
      01008C6AH   LINE      CODE     ---       #230
      01008C6AH   LINE      CODE     ---       #231
      01008C6AH   LINE      CODE     ---       #233
      01008C6FH   LINE      CODE     ---       #239
      ---         BLOCKEND  ---      ---       LVL=0

      010088CEH   BLOCK     CODE     ---       LVL=0
      00000007H   SYMBOL    DATA     BYTE      val
      010088CEH   LINE      CODE     ---       #241
      010088CEH   LINE      CODE     ---       #242
      010088CEH   LINE      CODE     ---       #243
      ---         BLOCKEND  ---      ---       LVL=0

      0100778DH   BLOCK     CODE     ---       LVL=0
      0100778DH   BLOCK     CODE     NEAR LAB  LVL=1
      02000016H   SYMBOL    XDATA    BYTE      val
      ---         BLOCKEND  ---      ---       LVL=1
      0100778DH   LINE      CODE     ---       #261
      0100778DH   LINE      CODE     ---       #262
      0100778DH   LINE      CODE     ---       #265
      0100779AH   LINE      CODE     ---       #269
      010077ABH   LINE      CODE     ---       #270
      010077B0H   LINE      CODE     ---       #271
      ---         BLOCKEND  ---      ---       LVL=0

      ---         MODULE    ---      ---       SM_CLOCK_TIMER
      0100C9DCH   PUBLIC    CONST    ---       sm_clock_timer_ss_name
      010058BEH   PUBLIC    CODE     ---       _sm_clock_timer_submod2
      01004F1FH   PUBLIC    CODE     ---       _sm_clock_timer_submod1
      0100640CH   PUBLIC    CODE     ---       _sm_clock_timer_submod0
      01007FB2H   PUBLIC    CODE     ---       _sm_clock_timer_init
      01004968H   SYMBOL    CODE     ---       _display_slot
      01006AC0H   SYMBOL    CODE     ---       _show_slot_title

      01007997H   BLOCK     CODE     ---       LVL=0
      ---         BLOCKEND  ---      ---       LVL=0

      01006AC0H   BLOCK     CODE     ---       LVL=0
      02000012H   SYMBOL    XDATA    BYTE      slot
      01006AC0H   LINE      CODE     ---       #20
      01006AC5H   LINE      CODE     ---       #21
      01006AC5H   LINE      CODE     ---       #22
      01006AC8H   LINE      CODE     ---       #23
      01006ACFH   LINE      CODE     ---       #24
      01006AD6H   LINE      CODE     ---       #25
      01006ADDH   LINE      CODE     ---       #26
      01006AEDH   LINE      CODE     ---       #27
      ---         BLOCKEND  ---      ---       LVL=0

      01004968H   BLOCK     CODE     ---       LVL=0
      02000014H   SYMBOL    XDATA    BYTE      slot
      01004968H   LINE      CODE     ---       #30
      0100496DH   LINE      CODE     ---       #31
      0100496DH   LINE      CODE     ---       #32
      01004970H   LINE      CODE     ---       #34
      01004975H   LINE      CODE     ---       #35
      01004979H   LINE      CODE     ---       #36
      0100497DH   LINE      CODE     ---       #37
      01004981H   LINE      CODE     ---       #38
      0100498CH   LINE      CODE     ---       #39
LX51 LINKER/LOCATER V4.66.87.0                                                        05/30/2018  19:50:23  PAGE 178


      01004995H   LINE      CODE     ---       #40
      0100499EH   LINE      CODE     ---       #41
      010049ACH   LINE      CODE     ---       #42
      010049B7H   LINE      CODE     ---       #43
      010049C5H   LINE      CODE     ---       #44
      ---         BLOCKEND  ---      ---       LVL=0

      01007FB2H   BLOCK     CODE     ---       LVL=0
      00000007H   SYMBOL    DATA     BYTE      from
      00000005H   SYMBOL    DATA     BYTE      to
      00000006H   SYMBOL    DATA     BYTE      ev
      01007FB2H   LINE      CODE     ---       #46
      01007FB4H   LINE      CODE     ---       #47
      01007FB4H   LINE      CODE     ---       #48
      01007FC0H   LINE      CODE     ---       #49
      01007FC5H   LINE      CODE     ---       #50
      ---         BLOCKEND  ---      ---       LVL=0

      0100640CH   BLOCK     CODE     ---       LVL=0
      02000011H   SYMBOL    XDATA    BYTE      from
      02000012H   SYMBOL    XDATA    BYTE      to
      02000013H   SYMBOL    XDATA    BYTE      ev
      0100640CH   LINE      CODE     ---       #53
      01006417H   LINE      CODE     ---       #54
      01006417H   LINE      CODE     ---       #55
      01006421H   LINE      CODE     ---       #57
      01006436H   LINE      CODE     ---       #59
      01006436H   LINE      CODE     ---       #60
      0100643BH   LINE      CODE     ---       #61
      01006440H   LINE      CODE     ---       #62
      01006444H   LINE      CODE     ---       #64
      01006444H   LINE      CODE     ---       #67
      0100644BH   LINE      CODE     ---       #68
      0100644EH   LINE      CODE     ---       #69
      01006453H   LINE      CODE     ---       #71
      01006453H   LINE      CODE     ---       #72
      ---         BLOCKEND  ---      ---       LVL=0

      01004F1FH   BLOCK     CODE     ---       LVL=0
      00000007H   SYMBOL    DATA     BYTE      from
      00000005H   SYMBOL    DATA     BYTE      to
      02000011H   SYMBOL    XDATA    BYTE      ev
      01004F1FH   LINE      CODE     ---       #74
      01004F24H   LINE      CODE     ---       #75
      01004F24H   LINE      CODE     ---       #76
      01004F2EH   LINE      CODE     ---       #78
      01004F35H   LINE      CODE     ---       #79
      01004F38H   LINE      CODE     ---       #80
      01004F3BH   LINE      CODE     ---       #81
      01004F3FH   LINE      CODE     ---       #83
      01004F3FH   LINE      CODE     ---       #86
      01004F46H   LINE      CODE     ---       #87
      01004F4FH   LINE      CODE     ---       #88
      01004F5AH   LINE      CODE     ---       #89
      01004F62H   LINE      CODE     ---       #90
      01004F62H   LINE      CODE     ---       #92
      01004F62H   LINE      CODE     ---       #94
      01004F69H   LINE      CODE     ---       #95
      01004F72H   LINE      CODE     ---       #96
      01004F75H   LINE      CODE     ---       #97
      01004F7DH   LINE      CODE     ---       #98
      01004F83H   LINE      CODE     ---       #99
      01004F83H   LINE      CODE     ---       #101
      01004F83H   LINE      CODE     ---       #102
      ---         BLOCKEND  ---      ---       LVL=0
LX51 LINKER/LOCATER V4.66.87.0                                                        05/30/2018  19:50:23  PAGE 179



      010058BEH   BLOCK     CODE     ---       LVL=0
      00000007H   SYMBOL    DATA     BYTE      from
      00000005H   SYMBOL    DATA     BYTE      to
      02000011H   SYMBOL    XDATA    BYTE      ev
      010058BEH   LINE      CODE     ---       #104
      010058C4H   LINE      CODE     ---       #105
      010058C4H   LINE      CODE     ---       #106
      010058D0H   LINE      CODE     ---       #108
      010058D7H   LINE      CODE     ---       #109
      010058DAH   LINE      CODE     ---       #110
      010058E5H   LINE      CODE     ---       #111
      010058EAH   LINE      CODE     ---       #112
      010058EEH   LINE      CODE     ---       #114
      010058EEH   LINE      CODE     ---       #117
      010058F5H   LINE      CODE     ---       #118
      010058FDH   LINE      CODE     ---       #120
      010058FDH   LINE      CODE     ---       #122
      01005904H   LINE      CODE     ---       #123
      0100590CH   LINE      CODE     ---       #124
      01005919H   LINE      CODE     ---       #126
      01005919H   LINE      CODE     ---       #127
      ---         BLOCKEND  ---      ---       LVL=0

      ---         MODULE    ---      ---       SM_CLOCK_COUNTER
      0100BDEFH   PUBLIC    CONST    ---       sm_clock_counter_ss_name
      01007667H   PUBLIC    CODE     ---       _sm_clock_counter_submod5
      01007886H   PUBLIC    CODE     ---       _sm_clock_counter_submod4
      010066F6H   PUBLIC    CODE     ---       _sm_clock_counter_submod3
      01005803H   PUBLIC    CODE     ---       _sm_clock_counter_submod2
      0100591AH   PUBLIC    CODE     ---       _sm_clock_counter_submod1
      0100436FH   PUBLIC    CODE     ---       _sm_clock_counter_submod0
      010083F4H   PUBLIC    CODE     ---       _sm_clock_counter_init
      010073E8H   SYMBOL    CODE     ---       _enter_hhmmss
      010072BBH   SYMBOL    CODE     ---       _write_only
      01008ABBH   SYMBOL    CODE     ---       _inc_and_write
      010064E0H   SYMBOL    CODE     ---       _inc_only
      01004073H   SYMBOL    CODE     ---       update_hhmmss

      01007412H   BLOCK     CODE     ---       LVL=0
      ---         BLOCKEND  ---      ---       LVL=0

      010064E0H   BLOCK     CODE     ---       LVL=0
      00000007H   SYMBOL    DATA     BYTE      what
      010064E0H   LINE      CODE     ---       #21
      010064E0H   LINE      CODE     ---       #22
      010064E0H   LINE      CODE     ---       #23
      010064EBH   LINE      CODE     ---       #24
      010064EBH   LINE      CODE     ---       #25
      010064EEH   LINE      CODE     ---       #26
      010064F0H   LINE      CODE     ---       #27
      010064F2H   LINE      CODE     ---       #28
      010064F5H   LINE      CODE     ---       #29
      010064F5H   LINE      CODE     ---       #30
      010064FAH   LINE      CODE     ---       #31
      010064FAH   LINE      CODE     ---       #32
      010064FAH   LINE      CODE     ---       #33
      010064FDH   LINE      CODE     ---       #34
      010064FFH   LINE      CODE     ---       #35
      01006501H   LINE      CODE     ---       #36
      01006504H   LINE      CODE     ---       #37
      01006504H   LINE      CODE     ---       #38
      01006509H   LINE      CODE     ---       #39
      01006509H   LINE      CODE     ---       #40
      01006509H   LINE      CODE     ---       #41
LX51 LINKER/LOCATER V4.66.87.0                                                        05/30/2018  19:50:23  PAGE 180


      0100650CH   LINE      CODE     ---       #42
      0100650EH   LINE      CODE     ---       #43
      01006513H   LINE      CODE     ---       #44
      01006517H   LINE      CODE     ---       #45
      01006517H   LINE      CODE     ---       #46
      0100651CH   LINE      CODE     ---       #47
      0100651CH   LINE      CODE     ---       #48
      0100651CH   LINE      CODE     ---       #49
      ---         BLOCKEND  ---      ---       LVL=0

      010072BBH   BLOCK     CODE     ---       LVL=0
      00000007H   SYMBOL    DATA     BYTE      what
      010072BBH   LINE      CODE     ---       #51
      010072BBH   LINE      CODE     ---       #52
      010072BBH   LINE      CODE     ---       #53
      010072C6H   LINE      CODE     ---       #54
      010072C6H   LINE      CODE     ---       #55
      010072C9H   LINE      CODE     ---       #56
      010072CBH   LINE      CODE     ---       #57
      010072CDH   LINE      CODE     ---       #58
      010072CDH   LINE      CODE     ---       #59
      010072CDH   LINE      CODE     ---       #60
      010072CFH   LINE      CODE     ---       #61
      010072CFH   LINE      CODE     ---       #62
      010072D2H   LINE      CODE     ---       #63
      010072D4H   LINE      CODE     ---       #64
      010072D6H   LINE      CODE     ---       #65
      010072D6H   LINE      CODE     ---       #66
      010072D6H   LINE      CODE     ---       #67
      010072D8H   LINE      CODE     ---       #68
      010072D8H   LINE      CODE     ---       #69
      010072DBH   LINE      CODE     ---       #70
      010072DDH   LINE      CODE     ---       #71
      010072E2H   LINE      CODE     ---       #72
      010072E6H   LINE      CODE     ---       #73
      010072E6H   LINE      CODE     ---       #74
      010072E6H   LINE      CODE     ---       #75
      010072E6H   LINE      CODE     ---       #76
      ---         BLOCKEND  ---      ---       LVL=0

      01008ABBH   BLOCK     CODE     ---       LVL=0
      00000006H   SYMBOL    DATA     BYTE      what
      01008ABBH   LINE      CODE     ---       #78
      01008ABDH   LINE      CODE     ---       #79
      01008ABDH   LINE      CODE     ---       #80
      01008AC0H   LINE      CODE     ---       #81
      ---         BLOCKEND  ---      ---       LVL=0

      01004073H   BLOCK     CODE     ---       LVL=0
      01004073H   BLOCK     CODE     NEAR LAB  LVL=1
      02000015H   SYMBOL    XDATA    BYTE      hour
      02000016H   SYMBOL    XDATA    BYTE      min
      02000017H   SYMBOL    XDATA    BYTE      sec
      ---         BLOCKEND  ---      ---       LVL=1
      01004073H   LINE      CODE     ---       #84
      01004073H   LINE      CODE     ---       #85
      01004073H   LINE      CODE     ---       #88
      0100407DH   LINE      CODE     ---       #89
      01004087H   LINE      CODE     ---       #90
      01004091H   LINE      CODE     ---       #93
      01004096H   LINE      CODE     ---       #94
      0100409AH   LINE      CODE     ---       #95
      0100409EH   LINE      CODE     ---       #96
      010040A2H   LINE      CODE     ---       #98
      010040C3H   LINE      CODE     ---       #100
LX51 LINKER/LOCATER V4.66.87.0                                                        05/30/2018  19:50:23  PAGE 181


      010040CBH   LINE      CODE     ---       #101
      010040D6H   LINE      CODE     ---       #102
      010040DEH   LINE      CODE     ---       #103
      010040E9H   LINE      CODE     ---       #104
      010040F9H   LINE      CODE     ---       #105
      01004104H   LINE      CODE     ---       #107
      ---         BLOCKEND  ---      ---       LVL=0

      010073E8H   BLOCK     CODE     ---       LVL=0
      02000014H   SYMBOL    XDATA    BYTE      what
      010073E8H   LINE      CODE     ---       #109
      010073EDH   LINE      CODE     ---       #110
      010073EDH   LINE      CODE     ---       #111
      010073F0H   LINE      CODE     ---       #112
      010073FEH   LINE      CODE     ---       #113
      010073FEH   LINE      CODE     ---       #114
      01007400H   LINE      CODE     ---       #115
      01007400H   LINE      CODE     ---       #116
      01007402H   LINE      CODE     ---       #117
      01007402H   LINE      CODE     ---       #118
      01007404H   LINE      CODE     ---       #119
      01007404H   LINE      CODE     ---       #120
      01007406H   LINE      CODE     ---       #121
      01007406H   LINE      CODE     ---       #122
      0100740BH   LINE      CODE     ---       #123
      0100740FH   LINE      CODE     ---       #124
      0100740FH   LINE      CODE     ---       #125
      0100740FH   LINE      CODE     ---       #126
      ---         BLOCKEND  ---      ---       LVL=0

      010083F4H   BLOCK     CODE     ---       LVL=0
      00000007H   SYMBOL    DATA     BYTE      from
      00000005H   SYMBOL    DATA     BYTE      to
      00000006H   SYMBOL    DATA     BYTE      ev
      010083F4H   LINE      CODE     ---       #129
      010083F6H   LINE      CODE     ---       #130
      010083F6H   LINE      CODE     ---       #131
      01008402H   LINE      CODE     ---       #132
      ---         BLOCKEND  ---      ---       LVL=0

      0100436FH   BLOCK     CODE     ---       LVL=0
      02000011H   SYMBOL    XDATA    BYTE      from
      02000012H   SYMBOL    XDATA    BYTE      to
      02000013H   SYMBOL    XDATA    BYTE      ev
      0100436FH   LINE      CODE     ---       #135
      0100437AH   LINE      CODE     ---       #136
      0100437AH   LINE      CODE     ---       #137
      01004384H   LINE      CODE     ---       #139
      01004399H   LINE      CODE     ---       #141
      01004399H   LINE      CODE     ---       #142
      0100439EH   LINE      CODE     ---       #143
      010043A1H   LINE      CODE     ---       #144
      010043A6H   LINE      CODE     ---       #145
      010043ACH   LINE      CODE     ---       #147
      010043ACH   LINE      CODE     ---       #150
      010043B2H   LINE      CODE     ---       #151
      010043B5H   LINE      CODE     ---       #153
      010043B5H   LINE      CODE     ---       #156
      010043BDH   LINE      CODE     ---       #157
      010043C2H   LINE      CODE     ---       #159
      010043C2H   LINE      CODE     ---       #162
      010043C6H   LINE      CODE     ---       #163
      010043CDH   LINE      CODE     ---       #164
      010043D2H   LINE      CODE     ---       #165
      010043D2H   LINE      CODE     ---       #166
LX51 LINKER/LOCATER V4.66.87.0                                                        05/30/2018  19:50:23  PAGE 182


      010043D2H   LINE      CODE     ---       #167
      010043DBH   LINE      CODE     ---       #169
      010043DBH   LINE      CODE     ---       #172
      010043E3H   LINE      CODE     ---       #173
      010043E8H   LINE      CODE     ---       #174
      010043EEH   LINE      CODE     ---       #176
      010043EEH   LINE      CODE     ---       #179
      010043F2H   LINE      CODE     ---       #180
      010043F8H   LINE      CODE     ---       #181
      010043FBH   LINE      CODE     ---       #182
      01004400H   LINE      CODE     ---       #184
      01004400H   LINE      CODE     ---       #185
      ---         BLOCKEND  ---      ---       LVL=0

      0100591AH   BLOCK     CODE     ---       LVL=0
      00000007H   SYMBOL    DATA     BYTE      from
      00000005H   SYMBOL    DATA     BYTE      to
      02000011H   SYMBOL    XDATA    BYTE      ev
      0100591AH   LINE      CODE     ---       #187
      0100591FH   LINE      CODE     ---       #188
      0100591FH   LINE      CODE     ---       #189
      01005929H   LINE      CODE     ---       #191
      0100592FH   LINE      CODE     ---       #192
      01005932H   LINE      CODE     ---       #194
      01005932H   LINE      CODE     ---       #197
      01005939H   LINE      CODE     ---       #198
      0100593EH   LINE      CODE     ---       #200
      0100593EH   LINE      CODE     ---       #203
      01005946H   LINE      CODE     ---       #204
      0100594BH   LINE      CODE     ---       #206
      0100594BH   LINE      CODE     ---       #209
      0100594FH   LINE      CODE     ---       #210
      01005956H   LINE      CODE     ---       #211
      0100595BH   LINE      CODE     ---       #212
      0100595BH   LINE      CODE     ---       #213
      0100595BH   LINE      CODE     ---       #214
      01005964H   LINE      CODE     ---       #216
      01005964H   LINE      CODE     ---       #219
      0100596BH   LINE      CODE     ---       #220
      01005970H   LINE      CODE     ---       #221
      01005975H   LINE      CODE     ---       #223
      01005975H   LINE      CODE     ---       #224
      ---         BLOCKEND  ---      ---       LVL=0

      01005803H   BLOCK     CODE     ---       LVL=0
      00000007H   SYMBOL    DATA     BYTE      from
      00000005H   SYMBOL    DATA     BYTE      to
      02000011H   SYMBOL    XDATA    BYTE      ev
      01005803H   LINE      CODE     ---       #226
      01005809H   LINE      CODE     ---       #227
      01005809H   LINE      CODE     ---       #228
      01005815H   LINE      CODE     ---       #230
      0100581BH   LINE      CODE     ---       #231
      0100581EH   LINE      CODE     ---       #233
      0100581EH   LINE      CODE     ---       #236
      01005825H   LINE      CODE     ---       #237
      0100582AH   LINE      CODE     ---       #239
      0100582AH   LINE      CODE     ---       #242
      01005832H   LINE      CODE     ---       #243
      01005837H   LINE      CODE     ---       #245
      01005837H   LINE      CODE     ---       #248
      0100583BH   LINE      CODE     ---       #249
      01005842H   LINE      CODE     ---       #250
      01005847H   LINE      CODE     ---       #251
      01005847H   LINE      CODE     ---       #252
LX51 LINKER/LOCATER V4.66.87.0                                                        05/30/2018  19:50:23  PAGE 183


      01005847H   LINE      CODE     ---       #253
      01005850H   LINE      CODE     ---       #255
      01005850H   LINE      CODE     ---       #258
      01005857H   LINE      CODE     ---       #259
      0100585CH   LINE      CODE     ---       #260
      01005861H   LINE      CODE     ---       #262
      01005861H   LINE      CODE     ---       #263
      ---         BLOCKEND  ---      ---       LVL=0

      010066F6H   BLOCK     CODE     ---       LVL=0
      00000007H   SYMBOL    DATA     BYTE      from
      00000005H   SYMBOL    DATA     BYTE      to
      02000011H   SYMBOL    XDATA    BYTE      ev
      010066F6H   LINE      CODE     ---       #265
      010066FCH   LINE      CODE     ---       #266
      010066FCH   LINE      CODE     ---       #267
      01006708H   LINE      CODE     ---       #270
      0100670FH   LINE      CODE     ---       #271
      01006712H   LINE      CODE     ---       #272
      01006717H   LINE      CODE     ---       #273
      0100671BH   LINE      CODE     ---       #274
      0100671DH   LINE      CODE     ---       #276
      0100671DH   LINE      CODE     ---       #279
      01006724H   LINE      CODE     ---       #280
      01006727H   LINE      CODE     ---       #281
      0100672AH   LINE      CODE     ---       #283
      0100672AH   LINE      CODE     ---       #284
      ---         BLOCKEND  ---      ---       LVL=0

      01007886H   BLOCK     CODE     ---       LVL=0
      00000007H   SYMBOL    DATA     BYTE      from
      00000005H   SYMBOL    DATA     BYTE      to
      02000011H   SYMBOL    XDATA    BYTE      ev
      01007886H   LINE      CODE     ---       #286
      0100788CH   LINE      CODE     ---       #287
      0100788CH   LINE      CODE     ---       #288
      01007898H   LINE      CODE     ---       #291
      0100789FH   LINE      CODE     ---       #292
      010078A2H   LINE      CODE     ---       #293
      010078A8H   LINE      CODE     ---       #295
      010078A8H   LINE      CODE     ---       #296
      ---         BLOCKEND  ---      ---       LVL=0

      01007667H   BLOCK     CODE     ---       LVL=0
      00000007H   SYMBOL    DATA     BYTE      from
      00000005H   SYMBOL    DATA     BYTE      to
      02000011H   SYMBOL    XDATA    BYTE      ev
      01007667H   LINE      CODE     ---       #298
      0100766DH   LINE      CODE     ---       #299
      0100766DH   LINE      CODE     ---       #300
      01007679H   LINE      CODE     ---       #302
      01007680H   LINE      CODE     ---       #303
      01007686H   LINE      CODE     ---       #304
      01007689H   LINE      CODE     ---       #305
      0100768CH   LINE      CODE     ---       #307
      0100768CH   LINE      CODE     ---       #308
      ---         BLOCKEND  ---      ---       LVL=0

      ---         MODULE    ---      ---       SM_CLOCK_DISPLAY
      0100C8E9H   PUBLIC    CONST    ---       sm_clock_display_ss_name
      01007490H   PUBLIC    CODE     ---       _sm_clock_display_submod3
      010077D5H   PUBLIC    CODE     ---       _sm_clock_display_submod2
      0100720AH   PUBLIC    CODE     ---       _sm_clock_display_submod1
      0100637AH   PUBLIC    CODE     ---       _sm_clock_display_submod0
      010077B1H   PUBLIC    CODE     ---       _sm_clock_display_init
LX51 LINKER/LOCATER V4.66.87.0                                                        05/30/2018  19:50:23  PAGE 184


      010046C6H   SYMBOL    CODE     ---       display_temp
      01008B8DH   SYMBOL    CODE     ---       reset_auto_switch
      01007A7AH   SYMBOL    CODE     ---       test_autoswitch

      01007A9AH   BLOCK     CODE     ---       LVL=0
      ---         BLOCKEND  ---      ---       LVL=0

      010046C6H   BLOCK     CODE     ---       LVL=0
      010046C6H   BLOCK     CODE     NEAR LAB  LVL=1
      02000012H   SYMBOL    XDATA    BYTE      inti
      02000013H   SYMBOL    XDATA    BYTE      flt
      00000020H.0 SYMBOL    BIT      BIT       sign
      ---         BLOCKEND  ---      ---       LVL=1
      010046C6H   LINE      CODE     ---       #26
      010046C6H   LINE      CODE     ---       #27
      010046C6H   LINE      CODE     ---       #31
      010046CBH   LINE      CODE     ---       #32
      010046DFH   LINE      CODE     ---       #34
      01004704H   LINE      CODE     ---       #36
      01004707H   LINE      CODE     ---       #38
      0100470CH   LINE      CODE     ---       #40
      01004713H   LINE      CODE     ---       #41
      0100471FH   LINE      CODE     ---       #42
      01004727H   LINE      CODE     ---       #43
      01004732H   LINE      CODE     ---       #44
      0100473AH   LINE      CODE     ---       #45
      01004745H   LINE      CODE     ---       #46
      ---         BLOCKEND  ---      ---       LVL=0

      01008B8DH   BLOCK     CODE     ---       LVL=0
      01008B8DH   LINE      CODE     ---       #48
      01008B8DH   LINE      CODE     ---       #49
      01008B8DH   LINE      CODE     ---       #50
      01008B95H   LINE      CODE     ---       #51
      ---         BLOCKEND  ---      ---       LVL=0

      01007A7AH   BLOCK     CODE     ---       LVL=0
      01007A7AH   LINE      CODE     ---       #54
      01007A7AH   LINE      CODE     ---       #55
      01007A7AH   LINE      CODE     ---       #56
      01007A8AH   LINE      CODE     ---       #57
      01007A93H   LINE      CODE     ---       #58
      01007A99H   LINE      CODE     ---       #59
      01007A99H   LINE      CODE     ---       #60
      ---         BLOCKEND  ---      ---       LVL=0

      010077B1H   BLOCK     CODE     ---       LVL=0
      00000007H   SYMBOL    DATA     BYTE      from
      00000005H   SYMBOL    DATA     BYTE      to
      00000006H   SYMBOL    DATA     BYTE      ev
      010077B1H   LINE      CODE     ---       #62
      010077B3H   LINE      CODE     ---       #63
      010077B3H   LINE      CODE     ---       #64
      010077BFH   LINE      CODE     ---       #65
      010077C2H   LINE      CODE     ---       #66
      010077C5H   LINE      CODE     ---       #67
      010077CAH   LINE      CODE     ---       #68
      010077CFH   LINE      CODE     ---       #69
      ---         BLOCKEND  ---      ---       LVL=0

      0100637AH   BLOCK     CODE     ---       LVL=0
      02000011H   SYMBOL    XDATA    BYTE      from
      00000005H   SYMBOL    DATA     BYTE      to
      02000012H   SYMBOL    XDATA    BYTE      ev
      0100637AH   LINE      CODE     ---       #72
LX51 LINKER/LOCATER V4.66.87.0                                                        05/30/2018  19:50:23  PAGE 185


      01006382H   LINE      CODE     ---       #73
      01006382H   LINE      CODE     ---       #74
      0100638CH   LINE      CODE     ---       #77
      01006399H   LINE      CODE     ---       #78
      01006399H   LINE      CODE     ---       #79
      0100639CH   LINE      CODE     ---       #80
      0100639CH   LINE      CODE     ---       #81
      0100639CH   LINE      CODE     ---       #82
      0100639EH   LINE      CODE     ---       #84
      0100639EH   LINE      CODE     ---       #87
      010063ABH   LINE      CODE     ---       #88
      010063B0H   LINE      CODE     ---       #89
      010063B5H   LINE      CODE     ---       #90
      010063B8H   LINE      CODE     ---       #92
      010063B8H   LINE      CODE     ---       #95
      010063BFH   LINE      CODE     ---       #96
      010063C2H   LINE      CODE     ---       #98
      010063C2H   LINE      CODE     ---       #99
      ---         BLOCKEND  ---      ---       LVL=0

      0100720AH   BLOCK     CODE     ---       LVL=0
      00000007H   SYMBOL    DATA     BYTE      from
      00000005H   SYMBOL    DATA     BYTE      to
      02000011H   SYMBOL    XDATA    BYTE      ev
      0100720AH   LINE      CODE     ---       #101
      01007210H   LINE      CODE     ---       #102
      01007210H   LINE      CODE     ---       #103
      0100721CH   LINE      CODE     ---       #105
      01007224H   LINE      CODE     ---       #107
      01007229H   LINE      CODE     ---       #108
      0100722CH   LINE      CODE     ---       #109
      0100722FH   LINE      CODE     ---       #111
      0100722FH   LINE      CODE     ---       #114
      01007233H   LINE      CODE     ---       #115
      01007236H   LINE      CODE     ---       #117
      01007236H   LINE      CODE     ---       #118
      ---         BLOCKEND  ---      ---       LVL=0

      010077D5H   BLOCK     CODE     ---       LVL=0
      00000007H   SYMBOL    DATA     BYTE      from
      00000005H   SYMBOL    DATA     BYTE      to
      02000011H   SYMBOL    XDATA    BYTE      ev
      010077D5H   LINE      CODE     ---       #120
      010077D8H   LINE      CODE     ---       #121
      010077D8H   LINE      CODE     ---       #122
      010077DEH   LINE      CODE     ---       #124
      010077E6H   LINE      CODE     ---       #126
      010077EBH   LINE      CODE     ---       #127
      010077EEH   LINE      CODE     ---       #128
      010077F1H   LINE      CODE     ---       #130
      010077F1H   LINE      CODE     ---       #133
      010077F5H   LINE      CODE     ---       #134
      010077F8H   LINE      CODE     ---       #136
      010077F8H   LINE      CODE     ---       #137
      ---         BLOCKEND  ---      ---       LVL=0

      01007490H   BLOCK     CODE     ---       LVL=0
      00000007H   SYMBOL    DATA     BYTE      from
      00000005H   SYMBOL    DATA     BYTE      to
      02000011H   SYMBOL    XDATA    BYTE      ev
      01007490H   LINE      CODE     ---       #139
      01007493H   LINE      CODE     ---       #140
      01007493H   LINE      CODE     ---       #141
      01007499H   LINE      CODE     ---       #143
      010074A0H   LINE      CODE     ---       #144
LX51 LINKER/LOCATER V4.66.87.0                                                        05/30/2018  19:50:23  PAGE 186


      010074A5H   LINE      CODE     ---       #145
      010074A8H   LINE      CODE     ---       #146
      010074ABH   LINE      CODE     ---       #147
      010074AEH   LINE      CODE     ---       #149
      010074AEH   LINE      CODE     ---       #152
      010074B5H   LINE      CODE     ---       #153
      010074B8H   LINE      CODE     ---       #155
      010074B8H   LINE      CODE     ---       #156
      ---         BLOCKEND  ---      ---       LVL=0

      ---         MODULE    ---      ---       SM_CLOCK_POWERSAVE
      0100D3B1H   PUBLIC    CONST    ---       sm_clock_powersave_ss_name
      01006E87H   PUBLIC    CODE     ---       _sm_clock_powersave

      01006E87H   BLOCK     CODE     ---       LVL=0
      00000007H   SYMBOL    DATA     BYTE      from
      02000011H   SYMBOL    XDATA    BYTE      to
      02000012H   SYMBOL    XDATA    BYTE      ev
      01006E87H   LINE      CODE     ---       #17
      01006E90H   LINE      CODE     ---       #18
      01006E90H   LINE      CODE     ---       #19
      01006EA4H   LINE      CODE     ---       #22
      01006EB2H   LINE      CODE     ---       #24
      01006EB5H   LINE      CODE     ---       #25
      01006EB8H   LINE      CODE     ---       #27
      01006EB8H   LINE      CODE     ---       #29
      ---         BLOCKEND  ---      ---       LVL=0

      ---         MODULE    ---      ---       SM_CLOCK_MOD_ALARM
      0100C193H   PUBLIC    CONST    ---       sm_clock_mod_alarm_ss_name
      0100733EH   PUBLIC    CODE     ---       _sm_clock_mod_alarm_submod4
      01007313H   PUBLIC    CODE     ---       _sm_clock_mod_alarm_submod3
      01005C99H   PUBLIC    CODE     ---       _sm_clock_mod_alarm_submod2
      01005976H   PUBLIC    CODE     ---       _sm_clock_mod_alarm_submod1
      01005684H   PUBLIC    CODE     ---       _sm_clock_mod_alarm_submod0
      01008822H   PUBLIC    CODE     ---       _sm_clock_mod_alarm_init
      01006A86H   SYMBOL    CODE     ---       _enter_alarm
      010079B8H   SYMBOL    CODE     ---       toggle_alarm_bs
      0100874DH   SYMBOL    CODE     ---       _inc_write
      01006209H   SYMBOL    CODE     ---       _write_only
      01006D88H   SYMBOL    CODE     ---       _inc_only
      01007932H   SYMBOL    CODE     ---       _toggle_alarm
      01001BAEH   SYMBOL    CODE     ---       _update_alarm
      010084E5H   SYMBOL    CODE     ---       toggle_alarm_music

      01008682H   BLOCK     CODE     ---       LVL=0
      ---         BLOCKEND  ---      ---       LVL=0

      01001BAEH   BLOCK     CODE     ---       LVL=0
      02000015H   SYMBOL    XDATA    BYTE      what
      02000016H   SYMBOL    XDATA    BYTE      day
      01001BB8H   BLOCK     CODE     NEAR LAB  LVL=1
      02000017H   SYMBOL    XDATA    BYTE      hour
      02000018H   SYMBOL    XDATA    BYTE      min
      ---         BLOCKEND  ---      ---       LVL=1
      01001BAEH   LINE      CODE     ---       #23
      01001BB8H   LINE      CODE     ---       #24
      01001BB8H   LINE      CODE     ---       #26
      01001BC2H   LINE      CODE     ---       #27
      01001BC2H   LINE      CODE     ---       #28
      01001BC5H   LINE      CODE     ---       #29
      01001BCDH   LINE      CODE     ---       #30
      01001BD5H   LINE      CODE     ---       #31
      01001BDAH   LINE      CODE     ---       #32
      01001BDEH   LINE      CODE     ---       #35
LX51 LINKER/LOCATER V4.66.87.0                                                        05/30/2018  19:50:23  PAGE 187


      01001BEBH   LINE      CODE     ---       #36
      01001BEFH   LINE      CODE     ---       #37
      01001BF3H   LINE      CODE     ---       #38
      01001C01H   LINE      CODE     ---       #39
      01001C06H   LINE      CODE     ---       #40
      01001C08H   LINE      CODE     ---       #41
      01001C0DH   LINE      CODE     ---       #42
      01001C0DH   LINE      CODE     ---       #44
      01001C26H   LINE      CODE     ---       #46
      01001C30H   LINE      CODE     ---       #47
      01001C33H   LINE      CODE     ---       #48
      01001C35H   LINE      CODE     ---       #49
      01001C3CH   LINE      CODE     ---       #50
      01001C3CH   LINE      CODE     ---       #51
      01001C48H   LINE      CODE     ---       #52
      01001C4DH   LINE      CODE     ---       #53
      01001C54H   LINE      CODE     ---       #55
      01001C5FH   LINE      CODE     ---       #56
      01001C82H   LINE      CODE     ---       #57
      01001C82H   LINE      CODE     ---       #58
      01001C85H   LINE      CODE     ---       #59
      01001C91H   LINE      CODE     ---       #60
      01001C9BH   LINE      CODE     ---       #61
      01001C9BH   LINE      CODE     ---       #62
      01001C9BH   LINE      CODE     ---       #63
      01001C9EH   LINE      CODE     ---       #64
      01001CA0H   LINE      CODE     ---       #65
      01001CA0H   LINE      CODE     ---       #66
      01001CA3H   LINE      CODE     ---       #67
      01001CA3H   LINE      CODE     ---       #68
      01001CA3H   LINE      CODE     ---       #69
      01001CADH   LINE      CODE     ---       #70
      01001CB4H   LINE      CODE     ---       #71
      01001CBBH   LINE      CODE     ---       #72
      01001CC0H   LINE      CODE     ---       #73
      01001CC0H   LINE      CODE     ---       #74
      01001CC0H   LINE      CODE     ---       #75
      01001CC3H   LINE      CODE     ---       #76
      01001CC5H   LINE      CODE     ---       #77
      01001CC5H   LINE      CODE     ---       #78
      01001CC8H   LINE      CODE     ---       #79
      01001CC8H   LINE      CODE     ---       #80
      01001CC8H   LINE      CODE     ---       #81
      01001CCAH   LINE      CODE     ---       #82
      01001CD1H   LINE      CODE     ---       #83
      01001CD8H   LINE      CODE     ---       #84
      01001CDFH   LINE      CODE     ---       #85
      01001CE6H   LINE      CODE     ---       #86
      01001CEDH   LINE      CODE     ---       #87
      01001CFEH   LINE      CODE     ---       #88
      01001D0AH   LINE      CODE     ---       #89
      01001D0AH   LINE      CODE     ---       #90
      ---         BLOCKEND  ---      ---       LVL=0

      01006A86H   BLOCK     CODE     ---       LVL=0
      02000013H   SYMBOL    XDATA    BYTE      what
      02000014H   SYMBOL    XDATA    BYTE      day
      01006A86H   LINE      CODE     ---       #94
      01006A8EH   LINE      CODE     ---       #95
      01006A8EH   LINE      CODE     ---       #96
      01006A91H   LINE      CODE     ---       #97
      01006AA0H   LINE      CODE     ---       #98
      01006AA0H   LINE      CODE     ---       #99
      01006AA2H   LINE      CODE     ---       #100
      01006AA2H   LINE      CODE     ---       #101
LX51 LINKER/LOCATER V4.66.87.0                                                        05/30/2018  19:50:23  PAGE 188


      01006AA4H   LINE      CODE     ---       #102
      01006AA4H   LINE      CODE     ---       #103
      01006AA6H   LINE      CODE     ---       #104
      01006AA6H   LINE      CODE     ---       #105
      01006AA8H   LINE      CODE     ---       #106
      01006AA8H   LINE      CODE     ---       #107
      01006AADH   LINE      CODE     ---       #108
      01006AB1H   LINE      CODE     ---       #109
      01006AB5H   LINE      CODE     ---       #110
      01006AB5H   LINE      CODE     ---       #111
      01006AB5H   LINE      CODE     ---       #112
      ---         BLOCKEND  ---      ---       LVL=0

      01006209H   BLOCK     CODE     ---       LVL=0
      02000014H   SYMBOL    XDATA    BYTE      what
      01006209H   LINE      CODE     ---       #116
      0100620EH   LINE      CODE     ---       #117
      0100620EH   LINE      CODE     ---       #118
      01006211H   LINE      CODE     ---       #119
      01006220H   LINE      CODE     ---       #120
      01006220H   LINE      CODE     ---       #121
      01006223H   LINE      CODE     ---       #122
      01006225H   LINE      CODE     ---       #123
      0100622AH   LINE      CODE     ---       #124
      0100622EH   LINE      CODE     ---       #125
      0100622EH   LINE      CODE     ---       #126
      01006231H   LINE      CODE     ---       #127
      01006233H   LINE      CODE     ---       #128
      01006233H   LINE      CODE     ---       #129
      01006236H   LINE      CODE     ---       #130
      01006238H   LINE      CODE     ---       #131
      0100623DH   LINE      CODE     ---       #132
      01006241H   LINE      CODE     ---       #133
      01006241H   LINE      CODE     ---       #134
      01006248H   LINE      CODE     ---       #135
      0100624AH   LINE      CODE     ---       #136
      0100624AH   LINE      CODE     ---       #137
      01006254H   LINE      CODE     ---       #138
      01006254H   LINE      CODE     ---       #139
      01006254H   LINE      CODE     ---       #140
      ---         BLOCKEND  ---      ---       LVL=0

      01007932H   BLOCK     CODE     ---       LVL=0
      02000013H   SYMBOL    XDATA    BYTE      day
      01007932H   LINE      CODE     ---       #142
      01007937H   LINE      CODE     ---       #143
      01007937H   LINE      CODE     ---       #144
      01007945H   LINE      CODE     ---       #145
      0100794FH   LINE      CODE     ---       #146
      ---         BLOCKEND  ---      ---       LVL=0

      01006D88H   BLOCK     CODE     ---       LVL=0
      00000006H   SYMBOL    DATA     BYTE      what
      01006D88H   LINE      CODE     ---       #149
      01006D8AH   LINE      CODE     ---       #150
      01006D8AH   LINE      CODE     ---       #151
      01006D91H   LINE      CODE     ---       #152
      01006D91H   LINE      CODE     ---       #153
      01006D94H   LINE      CODE     ---       #154
      01006D96H   LINE      CODE     ---       #155
      01006D9BH   LINE      CODE     ---       #156
      01006D9FH   LINE      CODE     ---       #157
      01006D9FH   LINE      CODE     ---       #158
      01006DA2H   LINE      CODE     ---       #159
      01006DA4H   LINE      CODE     ---       #160
LX51 LINKER/LOCATER V4.66.87.0                                                        05/30/2018  19:50:23  PAGE 189


      01006DA4H   LINE      CODE     ---       #161
      01006DA7H   LINE      CODE     ---       #162
      01006DA9H   LINE      CODE     ---       #163
      01006DAEH   LINE      CODE     ---       #164
      01006DB2H   LINE      CODE     ---       #165
      01006DB2H   LINE      CODE     ---       #166
      01006DB5H   LINE      CODE     ---       #167
      01006DB5H   LINE      CODE     ---       #168
      01006DB5H   LINE      CODE     ---       #169
      ---         BLOCKEND  ---      ---       LVL=0

      0100874DH   BLOCK     CODE     ---       LVL=0
      02000013H   SYMBOL    XDATA    BYTE      what
      0100874DH   LINE      CODE     ---       #172
      01008752H   LINE      CODE     ---       #173
      01008752H   LINE      CODE     ---       #174
      01008755H   LINE      CODE     ---       #175
      ---         BLOCKEND  ---      ---       LVL=0

      010079B8H   BLOCK     CODE     ---       LVL=0
      010079B8H   LINE      CODE     ---       #178
      010079B8H   LINE      CODE     ---       #179
      010079B8H   LINE      CODE     ---       #180
      010079C1H   LINE      CODE     ---       #181
      010079C4H   LINE      CODE     ---       #182
      010079D2H   LINE      CODE     ---       #183
      ---         BLOCKEND  ---      ---       LVL=0

      010084E5H   BLOCK     CODE     ---       LVL=0
      010084E5H   LINE      CODE     ---       #186
      010084E5H   LINE      CODE     ---       #187
      010084E5H   LINE      CODE     ---       #188
      010084E8H   LINE      CODE     ---       #189
      010084F2H   LINE      CODE     ---       #190
      ---         BLOCKEND  ---      ---       LVL=0

      01008822H   BLOCK     CODE     ---       LVL=0
      00000007H   SYMBOL    DATA     BYTE      from
      00000005H   SYMBOL    DATA     BYTE      to
      00000006H   SYMBOL    DATA     BYTE      ev
      01008822H   LINE      CODE     ---       #193
      01008824H   LINE      CODE     ---       #194
      01008824H   LINE      CODE     ---       #195
      0100882AH   LINE      CODE     ---       #196
      ---         BLOCKEND  ---      ---       LVL=0

      01005684H   BLOCK     CODE     ---       LVL=0
      02000011H   SYMBOL    XDATA    BYTE      from
      00000005H   SYMBOL    DATA     BYTE      to
      02000012H   SYMBOL    XDATA    BYTE      ev
      01005684H   LINE      CODE     ---       #199
      0100568DH   LINE      CODE     ---       #200
      0100568DH   LINE      CODE     ---       #201
      01005693H   LINE      CODE     ---       #203
      010056A0H   LINE      CODE     ---       #204
      010056A0H   LINE      CODE     ---       #205
      010056A6H   LINE      CODE     ---       #207
      010056A6H   LINE      CODE     ---       #210
      010056ADH   LINE      CODE     ---       #211
      010056B2H   LINE      CODE     ---       #213
      010056B2H   LINE      CODE     ---       #216
      010056B9H   LINE      CODE     ---       #217
      010056C0H   LINE      CODE     ---       #218
      010056C5H   LINE      CODE     ---       #219
      010056C5H   LINE      CODE     ---       #220
LX51 LINKER/LOCATER V4.66.87.0                                                        05/30/2018  19:50:23  PAGE 190


      010056CBH   LINE      CODE     ---       #221
      010056D2H   LINE      CODE     ---       #223
      010056D2H   LINE      CODE     ---       #226
      010056D9H   LINE      CODE     ---       #227
      010056DEH   LINE      CODE     ---       #228
      010056E3H   LINE      CODE     ---       #230
      010056E3H   LINE      CODE     ---       #231
      ---         BLOCKEND  ---      ---       LVL=0

      01005976H   BLOCK     CODE     ---       LVL=0
      00000007H   SYMBOL    DATA     BYTE      from
      00000005H   SYMBOL    DATA     BYTE      to
      02000011H   SYMBOL    XDATA    BYTE      ev
      01005976H   LINE      CODE     ---       #233
      0100597CH   LINE      CODE     ---       #234
      0100597CH   LINE      CODE     ---       #235
      01005986H   LINE      CODE     ---       #237
      0100598DH   LINE      CODE     ---       #238
      01005994H   LINE      CODE     ---       #240
      01005994H   LINE      CODE     ---       #244
      0100599BH   LINE      CODE     ---       #245
      010059A0H   LINE      CODE     ---       #247
      010059A0H   LINE      CODE     ---       #250
      010059A7H   LINE      CODE     ---       #251
      010059AEH   LINE      CODE     ---       #252
      010059B3H   LINE      CODE     ---       #253
      010059B3H   LINE      CODE     ---       #254
      010059B9H   LINE      CODE     ---       #255
      010059C0H   LINE      CODE     ---       #257
      010059C0H   LINE      CODE     ---       #260
      010059C7H   LINE      CODE     ---       #261
      010059CCH   LINE      CODE     ---       #262
      010059D1H   LINE      CODE     ---       #264
      010059D1H   LINE      CODE     ---       #265
      ---         BLOCKEND  ---      ---       LVL=0

      01005C99H   BLOCK     CODE     ---       LVL=0
      02000011H   SYMBOL    XDATA    BYTE      from
      00000005H   SYMBOL    DATA     BYTE      to
      02000012H   SYMBOL    XDATA    BYTE      ev
      01005C99H   LINE      CODE     ---       #267
      01005CA2H   LINE      CODE     ---       #268
      01005CA2H   LINE      CODE     ---       #269
      01005CAEH   LINE      CODE     ---       #271
      01005CB8H   LINE      CODE     ---       #272
      01005CBEH   LINE      CODE     ---       #273
      01005CC1H   LINE      CODE     ---       #275
      01005CC1H   LINE      CODE     ---       #277
      01005CC8H   LINE      CODE     ---       #278
      01005CD0H   LINE      CODE     ---       #279
      01005CD0H   LINE      CODE     ---       #281
      01005CD7H   LINE      CODE     ---       #282
      01005CDDH   LINE      CODE     ---       #283
      01005CE4H   LINE      CODE     ---       #284
      01005CE9H   LINE      CODE     ---       #285
      01005CE9H   LINE      CODE     ---       #286
      01005CEFH   LINE      CODE     ---       #287
      01005CEFH   LINE      CODE     ---       #288
      01005CEFH   LINE      CODE     ---       #289
      ---         BLOCKEND  ---      ---       LVL=0

      01007313H   BLOCK     CODE     ---       LVL=0
      00000007H   SYMBOL    DATA     BYTE      from
      00000005H   SYMBOL    DATA     BYTE      to
      02000011H   SYMBOL    XDATA    BYTE      ev
LX51 LINKER/LOCATER V4.66.87.0                                                        05/30/2018  19:50:23  PAGE 191


      01007313H   LINE      CODE     ---       #291
      01007319H   LINE      CODE     ---       #292
      01007319H   LINE      CODE     ---       #293
      01007325H   LINE      CODE     ---       #295
      0100732CH   LINE      CODE     ---       #296
      01007333H   LINE      CODE     ---       #297
      01007333H   LINE      CODE     ---       #299
      0100733AH   LINE      CODE     ---       #300
      0100733DH   LINE      CODE     ---       #301
      0100733DH   LINE      CODE     ---       #302
      ---         BLOCKEND  ---      ---       LVL=0

      0100733EH   BLOCK     CODE     ---       LVL=0
      00000007H   SYMBOL    DATA     BYTE      from
      00000005H   SYMBOL    DATA     BYTE      to
      02000011H   SYMBOL    XDATA    BYTE      ev
      0100733EH   LINE      CODE     ---       #304
      01007344H   LINE      CODE     ---       #305
      01007344H   LINE      CODE     ---       #306
      01007350H   LINE      CODE     ---       #308
      01007357H   LINE      CODE     ---       #309
      0100735EH   LINE      CODE     ---       #310
      0100735EH   LINE      CODE     ---       #312
      01007365H   LINE      CODE     ---       #313
      01007368H   LINE      CODE     ---       #314
      01007368H   LINE      CODE     ---       #315
      ---         BLOCKEND  ---      ---       LVL=0

      ---         MODULE    ---      ---       SM_CLOCK_ALARM
      0100D35AH   PUBLIC    CONST    ---       sm_clock_alarm_ss_name
      01004EAAH   PUBLIC    CODE     ---       _sm_clock_alarm
      0100331DH   SYMBOL    CODE     ---       _display_alarm

      01008BFDH   BLOCK     CODE     ---       LVL=0
      ---         BLOCKEND  ---      ---       LVL=0

      0100331DH   BLOCK     CODE     ---       LVL=0
      02000013H   SYMBOL    XDATA    BYTE      what
      01003322H   BLOCK     CODE     NEAR LAB  LVL=1
      02000014H   SYMBOL    XDATA    BYTE      hour
      02000015H   SYMBOL    XDATA    BYTE      min
      00000020H.0 SYMBOL    BIT      BIT       is12
      ---         BLOCKEND  ---      ---       LVL=1
      0100331DH   LINE      CODE     ---       #19
      01003322H   LINE      CODE     ---       #20
      01003322H   LINE      CODE     ---       #23
      01003325H   LINE      CODE     ---       #24
      01003334H   LINE      CODE     ---       #25
      01003334H   LINE      CODE     ---       #26
      01003334H   LINE      CODE     ---       #27
      01003338H   LINE      CODE     ---       #28
      0100333FH   LINE      CODE     ---       #29
      01003341H   LINE      CODE     ---       #30
      01003343H   LINE      CODE     ---       #31
      0100334AH   LINE      CODE     ---       #32
      01003351H   LINE      CODE     ---       #33
      01003351H   LINE      CODE     ---       #34
      01003358H   LINE      CODE     ---       #35
      01003360H   LINE      CODE     ---       #36
      01003368H   LINE      CODE     ---       #37
      0100336DH   LINE      CODE     ---       #38
      0100336FH   LINE      CODE     ---       #39
      01003377H   LINE      CODE     ---       #40
      0100337DH   LINE      CODE     ---       #41
      01003382H   LINE      CODE     ---       #42
LX51 LINKER/LOCATER V4.66.87.0                                                        05/30/2018  19:50:23  PAGE 192


      01003382H   LINE      CODE     ---       #43
      01003387H   LINE      CODE     ---       #44
      0100338BH   LINE      CODE     ---       #45
      01003397H   LINE      CODE     ---       #46
      0100339BH   LINE      CODE     ---       #47
      0100339FH   LINE      CODE     ---       #48
      010033ABH   LINE      CODE     ---       #49
      010033B0H   LINE      CODE     ---       #50
      010033B2H   LINE      CODE     ---       #51
      010033B7H   LINE      CODE     ---       #52
      010033B7H   LINE      CODE     ---       #53
      010033C1H   LINE      CODE     ---       #54
      010033C4H   LINE      CODE     ---       #55
      010033C6H   LINE      CODE     ---       #56
      010033CDH   LINE      CODE     ---       #57
      010033CDH   LINE      CODE     ---       #58
      010033D9H   LINE      CODE     ---       #59
      010033DEH   LINE      CODE     ---       #60
      010033EBH   LINE      CODE     ---       #61
      010033EBH   LINE      CODE     ---       #62
      010033EBH   LINE      CODE     ---       #63
      ---         BLOCKEND  ---      ---       LVL=0

      01004EAAH   BLOCK     CODE     ---       LVL=0
      00000007H   SYMBOL    DATA     BYTE      from
      02000011H   SYMBOL    XDATA    BYTE      to
      02000012H   SYMBOL    XDATA    BYTE      ev
      01004EAAH   LINE      CODE     ---       #65
      01004EB3H   LINE      CODE     ---       #66
      01004EB3H   LINE      CODE     ---       #67
      01004EC7H   LINE      CODE     ---       #70
      01004ED1H   LINE      CODE     ---       #71
      01004ED6H   LINE      CODE     ---       #72
      01004EDBH   LINE      CODE     ---       #73
      01004EE0H   LINE      CODE     ---       #75
      01004EE2H   LINE      CODE     ---       #76
      01004EE2H   LINE      CODE     ---       #78
      01004EE2H   LINE      CODE     ---       #81
      01004EEEH   LINE      CODE     ---       #82
      01004EF3H   LINE      CODE     ---       #83
      01004EF8H   LINE      CODE     ---       #84
      01004EFBH   LINE      CODE     ---       #85
      01004F01H   LINE      CODE     ---       #87
      01004F01H   LINE      CODE     ---       #89
      01004F0DH   LINE      CODE     ---       #90
      01004F18H   LINE      CODE     ---       #91
      01004F1EH   LINE      CODE     ---       #92
      01004F1EH   LINE      CODE     ---       #94
      01004F1EH   LINE      CODE     ---       #95
      ---         BLOCKEND  ---      ---       LVL=0

      ---         MODULE    ---      ---       SM_CLOCK_MOD_TIME
      0100BA12H   PUBLIC    CONST    ---       sm_clock_mod_time_name
      01007CCCH   PUBLIC    CODE     ---       _sm_clock_mod_time_submod5
      01007CB0H   PUBLIC    CODE     ---       _sm_clock_mod_time_submod4
      01007C94H   PUBLIC    CODE     ---       _sm_clock_mod_time_submod3
      01007C78H   PUBLIC    CODE     ---       _sm_clock_mod_time_submod2
      01008065H   PUBLIC    CODE     ---       _sm_clock_mod_time_submod1
      010072E7H   PUBLIC    CODE     ---       _sm_clock_mod_time_submod0
      01007FCCH   PUBLIC    CODE     ---       _sm_clock_mod_time_init
      010045AFH   SYMBOL    CODE     ---       update_yymmdd
      01003BC2H   SYMBOL    CODE     ---       _sm_clock_mod_time
      0100743CH   SYMBOL    CODE     ---       _enter_hhmmss
      01007369H   SYMBOL    CODE     ---       _enter_yymmdd
      010053CEH   SYMBOL    CODE     ---       _write_only
LX51 LINKER/LOCATER V4.66.87.0                                                        05/30/2018  19:50:23  PAGE 193


      0100875DH   SYMBOL    CODE     ---       _inc_and_write
      010041ACH   SYMBOL    CODE     ---       _inc_only
      01003988H   SYMBOL    CODE     ---       update_hhmmss

      010078A9H   BLOCK     CODE     ---       LVL=0
      ---         BLOCKEND  ---      ---       LVL=0

      01003988H   BLOCK     CODE     ---       LVL=0
      01003988H   BLOCK     CODE     NEAR LAB  LVL=1
      02000017H   SYMBOL    XDATA    BYTE      hour
      02000018H   SYMBOL    XDATA    BYTE      min
      02000019H   SYMBOL    XDATA    BYTE      sec
      ---         BLOCKEND  ---      ---       LVL=1
      01003988H   LINE      CODE     ---       #21
      01003988H   LINE      CODE     ---       #22
      01003988H   LINE      CODE     ---       #25
      01003990H   LINE      CODE     ---       #26
      01003996H   LINE      CODE     ---       #27
      0100399CH   LINE      CODE     ---       #30
      010039A1H   LINE      CODE     ---       #31
      010039A5H   LINE      CODE     ---       #32
      010039A9H   LINE      CODE     ---       #33
      010039ADH   LINE      CODE     ---       #36
      010039BAH   LINE      CODE     ---       #37
      010039BEH   LINE      CODE     ---       #38
      010039C2H   LINE      CODE     ---       #39
      010039D0H   LINE      CODE     ---       #40
      010039D5H   LINE      CODE     ---       #41
      010039D7H   LINE      CODE     ---       #42
      010039DCH   LINE      CODE     ---       #43
      010039DCH   LINE      CODE     ---       #46
      010039FDH   LINE      CODE     ---       #48
      01003A07H   LINE      CODE     ---       #49
      01003A0AH   LINE      CODE     ---       #50
      01003A0CH   LINE      CODE     ---       #51
      01003A13H   LINE      CODE     ---       #52
      01003A13H   LINE      CODE     ---       #53
      01003A1EH   LINE      CODE     ---       #54
      01003A29H   LINE      CODE     ---       #55
      01003A34H   LINE      CODE     ---       #56
      01003A3FH   LINE      CODE     ---       #57
      ---         BLOCKEND  ---      ---       LVL=0

      010045AFH   BLOCK     CODE     ---       LVL=0
      010045AFH   BLOCK     CODE     NEAR LAB  LVL=1
      02000017H   SYMBOL    XDATA    BYTE      year
      02000018H   SYMBOL    XDATA    BYTE      mon
      02000019H   SYMBOL    XDATA    BYTE      date
      ---         BLOCKEND  ---      ---       LVL=1
      010045AFH   LINE      CODE     ---       #60
      010045AFH   LINE      CODE     ---       #61
      010045AFH   LINE      CODE     ---       #65
      010045B7H   LINE      CODE     ---       #66
      010045BDH   LINE      CODE     ---       #67
      010045C3H   LINE      CODE     ---       #69
      010045C8H   LINE      CODE     ---       #70
      010045CDH   LINE      CODE     ---       #72
      010045EEH   LINE      CODE     ---       #74
      010045F8H   LINE      CODE     ---       #75
      010045FBH   LINE      CODE     ---       #76
      010045FDH   LINE      CODE     ---       #77
      01004604H   LINE      CODE     ---       #78
      01004604H   LINE      CODE     ---       #79
      0100460FH   LINE      CODE     ---       #80
      0100461AH   LINE      CODE     ---       #81
LX51 LINKER/LOCATER V4.66.87.0                                                        05/30/2018  19:50:23  PAGE 194


      01004625H   LINE      CODE     ---       #82
      01004630H   LINE      CODE     ---       #83
      ---         BLOCKEND  ---      ---       LVL=0

      010041ACH   BLOCK     CODE     ---       LVL=0
      02000016H   SYMBOL    XDATA    BYTE      what
      010041ACH   LINE      CODE     ---       #87
      010041B1H   LINE      CODE     ---       #88
      010041B1H   LINE      CODE     ---       #89
      010041C4H   LINE      CODE     ---       #90
      010041C4H   LINE      CODE     ---       #91
      010041C4H   LINE      CODE     ---       #92
      010041C7H   LINE      CODE     ---       #93
      010041C9H   LINE      CODE     ---       #94
      010041CBH   LINE      CODE     ---       #95
      010041CEH   LINE      CODE     ---       #96
      010041CEH   LINE      CODE     ---       #97
      010041D4H   LINE      CODE     ---       #98
      010041D7H   LINE      CODE     ---       #99
      010041D9H   LINE      CODE     ---       #100
      010041DCH   LINE      CODE     ---       #101
      010041DCH   LINE      CODE     ---       #102
      010041DEH   LINE      CODE     ---       #103
      010041DEH   LINE      CODE     ---       #104
      010041DEH   LINE      CODE     ---       #105
      010041E1H   LINE      CODE     ---       #106
      010041E3H   LINE      CODE     ---       #107
      010041E5H   LINE      CODE     ---       #108
      010041E8H   LINE      CODE     ---       #109
      010041E8H   LINE      CODE     ---       #110
      010041EFH   LINE      CODE     ---       #111
      010041F2H   LINE      CODE     ---       #112
      010041F4H   LINE      CODE     ---       #113
      010041F7H   LINE      CODE     ---       #114
      010041F7H   LINE      CODE     ---       #115
      010041F9H   LINE      CODE     ---       #116
      010041F9H   LINE      CODE     ---       #117
      010041F9H   LINE      CODE     ---       #118
      010041FCH   LINE      CODE     ---       #119
      010041FEH   LINE      CODE     ---       #120
      01004203H   LINE      CODE     ---       #121
      01004207H   LINE      CODE     ---       #122
      01004207H   LINE      CODE     ---       #123
      0100420EH   LINE      CODE     ---       #124
      01004211H   LINE      CODE     ---       #125
      01004213H   LINE      CODE     ---       #126
      01004216H   LINE      CODE     ---       #127
      01004216H   LINE      CODE     ---       #128
      01004216H   LINE      CODE     ---       #129
      01004216H   LINE      CODE     ---       #131
      01004225H   LINE      CODE     ---       #133
      01004225H   LINE      CODE     ---       #134
      01004228H   LINE      CODE     ---       #135
      0100423AH   LINE      CODE     ---       #137
      0100423AH   LINE      CODE     ---       #138
      0100423DH   LINE      CODE     ---       #139
      0100423DH   LINE      CODE     ---       #140
      ---         BLOCKEND  ---      ---       LVL=0

      010053CEH   BLOCK     CODE     ---       LVL=0
      00000007H   SYMBOL    DATA     BYTE      what
      010053CEH   LINE      CODE     ---       #142
      010053CEH   LINE      CODE     ---       #143
      010053CEH   LINE      CODE     ---       #144
      010053E2H   LINE      CODE     ---       #145
LX51 LINKER/LOCATER V4.66.87.0                                                        05/30/2018  19:50:23  PAGE 195


      010053E2H   LINE      CODE     ---       #146
      010053E5H   LINE      CODE     ---       #147
      010053E7H   LINE      CODE     ---       #148
      010053E7H   LINE      CODE     ---       #149
      010053E7H   LINE      CODE     ---       #150
      010053E7H   LINE      CODE     ---       #151
      010053E7H   LINE      CODE     ---       #152
      010053E9H   LINE      CODE     ---       #153
      010053E9H   LINE      CODE     ---       #154
      010053ECH   LINE      CODE     ---       #155
      010053F1H   LINE      CODE     ---       #156
      010053F3H   LINE      CODE     ---       #157
      010053F5H   LINE      CODE     ---       #158
      010053F5H   LINE      CODE     ---       #159
      010053F5H   LINE      CODE     ---       #160
      010053F7H   LINE      CODE     ---       #161
      010053F7H   LINE      CODE     ---       #162
      010053FAH   LINE      CODE     ---       #163
      010053FFH   LINE      CODE     ---       #164
      01005401H   LINE      CODE     ---       #165
      01005403H   LINE      CODE     ---       #166
      01005403H   LINE      CODE     ---       #167
      01005403H   LINE      CODE     ---       #168
      01005405H   LINE      CODE     ---       #169
      01005405H   LINE      CODE     ---       #170
      01005408H   LINE      CODE     ---       #171
      0100540DH   LINE      CODE     ---       #172
      0100540FH   LINE      CODE     ---       #173
      01005411H   LINE      CODE     ---       #174
      01005411H   LINE      CODE     ---       #175
      01005411H   LINE      CODE     ---       #176
      01005413H   LINE      CODE     ---       #177
      01005413H   LINE      CODE     ---       #178
      01005416H   LINE      CODE     ---       #179
      0100541BH   LINE      CODE     ---       #180
      0100541DH   LINE      CODE     ---       #181
      0100541FH   LINE      CODE     ---       #182
      0100541FH   LINE      CODE     ---       #183
      0100541FH   LINE      CODE     ---       #184
      01005421H   LINE      CODE     ---       #185
      01005421H   LINE      CODE     ---       #186
      01005424H   LINE      CODE     ---       #187
      01005429H   LINE      CODE     ---       #188
      0100542BH   LINE      CODE     ---       #189
      01005430H   LINE      CODE     ---       #190
      01005434H   LINE      CODE     ---       #191
      01005434H   LINE      CODE     ---       #192
      01005434H   LINE      CODE     ---       #193
      01005434H   LINE      CODE     ---       #195
      ---         BLOCKEND  ---      ---       LVL=0

      0100875DH   BLOCK     CODE     ---       LVL=0
      02000015H   SYMBOL    XDATA    BYTE      what
      0100875DH   LINE      CODE     ---       #197
      01008762H   LINE      CODE     ---       #198
      01008762H   LINE      CODE     ---       #199
      01008765H   LINE      CODE     ---       #200
      ---         BLOCKEND  ---      ---       LVL=0

      0100743CH   BLOCK     CODE     ---       LVL=0
      02000015H   SYMBOL    XDATA    BYTE      what
      0100743CH   LINE      CODE     ---       #204
      01007441H   LINE      CODE     ---       #205
      01007441H   LINE      CODE     ---       #206
      01007444H   LINE      CODE     ---       #207
LX51 LINKER/LOCATER V4.66.87.0                                                        05/30/2018  19:50:23  PAGE 196


      01007452H   LINE      CODE     ---       #208
      01007452H   LINE      CODE     ---       #209
      01007454H   LINE      CODE     ---       #210
      01007454H   LINE      CODE     ---       #211
      01007456H   LINE      CODE     ---       #212
      01007456H   LINE      CODE     ---       #213
      01007458H   LINE      CODE     ---       #214
      01007458H   LINE      CODE     ---       #215
      0100745AH   LINE      CODE     ---       #216
      0100745AH   LINE      CODE     ---       #217
      0100745FH   LINE      CODE     ---       #218
      01007463H   LINE      CODE     ---       #219
      01007463H   LINE      CODE     ---       #220
      01007463H   LINE      CODE     ---       #221
      ---         BLOCKEND  ---      ---       LVL=0

      01007369H   BLOCK     CODE     ---       LVL=0
      02000015H   SYMBOL    XDATA    BYTE      what
      01007369H   LINE      CODE     ---       #225
      0100736EH   LINE      CODE     ---       #226
      0100736EH   LINE      CODE     ---       #227
      01007371H   LINE      CODE     ---       #228
      01007380H   LINE      CODE     ---       #229
      01007380H   LINE      CODE     ---       #230
      01007382H   LINE      CODE     ---       #231
      01007382H   LINE      CODE     ---       #232
      01007384H   LINE      CODE     ---       #233
      01007384H   LINE      CODE     ---       #234
      01007386H   LINE      CODE     ---       #235
      01007386H   LINE      CODE     ---       #236
      01007388H   LINE      CODE     ---       #237
      01007388H   LINE      CODE     ---       #238
      0100738DH   LINE      CODE     ---       #239
      01007391H   LINE      CODE     ---       #240
      01007391H   LINE      CODE     ---       #241
      01007391H   LINE      CODE     ---       #242
      ---         BLOCKEND  ---      ---       LVL=0

      01007FCCH   BLOCK     CODE     ---       LVL=0
      00000007H   SYMBOL    DATA     BYTE      from
      00000005H   SYMBOL    DATA     BYTE      to
      00000006H   SYMBOL    DATA     BYTE      ev
      01007FCCH   LINE      CODE     ---       #245
      01007FCEH   LINE      CODE     ---       #246
      01007FCEH   LINE      CODE     ---       #247
      01007FDAH   LINE      CODE     ---       #248
      01007FDFH   LINE      CODE     ---       #249
      ---         BLOCKEND  ---      ---       LVL=0

      01003BC2H   BLOCK     CODE     ---       LVL=0
      02000013H   SYMBOL    XDATA    BYTE      what
      02000014H   SYMBOL    XDATA    BYTE      ev
      01003BC2H   LINE      CODE     ---       #252
      01003BCAH   LINE      CODE     ---       #253
      01003BCAH   LINE      CODE     ---       #255
      01003BCEH   LINE      CODE     ---       #256
      01003BDDH   LINE      CODE     ---       #258
      01003BDDH   LINE      CODE     ---       #259
      01003BE0H   LINE      CODE     ---       #260
      01003BF6H   LINE      CODE     ---       #262
      01003BF6H   LINE      CODE     ---       #263
      01003BFEH   LINE      CODE     ---       #264
      01003BFEH   LINE      CODE     ---       #266
      01003BFEH   LINE      CODE     ---       #268
      01003C05H   LINE      CODE     ---       #269
LX51 LINKER/LOCATER V4.66.87.0                                                        05/30/2018  19:50:23  PAGE 197


      01003C0DH   LINE      CODE     ---       #271
      01003C0DH   LINE      CODE     ---       #274
      01003C14H   LINE      CODE     ---       #275
      01003C1BH   LINE      CODE     ---       #276
      01003C23H   LINE      CODE     ---       #277
      01003C23H   LINE      CODE     ---       #278
      01003C29H   LINE      CODE     ---       #279
      01003C30H   LINE      CODE     ---       #281
      01003C30H   LINE      CODE     ---       #284
      01003C37H   LINE      CODE     ---       #285
      01003C3FH   LINE      CODE     ---       #286
      01003C45H   LINE      CODE     ---       #288
      01003C45H   LINE      CODE     ---       #291
      01003C4BH   LINE      CODE     ---       #292
      01003C54H   LINE      CODE     ---       #294
      01003C54H   LINE      CODE     ---       #296
      01003C54H   LINE      CODE     ---       #297
      01003C63H   LINE      CODE     ---       #299
      01003C63H   LINE      CODE     ---       #300
      01003C66H   LINE      CODE     ---       #301
      01003C78H   LINE      CODE     ---       #303
      01003C78H   LINE      CODE     ---       #304
      01003C7BH   LINE      CODE     ---       #305
      01003C7BH   LINE      CODE     ---       #307
      01003C7BH   LINE      CODE     ---       #308
      ---         BLOCKEND  ---      ---       LVL=0

      010072E7H   BLOCK     CODE     ---       LVL=0
      02000011H   SYMBOL    XDATA    BYTE      from
      00000005H   SYMBOL    DATA     BYTE      to
      02000012H   SYMBOL    XDATA    BYTE      ev
      010072E7H   LINE      CODE     ---       #310
      010072EFH   LINE      CODE     ---       #311
      010072EFH   LINE      CODE     ---       #312
      010072F9H   LINE      CODE     ---       #314
      01007306H   LINE      CODE     ---       #315
      01007306H   LINE      CODE     ---       #316
      01007309H   LINE      CODE     ---       #317
      01007309H   LINE      CODE     ---       #319
      ---         BLOCKEND  ---      ---       LVL=0

      01008065H   BLOCK     CODE     ---       LVL=0
      00000007H   SYMBOL    DATA     BYTE      from
      00000005H   SYMBOL    DATA     BYTE      to
      02000011H   SYMBOL    XDATA    BYTE      ev
      01008065H   LINE      CODE     ---       #322
      0100806AH   LINE      CODE     ---       #323
      0100806AH   LINE      CODE     ---       #324
      01008074H   LINE      CODE     ---       #326
      ---         BLOCKEND  ---      ---       LVL=0

      01007C78H   BLOCK     CODE     ---       LVL=0
      00000007H   SYMBOL    DATA     BYTE      from
      00000005H   SYMBOL    DATA     BYTE      to
      02000011H   SYMBOL    XDATA    BYTE      ev
      01007C78H   LINE      CODE     ---       #329
      01007C7EH   LINE      CODE     ---       #330
      01007C7EH   LINE      CODE     ---       #331
      01007C8AH   LINE      CODE     ---       #333
      ---         BLOCKEND  ---      ---       LVL=0

      01007C94H   BLOCK     CODE     ---       LVL=0
      00000007H   SYMBOL    DATA     BYTE      from
      00000005H   SYMBOL    DATA     BYTE      to
      02000011H   SYMBOL    XDATA    BYTE      ev
LX51 LINKER/LOCATER V4.66.87.0                                                        05/30/2018  19:50:23  PAGE 198


      01007C94H   LINE      CODE     ---       #336
      01007C9AH   LINE      CODE     ---       #337
      01007C9AH   LINE      CODE     ---       #338
      01007CA6H   LINE      CODE     ---       #340
      ---         BLOCKEND  ---      ---       LVL=0

      01007CB0H   BLOCK     CODE     ---       LVL=0
      00000007H   SYMBOL    DATA     BYTE      from
      00000005H   SYMBOL    DATA     BYTE      to
      02000011H   SYMBOL    XDATA    BYTE      ev
      01007CB0H   LINE      CODE     ---       #343
      01007CB6H   LINE      CODE     ---       #344
      01007CB6H   LINE      CODE     ---       #345
      01007CC2H   LINE      CODE     ---       #347
      ---         BLOCKEND  ---      ---       LVL=0

      01007CCCH   BLOCK     CODE     ---       LVL=0
      00000007H   SYMBOL    DATA     BYTE      from
      00000005H   SYMBOL    DATA     BYTE      to
      02000011H   SYMBOL    XDATA    BYTE      ev
      01007CCCH   LINE      CODE     ---       #350
      01007CD2H   LINE      CODE     ---       #351
      01007CD2H   LINE      CODE     ---       #352
      01007CDEH   LINE      CODE     ---       #354
      ---         BLOCKEND  ---      ---       LVL=0

      ---         MODULE    ---      ---       SM_POWER_PACK_DISPLAY
      0100CE8EH   PUBLIC    CONST    ---       sm_power_pack_display_ss_name
      01005E9BH   PUBLIC    CODE     ---       _sm_power_pack_display_submod0
      01007F2FH   PUBLIC    CODE     ---       _sm_power_pack_display_init
      01005DF2H   SYMBOL    CODE     ---       display_power_volume

      010088DCH   BLOCK     CODE     ---       LVL=0
      ---         BLOCKEND  ---      ---       LVL=0

      01005DF2H   BLOCK     CODE     ---       LVL=0
      01005DF2H   BLOCK     CODE     NEAR LAB  LVL=1
      02000012H   SYMBOL    XDATA    BYTE      val
      ---         BLOCKEND  ---      ---       LVL=1
      01005DF2H   LINE      CODE     ---       #16
      01005DF2H   LINE      CODE     ---       #17
      01005DF2H   LINE      CODE     ---       #19
      01005DFAH   LINE      CODE     ---       #20
      01005DFDH   LINE      CODE     ---       #21
      01005E04H   LINE      CODE     ---       #22
      01005E0AH   LINE      CODE     ---       #23
      01005E11H   LINE      CODE     ---       #24
      01005E1AH   LINE      CODE     ---       #25
      01005E24H   LINE      CODE     ---       #26
      01005E37H   LINE      CODE     ---       #27
      ---         BLOCKEND  ---      ---       LVL=0

      01007F2FH   BLOCK     CODE     ---       LVL=0
      00000007H   SYMBOL    DATA     BYTE      from
      00000005H   SYMBOL    DATA     BYTE      to
      00000006H   SYMBOL    DATA     BYTE      ev
      01007F2FH   LINE      CODE     ---       #29
      01007F31H   LINE      CODE     ---       #30
      01007F31H   LINE      CODE     ---       #31
      01007F3BH   LINE      CODE     ---       #32
      01007F40H   LINE      CODE     ---       #33
      01007F43H   LINE      CODE     ---       #34
      ---         BLOCKEND  ---      ---       LVL=0

      01005E9BH   BLOCK     CODE     ---       LVL=0
LX51 LINKER/LOCATER V4.66.87.0                                                        05/30/2018  19:50:23  PAGE 199


      00000007H   SYMBOL    DATA     BYTE      from
      00000005H   SYMBOL    DATA     BYTE      to
      02000011H   SYMBOL    XDATA    BYTE      ev
      01005E9BH   LINE      CODE     ---       #37
      01005EA1H   LINE      CODE     ---       #38
      01005EA1H   LINE      CODE     ---       #39
      01005EABH   LINE      CODE     ---       #40
      01005EB8H   LINE      CODE     ---       #41
      01005EBDH   LINE      CODE     ---       #42
      01005EC0H   LINE      CODE     ---       #44
      01005EC0H   LINE      CODE     ---       #46
      01005ECDH   LINE      CODE     ---       #47
      01005ED0H   LINE      CODE     ---       #48
      01005ED7H   LINE      CODE     ---       #49
      01005EE0H   LINE      CODE     ---       #50
      01005EE0H   LINE      CODE     ---       #51
      01005EE0H   LINE      CODE     ---       #53
      01005EE7H   LINE      CODE     ---       #54
      01005EEAH   LINE      CODE     ---       #55
      01005EEDH   LINE      CODE     ---       #57
      01005EEDH   LINE      CODE     ---       #59
      ---         BLOCKEND  ---      ---       LVL=0

      ---         MODULE    ---      ---       SM_POWER_PACK_POWERSAVE
      0100CDFBH   PUBLIC    CONST    ---       sm_power_pack_powersave_ss_name
      01007C22H   PUBLIC    CODE     ---       _sm_power_pack_powersave_submod0
      010089B2H   PUBLIC    CODE     ---       _sm_power_pack_powersave_init

      010088EAH   BLOCK     CODE     ---       LVL=0
      ---         BLOCKEND  ---      ---       LVL=0

      010089B2H   BLOCK     CODE     ---       LVL=0
      00000007H   SYMBOL    DATA     BYTE      from
      00000005H   SYMBOL    DATA     BYTE      to
      00000006H   SYMBOL    DATA     BYTE      ev
      010089B2H   LINE      CODE     ---       #11
      010089B4H   LINE      CODE     ---       #12
      010089B4H   LINE      CODE     ---       #13
      ---         BLOCKEND  ---      ---       LVL=0

      01007C22H   BLOCK     CODE     ---       LVL=0
      00000007H   SYMBOL    DATA     BYTE      from
      00000005H   SYMBOL    DATA     BYTE      to
      02000011H   SYMBOL    XDATA    BYTE      ev
      01007C22H   LINE      CODE     ---       #16
      01007C28H   LINE      CODE     ---       #17
      01007C28H   LINE      CODE     ---       #18
      01007C32H   LINE      CODE     ---       #20
      01007C38H   LINE      CODE     ---       #21
      01007C3BH   LINE      CODE     ---       #22
      01007C3EH   LINE      CODE     ---       #24
      01007C3EH   LINE      CODE     ---       #25
      ---         BLOCKEND  ---      ---       LVL=0

      ---         MODULE    ---      ---       SM_FUSE_TEST
      0100AEC7H   PUBLIC    CONST    ---       sm_fuse_test_ss_name
      01007DACH   PUBLIC    CODE     ---       _sm_fuse_test_submod8
      01007D90H   PUBLIC    CODE     ---       _sm_fuse_test_submod7
      01007D74H   PUBLIC    CODE     ---       _sm_fuse_test_submod6
      01007D58H   PUBLIC    CODE     ---       _sm_fuse_test_submod5
      01007D3CH   PUBLIC    CODE     ---       _sm_fuse_test_submod4
      01007D20H   PUBLIC    CODE     ---       _sm_fuse_test_submod3
      01007D04H   PUBLIC    CODE     ---       _sm_fuse_test_submod2
      01007CE8H   PUBLIC    CODE     ---       _sm_fuse_test_submod1
      0100232AH   PUBLIC    CODE     ---       _sm_fuse_test_submod0
LX51 LINKER/LOCATER V4.66.87.0                                                        05/30/2018  19:50:23  PAGE 200


      01006927H   PUBLIC    CODE     ---       _sm_fuse_test_init
      01001837H   SYMBOL    CODE     ---       _sm_fuse_test_hg_mpu
      010019FFH   SYMBOL    CODE     ---       _sm_fuse_test_thermo
      0100162BH   SYMBOL    CODE     ---       _display_test
      010059D2H   SYMBOL    CODE     ---       _sm_fuse_set
      01003A4AH   SYMBOL    CODE     ---       _update_set
      01005EEEH   SYMBOL    CODE     ---       _update_hg_mask
      01007954H   SYMBOL    CODE     ---       _inc_write
      01004401H   SYMBOL    CODE     ---       _enter_set
      01005B3AH   SYMBOL    CODE     ---       _write_only
      010056E4H   SYMBOL    CODE     ---       _inc_only

      010048E5H   BLOCK     CODE     ---       LVL=0
      ---         BLOCKEND  ---      ---       LVL=0

      01006927H   BLOCK     CODE     ---       LVL=0
      00000007H   SYMBOL    DATA     BYTE      from
      00000005H   SYMBOL    DATA     BYTE      to
      02000011H   SYMBOL    XDATA    BYTE      ev
      01006927H   LINE      CODE     ---       #51
      0100692CH   LINE      CODE     ---       #52
      0100692CH   LINE      CODE     ---       #53
      01006936H   LINE      CODE     ---       #54
      0100693BH   LINE      CODE     ---       #55
      01006942H   LINE      CODE     ---       #56
      01006945H   LINE      CODE     ---       #57
      0100694AH   LINE      CODE     ---       #58
      0100694FH   LINE      CODE     ---       #59
      0100694FH   LINE      CODE     ---       #60
      01006952H   LINE      CODE     ---       #61
      01006959H   LINE      CODE     ---       #62
      01006962H   LINE      CODE     ---       #63
      01006962H   LINE      CODE     ---       #64
      ---         BLOCKEND  ---      ---       LVL=0

      01005EEEH   BLOCK     CODE     ---       LVL=0
      02000015H   SYMBOL    XDATA    BYTE      state
      02000016H   SYMBOL    XDATA    BYTE      mask
      01005EF8H   BLOCK     CODE     NEAR LAB  LVL=1
      00000005H   SYMBOL    DATA     BYTE      val
      ---         BLOCKEND  ---      ---       LVL=1
      01005EEEH   LINE      CODE     ---       #66
      01005EF8H   LINE      CODE     ---       #67
      01005EF8H   LINE      CODE     ---       #69
      01005F06H   LINE      CODE     ---       #70
      01005F11H   LINE      CODE     ---       #71
      01005F15H   LINE      CODE     ---       #72
      01005F19H   LINE      CODE     ---       #73
      01005F1DH   LINE      CODE     ---       #74
      01005F23H   LINE      CODE     ---       #75
      01005F33H   LINE      CODE     ---       #76
      01005F36H   LINE      CODE     ---       #77
      ---         BLOCKEND  ---      ---       LVL=0

      0100162BH   BLOCK     CODE     ---       LVL=0
      02000015H   SYMBOL    XDATA    BYTE      what
      02000016H   SYMBOL    XDATA    BYTE      stage
      02000017H   SYMBOL    XDATA    BYTE      val
      02000018H   SYMBOL    XDATA    BYTE      errcode
      01001636H   BLOCK     CODE     NEAR LAB  LVL=1
      00000003H   SYMBOL    DATA     CHAR      tmp
      ---         BLOCKEND  ---      ---       LVL=1
      0100162BH   LINE      CODE     ---       #79
      01001636H   LINE      CODE     ---       #80
      01001636H   LINE      CODE     ---       #82
LX51 LINKER/LOCATER V4.66.87.0                                                        05/30/2018  19:50:23  PAGE 201


      01001648H   LINE      CODE     ---       #84
      0100164BH   LINE      CODE     ---       #86
      01001650H   LINE      CODE     ---       #87
      01001654H   LINE      CODE     ---       #89
      0100165BH   LINE      CODE     ---       #90
      01001660H   LINE      CODE     ---       #91
      01001667H   LINE      CODE     ---       #92
      0100166EH   LINE      CODE     ---       #93
      0100166EH   LINE      CODE     ---       #94
      01001674H   LINE      CODE     ---       #95
      01001677H   LINE      CODE     ---       #96
      0100167EH   LINE      CODE     ---       #97
      01001680H   LINE      CODE     ---       #98
      01001689H   LINE      CODE     ---       #99
      0100168CH   LINE      CODE     ---       #100
      01001693H   LINE      CODE     ---       #101
      0100169AH   LINE      CODE     ---       #102
      0100169AH   LINE      CODE     ---       #104
      010016BBH   LINE      CODE     ---       #105
      010016BBH   LINE      CODE     ---       #106
      010016BBH   LINE      CODE     ---       #107
      010016BBH   LINE      CODE     ---       #108
      010016C2H   LINE      CODE     ---       #109
      010016C9H   LINE      CODE     ---       #110
      010016D2H   LINE      CODE     ---       #111
      010016D2H   LINE      CODE     ---       #112
      010016D2H   LINE      CODE     ---       #113
      010016D2H   LINE      CODE     ---       #114
      010016D2H   LINE      CODE     ---       #115
      010016D2H   LINE      CODE     ---       #116
      010016D2H   LINE      CODE     ---       #117
      010016D2H   LINE      CODE     ---       #118
      010016E5H   LINE      CODE     ---       #119
      010016EDH   LINE      CODE     ---       #120
      010016F3H   LINE      CODE     ---       #121
      010016FCH   LINE      CODE     ---       #122
      010016FFH   LINE      CODE     ---       #123
      01001701H   LINE      CODE     ---       #124
      01001704H   LINE      CODE     ---       #125
      01001704H   LINE      CODE     ---       #126
      0100170BH   LINE      CODE     ---       #127
      0100170BH   LINE      CODE     ---       #128
      0100170EH   LINE      CODE     ---       #129
      0100170EH   LINE      CODE     ---       #130
      0100170EH   LINE      CODE     ---       #131
      01001715H   LINE      CODE     ---       #132
      0100171CH   LINE      CODE     ---       #133
      0100171EH   LINE      CODE     ---       #134
      01001720H   LINE      CODE     ---       #135
      01001727H   LINE      CODE     ---       #136
      01001727H   LINE      CODE     ---       #137
      01001732H   LINE      CODE     ---       #138
      0100173BH   LINE      CODE     ---       #139
      01001744H   LINE      CODE     ---       #140
      01001746H   LINE      CODE     ---       #141
      0100174EH   LINE      CODE     ---       #142
      01001755H   LINE      CODE     ---       #143
      01001759H   LINE      CODE     ---       #144
      01001759H   LINE      CODE     ---       #145
      01001762H   LINE      CODE     ---       #146
      0100176FH   LINE      CODE     ---       #147
      01001772H   LINE      CODE     ---       #148
      01001779H   LINE      CODE     ---       #149
      01001780H   LINE      CODE     ---       #150
      01001782H   LINE      CODE     ---       #151
LX51 LINKER/LOCATER V4.66.87.0                                                        05/30/2018  19:50:23  PAGE 202


      01001782H   LINE      CODE     ---       #152
      01001782H   LINE      CODE     ---       #153
      01001785H   LINE      CODE     ---       #154
      01001785H   LINE      CODE     ---       #155
      01001785H   LINE      CODE     ---       #156
      01001789H   LINE      CODE     ---       #157
      01001790H   LINE      CODE     ---       #158
      01001791H   LINE      CODE     ---       #159
      01001793H   LINE      CODE     ---       #160
      0100179AH   LINE      CODE     ---       #161
      010017A1H   LINE      CODE     ---       #162
      010017A1H   LINE      CODE     ---       #163
      010017AAH   LINE      CODE     ---       #164
      010017B1H   LINE      CODE     ---       #165
      010017B4H   LINE      CODE     ---       #166
      010017B9H   LINE      CODE     ---       #167
      010017BEH   LINE      CODE     ---       #168
      010017C3H   LINE      CODE     ---       #169
      010017C7H   LINE      CODE     ---       #170
      010017CBH   LINE      CODE     ---       #171
      010017D0H   LINE      CODE     ---       #172
      010017D2H   LINE      CODE     ---       #173
      010017D5H   LINE      CODE     ---       #175
      010017E2H   LINE      CODE     ---       #176
      010017E5H   LINE      CODE     ---       #177
      010017E7H   LINE      CODE     ---       #178
      010017F6H   LINE      CODE     ---       #179
      010017F6H   LINE      CODE     ---       #180
      01001802H   LINE      CODE     ---       #181
      01001805H   LINE      CODE     ---       #182
      01001807H   LINE      CODE     ---       #183
      01001815H   LINE      CODE     ---       #184
      01001815H   LINE      CODE     ---       #185
      01001815H   LINE      CODE     ---       #186
      01001815H   LINE      CODE     ---       #187
      01001815H   LINE      CODE     ---       #188
      ---         BLOCKEND  ---      ---       LVL=0

      01003A4AH   BLOCK     CODE     ---       LVL=0
      00000007H   SYMBOL    DATA     BYTE      what
      01003A4AH   BLOCK     CODE     NEAR LAB  LVL=1
      00000004H   SYMBOL    DATA     CHAR      val
      ---         BLOCKEND  ---      ---       LVL=1
      01003A4AH   LINE      CODE     ---       #190
      01003A4AH   LINE      CODE     ---       #191
      01003A4AH   LINE      CODE     ---       #194
      01003A5CH   LINE      CODE     ---       #195
      01003A5CH   LINE      CODE     ---       #196
      01003A5CH   LINE      CODE     ---       #197
      01003A61H   LINE      CODE     ---       #198
      01003A64H   LINE      CODE     ---       #199
      01003A64H   LINE      CODE     ---       #200
      01003A67H   LINE      CODE     ---       #201
      01003A67H   LINE      CODE     ---       #202
      01003A69H   LINE      CODE     ---       #203
      01003A71H   LINE      CODE     ---       #204
      01003A78H   LINE      CODE     ---       #205
      01003A7CH   LINE      CODE     ---       #206
      01003A7EH   LINE      CODE     ---       #207
      01003A81H   LINE      CODE     ---       #208
      01003A81H   LINE      CODE     ---       #209
      01003A8DH   LINE      CODE     ---       #210
      01003A98H   LINE      CODE     ---       #211
      01003A98H   LINE      CODE     ---       #212
      01003A9AH   LINE      CODE     ---       #213
LX51 LINKER/LOCATER V4.66.87.0                                                        05/30/2018  19:50:23  PAGE 203


      01003A9AH   LINE      CODE     ---       #214
      01003AA0H   LINE      CODE     ---       #215
      01003AA3H   LINE      CODE     ---       #216
      01003AAAH   LINE      CODE     ---       #217
      01003AABH   LINE      CODE     ---       #218
      01003AADH   LINE      CODE     ---       #219
      01003AADH   LINE      CODE     ---       #220
      01003AB0H   LINE      CODE     ---       #221
      01003AB0H   LINE      CODE     ---       #222
      01003AB0H   LINE      CODE     ---       #223
      01003AB2H   LINE      CODE     ---       #224
      01003AB2H   LINE      CODE     ---       #225
      01003AB9H   LINE      CODE     ---       #226
      01003AC0H   LINE      CODE     ---       #227
      01003AC7H   LINE      CODE     ---       #228
      01003AC7H   LINE      CODE     ---       #229
      01003AC9H   LINE      CODE     ---       #230
      01003ACDH   LINE      CODE     ---       #231
      01003AD5H   LINE      CODE     ---       #232
      01003AE2H   LINE      CODE     ---       #233
      01003AE2H   LINE      CODE     ---       #234
      01003AE2H   LINE      CODE     ---       #235
      01003AE2H   LINE      CODE     ---       #236
      ---         BLOCKEND  ---      ---       LVL=0

      01004401H   BLOCK     CODE     ---       LVL=0
      02000014H   SYMBOL    XDATA    BYTE      what
      01004401H   LINE      CODE     ---       #239
      01004406H   LINE      CODE     ---       #240
      01004406H   LINE      CODE     ---       #241
      01004410H   LINE      CODE     ---       #242
      01004413H   LINE      CODE     ---       #243
      01004418H   LINE      CODE     ---       #244
      0100441CH   LINE      CODE     ---       #245
      01004420H   LINE      CODE     ---       #246
      01004424H   LINE      CODE     ---       #247
      01004428H   LINE      CODE     ---       #248
      0100443AH   LINE      CODE     ---       #249
      0100443AH   LINE      CODE     ---       #250
      0100443AH   LINE      CODE     ---       #251
      01004441H   LINE      CODE     ---       #252
      01004448H   LINE      CODE     ---       #253
      0100444AH   LINE      CODE     ---       #254
      0100444CH   LINE      CODE     ---       #255
      01004453H   LINE      CODE     ---       #256
      01004453H   LINE      CODE     ---       #257
      0100445EH   LINE      CODE     ---       #259
      01004460H   LINE      CODE     ---       #260
      01004460H   LINE      CODE     ---       #261
      01004467H   LINE      CODE     ---       #262
      0100446DH   LINE      CODE     ---       #263
      0100446FH   LINE      CODE     ---       #264
      01004471H   LINE      CODE     ---       #265
      01004471H   LINE      CODE     ---       #266
      01004478H   LINE      CODE     ---       #267
      0100447FH   LINE      CODE     ---       #268
      01004489H   LINE      CODE     ---       #269
      01004489H   LINE      CODE     ---       #270
      01004489H   LINE      CODE     ---       #271
      ---         BLOCKEND  ---      ---       LVL=0

      010056E4H   BLOCK     CODE     ---       LVL=0
      02000015H   SYMBOL    XDATA    BYTE      what
      010056E4H   LINE      CODE     ---       #274
      010056E9H   LINE      CODE     ---       #275
LX51 LINKER/LOCATER V4.66.87.0                                                        05/30/2018  19:50:23  PAGE 204


      010056E9H   LINE      CODE     ---       #277
      010056F3H   LINE      CODE     ---       #279
      010056F6H   LINE      CODE     ---       #280
      010056F8H   LINE      CODE     ---       #281
      010056FDH   LINE      CODE     ---       #282
      01005701H   LINE      CODE     ---       #283
      01005705H   LINE      CODE     ---       #284
      01005705H   LINE      CODE     ---       #286
      01005717H   LINE      CODE     ---       #287
      01005717H   LINE      CODE     ---       #288
      01005717H   LINE      CODE     ---       #289
      0100571FH   LINE      CODE     ---       #290
      01005721H   LINE      CODE     ---       #291
      01005721H   LINE      CODE     ---       #292
      01005730H   LINE      CODE     ---       #293
      01005732H   LINE      CODE     ---       #294
      01005732H   LINE      CODE     ---       #295
      0100573CH   LINE      CODE     ---       #296
      0100573CH   LINE      CODE     ---       #297
      0100573CH   LINE      CODE     ---       #298
      ---         BLOCKEND  ---      ---       LVL=0

      01005B3AH   BLOCK     CODE     ---       LVL=0
      02000015H   SYMBOL    XDATA    BYTE      what
      01005B3AH   LINE      CODE     ---       #301
      01005B3FH   LINE      CODE     ---       #302
      01005B3FH   LINE      CODE     ---       #303
      01005B49H   LINE      CODE     ---       #305
      01005B4CH   LINE      CODE     ---       #306
      01005B4EH   LINE      CODE     ---       #307
      01005B53H   LINE      CODE     ---       #308
      01005B57H   LINE      CODE     ---       #309
      01005B5BH   LINE      CODE     ---       #310
      01005B5BH   LINE      CODE     ---       #312
      01005B6DH   LINE      CODE     ---       #313
      01005B6DH   LINE      CODE     ---       #314
      01005B74H   LINE      CODE     ---       #315
      01005B76H   LINE      CODE     ---       #316
      01005B76H   LINE      CODE     ---       #317
      01005B7DH   LINE      CODE     ---       #318
      01005B7FH   LINE      CODE     ---       #319
      01005B7FH   LINE      CODE     ---       #320
      01005B86H   LINE      CODE     ---       #321
      01005B88H   LINE      CODE     ---       #322
      01005B88H   LINE      CODE     ---       #323
      01005B92H   LINE      CODE     ---       #324
      01005B92H   LINE      CODE     ---       #325
      01005B92H   LINE      CODE     ---       #326
      ---         BLOCKEND  ---      ---       LVL=0

      01007954H   BLOCK     CODE     ---       LVL=0
      02000014H   SYMBOL    XDATA    BYTE      what
      01007954H   LINE      CODE     ---       #328
      01007959H   LINE      CODE     ---       #329
      01007959H   LINE      CODE     ---       #330
      01007966H   LINE      CODE     ---       #331
      0100796EH   LINE      CODE     ---       #332
      ---         BLOCKEND  ---      ---       LVL=0

      010019FFH   BLOCK     CODE     ---       LVL=0
      02000012H   SYMBOL    XDATA    BYTE      what
      02000013H   SYMBOL    XDATA    BYTE      ev
      01001A07H   BLOCK     CODE     NEAR LAB  LVL=1
      02000014H   SYMBOL    XDATA    BYTE      val
      ---         BLOCKEND  ---      ---       LVL=1
LX51 LINKER/LOCATER V4.66.87.0                                                        05/30/2018  19:50:23  PAGE 205


      010019FFH   LINE      CODE     ---       #335
      01001A07H   LINE      CODE     ---       #336
      01001A07H   LINE      CODE     ---       #338
      01001A0BH   LINE      CODE     ---       #340
      01001A0BH   LINE      CODE     ---       #341
      01001A0EH   LINE      CODE     ---       #342
      01001A13H   LINE      CODE     ---       #343
      01001A2AH   LINE      CODE     ---       #347
      01001A2AH   LINE      CODE     ---       #349
      01001A38H   LINE      CODE     ---       #351
      01001A3FH   LINE      CODE     ---       #352
      01001A43H   LINE      CODE     ---       #354
      01001A4DH   LINE      CODE     ---       #355
      01001A5EH   LINE      CODE     ---       #356
      01001A66H   LINE      CODE     ---       #358
      01001A68H   LINE      CODE     ---       #359
      01001A6BH   LINE      CODE     ---       #360
      01001A70H   LINE      CODE     ---       #361
      01001A83H   LINE      CODE     ---       #364
      01001A86H   LINE      CODE     ---       #366
      01001A9CH   LINE      CODE     ---       #369
      01001A9FH   LINE      CODE     ---       #371
      01001A9FH   LINE      CODE     ---       #373
      01001AADH   LINE      CODE     ---       #374
      01001AB2H   LINE      CODE     ---       #376
      01001AC8H   LINE      CODE     ---       #379
      01001AC8H   LINE      CODE     ---       #380
      01001AC8H   LINE      CODE     ---       #381
      01001AD2H   LINE      CODE     ---       #383
      01001AF0H   LINE      CODE     ---       #386
      01001AF0H   LINE      CODE     ---       #387
      01001AF0H   LINE      CODE     ---       #388
      01001AF3H   LINE      CODE     ---       #390
      01001AF3H   LINE      CODE     ---       #392
      01001AFEH   LINE      CODE     ---       #393
      01001B03H   LINE      CODE     ---       #394
      01001B0EH   LINE      CODE     ---       #395
      01001B10H   LINE      CODE     ---       #396
      01001B13H   LINE      CODE     ---       #397
      01001B31H   LINE      CODE     ---       #400
      01001B31H   LINE      CODE     ---       #401
      01001B38H   LINE      CODE     ---       #402
      01001B40H   LINE      CODE     ---       #403
      01001B45H   LINE      CODE     ---       #404
      01001B48H   LINE      CODE     ---       #405
      01001B55H   LINE      CODE     ---       #406
      01001B57H   LINE      CODE     ---       #407
      01001B64H   LINE      CODE     ---       #408
      01001B64H   LINE      CODE     ---       #409
      01001B64H   LINE      CODE     ---       #410
      01001B64H   LINE      CODE     ---       #411
      01001B6EH   LINE      CODE     ---       #412
      01001B73H   LINE      CODE     ---       #413
      01001B76H   LINE      CODE     ---       #414
      01001B86H   LINE      CODE     ---       #415
      01001B86H   LINE      CODE     ---       #416
      01001B96H   LINE      CODE     ---       #417
      01001B9BH   LINE      CODE     ---       #418
      01001BA0H   LINE      CODE     ---       #419
      01001BA0H   LINE      CODE     ---       #420
      01001BA0H   LINE      CODE     ---       #421
      01001BA0H   LINE      CODE     ---       #423
      01001BA0H   LINE      CODE     ---       #424
      ---         BLOCKEND  ---      ---       LVL=0

LX51 LINKER/LOCATER V4.66.87.0                                                        05/30/2018  19:50:23  PAGE 206


      010059D2H   BLOCK     CODE     ---       LVL=0
      02000012H   SYMBOL    XDATA    BYTE      what
      02000013H   SYMBOL    XDATA    BYTE      ev
      010059D2H   LINE      CODE     ---       #426
      010059DAH   LINE      CODE     ---       #427
      010059DAH   LINE      CODE     ---       #428
      010059DDH   LINE      CODE     ---       #429
      010059E5H   LINE      CODE     ---       #430
      010059E7H   LINE      CODE     ---       #432
      010059E7H   LINE      CODE     ---       #434
      010059EEH   LINE      CODE     ---       #435
      010059F6H   LINE      CODE     ---       #437
      010059F6H   LINE      CODE     ---       #439
      010059FDH   LINE      CODE     ---       #440
      01005A04H   LINE      CODE     ---       #441
      01005A0CH   LINE      CODE     ---       #442
      01005A0CH   LINE      CODE     ---       #443
      01005A12H   LINE      CODE     ---       #444
      01005A19H   LINE      CODE     ---       #446
      01005A19H   LINE      CODE     ---       #448
      01005A20H   LINE      CODE     ---       #449
      01005A28H   LINE      CODE     ---       #450
      01005A2DH   LINE      CODE     ---       #452
      01005A2DH   LINE      CODE     ---       #453
      ---         BLOCKEND  ---      ---       LVL=0

      0100232AH   BLOCK     CODE     ---       LVL=0
      00000007H   SYMBOL    DATA     BYTE      from
      00000005H   SYMBOL    DATA     BYTE      to
      02000011H   SYMBOL    XDATA    BYTE      ev
      0100232AH   LINE      CODE     ---       #461
      01002330H   LINE      CODE     ---       #462
      01002330H   LINE      CODE     ---       #463
      0100233CH   LINE      CODE     ---       #465
      01002349H   LINE      CODE     ---       #467
      01002349H   LINE      CODE     ---       #468
      0100234CH   LINE      CODE     ---       #469
      0100234EH   LINE      CODE     ---       #470
      01002350H   LINE      CODE     ---       #472
      01002350H   LINE      CODE     ---       #474
      0100235EH   LINE      CODE     ---       #476
      01002360H   LINE      CODE     ---       #477
      01002368H   LINE      CODE     ---       #478
      0100236DH   LINE      CODE     ---       #479
      01002370H   LINE      CODE     ---       #481
      01002370H   LINE      CODE     ---       #483
      01002378H   LINE      CODE     ---       #485
      0100237DH   LINE      CODE     ---       #487
      01002380H   LINE      CODE     ---       #488
      01002387H   LINE      CODE     ---       #489
      0100238BH   LINE      CODE     ---       #490
      0100238EH   LINE      CODE     ---       #491
      0100238EH   LINE      CODE     ---       #492
      01002391H   LINE      CODE     ---       #494
      01002396H   LINE      CODE     ---       #495
      01002396H   LINE      CODE     ---       #496
      01002396H   LINE      CODE     ---       #497
      01002399H   LINE      CODE     ---       #499
      01002399H   LINE      CODE     ---       #501
      010023A1H   LINE      CODE     ---       #503
      010023A9H   LINE      CODE     ---       #505
      010023ACH   LINE      CODE     ---       #506
      010023B3H   LINE      CODE     ---       #507
      010023B8H   LINE      CODE     ---       #508
      010023C0H   LINE      CODE     ---       #509
LX51 LINKER/LOCATER V4.66.87.0                                                        05/30/2018  19:50:23  PAGE 207


      010023CAH   LINE      CODE     ---       #510
      010023CCH   LINE      CODE     ---       #512
      010023D1H   LINE      CODE     ---       #513
      010023D1H   LINE      CODE     ---       #514
      010023D1H   LINE      CODE     ---       #515
      010023D4H   LINE      CODE     ---       #517
      010023D4H   LINE      CODE     ---       #519
      010023DCH   LINE      CODE     ---       #521
      010023E3H   LINE      CODE     ---       #524
      010023E3H   LINE      CODE     ---       #525
      010023E6H   LINE      CODE     ---       #526
      010023EEH   LINE      CODE     ---       #527
      010023F0H   LINE      CODE     ---       #529
      010023F5H   LINE      CODE     ---       #530
      010023F5H   LINE      CODE     ---       #531
      010023F5H   LINE      CODE     ---       #532
      010023F7H   LINE      CODE     ---       #534
      010023F7H   LINE      CODE     ---       #536
      010023FFH   LINE      CODE     ---       #538
      01002404H   LINE      CODE     ---       #539
      0100240CH   LINE      CODE     ---       #540
      01002412H   LINE      CODE     ---       #541
      01002416H   LINE      CODE     ---       #542
      01002419H   LINE      CODE     ---       #543
      01002426H   LINE      CODE     ---       #544
      01002426H   LINE      CODE     ---       #545
      0100242BH   LINE      CODE     ---       #546
      01002433H   LINE      CODE     ---       #548
      0100243DH   LINE      CODE     ---       #549
      0100243DH   LINE      CODE     ---       #550
      0100243DH   LINE      CODE     ---       #551
      0100243DH   LINE      CODE     ---       #552
      01002447H   LINE      CODE     ---       #553
      0100244FH   LINE      CODE     ---       #555
      01002459H   LINE      CODE     ---       #556
      01002459H   LINE      CODE     ---       #557
      01002459H   LINE      CODE     ---       #558
      01002459H   LINE      CODE     ---       #559
      01002463H   LINE      CODE     ---       #560
      0100246BH   LINE      CODE     ---       #562
      01002478H   LINE      CODE     ---       #563
      01002478H   LINE      CODE     ---       #564
      0100247BH   LINE      CODE     ---       #565
      0100247BH   LINE      CODE     ---       #566
      0100247BH   LINE      CODE     ---       #568
      0100247BH   LINE      CODE     ---       #569
      ---         BLOCKEND  ---      ---       LVL=0

      01007CE8H   BLOCK     CODE     ---       LVL=0
      00000007H   SYMBOL    DATA     BYTE      from
      00000005H   SYMBOL    DATA     BYTE      to
      02000011H   SYMBOL    XDATA    BYTE      ev
      01007CE8H   LINE      CODE     ---       #571
      01007CEEH   LINE      CODE     ---       #572
      01007CEEH   LINE      CODE     ---       #573
      01007CFAH   LINE      CODE     ---       #574
      ---         BLOCKEND  ---      ---       LVL=0

      01007D04H   BLOCK     CODE     ---       LVL=0
      00000007H   SYMBOL    DATA     BYTE      from
      00000005H   SYMBOL    DATA     BYTE      to
      02000011H   SYMBOL    XDATA    BYTE      ev
      01007D04H   LINE      CODE     ---       #582
      01007D0AH   LINE      CODE     ---       #583
      01007D0AH   LINE      CODE     ---       #584
LX51 LINKER/LOCATER V4.66.87.0                                                        05/30/2018  19:50:23  PAGE 208


      01007D16H   LINE      CODE     ---       #585
      ---         BLOCKEND  ---      ---       LVL=0

      01007D20H   BLOCK     CODE     ---       LVL=0
      00000007H   SYMBOL    DATA     BYTE      from
      00000005H   SYMBOL    DATA     BYTE      to
      02000011H   SYMBOL    XDATA    BYTE      ev
      01007D20H   LINE      CODE     ---       #588
      01007D26H   LINE      CODE     ---       #589
      01007D26H   LINE      CODE     ---       #590
      01007D32H   LINE      CODE     ---       #591
      ---         BLOCKEND  ---      ---       LVL=0

      01007D3CH   BLOCK     CODE     ---       LVL=0
      00000007H   SYMBOL    DATA     BYTE      from
      00000005H   SYMBOL    DATA     BYTE      to
      02000011H   SYMBOL    XDATA    BYTE      ev
      01007D3CH   LINE      CODE     ---       #594
      01007D42H   LINE      CODE     ---       #595
      01007D42H   LINE      CODE     ---       #596
      01007D4EH   LINE      CODE     ---       #597
      ---         BLOCKEND  ---      ---       LVL=0

      01007D58H   BLOCK     CODE     ---       LVL=0
      00000007H   SYMBOL    DATA     BYTE      from
      00000005H   SYMBOL    DATA     BYTE      to
      02000011H   SYMBOL    XDATA    BYTE      ev
      01007D58H   LINE      CODE     ---       #600
      01007D5EH   LINE      CODE     ---       #601
      01007D5EH   LINE      CODE     ---       #602
      01007D6AH   LINE      CODE     ---       #603
      ---         BLOCKEND  ---      ---       LVL=0

      01001837H   BLOCK     CODE     ---       LVL=0
      02000012H   SYMBOL    XDATA    BYTE      what
      02000013H   SYMBOL    XDATA    BYTE      ev
      0100183FH   BLOCK     CODE     NEAR LAB  LVL=1
      02000014H   SYMBOL    XDATA    BYTE      val
      ---         BLOCKEND  ---      ---       LVL=1
      01001837H   LINE      CODE     ---       #606
      0100183FH   LINE      CODE     ---       #607
      0100183FH   LINE      CODE     ---       #610
      01001843H   LINE      CODE     ---       #612
      01001847H   LINE      CODE     ---       #613
      0100184BH   LINE      CODE     ---       #614
      0100184FH   LINE      CODE     ---       #615
      01001856H   LINE      CODE     ---       #616
      0100185BH   LINE      CODE     ---       #617
      0100185DH   LINE      CODE     ---       #618
      01001862H   LINE      CODE     ---       #619
      01001862H   LINE      CODE     ---       #620
      01001869H   LINE      CODE     ---       #622
      01001869H   LINE      CODE     ---       #624
      01001877H   LINE      CODE     ---       #625
      0100188CH   LINE      CODE     ---       #626
      0100189CH   LINE      CODE     ---       #628
      0100189DH   LINE      CODE     ---       #629
      010018A0H   LINE      CODE     ---       #630
      010018A5H   LINE      CODE     ---       #631
      010018A8H   LINE      CODE     ---       #632
      010018B0H   LINE      CODE     ---       #633
      010018C2H   LINE      CODE     ---       #634
      010018C4H   LINE      CODE     ---       #635
      010018C7H   LINE      CODE     ---       #636
      010018CCH   LINE      CODE     ---       #637
LX51 LINKER/LOCATER V4.66.87.0                                                        05/30/2018  19:50:23  PAGE 209


      010018CFH   LINE      CODE     ---       #638
      010018D7H   LINE      CODE     ---       #639
      010018DAH   LINE      CODE     ---       #641
      010018E8H   LINE      CODE     ---       #642
      010018EBH   LINE      CODE     ---       #644
      010018EBH   LINE      CODE     ---       #646
      010018F3H   LINE      CODE     ---       #647
      010018F8H   LINE      CODE     ---       #648
      01001903H   LINE      CODE     ---       #649
      0100190EH   LINE      CODE     ---       #650
      0100191CH   LINE      CODE     ---       #652
      0100191FH   LINE      CODE     ---       #653
      0100191FH   LINE      CODE     ---       #654
      0100191FH   LINE      CODE     ---       #655
      0100191FH   LINE      CODE     ---       #656
      0100192DH   LINE      CODE     ---       #658
      01001935H   LINE      CODE     ---       #659
      01001938H   LINE      CODE     ---       #660
      01001938H   LINE      CODE     ---       #661
      0100193BH   LINE      CODE     ---       #663
      0100193BH   LINE      CODE     ---       #665
      01001943H   LINE      CODE     ---       #666
      0100194BH   LINE      CODE     ---       #668
      0100194EH   LINE      CODE     ---       #669
      0100194EH   LINE      CODE     ---       #670
      0100194EH   LINE      CODE     ---       #671
      0100195CH   LINE      CODE     ---       #673
      01001964H   LINE      CODE     ---       #674
      01001967H   LINE      CODE     ---       #675
      01001967H   LINE      CODE     ---       #676
      01001969H   LINE      CODE     ---       #678
      01001969H   LINE      CODE     ---       #680
      01001971H   LINE      CODE     ---       #681
      01001976H   LINE      CODE     ---       #682
      0100197EH   LINE      CODE     ---       #684
      01001984H   LINE      CODE     ---       #685
      0100198CH   LINE      CODE     ---       #686
      01001993H   LINE      CODE     ---       #687
      01001997H   LINE      CODE     ---       #688
      01001999H   LINE      CODE     ---       #689
      010019A1H   LINE      CODE     ---       #690
      010019A1H   LINE      CODE     ---       #691
      010019AAH   LINE      CODE     ---       #692
      010019AAH   LINE      CODE     ---       #693
      010019AFH   LINE      CODE     ---       #694
      010019BFH   LINE      CODE     ---       #696
      010019C8H   LINE      CODE     ---       #697
      010019CDH   LINE      CODE     ---       #698
      010019D4H   LINE      CODE     ---       #699
      010019D9H   LINE      CODE     ---       #700
      010019D9H   LINE      CODE     ---       #701
      010019DEH   LINE      CODE     ---       #702
      010019DEH   LINE      CODE     ---       #703
      010019DEH   LINE      CODE     ---       #704
      010019DEH   LINE      CODE     ---       #706
      010019DEH   LINE      CODE     ---       #707
      ---         BLOCKEND  ---      ---       LVL=0

      01007D74H   BLOCK     CODE     ---       LVL=0
      00000007H   SYMBOL    DATA     BYTE      from
      00000005H   SYMBOL    DATA     BYTE      to
      02000011H   SYMBOL    XDATA    BYTE      ev
      01007D74H   LINE      CODE     ---       #713
      01007D7AH   LINE      CODE     ---       #714
      01007D7AH   LINE      CODE     ---       #715
LX51 LINKER/LOCATER V4.66.87.0                                                        05/30/2018  19:50:23  PAGE 210


      01007D86H   LINE      CODE     ---       #716
      ---         BLOCKEND  ---      ---       LVL=0

      01007D90H   BLOCK     CODE     ---       LVL=0
      00000007H   SYMBOL    DATA     BYTE      from
      00000005H   SYMBOL    DATA     BYTE      to
      02000011H   SYMBOL    XDATA    BYTE      ev
      01007D90H   LINE      CODE     ---       #719
      01007D96H   LINE      CODE     ---       #720
      01007D96H   LINE      CODE     ---       #721
      01007DA2H   LINE      CODE     ---       #722
      ---         BLOCKEND  ---      ---       LVL=0

      01007DACH   BLOCK     CODE     ---       LVL=0
      00000007H   SYMBOL    DATA     BYTE      from
      00000005H   SYMBOL    DATA     BYTE      to
      02000011H   SYMBOL    XDATA    BYTE      ev
      01007DACH   LINE      CODE     ---       #726
      01007DB2H   LINE      CODE     ---       #727
      01007DB2H   LINE      CODE     ---       #728
      01007DBEH   LINE      CODE     ---       #729
      ---         BLOCKEND  ---      ---       LVL=0

      ---         MODULE    ---      ---       SM_FUSE_PARAM
      0100BC05H   PUBLIC    CONST    ---       sm_fuse_param_ss_name
      01004491H   PUBLIC    CODE     ---       _sm_fuse_param_submod6
      01007E38H   PUBLIC    CODE     ---       _sm_fuse_param_submod5
      01007E1CH   PUBLIC    CODE     ---       _sm_fuse_param_submod4
      01007E00H   PUBLIC    CODE     ---       _sm_fuse_param_submod3
      01007DE4H   PUBLIC    CODE     ---       _sm_fuse_param_submod2
      01007DC8H   PUBLIC    CODE     ---       _sm_fuse_param_submod1
      010063C3H   PUBLIC    CODE     ---       _sm_fuse_param_submod0
      010077F9H   PUBLIC    CODE     ---       _sm_fuse_param_init
      01001EDAH   SYMBOL    CODE     ---       _update_time
      01005290H   SYMBOL    CODE     ---       _sm_fuse_param_set_time
      01006BDBH   SYMBOL    CODE     ---       _enter_time
      01004B5EH   SYMBOL    CODE     ---       _write_only
      01008AC5H   SYMBOL    CODE     ---       _inc_and_write
      01006AF9H   SYMBOL    CODE     ---       _update_password
      01004D45H   SYMBOL    CODE     ---       _inc_only
      01007FE6H   SYMBOL    CODE     ---       _enter_password

      01008240H   BLOCK     CODE     ---       LVL=0
      ---         BLOCKEND  ---      ---       LVL=0

      01004D45H   BLOCK     CODE     ---       LVL=0
      00000006H   SYMBOL    DATA     BYTE      what
      01004D45H   LINE      CODE     ---       #26
      01004D47H   LINE      CODE     ---       #27
      01004D47H   LINE      CODE     ---       #29
      01004D53H   LINE      CODE     ---       #30
      01004D61H   LINE      CODE     ---       #32
      01004D61H   LINE      CODE     ---       #34
      01004D75H   LINE      CODE     ---       #35
      01004D75H   LINE      CODE     ---       #36
      01004D75H   LINE      CODE     ---       #37
      01004D78H   LINE      CODE     ---       #38
      01004D7AH   LINE      CODE     ---       #39
      01004D7CH   LINE      CODE     ---       #40
      01004D7FH   LINE      CODE     ---       #41
      01004D7FH   LINE      CODE     ---       #42
      01004D82H   LINE      CODE     ---       #43
      01004D85H   LINE      CODE     ---       #44
      01004D85H   LINE      CODE     ---       #45
      01004D88H   LINE      CODE     ---       #46
LX51 LINKER/LOCATER V4.66.87.0                                                        05/30/2018  19:50:23  PAGE 211


      01004D88H   LINE      CODE     ---       #47
      01004D88H   LINE      CODE     ---       #48
      01004D88H   LINE      CODE     ---       #49
      01004D88H   LINE      CODE     ---       #50
      01004D8BH   LINE      CODE     ---       #51
      01004D8DH   LINE      CODE     ---       #52
      01004D8FH   LINE      CODE     ---       #53
      01004D92H   LINE      CODE     ---       #54
      01004D92H   LINE      CODE     ---       #55
      01004D96H   LINE      CODE     ---       #56
      01004D99H   LINE      CODE     ---       #57
      01004D99H   LINE      CODE     ---       #58
      01004D9CH   LINE      CODE     ---       #59
      01004D9CH   LINE      CODE     ---       #60
      01004D9CH   LINE      CODE     ---       #61
      01004D9CH   LINE      CODE     ---       #62
      01004D9CH   LINE      CODE     ---       #63
      01004D9FH   LINE      CODE     ---       #64
      01004DA1H   LINE      CODE     ---       #65
      01004DA6H   LINE      CODE     ---       #66
      01004DAAH   LINE      CODE     ---       #67
      01004DAAH   LINE      CODE     ---       #68
      01004DAEH   LINE      CODE     ---       #69
      01004DB1H   LINE      CODE     ---       #70
      01004DB1H   LINE      CODE     ---       #71
      01004DB4H   LINE      CODE     ---       #72
      01004DB4H   LINE      CODE     ---       #73
      01004DB4H   LINE      CODE     ---       #74
      01004DB4H   LINE      CODE     ---       #75
      ---         BLOCKEND  ---      ---       LVL=0

      01004B5EH   BLOCK     CODE     ---       LVL=0
      02000015H   SYMBOL    XDATA    BYTE      what
      01004B63H   BLOCK     CODE     NEAR LAB  LVL=1
      00000007H   SYMBOL    DATA     BYTE      i
      ---         BLOCKEND  ---      ---       LVL=1
      01004B5EH   LINE      CODE     ---       #77
      01004B63H   LINE      CODE     ---       #78
      01004B63H   LINE      CODE     ---       #81
      01004B6FH   LINE      CODE     ---       #82
      01004B72H   LINE      CODE     ---       #83
      01004B7DH   LINE      CODE     ---       #85
      01004B7DH   LINE      CODE     ---       #87
      01004B94H   LINE      CODE     ---       #88
      01004B94H   LINE      CODE     ---       #89
      01004B97H   LINE      CODE     ---       #90
      01004B99H   LINE      CODE     ---       #91
      01004B99H   LINE      CODE     ---       #92
      01004B99H   LINE      CODE     ---       #93
      01004B99H   LINE      CODE     ---       #94
      01004B99H   LINE      CODE     ---       #95
      01004B9BH   LINE      CODE     ---       #96
      01004B9BH   LINE      CODE     ---       #97
      01004B9EH   LINE      CODE     ---       #98
      01004BA0H   LINE      CODE     ---       #99
      01004BA0H   LINE      CODE     ---       #100
      01004BA0H   LINE      CODE     ---       #101
      01004BA0H   LINE      CODE     ---       #102
      01004BA0H   LINE      CODE     ---       #103
      01004BA2H   LINE      CODE     ---       #104
      01004BA2H   LINE      CODE     ---       #105
      01004BA5H   LINE      CODE     ---       #106
      01004BA7H   LINE      CODE     ---       #107
      01004BA7H   LINE      CODE     ---       #108
      01004BA7H   LINE      CODE     ---       #109
LX51 LINKER/LOCATER V4.66.87.0                                                        05/30/2018  19:50:23  PAGE 212


      01004BA7H   LINE      CODE     ---       #110
      01004BA7H   LINE      CODE     ---       #111
      01004BA9H   LINE      CODE     ---       #112
      01004BA9H   LINE      CODE     ---       #113
      01004BACH   LINE      CODE     ---       #114
      01004BB1H   LINE      CODE     ---       #115
      01004BB3H   LINE      CODE     ---       #116
      01004BB5H   LINE      CODE     ---       #117
      01004BB5H   LINE      CODE     ---       #118
      01004BB5H   LINE      CODE     ---       #119
      01004BB7H   LINE      CODE     ---       #120
      01004BB7H   LINE      CODE     ---       #121
      01004BBAH   LINE      CODE     ---       #122
      01004BBFH   LINE      CODE     ---       #123
      01004BC1H   LINE      CODE     ---       #124
      01004BC3H   LINE      CODE     ---       #125
      01004BC3H   LINE      CODE     ---       #126
      01004BC3H   LINE      CODE     ---       #127
      01004BC5H   LINE      CODE     ---       #128
      01004BC5H   LINE      CODE     ---       #129
      01004BC8H   LINE      CODE     ---       #130
      01004BCDH   LINE      CODE     ---       #131
      01004BCFH   LINE      CODE     ---       #132
      01004BD4H   LINE      CODE     ---       #133
      01004BD8H   LINE      CODE     ---       #134
      01004BD8H   LINE      CODE     ---       #135
      01004BD8H   LINE      CODE     ---       #136
      01004BD8H   LINE      CODE     ---       #138
      ---         BLOCKEND  ---      ---       LVL=0

      01008AC5H   BLOCK     CODE     ---       LVL=0
      00000004H   SYMBOL    DATA     BYTE      what
      01008AC5H   LINE      CODE     ---       #140
      01008AC7H   LINE      CODE     ---       #141
      01008AC7H   LINE      CODE     ---       #142
      01008ACAH   LINE      CODE     ---       #143
      ---         BLOCKEND  ---      ---       LVL=0

      01001EDAH   BLOCK     CODE     ---       LVL=0
      00000007H   SYMBOL    DATA     BYTE      what
      01001EDAH   BLOCK     CODE     NEAR LAB  LVL=1
      02000016H   SYMBOL    XDATA    BYTE      year
      02000017H   SYMBOL    XDATA    BYTE      mon
      02000018H   SYMBOL    XDATA    BYTE      date
      02000019H   SYMBOL    XDATA    BYTE      hour
      0200001AH   SYMBOL    XDATA    BYTE      min
      0200001BH   SYMBOL    XDATA    BYTE      sec
      ---         BLOCKEND  ---      ---       LVL=1
      01001EDAH   LINE      CODE     ---       #146
      01001EDAH   LINE      CODE     ---       #147
      01001EDAH   LINE      CODE     ---       #150
      01001EE9H   LINE      CODE     ---       #152
      01001EF1H   LINE      CODE     ---       #153
      01001EF7H   LINE      CODE     ---       #154
      01001EFDH   LINE      CODE     ---       #156
      01001F02H   LINE      CODE     ---       #157
      01001F07H   LINE      CODE     ---       #159
      01001F28H   LINE      CODE     ---       #161
      01001F32H   LINE      CODE     ---       #162
      01001F35H   LINE      CODE     ---       #163
      01001F37H   LINE      CODE     ---       #164
      01001F3EH   LINE      CODE     ---       #165
      01001F3EH   LINE      CODE     ---       #166
      01001F44H   LINE      CODE     ---       #167
      01001F4AH   LINE      CODE     ---       #168
LX51 LINKER/LOCATER V4.66.87.0                                                        05/30/2018  19:50:23  PAGE 213


      01001F50H   LINE      CODE     ---       #169
      01001F56H   LINE      CODE     ---       #170
      01001F59H   LINE      CODE     ---       #171
      01001F5CH   LINE      CODE     ---       #172
      01001F64H   LINE      CODE     ---       #173
      01001F6AH   LINE      CODE     ---       #174
      01001F70H   LINE      CODE     ---       #177
      01001F75H   LINE      CODE     ---       #178
      01001F79H   LINE      CODE     ---       #179
      01001F7DH   LINE      CODE     ---       #180
      01001F81H   LINE      CODE     ---       #183
      01001F8EH   LINE      CODE     ---       #184
      01001F92H   LINE      CODE     ---       #185
      01001F96H   LINE      CODE     ---       #186
      01001FA4H   LINE      CODE     ---       #187
      01001FA9H   LINE      CODE     ---       #188
      01001FABH   LINE      CODE     ---       #189
      01001FB0H   LINE      CODE     ---       #190
      01001FB0H   LINE      CODE     ---       #193
      01001FD1H   LINE      CODE     ---       #195
      01001FDBH   LINE      CODE     ---       #196
      01001FDEH   LINE      CODE     ---       #197
      01001FE0H   LINE      CODE     ---       #198
      01001FE7H   LINE      CODE     ---       #199
      01001FE7H   LINE      CODE     ---       #200
      01001FEDH   LINE      CODE     ---       #201
      01001FF3H   LINE      CODE     ---       #202
      01001FF9H   LINE      CODE     ---       #203
      01001FFFH   LINE      CODE     ---       #204
      01002011H   LINE      CODE     ---       #205
      01002011H   LINE      CODE     ---       #206
      ---         BLOCKEND  ---      ---       LVL=0

      01006BDBH   BLOCK     CODE     ---       LVL=0
      02000015H   SYMBOL    XDATA    BYTE      what
      01006BDBH   LINE      CODE     ---       #208
      01006BE0H   LINE      CODE     ---       #209
      01006BE0H   LINE      CODE     ---       #210
      01006BE3H   LINE      CODE     ---       #211
      01006BFAH   LINE      CODE     ---       #212
      01006BFAH   LINE      CODE     ---       #213
      01006BFAH   LINE      CODE     ---       #214
      01006BFCH   LINE      CODE     ---       #215
      01006BFCH   LINE      CODE     ---       #216
      01006BFEH   LINE      CODE     ---       #217
      01006BFEH   LINE      CODE     ---       #218
      01006BFEH   LINE      CODE     ---       #219
      01006C00H   LINE      CODE     ---       #220
      01006C00H   LINE      CODE     ---       #221
      01006C02H   LINE      CODE     ---       #222
      01006C02H   LINE      CODE     ---       #223
      01006C02H   LINE      CODE     ---       #224
      01006C07H   LINE      CODE     ---       #225
      01006C0BH   LINE      CODE     ---       #226
      01006C0BH   LINE      CODE     ---       #227
      01006C0BH   LINE      CODE     ---       #228
      ---         BLOCKEND  ---      ---       LVL=0

      01006AF9H   BLOCK     CODE     ---       LVL=0
      00000007H   SYMBOL    DATA     BYTE      index
      01006AF9H   BLOCK     CODE     NEAR LAB  LVL=1
      02000014H   SYMBOL    XDATA    BYTE      i
      ---         BLOCKEND  ---      ---       LVL=1
      01006AF9H   LINE      CODE     ---       #231
      01006AF9H   LINE      CODE     ---       #232
LX51 LINKER/LOCATER V4.66.87.0                                                        05/30/2018  19:50:23  PAGE 214


      01006AF9H   LINE      CODE     ---       #234
      01006B00H   LINE      CODE     ---       #235
      01006B03H   LINE      CODE     ---       #236
      01006B0AH   LINE      CODE     ---       #237
      01006B0FH   LINE      CODE     ---       #238
      01006B14H   LINE      CODE     ---       #239
      01006B19H   LINE      CODE     ---       #240
      01006B1EH   LINE      CODE     ---       #241
      01006B23H   LINE      CODE     ---       #242
      ---         BLOCKEND  ---      ---       LVL=0

      01007FE6H   BLOCK     CODE     ---       LVL=0
      02000013H   SYMBOL    XDATA    BYTE      index
      01007FEBH   BLOCK     CODE     NEAR LAB  LVL=1
      00000007H   SYMBOL    DATA     BYTE      i
      ---         BLOCKEND  ---      ---       LVL=1
      01007FE6H   LINE      CODE     ---       #245
      01007FEBH   LINE      CODE     ---       #246
      01007FEBH   LINE      CODE     ---       #248
      01007FEDH   LINE      CODE     ---       #249
      01007FF8H   LINE      CODE     ---       #250
      ---         BLOCKEND  ---      ---       LVL=0

      010077F9H   BLOCK     CODE     ---       LVL=0
      00000007H   SYMBOL    DATA     BYTE      from
      00000005H   SYMBOL    DATA     BYTE      to
      02000011H   SYMBOL    XDATA    BYTE      ev
      010077F9H   LINE      CODE     ---       #253
      010077FEH   LINE      CODE     ---       #254
      010077FEH   LINE      CODE     ---       #255
      01007808H   LINE      CODE     ---       #256
      0100780FH   LINE      CODE     ---       #258
      01007816H   LINE      CODE     ---       #259
      0100781CH   LINE      CODE     ---       #260
      0100781CH   LINE      CODE     ---       #261
      ---         BLOCKEND  ---      ---       LVL=0

      01005290H   BLOCK     CODE     ---       LVL=0
      02000013H   SYMBOL    XDATA    BYTE      what
      02000014H   SYMBOL    XDATA    BYTE      ev
      01005290H   LINE      CODE     ---       #263
      01005298H   LINE      CODE     ---       #264
      01005298H   LINE      CODE     ---       #265
      0100529BH   LINE      CODE     ---       #266
      010052A3H   LINE      CODE     ---       #268
      010052A3H   LINE      CODE     ---       #270
      010052AAH   LINE      CODE     ---       #271
      010052B2H   LINE      CODE     ---       #272
      010052BAH   LINE      CODE     ---       #274
      010052BAH   LINE      CODE     ---       #276
      010052C2H   LINE      CODE     ---       #277
      010052C9H   LINE      CODE     ---       #278
      010052D1H   LINE      CODE     ---       #279
      010052D9H   LINE      CODE     ---       #280
      010052D9H   LINE      CODE     ---       #281
      010052DFH   LINE      CODE     ---       #282
      010052E6H   LINE      CODE     ---       #284
      010052E6H   LINE      CODE     ---       #286
      010052EDH   LINE      CODE     ---       #287
      010052F5H   LINE      CODE     ---       #288
      010052FAH   LINE      CODE     ---       #290
      010052FAH   LINE      CODE     ---       #291
      ---         BLOCKEND  ---      ---       LVL=0

      010063C3H   BLOCK     CODE     ---       LVL=0
LX51 LINKER/LOCATER V4.66.87.0                                                        05/30/2018  19:50:23  PAGE 215


      02000011H   SYMBOL    XDATA    BYTE      from
      00000005H   SYMBOL    DATA     BYTE      to
      02000012H   SYMBOL    XDATA    BYTE      ev
      010063C3H   LINE      CODE     ---       #294
      010063CBH   LINE      CODE     ---       #295
      010063CBH   LINE      CODE     ---       #296
      010063D5H   LINE      CODE     ---       #297
      010063F3H   LINE      CODE     ---       #298
      010063F3H   LINE      CODE     ---       #299
      010063F9H   LINE      CODE     ---       #300
      010063F9H   LINE      CODE     ---       #301
      010063FFH   LINE      CODE     ---       #302
      01006402H   LINE      CODE     ---       #303
      ---         BLOCKEND  ---      ---       LVL=0

      01007DC8H   BLOCK     CODE     ---       LVL=0
      00000007H   SYMBOL    DATA     BYTE      from
      00000005H   SYMBOL    DATA     BYTE      to
      02000011H   SYMBOL    XDATA    BYTE      ev
      01007DC8H   LINE      CODE     ---       #306
      01007DCEH   LINE      CODE     ---       #307
      01007DCEH   LINE      CODE     ---       #308
      01007DDAH   LINE      CODE     ---       #309
      ---         BLOCKEND  ---      ---       LVL=0

      01007DE4H   BLOCK     CODE     ---       LVL=0
      00000007H   SYMBOL    DATA     BYTE      from
      00000005H   SYMBOL    DATA     BYTE      to
      02000011H   SYMBOL    XDATA    BYTE      ev
      01007DE4H   LINE      CODE     ---       #312
      01007DEAH   LINE      CODE     ---       #313
      01007DEAH   LINE      CODE     ---       #314
      01007DF6H   LINE      CODE     ---       #315
      ---         BLOCKEND  ---      ---       LVL=0

      01007E00H   BLOCK     CODE     ---       LVL=0
      00000007H   SYMBOL    DATA     BYTE      from
      00000005H   SYMBOL    DATA     BYTE      to
      02000011H   SYMBOL    XDATA    BYTE      ev
      01007E00H   LINE      CODE     ---       #318
      01007E06H   LINE      CODE     ---       #319
      01007E06H   LINE      CODE     ---       #320
      01007E12H   LINE      CODE     ---       #321
      ---         BLOCKEND  ---      ---       LVL=0

      01007E1CH   BLOCK     CODE     ---       LVL=0
      00000007H   SYMBOL    DATA     BYTE      from
      00000005H   SYMBOL    DATA     BYTE      to
      02000011H   SYMBOL    XDATA    BYTE      ev
      01007E1CH   LINE      CODE     ---       #324
      01007E22H   LINE      CODE     ---       #325
      01007E22H   LINE      CODE     ---       #326
      01007E2EH   LINE      CODE     ---       #327
      ---         BLOCKEND  ---      ---       LVL=0

      01007E38H   BLOCK     CODE     ---       LVL=0
      00000007H   SYMBOL    DATA     BYTE      from
      00000005H   SYMBOL    DATA     BYTE      to
      02000011H   SYMBOL    XDATA    BYTE      ev
      01007E38H   LINE      CODE     ---       #330
      01007E3EH   LINE      CODE     ---       #331
      01007E3EH   LINE      CODE     ---       #332
      01007E4AH   LINE      CODE     ---       #333
      ---         BLOCKEND  ---      ---       LVL=0

LX51 LINKER/LOCATER V4.66.87.0                                                        05/30/2018  19:50:23  PAGE 216


      01004491H   BLOCK     CODE     ---       LVL=0
      02000011H   SYMBOL    XDATA    BYTE      from
      00000005H   SYMBOL    DATA     BYTE      to
      02000012H   SYMBOL    XDATA    BYTE      ev
      01004491H   LINE      CODE     ---       #336
      0100449AH   LINE      CODE     ---       #337
      0100449AH   LINE      CODE     ---       #338
      010044A6H   LINE      CODE     ---       #341
      010044AEH   LINE      CODE     ---       #342
      010044B8H   LINE      CODE     ---       #343
      010044C1H   LINE      CODE     ---       #344
      010044C4H   LINE      CODE     ---       #345
      010044C6H   LINE      CODE     ---       #346
      010044CDH   LINE      CODE     ---       #348
      010044CDH   LINE      CODE     ---       #349
      010044CDH   LINE      CODE     ---       #350
      010044D3H   LINE      CODE     ---       #352
      010044D3H   LINE      CODE     ---       #354
      010044DAH   LINE      CODE     ---       #355
      010044E0H   LINE      CODE     ---       #356
      010044E6H   LINE      CODE     ---       #358
      010044E6H   LINE      CODE     ---       #360
      010044EEH   LINE      CODE     ---       #361
      010044F5H   LINE      CODE     ---       #362
      010044FBH   LINE      CODE     ---       #363
      01004501H   LINE      CODE     ---       #364
      01004501H   LINE      CODE     ---       #365
      01004507H   LINE      CODE     ---       #366
      0100450EH   LINE      CODE     ---       #368
      0100450EH   LINE      CODE     ---       #370
      01004515H   LINE      CODE     ---       #371
      0100451BH   LINE      CODE     ---       #372
      01004520H   LINE      CODE     ---       #374
      01004520H   LINE      CODE     ---       #375
      ---         BLOCKEND  ---      ---       LVL=0

      ---         MODULE    ---      ---       SM_FUSE_TIMER
      0100B80FH   PUBLIC    CONST    ---       sm_fuse_timer_ss_name
      01007E54H   PUBLIC    CODE     ---       _sm_fuse_timer_submod4
      010075CEH   PUBLIC    CODE     ---       _sm_fuse_timer_submod3
      01003737H   PUBLIC    CODE     ---       _sm_fuse_timer_submod2
      01005CF0H   PUBLIC    CODE     ---       _sm_fuse_timer_submod1
      01002B68H   PUBLIC    CODE     ---       _sm_fuse_timer_submod0
      01007C3FH   PUBLIC    CODE     ---       _sm_fuse_timer_init
      010068EAH   SYMBOL    CODE     ---       _display_timer
      010088F8H   SYMBOL    CODE     ---       inc_password
      01006FDCH   SYMBOL    CODE     ---       roll_back
      01003670H   SYMBOL    CODE     ---       _check_and_set
      0100700CH   SYMBOL    CODE     ---       display_password
      01003F30H   SYMBOL    CODE     ---       _display_prearm
      01004F90H   SYMBOL    CODE     ---       verify_password

      01007182H   BLOCK     CODE     ---       LVL=0
      ---         BLOCKEND  ---      ---       LVL=0

      01003670H   BLOCK     CODE     ---       LVL=0
      00000007H   SYMBOL    DATA     BYTE      step
      01003670H   BLOCK     CODE     NEAR LAB  LVL=1
      02000013H   SYMBOL    XDATA    BYTE      ret
      02000014H   SYMBOL    XDATA    BYTE      val
      00000007H   SYMBOL    DATA     BYTE      val1
      ---         BLOCKEND  ---      ---       LVL=1
      01003670H   LINE      CODE     ---       #64
      01003670H   LINE      CODE     ---       #65
      01003670H   LINE      CODE     ---       #66
LX51 LINKER/LOCATER V4.66.87.0                                                        05/30/2018  19:50:23  PAGE 217


      01003675H   LINE      CODE     ---       #68
      01003689H   LINE      CODE     ---       #69
      01003689H   LINE      CODE     ---       #70
      0100368EH   LINE      CODE     ---       #71
      01003691H   LINE      CODE     ---       #72
      01003691H   LINE      CODE     ---       #73
      01003696H   LINE      CODE     ---       #74
      010036A0H   LINE      CODE     ---       #75
      010036A3H   LINE      CODE     ---       #76
      010036A3H   LINE      CODE     ---       #77
      010036A8H   LINE      CODE     ---       #78
      010036B4H   LINE      CODE     ---       #79
      010036B6H   LINE      CODE     ---       #80
      010036B6H   LINE      CODE     ---       #81
      010036C0H   LINE      CODE     ---       #82
      010036C5H   LINE      CODE     ---       #83
      010036D2H   LINE      CODE     ---       #84
      010036DCH   LINE      CODE     ---       #85
      010036ECH   LINE      CODE     ---       #86
      010036F2H   LINE      CODE     ---       #87
      010036F4H   LINE      CODE     ---       #88
      010036F4H   LINE      CODE     ---       #89
      010036F4H   LINE      CODE     ---       #90
      010036F9H   LINE      CODE     ---       #91
      010036F9H   LINE      CODE     ---       #92
      010036FBH   LINE      CODE     ---       #93
      010036FBH   LINE      CODE     ---       #94
      010036FEH   LINE      CODE     ---       #95
      01003701H   LINE      CODE     ---       #96
      0100370BH   LINE      CODE     ---       #97
      0100370EH   LINE      CODE     ---       #98
      01003714H   LINE      CODE     ---       #99
      01003716H   LINE      CODE     ---       #100
      0100371DH   LINE      CODE     ---       #101
      01003723H   LINE      CODE     ---       #102
      01003725H   LINE      CODE     ---       #103
      01003725H   LINE      CODE     ---       #104
      01003728H   LINE      CODE     ---       #105
      01003728H   LINE      CODE     ---       #106
      01003728H   LINE      CODE     ---       #107
      01003728H   LINE      CODE     ---       #108
      01003728H   LINE      CODE     ---       #109
      01003728H   LINE      CODE     ---       #110
      01003728H   LINE      CODE     ---       #111
      01003728H   LINE      CODE     ---       #112
      0100372DH   LINE      CODE     ---       #113
      ---         BLOCKEND  ---      ---       LVL=0

      01006FDCH   BLOCK     CODE     ---       LVL=0
      00000020H.0 SYMBOL    BIT      BIT       include_fuse
      01006FDCH   LINE      CODE     ---       #115
      01006FDCH   LINE      CODE     ---       #116
      01006FDCH   LINE      CODE     ---       #117
      01006FF1H   LINE      CODE     ---       #118
      01006FF6H   LINE      CODE     ---       #119
      01006FFBH   LINE      CODE     ---       #120
      01007000H   LINE      CODE     ---       #121
      01007003H   LINE      CODE     ---       #122
      01007006H   LINE      CODE     ---       #123
      0100700BH   LINE      CODE     ---       #124
      0100700BH   LINE      CODE     ---       #125
      ---         BLOCKEND  ---      ---       LVL=0

      01003F30H   BLOCK     CODE     ---       LVL=0
      02000013H   SYMBOL    XDATA    BYTE      step
LX51 LINKER/LOCATER V4.66.87.0                                                        05/30/2018  19:50:23  PAGE 218


      02000014H   SYMBOL    XDATA    BYTE      err
      01003F30H   LINE      CODE     ---       #137
      01003F38H   LINE      CODE     ---       #138
      01003F38H   LINE      CODE     ---       #139
      01003F3BH   LINE      CODE     ---       #141
      01003F5FH   LINE      CODE     ---       #142
      01003F5FH   LINE      CODE     ---       #143
      01003F61H   LINE      CODE     ---       #144
      01003F61H   LINE      CODE     ---       #145
      01003F63H   LINE      CODE     ---       #146
      01003F63H   LINE      CODE     ---       #147
      01003F6AH   LINE      CODE     ---       #148
      01003F6CH   LINE      CODE     ---       #149
      01003F6EH   LINE      CODE     ---       #150
      01003F6EH   LINE      CODE     ---       #151
      01003F75H   LINE      CODE     ---       #152
      01003F76H   LINE      CODE     ---       #153
      01003F78H   LINE      CODE     ---       #154
      01003F78H   LINE      CODE     ---       #155
      01003F7FH   LINE      CODE     ---       #156
      01003F81H   LINE      CODE     ---       #157
      01003F83H   LINE      CODE     ---       #158
      01003F83H   LINE      CODE     ---       #159
      01003F8AH   LINE      CODE     ---       #160
      01003F8CH   LINE      CODE     ---       #161
      01003F8EH   LINE      CODE     ---       #162
      01003F8EH   LINE      CODE     ---       #163
      01003F8EH   LINE      CODE     ---       #164
      01003F8EH   LINE      CODE     ---       #165
      01003F9BH   LINE      CODE     ---       #166
      01003FABH   LINE      CODE     ---       #167
      01003FABH   LINE      CODE     ---       #168
      01003FB2H   LINE      CODE     ---       #169
      01003FB4H   LINE      CODE     ---       #170
      01003FBCH   LINE      CODE     ---       #171
      01003FC9H   LINE      CODE     ---       #172
      ---         BLOCKEND  ---      ---       LVL=0

      010068EAH   BLOCK     CODE     ---       LVL=0
      02000012H   SYMBOL    XDATA    BYTE      what
      010068EAH   LINE      CODE     ---       #174
      010068EFH   LINE      CODE     ---       #175
      010068EFH   LINE      CODE     ---       #176
      010068F2H   LINE      CODE     ---       #177
      010068F9H   LINE      CODE     ---       #178
      01006900H   LINE      CODE     ---       #179
      01006907H   LINE      CODE     ---       #180
      01006911H   LINE      CODE     ---       #181
      01006911H   LINE      CODE     ---       #182
      01006913H   LINE      CODE     ---       #183
      01006913H   LINE      CODE     ---       #184
      01006913H   LINE      CODE     ---       #185
      01006915H   LINE      CODE     ---       #186
      01006915H   LINE      CODE     ---       #187
      0100691CH   LINE      CODE     ---       #188
      01006921H   LINE      CODE     ---       #189
      01006926H   LINE      CODE     ---       #190
      01006926H   LINE      CODE     ---       #191
      01006926H   LINE      CODE     ---       #192
      ---         BLOCKEND  ---      ---       LVL=0

      01004F90H   BLOCK     CODE     ---       LVL=0
      01004F90H   BLOCK     CODE     NEAR LAB  LVL=1
      02000013H   SYMBOL    XDATA    BYTE      res
      ---         BLOCKEND  ---      ---       LVL=1
LX51 LINKER/LOCATER V4.66.87.0                                                        05/30/2018  19:50:23  PAGE 219


      01004F90H   LINE      CODE     ---       #194
      01004F90H   LINE      CODE     ---       #195
      01004F90H   LINE      CODE     ---       #198
      01004FA0H   LINE      CODE     ---       #200
      01004FBCH   LINE      CODE     ---       #202
      01004FC4H   LINE      CODE     ---       #203
      01004FD4H   LINE      CODE     ---       #204
      01004FE3H   LINE      CODE     ---       #205
      01004FE5H   LINE      CODE     ---       #206
      01005000H   LINE      CODE     ---       #207
      01005000H   LINE      CODE     ---       #209
      ---         BLOCKEND  ---      ---       LVL=0

      0100700CH   BLOCK     CODE     ---       LVL=0
      0100700CH   BLOCK     CODE     NEAR LAB  LVL=1
      00000004H   SYMBOL    DATA     BYTE      i
      ---         BLOCKEND  ---      ---       LVL=1
      0100700CH   LINE      CODE     ---       #211
      0100700CH   LINE      CODE     ---       #212
      0100700CH   LINE      CODE     ---       #214
      0100700FH   LINE      CODE     ---       #215
      01007011H   LINE      CODE     ---       #216
      0100701BH   LINE      CODE     ---       #217
      0100701FH   LINE      CODE     ---       #218
      01007025H   LINE      CODE     ---       #219
      0100702DH   LINE      CODE     ---       #220
      0100702FH   LINE      CODE     ---       #221
      01007036H   LINE      CODE     ---       #222
      01007036H   LINE      CODE     ---       #223
      0100703BH   LINE      CODE     ---       #224
      ---         BLOCKEND  ---      ---       LVL=0

      010088F8H   BLOCK     CODE     ---       LVL=0
      010088F8H   LINE      CODE     ---       #226
      010088F8H   LINE      CODE     ---       #227
      010088F8H   LINE      CODE     ---       #228
      01008905H   LINE      CODE     ---       #229
      ---         BLOCKEND  ---      ---       LVL=0

      01007C3FH   BLOCK     CODE     ---       LVL=0
      00000007H   SYMBOL    DATA     BYTE      from
      00000005H   SYMBOL    DATA     BYTE      to
      00000006H   SYMBOL    DATA     BYTE      ev
      01007C3FH   LINE      CODE     ---       #231
      01007C41H   LINE      CODE     ---       #232
      01007C41H   LINE      CODE     ---       #233
      01007C4DH   LINE      CODE     ---       #234
      01007C54H   LINE      CODE     ---       #235
      01007C59H   LINE      CODE     ---       #236
      01007C5BH   LINE      CODE     ---       #237
      ---         BLOCKEND  ---      ---       LVL=0

      01002B68H   BLOCK     CODE     ---       LVL=0
      00000007H   SYMBOL    DATA     BYTE      from
      00000005H   SYMBOL    DATA     BYTE      to
      02000011H   SYMBOL    XDATA    BYTE      ev
      01002B6DH   BLOCK     CODE     NEAR LAB  LVL=1
      02000012H   SYMBOL    XDATA    BYTE      err
      ---         BLOCKEND  ---      ---       LVL=1
      01002B68H   LINE      CODE     ---       #240
      01002B6DH   LINE      CODE     ---       #241
      01002B6DH   LINE      CODE     ---       #243
      01002B77H   LINE      CODE     ---       #245
      01002B7EH   LINE      CODE     ---       #246
      01002B81H   LINE      CODE     ---       #247
LX51 LINKER/LOCATER V4.66.87.0                                                        05/30/2018  19:50:23  PAGE 220


      01002B85H   LINE      CODE     ---       #248
      01002B87H   LINE      CODE     ---       #249
      01002B8CH   LINE      CODE     ---       #251
      01002B8CH   LINE      CODE     ---       #253
      01002B97H   LINE      CODE     ---       #254
      01002BA1H   LINE      CODE     ---       #255
      01002BAAH   LINE      CODE     ---       #256
      01002BB2H   LINE      CODE     ---       #257
      01002BB8H   LINE      CODE     ---       #258
      01002BB8H   LINE      CODE     ---       #259
      01002BB8H   LINE      CODE     ---       #260
      01002BBBH   LINE      CODE     ---       #262
      01002BBBH   LINE      CODE     ---       #263
      01002BC1H   LINE      CODE     ---       #264
      01002BC2H   LINE      CODE     ---       #265
      01002BC8H   LINE      CODE     ---       #266
      01002BC9H   LINE      CODE     ---       #268
      01002BC9H   LINE      CODE     ---       #270
      01002BF8H   LINE      CODE     ---       #272
      01002BF8H   LINE      CODE     ---       #273
      01002C18H   LINE      CODE     ---       #274
      01002C18H   LINE      CODE     ---       #275
      01002C20H   LINE      CODE     ---       #276
      01002C28H   LINE      CODE     ---       #277
      01002C30H   LINE      CODE     ---       #278
      01002C38H   LINE      CODE     ---       #279
      01002C40H   LINE      CODE     ---       #280
      01002C48H   LINE      CODE     ---       #281
      01002C50H   LINE      CODE     ---       #282
      01002C56H   LINE      CODE     ---       #283
      01002C56H   LINE      CODE     ---       #284
      01002C63H   LINE      CODE     ---       #285
      01002C65H   LINE      CODE     ---       #286
      01002C6AH   LINE      CODE     ---       #287
      01002C6DH   LINE      CODE     ---       #289
      01002C6DH   LINE      CODE     ---       #290
      ---         BLOCKEND  ---      ---       LVL=0

      01005CF0H   BLOCK     CODE     ---       LVL=0
      02000011H   SYMBOL    XDATA    BYTE      from
      00000005H   SYMBOL    DATA     BYTE      to
      02000012H   SYMBOL    XDATA    BYTE      ev
      01005CF0H   LINE      CODE     ---       #293
      01005CF8H   LINE      CODE     ---       #294
      01005CF8H   LINE      CODE     ---       #295
      01005D02H   LINE      CODE     ---       #297
      01005D0FH   LINE      CODE     ---       #298
      01005D14H   LINE      CODE     ---       #300
      01005D1EH   LINE      CODE     ---       #301
      01005D23H   LINE      CODE     ---       #302
      01005D23H   LINE      CODE     ---       #303
      01005D25H   LINE      CODE     ---       #305
      01005D25H   LINE      CODE     ---       #307
      01005D2CH   LINE      CODE     ---       #308
      01005D2FH   LINE      CODE     ---       #310
      01005D2FH   LINE      CODE     ---       #312
      01005D36H   LINE      CODE     ---       #313
      01005D39H   LINE      CODE     ---       #314
      01005D3CH   LINE      CODE     ---       #316
      01005D3CH   LINE      CODE     ---       #318
      01005D43H   LINE      CODE     ---       #319
      01005D46H   LINE      CODE     ---       #321
      01005D46H   LINE      CODE     ---       #322
      ---         BLOCKEND  ---      ---       LVL=0

LX51 LINKER/LOCATER V4.66.87.0                                                        05/30/2018  19:50:23  PAGE 221


      01003737H   BLOCK     CODE     ---       LVL=0
      02000011H   SYMBOL    XDATA    BYTE      from
      00000005H   SYMBOL    DATA     BYTE      to
      02000012H   SYMBOL    XDATA    BYTE      ev
      01003737H   LINE      CODE     ---       #325
      01003740H   LINE      CODE     ---       #326
      01003740H   LINE      CODE     ---       #327
      0100374CH   LINE      CODE     ---       #328
      01003757H   LINE      CODE     ---       #330
      01003761H   LINE      CODE     ---       #331
      01003767H   LINE      CODE     ---       #332
      0100376CH   LINE      CODE     ---       #333
      01003773H   LINE      CODE     ---       #334
      01003778H   LINE      CODE     ---       #335
      01003778H   LINE      CODE     ---       #336
      01003784H   LINE      CODE     ---       #338
      0100378DH   LINE      CODE     ---       #339
      01003790H   LINE      CODE     ---       #340
      01003795H   LINE      CODE     ---       #341
      0100379BH   LINE      CODE     ---       #342
      0100379EH   LINE      CODE     ---       #343
      0100379EH   LINE      CODE     ---       #347
      010037A1H   LINE      CODE     ---       #348
      010037ABH   LINE      CODE     ---       #349
      010037B4H   LINE      CODE     ---       #350
      010037B7H   LINE      CODE     ---       #351
      010037C2H   LINE      CODE     ---       #352
      010037CBH   LINE      CODE     ---       #353
      010037D1H   LINE      CODE     ---       #354
      010037D2H   LINE      CODE     ---       #355
      010037D9H   LINE      CODE     ---       #356
      010037E9H   LINE      CODE     ---       #357
      010037EFH   LINE      CODE     ---       #358
      010037EFH   LINE      CODE     ---       #359
      010037EFH   LINE      CODE     ---       #360
      010037F0H   LINE      CODE     ---       #362
      010037F0H   LINE      CODE     ---       #364
      010037F7H   LINE      CODE     ---       #365
      010037FAH   LINE      CODE     ---       #366
      010037FDH   LINE      CODE     ---       #368
      010037FDH   LINE      CODE     ---       #370
      010037FDH   LINE      CODE     ---       #373
      010037FDH   LINE      CODE     ---       #374
      ---         BLOCKEND  ---      ---       LVL=0

      010075CEH   BLOCK     CODE     ---       LVL=0
      00000007H   SYMBOL    DATA     BYTE      from
      00000005H   SYMBOL    DATA     BYTE      to
      02000011H   SYMBOL    XDATA    BYTE      ev
      010075CEH   LINE      CODE     ---       #377
      010075D4H   LINE      CODE     ---       #378
      010075D4H   LINE      CODE     ---       #379
      010075E0H   LINE      CODE     ---       #381
      010075E7H   LINE      CODE     ---       #382
      010075ECH   LINE      CODE     ---       #383
      010075EFH   LINE      CODE     ---       #384
      010075F4H   LINE      CODE     ---       #386
      010075F4H   LINE      CODE     ---       #388
      ---         BLOCKEND  ---      ---       LVL=0

      01007E54H   BLOCK     CODE     ---       LVL=0
      00000007H   SYMBOL    DATA     BYTE      from
      00000005H   SYMBOL    DATA     BYTE      to
      00000006H   SYMBOL    DATA     BYTE      ev
      01007E54H   LINE      CODE     ---       #391
LX51 LINKER/LOCATER V4.66.87.0                                                        05/30/2018  19:50:23  PAGE 222


      01007E56H   LINE      CODE     ---       #392
      01007E56H   LINE      CODE     ---       #393
      01007E62H   LINE      CODE     ---       #394
      01007E67H   LINE      CODE     ---       #395
      01007E6CH   LINE      CODE     ---       #396
      01007E6FH   LINE      CODE     ---       #397
      ---         BLOCKEND  ---      ---       LVL=0

      ---         MODULE    ---      ---       SM_FUSE_DETONATE
      0100D011H   PUBLIC    CONST    ---       sm_fuse_detonate_ss_name
      01005744H   PUBLIC    CODE     ---       _sm_fuse_detonate_submod0
      01008831H   PUBLIC    CODE     ---       _sm_fuse_detonate_init
      01008257H   SYMBOL    CODE     ---       display_detonate

      01008906H   BLOCK     CODE     ---       LVL=0
      ---         BLOCKEND  ---      ---       LVL=0

      01008257H   BLOCK     CODE     ---       LVL=0
      01008257H   BLOCK     CODE     NEAR LAB  LVL=1
      00000004H   SYMBOL    DATA     BYTE      i
      ---         BLOCKEND  ---      ---       LVL=1
      01008257H   LINE      CODE     ---       #17
      01008257H   LINE      CODE     ---       #18
      01008257H   LINE      CODE     ---       #20
      0100825AH   LINE      CODE     ---       #21
      0100825CH   LINE      CODE     ---       #22
      01008263H   LINE      CODE     ---       #23
      01008268H   LINE      CODE     ---       #24
      0100826DH   LINE      CODE     ---       #25
      ---         BLOCKEND  ---      ---       LVL=0

      01008831H   BLOCK     CODE     ---       LVL=0
      00000007H   SYMBOL    DATA     BYTE      from
      00000005H   SYMBOL    DATA     BYTE      to
      00000006H   SYMBOL    DATA     BYTE      ev
      01008831H   LINE      CODE     ---       #27
      01008833H   LINE      CODE     ---       #28
      01008833H   LINE      CODE     ---       #29
      0100883DH   LINE      CODE     ---       #30
      ---         BLOCKEND  ---      ---       LVL=0

      01005744H   BLOCK     CODE     ---       LVL=0
      00000007H   SYMBOL    DATA     BYTE      from
      00000005H   SYMBOL    DATA     BYTE      to
      02000011H   SYMBOL    XDATA    BYTE      ev
      01005744H   LINE      CODE     ---       #34
      0100574AH   LINE      CODE     ---       #35
      0100574AH   LINE      CODE     ---       #36
      01005754H   LINE      CODE     ---       #38
      0100575AH   LINE      CODE     ---       #39
      0100575FH   LINE      CODE     ---       #40
      01005765H   LINE      CODE     ---       #42
      01005765H   LINE      CODE     ---       #44
      01005778H   LINE      CODE     ---       #45
      01005782H   LINE      CODE     ---       #46
      01005787H   LINE      CODE     ---       #48
      0100578AH   LINE      CODE     ---       #49
      01005793H   LINE      CODE     ---       #50
      01005798H   LINE      CODE     ---       #51
      0100579DH   LINE      CODE     ---       #52
      010057A3H   LINE      CODE     ---       #53
      010057A3H   LINE      CODE     ---       #55
      010057A3H   LINE      CODE     ---       #56
      ---         BLOCKEND  ---      ---       LVL=0

LX51 LINKER/LOCATER V4.66.87.0                                                        05/30/2018  19:50:23  PAGE 223


      ---         MODULE    ---      ---       SM_FUSE_POWERSAVE
      0100CD5DH   PUBLIC    CONST    ---       sm_fuse_powersave_ss_name
      010084F9H   PUBLIC    CODE     ---       _sm_fuse_powersave_submod1
      01007B18H   PUBLIC    CODE     ---       _sm_fuse_powersave_submod0
      01008ACFH   PUBLIC    CODE     ---       _sm_fuse_powersave_init
      01008694H   SYMBOL    CODE     ---       roll_back

      0100876DH   BLOCK     CODE     ---       LVL=0
      ---         BLOCKEND  ---      ---       LVL=0

      01008694H   BLOCK     CODE     ---       LVL=0
      01008694H   LINE      CODE     ---       #18
      01008694H   LINE      CODE     ---       #19
      01008694H   LINE      CODE     ---       #20
      01008699H   LINE      CODE     ---       #21
      0100869EH   LINE      CODE     ---       #22
      010086A3H   LINE      CODE     ---       #23
      ---         BLOCKEND  ---      ---       LVL=0

      01008ACFH   BLOCK     CODE     ---       LVL=0
      00000007H   SYMBOL    DATA     BYTE      from
      00000005H   SYMBOL    DATA     BYTE      to
      00000006H   SYMBOL    DATA     BYTE      ev
      01008ACFH   LINE      CODE     ---       #26
      01008ACFH   LINE      CODE     ---       #27
      01008ACFH   LINE      CODE     ---       #28
      ---         BLOCKEND  ---      ---       LVL=0

      01007B18H   BLOCK     CODE     ---       LVL=0
      00000007H   SYMBOL    DATA     BYTE      from
      00000005H   SYMBOL    DATA     BYTE      to
      02000011H   SYMBOL    XDATA    BYTE      ev
      01007B18H   LINE      CODE     ---       #31
      01007B1EH   LINE      CODE     ---       #32
      01007B1EH   LINE      CODE     ---       #33
      01007B2AH   LINE      CODE     ---       #34
      01007B30H   LINE      CODE     ---       #36
      01007B33H   LINE      CODE     ---       #37
      01007B36H   LINE      CODE     ---       #39
      01007B36H   LINE      CODE     ---       #40
      ---         BLOCKEND  ---      ---       LVL=0

      010084F9H   BLOCK     CODE     ---       LVL=0
      00000007H   SYMBOL    DATA     BYTE      from
      00000005H   SYMBOL    DATA     BYTE      to
      00000006H   SYMBOL    DATA     BYTE      ev
      010084F9H   LINE      CODE     ---       #42
      010084F9H   LINE      CODE     ---       #43
      010084F9H   LINE      CODE     ---       #44
      01008503H   LINE      CODE     ---       #45
      01008506H   LINE      CODE     ---       #46
      0100850CH   LINE      CODE     ---       #47
      ---         BLOCKEND  ---      ---       LVL=0

      ---         MODULE    ---      ---       SM_GLOBAL_FLAG_MOD
      0100C62CH   PUBLIC    CONST    ---       sm_global_flag_mod_ss_name
      01007E8CH   PUBLIC    CODE     ---       _sm_global_flag_mod_submod3
      01007E70H   PUBLIC    CODE     ---       _sm_global_flag_mod_submod2
      01008097H   PUBLIC    CODE     ---       _sm_global_flag_mod_submod1
      0100807EH   PUBLIC    CODE     ---       _sm_global_flag_mod_submod0
      01008158H   PUBLIC    CODE     ---       _sm_global_flag_mod_init
      01005001H   SYMBOL    CODE     ---       _inc_write
      01002C6EH   SYMBOL    CODE     ---       _display_global_flag
      01007466H   SYMBOL    CODE     ---       _sm_global_flag_mod

LX51 LINKER/LOCATER V4.66.87.0                                                        05/30/2018  19:50:23  PAGE 224


      01008000H   BLOCK     CODE     ---       LVL=0
      ---         BLOCKEND  ---      ---       LVL=0

      01002C6EH   BLOCK     CODE     ---       LVL=0
      02000014H   SYMBOL    XDATA    BYTE      what
      01002C6EH   LINE      CODE     ---       #22
      01002C73H   LINE      CODE     ---       #23
      01002C73H   LINE      CODE     ---       #25
      01002C76H   LINE      CODE     ---       #27
      01002C87H   LINE      CODE     ---       #29
      01002C9FH   LINE      CODE     ---       #30
      01002C9FH   LINE      CODE     ---       #31
      01002CA1H   LINE      CODE     ---       #32
      01002CA4H   LINE      CODE     ---       #33
      01002CAAH   LINE      CODE     ---       #34
      01002CAAH   LINE      CODE     ---       #35
      01002CADH   LINE      CODE     ---       #36
      01002CADH   LINE      CODE     ---       #37
      01002CB0H   LINE      CODE     ---       #38
      01002CB6H   LINE      CODE     ---       #39
      01002CBCH   LINE      CODE     ---       #40
      01002CBCH   LINE      CODE     ---       #41
      01002CBFH   LINE      CODE     ---       #42
      01002CBFH   LINE      CODE     ---       #43
      01002CC6H   LINE      CODE     ---       #44
      01002CCDH   LINE      CODE     ---       #45
      01002CD4H   LINE      CODE     ---       #46
      01002CD9H   LINE      CODE     ---       #47
      01002CE0H   LINE      CODE     ---       #48
      01002CE7H   LINE      CODE     ---       #49
      01002CE8H   LINE      CODE     ---       #50
      01002CEAH   LINE      CODE     ---       #51
      01002CEAH   LINE      CODE     ---       #52
      01002CEDH   LINE      CODE     ---       #53
      01002CEDH   LINE      CODE     ---       #54
      01002CEDH   LINE      CODE     ---       #55
      01002CEFH   LINE      CODE     ---       #56
      01002CEFH   LINE      CODE     ---       #57
      01002CF6H   LINE      CODE     ---       #58
      01002CFDH   LINE      CODE     ---       #59
      01002D04H   LINE      CODE     ---       #60
      01002D0BH   LINE      CODE     ---       #61
      01002D11H   LINE      CODE     ---       #62
      01002D17H   LINE      CODE     ---       #63
      01002D19H   LINE      CODE     ---       #64
      01002D19H   LINE      CODE     ---       #65
      01002D1BH   LINE      CODE     ---       #66
      01002D1EH   LINE      CODE     ---       #67
      01002D25H   LINE      CODE     ---       #68
      01002D2DH   LINE      CODE     ---       #69
      01002D34H   LINE      CODE     ---       #70
      01002D36H   LINE      CODE     ---       #71
      01002D38H   LINE      CODE     ---       #72
      01002D3FH   LINE      CODE     ---       #73
      01002D45H   LINE      CODE     ---       #74
      01002D45H   LINE      CODE     ---       #75
      01002D45H   LINE      CODE     ---       #76
      01002D45H   LINE      CODE     ---       #77
      ---         BLOCKEND  ---      ---       LVL=0

      01005001H   BLOCK     CODE     ---       LVL=0
      00000007H   SYMBOL    DATA     BYTE      what
      01005001H   BLOCK     CODE     NEAR LAB  LVL=1
      00000020H.0 SYMBOL    BIT      BIT       is12
      ---         BLOCKEND  ---      ---       LVL=1
LX51 LINKER/LOCATER V4.66.87.0                                                        05/30/2018  19:50:23  PAGE 225


      01005001H   LINE      CODE     ---       #79
      01005001H   LINE      CODE     ---       #80
      01005001H   LINE      CODE     ---       #82
      01005010H   LINE      CODE     ---       #83
      01005010H   LINE      CODE     ---       #84
      01005013H   LINE      CODE     ---       #85
      0100501AH   LINE      CODE     ---       #86
      0100501CH   LINE      CODE     ---       #87
      0100501CH   LINE      CODE     ---       #88
      01005025H   LINE      CODE     ---       #89
      01005030H   LINE      CODE     ---       #90
      01005032H   LINE      CODE     ---       #91
      01005032H   LINE      CODE     ---       #92
      01005035H   LINE      CODE     ---       #93
      0100503CH   LINE      CODE     ---       #94
      0100503EH   LINE      CODE     ---       #95
      0100503EH   LINE      CODE     ---       #96
      01005048H   LINE      CODE     ---       #97
      01005050H   LINE      CODE     ---       #98
      01005055H   LINE      CODE     ---       #99
      0100505DH   LINE      CODE     ---       #100
      01005065H   LINE      CODE     ---       #101
      01005071H   LINE      CODE     ---       #102
      01005071H   LINE      CODE     ---       #103
      01005071H   LINE      CODE     ---       #104
      ---         BLOCKEND  ---      ---       LVL=0

      01008158H   BLOCK     CODE     ---       LVL=0
      00000007H   SYMBOL    DATA     BYTE      from
      00000005H   SYMBOL    DATA     BYTE      to
      00000006H   SYMBOL    DATA     BYTE      ev
      01008158H   LINE      CODE     ---       #106
      0100815AH   LINE      CODE     ---       #107
      0100815AH   LINE      CODE     ---       #108
      01008166H   LINE      CODE     ---       #109
      01008169H   LINE      CODE     ---       #110
      ---         BLOCKEND  ---      ---       LVL=0

      01007466H   BLOCK     CODE     ---       LVL=0
      02000012H   SYMBOL    XDATA    BYTE      what
      02000013H   SYMBOL    XDATA    BYTE      ev
      01007466H   LINE      CODE     ---       #113
      0100746EH   LINE      CODE     ---       #114
      0100746EH   LINE      CODE     ---       #115
      01007476H   LINE      CODE     ---       #116
      01007478H   LINE      CODE     ---       #118
      01007478H   LINE      CODE     ---       #120
      0100747FH   LINE      CODE     ---       #121
      01007487H   LINE      CODE     ---       #122
      0100748FH   LINE      CODE     ---       #124
      0100748FH   LINE      CODE     ---       #125
      ---         BLOCKEND  ---      ---       LVL=0

      0100807EH   BLOCK     CODE     ---       LVL=0
      00000007H   SYMBOL    DATA     BYTE      from
      00000005H   SYMBOL    DATA     BYTE      to
      02000011H   SYMBOL    XDATA    BYTE      ev
      0100807EH   LINE      CODE     ---       #127
      01008083H   LINE      CODE     ---       #128
      01008083H   LINE      CODE     ---       #129
      0100808DH   LINE      CODE     ---       #130
      ---         BLOCKEND  ---      ---       LVL=0

      01008097H   BLOCK     CODE     ---       LVL=0
      00000007H   SYMBOL    DATA     BYTE      from
LX51 LINKER/LOCATER V4.66.87.0                                                        05/30/2018  19:50:23  PAGE 226


      00000005H   SYMBOL    DATA     BYTE      to
      02000011H   SYMBOL    XDATA    BYTE      ev
      01008097H   LINE      CODE     ---       #133
      0100809CH   LINE      CODE     ---       #134
      0100809CH   LINE      CODE     ---       #135
      010080A6H   LINE      CODE     ---       #136
      ---         BLOCKEND  ---      ---       LVL=0

      01007E70H   BLOCK     CODE     ---       LVL=0
      00000007H   SYMBOL    DATA     BYTE      from
      00000005H   SYMBOL    DATA     BYTE      to
      02000011H   SYMBOL    XDATA    BYTE      ev
      01007E70H   LINE      CODE     ---       #139
      01007E76H   LINE      CODE     ---       #140
      01007E76H   LINE      CODE     ---       #141
      01007E82H   LINE      CODE     ---       #142
      ---         BLOCKEND  ---      ---       LVL=0

      01007E8CH   BLOCK     CODE     ---       LVL=0
      00000007H   SYMBOL    DATA     BYTE      from
      00000005H   SYMBOL    DATA     BYTE      to
      02000011H   SYMBOL    XDATA    BYTE      ev
      01007E8CH   LINE      CODE     ---       #145
      01007E92H   LINE      CODE     ---       #146
      01007E92H   LINE      CODE     ---       #147
      01007E9EH   LINE      CODE     ---       #148
      ---         BLOCKEND  ---      ---       LVL=0

      ---         MODULE    ---      ---       CMD_HELP
      01005E47H   PUBLIC    CODE     ---       _cmd_help

      0100850DH   BLOCK     CODE     ---       LVL=0
      ---         BLOCKEND  ---      ---       LVL=0

      01005E47H   BLOCK     CODE     ---       LVL=0
      02000008H   SYMBOL    XDATA    CHAR      arg1
      02000009H   SYMBOL    XDATA    CHAR      arg2
      01005E4CH   BLOCK     CODE     NEAR LAB  LVL=1
      00000007H   SYMBOL    DATA     CHAR      i
      ---         BLOCKEND  ---      ---       LVL=1
      01005E47H   LINE      CODE     ---       #6
      01005E4CH   LINE      CODE     ---       #7
      01005E4CH   LINE      CODE     ---       #10
      01005E4CH   LINE      CODE     ---       #12
      01005E4EH   LINE      CODE     ---       #13
      01005E51H   LINE      CODE     ---       #14
      01005E53H   LINE      CODE     ---       #15
      01005E59H   LINE      CODE     ---       #16
      01005E5DH   LINE      CODE     ---       #17
      01005E84H   LINE      CODE     ---       #18
      01005E86H   LINE      CODE     ---       #19
      01005E98H   LINE      CODE     ---       #20
      01005E98H   LINE      CODE     ---       #21
      01005E98H   LINE      CODE     ---       #22
      01005E9AH   LINE      CODE     ---       #23
      ---         BLOCKEND  ---      ---       LVL=0

      ---         MODULE    ---      ---       CMD_SERIAL
      01003E8AH   PUBLIC    CODE     ---       _cmd_serial

      01008A42H   BLOCK     CODE     ---       LVL=0
      ---         BLOCKEND  ---      ---       LVL=0

      01003E8AH   BLOCK     CODE     ---       LVL=0
      02000008H   SYMBOL    XDATA    CHAR      arg1
LX51 LINKER/LOCATER V4.66.87.0                                                        05/30/2018  19:50:23  PAGE 227


      02000009H   SYMBOL    XDATA    CHAR      arg2
      01003E94H   BLOCK     CODE     NEAR LAB  LVL=1
      0200000AH   SYMBOL    XDATA    CHAR      index
      0200000BH   SYMBOL    XDATA    CHAR      val
      ---         BLOCKEND  ---      ---       LVL=1
      01003E8AH   LINE      CODE     ---       #8
      01003E94H   LINE      CODE     ---       #9
      01003E94H   LINE      CODE     ---       #12
      01003E96H   LINE      CODE     ---       #13
      01003E99H   LINE      CODE     ---       #14
      01003E9BH   LINE      CODE     ---       #15
      01003EA6H   LINE      CODE     ---       #16
      01003EACH   LINE      CODE     ---       #17
      01003EC7H   LINE      CODE     ---       #18
      01003EC9H   LINE      CODE     ---       #19
      01003EDCH   LINE      CODE     ---       #20
      01003F08H   LINE      CODE     ---       #21
      01003F16H   LINE      CODE     ---       #22
      01003F19H   LINE      CODE     ---       #23
      01003F19H   LINE      CODE     ---       #24
      01003F19H   LINE      CODE     ---       #25
      01003F1BH   LINE      CODE     ---       #26
      ---         BLOCKEND  ---      ---       LVL=0

      ---         MODULE    ---      ---       CMD_INT
      01006B32H   PUBLIC    CODE     ---       _cmd_int

      01006B32H   BLOCK     CODE     ---       LVL=0
      02000008H   SYMBOL    XDATA    CHAR      arg1
      02000009H   SYMBOL    XDATA    CHAR      arg2
      01006B37H   BLOCK     CODE     NEAR LAB  LVL=1
      00000006H   SYMBOL    DATA     WORD      status
      ---         BLOCKEND  ---      ---       LVL=1
      01006B32H   LINE      CODE     ---       #7
      01006B37H   LINE      CODE     ---       #8
      01006B37H   LINE      CODE     ---       #11
      01006B37H   LINE      CODE     ---       #13
      01006B39H   LINE      CODE     ---       #14
      01006B3CH   LINE      CODE     ---       #15
      01006B5DH   LINE      CODE     ---       #16
      01006B60H   LINE      CODE     ---       #17
      01006B63H   LINE      CODE     ---       #18
      01006B65H   LINE      CODE     ---       #19
      01006B68H   LINE      CODE     ---       #20
      01006B68H   LINE      CODE     ---       #22
      01006B6AH   LINE      CODE     ---       #23
      ---         BLOCKEND  ---      ---       LVL=0

      ---         MODULE    ---      ---       CMD_I2C
      01006E22H   PUBLIC    CODE     ---       _cmd_i2c
      010038C3H   SYMBOL    CODE     ---       _i2c_write
      020000E9H   SYMBOL    XDATA    BYTE      write_addr
      01004751H   SYMBOL    CODE     ---       _i2c_read

      010079D9H   BLOCK     CODE     ---       LVL=0
      ---         BLOCKEND  ---      ---       LVL=0

      01004751H   BLOCK     CODE     ---       LVL=0
      00000007H   SYMBOL    DATA     CHAR      arg1
      0200000AH   SYMBOL    XDATA    CHAR      arg2
      01004756H   BLOCK     CODE     NEAR LAB  LVL=1
      0200000BH   SYMBOL    XDATA    BYTE      addr
      0200000CH   SYMBOL    XDATA    BYTE      cmd
      0200000DH   SYMBOL    XDATA    BYTE      val
      00000020H.0 SYMBOL    BIT      BIT       ret
LX51 LINKER/LOCATER V4.66.87.0                                                        05/30/2018  19:50:23  PAGE 228


      ---         BLOCKEND  ---      ---       LVL=1
      01004751H   LINE      CODE     ---       #10
      01004756H   LINE      CODE     ---       #11
      01004756H   LINE      CODE     ---       #15
      0100475CH   LINE      CODE     ---       #16
      0100475FH   LINE      CODE     ---       #18
      0100476BH   LINE      CODE     ---       #19
      01004779H   LINE      CODE     ---       #21
      01004788H   LINE      CODE     ---       #22
      0100478BH   LINE      CODE     ---       #24
      0100478EH   LINE      CODE     ---       #25
      010047A1H   LINE      CODE     ---       #27
      010047D7H   LINE      CODE     ---       #29
      010047D9H   LINE      CODE     ---       #30
      ---         BLOCKEND  ---      ---       LVL=0

      010038C3H   BLOCK     CODE     ---       LVL=0
      0200000AH   SYMBOL    XDATA    CHAR      arg1
      0200000BH   SYMBOL    XDATA    CHAR      arg2
      010038CDH   BLOCK     CODE     NEAR LAB  LVL=1
      0200000CH   SYMBOL    XDATA    BYTE      addr
      0200000DH   SYMBOL    XDATA    BYTE      cmd
      0200000EH   SYMBOL    XDATA    BYTE      val
      00000020H.0 SYMBOL    BIT      BIT       ret
      ---         BLOCKEND  ---      ---       LVL=1
      010038C3H   LINE      CODE     ---       #32
      010038CDH   LINE      CODE     ---       #33
      010038CDH   LINE      CODE     ---       #37
      010038CFH   LINE      CODE     ---       #38
      010038D2H   LINE      CODE     ---       #41
      010038D8H   LINE      CODE     ---       #42
      010038E3H   LINE      CODE     ---       #43
      010038E8H   LINE      CODE     ---       #44
      010038EBH   LINE      CODE     ---       #45
      010038EBH   LINE      CODE     ---       #46
      01003904H   LINE      CODE     ---       #47
      0100390CH   LINE      CODE     ---       #48
      0100390FH   LINE      CODE     ---       #49
      0100390FH   LINE      CODE     ---       #50
      0100390FH   LINE      CODE     ---       #53
      0100391AH   LINE      CODE     ---       #54
      01003928H   LINE      CODE     ---       #56
      01003937H   LINE      CODE     ---       #57
      0100393AH   LINE      CODE     ---       #59
      0100393DH   LINE      CODE     ---       #60
      0100394FH   LINE      CODE     ---       #61
      01003985H   LINE      CODE     ---       #63
      01003987H   LINE      CODE     ---       #64
      ---         BLOCKEND  ---      ---       LVL=0

      01006E22H   BLOCK     CODE     ---       LVL=0
      02000008H   SYMBOL    XDATA    CHAR      arg1
      02000009H   SYMBOL    XDATA    CHAR      arg2
      01006E22H   LINE      CODE     ---       #66
      01006E2AH   LINE      CODE     ---       #67
      01006E2AH   LINE      CODE     ---       #68
      01006E33H   LINE      CODE     ---       #69
      01006E3EH   LINE      CODE     ---       #70
      01006E47H   LINE      CODE     ---       #71
      01006E52H   LINE      CODE     ---       #72
      01006E52H   LINE      CODE     ---       #73
      01006E54H   LINE      CODE     ---       #74
      ---         BLOCKEND  ---      ---       LVL=0

      ---         MODULE    ---      ---       CMD_DBG
LX51 LINKER/LOCATER V4.66.87.0                                                        05/30/2018  19:50:23  PAGE 229


      01006454H   PUBLIC    CODE     ---       _cmd_dbg

      01008170H   BLOCK     CODE     ---       LVL=0
      ---         BLOCKEND  ---      ---       LVL=0

      01006454H   BLOCK     CODE     ---       LVL=0
      02000008H   SYMBOL    XDATA    CHAR      arg1
      02000009H   SYMBOL    XDATA    CHAR      arg2
      01006454H   LINE      CODE     ---       #8
      01006459H   LINE      CODE     ---       #9
      01006459H   LINE      CODE     ---       #11
      01006459H   LINE      CODE     ---       #13
      0100645BH   LINE      CODE     ---       #14
      0100645EH   LINE      CODE     ---       #16
      0100646BH   LINE      CODE     ---       #17
      01006474H   LINE      CODE     ---       #18
      01006476H   LINE      CODE     ---       #19
      01006485H   LINE      CODE     ---       #20
      0100648EH   LINE      CODE     ---       #21
      01006493H   LINE      CODE     ---       #22
      01006495H   LINE      CODE     ---       #23
      01006498H   LINE      CODE     ---       #24
      01006498H   LINE      CODE     ---       #26
      0100649AH   LINE      CODE     ---       #27
      ---         BLOCKEND  ---      ---       LVL=0

      ---         MODULE    ---      ---       CMD_REBOOT
      01006569H   PUBLIC    CODE     ---       _cmd_reboot
      00000080H   SFRSYM    DATA     BYTE      P0
      00000090H   SFRSYM    DATA     BYTE      P1
      000000A0H   SFRSYM    DATA     BYTE      P2
      000000B0H   SFRSYM    DATA     BYTE      P3
      000000C0H   SFRSYM    DATA     BYTE      XICON
      000000B0H.4 SFRSYM    DATA     BIT       T0
      000000D0H.6 SFRSYM    DATA     BIT       AC
      000000E8H   SFRSYM    DATA     BYTE      P4
      000000B0H.5 SFRSYM    DATA     BIT       T1
      000000E6H   SFRSYM    DATA     BYTE      ISP_TRIG
      00000090H.0 SFRSYM    DATA     BIT       T2
      000000A8H.7 SFRSYM    DATA     BIT       EA
      000000A8H.6 SFRSYM    DATA     BIT       EC
      00000098H.7 SFRSYM    DATA     BIT       FE
      000000A8H   SFRSYM    DATA     BYTE      IE
      000000C8H.6 SFRSYM    DATA     BIT       EXF2
      000000B0H.7 SFRSYM    DATA     BIT       RD
      000000A8H.4 SFRSYM    DATA     BIT       ES
      000000B8H   SFRSYM    DATA     BYTE      IP
      00000098H.0 SFRSYM    DATA     BIT       RI
      000000B0H.2 SFRSYM    DATA     BIT       INT0
      000000D0H.7 SFRSYM    DATA     BIT       CY
      00000098H.1 SFRSYM    DATA     BIT       TI
      000000B0H.3 SFRSYM    DATA     BIT       INT1
      000000CBH   SFRSYM    DATA     BYTE      RCAP2H
      000000E5H   SFRSYM    DATA     BYTE      ISP_CMD
      000000B8H.4 SFRSYM    DATA     BIT       PS
      00000081H   SFRSYM    DATA     BYTE      SP
      00000090H.1 SFRSYM    DATA     BIT       T2EX
      000000D0H.2 SFRSYM    DATA     BIT       OV
      000000CAH   SFRSYM    DATA     BYTE      RCAP2L
      000000C8H.1 SFRSYM    DATA     BIT       C_T2
      000000B0H.6 SFRSYM    DATA     BIT       WR
      000000C8H.5 SFRSYM    DATA     BIT       RCLK
      000000C8H.4 SFRSYM    DATA     BIT       TCLK
      00000080H.0 SFRSYM    DATA     BIT       P00
      00000099H   SFRSYM    DATA     BYTE      SBUF
LX51 LINKER/LOCATER V4.66.87.0                                                        05/30/2018  19:50:23  PAGE 230


      00000087H   SFRSYM    DATA     BYTE      PCON
      00000090H.0 SFRSYM    DATA     BIT       P10
      00000080H.1 SFRSYM    DATA     BIT       P01
      000000A0H.0 SFRSYM    DATA     BIT       P20
      00000090H.1 SFRSYM    DATA     BIT       P11
      00000080H.2 SFRSYM    DATA     BIT       P02
      000000E3H   SFRSYM    DATA     BYTE      ISP_ADDRH
      000000B0H.0 SFRSYM    DATA     BIT       P30
      000000A0H.1 SFRSYM    DATA     BIT       P21
      00000090H.2 SFRSYM    DATA     BIT       P12
      00000080H.3 SFRSYM    DATA     BIT       P03
      00000098H   SFRSYM    DATA     BYTE      SCON
      000000B0H.1 SFRSYM    DATA     BIT       P31
      000000A0H.2 SFRSYM    DATA     BIT       P22
      00000090H.3 SFRSYM    DATA     BIT       P13
      00000080H.4 SFRSYM    DATA     BIT       P04
      000000E8H.0 SFRSYM    DATA     BIT       P40
      00000089H   SFRSYM    DATA     BYTE      TMOD
      00000088H   SFRSYM    DATA     BYTE      TCON
      000000B0H.2 SFRSYM    DATA     BIT       P32
      000000A0H.3 SFRSYM    DATA     BIT       P23
      00000090H.4 SFRSYM    DATA     BIT       P14
      00000080H.5 SFRSYM    DATA     BIT       P05
      000000E8H.1 SFRSYM    DATA     BIT       P41
      000000B0H.3 SFRSYM    DATA     BIT       P33
      000000A0H.4 SFRSYM    DATA     BIT       P24
      00000090H.5 SFRSYM    DATA     BIT       P15
      00000080H.6 SFRSYM    DATA     BIT       P06
      000000E4H   SFRSYM    DATA     BYTE      ISP_ADDRL
      000000E8H.2 SFRSYM    DATA     BIT       P42
      000000B0H.4 SFRSYM    DATA     BIT       P34
      000000A0H.5 SFRSYM    DATA     BIT       P25
      00000090H.6 SFRSYM    DATA     BIT       P16
      00000080H.7 SFRSYM    DATA     BIT       P07
      000000E8H.3 SFRSYM    DATA     BIT       P43
      000000B0H.5 SFRSYM    DATA     BIT       P35
      000000A0H.6 SFRSYM    DATA     BIT       P26
      00000090H.7 SFRSYM    DATA     BIT       P17
      000000E8H.4 SFRSYM    DATA     BIT       P44
      000000B0H.6 SFRSYM    DATA     BIT       P36
      000000A0H.7 SFRSYM    DATA     BIT       P27
      000000E8H.5 SFRSYM    DATA     BIT       P45
      000000B0H.7 SFRSYM    DATA     BIT       P37
      000000E8H.6 SFRSYM    DATA     BIT       P46
      00000088H.1 SFRSYM    DATA     BIT       IE0
      00000088H.3 SFRSYM    DATA     BIT       IE1
      0000008EH   SFRSYM    DATA     BYTE      AUXR
      000000F0H   SFRSYM    DATA     BYTE      B
      000000C8H.0 SFRSYM    DATA     BIT       CP_RL2
      000000E0H   SFRSYM    DATA     BYTE      ACC
      000000A8H.1 SFRSYM    DATA     BIT       ET0
      000000A8H.3 SFRSYM    DATA     BIT       ET1
      00000088H.5 SFRSYM    DATA     BIT       TF0
      000000A8H.5 SFRSYM    DATA     BIT       ET2
      00000088H.7 SFRSYM    DATA     BIT       TF1
      000000C8H.7 SFRSYM    DATA     BIT       TF2
      00000098H.2 SFRSYM    DATA     BIT       RB8
      0000008CH   SFRSYM    DATA     BYTE      TH0
      000000A8H.0 SFRSYM    DATA     BIT       EX0
      00000088H.0 SFRSYM    DATA     BIT       IT0
      0000008DH   SFRSYM    DATA     BYTE      TH1
      00000098H.3 SFRSYM    DATA     BIT       TB8
      000000A8H.2 SFRSYM    DATA     BIT       EX1
      00000088H.2 SFRSYM    DATA     BIT       IT1
      000000CDH   SFRSYM    DATA     BYTE      TH2
LX51 LINKER/LOCATER V4.66.87.0                                                        05/30/2018  19:50:23  PAGE 231


      000000D0H.0 SFRSYM    DATA     BIT       P
      00000098H.7 SFRSYM    DATA     BIT       SM0
      0000008AH   SFRSYM    DATA     BYTE      TL0
      00000098H.6 SFRSYM    DATA     BIT       SM1
      0000008BH   SFRSYM    DATA     BYTE      TL1
      00000098H.5 SFRSYM    DATA     BIT       SM2
      000000CCH   SFRSYM    DATA     BYTE      TL2
      000000B8H.1 SFRSYM    DATA     BIT       PT0
      000000B8H.3 SFRSYM    DATA     BIT       PT1
      000000D0H.3 SFRSYM    DATA     BIT       RS0
      000000E7H   SFRSYM    DATA     BYTE      ISP_CONTR
      000000B8H.5 SFRSYM    DATA     BIT       PT2
      00000088H.4 SFRSYM    DATA     BIT       TR0
      000000D0H.4 SFRSYM    DATA     BIT       RS1
      00000088H.6 SFRSYM    DATA     BIT       TR1
      000000C8H.2 SFRSYM    DATA     BIT       TR2
      000000B8H.0 SFRSYM    DATA     BIT       PX0
      000000E1H   SFRSYM    DATA     BYTE      WDT_CONTR
      000000B8H.2 SFRSYM    DATA     BIT       PX1
      00000083H   SFRSYM    DATA     BYTE      DPH
      00000082H   SFRSYM    DATA     BYTE      DPL
      000000B7H   SFRSYM    DATA     BYTE      IPH
      000000C8H.3 SFRSYM    DATA     BIT       EXEN2
      00000098H.4 SFRSYM    DATA     BIT       REN
      000000C9H   SFRSYM    DATA     BYTE      T2MOD
      000000C8H   SFRSYM    DATA     BYTE      T2CON
      000000E2H   SFRSYM    DATA     BYTE      ISP_DATA
      000000B9H   SFRSYM    DATA     BYTE      SADEN
      000000B0H.0 SFRSYM    DATA     BIT       RXD
      000000A9H   SFRSYM    DATA     BYTE      SADDR
      000000B0H.1 SFRSYM    DATA     BIT       TXD
      000000A2H   SFRSYM    DATA     BYTE      AUXR1
      000000D0H.5 SFRSYM    DATA     BIT       F0
      000000D0H   SFRSYM    DATA     BYTE      PSW

      01006569H   BLOCK     CODE     ---       LVL=0
      02000008H   SYMBOL    XDATA    CHAR      arg1
      02000009H   SYMBOL    XDATA    CHAR      arg2
      0100656EH   BLOCK     CODE     NEAR LAB  LVL=1
      00000006H   SYMBOL    DATA     ---       fuck
      ---         BLOCKEND  ---      ---       LVL=1
      01006569H   LINE      CODE     ---       #9
      0100656EH   LINE      CODE     ---       #10
      0100656EH   LINE      CODE     ---       #13
      0100656EH   LINE      CODE     ---       #15
      01006570H   LINE      CODE     ---       #17
      01006572H   LINE      CODE     ---       #18
      0100657AH   LINE      CODE     ---       #23
      0100657DH   LINE      CODE     ---       #24
      0100659EH   LINE      CODE     ---       #26
      010065A7H   LINE      CODE     ---       #27
      010065AAH   LINE      CODE     ---       #32
      010065AAH   LINE      CODE     ---       #33
      010065ACH   LINE      CODE     ---       #34
      ---         BLOCKEND  ---      ---       LVL=0

      ---         MODULE    ---      ---       CMD_TASK
      01003B06H   PUBLIC    CODE     ---       _cmd_task

      01008840H   BLOCK     CODE     ---       LVL=0
      ---         BLOCKEND  ---      ---       LVL=0

      01003B06H   BLOCK     CODE     ---       LVL=0
      02000008H   SYMBOL    XDATA    CHAR      arg1
      02000009H   SYMBOL    XDATA    CHAR      arg2
LX51 LINKER/LOCATER V4.66.87.0                                                        05/30/2018  19:50:23  PAGE 232


      01003B10H   BLOCK     CODE     NEAR LAB  LVL=1
      0200000AH   SYMBOL    XDATA    BYTE      tsk
      00000007H   SYMBOL    DATA     BYTE      val
      ---         BLOCKEND  ---      ---       LVL=1
      01003B06H   LINE      CODE     ---       #6
      01003B10H   LINE      CODE     ---       #7
      01003B10H   LINE      CODE     ---       #11
      01003B12H   LINE      CODE     ---       #12
      01003B15H   LINE      CODE     ---       #13
      01003B18H   LINE      CODE     ---       #14
      01003B21H   LINE      CODE     ---       #15
      01003B29H   LINE      CODE     ---       #16
      01003B2CH   LINE      CODE     ---       #18
      01003B36H   LINE      CODE     ---       #19
      01003B39H   LINE      CODE     ---       #21
      01003B3CH   LINE      CODE     ---       #22
      01003B6DH   LINE      CODE     ---       #23
      01003B6FH   LINE      CODE     ---       #24
      01003BA5H   LINE      CODE     ---       #25
      01003BA5H   LINE      CODE     ---       #26
      01003BA8H   LINE      CODE     ---       #27
      01003BA8H   LINE      CODE     ---       #29
      01003BAAH   LINE      CODE     ---       #30
      ---         BLOCKEND  ---      ---       LVL=0

      ---         MODULE    ---      ---       CMD_SM
      01002732H   PUBLIC    CODE     ---       _cmd_sm

      01006963H   BLOCK     CODE     ---       LVL=0
      ---         BLOCKEND  ---      ---       LVL=0

      01002732H   BLOCK     CODE     ---       LVL=0
      02000008H   SYMBOL    XDATA    CHAR      arg1
      02000009H   SYMBOL    XDATA    CHAR      arg2
      01002732H   LINE      CODE     ---       #8
      0100273CH   LINE      CODE     ---       #9
      0100273CH   LINE      CODE     ---       #10
      0100273EH   LINE      CODE     ---       #11
      01002741H   LINE      CODE     ---       #12
      01002744H   LINE      CODE     ---       #13
      01002752H   LINE      CODE     ---       #14
      01002755H   LINE      CODE     ---       #15
      0100276CH   LINE      CODE     ---       #16
      0100276FH   LINE      CODE     ---       #17
      01002787H   LINE      CODE     ---       #18
      01002795H   LINE      CODE     ---       #19
      010027A2H   LINE      CODE     ---       #20
      010027A2H   LINE      CODE     ---       #21
      010027B9H   LINE      CODE     ---       #22
      010027BCH   LINE      CODE     ---       #23
      010027D4H   LINE      CODE     ---       #24
      010027DFH   LINE      CODE     ---       #25
      010027ECH   LINE      CODE     ---       #26
      010027ECH   LINE      CODE     ---       #27
      01002802H   LINE      CODE     ---       #28
      01002805H   LINE      CODE     ---       #29
      01002822H   LINE      CODE     ---       #30
      0100282DH   LINE      CODE     ---       #31
      0100283DH   LINE      CODE     ---       #32
      0100283DH   LINE      CODE     ---       #33
      0100283FH   LINE      CODE     ---       #34
      01002842H   LINE      CODE     ---       #35
      01002842H   LINE      CODE     ---       #36
      01002842H   LINE      CODE     ---       #37
      01002844H   LINE      CODE     ---       #38
LX51 LINKER/LOCATER V4.66.87.0                                                        05/30/2018  19:50:23  PAGE 233


      ---         BLOCKEND  ---      ---       LVL=0

      ---         MODULE    ---      ---       CMD_BEEPER
      01003142H   PUBLIC    CODE     ---       _cmd_beeper

      0100768DH   BLOCK     CODE     ---       LVL=0
      ---         BLOCKEND  ---      ---       LVL=0

      01003142H   BLOCK     CODE     ---       LVL=0
      02000008H   SYMBOL    XDATA    CHAR      arg1
      02000009H   SYMBOL    XDATA    CHAR      arg2
      0100314CH   BLOCK     CODE     NEAR LAB  LVL=1
      0200000AH   SYMBOL    XDATA    CHAR      index
      ---         BLOCKEND  ---      ---       LVL=1
      01003142H   LINE      CODE     ---       #8
      0100314CH   LINE      CODE     ---       #9
      0100314CH   LINE      CODE     ---       #11
      01003163H   LINE      CODE     ---       #12
      01003166H   LINE      CODE     ---       #13
      0100317DH   LINE      CODE     ---       #14
      01003180H   LINE      CODE     ---       #15
      01003197H   LINE      CODE     ---       #16
      0100319CH   LINE      CODE     ---       #17
      010031A2H   LINE      CODE     ---       #18
      010031BBH   LINE      CODE     ---       #19
      010031C0H   LINE      CODE     ---       #20
      010031C6H   LINE      CODE     ---       #21
      010031DFH   LINE      CODE     ---       #22
      010031E7H   LINE      CODE     ---       #23
      010031EAH   LINE      CODE     ---       #24
      01003203H   LINE      CODE     ---       #25
      0100321CH   LINE      CODE     ---       #26
      01003225H   LINE      CODE     ---       #27
      01003228H   LINE      CODE     ---       #28
      0100322AH   LINE      CODE     ---       #29
      0100322DH   LINE      CODE     ---       #30
      0100322DH   LINE      CODE     ---       #31
      0100322FH   LINE      CODE     ---       #32
      ---         BLOCKEND  ---      ---       LVL=0

      ---         MODULE    ---      ---       CMD_THERMO
      010025E6H   PUBLIC    CODE     ---       _cmd_thermo

      01007ABAH   BLOCK     CODE     ---       LVL=0
      ---         BLOCKEND  ---      ---       LVL=0

      010025E6H   BLOCK     CODE     ---       LVL=0
      02000008H   SYMBOL    XDATA    CHAR      arg1
      02000009H   SYMBOL    XDATA    CHAR      arg2
      010025F0H   BLOCK     CODE     NEAR LAB  LVL=1
      0200000AH   SYMBOL    XDATA    CHAR      val
      ---         BLOCKEND  ---      ---       LVL=1
      010025E6H   LINE      CODE     ---       #8
      010025F0H   LINE      CODE     ---       #9
      010025F0H   LINE      CODE     ---       #11
      010025F2H   LINE      CODE     ---       #12
      010025F5H   LINE      CODE     ---       #13
      010025FCH   LINE      CODE     ---       #14
      01002604H   LINE      CODE     ---       #15
      01002611H   LINE      CODE     ---       #16
      01002613H   LINE      CODE     ---       #17
      01002622H   LINE      CODE     ---       #18
      01002627H   LINE      CODE     ---       #19
      01002637H   LINE      CODE     ---       #20
      0100263AH   LINE      CODE     ---       #21
LX51 LINKER/LOCATER V4.66.87.0                                                        05/30/2018  19:50:23  PAGE 234


      01002641H   LINE      CODE     ---       #22
      01002650H   LINE      CODE     ---       #23
      01002653H   LINE      CODE     ---       #24
      01002661H   LINE      CODE     ---       #25
      01002664H   LINE      CODE     ---       #26
      01002667H   LINE      CODE     ---       #27
      01002667H   LINE      CODE     ---       #28
      01002667H   LINE      CODE     ---       #29
      01002674H   LINE      CODE     ---       #30
      01002684H   LINE      CODE     ---       #31
      01002687H   LINE      CODE     ---       #32
      0100269AH   LINE      CODE     ---       #33
      0100269DH   LINE      CODE     ---       #34
      010026AFH   LINE      CODE     ---       #35
      010026B2H   LINE      CODE     ---       #36
      010026B4H   LINE      CODE     ---       #37
      010026B7H   LINE      CODE     ---       #38
      010026BAH   LINE      CODE     ---       #39
      010026BAH   LINE      CODE     ---       #40
      010026C9H   LINE      CODE     ---       #41
      010026D9H   LINE      CODE     ---       #42
      010026DCH   LINE      CODE     ---       #43
      010026EEH   LINE      CODE     ---       #44
      010026F1H   LINE      CODE     ---       #45
      01002703H   LINE      CODE     ---       #46
      01002706H   LINE      CODE     ---       #47
      01002708H   LINE      CODE     ---       #48
      0100270BH   LINE      CODE     ---       #49
      0100270EH   LINE      CODE     ---       #50
      0100270EH   LINE      CODE     ---       #51
      01002710H   LINE      CODE     ---       #52
      01002713H   LINE      CODE     ---       #53
      01002713H   LINE      CODE     ---       #54
      01002713H   LINE      CODE     ---       #55
      01002715H   LINE      CODE     ---       #56
      ---         BLOCKEND  ---      ---       LVL=0

      ---         MODULE    ---      ---       CMD_MPU
      01004DBDH   PUBLIC    CODE     ---       _cmd_mpu

      01008360H   BLOCK     CODE     ---       LVL=0
      ---         BLOCKEND  ---      ---       LVL=0

      01004DBDH   BLOCK     CODE     ---       LVL=0
      02000008H   SYMBOL    XDATA    CHAR      arg1
      02000009H   SYMBOL    XDATA    CHAR      arg2
      01004DBDH   LINE      CODE     ---       #10
      01004DC7H   LINE      CODE     ---       #11
      01004DC7H   LINE      CODE     ---       #12
      01004DE9H   LINE      CODE     ---       #13
      01004DEBH   LINE      CODE     ---       #14
      01004E01H   LINE      CODE     ---       #15
      01004E06H   LINE      CODE     ---       #16
      01004E1CH   LINE      CODE     ---       #17
      01004E2DH   LINE      CODE     ---       #18
      01004E2FH   LINE      CODE     ---       #19
      01004E32H   LINE      CODE     ---       #20
      01004E32H   LINE      CODE     ---       #21
      01004E34H   LINE      CODE     ---       #22
      ---         BLOCKEND  ---      ---       LVL=0

      ---         MODULE    ---      ---       ?C?FPMUL
      0100002EH   PUBLIC    CODE     ---       ?C?FPMUL

      ---         MODULE    ---      ---       ?C?FPDIV
LX51 LINKER/LOCATER V4.66.87.0                                                        05/30/2018  19:50:23  PAGE 235


      01000137H   PUBLIC    CODE     ---       ?C?FPDIV

      ---         MODULE    ---      ---       ?C?FCAST
      010001DEH   PUBLIC    CODE     ---       ?C?FCASTC
      010001D9H   PUBLIC    CODE     ---       ?C?FCASTI
      010001D4H   PUBLIC    CODE     ---       ?C?FCASTL

      ---         MODULE    ---      ---       ?C?CASTF
      01000212H   PUBLIC    CODE     ---       ?C?CASTF

      ---         MODULE    ---      ---       PRINTF
      0200004DH   PUBLIC    XDATA    ---       ?_PRINTF?BYTE
      0200004DH   PUBLIC    XDATA    ---       ?_SPRINTF?BYTE
      01000B34H   PUBLIC    CODE     ---       _PRINTF
      01000B2EH   PUBLIC    CODE     ---       _SPRINTF

      ---         MODULE    ---      ---       VPRINTF
      02010047H   PUBLIC    XDATA    ---       ?_VPRINTF?BYTE
      01006CEBH   PUBLIC    CODE     ---       _VPRINTF

      ---         MODULE    ---      ---       ?C?FPGETOPN
      01000249H   PUBLIC    CODE     ---       ?C?FPGETOPN2
      0100027EH   PUBLIC    CODE     ---       ?C?FPNANRESULT
      01000288H   PUBLIC    CODE     ---       ?C?FPOVERFLOW
      01000260H   PUBLIC    CODE     ---       ?C?FPRESULT
      01000274H   PUBLIC    CODE     ---       ?C?FPRESULT2
      01000285H   PUBLIC    CODE     ---       ?C?FPUNDERFLOW

      ---         MODULE    ---      ---       ?C?FPROUND
      01000293H   PUBLIC    CODE     ---       ?C?FPROUND

      ---         MODULE    ---      ---       ?C?FPCONVERT
      010002D0H   PUBLIC    CODE     ---       ?C?FPCONVERT

      ---         MODULE    ---      ---       ?C?FPADD
      010003DCH   PUBLIC    CODE     ---       ?C?FPADD
      010003D8H   PUBLIC    CODE     ---       ?C?FPSUB

      ---         MODULE    ---      ---       ?C?FTNPWR
      010004FDH   PUBLIC    CODE     ---       ?C?FTNPWR

      ---         MODULE    ---      ---       ?C?SCDIV
      0100053DH   PUBLIC    CODE     ---       ?C?SCDIV

      ---         MODULE    ---      ---       ?C?CLDPTR
      0100055FH   PUBLIC    CODE     ---       ?C?CLDPTR

      ---         MODULE    ---      ---       ?C?CLDOPTR
      01000578H   PUBLIC    CODE     ---       ?C?CLDOPTR

      ---         MODULE    ---      ---       ?C?CSTPTR
      010005A5H   PUBLIC    CODE     ---       ?C?CSTPTR

      ---         MODULE    ---      ---       ?C?IMUL
      010005B7H   PUBLIC    CODE     ---       ?C?IMUL

      ---         MODULE    ---      ---       ?C?UIDIV
      010005C9H   PUBLIC    CODE     ---       ?C?UIDIV

      ---         MODULE    ---      ---       ?C?IILDX
      0100061EH   PUBLIC    CODE     ---       ?C?IILDX

      ---         MODULE    ---      ---       ?C?ILDOPTR
      01000634H   PUBLIC    CODE     ---       ?C?ILDOPTR

LX51 LINKER/LOCATER V4.66.87.0                                                        05/30/2018  19:50:23  PAGE 236


      ---         MODULE    ---      ---       ?C?LADD
      0100066CH   PUBLIC    CODE     ---       ?C?LADD

      ---         MODULE    ---      ---       ?C?LSUB
      01000679H   PUBLIC    CODE     ---       ?C?LSUB

      ---         MODULE    ---      ---       ?C?LNEG
      01000687H   PUBLIC    CODE     ---       ?C?LNEG

      ---         MODULE    ---      ---       ?C?SLCMP
      01000695H   PUBLIC    CODE     ---       ?C?SLCMP

      ---         MODULE    ---      ---       ?C?LLDXDATA
      010006ABH   PUBLIC    CODE     ---       ?C?LLDXDATA

      ---         MODULE    ---      ---       ?C?LLDXDATA0
      010006B7H   PUBLIC    CODE     ---       ?C?LLDXDATA0

      ---         MODULE    ---      ---       ?C?LSTXDATA
      010006C3H   PUBLIC    CODE     ---       ?C?LSTXDATA

      ---         MODULE    ---      ---       ?C?LSTKXDATA
      010006CFH   PUBLIC    CODE     ---       ?C?LSTKXDATA

      ---         MODULE    ---      ---       ?C?OFFX256
      01000700H   PUBLIC    CODE     ---       ?C?OFFX256

      ---         MODULE    ---      ---       ?C?OFFXADD
      01000711H   PUBLIC    CODE     ---       ?C?OFFXADD

      ---         MODULE    ---      ---       ?C?PLDXDATA
      0100071DH   PUBLIC    CODE     ---       ?C?PLDXDATA

      ---         MODULE    ---      ---       ?C?PLDIXDATA
      01000726H   PUBLIC    CODE     ---       ?C?PLDIXDATA

      ---         MODULE    ---      ---       ?C?PSTXDATA
      0100073DH   PUBLIC    CODE     ---       ?C?PSTXDATA

      ---         MODULE    ---      ---       ?C?PLDCODE
      01000746H   PUBLIC    CODE     ---       ?C?PLDCODE

      ---         MODULE    ---      ---       ?C?PLDPTR
      01000752H   PUBLIC    CODE     ---       ?C?PLDPTR

      ---         MODULE    ---      ---       ?C?PLDOPTR
      01000772H   PUBLIC    CODE     ---       ?C?PLDOPTR

      ---         MODULE    ---      ---       ?C?CCASE
      010007A2H   PUBLIC    CODE     ---       ?C?CCASE

      ---         MODULE    ---      ---       ?C?ICALL
      010007C8H   PUBLIC    CODE     ---       ?C?ICALL
      010007CCH   PUBLIC    CODE     ---       ?C?ICALL2

      ---         MODULE    ---      ---       ?C_XBP
      0000001DH   PUBLIC    DATA     ---       ?C_XBP

      ---         MODULE    ---      ---       GETS
      01003230H   PUBLIC    CODE     ---       _GETS

      ---         MODULE    ---      ---       ATOI
      010033FBH   PUBLIC    CODE     ---       _ATOI

      ---         MODULE    ---      ---       ?C?MEMSET
LX51 LINKER/LOCATER V4.66.87.0                                                        05/30/2018  19:50:23  PAGE 237


      010007CEH   PUBLIC    CODE     ---       ?C?MEMSET

      ---         MODULE    ---      ---       ?C?COPYP2
      010008C6H   PUBLIC    CODE     ---       ?C?COPYP2

      ---         MODULE    ---      ---       ?C?STRCMPP2
      01000A62H   PUBLIC    CODE     ---       ?C?STRCMPP2

      ---         MODULE    ---      ---       ?C?CSTOPTR
      01000A7FH   PUBLIC    CODE     ---       ?C?CSTOPTR

      ---         MODULE    ---      ---       ?C?ILDIX
      01000AA1H   PUBLIC    CODE     ---       ?C?ILDIX

      ---         MODULE    ---      ---       ?C?PLDIDATA
      01000AB7H   PUBLIC    CODE     ---       ?C?PLDIDATA

      ---         MODULE    ---      ---       ?C?PLDPDATA
      01000AC0H   PUBLIC    CODE     ---       ?C?PLDPDATA

      ---         MODULE    ---      ---       GETCHAR
      00000025H.5 PUBLIC    BIT      ---       ?C?CHARLOADED
      020000EAH   PUBLIC    XDATA    ---       ?_UNGETCHAR?BYTE
      01008521H   PUBLIC    CODE     ---       GETCHAR

      ---         MODULE    ---      ---       ISDIGIT
      0100884FH   PUBLIC    CODE     ---       _ISDIGIT

      ---         MODULE    ---      ---       ISSPACE
      01008535H   PUBLIC    CODE     ---       _ISSPACE



FUNCTION REGISTER MASKS


FUNCTION . . . . . . . . . . . . . . REG MASK
==============================================

_clock_get_mon_date. . . . . . . . . @0x1e000ca0
_clock_is_leap_year. . . . . . . . . @0x1e000c80
_clock_switch_display_mode . . . . . @0x0e000800
_clock_yymmdd_to_day . . . . . . . . @0x1e000cfd
_delay_10us. . . . . . . . . . . . . @0x080008c0
_delay_ms. . . . . . . . . . . . . . @0x080008e0
_getkey. . . . . . . . . . . . . . . @0x1e000881
_I2C_Write . . . . . . . . . . . . . @0x180008e0
_int_hub_test_bit. . . . . . . . . . @0x180008c1
_isdigit . . . . . . . . . . . . . . @0x18000800
_isspace . . . . . . . . . . . . . . @0x18000800
_led_clr_blink . . . . . . . . . . . @0x18000801
_led_clr_dp. . . . . . . . . . . . . @0x18000801
_led_set_blink . . . . . . . . . . . @0x18000801
_led_set_code. . . . . . . . . . . . @0x1e0008c3
_led_set_dp. . . . . . . . . . . . . @0x18000801
_mpu_threshold_inc . . . . . . . . . @0x18000880
_putbuf. . . . . . . . . . . . . . . @0x1e0008c1
_putchar . . . . . . . . . . . . . . @0x1e0008e1
_rtc_alarm_set_date. . . . . . . . . @0x1e000cce
_rtc_alarm_set_day . . . . . . . . . @0x1e000800
_rtc_alarm_set_hour. . . . . . . . . @0x1e000cce
_rtc_alarm_set_min . . . . . . . . . @0x1e000cce
_rtc_alarm_set_mode. . . . . . . . . @0x1e000820
_rtc_alarm_set_sec . . . . . . . . . @0x1e000cc0
_rtc_clr_alarm_int_flag. . . . . . . @0x1e000800
LX51 LINKER/LOCATER V4.66.87.0                                                        05/30/2018  19:50:23  PAGE 238


_rtc_date_set_day. . . . . . . . . . @0x1e000800
_rtc_date_set_month. . . . . . . . . @0x1e000cc0
_rtc_date_set_year . . . . . . . . . @0x1e000cc0
_rtc_enable_alarm_int. . . . . . . . @0x1e000800
_rtc_set_square_rate . . . . . . . . @0x1e000840
_rtc_test_alarm_int. . . . . . . . . @0x1e000800
_rtc_test_alarm_int_flag . . . . . . @0x1e000800
_rtc_time_set_hour . . . . . . . . . @0x1e000cce
_rtc_time_set_min. . . . . . . . . . @0x1e000cce
_rtc_time_set_sec. . . . . . . . . . @0x1e000cce
_scan_key_proc . . . . . . . . . . . @0x1e0008c1
_serial_set_ctl_bit. . . . . . . . . @0x1e000861
_serial_test_ctl_bit . . . . . . . . @0x1e0008f1
_timer_get_hour. . . . . . . . . . . @0x1e000880
_timer_get_min . . . . . . . . . . . @0x1e000880
_timer_get_sec . . . . . . . . . . . @0x1e000880
_timer_inc_hour. . . . . . . . . . . @0x1e000c00
_timer_inc_min . . . . . . . . . . . @0x1e000c00
_timer_inc_sec . . . . . . . . . . . @0x1e000c00
_timer_set_mode. . . . . . . . . . . @0x0e000800
alarm0_get_day_mask. . . . . . . . . @0x0e000880
alarm0_get_hour. . . . . . . . . . . @0x0e000880
alarm0_get_hour_12 . . . . . . . . . @0x18000000
alarm0_get_min . . . . . . . . . . . @0x0e000880
alarm0_inc_hour. . . . . . . . . . . @0x1e000c00
alarm0_inc_min . . . . . . . . . . . @0x1e000c00
alarm0_set_hour_12 . . . . . . . . . @0x18000000
alarm1_set_enable. . . . . . . . . . @0x18000000
alarm1_test_enable . . . . . . . . . @0x18000000
beeper_get_beep_enable . . . . . . . @0x18000000
beeper_get_music_index . . . . . . . @0x0e000880
beeper_get_music_to. . . . . . . . . @0x0e000880
beeper_inc_music_to. . . . . . . . . @0x1e000cf1
beeper_set_beep_enable . . . . . . . @0x18000000
beeper_stop_music. . . . . . . . . . @0x0e000800
clock_clr_sec. . . . . . . . . . . . @0x08000801
clock_display. . . . . . . . . . . . @0x18000000
clock_enable_interrupt . . . . . . . @0x18000000
clock_enter_shell. . . . . . . . . . @0x80000000
clock_get_date . . . . . . . . . . . @0x08000881
clock_get_day. . . . . . . . . . . . @0x08000881
clock_get_hour . . . . . . . . . . . @0x08000881
clock_get_hour_12. . . . . . . . . . @0x18000000
clock_get_min. . . . . . . . . . . . @0x08000881
clock_get_month. . . . . . . . . . . @0x08000881
clock_get_ms39 . . . . . . . . . . . @0x08000881
clock_get_sec. . . . . . . . . . . . @0x08000881
clock_get_sec_256. . . . . . . . . . @0x08000881
clock_get_year . . . . . . . . . . . @0x08000881
clock_inc_hour . . . . . . . . . . . @0x18000c01
clock_inc_min. . . . . . . . . . . . @0x18000c01
clock_inc_month. . . . . . . . . . . @0x1e000cfd
clock_inc_year . . . . . . . . . . . @0x1e000cfd
clock_set_hour_12. . . . . . . . . . @0x18000000
com_initialize . . . . . . . . . . . @0x0e000800
com_try_get_key. . . . . . . . . . . @0x1e000881
debug_initialize . . . . . . . . . . @0x80000000
debug_onoff. . . . . . . . . . . . . @0x18000000
I2C_Delay. . . . . . . . . . . . . . @0x18000880
I2C_GetAck . . . . . . . . . . . . . @0x180008c0
I2C_Init . . . . . . . . . . . . . . @0x18000880
I2C_PutAck . . . . . . . . . . . . . @0x18000880
I2C_Read . . . . . . . . . . . . . . @0x180008e0
I2C_Start. . . . . . . . . . . . . . @0x18000880
I2C_Stop . . . . . . . . . . . . . . @0x180008b0
LX51 LINKER/LOCATER V4.66.87.0                                                        05/30/2018  19:50:23  PAGE 239


lt_timer_dec_sec . . . . . . . . . . @0x1e000c81
lt_timer_get_date. . . . . . . . . . @0x08000881
lt_timer_get_hour. . . . . . . . . . @0x08000881
lt_timer_get_hour_12 . . . . . . . . @0x18000000
lt_timer_get_min . . . . . . . . . . @0x08000881
lt_timer_get_month . . . . . . . . . @0x08000881
lt_timer_get_sec . . . . . . . . . . @0x08000881
lt_timer_get_year. . . . . . . . . . @0x08000881
lt_timer_inc_date. . . . . . . . . . @0x1e000ca1
lt_timer_inc_hour. . . . . . . . . . @0x18000c01
lt_timer_inc_min . . . . . . . . . . @0x18000c01
lt_timer_inc_month . . . . . . . . . @0x18000c01
lt_timer_inc_sec . . . . . . . . . . @0x18000c01
lt_timer_inc_year. . . . . . . . . . @0x18000c01
lt_timer_set_hour_12 . . . . . . . . @0x18000000
mpu_threshold_get. . . . . . . . . . @0x0e000880
power_5v_get_enable. . . . . . . . . @0x18000000
power_clr_flag . . . . . . . . . . . @0x80000000
power_get_powersave_to . . . . . . . @0x1e000880
power_get_powersave_to_s . . . . . . @0x0e000880
power_get_volume . . . . . . . . . . @0x08000080
power_inc_powersave_to . . . . . . . @0x1e000800
power_reset_powersave_to . . . . . . @0x0e000881
power_set_flag . . . . . . . . . . . @0x80000000
power_test_flag. . . . . . . . . . . @0x18000000
refresh_led. . . . . . . . . . . . . @0x1e0008e9
rom_is_factory_reset . . . . . . . . @0x18000000
rtc_alarm_get_date . . . . . . . . . @0x1e000cc0
rtc_alarm_get_day. . . . . . . . . . @0x1e000880
rtc_alarm_get_hour . . . . . . . . . @0x1e000ce0
rtc_alarm_get_hour_12. . . . . . . . @0x1e000880
rtc_alarm_get_min. . . . . . . . . . @0x1e000cc0
rtc_alarm_get_mod_str. . . . . . . . @0x1e000cfe
rtc_alarm_get_mode . . . . . . . . . @0x0e0008fa
rtc_alarm_get_sec. . . . . . . . . . @0x1e000cc0
rtc_alarm_set_hour_12. . . . . . . . @0x1e000cee
rtc_date_get_date. . . . . . . . . . @0x1e000cc0
rtc_date_get_day . . . . . . . . . . @0x0e000880
rtc_date_get_month . . . . . . . . . @0x1e000cc0
rtc_date_get_year. . . . . . . . . . @0x1e000cc0
rtc_get_square_rate. . . . . . . . . @0x1e000880
rtc_get_square_rate_str. . . . . . . @0x1e000c8e
rtc_is_lt_timer. . . . . . . . . . . @0x18000000
rtc_set_bbsqw. . . . . . . . . . . . @0x0e000800
rtc_set_conv . . . . . . . . . . . . @0x0e000800
rtc_set_en32khz. . . . . . . . . . . @0x0e000800
rtc_set_eosc . . . . . . . . . . . . @0x0e000800
rtc_set_intcn. . . . . . . . . . . . @0x0e000800
rtc_set_lt_timer . . . . . . . . . . @0x18000000
rtc_set_osf. . . . . . . . . . . . . @0x0e000800
rtc_test_bbsqw . . . . . . . . . . . @0x1e000800
rtc_test_bsy . . . . . . . . . . . . @0x1e000800
rtc_test_conv. . . . . . . . . . . . @0x1e000800
rtc_test_en32khz . . . . . . . . . . @0x1e000800
rtc_test_eosc. . . . . . . . . . . . @0x1e000800
rtc_test_intcn . . . . . . . . . . . @0x1e000800
rtc_test_osf . . . . . . . . . . . . @0x1e000800
rtc_time_get_hour. . . . . . . . . . @0x1e000ce0
rtc_time_get_hour_12 . . . . . . . . @0x1e000880
rtc_time_get_min . . . . . . . . . . @0x1e000cc0
rtc_time_get_sec . . . . . . . . . . @0x1e000cc0
rtc_time_set_hour_12 . . . . . . . . @0x1e000cee
timer_set_led_autorefresh. . . . . . @0x1e000800
timer_stop . . . . . . . . . . . . . @0x80000000

LX51 LINKER/LOCATER V4.66.87.0                                                        05/30/2018  19:50:23  PAGE 240




*** WARNING L13: RECURSIVE CALL TO FUNCTION
    CALLED:  ?CO?TASK
    CALLER:  _RUN_STATE_MACHINE/SM

*** WARNING L13: RECURSIVE CALL TO FUNCTION
    CALLED:  ?CO?SHELL
    CALLER:  SHELL

*** WARNING L13: RECURSIVE CALL TO FUNCTION
    CALLED:  ?CO?SHELL
    CALLER:  SHELL_DUMP_CMD/SHELL

*** WARNING L13: RECURSIVE CALL TO FUNCTION
    CALLED:  ?CO?SHELL
    CALLER:  _CMD_HELP/CMD_HELP

*** WARNING L57: UNCALLED FUNCTION, IGNORED FOR OVERLAY PROCESS
    NAME:    _RTC_ALARM_SET_DAY/RTC

*** WARNING L57: UNCALLED FUNCTION, IGNORED FOR OVERLAY PROCESS
    NAME:    RTC_SET_EOSC/RTC

*** WARNING L57: UNCALLED FUNCTION, IGNORED FOR OVERLAY PROCESS
    NAME:    RTC_SET_BBSQW/RTC

*** WARNING L57: UNCALLED FUNCTION, IGNORED FOR OVERLAY PROCESS
    NAME:    RTC_SET_CONV/RTC

*** WARNING L57: UNCALLED FUNCTION, IGNORED FOR OVERLAY PROCESS
    NAME:    _RTC_SET_SQUARE_RATE/RTC

*** WARNING L57: UNCALLED FUNCTION, IGNORED FOR OVERLAY PROCESS
    NAME:    RTC_SET_OSF/RTC

*** WARNING L16: UNCALLED SEGMENT, IGNORED FOR OVERLAY PROCESS
    NAME:    ALARM_SAVE_ROM/ALARM

*** WARNING L57: UNCALLED FUNCTION, IGNORED FOR OVERLAY PROCESS
    NAME:    CLOCK_GET_MS39/CLOCK

*** WARNING L57: UNCALLED FUNCTION, IGNORED FOR OVERLAY PROCESS
    NAME:    THERMO_HI_THRESHOLD_REACH_TOP/THERMO

*** WARNING L57: UNCALLED FUNCTION, IGNORED FOR OVERLAY PROCESS
    NAME:    THERMO_LO_THRESHOLD_REACH_BOTTOM/THERMO

*** WARNING L57: UNCALLED FUNCTION, IGNORED FOR OVERLAY PROCESS
    NAME:    MPU_THRESHOLD_RESET/MPU

Program Size: data=81.6 xdata=235 const=18414 code=36086
LX51 RUN COMPLETE.  15 WARNING(S),  0 ERROR(S)
