LX51 LINKER/LOCATER V4.66.87.0                                                          05/09/2018  21:28:12  PAGE 1


LX51 LINKER/LOCATER V4.66.87.0, INVOKED BY:
C:\KEIL\C51\BIN\LX51.EXE sm.obj, main.obj, STARTUP.obj, com.obj, rtc.obj, i2c.obj, key.obj, task.obj, led.obj, alarm.obj
>> , power.obj, misc.obj, mod_common.obj, beeper.obj, clock.obj, timer.obj, int_hub.obj, fuse.obj, hg.obj, lt_timer.obj,
>>  serial_hub.obj, thermo.obj, rom.obj, delay_task.obj, shell.obj, debug.obj, mpu.obj, sm_clock_timer.obj, sm_clock_cou
>> nter.obj, sm_clock_display.obj, sm_clock_powersave.obj, sm_clock_mod_alarm.obj, sm_clock_alarm.obj, sm_clock_mod_time
>> .obj, sm_power_pack_display.obj, sm_power_pack_powersave.obj, sm_fuse_test.obj, sm_fuse_param.obj, sm_fuse_timer.obj,
>>  sm_fuse_detonate.obj, sm_fuse_powersave.obj, sm_global_flag_mod.obj, cmd_help.obj, cmd_serial.obj, cmd_int.obj, cmd_
>> i2c.obj, cmd_dbg.obj, cmd_reboot.obj, cmd_task.obj, cmd_sm.obj, cmd_beeper.obj, cmd_thermo.obj, cmd_mpu.obj TO Clock 
>> REGFILE (.\Clock.ORC) CLASSES (XDATA (X:0X0-X:0X3FF), HDATA (X:0X0-X:0X3FF), ECODE (C:0X0-C:0XFFFF), HCONST (C:0X0-C:
>> 0XFFFF))




PROGRAM RECURSIONS REMOVED FROM CALL TREE
=========================================
+--> ?CO?TASK
|  | _TIME_PROC/SM
<--+ _RUN_STATE_MACHINE/SM


+--> ?CO?SHELL
|  | _CMD_HELP/CMD_HELP
|  | SHELL_DUMP_CMD/SHELL
<--+ SHELL


+--> ?CO?SHELL
|  | _CMD_HELP/CMD_HELP
<--+ SHELL_DUMP_CMD/SHELL


+--> ?CO?SHELL
<--+ _CMD_HELP/CMD_HELP



CPU MODE:     8051 MODE
MEMORY MODEL: LARGE WITH FLOATING POINT ARITHMETIC


INPUT MODULES INCLUDED:
  sm.obj (SM)
         COMMENT TYPE 0: C51 V9.57.0.0
  main.obj (MAIN)
         COMMENT TYPE 0: C51 V9.57.0.0
  STARTUP.obj (?C_STARTUP)
         COMMENT TYPE 0: AX51 V3.15.3.0
  com.obj (COM)
         COMMENT TYPE 0: C51 V9.57.0.0
  rtc.obj (RTC)
         COMMENT TYPE 0: C51 V9.57.0.0
  i2c.obj (I2C)
         COMMENT TYPE 0: C51 V9.57.0.0
  key.obj (KEY)
         COMMENT TYPE 0: C51 V9.57.0.0
  task.obj (TASK)
         COMMENT TYPE 0: C51 V9.57.0.0
  led.obj (LED)
         COMMENT TYPE 0: C51 V9.57.0.0
  alarm.obj (ALARM)
         COMMENT TYPE 0: C51 V9.57.0.0
  power.obj (POWER)
         COMMENT TYPE 0: C51 V9.57.0.0
  misc.obj (MISC)
         COMMENT TYPE 0: C51 V9.57.0.0
LX51 LINKER/LOCATER V4.66.87.0                                                        05/09/2018  21:28:12  PAGE 2


  mod_common.obj (MOD_COMMON)
         COMMENT TYPE 0: C51 V9.57.0.0
  beeper.obj (BEEPER)
         COMMENT TYPE 0: C51 V9.57.0.0
  clock.obj (CLOCK)
         COMMENT TYPE 0: C51 V9.57.0.0
  timer.obj (TIMER)
         COMMENT TYPE 0: C51 V9.57.0.0
  int_hub.obj (INT_HUB)
         COMMENT TYPE 0: C51 V9.57.0.0
  fuse.obj (FUSE)
         COMMENT TYPE 0: C51 V9.57.0.0
  hg.obj (HG)
         COMMENT TYPE 0: C51 V9.57.0.0
  lt_timer.obj (LT_TIMER)
         COMMENT TYPE 0: C51 V9.57.0.0
  serial_hub.obj (SERIAL_HUB)
         COMMENT TYPE 0: C51 V9.57.0.0
  thermo.obj (THERMO)
         COMMENT TYPE 0: C51 V9.57.0.0
  rom.obj (ROM)
         COMMENT TYPE 0: C51 V9.57.0.0
  delay_task.obj (DELAY_TASK)
         COMMENT TYPE 0: C51 V9.57.0.0
  shell.obj (SHELL)
         COMMENT TYPE 0: C51 V9.57.0.0
  debug.obj (DEBUG)
         COMMENT TYPE 0: C51 V9.57.0.0
  mpu.obj (MPU)
         COMMENT TYPE 0: C51 V9.57.0.0
  sm_clock_timer.obj (SM_CLOCK_TIMER)
         COMMENT TYPE 0: C51 V9.57.0.0
  sm_clock_counter.obj (SM_CLOCK_COUNTER)
         COMMENT TYPE 0: C51 V9.57.0.0
  sm_clock_display.obj (SM_CLOCK_DISPLAY)
         COMMENT TYPE 0: C51 V9.57.0.0
  sm_clock_powersave.obj (SM_CLOCK_POWERSAVE)
         COMMENT TYPE 0: C51 V9.57.0.0
  sm_clock_mod_alarm.obj (SM_CLOCK_MOD_ALARM)
         COMMENT TYPE 0: C51 V9.57.0.0
  sm_clock_alarm.obj (SM_CLOCK_ALARM)
         COMMENT TYPE 0: C51 V9.57.0.0
  sm_clock_mod_time.obj (SM_CLOCK_MOD_TIME)
         COMMENT TYPE 0: C51 V9.57.0.0
  sm_power_pack_display.obj (SM_POWER_PACK_DISPLAY)
         COMMENT TYPE 0: C51 V9.57.0.0
  sm_power_pack_powersave.obj (SM_POWER_PACK_POWERSAVE)
         COMMENT TYPE 0: C51 V9.57.0.0
  sm_fuse_test.obj (SM_FUSE_TEST)
         COMMENT TYPE 0: C51 V9.57.0.0
  sm_fuse_param.obj (SM_FUSE_PARAM)
         COMMENT TYPE 0: C51 V9.57.0.0
  sm_fuse_timer.obj (SM_FUSE_TIMER)
         COMMENT TYPE 0: C51 V9.57.0.0
  sm_fuse_detonate.obj (SM_FUSE_DETONATE)
         COMMENT TYPE 0: C51 V9.57.0.0
  sm_fuse_powersave.obj (SM_FUSE_POWERSAVE)
         COMMENT TYPE 0: C51 V9.57.0.0
  sm_global_flag_mod.obj (SM_GLOBAL_FLAG_MOD)
         COMMENT TYPE 0: C51 V9.57.0.0
  cmd_help.obj (CMD_HELP)
         COMMENT TYPE 0: C51 V9.57.0.0
  cmd_serial.obj (CMD_SERIAL)
         COMMENT TYPE 0: C51 V9.57.0.0
  cmd_int.obj (CMD_INT)
LX51 LINKER/LOCATER V4.66.87.0                                                        05/09/2018  21:28:12  PAGE 3


         COMMENT TYPE 0: C51 V9.57.0.0
  cmd_i2c.obj (CMD_I2C)
         COMMENT TYPE 0: C51 V9.57.0.0
  cmd_dbg.obj (CMD_DBG)
         COMMENT TYPE 0: C51 V9.57.0.0
  cmd_reboot.obj (CMD_REBOOT)
         COMMENT TYPE 0: C51 V9.57.0.0
  cmd_task.obj (CMD_TASK)
         COMMENT TYPE 0: C51 V9.57.0.0
  cmd_sm.obj (CMD_SM)
         COMMENT TYPE 0: C51 V9.57.0.0
  cmd_beeper.obj (CMD_BEEPER)
         COMMENT TYPE 0: C51 V9.57.0.0
  cmd_thermo.obj (CMD_THERMO)
         COMMENT TYPE 0: C51 V9.57.0.0
  cmd_mpu.obj (CMD_MPU)
         COMMENT TYPE 0: C51 V9.57.0.0
  C:\KEIL\C51\LIB\C51FPL.LIB (?C?FPMUL)
         COMMENT TYPE 1: A51 / ASM51 Assembler
  C:\KEIL\C51\LIB\C51FPL.LIB (?C?FPDIV)
         COMMENT TYPE 1: A51 / ASM51 Assembler
  C:\KEIL\C51\LIB\C51FPL.LIB (?C?FCAST)
         COMMENT TYPE 1: A51 / ASM51 Assembler
  C:\KEIL\C51\LIB\C51FPL.LIB (?C?CASTF)
         COMMENT TYPE 1: A51 / ASM51 Assembler
  C:\KEIL\C51\LIB\C51FPL.LIB (PRINTF)
         COMMENT TYPE 1: A51 / ASM51 Assembler
  C:\KEIL\C51\LIB\C51FPL.LIB (VPRINTF)
         COMMENT TYPE 1: A51 / ASM51 Assembler
  C:\KEIL\C51\LIB\C51FPL.LIB (?C?FPGETOPN)
         COMMENT TYPE 1: A51 / ASM51 Assembler
  C:\KEIL\C51\LIB\C51FPL.LIB (?C?FPROUND)
         COMMENT TYPE 1: A51 / ASM51 Assembler
  C:\KEIL\C51\LIB\C51FPL.LIB (?C?FPCONVERT)
         COMMENT TYPE 1: A51 / ASM51 Assembler
  C:\KEIL\C51\LIB\C51FPL.LIB (?C?FPADD)
         COMMENT TYPE 1: A51 / ASM51 Assembler
  C:\KEIL\C51\LIB\C51FPL.LIB (?C?FTNPWR)
         COMMENT TYPE 1: A51 / ASM51 Assembler
  C:\KEIL\C51\LIB\C51L.LIB (?C?SCDIV)
         COMMENT TYPE 1: A51 / ASM51 Assembler
  C:\KEIL\C51\LIB\C51L.LIB (?C?CLDPTR)
         COMMENT TYPE 1: A51 / ASM51 Assembler
  C:\KEIL\C51\LIB\C51L.LIB (?C?CLDOPTR)
         COMMENT TYPE 1: A51 / ASM51 Assembler
  C:\KEIL\C51\LIB\C51L.LIB (?C?CSTPTR)
         COMMENT TYPE 1: A51 / ASM51 Assembler
  C:\KEIL\C51\LIB\C51L.LIB (?C?IMUL)
         COMMENT TYPE 1: A51 / ASM51 Assembler
  C:\KEIL\C51\LIB\C51L.LIB (?C?UIDIV)
         COMMENT TYPE 1: A51 / ASM51 Assembler
  C:\KEIL\C51\LIB\C51L.LIB (?C?IILDX)
         COMMENT TYPE 1: A51 / ASM51 Assembler
  C:\KEIL\C51\LIB\C51L.LIB (?C?ILDOPTR)
         COMMENT TYPE 1: A51 / ASM51 Assembler
  C:\KEIL\C51\LIB\C51L.LIB (?C?LNEG)
         COMMENT TYPE 1: A51 / ASM51 Assembler
  C:\KEIL\C51\LIB\C51L.LIB (?C?LSTKXDATA)
         COMMENT TYPE 1: A51 / ASM51 Assembler
  C:\KEIL\C51\LIB\C51L.LIB (?C?OFFX256)
         COMMENT TYPE 1: A51 / ASM51 Assembler
  C:\KEIL\C51\LIB\C51L.LIB (?C?OFFXADD)
         COMMENT TYPE 1: A51 / ASM51 Assembler
  C:\KEIL\C51\LIB\C51L.LIB (?C?PLDXDATA)
         COMMENT TYPE 1: A51 / ASM51 Assembler
LX51 LINKER/LOCATER V4.66.87.0                                                        05/09/2018  21:28:12  PAGE 4


  C:\KEIL\C51\LIB\C51L.LIB (?C?PLDIXDATA)
         COMMENT TYPE 1: A51 / ASM51 Assembler
  C:\KEIL\C51\LIB\C51L.LIB (?C?PSTXDATA)
         COMMENT TYPE 1: A51 / ASM51 Assembler
  C:\KEIL\C51\LIB\C51L.LIB (?C?PLDCODE)
         COMMENT TYPE 1: A51 / ASM51 Assembler
  C:\KEIL\C51\LIB\C51L.LIB (?C?PLDPTR)
         COMMENT TYPE 1: A51 / ASM51 Assembler
  C:\KEIL\C51\LIB\C51L.LIB (?C?PLDOPTR)
         COMMENT TYPE 1: A51 / ASM51 Assembler
  C:\KEIL\C51\LIB\C51L.LIB (?C?CCASE)
         COMMENT TYPE 1: A51 / ASM51 Assembler
  C:\KEIL\C51\LIB\C51L.LIB (?C?ICALL)
         COMMENT TYPE 1: A51 / ASM51 Assembler
  C:\KEIL\C51\LIB\C51L.LIB (?C_XBP)
         COMMENT TYPE 1: A51 / ASM51 Assembler
  C:\KEIL\C51\LIB\C51L.LIB (GETS)
         COMMENT TYPE 1: C51 Compiler
  C:\KEIL\C51\LIB\C51L.LIB (ATOI)
         COMMENT TYPE 1: C51 Compiler
  C:\KEIL\C51\LIB\C51L.LIB (?C?MEMSET)
         COMMENT TYPE 1: A51 / ASM51 Assembler
  C:\KEIL\C51\LIB\C51L.LIB (?C?COPYP2)
         COMMENT TYPE 1: A51 / ASM51 Assembler
  C:\KEIL\C51\LIB\C51L.LIB (?C?STRCMPP2)
         COMMENT TYPE 1: A51 / ASM51 Assembler
  C:\KEIL\C51\LIB\C51L.LIB (?C?CSTOPTR)
         COMMENT TYPE 1: A51 / ASM51 Assembler
  C:\KEIL\C51\LIB\C51L.LIB (?C?ILDIX)
         COMMENT TYPE 1: A51 / ASM51 Assembler
  C:\KEIL\C51\LIB\C51L.LIB (?C?PLDIDATA)
         COMMENT TYPE 1: A51 / ASM51 Assembler
  C:\KEIL\C51\LIB\C51L.LIB (?C?PLDPDATA)
         COMMENT TYPE 1: A51 / ASM51 Assembler
  C:\KEIL\C51\LIB\C51L.LIB (GETCHAR)
         COMMENT TYPE 1: A51 / ASM51 Assembler
  C:\KEIL\C51\LIB\C51L.LIB (ISDIGIT)
         COMMENT TYPE 1: C51 Compiler
  C:\KEIL\C51\LIB\C51L.LIB (ISSPACE)
         COMMENT TYPE 1: C51 Compiler


ACTIVE MEMORY CLASSES OF MODULE:  Clock (SM)

BASE        START       END         USED      MEMORY CLASS
==========================================================
X:000000H   X:000000H   X:0003FFH   0000D6H   XDATA
X:000000H   X:000000H   X:0003FFH             HDATA
C:000000H   C:000000H   C:00FFFFH             ECODE
B00:0000H   C:000000H   C:00FFFFH             HCONST
C:000000H   C:000000H   C:00FFFFH   0085ACH   CODE
C:000000H   C:000000H   C:00FFFFH   0042FAH   CONST
I:000000H   I:000000H   I:0000FFH   000039H   IDATA
I:000020H.0 I:000020H.0 I:00002FH.7 000005H.1 BIT
I:000000H   I:000000H   I:00007FH   00001FH   DATA


MEMORY MAP OF MODULE:  Clock (SM)


START     STOP      LENGTH    ALIGN  RELOC    MEMORY CLASS   SEGMENT NAME
=========================================================================

* * * * * * * * * * *   D A T A   M E M O R Y   * * * * * * * * * * * * *
000000H   000007H   000008H   ---    AT..     DATA           "REG BANK 0"
LX51 LINKER/LOCATER V4.66.87.0                                                        05/09/2018  21:28:12  PAGE 5


000008H   00000FH   000008H   ---    AT..     DATA           "REG BANK 1"
000010H   000017H   000008H   ---    AT..     DATA           "REG BANK 2"
000018H   00001CH   000005H   BYTE   UNIT     DATA           _DATA_GROUP_
00001DH   00001EH   000002H   BYTE   UNIT     DATA           ?C?LIB_DATA
00001FH.0 00001FH.7 000001H.0 ---    ---      **GAP**
000020H.0 000021H.3 000001H.4 BIT    UNIT     BIT            _BIT_GROUP_
000021H.4 000021H.7 000000H.4 BIT    UNIT     BIT            ?BI?TIMER
000022H.0 000022H.3 000000H.4 BIT    UNIT     BIT            ?BI?LT_TIMER
000022H.4 000022H.6 000000H.3 BIT    UNIT     BIT            ?BI?MOD_COMMON
000022H.7 000023H.1 000000H.3 BIT    UNIT     BIT            ?BI?CLOCK
000023H.2 000023H.3 000000H.2 BIT    UNIT     BIT            ?BI?COM
000023H.4 000023H.5 000000H.2 BIT    UNIT     BIT            ?BI?KEY
000023H.6 000023H.7 000000H.2 BIT    UNIT     BIT            ?BI?ALARM
000024H.0 000024H.1 000000H.2 BIT    UNIT     BIT            ?BI?BEEPER
000024H.2 000024H.2 000000H.1 BIT    UNIT     BIT            ?BI?RTC
000024H.3 000024H.3 000000H.1 BIT    UNIT     BIT            ?BI?LED
000024H.4 000024H.4 000000H.1 BIT    UNIT     BIT            ?BI?POWER
000024H.5 000024H.5 000000H.1 BIT    UNIT     BIT            ?BI?FUSE
000024H.6 000024H.6 000000H.1 BIT    UNIT     BIT            ?BI?HG
000024H.7 000024H.7 000000H.1 BIT    UNIT     BIT            ?BI?DEBUG
000025H.0 000025H.0 000000H.1 BIT    UNIT     BIT            ?BI?GETCHAR
000025H.1 000025H   000000H.7 ---    ---      **GAP**
000026H   000035H   000010H   BYTE   UNIT     IDATA          ?ID?COM
000036H   000041H   00000CH   BYTE   UNIT     IDATA          ?ID?TIMER
000042H   00004AH   000009H   BYTE   UNIT     IDATA          ?ID?LED
00004BH   000053H   000009H   BYTE   UNIT     IDATA          ?ID?CLOCK
000054H   000059H   000006H   BYTE   UNIT     IDATA          ?ID?LT_TIMER
00005AH   00005DH   000004H   BYTE   UNIT     IDATA          ?ID?TASK
00005EH   00005EH   000001H   BYTE   UNIT     IDATA          ?STACK

* * * * * * * * * * *   C O D E   M E M O R Y   * * * * * * * * * * * * *
000000H   000002H   000003H   ---    OFFS..   CODE           ?CO?STARTUP?3
000003H   000005H   000003H   BYTE   OFFS..   CODE           ?KEY?00003
000006H   00000AH   000005H   BYTE   UNIT     CODE           ?PR?RTC_SET_LT_TIMER?RTC
00000BH   00000DH   000003H   BYTE   OFFS..   CODE           ?CLOCK?0000B
00000EH   000012H   000005H   BYTE   UNIT     CODE           ?PR?__RTC_GET_DATE?RTC
000013H   000015H   000003H   BYTE   OFFS..   CODE           ?INT_HUB?00013
000016H   000022H   00000DH   BYTE   UNIT     CODE           ?PR?COM_LEAVE_POWERSAVE?COM
000023H   000025H   000003H   BYTE   OFFS..   CODE           ?COM?00023
000026H   00002AH   000005H   BYTE   UNIT     CODE           ?PR?ALARM0_SET_HOUR_12?ALARM
00002BH   00002DH   000003H   BYTE   OFFS..   CODE           ?BEEPER?0002B
00002EH   000A73H   000A46H   BYTE   UNIT     CODE           ?C?LIB_CODE
000A74H   000EF6H   000483H   BYTE   UNIT     CODE           ?PR?PRINTF?PRINTF
000EF7H   00115CH   000266H   BYTE   UNIT     CODE           ?PR?_INT_HUB_DUMP_EXT_STATUS?INT_HUB
00115DH   00138BH   00022FH   BYTE   UNIT     CODE           ?PR?SERIAL_DUMP?SERIAL_HUB
00138CH   001557H   0001CCH   BYTE   UNIT     CODE           ?PR?_DISPLAY_TEST?SM_FUSE_TEST
001558H   0016FDH   0001A6H   BYTE   UNIT     CODE           ?PR?_SM_FUSE_TEST_HG_MPU?SM_FUSE_TEST
0016FEH   001891H   000194H   BYTE   UNIT     CODE           ?PR?_SM_FUSE_TEST_THERMO?SM_FUSE_TEST
001892H   001A23H   000192H   BYTE   UNIT     CODE           ?PR?_RUN_STATE_MACHINE?SM
001A24H   001BAAH   000187H   BYTE   UNIT     CODE           ?PR?_UPDATE_ALARM?SM_CLOCK_MOD_ALARM
001BABH   001D19H   00016FH   BYTE   UNIT     CODE           ?PR?SM
001D1AH   001E85H   00016CH   BYTE   UNIT     CODE           ?PR?RTC_INITIALIZE?RTC
001E86H   001FEEH   000169H   BYTE   UNIT     CODE           ?PR?_SM_FUSE_TEST_SUBMOD0?SM_FUSE_TEST
001FEFH   00214FH   000161H   BYTE   UNIT     CODE           ?PR?CLOCK_INC_MS39?CLOCK
002150H   0022B0H   000161H   BYTE   UNIT     CODE           ?PR?_UPDATE_TIME?SM_FUSE_PARAM
0022B1H   002403H   000153H   BYTE   UNIT     CODE           ?PR?RUN_SHELL?SHELL
002404H   00254FH   00014CH   BYTE   UNIT     CODE           ?PR?_CMD_THERMO?CMD_THERMO
002550H   002662H   000113H   BYTE   UNIT     CODE           ?PR?_CMD_SM?CMD_SM
002663H   00276EH   00010CH   BYTE   UNIT     CODE           ?PR?_CLOCK_YYMMDD_TO_DAY?CLOCK
00276FH   002874H   000106H   BYTE   UNIT     CODE           ?PR?_SCAN_KEY_PROC?KEY
002875H   00297AH   000106H   BYTE   UNIT     CODE           ?PR?_SM_FUSE_TIMER_SUBMOD0?SM_FUSE_TIMER
00297BH   002A6EH   0000F4H   BYTE   UNIT     CODE           ?PR?SM_DUMP?SM
002A6FH   002B5CH   0000EEH   BYTE   UNIT     CODE           ?PR?_CMD_BEEPER?CMD_BEEPER
002B5DH   002C49H   0000EDH   BYTE   UNIT     CODE           ?PR?_GETS?GETS
002C4AH   002D29H   0000E0H   BYTE   UNIT     CODE           ?PR?_DISPLAY_GLOBAL_FLAG?SM_GLOBAL_FLAG_MOD
LX51 LINKER/LOCATER V4.66.87.0                                                        05/09/2018  21:28:12  PAGE 6


002D2AH   002E04H   0000DBH   BYTE   UNIT     CODE           ?PR?_ATOI?ATOI
002E05H   002EDDH   0000D9H   BYTE   UNIT     CODE           ?PR?TIMER_INC_MS39?TIMER
002EDEH   002FACH   0000CFH   BYTE   UNIT     CODE           ?PR?RTC_ALARM_GET_MODE?RTC
002FADH   00307AH   0000CEH   BYTE   UNIT     CODE           ?PR?_SM_SET_STATE_BY_NAME?SM
00307BH   003147H   0000CDH   BYTE   UNIT     CODE           ?PR?_DISPLAY_ALARM?SM_CLOCK_ALARM
003148H   00320EH   0000C7H   BYTE   UNIT     CODE           ?PR?_CHECK_AND_SET?SM_FUSE_TIMER
00320FH   0032D5H   0000C7H   BYTE   UNIT     CODE           ?PR?_SM_FUSE_TIMER_SUBMOD2?SM_FUSE_TIMER
0032D6H   00339AH   0000C5H   BYTE   UNIT     CODE           ?PR?_I2C_WRITE?CMD_I2C
00339BH   003459H   0000BFH   BYTE   UNIT     CODE           ?PR?LT_TIMER_SUB_DATE?LT_TIMER
00345AH   003515H   0000BCH   BYTE   UNIT     CODE           ?PR?_CMD_TASK?CMD_TASK
003516H   0035CDH   0000B8H   BYTE   UNIT     CODE           ?PR?_SM_SET_TABLE_BY_NAME?SM
0035CEH   003684H   0000B7H   BYTE   UNIT     CODE           ?PR?RTC
003685H   003733H   0000AFH   BYTE   UNIT     CODE           ?PR?ROM_RESET?ROM
003734H   0037E2H   0000AFH   BYTE   UNIT     CODE           ?PR?UPDATE_HHMMSS?SM_CLOCK_MOD_TIME
0037E3H   003890H   0000AEH   BYTE   UNIT     CODE           ?PR?_UPDATE_SET?SM_FUSE_TEST
003891H   003937H   0000A7H   BYTE   UNIT     CODE           ?PR?RUN_TASK?TASK
003938H   0039DDH   0000A6H   BYTE   UNIT     CODE           ?PR?_CMD_SERIAL?CMD_SERIAL
0039DEH   003A7DH   0000A0H   BYTE   UNIT     CODE           ?PR?__BEEPLER_PLAY?BEEPER
003A7EH   003B1BH   00009EH   BYTE   UNIT     CODE           ?PR?_RTC_DATE_SET_DATE?RTC
003B1CH   003BB7H   00009CH   BYTE   UNIT     CODE           ?PR?LT_TIMER_DEC_SEC?LT_TIMER
003BB8H   003C50H   000099H   BYTE   UNIT     CODE           ?PR?UPDATE_HHMMSS?SM_CLOCK_COUNTER
003C51H   003CE6H   000096H   BYTE   UNIT     CODE           ?PR?_RTC_GET_TEMPERATURE?RTC
003CE7H   003D79H   000093H   BYTE   UNIT     CODE           ?PR?CLOCK_DUMP?CLOCK
003D7AH   003E09H   000090H   BYTE   UNIT     CODE           ?PR?_ENTER_SET?SM_FUSE_TEST
003E0AH   003E98H   00008FH   BYTE   UNIT     CODE           ?PR?_SM_CLOCK_COUNTER_SUBMOD0?SM_CLOCK_COUNTER
003E99H   003F26H   00008EH   BYTE   UNIT     CODE           ?PR?_RTC_ALARM_SET_MODE?RTC
003F27H   003FB4H   00008EH   BYTE   UNIT     CODE           ?PR?_SM_FUSE_PARAM_SUBMOD6?SM_FUSE_PARAM
003FB5H   004040H   00008CH   BYTE   UNIT     CODE           ?PR?UPDATE_YYMMDD?SM_CLOCK_MOD_TIME
004041H   0040CBH   00008BH   BYTE   UNIT     CODE           ?PR?DISPLAY_TEMP?SM_CLOCK_DISPLAY
0040CCH   004154H   000089H   BYTE   UNIT     CODE           ?PR?_I2C_READ?CMD_I2C
004155H   0041DBH   000087H   BYTE   UNIT     CODE           ?PR?_SM_SET_SUB_STATE_BY_NAME?SM
0041DCH   00425DH   000082H   BYTE   UNIT     CODE           ?PR?SM_FUSE_TEST
00425EH   0042DCH   00007FH   BYTE   UNIT     CODE           ?PR?_DISPLAY_SLOT?SM_CLOCK_TIMER
0042DDH   00435AH   00007EH   BYTE   UNIT     CODE           ?PR?_SCAN_FUSE?FUSE
00435BH   0043D7H   00007DH   BYTE   UNIT     CODE           ?PR?ROM_DUMP?ROM
0043D8H   004453H   00007CH   BYTE   UNIT     CODE           ?PR?_CALL_CMD?SHELL
004454H   0044CEH   00007BH   BYTE   UNIT     CODE           ?PR?_WRITE_ONLY?SM_FUSE_PARAM
0044CFH   004548H   00007AH   BYTE   UNIT     CODE           ?PR?TASK_DUMP?TASK
004549H   0045C2H   00007AH   BYTE   UNIT     CODE           ?PR?CLOCK
0045C3H   00463AH   000078H   BYTE   UNIT     CODE           ?PR?SCAN_ALARM?ALARM
00463BH   0046B2H   000078H   BYTE   UNIT     CODE           ?PR?_INC_ONLY?SM_FUSE_PARAM
0046B3H   00472AH   000078H   BYTE   UNIT     CODE           ?PR?_CMD_MPU?CMD_MPU
00472BH   00479FH   000075H   BYTE   UNIT     CODE           ?PR?_SCAN_HG?HG
0047A0H   004814H   000075H   BYTE   UNIT     CODE           ?PR?LT_TIMER
004815H   004889H   000075H   BYTE   UNIT     CODE           ?PR?_SM_CLOCK_ALARM?SM_CLOCK_ALARM
00488AH   0048FAH   000071H   BYTE   UNIT     CODE           ?PR?_SM_CLOCK_TIMER_SUBMOD1?SM_CLOCK_TIMER
0048FBH   00496BH   000071H   BYTE   UNIT     CODE           ?PR?VERIFY_PASSWORD?SM_FUSE_TIMER
00496CH   0049D9H   00006EH   BYTE   UNIT     CODE           ?PR?_I2C_GETS?I2C
0049DAH   004A46H   00006DH   BYTE   UNIT     CODE           ?PR?COM_ISR?COM
004A47H   004AB2H   00006CH   BYTE   UNIT     CODE           ?PR?INT_HUB_INITIALIZE?INT_HUB
004AB3H   004B1EH   00006CH   BYTE   UNIT     CODE           ?PR?SCAN_THERMO?THERMO
004B1FH   004B89H   00006BH   BYTE   UNIT     CODE           ?PR?_CLOCK_SYNC_FROM_RTC?CLOCK
004B8AH   004BF4H   00006BH   BYTE   UNIT     CODE           ?PR?_CLOCK_SYNC_TO_RTC?CLOCK
004BF5H   004C5FH   00006BH   BYTE   UNIT     CODE           ?PR?_THERMO_LO_THRESHOLD_SET?THERMO
004C60H   004CC8H   000069H   BYTE   UNIT     CODE           ?PR?_SM_FUSE_PARAM_SET_TIME?SM_FUSE_PARAM
004CC9H   004D30H   000068H   BYTE   UNIT     CODE           ?PR?LT_TIMER_GET_RELATIVE?LT_TIMER
004D31H   004D97H   000067H   BYTE   UNIT     CODE           ?PR?_WRITE_ONLY?SM_CLOCK_MOD_TIME
004D98H   004DFCH   000065H   BYTE   UNIT     CODE           ?PR?ALARM_DUMP?ALARM
004DFDH   004E61H   000065H   BYTE   UNIT     CODE           ?PR?_SM_CLOCK_MOD_TIME_SUBMOD0?SM_CLOCK_MOD_TIME
004E62H   004EC4H   000063H   BYTE   UNIT     CODE           ?PR?INT_HUB_GET_STATUS?INT_HUB
004EC5H   004F26H   000062H   BYTE   UNIT     CODE           ?PR?_INC_ONLY?SM_FUSE_TEST
004F27H   004F87H   000061H   BYTE   UNIT     CODE           ?PR?_ALARM0_SET_ENABLE?ALARM
004F88H   004FE7H   000060H   BYTE   UNIT     CODE           ?PR?INT_HUB_DUMP?INT_HUB
004FE8H   005047H   000060H   BYTE   UNIT     CODE           ?PR?_SM_CLOCK_MOD_TIME_SUBMOD3?SM_CLOCK_MOD_TIME
005048H   0050A7H   000060H   BYTE   UNIT     CODE           ?PR?_SM_CLOCK_MOD_TIME_SUBMOD4?SM_CLOCK_MOD_TIME
LX51 LINKER/LOCATER V4.66.87.0                                                        05/09/2018  21:28:12  PAGE 7


0050A8H   005107H   000060H   BYTE   UNIT     CODE           ?PR?_SM_CLOCK_MOD_TIME_SUBMOD5?SM_CLOCK_MOD_TIME
005108H   005166H   00005FH   BYTE   UNIT     CODE           ?PR?_SCAN_INT_HUB_PROC?INT_HUB
005167H   0051C4H   00005EH   BYTE   UNIT     CODE           ?PR?_THERMO_HI_THRESHOLD_SET?THERMO
0051C5H   005222H   00005EH   BYTE   UNIT     CODE           ?PR?_INC_ONLY?SM_CLOCK_MOD_TIME
005223H   005280H   00005EH   BYTE   UNIT     CODE           ?PR?_SM_FUSE_SET?SM_FUSE_TEST
005281H   0052DDH   00005DH   BYTE   UNIT     CODE           ?PR?_SM_CLOCK_COUNTER_SUBMOD2?SM_CLOCK_COUNTER
0052DEH   00533AH   00005DH   BYTE   UNIT     CODE           ?PR?_SM_CLOCK_MOD_ALARM_SUBMOD0?SM_CLOCK_MOD_ALARM
00533BH   005397H   00005DH   BYTE   UNIT     CODE           ?PR?_SM_CLOCK_MOD_TIME_SUBMOD1?SM_CLOCK_MOD_TIME
005398H   0053F3H   00005CH   BYTE   UNIT     CODE           ?PR?_SM_CLOCK_TIMER_SUBMOD2?SM_CLOCK_TIMER
0053F4H   00544DH   00005AH   BYTE   UNIT     CODE           ?PR?REFRESH_LED?LED
00544EH   0054A7H   00005AH   BYTE   UNIT     CODE           ?PR?_SM_CLOCK_COUNTER_SUBMOD1?SM_CLOCK_COUNTER
0054A8H   005501H   00005AH   BYTE   UNIT     CODE           ?PR?_SM_CLOCK_MOD_ALARM_SUBMOD1?SM_CLOCK_MOD_ALARM
005502H   00555AH   000059H   BYTE   UNIT     CODE           ?PR?SM_DUMP_SUB_STATE?SM
00555BH   0055B3H   000059H   BYTE   UNIT     CODE           ?PR?_RTC_READ_DATA?RTC
0055B4H   00560CH   000059H   BYTE   UNIT     CODE           ?PR?_WRITE_ONLY?SM_FUSE_TEST
00560DH   005664H   000058H   BYTE   UNIT     CODE           ?PR?_LT_TIMER_SYNC_TO_ROM?LT_TIMER
005665H   0056BBH   000057H   BYTE   UNIT     CODE           ?PR?_RTC_WRITE_DATA?RTC
0056BCH   005712H   000057H   BYTE   UNIT     CODE           ?PR?_SM_CLOCK_MOD_ALARM_SUBMOD2?SM_CLOCK_MOD_ALARM
005713H   005769H   000057H   BYTE   UNIT     CODE           ?PR?_SM_FUSE_TIMER_SUBMOD1?SM_FUSE_TIMER
00576AH   0057C0H   000057H   BYTE   UNIT     CODE           ?PR?_INC_WRITE?SM_GLOBAL_FLAG_MOD
0057C1H   005815H   000055H   BYTE   UNIT     CODE           ?PR?_I2C_PUTS?I2C
005816H   005869H   000054H   BYTE   UNIT     CODE           ?PR?THERMO_POWER_ON?THERMO
00586AH   0058BDH   000054H   BYTE   UNIT     CODE           ?PR?THERMO
0058BEH   005911H   000054H   BYTE   UNIT     CODE           ?PR?_CMD_HELP?CMD_HELP
005912H   005964H   000053H   BYTE   UNIT     CODE           ?PR?_UPDATE_HG_MASK?SM_FUSE_TEST
005965H   0059B6H   000052H   BYTE   UNIT     CODE           ?PR?_DISPLAY_LOGO?MOD_COMMON
0059B7H   005A07H   000051H   BYTE   UNIT     CODE           ?PR?ALARM0_SYNC_TO_RTC?ALARM
005A08H   005A58H   000051H   BYTE   UNIT     CODE           ?PR?DELAY_TASK_CALL?DELAY_TASK
005A59H   005AA8H   000050H   BYTE   UNIT     CODE           ?PR?SM_DUMP_STATE?SM
005AA9H   005AF8H   000050H   BYTE   UNIT     CODE           ?PR?_MOD_PROC?KEY
005AF9H   005B48H   000050H   BYTE   UNIT     CODE           ?PR?_SET_PROC?KEY
005B49H   005B98H   000050H   BYTE   UNIT     CODE           ?PR?_LED_SET_CODE?LED
005B99H   005BE6H   00004EH   BYTE   UNIT     CODE           ?PR?SHELL
005BE7H   005C32H   00004CH   BYTE   UNIT     CODE           ?PR?MAIN?MAIN
005C33H   005C7EH   00004CH   BYTE   UNIT     CODE           ?PR?POWER_ENTER_POWERSAVE?POWER
005C7FH   005CCAH   00004CH   BYTE   UNIT     CODE           ?PR?_WRITE_ONLY?SM_CLOCK_MOD_ALARM
005CCBH   005D13H   000049H   BYTE   UNIT     CODE           ?PR?_DELAY_TASK_REG?DELAY_TASK
005D14H   005D5CH   000049H   BYTE   UNIT     CODE           ?PR?_SHELL_SEARCH_CMD_BY_NAME?SHELL
005D5DH   005DA5H   000049H   BYTE   UNIT     CODE           ?PR?_SM_CLOCK_DISPLAY_SUBMOD0?SM_CLOCK_DISPLAY
005DA6H   005DEDH   000048H   BYTE   UNIT     CODE           ?PR?_SM_CLOCK_TIMER_SUBMOD0?SM_CLOCK_TIMER
005DEEH   005E34H   000047H   BYTE   UNIT     CODE           ?PR?_CMD_DBG?CMD_DBG
005E35H   005E79H   000045H   BYTE   UNIT     CODE           ?PR?_INC_ONLY?SM_CLOCK_COUNTER
005E7AH   005EBDH   000044H   BYTE   UNIT     CODE           ?PR?_THERMO_TEMP_TO_HEX?THERMO
005EBEH   005F01H   000044H   BYTE   UNIT     CODE           ?PR?_CMD_REBOOT?CMD_REBOOT
005F02H   005F44H   000043H   BYTE   UNIT     CODE           ?PR?BEEPER_INITIALIZE?BEEPER
005F45H   005F86H   000042H   BYTE   UNIT     CODE           ?PR?BEEPER_BEEP_BEEP?BEEPER
005F87H   005FC6H   000040H   BYTE   UNIT     CODE           ?PR?SCAN_LT_TIMER?LT_TIMER
005FC7H   006006H   000040H   BYTE   UNIT     CODE           ?PR?_SM_CLOCK_COUNTER_SUBMOD3?SM_CLOCK_COUNTER
006007H   006045H   00003FH   BYTE   UNIT     CODE           ?PR?SM_SHOW_CURRENT?SM
006046H   006084H   00003FH   BYTE   UNIT     CODE           ?PR?BEEPER_BEEP_BEEP_ALWAYS?BEEPER
006085H   0060C3H   00003FH   BYTE   UNIT     CODE           ?PR?_DISPLAY_PREARM?SM_FUSE_TIMER
0060C4H   006101H   00003EH   BYTE   UNIT     CODE           ?PR?__RTC_SET_HOUR?RTC
006102H   00613FH   00003EH   BYTE   UNIT     CODE           ?PR?_FUSE_SET_FUSE_BROKE?FUSE
006140H   00617DH   00003EH   BYTE   UNIT     CODE           ?PR?ROM_INITIALIZE?ROM
00617EH   0061BAH   00003DH   BYTE   UNIT     CODE           ?PR?THERMO_INITIALIZE?THERMO
0061BBH   0061F7H   00003DH   BYTE   UNIT     CODE           ?PR?_DISPLAY_TIMER?SM_FUSE_TIMER
0061F8H   006233H   00003CH   BYTE   UNIT     CODE           ?PR?DUMP_RTC?RTC
006234H   00626EH   00003BH   BYTE   UNIT     CODE           ?PR?LT_TIMER_SYNC_TO_RTC?LT_TIMER
00626FH   0062A9H   00003BH   BYTE   UNIT     CODE           ?PR?CMD_SM
0062AAH   0062E3H   00003AH   BYTE   UNIT     CODE           ?PR?LED_INITIALIZE?LED
0062E4H   00631DH   00003AH   BYTE   UNIT     CODE           ?PR?LT_TIMER_SUB_MIN_HOUR?LT_TIMER
00631EH   006357H   00003AH   BYTE   UNIT     CODE           ?PR?LT_TIMER_SUB_HOUR_DATE?LT_TIMER
006358H   006391H   00003AH   BYTE   UNIT     CODE           ?PR?SERIAL_HUB_INITIALIZE?SERIAL_HUB
006392H   0063CBH   00003AH   BYTE   UNIT     CODE           ?PR?_ENTER_ALARM?SM_CLOCK_MOD_ALARM
0063CCH   006405H   00003AH   BYTE   UNIT     CODE           ?PR?_SM_FUSE_TEST_INIT?SM_FUSE_TEST
LX51 LINKER/LOCATER V4.66.87.0                                                        05/09/2018  21:28:12  PAGE 8


006406H   00643EH   000039H   BYTE   UNIT     CODE           ?PR?_SHOW_SLOT_TITLE?SM_CLOCK_TIMER
00643FH   006477H   000039H   BYTE   UNIT     CODE           ?PR?_UPDATE_PASSWORD?SM_FUSE_PARAM
006478H   0064B0H   000039H   BYTE   UNIT     CODE           ?PR?_SM_FUSE_DETONATE_SUBMOD0?SM_FUSE_DETONATE
0064B1H   0064E9H   000039H   BYTE   UNIT     CODE           ?PR?_CMD_INT?CMD_INT
0064EAH   006521H   000038H   BYTE   UNIT     CODE           ?PR?SM_DUMP_TABLE?SM
006522H   006559H   000038H   BYTE   UNIT     CODE           ?PR?CLOCK0_ISR?CLOCK
00655AH   006591H   000038H   BYTE   UNIT     CODE           ?PR?_ENTER_TIME?SM_FUSE_PARAM
006592H   0065C8H   000037H   BYTE   UNIT     CODE           ?PR?TIMER
0065C9H   0065FFH   000037H   BYTE   UNIT     CODE           ?PR?LT_TIMER_SYNC_FROM_ROM?LT_TIMER
006600H   006636H   000037H   BYTE   UNIT     CODE           ?PR?_DEBUG_PRINTF?DEBUG
006637H   00666CH   000036H   BYTE   UNIT     CODE           ?PR?_MOD_SET_PROC?KEY
00666DH   0066A2H   000036H   BYTE   UNIT     CODE           ?PR?FUSE_TRIGGER?FUSE
0066A3H   0066D8H   000036H   BYTE   UNIT     CODE           ?PR?SM_CLOCK_MOD_TIME
0066D9H   00670DH   000035H   BYTE   UNIT     CODE           ?PR?SHELL_DUMP_CMD?SHELL
00670EH   006742H   000035H   BYTE   UNIT     CODE           ?PR?SM_CLOCK_COUNTER
006743H   006777H   000035H   BYTE   UNIT     CODE           ?PR?_VPRINTF?VPRINTF
006778H   0067ABH   000034H   BYTE   UNIT     CODE           ?PR?ALARM_SAVE_ROM?ALARM
0067ACH   0067DFH   000034H   BYTE   UNIT     CODE           ?PR?_ROM_READ?ROM
0067E0H   006813H   000034H   BYTE   UNIT     CODE           ?PR?_INC_ONLY?SM_CLOCK_MOD_ALARM
006814H   006847H   000034H   BYTE   UNIT     CODE           ?PR?_SM_CLOCK_MOD_TIME_SUBMOD2?SM_CLOCK_MOD_TIME
006848H   00687AH   000033H   BYTE   UNIT     CODE           ?PR?ALARM_LOAD_ROM?ALARM
00687BH   0068ADH   000033H   BYTE   UNIT     CODE           ?PR?ALARM1_SYNC_TO_RTC?ALARM
0068AEH   0068E0H   000033H   BYTE   UNIT     CODE           ?PR?POWER_INITIALIZE?POWER
0068E1H   006913H   000033H   BYTE   UNIT     CODE           ?PR?_CMD_I2C?CMD_I2C
006914H   006945H   000032H   BYTE   UNIT     CODE           ?PR?INT0_ISR?KEY
006946H   006977H   000032H   BYTE   UNIT     CODE           ?PR?_SM_CLOCK_POWERSAVE?SM_CLOCK_POWERSAVE
006978H   0069A8H   000031H   BYTE   UNIT     CODE           ?PR?THERMO_GET_CURRENT?THERMO
0069A9H   0069D9H   000031H   BYTE   UNIT     CODE           ?PR?_ROM_WRITE?ROM
0069DAH   006A09H   000030H   BYTE   UNIT     CODE           ?PR?POWER_LEAVE_POWERSAVE?POWER
006A0AH   006A39H   000030H   BYTE   UNIT     CODE           ?PR?POWER_TEST_POWERSAVE_TO?POWER
006A3AH   006A69H   000030H   BYTE   UNIT     CODE           ?PR?_SERIAL_SET_CTL_BIT?SERIAL_HUB
006A6AH   006A99H   000030H   BYTE   UNIT     CODE           ?PR?DISPLAY_PASSWORD?SM_FUSE_TIMER
006A9AH   006AC8H   00002FH   BYTE   UNIT     CODE           ?PR?_PUTBUF?COM
006AC9H   006AF7H   00002FH   BYTE   UNIT     CODE           ?PR?I2C_READ?I2C
006AF8H   006B26H   00002FH   BYTE   UNIT     CODE           ?PR?_ALARM0_TEST_ENABLE?ALARM
006B27H   006B55H   00002FH   BYTE   UNIT     CODE           ?PR?SCAN_MPU?MPU
006B56H   006B83H   00002EH   BYTE   UNIT     CODE           ?PR?SHOW_VERSION?MAIN
006B84H   006BB1H   00002EH   BYTE   UNIT     CODE           ?PR?_SERIAL_TEST_CTL_BIT?SERIAL_HUB
006BB2H   006BDFH   00002EH   BYTE   UNIT     CODE           ?PR?THERMO_POWER_OFF?THERMO
006BE0H   006C0DH   00002EH   BYTE   UNIT     CODE           ?PR?MPU_POWER_ON?MPU
006C0EH   006C3BH   00002EH   BYTE   UNIT     CODE           ?PR?MPU_POWER_OFF?MPU
006C3CH   006C68H   00002DH   BYTE   UNIT     CODE           ?PR?BEEPER_ISR?BEEPER
006C69H   006C95H   00002DH   BYTE   UNIT     CODE           ?PR?CLOCK_INITIALIZE?CLOCK
006C96H   006CC2H   00002DH   BYTE   UNIT     CODE           ?PR?_SM_CLOCK_DISPLAY_SUBMOD1?SM_CLOCK_DISPLAY
006CC3H   006CEEH   00002CH   BYTE   UNIT     CODE           ?PR?__RTC_SET_MIN_SEC?RTC
006CEFH   006D1AH   00002CH   BYTE   UNIT     CODE           ?PR?__RTC_SET_DATE?RTC
006D1BH   006D46H   00002CH   BYTE   UNIT     CODE           ?PR?_ALARM_PROC?ALARM
006D47H   006D72H   00002CH   BYTE   UNIT     CODE           ?PR?FUSE_POWER_ON?FUSE
006D73H   006D9EH   00002CH   BYTE   UNIT     CODE           ?PR?FUSE_POWER_OFF?FUSE
006D9FH   006DCAH   00002CH   BYTE   UNIT     CODE           ?PR?_WRITE_ONLY?SM_CLOCK_COUNTER
006DCBH   006DF5H   00002BH   BYTE   UNIT     CODE           ?PR?_SM_CLOCK_MOD_ALARM_SUBMOD3?SM_CLOCK_MOD_ALARM
006DF6H   006E20H   00002BH   BYTE   UNIT     CODE           ?PR?_SM_CLOCK_MOD_ALARM_SUBMOD4?SM_CLOCK_MOD_ALARM
006E21H   006E4BH   00002BH   BYTE   UNIT     CODE           ?PR?_ENTER_YYMMDD?SM_CLOCK_MOD_TIME
006E4CH   006E75H   00002AH   BYTE   UNIT     CODE           ?PR?BEEPER_BEEP?BEEPER
006E76H   006E9FH   00002AH   BYTE   UNIT     CODE           ?PR?_ENTER_HHMMSS?SM_CLOCK_COUNTER
006EA0H   006EC9H   00002AH   BYTE   UNIT     CODE           ?PR?_ENTER_HHMMSS?SM_CLOCK_MOD_TIME
006ECAH   006EF3H   00002AH   BYTE   UNIT     CODE           ?PR?_SM_FUSE_PARAM_INIT?SM_FUSE_PARAM
006EF4H   006F1DH   00002AH   BYTE   UNIT     CODE           ?PR?_SM_GLOBAL_FLAG_MOD?SM_GLOBAL_FLAG_MOD
006F1EH   006F46H   000029H   BYTE   UNIT     CODE           ?PR?_SM_CLOCK_DISPLAY_SUBMOD3?SM_CLOCK_DISPLAY
006F47H   006F6EH   000028H   BYTE   UNIT     CODE           ?PR?COM_INITIALIZE?COM
006F6FH   006F96H   000028H   BYTE   UNIT     CODE           ?PR?_RTC_SET_HOUR_12?RTC
006F97H   006FBEH   000028H   BYTE   UNIT     CODE           ?PR?FUSE_ENABLE?FUSE
006FBFH   006FE6H   000028H   BYTE   UNIT     CODE           ?PR?HG_ENABLE?HG
006FE7H   00700DH   000027H   BYTE   UNIT     CODE           ?PR?_INT_HUB_TEST_BIT?INT_HUB
00700EH   007034H   000027H   BYTE   UNIT     CODE           ?PR?_SM_FUSE_TIMER_SUBMOD3?SM_FUSE_TIMER
LX51 LINKER/LOCATER V4.66.87.0                                                        05/09/2018  21:28:12  PAGE 9


007035H   00705AH   000026H   BYTE   UNIT     CODE           ?PR?LED_SAVE?LED
00705BH   007080H   000026H   BYTE   UNIT     CODE           ?PR?LED_RESTORE?LED
007081H   0070A6H   000026H   BYTE   UNIT     CODE           ?PR?FUSE_SET_TRIPWIRE_BROKE?FUSE
0070A7H   0070CCH   000026H   BYTE   UNIT     CODE           ?PR?_SM_CLOCK_COUNTER_SUBMOD5?SM_CLOCK_COUNTER
0070CDH   0070F2H   000026H   BYTE   UNIT     CODE           ?PR?CMD_BEEPER
0070F3H   007117H   000025H   BYTE   UNIT     CODE           ?PR?SM_INITIALIZE?SM
007118H   00713CH   000025H   BYTE   UNIT     CODE           ?PR?_RTC_ENABLE_ALARM_INT?RTC
00713DH   007160H   000024H   BYTE   UNIT     CODE           ?PR?__RTC_GET_HOUR?RTC
007161H   007184H   000024H   BYTE   UNIT     CODE           ?PR?POWER_INC_POWERSAVE_TO?POWER
007185H   0071A8H   000024H   BYTE   UNIT     CODE           ?PR?_TIMER_SAVE?TIMER
0071A9H   0071CCH   000024H   BYTE   UNIT     CODE           ?PR?_THERMO_HEX_TO_TEMP?THERMO
0071CDH   0071F0H   000024H   BYTE   UNIT     CODE           ?PR?MPU_READ_INT_STATUS?MPU
0071F1H   007214H   000024H   BYTE   UNIT     CODE           ?PR?_SM_CLOCK_DISPLAY_SUBMOD2?SM_CLOCK_DISPLAY
007215H   007237H   000023H   BYTE   UNIT     CODE           ?PR?LT_TIMER_LEAVE_POWERSAVE?LT_TIMER
007238H   00725AH   000023H   BYTE   UNIT     CODE           ?PR?THERMO_LO_THRESHOLD_GET?THERMO
00725BH   00727DH   000023H   BYTE   UNIT     CODE           ?PR?_SM_CLOCK_COUNTER_SUBMOD4?SM_CLOCK_COUNTER
00727EH   0072A0H   000023H   BYTE   UNIT     CODE           ?PR?_SM_FUSE_DETONATE_INIT?SM_FUSE_DETONATE
0072A1H   0072C2H   000022H   BYTE   UNIT     CODE           ?PR?I2C_GETACK?I2C
0072C3H   0072E4H   000022H   BYTE   UNIT     CODE           ?PR?BEEPER_PLAY_MUSIC?BEEPER
0072E5H   007306H   000022H   BYTE   UNIT     CODE           ?PR?_TOGGLE_ALARM?SM_CLOCK_MOD_ALARM
007307H   007328H   000022H   BYTE   UNIT     CODE           ?PR?_INC_WRITE?SM_FUSE_TEST
007329H   00734AH   000022H   BYTE   UNIT     CODE           ?PR?SM_FUSE_PARAM
00734BH   00736BH   000021H   BYTE   UNIT     CODE           ?PR?THERMO_HI_THRESHOLD_GET?THERMO
00736CH   00738CH   000021H   BYTE   UNIT     CODE           ?PR?SM_CLOCK_TIMER
00738DH   0073ADH   000021H   BYTE   UNIT     CODE           ?PR?TOGGLE_ALARM_BS?SM_CLOCK_MOD_ALARM
0073AEH   0073CEH   000021H   BYTE   UNIT     CODE           ?PR?CMD_I2C
0073CFH   0073EEH   000020H   BYTE   UNIT     CODE           ?C_C51STARTUP
0073EFH   00740EH   000020H   BYTE   UNIT     CODE           ?PR?ALARM_SWITCH_OFF?ALARM
00740FH   00742EH   000020H   BYTE   UNIT     CODE           ?PR?CLOCK_INC_DATE?CLOCK
00742FH   00744EH   000020H   BYTE   UNIT     CODE           ?PR?LT_TIMER_SWITCH_OFF?LT_TIMER
00744FH   00746EH   000020H   BYTE   UNIT     CODE           ?PR?DELAY_TASK
00746FH   00748EH   000020H   BYTE   UNIT     CODE           ?PR?TEST_AUTOSWITCH?SM_CLOCK_DISPLAY
00748FH   0074AEH   000020H   BYTE   UNIT     CODE           ?PR?SM_CLOCK_DISPLAY
0074AFH   0074CEH   000020H   BYTE   UNIT     CODE           ?PR?SM_FUSE_TIMER
0074CFH   0074EEH   000020H   BYTE   UNIT     CODE           ?PR?CMD_THERMO
0074EFH   00750DH   00001FH   BYTE   UNIT     CODE           ?PR?_I2C_WRITE?I2C
00750EH   00752CH   00001FH   BYTE   UNIT     CODE           ?PR?MPU_ENABLE?MPU
00752DH   00754BH   00001FH   BYTE   UNIT     CODE           ?PR?_SM_CLOCK_DISPLAY_INIT?SM_CLOCK_DISPLAY
00754CH   00756AH   00001FH   BYTE   UNIT     CODE           ?PR?_SM_FUSE_POWERSAVE_SUBMOD0?SM_FUSE_POWERSAVE
00756BH   007588H   00001EH   BYTE   UNIT     CODE           ?PR?LT_TIMER_START_RTC?LT_TIMER
007589H   0075A6H   00001EH   BYTE   UNIT     CODE           ?PR?LT_TIMER_STOP_RTC?LT_TIMER
0075A7H   0075C4H   00001EH   BYTE   UNIT     CODE           ?PR?LT_TIMER_SUB_SEC_MIN?LT_TIMER
0075C5H   0075E1H   00001DH   BYTE   UNIT     CODE           ?PR?RTC_ALARM_SET_HOUR_12?RTC
0075E2H   0075FEH   00001DH   BYTE   UNIT     CODE           ?PR?_RTC_ALARM_SET_SEC?RTC
0075FFH   00761BH   00001DH   BYTE   UNIT     CODE           ?PR?_RTC_TEST_ALARM_INT?RTC
00761CH   007638H   00001DH   BYTE   UNIT     CODE           ?PR?_RTC_TEST_ALARM_INT_FLAG?RTC
007639H   007655H   00001DH   BYTE   UNIT     CODE           ?PR?LED
007656H   007672H   00001DH   BYTE   UNIT     CODE           ?PR?_CLOCK_GET_MON_DATE?CLOCK
007673H   00768FH   00001DH   BYTE   UNIT     CODE           ?PR?SM_CLOCK_MOD_ALARM
007690H   0076ACH   00001DH   BYTE   UNIT     CODE           ?PR?_SM_FUSE_TIMER_INIT?SM_FUSE_TIMER
0076ADH   0076C8H   00001CH   BYTE   UNIT     CODE           ?PR?_TIMER_INC_HOUR?TIMER
0076C9H   0076E4H   00001CH   BYTE   UNIT     CODE           ?PR?_TIMER_GET_MS10?TIMER
0076E5H   007700H   00001CH   BYTE   UNIT     CODE           ?PR?_SM_FUSE_TEST_SUBMOD1?SM_FUSE_TEST
007701H   00771CH   00001CH   BYTE   UNIT     CODE           ?PR?_SM_FUSE_TEST_SUBMOD2?SM_FUSE_TEST
00771DH   007738H   00001CH   BYTE   UNIT     CODE           ?PR?_SM_FUSE_TEST_SUBMOD3?SM_FUSE_TEST
007739H   007754H   00001CH   BYTE   UNIT     CODE           ?PR?_SM_FUSE_TEST_SUBMOD4?SM_FUSE_TEST
007755H   007770H   00001CH   BYTE   UNIT     CODE           ?PR?_SM_FUSE_TEST_SUBMOD5?SM_FUSE_TEST
007771H   00778CH   00001CH   BYTE   UNIT     CODE           ?PR?_SM_FUSE_TEST_SUBMOD6?SM_FUSE_TEST
00778DH   0077A8H   00001CH   BYTE   UNIT     CODE           ?PR?_SM_FUSE_TEST_SUBMOD7?SM_FUSE_TEST
0077A9H   0077C4H   00001CH   BYTE   UNIT     CODE           ?PR?_SM_FUSE_TEST_SUBMOD8?SM_FUSE_TEST
0077C5H   0077E0H   00001CH   BYTE   UNIT     CODE           ?PR?_SM_FUSE_PARAM_SUBMOD1?SM_FUSE_PARAM
0077E1H   0077FCH   00001CH   BYTE   UNIT     CODE           ?PR?_SM_FUSE_PARAM_SUBMOD2?SM_FUSE_PARAM
0077FDH   007818H   00001CH   BYTE   UNIT     CODE           ?PR?_SM_FUSE_PARAM_SUBMOD3?SM_FUSE_PARAM
007819H   007834H   00001CH   BYTE   UNIT     CODE           ?PR?_SM_FUSE_PARAM_SUBMOD4?SM_FUSE_PARAM
007835H   007850H   00001CH   BYTE   UNIT     CODE           ?PR?_SM_FUSE_PARAM_SUBMOD5?SM_FUSE_PARAM
LX51 LINKER/LOCATER V4.66.87.0                                                        05/09/2018  21:28:12  PAGE 10


007851H   00786CH   00001CH   BYTE   UNIT     CODE           ?PR?_SM_GLOBAL_FLAG_MOD_SUBMOD2?SM_GLOBAL_FLAG_MOD
00786DH   007887H   00001BH   BYTE   UNIT     CODE           ?PR?POWER_5V_ENABLE?POWER
007888H   0078A2H   00001BH   BYTE   UNIT     CODE           ?PR?BEEPER
0078A3H   0078BDH   00001BH   BYTE   UNIT     CODE           ?PR?HG_POWER_ON?HG
0078BEH   0078D8H   00001BH   BYTE   UNIT     CODE           ?PR?SERIAL_CTL_OUT?SERIAL_HUB
0078D9H   0078F3H   00001BH   BYTE   UNIT     CODE           ?PR?ROLL_BACK?SM_FUSE_TIMER
0078F4H   00790EH   00001BH   BYTE   UNIT     CODE           ?PR?_SM_FUSE_TIMER_SUBMOD4?SM_FUSE_TIMER
00790FH   007928H   00001AH   BYTE   UNIT     CODE           ?PR?_RTC_ALARM_SET_DATE?RTC
007929H   007942H   00001AH   BYTE   UNIT     CODE           ?PR?RTC_ENTER_POWERSAVE?RTC
007943H   00795CH   00001AH   BYTE   UNIT     CODE           ?PR?_POWER_PROC?POWER
00795DH   007976H   00001AH   BYTE   UNIT     CODE           ?PR?_FUSE_PROC?FUSE
007977H   007990H   00001AH   BYTE   UNIT     CODE           ?PR?LT_TIMER_DISPLAY?LT_TIMER
007991H   0079AAH   00001AH   BYTE   UNIT     CODE           ?PR?_SM_CLOCK_TIMER_INIT?SM_CLOCK_TIMER
0079ABH   0079C4H   00001AH   BYTE   UNIT     CODE           ?PR?_SM_CLOCK_MOD_TIME_INIT?SM_CLOCK_MOD_TIME
0079C5H   0079DEH   00001AH   BYTE   UNIT     CODE           ?PR?_ENTER_PASSWORD?SM_FUSE_PARAM
0079DFH   0079F7H   000019H   BYTE   UNIT     CODE           ?PR?_PUTCHAR?COM
0079F8H   007A10H   000019H   BYTE   UNIT     CODE           ?PR?KEY_INITIALIZE?KEY
007A11H   007A29H   000019H   BYTE   UNIT     CODE           ?PR?_TIMER_GET_HOUR?TIMER
007A2AH   007A42H   000019H   BYTE   UNIT     CODE           ?PR?_TIMER_GET_MIN?TIMER
007A43H   007A5BH   000019H   BYTE   UNIT     CODE           ?PR?_TIMER_INC_MIN?TIMER
007A5CH   007A74H   000019H   BYTE   UNIT     CODE           ?PR?_TIMER_GET_SEC?TIMER
007A75H   007A8DH   000019H   BYTE   UNIT     CODE           ?PR?_TIMER_INC_SEC?TIMER
007A8EH   007AA6H   000019H   BYTE   UNIT     CODE           ?PR?SERIAL_HUB
007AA7H   007ABFH   000019H   BYTE   UNIT     CODE           ?PR?_SM_FUSE_PARAM_SUBMOD0?SM_FUSE_PARAM
007AC0H   007AD8H   000019H   BYTE   UNIT     CODE           ?PR?_SM_GLOBAL_FLAG_MOD_SUBMOD0?SM_GLOBAL_FLAG_MOD
007AD9H   007AF1H   000019H   BYTE   UNIT     CODE           ?PR?_SM_GLOBAL_FLAG_MOD_SUBMOD1?SM_GLOBAL_FLAG_MOD
007AF2H   007B09H   000018H   BYTE   UNIT     CODE           ?PR?CLOCK_LEAVE_POWERSAVE?CLOCK
007B0AH   007B21H   000018H   BYTE   UNIT     CODE           ?PR?TIMER_CLR?TIMER
007B22H   007B39H   000018H   BYTE   UNIT     CODE           ?PR?CMD_DBG
007B3AH   007B50H   000017H   BYTE   UNIT     CODE           ?PR?COM
007B51H   007B67H   000017H   BYTE   UNIT     CODE           ?PR?_RTC_CLR_ALARM_INT_FLAG?RTC
007B68H   007B7EH   000017H   BYTE   UNIT     CODE           ?PR?_I2C_GET?I2C
007B7FH   007B95H   000017H   BYTE   UNIT     CODE           ?PR?_LED_CLR_BLINK?LED
007B96H   007BACH   000017H   BYTE   UNIT     CODE           ?PR?POWER_GET_POWERSAVE_TO?POWER
007BADH   007BC3H   000017H   BYTE   UNIT     CODE           ?PR?BEEPER_INC_MUSIC_INDEX?BEEPER
007BC4H   007BDAH   000017H   BYTE   UNIT     CODE           ?PR?_CLOCK_IS_LEAP_YEAR?CLOCK
007BDBH   007BF1H   000017H   BYTE   UNIT     CODE           ?PR?HG_CB_SET_ENABLE?HG
007BF2H   007C08H   000017H   BYTE   UNIT     CODE           ?PR?LT_TIMER_SWITCH_DISPLAY?LT_TIMER
007C09H   007C1FH   000017H   BYTE   UNIT     CODE           ?PR?DISPLAY_DETONATE?SM_FUSE_DETONATE
007C20H   007C35H   000016H   BYTE   UNIT     CODE           ?PR?RTC_ALARM_GET_HOUR?RTC
007C36H   007C4BH   000016H   BYTE   UNIT     CODE           ?PR?RTC_ALARM_GET_HOUR_12?RTC
007C4CH   007C61H   000016H   BYTE   UNIT     CODE           ?PR?RTC_ALARM_GET_MIN?RTC
007C62H   007C77H   000016H   BYTE   UNIT     CODE           ?PR?_RTC_ALARM_SET_DAY?RTC
007C78H   007C8DH   000016H   BYTE   UNIT     CODE           ?PR?I2C_STOP?I2C
007C8EH   007CA3H   000016H   BYTE   UNIT     CODE           ?PR?_LED_SET_BLINK?LED
007CA4H   007CB9H   000016H   BYTE   UNIT     CODE           ?PR?CLOCK_INC_MONTH?CLOCK
007CBAH   007CCFH   000016H   BYTE   UNIT     CODE           ?PR?CLOCK_LEAVE_SHELL?CLOCK
007CD0H   007CE5H   000016H   BYTE   UNIT     CODE           ?PR?TIMER_START?TIMER
007CE6H   007CFBH   000016H   BYTE   UNIT     CODE           ?PR?_THERMO_PROC?THERMO
007CFCH   007D11H   000016H   BYTE   UNIT     CODE           ?PR?MPU_INITIALIZE?MPU
007D12H   007D27H   000016H   BYTE   UNIT     CODE           ?PR?CMD_MPU
007D28H   007D3CH   000015H   BYTE   UNIT     CODE           ?PR?RTC_ALARM_GET_DATE?RTC
007D3DH   007D51H   000015H   BYTE   UNIT     CODE           ?PR?LED_LEAVE_POWERSAVE?LED
007D52H   007D66H   000015H   BYTE   UNIT     CODE           ?PR?ALARM
007D67H   007D7BH   000015H   BYTE   UNIT     CODE           ?PR?CLOCK_INC_YEAR?CLOCK
007D7CH   007D90H   000015H   BYTE   UNIT     CODE           ?PR?LT_TIMER_ENTER_POWERSAVE?LT_TIMER
007D91H   007DA5H   000015H   BYTE   UNIT     CODE           ?PR?_SM_CLOCK_COUNTER_INIT?SM_CLOCK_COUNTER
007DA6H   007DBAH   000015H   BYTE   UNIT     CODE           ?PR?_SM_GLOBAL_FLAG_MOD_INIT?SM_GLOBAL_FLAG_MOD
007DBBH   007DCEH   000014H   BYTE   UNIT     CODE           ?PR?COM_TRY_GET_KEY?COM
007DCFH   007DE2H   000014H   BYTE   UNIT     CODE           ?PR?RTC_ALARM_GET_DAY?RTC
007DE3H   007DF6H   000014H   BYTE   UNIT     CODE           ?PR?RTC_ALARM_GET_SEC?RTC
007DF7H   007E0AH   000014H   BYTE   UNIT     CODE           ?PR?RTC_LEAVE_POWERSAVE?RTC
007E0BH   007E1EH   000014H   BYTE   UNIT     CODE           ?PR?_I2C_PUT?I2C
007E1FH   007E32H   000014H   BYTE   UNIT     CODE           ?PR?TASK_INITIALIZE?TASK
007E33H   007E46H   000014H   BYTE   UNIT     CODE           ?PR?BEEPER_INC_MUSIC_TO?BEEPER
LX51 LINKER/LOCATER V4.66.87.0                                                        05/09/2018  21:28:12  PAGE 11


007E47H   007E5AH   000014H   BYTE   UNIT     CODE           ?PR?TOGGLE_ALARM_MUSIC?SM_CLOCK_MOD_ALARM
007E5BH   007E6EH   000014H   BYTE   UNIT     CODE           ?PR?_SM_FUSE_POWERSAVE_SUBMOD1?SM_FUSE_POWERSAVE
007E6FH   007E82H   000014H   BYTE   UNIT     CODE           ?PR?CMD_HELP
007E83H   007E96H   000014H   BYTE   UNIT     CODE           ?PR?GETCHAR?GETCHAR
007E97H   007EAAH   000014H   BYTE   UNIT     CODE           ?PR?_ISSPACE?ISSPACE
007EABH   007EBDH   000013H   BYTE   UNIT     CODE           ?PR?_TIME_PROC?SM
007EBEH   007ED0H   000013H   BYTE   UNIT     CODE           ?PR?SCAN_RTC?RTC
007ED1H   007EE3H   000013H   BYTE   UNIT     CODE           ?PR?_RTC_ALARM_SET_HOUR?RTC
007EE4H   007EF6H   000013H   BYTE   UNIT     CODE           ?PR?_RTC_ALARM_SET_MIN?RTC
007EF7H   007F09H   000013H   BYTE   UNIT     CODE           ?PR?INT_HUB
007F0AH   007F1CH   000013H   BYTE   UNIT     CODE           ?PR?MPU
007F1DH   007F2EH   000012H   BYTE   UNIT     CODE           ?PR?_RTC_DATE_SET_DAY?RTC
007F2FH   007F40H   000012H   BYTE   UNIT     CODE           ?PR?I2C_PUTACK?I2C
007F41H   007F52H   000012H   BYTE   UNIT     CODE           ?PR?TIMER_INITIALIZE?TIMER
007F53H   007F64H   000012H   BYTE   UNIT     CODE           ?PR?__HG_GET_STATE?HG
007F65H   007F76H   000012H   BYTE   UNIT     CODE           ?PR?HG_GET_STATE?HG
007F77H   007F88H   000012H   BYTE   UNIT     CODE           ?PR?LT_TIMER_INITIALIZE?LT_TIMER
007F89H   007F9AH   000012H   BYTE   UNIT     CODE           ?PR?THERMO_HI_THRESHOLD_DEC?THERMO
007F9BH   007FACH   000012H   BYTE   UNIT     CODE           ?PR?THERMO_HI_THRESHOLD_INC?THERMO
007FADH   007FBEH   000012H   BYTE   UNIT     CODE           ?PR?THERMO_LO_THRESHOLD_DEC?THERMO
007FBFH   007FD0H   000012H   BYTE   UNIT     CODE           ?PR?THERMO_LO_THRESHOLD_INC?THERMO
007FD1H   007FE2H   000012H   BYTE   UNIT     CODE           ?PR?_MPU_THRESHOLD_INC?MPU
007FE3H   007FF4H   000012H   BYTE   UNIT     CODE           ?PR?ROLL_BACK?SM_FUSE_POWERSAVE
007FF5H   008005H   000011H   BYTE   UNIT     CODE           ?PR?_SM_SET_STATE?SM
008006H   008016H   000011H   BYTE   UNIT     CODE           ?PR?I2C_DELAY?I2C
008017H   008027H   000011H   BYTE   UNIT     CODE           ?PR?KEY
008028H   008038H   000011H   BYTE   UNIT     CODE           ?PR?LED_CLEAR?LED
008039H   008049H   000011H   BYTE   UNIT     CODE           ?PR?LED_ENTER_POWERSAVE?LED
00804AH   00805AH   000011H   BYTE   UNIT     CODE           ?PR?INT1_ISR?INT_HUB
00805BH   00806BH   000011H   BYTE   UNIT     CODE           ?PR?_THERMO_THRESHOLD_INC?THERMO
00806CH   00807BH   000010H   BYTE   UNIT     CODE           ?PR?_GETKEY?COM
00807CH   00808BH   000010H   BYTE   UNIT     CODE           ?PR?RTC_TIME_SET_HOUR_12?RTC
00808CH   00809BH   000010H   BYTE   UNIT     CODE           ?PR?TIMER_SET_LED_AUTOREFRESH?TIMER
00809CH   0080ABH   000010H   BYTE   UNIT     CODE           ?PR?_INC_WRITE?SM_CLOCK_MOD_ALARM
0080ACH   0080BBH   000010H   BYTE   UNIT     CODE           ?PR?_INC_AND_WRITE?SM_CLOCK_MOD_TIME
0080BCH   0080CBH   000010H   BYTE   UNIT     CODE           ?PR?SM_POWER_PACK_DISPLAY
0080CCH   0080DBH   000010H   BYTE   UNIT     CODE           ?PR?SM_POWER_PACK_POWERSAVE
0080DCH   0080EBH   000010H   BYTE   UNIT     CODE           ?PR?SM_FUSE_POWERSAVE
0080ECH   0080FAH   00000FH   BYTE   UNIT     CODE           ?PR?TASK
0080FBH   008109H   00000FH   BYTE   UNIT     CODE           ?PR?_LED_CLR_DP?LED
00810AH   008118H   00000FH   BYTE   UNIT     CODE           ?PR?_LED_SET_DP?LED
008119H   008127H   00000FH   BYTE   UNIT     CODE           ?PR?ALARM_INITIALIZE?ALARM
008128H   008136H   00000FH   BYTE   UNIT     CODE           ?PR?ALARM_SWITCH_ON?ALARM
008137H   008145H   00000FH   BYTE   UNIT     CODE           ?PR?LT_TIMER_RESET?LT_TIMER
008146H   008154H   00000FH   BYTE   UNIT     CODE           ?PR?_SM_CLOCK_MOD_ALARM_INIT?SM_CLOCK_MOD_ALARM
008155H   008163H   00000FH   BYTE   UNIT     CODE           ?PR?SM_FUSE_DETONATE
008164H   008172H   00000FH   BYTE   UNIT     CODE           ?PR?SM_GLOBAL_FLAG_MOD
008173H   008181H   00000FH   BYTE   UNIT     CODE           ?PR?CMD_TASK
008182H   008190H   00000FH   BYTE   UNIT     CODE           ?PR?_ISDIGIT?ISDIGIT
008191H   00819EH   00000EH   BYTE   UNIT     CODE           ?PR?COM_ENTER_POWERSAVE?COM
00819FH   0081ACH   00000EH   BYTE   UNIT     CODE           ?PR?ALARM0_INC_MIN?ALARM
0081ADH   0081BAH   00000EH   BYTE   UNIT     CODE           ?PR?ALARM0_INC_HOUR?ALARM
0081BBH   0081C8H   00000EH   BYTE   UNIT     CODE           ?PR?_DELAY_10US?MISC
0081C9H   0081D6H   00000EH   BYTE   UNIT     CODE           ?PR?_DELAY_MS?MISC
0081D7H   0081E4H   00000EH   BYTE   UNIT     CODE           ?PR?_BEEPER_STOP_PLAY?BEEPER
0081E5H   0081F2H   00000EH   BYTE   UNIT     CODE           ?PR?CLOCK_ENTER_POWERSAVE?CLOCK
0081F3H   008200H   00000EH   BYTE   UNIT     CODE           ?PR?LT_TIMER_START_RAM?LT_TIMER
008201H   00820EH   00000EH   BYTE   UNIT     CODE           ?PR?_MPU_THRESHOLD_SET?MPU
00820FH   00821CH   00000EH   BYTE   UNIT     CODE           ?PR?INC_PASSWORD?SM_FUSE_TIMER
00821DH   008229H   00000DH   BYTE   UNIT     CODE           ?PR?HG_POWER_OFF?HG
00822AH   008235H   00000CH   BYTE   UNIT     CODE           ?PR?RTC_DATE_GET_YEAR?RTC
008236H   008241H   00000CH   BYTE   UNIT     CODE           ?PR?RTC_DATE_GET_MONTH?RTC
008242H   00824DH   00000CH   BYTE   UNIT     CODE           ?PR?TIMER_ENTER_POWERSAVE?TIMER
00824EH   008259H   00000CH   BYTE   UNIT     CODE           ?PR?FUSE_INITIALIZE?FUSE
00825AH   008265H   00000CH   BYTE   UNIT     CODE           ?PR?HG_INITIALIZE?HG
LX51 LINKER/LOCATER V4.66.87.0                                                        05/09/2018  21:28:12  PAGE 12


008266H   008271H   00000CH   BYTE   UNIT     CODE           ?PR?LT_TIMER_SWITCH_ON?LT_TIMER
008272H   00827DH   00000CH   BYTE   UNIT     CODE           ?PR?LT_TIMER_STOP_RAM?LT_TIMER
00827EH   008289H   00000CH   BYTE   UNIT     CODE           ?PR?THERMO_HI_THRESHOLD_REACH_TOP?THERMO
00828AH   008295H   00000CH   BYTE   UNIT     CODE           ?PR?THERMO_LO_THRESHOLD_REACH_TOP?THERMO
008296H   0082A1H   00000CH   BYTE   UNIT     CODE           ?PR?_CMD_NULL?SHELL
0082A2H   0082ACH   00000BH   BYTE   UNIT     CODE           ?PR?_SM_SET_SUB_STATE?SM
0082ADH   0082B7H   00000BH   BYTE   UNIT     CODE           ?PR?I2C_START?I2C
0082B8H   0082C2H   00000BH   BYTE   UNIT     CODE           ?PR?CLOCK_INC_MIN?CLOCK
0082C3H   0082CDH   00000BH   BYTE   UNIT     CODE           ?PR?CLOCK_INC_HOUR?CLOCK
0082CEH   0082D8H   00000BH   BYTE   UNIT     CODE           ?PR?HG
0082D9H   0082E3H   00000BH   BYTE   UNIT     CODE           ?PR?LT_TIMER_INC_YEAR?LT_TIMER
0082E4H   0082EEH   00000BH   BYTE   UNIT     CODE           ?PR?LT_TIMER_INC_MONTH?LT_TIMER
0082EFH   0082F9H   00000BH   BYTE   UNIT     CODE           ?PR?LT_TIMER_INC_DATE?LT_TIMER
0082FAH   008304H   00000BH   BYTE   UNIT     CODE           ?PR?LT_TIMER_INC_HOUR?LT_TIMER
008305H   00830FH   00000BH   BYTE   UNIT     CODE           ?PR?LT_TIMER_INC_MIN?LT_TIMER
008310H   00831AH   00000BH   BYTE   UNIT     CODE           ?PR?LT_TIMER_INC_SEC?LT_TIMER
00831BH   008325H   00000BH   BYTE   UNIT     CODE           ?PR?THERMO_HI_THRESHOLD_REACH_BOTTOM?THERMO
008326H   008330H   00000BH   BYTE   UNIT     CODE           ?PR?THERMO_LO_THRESHOLD_REACH_BOTTOM?THERMO
008331H   00833BH   00000BH   BYTE   UNIT     CODE           ?PR?CMD_SERIAL
00833CH   008345H   00000AH   BYTE   UNIT     CODE           ?PR?I2C_INIT?I2C
008346H   00834FH   00000AH   BYTE   UNIT     CODE           ?PR?I2C
008350H   008359H   00000AH   BYTE   UNIT     CODE           ?PR?INTERNAL_DELAY_MS?MISC
00835AH   008363H   00000AH   BYTE   UNIT     CODE           ?PR?THERMO_ENABLE?THERMO
008364H   00836DH   00000AH   BYTE   UNIT     CODE           ?PR?_INC_AND_WRITE?SM_CLOCK_COUNTER
00836EH   008377H   00000AH   BYTE   UNIT     CODE           ?PR?_SM_POWER_PACK_DISPLAY_INIT?SM_POWER_PACK_DISPLAY
008378H   008381H   00000AH   BYTE   UNIT     CODE           ?PR?_SM_POWER_PACK_DISPLAY_SUBMOD0?SM_POWER_PACK_DISPLAY
008382H   00838BH   00000AH   BYTE   UNIT     CODE           ?PR?_SM_POWER_PACK_POWERSAVE_INIT?SM_POWER_PACK_POWERSAVE
00838CH   008395H   00000AH   BYTE   UNIT     CODE           ?PR?_SM_POWER_PACK_POWERSAVE_SUBMOD0?SM_POWER_PACK_POWERSA
                                                             -VE
008396H   00839FH   00000AH   BYTE   UNIT     CODE           ?PR?_INC_AND_WRITE?SM_FUSE_PARAM
0083A0H   0083A9H   00000AH   BYTE   UNIT     CODE           ?PR?_SM_FUSE_POWERSAVE_INIT?SM_FUSE_POWERSAVE
0083AAH   0083B2H   000009H   BYTE   UNIT     CODE           ?PR?_RTC_TIME_SET_MIN?RTC
0083B3H   0083BBH   000009H   BYTE   UNIT     CODE           ?PR?KEY_ENTER_POWERSAVE?KEY
0083BCH   0083C4H   000009H   BYTE   UNIT     CODE           ?PR?KEY_LEAVE_POWERSAVE?KEY
0083C5H   0083CDH   000009H   BYTE   UNIT     CODE           ?PR?ALARM_ENTER_POWERSAVE?ALARM
0083CEH   0083D6H   000009H   BYTE   UNIT     CODE           ?PR?ALARM_LEAVE_POWERSAVE?ALARM
0083D7H   0083DFH   000009H   BYTE   UNIT     CODE           ?PR?POWER_RESET_POWERSAVE_TO?POWER
0083E0H   0083E8H   000009H   BYTE   UNIT     CODE           ?PR?BEEPER_ENTER_POWERSAVE?BEEPER
0083E9H   0083F1H   000009H   BYTE   UNIT     CODE           ?PR?BEEPER_LEAVE_POWERSAVE?BEEPER
0083F2H   0083FAH   000009H   BYTE   UNIT     CODE           ?PR?CLOCK_ENABLE_INTERRUPT?CLOCK
0083FBH   008403H   000009H   BYTE   UNIT     CODE           ?PR?TIMER_LEAVE_POWERSAVE?TIMER
008404H   00840CH   000009H   BYTE   UNIT     CODE           ?PR?FUSE_ENTER_POWERSAVE?FUSE
00840DH   008415H   000009H   BYTE   UNIT     CODE           ?PR?FUSE_LEAVE_POWERSAVE?FUSE
008416H   00841EH   000009H   BYTE   UNIT     CODE           ?PR?HG_ENTER_POWERSAVE?HG
00841FH   008427H   000009H   BYTE   UNIT     CODE           ?PR?HG_LEAVE_POWERSAVE?HG
008428H   008430H   000009H   BYTE   UNIT     CODE           ?PR?THERMO_ENTER_POWERSAVE?THERMO
008431H   008439H   000009H   BYTE   UNIT     CODE           ?PR?THERMO_LEAVE_POWERSAVE?THERMO
00843AH   008442H   000009H   BYTE   UNIT     CODE           ?PR?DELAY_TASK_INITIALIZE?DELAY_TASK
008443H   00844BH   000009H   BYTE   UNIT     CODE           ?PR?MPU_ENTER_POWERSAVE?MPU
00844CH   008454H   000009H   BYTE   UNIT     CODE           ?PR?MPU_LEAVE_POWERSAVE?MPU
008455H   00845DH   000009H   BYTE   UNIT     CODE           ?PR?RESET_AUTO_SWITCH?SM_CLOCK_DISPLAY
00845EH   008465H   000008H   BYTE   UNIT     CODE           ?PR?__RTC_GET_MIN_SEC?RTC
008466H   00846DH   000008H   BYTE   UNIT     CODE           ?PR?RTC_TIME_GET_HOUR?RTC
00846EH   008475H   000008H   BYTE   UNIT     CODE           ?PR?RTC_TIME_GET_HOUR_12?RTC
008476H   00847DH   000008H   BYTE   UNIT     CODE           ?PR?RTC_TIME_GET_MIN?RTC
00847EH   008485H   000008H   BYTE   UNIT     CODE           ?PR?RTC_TIME_GET_SEC?RTC
008486H   00848DH   000008H   BYTE   UNIT     CODE           ?PR?_RTC_DATE_SET_YEAR?RTC
00848EH   008495H   000008H   BYTE   UNIT     CODE           ?PR?_RTC_DATE_SET_MONTH?RTC
008496H   00849DH   000008H   BYTE   UNIT     CODE           ?PR?RTC_DATE_GET_DATE?RTC
00849EH   0084A5H   000008H   BYTE   UNIT     CODE           ?PR?THERMO_HI_THRESHOLD_RESET?THERMO
0084A6H   0084ADH   000008H   BYTE   UNIT     CODE           ?PR?ROM_IS_FACTORY_RESET?ROM
0084AEH   0084B5H   000008H   BYTE   UNIT     CODE           ?PR?MPU_THRESHOLD_RESET?MPU
0084B6H   0084BCH   000007H   BYTE   UNIT     CODE           ?PR?__RTC_GET_HOUR_12?RTC
0084BDH   0084C3H   000007H   BYTE   UNIT     CODE           ?PR?SM_CLOCK_ALARM
0084C4H   0084C9H   000006H   BYTE   UNIT     CODE           ?PR?_RTC_TIME_SET_HOUR?RTC
LX51 LINKER/LOCATER V4.66.87.0                                                        05/09/2018  21:28:12  PAGE 13


0084CAH   0084CFH   000006H   BYTE   UNIT     CODE           ?PR?_RTC_TIME_SET_SEC?RTC
0084D0H   0084D5H   000006H   BYTE   UNIT     CODE           ?PR?RTC_DATE_GET_DAY?RTC
0084D6H   0084DBH   000006H   BYTE   UNIT     CODE           ?PR?ALARM0_GET_DAY_MASK?ALARM
0084DCH   0084E1H   000006H   BYTE   UNIT     CODE           ?PR?ALARM0_GET_MIN?ALARM
0084E2H   0084E7H   000006H   BYTE   UNIT     CODE           ?PR?ALARM0_GET_HOUR?ALARM
0084E8H   0084EDH   000006H   BYTE   UNIT     CODE           ?PR?POWER_GET_POWERSAVE_TO_S?POWER
0084EEH   0084F3H   000006H   BYTE   UNIT     CODE           ?PR?INTERNAL_DELAY_10US?MISC
0084F4H   0084F9H   000006H   BYTE   UNIT     CODE           ?PR?BEEPER_GET_MUSIC_TO?BEEPER
0084FAH   0084FFH   000006H   BYTE   UNIT     CODE           ?PR?BEEPER_GET_MUSIC_INDEX?BEEPER
008500H   008505H   000006H   BYTE   UNIT     CODE           ?PR?_CLOCK_SWITCH_DISPLAY_MODE?CLOCK
008506H   00850BH   000006H   BYTE   UNIT     CODE           ?PR?CLOCK_GET_DATE?CLOCK
00850CH   008511H   000006H   BYTE   UNIT     CODE           ?PR?CLOCK_GET_DAY?CLOCK
008512H   008517H   000006H   BYTE   UNIT     CODE           ?PR?CLOCK_GET_MONTH?CLOCK
008518H   00851DH   000006H   BYTE   UNIT     CODE           ?PR?_TIMER_SET_MODE?TIMER
00851EH   008523H   000006H   BYTE   UNIT     CODE           ?PR?LT_TIMER_GET_MONTH?LT_TIMER
008524H   008529H   000006H   BYTE   UNIT     CODE           ?PR?LT_TIMER_GET_DATE?LT_TIMER
00852AH   00852FH   000006H   BYTE   UNIT     CODE           ?PR?MPU_THRESHOLD_GET?MPU
008530H   008534H   000005H   BYTE   UNIT     CODE           ?PR?ALARM1_SET_ENABLE?ALARM
008535H   008539H   000005H   BYTE   UNIT     CODE           ?PR?BEEPER_SET_BEEP_ENABLE?BEEPER
00853AH   00853EH   000005H   BYTE   UNIT     CODE           ?PR?CLOCK_DISPLAY?CLOCK
00853FH   008543H   000005H   BYTE   UNIT     CODE           ?PR?CLOCK_SET_HOUR_12?CLOCK
008544H   008548H   000005H   BYTE   UNIT     CODE           ?PR?CLOCK_GET_MS39?CLOCK
008549H   00854DH   000005H   BYTE   UNIT     CODE           ?PR?CLOCK_GET_SEC_256?CLOCK
00854EH   008552H   000005H   BYTE   UNIT     CODE           ?PR?CLOCK_GET_SEC?CLOCK
008553H   008557H   000005H   BYTE   UNIT     CODE           ?PR?CLOCK_CLR_SEC?CLOCK
008558H   00855CH   000005H   BYTE   UNIT     CODE           ?PR?CLOCK_GET_MIN?CLOCK
00855DH   008561H   000005H   BYTE   UNIT     CODE           ?PR?CLOCK_GET_HOUR?CLOCK
008562H   008566H   000005H   BYTE   UNIT     CODE           ?PR?CLOCK_GET_YEAR?CLOCK
008567H   00856BH   000005H   BYTE   UNIT     CODE           ?PR?LT_TIMER_GET_YEAR?LT_TIMER
00856CH   008570H   000005H   BYTE   UNIT     CODE           ?PR?LT_TIMER_GET_HOUR?LT_TIMER
008571H   008575H   000005H   BYTE   UNIT     CODE           ?PR?LT_TIMER_GET_MIN?LT_TIMER
008576H   00857AH   000005H   BYTE   UNIT     CODE           ?PR?LT_TIMER_GET_SEC?LT_TIMER
00857BH   00857FH   000005H   BYTE   UNIT     CODE           ?PR?THERMO_LO_THRESHOLD_RESET?THERMO
008580H   008584H   000005H   BYTE   UNIT     CODE           ?PR?DEBUG_ONOFF?DEBUG
008585H   008587H   000003H   BYTE   UNIT     CODE           ?PR?_NULL_PROC?SM
008588H   00858AH   000003H   BYTE   UNIT     CODE           ?PR?RTC_IS_LT_TIMER?RTC
00858BH   00858DH   000003H   BYTE   UNIT     CODE           ?PR?ALARM0_GET_HOUR_12?ALARM
00858EH   008590H   000003H   BYTE   UNIT     CODE           ?PR?ALARM1_TEST_ENABLE?ALARM
008591H   008593H   000003H   BYTE   UNIT     CODE           ?PR?POWER_TEST_FLAG?POWER
008594H   008596H   000003H   BYTE   UNIT     CODE           ?PR?POWER_SET_FLAG?POWER
008597H   008599H   000003H   BYTE   UNIT     CODE           ?PR?POWER_CLR_FLAG?POWER
00859AH   00859CH   000003H   BYTE   UNIT     CODE           ?PR?BEEPER_GET_BEEP_ENABLE?BEEPER
00859DH   00859FH   000003H   BYTE   UNIT     CODE           ?PR?BEEPER_STOP_MUSIC?BEEPER
0085A0H   0085A2H   000003H   BYTE   UNIT     CODE           ?PR?CLOCK_GET_HOUR_12?CLOCK
0085A3H   0085A5H   000003H   BYTE   UNIT     CODE           ?PR?CLOCK_ENTER_SHELL?CLOCK
0085A6H   0085A8H   000003H   BYTE   UNIT     CODE           ?PR?TIMER_STOP?TIMER
0085A9H   0085ABH   000003H   BYTE   UNIT     CODE           ?PR?DEBUG_INITIALIZE?DEBUG
0085ACH   009020H   000A75H   BYTE   UNIT     CONST          ?CO?SM
009021H   0096C7H   0006A7H   BYTE   UNIT     CONST          ?CO?SHELL
0096C8H   009C81H   0005BAH   BYTE   UNIT     CONST          ?CO?CLOCK
009C82H   009FD2H   000351H   BYTE   UNIT     CONST          ?CO?BEEPER
009FD3H   00A2D7H   000305H   BYTE   UNIT     CONST          ?CO?SM_FUSE_TEST
00A2D8H   00A563H   00028CH   BYTE   UNIT     CONST          ?CO?INT_HUB
00A564H   00A794H   000231H   BYTE   UNIT     CONST          ?CO?TASK
00A795H   00A9B9H   000225H   BYTE   UNIT     CONST          ?CO?LT_TIMER
00A9BAH   00ABBFH   000206H   BYTE   UNIT     CONST          ?CO?SM_CLOCK_MOD_TIME
00ABC0H   00ADC4H   000205H   BYTE   UNIT     CONST          ?CO?SM_FUSE_TIMER
00ADC5H   00AFBAH   0001F6H   BYTE   UNIT     CONST          ?CO?SM_FUSE_PARAM
00AFBBH   00B1A1H   0001E7H   BYTE   UNIT     CONST          ?CO?SM_CLOCK_COUNTER
00B1A2H   00B377H   0001D6H   BYTE   UNIT     CONST          ?CO?SERIAL_HUB
00B378H   00B53EH   0001C7H   BYTE   UNIT     CONST          ?CO?SM_CLOCK_MOD_ALARM
00B53FH   00B6BFH   000181H   BYTE   UNIT     CONST          ?CO?KEY
00B6C0H   00B824H   000165H   BYTE   UNIT     CONST          ?CO?ALARM
00B825H   00B980H   00015CH   BYTE   UNIT     CONST          ?CO?THERMO
00B981H   00BACCH   00014CH   BYTE   UNIT     CONST          ?CO?SM_CLOCK_DISPLAY
LX51 LINKER/LOCATER V4.66.87.0                                                        05/09/2018  21:28:12  PAGE 14


00BACDH   00BBFBH   00012FH   BYTE   UNIT     CONST          ?CO?SM_GLOBAL_FLAG_MOD
00BBFCH   00BD0CH   000111H   BYTE   UNIT     CONST          ?CO?RTC
00BD0DH   00BDFCH   0000F0H   BYTE   UNIT     CONST          ?CO?SM_CLOCK_TIMER
00BDFDH   00BEE5H   0000E9H   BYTE   UNIT     CONST          ?CO?FUSE
00BEE6H   00BFB1H   0000CCH   BYTE   UNIT     CONST          ?CO?HG
00BFB2H   00C079H   0000C8H   BYTE   UNIT     CONST          ?CO?SM_FUSE_POWERSAVE
00C07AH   00C136H   0000BDH   BYTE   UNIT     CONST          ?CO?MPU
00C137H   00C1D1H   00009BH   BYTE   UNIT     CONST          ?CO?SM_POWER_PACK_POWERSAVE
00C1D2H   00C264H   000093H   BYTE   UNIT     CONST          ?CO?SM_POWER_PACK_DISPLAY
00C265H   00C2E6H   000082H   BYTE   UNIT     CONST          ?CO?POWER
00C2E7H   00C367H   000081H   BYTE   UNIT     CONST          ?CO?MAIN
00C368H   00C3E7H   000080H   BYTE   UNIT     CONST          ?CO?SM_FUSE_DETONATE
00C3E8H   00C464H   00007DH   BYTE   UNIT     CONST          ?CO?CMD_I2C
00C465H   00C4D7H   000073H   BYTE   UNIT     CONST          ?CO?CMD_BEEPER
00C4D8H   00C547H   000070H   BYTE   UNIT     CONST          ?CO?ROM
00C548H   00C5B6H   00006FH   BYTE   UNIT     CONST          ?CO?LED
00C5B7H   00C618H   000062H   BYTE   UNIT     CONST          ?CO?CMD_THERMO
00C619H   00C672H   00005AH   BYTE   UNIT     CONST          ?CO?DELAY_TASK
00C673H   00C6CBH   000059H   BYTE   UNIT     CONST          ?CO?TIMER
00C6CCH   00C724H   000059H   BYTE   UNIT     CONST          ?CO?SM_CLOCK_ALARM
00C725H   00C77BH   000057H   BYTE   UNIT     CONST          ?CO?SM_CLOCK_POWERSAVE
00C77CH   00C7C0H   000045H   BYTE   UNIT     CONST          ?CO?CMD_SM
00C7C1H   00C7EAH   00002AH   BYTE   UNIT     CONST          ?CO?COM
00C7EBH   00C80FH   000025H   BYTE   UNIT     CONST          ?CO?CMD_REBOOT
00C810H   00C834H   000025H   BYTE   UNIT     CONST          ?CO?CMD_MPU
00C835H   00C852H   00001EH   BYTE   UNIT     CONST          ?CO?CMD_SERIAL
00C853H   00C86FH   00001DH   BYTE   UNIT     CONST          ?CO?CMD_HELP
00C870H   00C88BH   00001CH   BYTE   UNIT     CONST          ?CO?CMD_DBG
00C88CH   00C8A1H   000016H   BYTE   UNIT     CONST          ?CO?MOD_COMMON
00C8A2H   00C8A5H   000004H   BYTE   UNIT     CONST          ?CO?CMD_INT

* * * * * * * * * * *  X D A T A   M E M O R Y  * * * * * * * * * * * * *
000000H   00007BH   00007CH   BYTE   UNIT     XDATA          _XDATA_GROUP_
00007CH   0000A4H   000029H   BYTE   UNIT     XDATA          ?XD?SHELL
0000A5H   0000ADH   000009H   BYTE   UNIT     XDATA          ?XD?LED
0000AEH   0000B2H   000005H   BYTE   UNIT     XDATA          ?XD?RTC
0000B3H   0000B7H   000005H   BYTE   UNIT     XDATA          ?XD?DELAY_TASK
0000B8H   0000BBH   000004H   BYTE   UNIT     XDATA          ?XD?COM
0000BCH   0000BEH   000003H   BYTE   UNIT     XDATA          ?XD?SM
0000BFH   0000C1H   000003H   BYTE   UNIT     XDATA          ?XD?ALARM
0000C2H   0000C4H   000003H   BYTE   UNIT     XDATA          ?XD?MOD_COMMON
0000C5H   0000C7H   000003H   BYTE   UNIT     XDATA          ?XD?BEEPER
0000C8H   0000C9H   000002H   BYTE   UNIT     XDATA          ?XD?KEY
0000CAH   0000CBH   000002H   BYTE   UNIT     XDATA          ?XD?POWER
0000CCH   0000CDH   000002H   BYTE   UNIT     XDATA          ?XD?SERIAL_HUB
0000CEH   0000CFH   000002H   BYTE   UNIT     XDATA          ?XD?THERMO
0000D0H   0000D0H   000001H   BYTE   UNIT     XDATA          ?XD?CLOCK
0000D1H   0000D1H   000001H   BYTE   UNIT     XDATA          ?XD?TIMER
0000D2H   0000D2H   000001H   BYTE   UNIT     XDATA          ?XD?HG
0000D3H   0000D3H   000001H   BYTE   UNIT     XDATA          ?XD?MPU
0000D4H   0000D4H   000001H   BYTE   UNIT     XDATA          ?XD?CMD_I2C
0000D5H   0000D5H   000001H   BYTE   UNIT     XDATA          ?XD?GETCHAR



OVERLAY MAP OF MODULE:   Clock (SM)


FUNCTION/MODULE                                BIT_GROUP   DATA_GROUP   XDATA_GROUP
--> CALLED FUNCTION/MODULE                    START  STOP  START  STOP  START  STOP
===================================================================================
?C_C51STARTUP                                 ----- -----  ----- -----  ----- -----
  +--> MAIN/MAIN

MAIN/MAIN                                     ----- -----  ----- -----  ----- -----
LX51 LINKER/LOCATER V4.66.87.0                                                        05/09/2018  21:28:12  PAGE 15


  +--> DEBUG_INITIALIZE/DEBUG
  +--> COM_INITIALIZE/COM
  +--> SHOW_VERSION/MAIN
  +--> ROM_INITIALIZE/ROM
  +--> SERIAL_HUB_INITIALIZE/SERIAL_HUB
  +--> RTC_INITIALIZE/RTC
  +--> CLOCK_INITIALIZE/CLOCK
  +--> KEY_INITIALIZE/KEY
  +--> LED_INITIALIZE/LED
  +--> POWER_INITIALIZE/POWER
  +--> ALARM_INITIALIZE/ALARM
  +--> LT_TIMER_INITIALIZE/LT_TIMER
  +--> TIMER_INITIALIZE/TIMER
  +--> BEEPER_INITIALIZE/BEEPER
  +--> THERMO_INITIALIZE/THERMO
  +--> FUSE_INITIALIZE/FUSE
  +--> MPU_INITIALIZE/MPU
  +--> HG_INITIALIZE/HG
  +--> INT_HUB_INITIALIZE/INT_HUB
  +--> TASK_INITIALIZE/TASK
  +--> SM_INITIALIZE/SM
  +--> DELAY_TASK_INITIALIZE/DELAY_TASK
  +--> RUN_TASK/TASK
  +--> RUN_SHELL/SHELL

DEBUG_INITIALIZE/DEBUG                        ----- -----  ----- -----  ----- -----

COM_INITIALIZE/COM                            ----- -----  ----- -----  ----- -----

SHOW_VERSION/MAIN                             ----- -----  ----- -----  ----- -----
  +--> _DEBUG_PRINTF/DEBUG

_DEBUG_PRINTF/DEBUG                           ----- -----  ----- -----  001BH 0048H
  +--> _VPRINTF/VPRINTF

_VPRINTF/VPRINTF                              ----- -----  ----- -----  0049H 004BH
  +--> PRINTF/PRINTF

PRINTF/PRINTF                                 20H.2 21H.2  0018H 001CH  004CH 007BH
  +--> _PUTCHAR/COM

_PUTCHAR/COM                                  ----- -----  ----- -----  ----- -----
  +--> _PUTBUF/COM

_PUTBUF/COM                                   ----- -----  ----- -----  ----- -----

ROM_INITIALIZE/ROM                            ----- -----  ----- -----  ----- -----
  +--> _DEBUG_PRINTF/DEBUG
  +--> ROM_IS_FACTORY_RESET/ROM
  +--> ROM_RESET/ROM
  +--> ROM_DUMP/ROM

ROM_IS_FACTORY_RESET/ROM                      ----- -----  ----- -----  ----- -----

ROM_RESET/ROM                                 ----- -----  ----- -----  ----- -----
  +--> _ROM_WRITE/ROM

_ROM_WRITE/ROM                                ----- -----  ----- -----  0016H 0017H
  +--> I2C_INIT/I2C
  +--> _I2C_PUT/I2C
  +--> _DEBUG_PRINTF/DEBUG

I2C_INIT/I2C                                  ----- -----  ----- -----  ----- -----
  +--> I2C_DELAY/I2C

LX51 LINKER/LOCATER V4.66.87.0                                                        05/09/2018  21:28:12  PAGE 16


I2C_DELAY/I2C                                 ----- -----  ----- -----  ----- -----

_I2C_PUT/I2C                                  ----- -----  ----- -----  0018H 0018H
  +--> _I2C_PUTS/I2C

_I2C_PUTS/I2C                                 ----- -----  ----- -----  0019H 001EH
  +--> I2C_START/I2C
  +--> _I2C_WRITE/I2C
  +--> I2C_GETACK/I2C
  +--> I2C_STOP/I2C

I2C_START/I2C                                 ----- -----  ----- -----  ----- -----
  +--> I2C
  +--> I2C_DELAY/I2C

I2C                                           ----- -----  ----- -----  ----- -----
  +--> I2C_DELAY/I2C

_I2C_WRITE/I2C                                ----- -----  ----- -----  ----- -----
  +--> I2C_DELAY/I2C

I2C_GETACK/I2C                                20H.2 20H.2  ----- -----  ----- -----
  +--> I2C
  +--> I2C_DELAY/I2C

I2C_STOP/I2C                                  ----- -----  ----- -----  ----- -----
  +--> I2C_DELAY/I2C
  +--> I2C

ROM_DUMP/ROM                                  ----- -----  ----- -----  ----- -----
  +--> _ROM_READ/ROM

_ROM_READ/ROM                                 ----- -----  ----- -----  0015H 0016H
  +--> I2C_INIT/I2C
  +--> _I2C_GET/I2C
  +--> _DEBUG_PRINTF/DEBUG

_I2C_GET/I2C                                  ----- -----  ----- -----  001AH 001CH
  +--> _I2C_GETS/I2C

_I2C_GETS/I2C                                 ----- -----  ----- -----  001DH 0022H
  +--> I2C_START/I2C
  +--> _I2C_WRITE/I2C
  +--> I2C_GETACK/I2C
  +--> I2C_STOP/I2C
  +--> I2C_READ/I2C
  +--> I2C_PUTACK/I2C

I2C_READ/I2C                                  20H.2 20H.2  ----- -----  ----- -----
  +--> I2C_DELAY/I2C
  +--> I2C

I2C_PUTACK/I2C                                20H.2 20H.2  ----- -----  ----- -----
  +--> I2C_DELAY/I2C

SERIAL_HUB_INITIALIZE/SERIAL_HUB              ----- -----  ----- -----  ----- -----
  +--> _DEBUG_PRINTF/DEBUG
  +--> _I2C_PUT/I2C
  +--> SERIAL_CTL_OUT/SERIAL_HUB

SERIAL_CTL_OUT/SERIAL_HUB                     ----- -----  ----- -----  ----- -----
  +--> _I2C_PUT/I2C
  +--> SERIAL_DUMP/SERIAL_HUB

SERIAL_DUMP/SERIAL_HUB                        ----- -----  ----- -----  ----- -----
LX51 LINKER/LOCATER V4.66.87.0                                                        05/09/2018  21:28:12  PAGE 17


  +--> _DEBUG_PRINTF/DEBUG
  +--> _SERIAL_TEST_CTL_BIT/SERIAL_HUB
  +--> SERIAL_HUB

_SERIAL_TEST_CTL_BIT/SERIAL_HUB               ----- -----  ----- -----  ----- -----
  +--> SERIAL_HUB

SERIAL_HUB                                    ----- -----  ----- -----  ----- -----

RTC_INITIALIZE/RTC                            ----- -----  ----- -----  0000H 0001H
  +--> _DEBUG_PRINTF/DEBUG
  +--> RTC
  +--> _ROM_READ/ROM
  +--> I2C_INIT/I2C
  +--> _RTC_READ_DATA/RTC
  +--> RTC_TIME_GET_HOUR/RTC
  +--> RTC_TIME_SET_HOUR_12/RTC
  +--> _RTC_TIME_SET_HOUR/RTC
  +--> _RTC_TIME_SET_MIN/RTC
  +--> _RTC_TIME_SET_SEC/RTC
  +--> ROM_IS_FACTORY_RESET/ROM
  +--> _RTC_WRITE_DATA/RTC
  +--> _RTC_DATE_SET_YEAR/RTC
  +--> _RTC_DATE_SET_MONTH/RTC
  +--> _RTC_DATE_SET_DATE/RTC
  +--> RTC_DATE_GET_YEAR/RTC
  +--> RTC_DATE_GET_MONTH/RTC
  +--> RTC_DATE_GET_DATE/RTC
  +--> _CLOCK_YYMMDD_TO_DAY/CLOCK
  +--> _RTC_DATE_SET_DAY/RTC
  +--> _RTC_ENABLE_ALARM_INT/RTC
  +--> _RTC_CLR_ALARM_INT_FLAG/RTC
  +--> _I2C_GET/I2C
  +--> _I2C_PUT/I2C
  +--> DUMP_RTC/RTC

RTC                                           ----- -----  ----- -----  ----- -----

_RTC_READ_DATA/RTC                            ----- -----  ----- -----  0016H 0016H
  +--> RTC
  +--> _I2C_GETS/I2C

RTC_TIME_GET_HOUR/RTC                         ----- -----  ----- -----  ----- -----
  +--> __RTC_GET_HOUR/RTC

__RTC_GET_HOUR/RTC                            ----- -----  ----- -----  ----- -----
  +--> RTC

RTC_TIME_SET_HOUR_12/RTC                      20H.0 20H.0  ----- -----  ----- -----
  +--> RTC
  +--> _RTC_SET_HOUR_12/RTC

_RTC_SET_HOUR_12/RTC                          20H.1 20H.1  ----- -----  0015H 0017H
  +--> RTC
  +--> __RTC_GET_HOUR/RTC
  +--> __RTC_SET_HOUR/RTC

__RTC_SET_HOUR/RTC                            ----- -----  ----- -----  0018H 001AH
  +--> RTC

_RTC_TIME_SET_HOUR/RTC                        ----- -----  ----- -----  ----- -----
  +--> RTC
  +--> __RTC_SET_HOUR/RTC

_RTC_TIME_SET_MIN/RTC                         ----- -----  ----- -----  ----- -----
LX51 LINKER/LOCATER V4.66.87.0                                                        05/09/2018  21:28:12  PAGE 18


  +--> __RTC_SET_MIN_SEC/RTC

__RTC_SET_MIN_SEC/RTC                         ----- -----  ----- -----  0015H 0017H
  +--> RTC

_RTC_TIME_SET_SEC/RTC                         ----- -----  ----- -----  ----- -----
  +--> RTC
  +--> __RTC_SET_MIN_SEC/RTC

_RTC_WRITE_DATA/RTC                           ----- -----  ----- -----  0016H 0016H
  +--> I2C_INIT/I2C
  +--> RTC
  +--> _I2C_PUTS/I2C

_RTC_DATE_SET_YEAR/RTC                        ----- -----  ----- -----  ----- -----
  +--> RTC

_RTC_DATE_SET_MONTH/RTC                       ----- -----  ----- -----  ----- -----
  +--> RTC

_RTC_DATE_SET_DATE/RTC                        ----- -----  ----- -----  0015H 0016H
  +--> RTC_DATE_GET_MONTH/RTC
  +--> _DEBUG_PRINTF/DEBUG
  +--> RTC_DATE_GET_YEAR/RTC
  +--> _CLOCK_IS_LEAP_YEAR/CLOCK
  +--> __RTC_SET_DATE/RTC

RTC_DATE_GET_MONTH/RTC                        ----- -----  ----- -----  ----- -----
  +--> RTC

RTC_DATE_GET_YEAR/RTC                         ----- -----  ----- -----  ----- -----
  +--> RTC

_CLOCK_IS_LEAP_YEAR/CLOCK                     ----- -----  ----- -----  ----- -----
  +--> CLOCK

CLOCK                                         ----- -----  ----- -----  ----- -----

__RTC_SET_DATE/RTC                            ----- -----  ----- -----  0017H 0019H
  +--> RTC

RTC_DATE_GET_DATE/RTC                         ----- -----  ----- -----  ----- -----
  +--> __RTC_GET_DATE/RTC

__RTC_GET_DATE/RTC                            ----- -----  ----- -----  ----- -----
  +--> RTC

_CLOCK_YYMMDD_TO_DAY/CLOCK                    ----- -----  ----- -----  0014H 001BH
  +--> CLOCK

_RTC_DATE_SET_DAY/RTC                         ----- -----  ----- -----  ----- -----

_RTC_ENABLE_ALARM_INT/RTC                     20H.1 20H.1  ----- -----  ----- -----

_RTC_CLR_ALARM_INT_FLAG/RTC                   ----- -----  ----- -----  ----- -----

DUMP_RTC/RTC                                  ----- -----  ----- -----  0002H 0003H
  +--> _I2C_GET/I2C
  +--> _DEBUG_PRINTF/DEBUG

CLOCK_INITIALIZE/CLOCK                        ----- -----  ----- -----  ----- -----
  +--> _DEBUG_PRINTF/DEBUG
  +--> _CLOCK_SYNC_FROM_RTC/CLOCK
  +--> CLOCK_ENABLE_INTERRUPT/CLOCK
  +--> CLOCK_DUMP/CLOCK
LX51 LINKER/LOCATER V4.66.87.0                                                        05/09/2018  21:28:12  PAGE 19



_CLOCK_SYNC_FROM_RTC/CLOCK                    ----- -----  ----- -----  0013H 0013H
  +--> _DEBUG_PRINTF/DEBUG
  +--> CLOCK_ENABLE_INTERRUPT/CLOCK
  +--> _RTC_READ_DATA/RTC
  +--> RTC_TIME_GET_HOUR/RTC
  +--> RTC_TIME_GET_MIN/RTC
  +--> RTC_TIME_GET_SEC/RTC
  +--> RTC_TIME_GET_HOUR_12/RTC
  +--> RTC_DATE_GET_YEAR/RTC
  +--> RTC_DATE_GET_MONTH/RTC
  +--> RTC_DATE_GET_DATE/RTC
  +--> RTC_DATE_GET_DAY/RTC

CLOCK_ENABLE_INTERRUPT/CLOCK                  20H.2 20H.2  ----- -----  ----- -----

RTC_TIME_GET_MIN/RTC                          ----- -----  ----- -----  ----- -----
  +--> __RTC_GET_MIN_SEC/RTC

__RTC_GET_MIN_SEC/RTC                         ----- -----  ----- -----  ----- -----
  +--> RTC

RTC_TIME_GET_SEC/RTC                          ----- -----  ----- -----  ----- -----
  +--> __RTC_GET_MIN_SEC/RTC

RTC_TIME_GET_HOUR_12/RTC                      ----- -----  ----- -----  ----- -----
  +--> __RTC_GET_HOUR_12/RTC

__RTC_GET_HOUR_12/RTC                         ----- -----  ----- -----  ----- -----

RTC_DATE_GET_DAY/RTC                          ----- -----  ----- -----  ----- -----

CLOCK_DUMP/CLOCK                              ----- -----  ----- -----  ----- -----
  +--> _DEBUG_PRINTF/DEBUG

KEY_INITIALIZE/KEY                            ----- -----  ----- -----  ----- -----
  +--> _DEBUG_PRINTF/DEBUG

LED_INITIALIZE/LED                            ----- -----  ----- -----  ----- -----
  +--> _DEBUG_PRINTF/DEBUG
  +--> LED
  +--> REFRESH_LED/LED
  +--> _DELAY_MS/MISC

LED                                           ----- -----  ----- -----  ----- -----

REFRESH_LED/LED                               ----- -----  ----- -----  ----- -----

_DELAY_MS/MISC                                ----- -----  ----- -----  ----- -----
  +--> INTERNAL_DELAY_MS/MISC

INTERNAL_DELAY_MS/MISC                        ----- -----  ----- -----  ----- -----

POWER_INITIALIZE/POWER                        ----- -----  ----- -----  ----- -----
  +--> _DEBUG_PRINTF/DEBUG
  +--> _ROM_READ/ROM

ALARM_INITIALIZE/ALARM                        ----- -----  ----- -----  ----- -----
  +--> _DEBUG_PRINTF/DEBUG
  +--> ALARM_LOAD_ROM/ALARM
  +--> ALARM_DUMP/ALARM

ALARM_LOAD_ROM/ALARM                          ----- -----  ----- -----  ----- -----
  +--> _ROM_READ/ROM

LX51 LINKER/LOCATER V4.66.87.0                                                        05/09/2018  21:28:12  PAGE 20


ALARM_DUMP/ALARM                              ----- -----  ----- -----  ----- -----
  +--> ALARM
  +--> _DEBUG_PRINTF/DEBUG

ALARM                                         ----- -----  ----- -----  ----- -----

LT_TIMER_INITIALIZE/LT_TIMER                  ----- -----  ----- -----  ----- -----
  +--> _DEBUG_PRINTF/DEBUG

TIMER_INITIALIZE/TIMER                        ----- -----  ----- -----  ----- -----
  +--> _DEBUG_PRINTF/DEBUG

BEEPER_INITIALIZE/BEEPER                      ----- -----  ----- -----  ----- -----
  +--> _DEBUG_PRINTF/DEBUG
  +--> _ROM_READ/ROM

THERMO_INITIALIZE/THERMO                      ----- -----  ----- -----  ----- -----
  +--> _DEBUG_PRINTF/DEBUG
  +--> _ROM_READ/ROM
  +--> THERMO_POWER_OFF/THERMO

THERMO_POWER_OFF/THERMO                       ----- -----  ----- -----  0015H 0015H
  +--> _I2C_PUT/I2C
  +--> THERMO
  +--> _I2C_GET/I2C

THERMO                                        ----- -----  ----- -----  ----- -----

FUSE_INITIALIZE/FUSE                          ----- -----  ----- -----  ----- -----
  +--> _DEBUG_PRINTF/DEBUG
  +--> FUSE_POWER_OFF/FUSE

FUSE_POWER_OFF/FUSE                           ----- -----  ----- -----  ----- -----
  +--> _SERIAL_SET_CTL_BIT/SERIAL_HUB
  +--> SERIAL_CTL_OUT/SERIAL_HUB

_SERIAL_SET_CTL_BIT/SERIAL_HUB                20H.2 20H.2  ----- -----  ----- -----
  +--> SERIAL_HUB

MPU_INITIALIZE/MPU                            ----- -----  ----- -----  ----- -----
  +--> _DEBUG_PRINTF/DEBUG
  +--> _ROM_READ/ROM
  +--> MPU_POWER_OFF/MPU

MPU_POWER_OFF/MPU                             ----- -----  ----- -----  0015H 0015H
  +--> _DEBUG_PRINTF/DEBUG
  +--> _I2C_PUT/I2C
  +--> MPU
  +--> _I2C_GET/I2C

MPU                                           ----- -----  ----- -----  ----- -----

HG_INITIALIZE/HG                              ----- -----  ----- -----  ----- -----
  +--> _DEBUG_PRINTF/DEBUG
  +--> HG_POWER_OFF/HG

HG_POWER_OFF/HG                               ----- -----  ----- -----  ----- -----
  +--> _SERIAL_SET_CTL_BIT/SERIAL_HUB
  +--> SERIAL_CTL_OUT/SERIAL_HUB

INT_HUB_INITIALIZE/INT_HUB                    ----- -----  ----- -----  0000H 0000H
  +--> _DEBUG_PRINTF/DEBUG
  +--> _I2C_PUT/I2C
  +--> _I2C_GET/I2C

LX51 LINKER/LOCATER V4.66.87.0                                                        05/09/2018  21:28:12  PAGE 21


TASK_INITIALIZE/TASK                          ----- -----  ----- -----  ----- -----
  +--> _DEBUG_PRINTF/DEBUG

_TIME_PROC/SM                                 ----- -----  ----- -----  000CH 000CH
  +--> DELAY_TASK_CALL/DELAY_TASK
  +--> _RUN_STATE_MACHINE/SM

DELAY_TASK_CALL/DELAY_TASK                    ----- -----  ----- -----  000DH 000DH
  +--> DELAY_TASK
  +--> _DEBUG_PRINTF/DEBUG

DELAY_TASK                                    ----- -----  ----- -----  ----- -----

_RUN_STATE_MACHINE/SM                         ----- -----  ----- -----  000DH 0010H
  +--> SM
  +--> _DEBUG_PRINTF/DEBUG

SM                                            ----- -----  ----- -----  ----- -----

_SM_CLOCK_DISPLAY_SUBMOD0/SM_CLOCK_DISPL+     ----- -----  ----- -----  0011H 0012H
... AY
  +--> SM_CLOCK_DISPLAY
  +--> _DEBUG_PRINTF/DEBUG
  +--> LED_CLEAR/LED
  +--> CLOCK_DISPLAY/CLOCK
  +--> _CLOCK_SWITCH_DISPLAY_MODE/CLOCK
  +--> POWER_RESET_POWERSAVE_TO/POWER
  +--> POWER_TEST_POWERSAVE_TO/POWER

SM_CLOCK_DISPLAY                              ----- -----  ----- -----  ----- -----

LED_CLEAR/LED                                 ----- -----  ----- -----  ----- -----

CLOCK_DISPLAY/CLOCK                           20H.0 20H.0  ----- -----  ----- -----

_CLOCK_SWITCH_DISPLAY_MODE/CLOCK              ----- -----  ----- -----  ----- -----

POWER_RESET_POWERSAVE_TO/POWER                ----- -----  ----- -----  ----- -----
  +--> CLOCK_GET_SEC_256/CLOCK

CLOCK_GET_SEC_256/CLOCK                       ----- -----  ----- -----  ----- -----

POWER_TEST_POWERSAVE_TO/POWER                 ----- -----  ----- -----  ----- -----
  +--> CLOCK_GET_SEC_256/CLOCK
  +--> _DEBUG_PRINTF/DEBUG

_SM_CLOCK_DISPLAY_SUBMOD1/SM_CLOCK_DISPL+     ----- -----  ----- -----  0011H 0011H
... AY
  +--> SM_CLOCK_DISPLAY
  +--> _DEBUG_PRINTF/DEBUG
  +--> _CLOCK_SWITCH_DISPLAY_MODE/CLOCK
  +--> RESET_AUTO_SWITCH/SM_CLOCK_DISPLAY
  +--> POWER_RESET_POWERSAVE_TO/POWER
  +--> TEST_AUTOSWITCH/SM_CLOCK_DISPLAY

RESET_AUTO_SWITCH/SM_CLOCK_DISPLAY            ----- -----  ----- -----  ----- -----
  +--> CLOCK_GET_SEC_256/CLOCK

TEST_AUTOSWITCH/SM_CLOCK_DISPLAY              ----- -----  ----- -----  ----- -----
  +--> CLOCK_GET_SEC_256/CLOCK
  +--> _DEBUG_PRINTF/DEBUG

_SM_CLOCK_MOD_TIME_INIT/SM_CLOCK_MOD_TIM+     ----- -----  ----- -----  ----- -----
... E
  +--> SM_CLOCK_MOD_TIME
LX51 LINKER/LOCATER V4.66.87.0                                                        05/09/2018  21:28:12  PAGE 22


  +--> _DEBUG_PRINTF/DEBUG
  +--> CLOCK_DISPLAY/CLOCK
  +--> _DISPLAY_LOGO/MOD_COMMON

SM_CLOCK_MOD_TIME                             ----- -----  ----- -----  ----- -----

_DISPLAY_LOGO/MOD_COMMON                      ----- -----  ----- -----  0012H 0013H
  +--> _DEBUG_PRINTF/DEBUG
  +--> LED_CLEAR/LED
  +--> _LED_SET_CODE/LED
  +--> BEEPER_BEEP_BEEP_ALWAYS/BEEPER

_LED_SET_CODE/LED                             ----- -----  ----- -----  ----- -----

BEEPER_BEEP_BEEP_ALWAYS/BEEPER                ----- -----  ----- -----  0014H 0014H
  +--> _DEBUG_PRINTF/DEBUG
  +--> _DELAY_10US/MISC
  +--> _DELAY_MS/MISC

_DELAY_10US/MISC                              ----- -----  ----- -----  ----- -----
  +--> INTERNAL_DELAY_10US/MISC

INTERNAL_DELAY_10US/MISC                      ----- -----  ----- -----  ----- -----

_SM_CLOCK_ALARM/SM_CLOCK_ALARM                ----- -----  ----- -----  0011H 0012H
  +--> _DEBUG_PRINTF/DEBUG
  +--> SM_CLOCK_ALARM
  +--> CLOCK_DISPLAY/CLOCK
  +--> _DISPLAY_ALARM/SM_CLOCK_ALARM
  +--> BEEPER_PLAY_MUSIC/BEEPER
  +--> BEEPER_BEEP_BEEP_ALWAYS/BEEPER

SM_CLOCK_ALARM                                ----- -----  ----- -----  ----- -----

_DISPLAY_ALARM/SM_CLOCK_ALARM                 20H.0 20H.0  ----- -----  0013H 0015H
  +--> LED_CLEAR/LED
  +--> _LED_SET_CODE/LED
  +--> ALARM0_GET_HOUR/ALARM
  +--> ALARM0_GET_MIN/ALARM
  +--> ALARM0_GET_HOUR_12/ALARM
  +--> CLOCK_GET_HOUR/CLOCK
  +--> CLOCK_GET_MIN/CLOCK
  +--> CLOCK_GET_HOUR_12/CLOCK
  +--> _LED_SET_DP/LED
  +--> _LED_CLR_DP/LED

ALARM0_GET_HOUR/ALARM                         ----- -----  ----- -----  ----- -----

ALARM0_GET_MIN/ALARM                          ----- -----  ----- -----  ----- -----

ALARM0_GET_HOUR_12/ALARM                      ----- -----  ----- -----  ----- -----

CLOCK_GET_HOUR/CLOCK                          ----- -----  ----- -----  ----- -----

CLOCK_GET_MIN/CLOCK                           ----- -----  ----- -----  ----- -----

CLOCK_GET_HOUR_12/CLOCK                       ----- -----  ----- -----  ----- -----

_LED_SET_DP/LED                               ----- -----  ----- -----  ----- -----

_LED_CLR_DP/LED                               ----- -----  ----- -----  ----- -----

BEEPER_PLAY_MUSIC/BEEPER                      ----- -----  ----- -----  ----- -----
  +--> _DEBUG_PRINTF/DEBUG
  +--> __BEEPLER_PLAY/BEEPER
LX51 LINKER/LOCATER V4.66.87.0                                                        05/09/2018  21:28:12  PAGE 23



__BEEPLER_PLAY/BEEPER                         20H.0 20H.0  ----- -----  0013H 0018H
  +--> BEEPER
  +--> CLOCK_GET_SEC_256/CLOCK
  +--> _BEEPER_STOP_PLAY/BEEPER
  +--> _DELAY_MS/MISC
  +--> _DELAY_10US/MISC

BEEPER                                        ----- -----  ----- -----  ----- -----

_BEEPER_STOP_PLAY/BEEPER                      ----- -----  ----- -----  ----- -----

_SM_CLOCK_POWERSAVE/SM_CLOCK_POWERSAVE        ----- -----  ----- -----  0011H 0012H
  +--> _DEBUG_PRINTF/DEBUG
  +--> POWER_ENTER_POWERSAVE/POWER
  +--> POWER_LEAVE_POWERSAVE/POWER

POWER_ENTER_POWERSAVE/POWER                   ----- -----  ----- -----  ----- -----
  +--> _DEBUG_PRINTF/DEBUG
  +--> POWER_SET_FLAG/POWER
  +--> LED_ENTER_POWERSAVE/LED
  +--> TIMER_ENTER_POWERSAVE/TIMER
  +--> LT_TIMER_ENTER_POWERSAVE/LT_TIMER
  +--> CLOCK_ENTER_POWERSAVE/CLOCK
  +--> RTC_ENTER_POWERSAVE/RTC
  +--> KEY_ENTER_POWERSAVE/KEY
  +--> ALARM_ENTER_POWERSAVE/ALARM
  +--> BEEPER_ENTER_POWERSAVE/BEEPER
  +--> FUSE_ENTER_POWERSAVE/FUSE
  +--> HG_ENTER_POWERSAVE/HG
  +--> MPU_ENTER_POWERSAVE/MPU
  +--> THERMO_ENTER_POWERSAVE/THERMO
  +--> COM_ENTER_POWERSAVE/COM
  +--> POWER_TEST_FLAG/POWER
  +--> COM_LEAVE_POWERSAVE/COM
  +--> _SCAN_INT_HUB_PROC/INT_HUB

POWER_SET_FLAG/POWER                          ----- -----  ----- -----  ----- -----

LED_ENTER_POWERSAVE/LED                       ----- -----  ----- -----  ----- -----
  +--> _DEBUG_PRINTF/DEBUG
  +--> LED
  +--> LED_CLEAR/LED

TIMER_ENTER_POWERSAVE/TIMER                   ----- -----  ----- -----  ----- -----
  +--> _DEBUG_PRINTF/DEBUG
  +--> TIMER_CLR/TIMER

TIMER_CLR/TIMER                               ----- -----  ----- -----  ----- -----

LT_TIMER_ENTER_POWERSAVE/LT_TIMER             ----- -----  ----- -----  ----- -----
  +--> _DEBUG_PRINTF/DEBUG
  +--> RTC_IS_LT_TIMER/RTC
  +--> LT_TIMER_STOP_RAM/LT_TIMER
  +--> LT_TIMER_START_RTC/LT_TIMER

RTC_IS_LT_TIMER/RTC                           ----- -----  ----- -----  ----- -----

LT_TIMER_STOP_RAM/LT_TIMER                    ----- -----  ----- -----  ----- -----
  +--> _DEBUG_PRINTF/DEBUG

LT_TIMER_START_RTC/LT_TIMER                   ----- -----  ----- -----  ----- -----
  +--> _DEBUG_PRINTF/DEBUG
  +--> _RTC_READ_DATA/RTC
  +--> _RTC_ENABLE_ALARM_INT/RTC
LX51 LINKER/LOCATER V4.66.87.0                                                        05/09/2018  21:28:12  PAGE 24


  +--> _RTC_CLR_ALARM_INT_FLAG/RTC
  +--> _RTC_WRITE_DATA/RTC

CLOCK_ENTER_POWERSAVE/CLOCK                   ----- -----  ----- -----  ----- -----
  +--> _DEBUG_PRINTF/DEBUG
  +--> CLOCK_ENABLE_INTERRUPT/CLOCK

RTC_ENTER_POWERSAVE/RTC                       ----- -----  ----- -----  ----- -----
  +--> _DEBUG_PRINTF/DEBUG
  +--> _RTC_READ_DATA/RTC
  +--> _RTC_WRITE_DATA/RTC

KEY_ENTER_POWERSAVE/KEY                       ----- -----  ----- -----  ----- -----
  +--> _DEBUG_PRINTF/DEBUG

ALARM_ENTER_POWERSAVE/ALARM                   ----- -----  ----- -----  ----- -----
  +--> _DEBUG_PRINTF/DEBUG

BEEPER_ENTER_POWERSAVE/BEEPER                 ----- -----  ----- -----  ----- -----
  +--> _DEBUG_PRINTF/DEBUG

FUSE_ENTER_POWERSAVE/FUSE                     ----- -----  ----- -----  ----- -----
  +--> _DEBUG_PRINTF/DEBUG

HG_ENTER_POWERSAVE/HG                         ----- -----  ----- -----  ----- -----
  +--> _DEBUG_PRINTF/DEBUG

MPU_ENTER_POWERSAVE/MPU                       ----- -----  ----- -----  ----- -----
  +--> _DEBUG_PRINTF/DEBUG

THERMO_ENTER_POWERSAVE/THERMO                 ----- -----  ----- -----  ----- -----
  +--> _DEBUG_PRINTF/DEBUG

COM_ENTER_POWERSAVE/COM                       ----- -----  ----- -----  ----- -----
  +--> _DEBUG_PRINTF/DEBUG

POWER_TEST_FLAG/POWER                         ----- -----  ----- -----  ----- -----

COM_LEAVE_POWERSAVE/COM                       ----- -----  ----- -----  ----- -----
  +--> _DEBUG_PRINTF/DEBUG

_SCAN_INT_HUB_PROC/INT_HUB                    ----- -----  ----- -----  0013H 0015H
  +--> _DEBUG_PRINTF/DEBUG
  +--> INT_HUB_DUMP/INT_HUB
  +--> SCAN_RTC/RTC
  +--> INT_HUB_GET_STATUS/INT_HUB
  +--> _INT_HUB_DUMP_EXT_STATUS/INT_HUB
  +--> _SCAN_HG/HG
  +--> _SCAN_FUSE/FUSE
  +--> SCAN_THERMO/THERMO
  +--> SCAN_MPU/MPU
  +--> INT_HUB

INT_HUB_DUMP/INT_HUB                          ----- -----  ----- -----  ----- -----
  +--> _DEBUG_PRINTF/DEBUG

SCAN_RTC/RTC                                  ----- -----  ----- -----  ----- -----
  +--> _DEBUG_PRINTF/DEBUG
  +--> SCAN_ALARM/ALARM
  +--> SCAN_LT_TIMER/LT_TIMER

SCAN_ALARM/ALARM                              20H.0 20H.1  ----- -----  ----- -----
  +--> _RTC_READ_DATA/RTC
  +--> _RTC_TEST_ALARM_INT_FLAG/RTC
  +--> _RTC_CLR_ALARM_INT_FLAG/RTC
LX51 LINKER/LOCATER V4.66.87.0                                                        05/09/2018  21:28:12  PAGE 25


  +--> _RTC_WRITE_DATA/RTC
  +--> CLOCK_GET_DAY/CLOCK
  +--> ALARM
  +--> POWER_TEST_FLAG/POWER
  +--> POWER_CLR_FLAG/POWER
  +--> RTC_TIME_GET_MIN/RTC
  +--> RTC_TIME_GET_SEC/RTC

_RTC_TEST_ALARM_INT_FLAG/RTC                  ----- -----  ----- -----  ----- -----

CLOCK_GET_DAY/CLOCK                           ----- -----  ----- -----  ----- -----

POWER_CLR_FLAG/POWER                          ----- -----  ----- -----  ----- -----

SCAN_LT_TIMER/LT_TIMER                        20H.0 20H.0  ----- -----  ----- -----
  +--> _DEBUG_PRINTF/DEBUG
  +--> _RTC_READ_DATA/RTC
  +--> _RTC_TEST_ALARM_INT_FLAG/RTC
  +--> _RTC_CLR_ALARM_INT_FLAG/RTC
  +--> _RTC_WRITE_DATA/RTC
  +--> RTC_DATE_GET_YEAR/RTC
  +--> POWER_TEST_FLAG/POWER
  +--> POWER_CLR_FLAG/POWER
  +--> LT_TIMER

LT_TIMER                                      ----- -----  ----- -----  ----- -----

INT_HUB_GET_STATUS/INT_HUB                    ----- -----  ----- -----  0016H 0018H
  +--> _I2C_GET/I2C
  +--> _DEBUG_PRINTF/DEBUG

_INT_HUB_DUMP_EXT_STATUS/INT_HUB              ----- -----  ----- -----  0016H 0017H
  +--> _DEBUG_PRINTF/DEBUG
  +--> _INT_HUB_TEST_BIT/INT_HUB
  +--> INT_HUB

_INT_HUB_TEST_BIT/INT_HUB                     ----- -----  ----- -----  ----- -----

INT_HUB                                       ----- -----  ----- -----  ----- -----

_SCAN_HG/HG                                   ----- -----  ----- -----  0016H 0018H
  +--> _DEBUG_PRINTF/DEBUG
  +--> __HG_GET_STATE/HG
  +--> HG
  +--> POWER_TEST_FLAG/POWER
  +--> POWER_CLR_FLAG/POWER

__HG_GET_STATE/HG                             ----- -----  ----- -----  ----- -----

HG                                            ----- -----  ----- -----  ----- -----

_SCAN_FUSE/FUSE                               20H.0 20H.0  ----- -----  0016H 0017H
  +--> _DEBUG_PRINTF/DEBUG
  +--> POWER_TEST_FLAG/POWER
  +--> POWER_CLR_FLAG/POWER

SCAN_THERMO/THERMO                            20H.0 20H.0  ----- -----  0016H 0019H
  +--> _DEBUG_PRINTF/DEBUG
  +--> _I2C_GET/I2C
  +--> THERMO
  +--> POWER_TEST_FLAG/POWER
  +--> POWER_CLR_FLAG/POWER

SCAN_MPU/MPU                                  20H.0 20H.0  ----- -----  ----- -----
  +--> _DEBUG_PRINTF/DEBUG
LX51 LINKER/LOCATER V4.66.87.0                                                        05/09/2018  21:28:12  PAGE 26


  +--> MPU_READ_INT_STATUS/MPU
  +--> POWER_TEST_FLAG/POWER
  +--> POWER_CLR_FLAG/POWER

MPU_READ_INT_STATUS/MPU                       ----- -----  ----- -----  0016H 0016H
  +--> _I2C_GET/I2C
  +--> _DEBUG_PRINTF/DEBUG

POWER_LEAVE_POWERSAVE/POWER                   ----- -----  ----- -----  ----- -----
  +--> COM_LEAVE_POWERSAVE/COM
  +--> THERMO_LEAVE_POWERSAVE/THERMO
  +--> MPU_LEAVE_POWERSAVE/MPU
  +--> HG_LEAVE_POWERSAVE/HG
  +--> FUSE_LEAVE_POWERSAVE/FUSE
  +--> BEEPER_LEAVE_POWERSAVE/BEEPER
  +--> ALARM_LEAVE_POWERSAVE/ALARM
  +--> KEY_LEAVE_POWERSAVE/KEY
  +--> RTC_LEAVE_POWERSAVE/RTC
  +--> CLOCK_LEAVE_POWERSAVE/CLOCK
  +--> LT_TIMER_LEAVE_POWERSAVE/LT_TIMER
  +--> TIMER_LEAVE_POWERSAVE/TIMER
  +--> LED_LEAVE_POWERSAVE/LED
  +--> _DEBUG_PRINTF/DEBUG

THERMO_LEAVE_POWERSAVE/THERMO                 ----- -----  ----- -----  ----- -----
  +--> _DEBUG_PRINTF/DEBUG

MPU_LEAVE_POWERSAVE/MPU                       ----- -----  ----- -----  ----- -----
  +--> _DEBUG_PRINTF/DEBUG

HG_LEAVE_POWERSAVE/HG                         ----- -----  ----- -----  ----- -----
  +--> _DEBUG_PRINTF/DEBUG

FUSE_LEAVE_POWERSAVE/FUSE                     ----- -----  ----- -----  ----- -----
  +--> _DEBUG_PRINTF/DEBUG

BEEPER_LEAVE_POWERSAVE/BEEPER                 ----- -----  ----- -----  ----- -----
  +--> _DEBUG_PRINTF/DEBUG

ALARM_LEAVE_POWERSAVE/ALARM                   ----- -----  ----- -----  ----- -----
  +--> _DEBUG_PRINTF/DEBUG

KEY_LEAVE_POWERSAVE/KEY                       ----- -----  ----- -----  ----- -----
  +--> _DEBUG_PRINTF/DEBUG

RTC_LEAVE_POWERSAVE/RTC                       ----- -----  ----- -----  ----- -----
  +--> _DEBUG_PRINTF/DEBUG
  +--> _RTC_READ_DATA/RTC
  +--> RTC
  +--> _RTC_WRITE_DATA/RTC

CLOCK_LEAVE_POWERSAVE/CLOCK                   ----- -----  ----- -----  ----- -----
  +--> _DEBUG_PRINTF/DEBUG
  +--> _CLOCK_SYNC_FROM_RTC/CLOCK
  +--> CLOCK_ENABLE_INTERRUPT/CLOCK

LT_TIMER_LEAVE_POWERSAVE/LT_TIMER             ----- -----  ----- -----  ----- -----
  +--> _DEBUG_PRINTF/DEBUG
  +--> RTC_IS_LT_TIMER/RTC
  +--> LT_TIMER_STOP_RTC/LT_TIMER
  +--> LT_TIMER_SYNC_FROM_ROM/LT_TIMER
  +--> LT_TIMER_GET_RELATIVE/LT_TIMER
  +--> LT_TIMER
  +--> LT_TIMER_START_RAM/LT_TIMER

LX51 LINKER/LOCATER V4.66.87.0                                                        05/09/2018  21:28:12  PAGE 27


LT_TIMER_STOP_RTC/LT_TIMER                    ----- -----  ----- -----  ----- -----
  +--> _DEBUG_PRINTF/DEBUG
  +--> _RTC_READ_DATA/RTC
  +--> _RTC_ENABLE_ALARM_INT/RTC
  +--> _RTC_CLR_ALARM_INT_FLAG/RTC
  +--> _RTC_WRITE_DATA/RTC

LT_TIMER_SYNC_FROM_ROM/LT_TIMER               ----- -----  ----- -----  ----- -----
  +--> _ROM_READ/ROM

LT_TIMER_GET_RELATIVE/LT_TIMER                20H.0 20H.1  ----- -----  ----- -----
  +--> CLOCK_ENABLE_INTERRUPT/CLOCK
  +--> LT_TIMER_SUB_SEC_MIN/LT_TIMER
  +--> LT_TIMER_SUB_MIN_HOUR/LT_TIMER
  +--> LT_TIMER_SUB_HOUR_DATE/LT_TIMER
  +--> LT_TIMER_SUB_DATE/LT_TIMER
  +--> LT_TIMER
  +--> _DEBUG_PRINTF/DEBUG

LT_TIMER_SUB_SEC_MIN/LT_TIMER                 20H.2 20H.2  ----- -----  ----- -----
  +--> CLOCK_GET_SEC/CLOCK

CLOCK_GET_SEC/CLOCK                           ----- -----  ----- -----  ----- -----

LT_TIMER_SUB_MIN_HOUR/LT_TIMER                20H.2 20H.3  ----- -----  ----- -----
  +--> CLOCK_GET_MIN/CLOCK
  +--> LT_TIMER

LT_TIMER_SUB_HOUR_DATE/LT_TIMER               20H.2 20H.3  ----- -----  ----- -----
  +--> CLOCK_GET_HOUR/CLOCK
  +--> LT_TIMER

LT_TIMER_SUB_DATE/LT_TIMER                    20H.2 20H.2  ----- -----  0015H 0016H
  +--> CLOCK_GET_YEAR/CLOCK
  +--> _CLOCK_IS_LEAP_YEAR/CLOCK
  +--> LT_TIMER
  +--> CLOCK_GET_MONTH/CLOCK
  +--> CLOCK_GET_DATE/CLOCK

CLOCK_GET_YEAR/CLOCK                          ----- -----  ----- -----  ----- -----

CLOCK_GET_MONTH/CLOCK                         ----- -----  ----- -----  ----- -----

CLOCK_GET_DATE/CLOCK                          ----- -----  ----- -----  ----- -----

LT_TIMER_START_RAM/LT_TIMER                   ----- -----  ----- -----  ----- -----
  +--> _DEBUG_PRINTF/DEBUG

TIMER_LEAVE_POWERSAVE/TIMER                   ----- -----  ----- -----  ----- -----
  +--> _DEBUG_PRINTF/DEBUG

LED_LEAVE_POWERSAVE/LED                       ----- -----  ----- -----  ----- -----
  +--> _DEBUG_PRINTF/DEBUG
  +--> LED_CLEAR/LED

_SM_CLOCK_TIMER_INIT/SM_CLOCK_TIMER           ----- -----  ----- -----  ----- -----
  +--> SM_CLOCK_TIMER
  +--> _DEBUG_PRINTF/DEBUG
  +--> CLOCK_DISPLAY/CLOCK
  +--> _DISPLAY_LOGO/MOD_COMMON

SM_CLOCK_TIMER                                ----- -----  ----- -----  ----- -----

_SM_POWER_PACK_DISPLAY_INIT/SM_POWER_PAC+     ----- -----  ----- -----  ----- -----
... K_DISPLAY
LX51 LINKER/LOCATER V4.66.87.0                                                        05/09/2018  21:28:12  PAGE 28


  +--> SM_POWER_PACK_DISPLAY
  +--> _DEBUG_PRINTF/DEBUG

SM_POWER_PACK_DISPLAY                         ----- -----  ----- -----  ----- -----

_SM_CLOCK_DISPLAY_SUBMOD2/SM_CLOCK_DISPL+     ----- -----  ----- -----  0011H 0011H
... AY
  +--> SM_CLOCK_DISPLAY
  +--> _DEBUG_PRINTF/DEBUG
  +--> _CLOCK_SWITCH_DISPLAY_MODE/CLOCK
  +--> RESET_AUTO_SWITCH/SM_CLOCK_DISPLAY
  +--> POWER_RESET_POWERSAVE_TO/POWER
  +--> TEST_AUTOSWITCH/SM_CLOCK_DISPLAY

_SM_CLOCK_DISPLAY_SUBMOD3/SM_CLOCK_DISPL+     ----- -----  ----- -----  0011H 0011H
... AY
  +--> SM_CLOCK_DISPLAY
  +--> _DEBUG_PRINTF/DEBUG
  +--> CLOCK_DISPLAY/CLOCK
  +--> DISPLAY_TEMP/SM_CLOCK_DISPLAY
  +--> RESET_AUTO_SWITCH/SM_CLOCK_DISPLAY
  +--> POWER_RESET_POWERSAVE_TO/POWER
  +--> TEST_AUTOSWITCH/SM_CLOCK_DISPLAY

DISPLAY_TEMP/SM_CLOCK_DISPLAY                 20H.0 20H.0  ----- -----  0012H 0013H
  +--> _RTC_READ_DATA/RTC
  +--> _RTC_GET_TEMPERATURE/RTC
  +--> _DEBUG_PRINTF/DEBUG
  +--> LED_CLEAR/LED
  +--> _LED_SET_DP/LED
  +--> _LED_SET_CODE/LED
  +--> SM_CLOCK_DISPLAY

_RTC_GET_TEMPERATURE/RTC                      20H.1 20H.1  ----- -----  0014H 001DH
  +--> RTC

_SM_CLOCK_MOD_TIME_SUBMOD0/SM_CLOCK_MOD_+     ----- -----  ----- -----  0011H 0012H
... TIME
  +--> SM_CLOCK_MOD_TIME
  +--> _DEBUG_PRINTF/DEBUG
  +--> _ENTER_HHMMSS/SM_CLOCK_MOD_TIME
  +--> _INC_AND_WRITE/SM_CLOCK_MOD_TIME
  +--> _INC_ONLY/SM_CLOCK_MOD_TIME
  +--> _WRITE_ONLY/SM_CLOCK_MOD_TIME
  +--> UPDATE_HHMMSS/SM_CLOCK_MOD_TIME

_ENTER_HHMMSS/SM_CLOCK_MOD_TIME               ----- -----  ----- -----  0013H 0013H
  +--> LED_CLEAR/LED
  +--> _LED_SET_BLINK/LED
  +--> UPDATE_HHMMSS/SM_CLOCK_MOD_TIME

_LED_SET_BLINK/LED                            ----- -----  ----- -----  ----- -----

UPDATE_HHMMSS/SM_CLOCK_MOD_TIME               ----- -----  ----- -----  0014H 0016H
  +--> CLOCK_GET_HOUR/CLOCK
  +--> CLOCK_GET_MIN/CLOCK
  +--> CLOCK_GET_SEC/CLOCK
  +--> _LED_SET_DP/LED
  +--> CLOCK_GET_HOUR_12/CLOCK
  +--> _LED_CLR_DP/LED
  +--> _DEBUG_PRINTF/DEBUG
  +--> _LED_SET_CODE/LED
  +--> SM_CLOCK_MOD_TIME

_INC_AND_WRITE/SM_CLOCK_MOD_TIME              ----- -----  ----- -----  0013H 0013H
LX51 LINKER/LOCATER V4.66.87.0                                                        05/09/2018  21:28:12  PAGE 29


  +--> _INC_ONLY/SM_CLOCK_MOD_TIME
  +--> _WRITE_ONLY/SM_CLOCK_MOD_TIME

_INC_ONLY/SM_CLOCK_MOD_TIME                   ----- -----  ----- -----  ----- -----
  +--> CLOCK_INC_HOUR/CLOCK
  +--> CLOCK_INC_YEAR/CLOCK
  +--> CLOCK_INC_MIN/CLOCK
  +--> CLOCK_INC_MONTH/CLOCK
  +--> _LED_CLR_BLINK/LED
  +--> CLOCK_CLR_SEC/CLOCK
  +--> CLOCK_INC_DATE/CLOCK

CLOCK_INC_HOUR/CLOCK                          ----- -----  ----- -----  ----- -----

CLOCK_INC_YEAR/CLOCK                          ----- -----  ----- -----  ----- -----
  +--> CLOCK
  +--> _CLOCK_YYMMDD_TO_DAY/CLOCK

CLOCK_INC_MIN/CLOCK                           ----- -----  ----- -----  ----- -----

CLOCK_INC_MONTH/CLOCK                         ----- -----  ----- -----  ----- -----
  +--> CLOCK
  +--> _CLOCK_YYMMDD_TO_DAY/CLOCK

_LED_CLR_BLINK/LED                            ----- -----  ----- -----  ----- -----

CLOCK_CLR_SEC/CLOCK                           ----- -----  ----- -----  ----- -----

CLOCK_INC_DATE/CLOCK                          ----- -----  ----- -----  ----- -----
  +--> _CLOCK_GET_MON_DATE/CLOCK
  +--> CLOCK
  +--> _CLOCK_YYMMDD_TO_DAY/CLOCK

_CLOCK_GET_MON_DATE/CLOCK                     ----- -----  ----- -----  ----- -----
  +--> CLOCK

_WRITE_ONLY/SM_CLOCK_MOD_TIME                 ----- -----  ----- -----  ----- -----
  +--> _CLOCK_SYNC_TO_RTC/CLOCK
  +--> _LED_SET_BLINK/LED

_CLOCK_SYNC_TO_RTC/CLOCK                      ----- -----  ----- -----  0014H 0014H
  +--> _DEBUG_PRINTF/DEBUG
  +--> CLOCK_ENABLE_INTERRUPT/CLOCK
  +--> _RTC_READ_DATA/RTC
  +--> _RTC_TIME_SET_HOUR/RTC
  +--> _RTC_TIME_SET_MIN/RTC
  +--> _RTC_TIME_SET_SEC/RTC
  +--> RTC_TIME_SET_HOUR_12/RTC
  +--> _RTC_DATE_SET_YEAR/RTC
  +--> _RTC_DATE_SET_MONTH/RTC
  +--> _RTC_DATE_SET_DATE/RTC
  +--> _RTC_WRITE_DATA/RTC

_SM_CLOCK_MOD_TIME_SUBMOD1/SM_CLOCK_MOD_+     ----- -----  ----- -----  0011H 0011H
... TIME
  +--> SM_CLOCK_MOD_TIME
  +--> _DEBUG_PRINTF/DEBUG
  +--> _ENTER_HHMMSS/SM_CLOCK_MOD_TIME
  +--> _INC_AND_WRITE/SM_CLOCK_MOD_TIME
  +--> _INC_ONLY/SM_CLOCK_MOD_TIME
  +--> _WRITE_ONLY/SM_CLOCK_MOD_TIME
  +--> UPDATE_HHMMSS/SM_CLOCK_MOD_TIME

_SM_CLOCK_MOD_ALARM_INIT/SM_CLOCK_MOD_AL+     ----- -----  ----- -----  ----- -----
... ARM
LX51 LINKER/LOCATER V4.66.87.0                                                        05/09/2018  21:28:12  PAGE 30


  +--> SM_CLOCK_MOD_ALARM
  +--> _DEBUG_PRINTF/DEBUG
  +--> _DISPLAY_LOGO/MOD_COMMON

SM_CLOCK_MOD_ALARM                            ----- -----  ----- -----  ----- -----

_SM_CLOCK_MOD_TIME_SUBMOD2/SM_CLOCK_MOD_+     ----- -----  ----- -----  0011H 0011H
... TIME
  +--> SM_CLOCK_MOD_TIME
  +--> _DEBUG_PRINTF/DEBUG
  +--> _ENTER_HHMMSS/SM_CLOCK_MOD_TIME
  +--> _INC_AND_WRITE/SM_CLOCK_MOD_TIME
  +--> UPDATE_HHMMSS/SM_CLOCK_MOD_TIME

_SM_CLOCK_MOD_TIME_SUBMOD3/SM_CLOCK_MOD_+     ----- -----  ----- -----  0011H 0011H
... TIME
  +--> SM_CLOCK_MOD_TIME
  +--> _DEBUG_PRINTF/DEBUG
  +--> _ENTER_YYMMDD/SM_CLOCK_MOD_TIME
  +--> _INC_AND_WRITE/SM_CLOCK_MOD_TIME
  +--> _INC_ONLY/SM_CLOCK_MOD_TIME
  +--> _WRITE_ONLY/SM_CLOCK_MOD_TIME
  +--> UPDATE_YYMMDD/SM_CLOCK_MOD_TIME

_ENTER_YYMMDD/SM_CLOCK_MOD_TIME               ----- -----  ----- -----  0012H 0012H
  +--> LED_CLEAR/LED
  +--> _LED_SET_BLINK/LED
  +--> UPDATE_YYMMDD/SM_CLOCK_MOD_TIME

UPDATE_YYMMDD/SM_CLOCK_MOD_TIME               ----- -----  ----- -----  0013H 0015H
  +--> CLOCK_GET_YEAR/CLOCK
  +--> CLOCK_GET_MONTH/CLOCK
  +--> CLOCK_GET_DATE/CLOCK
  +--> _LED_SET_DP/LED
  +--> _DEBUG_PRINTF/DEBUG
  +--> _LED_SET_CODE/LED
  +--> SM_CLOCK_MOD_TIME

_SM_CLOCK_MOD_TIME_SUBMOD4/SM_CLOCK_MOD_+     ----- -----  ----- -----  0011H 0011H
... TIME
  +--> SM_CLOCK_MOD_TIME
  +--> _DEBUG_PRINTF/DEBUG
  +--> _ENTER_YYMMDD/SM_CLOCK_MOD_TIME
  +--> _INC_AND_WRITE/SM_CLOCK_MOD_TIME
  +--> _INC_ONLY/SM_CLOCK_MOD_TIME
  +--> _WRITE_ONLY/SM_CLOCK_MOD_TIME
  +--> UPDATE_YYMMDD/SM_CLOCK_MOD_TIME

_SM_CLOCK_MOD_TIME_SUBMOD5/SM_CLOCK_MOD_+     ----- -----  ----- -----  0011H 0011H
... TIME
  +--> SM_CLOCK_MOD_TIME
  +--> _DEBUG_PRINTF/DEBUG
  +--> _ENTER_YYMMDD/SM_CLOCK_MOD_TIME
  +--> _INC_AND_WRITE/SM_CLOCK_MOD_TIME
  +--> _INC_ONLY/SM_CLOCK_MOD_TIME
  +--> _WRITE_ONLY/SM_CLOCK_MOD_TIME
  +--> UPDATE_YYMMDD/SM_CLOCK_MOD_TIME

_SM_CLOCK_MOD_ALARM_SUBMOD0/SM_CLOCK_MOD+     ----- -----  ----- -----  0011H 0012H
... _ALARM
  +--> SM_CLOCK_MOD_ALARM
  +--> _DEBUG_PRINTF/DEBUG
  +--> _ENTER_ALARM/SM_CLOCK_MOD_ALARM
  +--> _INC_WRITE/SM_CLOCK_MOD_ALARM
  +--> _INC_ONLY/SM_CLOCK_MOD_ALARM
LX51 LINKER/LOCATER V4.66.87.0                                                        05/09/2018  21:28:12  PAGE 31


  +--> _WRITE_ONLY/SM_CLOCK_MOD_ALARM

_ENTER_ALARM/SM_CLOCK_MOD_ALARM               ----- -----  ----- -----  0013H 0014H
  +--> LED_CLEAR/LED
  +--> _LED_SET_BLINK/LED
  +--> _UPDATE_ALARM/SM_CLOCK_MOD_ALARM

_UPDATE_ALARM/SM_CLOCK_MOD_ALARM              ----- -----  ----- -----  0015H 0018H
  +--> ALARM0_GET_HOUR/ALARM
  +--> ALARM0_GET_MIN/ALARM
  +--> _LED_SET_DP/LED
  +--> ALARM0_GET_HOUR_12/ALARM
  +--> _LED_CLR_DP/LED
  +--> _DEBUG_PRINTF/DEBUG
  +--> _LED_SET_CODE/LED
  +--> _ALARM0_TEST_ENABLE/ALARM
  +--> ALARM1_TEST_ENABLE/ALARM
  +--> BEEPER_GET_MUSIC_INDEX/BEEPER

_ALARM0_TEST_ENABLE/ALARM                     ----- -----  ----- -----  0019H 0019H
  +--> ALARM
  +--> _DEBUG_PRINTF/DEBUG

ALARM1_TEST_ENABLE/ALARM                      ----- -----  ----- -----  ----- -----

BEEPER_GET_MUSIC_INDEX/BEEPER                 ----- -----  ----- -----  ----- -----

_INC_WRITE/SM_CLOCK_MOD_ALARM                 ----- -----  ----- -----  0013H 0013H
  +--> _INC_ONLY/SM_CLOCK_MOD_ALARM
  +--> _WRITE_ONLY/SM_CLOCK_MOD_ALARM

_INC_ONLY/SM_CLOCK_MOD_ALARM                  ----- -----  ----- -----  ----- -----
  +--> _LED_CLR_BLINK/LED
  +--> ALARM0_INC_HOUR/ALARM
  +--> ALARM0_INC_MIN/ALARM
  +--> _UPDATE_ALARM/SM_CLOCK_MOD_ALARM

ALARM0_INC_HOUR/ALARM                         ----- -----  ----- -----  ----- -----

ALARM0_INC_MIN/ALARM                          ----- -----  ----- -----  ----- -----

_WRITE_ONLY/SM_CLOCK_MOD_ALARM                ----- -----  ----- -----  0014H 0014H
  +--> ALARM0_SYNC_TO_RTC/ALARM
  +--> _LED_SET_BLINK/LED
  +--> ALARM0_GET_HOUR/ALARM
  +--> ALARM0_GET_MIN/ALARM
  +--> ALARM0_GET_DAY_MASK/ALARM
  +--> _ROM_WRITE/ROM

ALARM0_SYNC_TO_RTC/ALARM                      ----- -----  ----- -----  ----- -----
  +--> _DEBUG_PRINTF/DEBUG
  +--> _RTC_READ_DATA/RTC
  +--> _RTC_ALARM_SET_MODE/RTC
  +--> _RTC_ALARM_SET_HOUR/RTC
  +--> _RTC_ALARM_SET_MIN/RTC
  +--> _RTC_ALARM_SET_SEC/RTC
  +--> RTC_ALARM_SET_HOUR_12/RTC
  +--> _RTC_WRITE_DATA/RTC
  +--> _RTC_ENABLE_ALARM_INT/RTC
  +--> _RTC_CLR_ALARM_INT_FLAG/RTC

_RTC_ALARM_SET_MODE/RTC                       ----- -----  ----- -----  ----- -----
  +--> RTC

_RTC_ALARM_SET_HOUR/RTC                       ----- -----  ----- -----  ----- -----
LX51 LINKER/LOCATER V4.66.87.0                                                        05/09/2018  21:28:12  PAGE 32


  +--> RTC
  +--> __RTC_SET_HOUR/RTC

_RTC_ALARM_SET_MIN/RTC                        ----- -----  ----- -----  ----- -----
  +--> RTC
  +--> __RTC_SET_MIN_SEC/RTC

_RTC_ALARM_SET_SEC/RTC                        ----- -----  ----- -----  ----- -----
  +--> RTC

RTC_ALARM_SET_HOUR_12/RTC                     20H.0 20H.0  ----- -----  ----- -----
  +--> RTC
  +--> _RTC_SET_HOUR_12/RTC

ALARM0_GET_DAY_MASK/ALARM                     ----- -----  ----- -----  ----- -----

_SM_CLOCK_MOD_ALARM_SUBMOD1/SM_CLOCK_MOD+     ----- -----  ----- -----  0011H 0011H
... _ALARM
  +--> SM_CLOCK_MOD_ALARM
  +--> _DEBUG_PRINTF/DEBUG
  +--> _ENTER_ALARM/SM_CLOCK_MOD_ALARM
  +--> _INC_WRITE/SM_CLOCK_MOD_ALARM
  +--> _INC_ONLY/SM_CLOCK_MOD_ALARM
  +--> _WRITE_ONLY/SM_CLOCK_MOD_ALARM

_SM_CLOCK_MOD_ALARM_SUBMOD2/SM_CLOCK_MOD+     ----- -----  ----- -----  0011H 0012H
... _ALARM
  +--> SM_CLOCK_MOD_ALARM
  +--> _DEBUG_PRINTF/DEBUG
  +--> _TOGGLE_ALARM/SM_CLOCK_MOD_ALARM
  +--> _ENTER_ALARM/SM_CLOCK_MOD_ALARM

_TOGGLE_ALARM/SM_CLOCK_MOD_ALARM              ----- -----  ----- -----  0013H 0013H
  +--> _ALARM0_TEST_ENABLE/ALARM
  +--> _ALARM0_SET_ENABLE/ALARM
  +--> _UPDATE_ALARM/SM_CLOCK_MOD_ALARM
  +--> _WRITE_ONLY/SM_CLOCK_MOD_ALARM

_ALARM0_SET_ENABLE/ALARM                      20H.0 20H.0  ----- -----  0014H 0014H
  +--> _DEBUG_PRINTF/DEBUG
  +--> ALARM

_SM_CLOCK_MOD_ALARM_SUBMOD3/SM_CLOCK_MOD+     ----- -----  ----- -----  0011H 0011H
... _ALARM
  +--> SM_CLOCK_MOD_ALARM
  +--> _DEBUG_PRINTF/DEBUG
  +--> _ENTER_ALARM/SM_CLOCK_MOD_ALARM
  +--> TOGGLE_ALARM_BS/SM_CLOCK_MOD_ALARM

TOGGLE_ALARM_BS/SM_CLOCK_MOD_ALARM            ----- -----  ----- -----  ----- -----
  +--> ALARM1_TEST_ENABLE/ALARM
  +--> ALARM1_SET_ENABLE/ALARM
  +--> ALARM1_SYNC_TO_RTC/ALARM
  +--> _ROM_WRITE/ROM
  +--> _UPDATE_ALARM/SM_CLOCK_MOD_ALARM

ALARM1_SET_ENABLE/ALARM                       20H.0 20H.0  ----- -----  ----- -----

ALARM1_SYNC_TO_RTC/ALARM                      ----- -----  ----- -----  ----- -----
  +--> _DEBUG_PRINTF/DEBUG
  +--> _RTC_READ_DATA/RTC
  +--> _RTC_ALARM_SET_MODE/RTC
  +--> _RTC_ALARM_SET_MIN/RTC
  +--> _RTC_WRITE_DATA/RTC
  +--> _RTC_ENABLE_ALARM_INT/RTC
LX51 LINKER/LOCATER V4.66.87.0                                                        05/09/2018  21:28:12  PAGE 33


  +--> _RTC_CLR_ALARM_INT_FLAG/RTC

_SM_CLOCK_MOD_ALARM_SUBMOD4/SM_CLOCK_MOD+     ----- -----  ----- -----  0011H 0011H
... _ALARM
  +--> SM_CLOCK_MOD_ALARM
  +--> _DEBUG_PRINTF/DEBUG
  +--> _ENTER_ALARM/SM_CLOCK_MOD_ALARM
  +--> TOGGLE_ALARM_MUSIC/SM_CLOCK_MOD_ALARM

TOGGLE_ALARM_MUSIC/SM_CLOCK_MOD_ALARM         ----- -----  ----- -----  ----- -----
  +--> BEEPER_INC_MUSIC_INDEX/BEEPER
  +--> BEEPER_GET_MUSIC_INDEX/BEEPER
  +--> _ROM_WRITE/ROM
  +--> _UPDATE_ALARM/SM_CLOCK_MOD_ALARM

BEEPER_INC_MUSIC_INDEX/BEEPER                 ----- -----  ----- -----  ----- -----
  +--> _DEBUG_PRINTF/DEBUG

_SM_CLOCK_DISPLAY_INIT/SM_CLOCK_DISPLAY       ----- -----  ----- -----  ----- -----
  +--> SM_CLOCK_DISPLAY
  +--> _DEBUG_PRINTF/DEBUG
  +--> LT_TIMER_SWITCH_OFF/LT_TIMER
  +--> ALARM_SWITCH_ON/ALARM
  +--> RTC_SET_LT_TIMER/RTC
  +--> _DISPLAY_LOGO/MOD_COMMON

LT_TIMER_SWITCH_OFF/LT_TIMER                  ----- -----  ----- -----  ----- -----
  +--> _DEBUG_PRINTF/DEBUG
  +--> _RTC_READ_DATA/RTC
  +--> _RTC_ENABLE_ALARM_INT/RTC
  +--> _RTC_WRITE_DATA/RTC

ALARM_SWITCH_ON/ALARM                         ----- -----  ----- -----  ----- -----
  +--> _DEBUG_PRINTF/DEBUG
  +--> ALARM0_SYNC_TO_RTC/ALARM
  +--> ALARM1_SYNC_TO_RTC/ALARM

RTC_SET_LT_TIMER/RTC                          20H.0 20H.0  ----- -----  ----- -----

_SM_CLOCK_TIMER_SUBMOD0/SM_CLOCK_TIMER        ----- -----  ----- -----  0011H 0013H
  +--> SM_CLOCK_TIMER
  +--> _DEBUG_PRINTF/DEBUG
  +--> _DISPLAY_SLOT/SM_CLOCK_TIMER
  +--> _TIMER_SET_MODE/TIMER
  +--> TIMER_CLR/TIMER

_DISPLAY_SLOT/SM_CLOCK_TIMER                  ----- -----  ----- -----  0014H 0014H
  +--> LED_CLEAR/LED
  +--> _LED_SET_DP/LED
  +--> _TIMER_GET_MIN/TIMER
  +--> _TIMER_GET_SEC/TIMER
  +--> SM_CLOCK_TIMER
  +--> _LED_SET_CODE/LED
  +--> _TIMER_GET_MS10/TIMER

_TIMER_GET_MIN/TIMER                          ----- -----  ----- -----  ----- -----

_TIMER_GET_SEC/TIMER                          ----- -----  ----- -----  ----- -----

_TIMER_GET_MS10/TIMER                         ----- -----  ----- -----  ----- -----
  +--> TIMER

TIMER                                         ----- -----  ----- -----  ----- -----

_TIMER_SET_MODE/TIMER                         ----- -----  ----- -----  ----- -----
LX51 LINKER/LOCATER V4.66.87.0                                                        05/09/2018  21:28:12  PAGE 34



_SM_CLOCK_COUNTER_INIT/SM_CLOCK_COUNTER       ----- -----  ----- -----  ----- -----
  +--> SM_CLOCK_COUNTER
  +--> _DEBUG_PRINTF/DEBUG
  +--> _DISPLAY_LOGO/MOD_COMMON

SM_CLOCK_COUNTER                              ----- -----  ----- -----  ----- -----

_SM_CLOCK_TIMER_SUBMOD1/SM_CLOCK_TIMER        ----- -----  ----- -----  0011H 0011H
  +--> SM_CLOCK_TIMER
  +--> _DEBUG_PRINTF/DEBUG
  +--> TIMER_START/TIMER
  +--> TIMER_SET_LED_AUTOREFRESH/TIMER
  +--> _SHOW_SLOT_TITLE/SM_CLOCK_TIMER
  +--> _TIMER_SAVE/TIMER

TIMER_START/TIMER                             ----- -----  ----- -----  ----- -----
  +--> _DEBUG_PRINTF/DEBUG

TIMER_SET_LED_AUTOREFRESH/TIMER               20H.0 20H.0  ----- -----  0014H 0014H

_SHOW_SLOT_TITLE/SM_CLOCK_TIMER               ----- -----  ----- -----  0012H 0012H
  +--> LED_CLEAR/LED
  +--> _LED_SET_CODE/LED
  +--> SM_CLOCK_TIMER

_TIMER_SAVE/TIMER                             ----- -----  ----- -----  ----- -----

_SM_CLOCK_TIMER_SUBMOD2/SM_CLOCK_TIMER        ----- -----  ----- -----  0011H 0011H
  +--> SM_CLOCK_TIMER
  +--> _DEBUG_PRINTF/DEBUG
  +--> TIMER_STOP/TIMER
  +--> TIMER_SET_LED_AUTOREFRESH/TIMER
  +--> _DISPLAY_SLOT/SM_CLOCK_TIMER
  +--> _SHOW_SLOT_TITLE/SM_CLOCK_TIMER

TIMER_STOP/TIMER                              ----- -----  ----- -----  ----- -----

_SM_CLOCK_COUNTER_SUBMOD0/SM_CLOCK_COUNT+     ----- -----  ----- -----  0011H 0013H
... ER
  +--> SM_CLOCK_COUNTER
  +--> _DEBUG_PRINTF/DEBUG
  +--> _ENTER_HHMMSS/SM_CLOCK_COUNTER
  +--> TIMER_CLR/TIMER
  +--> _TIMER_SET_MODE/TIMER
  +--> TIMER_SET_LED_AUTOREFRESH/TIMER
  +--> UPDATE_HHMMSS/SM_CLOCK_COUNTER
  +--> _INC_AND_WRITE/SM_CLOCK_COUNTER
  +--> _INC_ONLY/SM_CLOCK_COUNTER
  +--> _WRITE_ONLY/SM_CLOCK_COUNTER

_ENTER_HHMMSS/SM_CLOCK_COUNTER                ----- -----  ----- -----  0014H 0014H
  +--> LED_CLEAR/LED
  +--> _LED_SET_BLINK/LED
  +--> UPDATE_HHMMSS/SM_CLOCK_COUNTER

UPDATE_HHMMSS/SM_CLOCK_COUNTER                ----- -----  ----- -----  0015H 0017H
  +--> _TIMER_GET_HOUR/TIMER
  +--> _TIMER_GET_MIN/TIMER
  +--> _TIMER_GET_SEC/TIMER
  +--> _LED_SET_DP/LED
  +--> _DEBUG_PRINTF/DEBUG
  +--> SM_CLOCK_COUNTER
  +--> _LED_SET_CODE/LED

LX51 LINKER/LOCATER V4.66.87.0                                                        05/09/2018  21:28:12  PAGE 35


_TIMER_GET_HOUR/TIMER                         ----- -----  ----- -----  ----- -----

_INC_AND_WRITE/SM_CLOCK_COUNTER               ----- -----  ----- -----  ----- -----
  +--> _INC_ONLY/SM_CLOCK_COUNTER
  +--> _WRITE_ONLY/SM_CLOCK_COUNTER

_INC_ONLY/SM_CLOCK_COUNTER                    ----- -----  ----- -----  ----- -----
  +--> _TIMER_INC_HOUR/TIMER
  +--> _TIMER_INC_MIN/TIMER
  +--> _LED_CLR_BLINK/LED
  +--> _TIMER_INC_SEC/TIMER

_TIMER_INC_HOUR/TIMER                         ----- -----  ----- -----  ----- -----

_TIMER_INC_MIN/TIMER                          ----- -----  ----- -----  ----- -----
  +--> TIMER

_TIMER_INC_SEC/TIMER                          ----- -----  ----- -----  ----- -----
  +--> TIMER

_WRITE_ONLY/SM_CLOCK_COUNTER                  ----- -----  ----- -----  ----- -----
  +--> _LED_SET_BLINK/LED

_SM_CLOCK_COUNTER_SUBMOD1/SM_CLOCK_COUNT+     ----- -----  ----- -----  0011H 0011H
... ER
  +--> SM_CLOCK_COUNTER
  +--> _DEBUG_PRINTF/DEBUG
  +--> UPDATE_HHMMSS/SM_CLOCK_COUNTER
  +--> _ENTER_HHMMSS/SM_CLOCK_COUNTER
  +--> _INC_AND_WRITE/SM_CLOCK_COUNTER
  +--> _INC_ONLY/SM_CLOCK_COUNTER
  +--> _WRITE_ONLY/SM_CLOCK_COUNTER

_SM_CLOCK_COUNTER_SUBMOD2/SM_CLOCK_COUNT+     ----- -----  ----- -----  0011H 0011H
... ER
  +--> SM_CLOCK_COUNTER
  +--> _DEBUG_PRINTF/DEBUG
  +--> UPDATE_HHMMSS/SM_CLOCK_COUNTER
  +--> _ENTER_HHMMSS/SM_CLOCK_COUNTER
  +--> _INC_AND_WRITE/SM_CLOCK_COUNTER
  +--> _INC_ONLY/SM_CLOCK_COUNTER
  +--> _WRITE_ONLY/SM_CLOCK_COUNTER

_SM_CLOCK_COUNTER_SUBMOD3/SM_CLOCK_COUNT+     ----- -----  ----- -----  0011H 0011H
... ER
  +--> SM_CLOCK_COUNTER
  +--> _DEBUG_PRINTF/DEBUG
  +--> _LED_CLR_BLINK/LED
  +--> TIMER_START/TIMER
  +--> TIMER_SET_LED_AUTOREFRESH/TIMER

_SM_CLOCK_COUNTER_SUBMOD4/SM_CLOCK_COUNT+     ----- -----  ----- -----  0011H 0011H
... ER
  +--> SM_CLOCK_COUNTER
  +--> _DEBUG_PRINTF/DEBUG
  +--> TIMER_STOP/TIMER
  +--> TIMER_SET_LED_AUTOREFRESH/TIMER

_SM_CLOCK_COUNTER_SUBMOD5/SM_CLOCK_COUNT+     ----- -----  ----- -----  0011H 0011H
... ER
  +--> SM_CLOCK_COUNTER
  +--> _DEBUG_PRINTF/DEBUG
  +--> TIMER_SET_LED_AUTOREFRESH/TIMER
  +--> TIMER_CLR/TIMER
  +--> BEEPER_BEEP_BEEP_ALWAYS/BEEPER
LX51 LINKER/LOCATER V4.66.87.0                                                        05/09/2018  21:28:12  PAGE 36



_SM_POWER_PACK_DISPLAY_SUBMOD0/SM_POWER_+     ----- -----  ----- -----  ----- -----
... PACK_DISPLAY
  +--> SM_POWER_PACK_DISPLAY
  +--> _DEBUG_PRINTF/DEBUG

_SM_FUSE_TEST_INIT/SM_FUSE_TEST               ----- -----  ----- -----  0011H 0011H
  +--> SM_FUSE_TEST
  +--> _DEBUG_PRINTF/DEBUG
  +--> CLOCK_DISPLAY/CLOCK
  +--> _DISPLAY_LOGO/MOD_COMMON
  +--> ALARM_SWITCH_OFF/ALARM
  +--> LT_TIMER_SWITCH_ON/LT_TIMER
  +--> RTC_SET_LT_TIMER/RTC

SM_FUSE_TEST                                  ----- -----  ----- -----  ----- -----

ALARM_SWITCH_OFF/ALARM                        ----- -----  ----- -----  ----- -----
  +--> _DEBUG_PRINTF/DEBUG
  +--> _RTC_READ_DATA/RTC
  +--> _RTC_ENABLE_ALARM_INT/RTC
  +--> _RTC_WRITE_DATA/RTC

LT_TIMER_SWITCH_ON/LT_TIMER                   ----- -----  ----- -----  ----- -----
  +--> _DEBUG_PRINTF/DEBUG
  +--> LT_TIMER_SYNC_TO_RTC/LT_TIMER

LT_TIMER_SYNC_TO_RTC/LT_TIMER                 ----- -----  ----- -----  ----- -----
  +--> LT_TIMER
  +--> _DEBUG_PRINTF/DEBUG
  +--> _RTC_READ_DATA/RTC
  +--> _RTC_ALARM_SET_MODE/RTC
  +--> _RTC_ALARM_SET_DATE/RTC
  +--> _RTC_ALARM_SET_HOUR/RTC
  +--> _RTC_ALARM_SET_MIN/RTC
  +--> _RTC_ALARM_SET_SEC/RTC
  +--> _RTC_WRITE_DATA/RTC

_RTC_ALARM_SET_DATE/RTC                       ----- -----  ----- -----  ----- -----
  +--> RTC
  +--> __RTC_SET_DATE/RTC

_SM_POWER_PACK_POWERSAVE_INIT/SM_POWER_P+     ----- -----  ----- -----  ----- -----
... ACK_POWERSAVE
  +--> SM_POWER_PACK_POWERSAVE
  +--> _DEBUG_PRINTF/DEBUG

SM_POWER_PACK_POWERSAVE                       ----- -----  ----- -----  ----- -----

_SM_POWER_PACK_POWERSAVE_SUBMOD0/SM_POWE+     ----- -----  ----- -----  ----- -----
... R_PACK_POWERSAVE
  +--> SM_POWER_PACK_POWERSAVE
  +--> _DEBUG_PRINTF/DEBUG

_SM_FUSE_TEST_SUBMOD0/SM_FUSE_TEST            ----- -----  ----- -----  0011H 0011H
  +--> SM_FUSE_TEST
  +--> _DEBUG_PRINTF/DEBUG
  +--> CLOCK_GET_SEC_256/CLOCK
  +--> FUSE_ENABLE/FUSE
  +--> _FUSE_SET_FUSE_BROKE/FUSE
  +--> FUSE_SET_TRIPWIRE_BROKE/FUSE
  +--> _DISPLAY_TEST/SM_FUSE_TEST

FUSE_ENABLE/FUSE                              20H.1 20H.1  ----- -----  ----- -----
  +--> _DEBUG_PRINTF/DEBUG
LX51 LINKER/LOCATER V4.66.87.0                                                        05/09/2018  21:28:12  PAGE 37


  +--> FUSE_POWER_ON/FUSE
  +--> FUSE_POWER_OFF/FUSE

FUSE_POWER_ON/FUSE                            ----- -----  ----- -----  ----- -----
  +--> _SERIAL_SET_CTL_BIT/SERIAL_HUB
  +--> SERIAL_CTL_OUT/SERIAL_HUB

_FUSE_SET_FUSE_BROKE/FUSE                     20H.0 20H.0  ----- -----  0012H 0012H
  +--> _DEBUG_PRINTF/DEBUG
  +--> _SERIAL_SET_CTL_BIT/SERIAL_HUB
  +--> SERIAL_CTL_OUT/SERIAL_HUB

FUSE_SET_TRIPWIRE_BROKE/FUSE                  20H.0 20H.0  ----- -----  ----- -----
  +--> _DEBUG_PRINTF/DEBUG
  +--> _SERIAL_SET_CTL_BIT/SERIAL_HUB
  +--> SERIAL_CTL_OUT/SERIAL_HUB

_DISPLAY_TEST/SM_FUSE_TEST                    ----- -----  ----- -----  0015H 0018H
  +--> SM_FUSE_TEST
  +--> _DEBUG_PRINTF/DEBUG
  +--> LED_CLEAR/LED
  +--> _LED_SET_DP/LED
  +--> _LED_SET_CODE/LED
  +--> _LED_SET_BLINK/LED

_SM_FUSE_TEST_SUBMOD1/SM_FUSE_TEST            ----- -----  ----- -----  0011H 0011H
  +--> SM_FUSE_TEST
  +--> _DEBUG_PRINTF/DEBUG
  +--> _SM_FUSE_SET/SM_FUSE_TEST

_SM_FUSE_SET/SM_FUSE_TEST                     ----- -----  ----- -----  0012H 0013H
  +--> _ENTER_SET/SM_FUSE_TEST
  +--> _INC_WRITE/SM_FUSE_TEST
  +--> _INC_ONLY/SM_FUSE_TEST
  +--> _WRITE_ONLY/SM_FUSE_TEST

_ENTER_SET/SM_FUSE_TEST                       ----- -----  ----- -----  0014H 0014H
  +--> SM_FUSE_TEST
  +--> _DEBUG_PRINTF/DEBUG
  +--> LED_CLEAR/LED
  +--> _LED_SET_DP/LED
  +--> _LED_SET_BLINK/LED
  +--> _LED_SET_CODE/LED
  +--> _ROM_READ/ROM
  +--> _UPDATE_SET/SM_FUSE_TEST

_UPDATE_SET/SM_FUSE_TEST                      ----- -----  ----- -----  ----- -----
  +--> _LED_SET_CODE/LED
  +--> SM_FUSE_TEST

_INC_WRITE/SM_FUSE_TEST                       ----- -----  ----- -----  0014H 0014H
  +--> _DEBUG_PRINTF/DEBUG
  +--> _INC_ONLY/SM_FUSE_TEST
  +--> _WRITE_ONLY/SM_FUSE_TEST

_INC_ONLY/SM_FUSE_TEST                        ----- -----  ----- -----  0015H 0015H
  +--> SM_FUSE_TEST
  +--> _DEBUG_PRINTF/DEBUG
  +--> _LED_CLR_BLINK/LED
  +--> _THERMO_THRESHOLD_INC/THERMO
  +--> _MPU_THRESHOLD_INC/MPU
  +--> _UPDATE_SET/SM_FUSE_TEST

_THERMO_THRESHOLD_INC/THERMO                  ----- -----  ----- -----  ----- -----
  +--> THERMO
LX51 LINKER/LOCATER V4.66.87.0                                                        05/09/2018  21:28:12  PAGE 38



_MPU_THRESHOLD_INC/MPU                        ----- -----  ----- -----  ----- -----

_WRITE_ONLY/SM_FUSE_TEST                      ----- -----  ----- -----  0015H 0015H
  +--> SM_FUSE_TEST
  +--> _DEBUG_PRINTF/DEBUG
  +--> _LED_CLR_BLINK/LED
  +--> _ROM_WRITE/ROM

_SM_FUSE_PARAM_INIT/SM_FUSE_PARAM             ----- -----  ----- -----  0011H 0011H
  +--> SM_FUSE_PARAM
  +--> _DEBUG_PRINTF/DEBUG
  +--> _DISPLAY_LOGO/MOD_COMMON

SM_FUSE_PARAM                                 ----- -----  ----- -----  ----- -----

_SM_FUSE_TEST_SUBMOD2/SM_FUSE_TEST            ----- -----  ----- -----  0011H 0011H
  +--> SM_FUSE_TEST
  +--> _DEBUG_PRINTF/DEBUG
  +--> _SM_FUSE_TEST_THERMO/SM_FUSE_TEST

_SM_FUSE_TEST_THERMO/SM_FUSE_TEST             ----- -----  ----- -----  0012H 0014H
  +--> SM_FUSE_TEST
  +--> THERMO_ENABLE/THERMO
  +--> _ROM_READ/ROM
  +--> THERMO_HI_THRESHOLD_GET/THERMO
  +--> THERMO_LO_THRESHOLD_GET/THERMO
  +--> CLOCK_GET_SEC_256/CLOCK
  +--> THERMO_HI_THRESHOLD_REACH_BOTTOM/THERMO
  +--> THERMO_HI_THRESHOLD_DEC/THERMO
  +--> THERMO_LO_THRESHOLD_REACH_TOP/THERMO
  +--> THERMO_LO_THRESHOLD_INC/THERMO
  +--> _DISPLAY_TEST/SM_FUSE_TEST

THERMO_ENABLE/THERMO                          20H.1 20H.1  ----- -----  ----- -----
  +--> THERMO_POWER_ON/THERMO
  +--> THERMO_POWER_OFF/THERMO

THERMO_POWER_ON/THERMO                        ----- -----  ----- -----  0015H 0015H
  +--> _I2C_PUT/I2C
  +--> THERMO_HI_THRESHOLD_RESET/THERMO
  +--> THERMO_LO_THRESHOLD_RESET/THERMO
  +--> _DELAY_MS/MISC
  +--> THERMO
  +--> _I2C_GET/I2C
  +--> _DEBUG_PRINTF/DEBUG

THERMO_HI_THRESHOLD_RESET/THERMO              ----- -----  ----- -----  ----- -----
  +--> _THERMO_HI_THRESHOLD_SET/THERMO

_THERMO_HI_THRESHOLD_SET/THERMO               ----- -----  ----- -----  0016H 0018H
  +--> THERMO
  +--> _DEBUG_PRINTF/DEBUG
  +--> _THERMO_TEMP_TO_HEX/THERMO
  +--> _I2C_PUTS/I2C

_THERMO_TEMP_TO_HEX/THERMO                    ----- -----  ----- -----  0019H 001AH
  +--> _DEBUG_PRINTF/DEBUG

THERMO_LO_THRESHOLD_RESET/THERMO              ----- -----  ----- -----  ----- -----
  +--> _THERMO_LO_THRESHOLD_SET/THERMO

_THERMO_LO_THRESHOLD_SET/THERMO               ----- -----  ----- -----  0016H 0018H
  +--> _DEBUG_PRINTF/DEBUG
  +--> THERMO
LX51 LINKER/LOCATER V4.66.87.0                                                        05/09/2018  21:28:12  PAGE 39


  +--> _THERMO_TEMP_TO_HEX/THERMO
  +--> _I2C_PUTS/I2C

THERMO_HI_THRESHOLD_GET/THERMO                ----- -----  ----- -----  0015H 0016H
  +--> THERMO
  +--> _I2C_GETS/I2C
  +--> _THERMO_HEX_TO_TEMP/THERMO

_THERMO_HEX_TO_TEMP/THERMO                    ----- -----  ----- -----  0017H 0017H
  +--> THERMO
  +--> _DEBUG_PRINTF/DEBUG

THERMO_LO_THRESHOLD_GET/THERMO                ----- -----  ----- -----  0015H 0016H
  +--> THERMO
  +--> _I2C_GETS/I2C
  +--> _THERMO_HEX_TO_TEMP/THERMO

THERMO_HI_THRESHOLD_REACH_BOTTOM/THERMO       ----- -----  ----- -----  ----- -----
  +--> THERMO_HI_THRESHOLD_GET/THERMO
  +--> THERMO

THERMO_HI_THRESHOLD_DEC/THERMO                ----- -----  ----- -----  ----- -----
  +--> THERMO_HI_THRESHOLD_GET/THERMO
  +--> THERMO
  +--> _THERMO_HI_THRESHOLD_SET/THERMO

THERMO_LO_THRESHOLD_REACH_TOP/THERMO          ----- -----  ----- -----  ----- -----
  +--> THERMO_LO_THRESHOLD_GET/THERMO
  +--> THERMO

THERMO_LO_THRESHOLD_INC/THERMO                ----- -----  ----- -----  ----- -----
  +--> THERMO_LO_THRESHOLD_GET/THERMO
  +--> THERMO
  +--> _THERMO_LO_THRESHOLD_SET/THERMO

_SM_FUSE_TEST_SUBMOD3/SM_FUSE_TEST            ----- -----  ----- -----  0011H 0011H
  +--> SM_FUSE_TEST
  +--> _DEBUG_PRINTF/DEBUG
  +--> _SM_FUSE_SET/SM_FUSE_TEST

_SM_FUSE_TEST_SUBMOD4/SM_FUSE_TEST            ----- -----  ----- -----  0011H 0011H
  +--> SM_FUSE_TEST
  +--> _DEBUG_PRINTF/DEBUG
  +--> _SM_FUSE_TEST_THERMO/SM_FUSE_TEST

_SM_FUSE_TEST_SUBMOD5/SM_FUSE_TEST            ----- -----  ----- -----  0011H 0011H
  +--> SM_FUSE_TEST
  +--> _DEBUG_PRINTF/DEBUG
  +--> _SM_FUSE_SET/SM_FUSE_TEST

_SM_FUSE_TEST_SUBMOD6/SM_FUSE_TEST            ----- -----  ----- -----  0011H 0011H
  +--> SM_FUSE_TEST
  +--> _DEBUG_PRINTF/DEBUG
  +--> _SM_FUSE_TEST_HG_MPU/SM_FUSE_TEST

_SM_FUSE_TEST_HG_MPU/SM_FUSE_TEST             ----- -----  ----- -----  0012H 0014H
  +--> HG_ENABLE/HG
  +--> MPU_ENABLE/MPU
  +--> SM_FUSE_TEST
  +--> _ROM_READ/ROM
  +--> HG_GET_STATE/HG
  +--> MPU_THRESHOLD_GET/MPU
  +--> _UPDATE_HG_MASK/SM_FUSE_TEST
  +--> _DISPLAY_TEST/SM_FUSE_TEST
  +--> CLOCK_GET_SEC_256/CLOCK
LX51 LINKER/LOCATER V4.66.87.0                                                        05/09/2018  21:28:12  PAGE 40



HG_ENABLE/HG                                  20H.1 20H.1  ----- -----  ----- -----
  +--> _DEBUG_PRINTF/DEBUG
  +--> HG_POWER_ON/HG
  +--> HG_POWER_OFF/HG

HG_POWER_ON/HG                                ----- -----  ----- -----  ----- -----
  +--> _SERIAL_SET_CTL_BIT/SERIAL_HUB
  +--> SERIAL_CTL_OUT/SERIAL_HUB
  +--> HG_CB_SET_ENABLE/HG
  +--> _DELAY_TASK_REG/DELAY_TASK

HG_CB_SET_ENABLE/HG                           ----- -----  ----- -----  ----- -----
  +--> _DEBUG_PRINTF/DEBUG
  +--> INT_HUB_GET_STATUS/INT_HUB
  +--> __HG_GET_STATE/HG

_DELAY_TASK_REG/DELAY_TASK                    ----- -----  ----- -----  0015H 0018H
  +--> _DEBUG_PRINTF/DEBUG
  +--> DELAY_TASK

MPU_ENABLE/MPU                                20H.1 20H.1  ----- -----  ----- -----
  +--> _DEBUG_PRINTF/DEBUG
  +--> MPU_POWER_ON/MPU
  +--> MPU_POWER_OFF/MPU

MPU_POWER_ON/MPU                              ----- -----  ----- -----  0015H 0015H
  +--> _DEBUG_PRINTF/DEBUG
  +--> _I2C_PUT/I2C
  +--> MPU
  +--> _I2C_GET/I2C

HG_GET_STATE/HG                               ----- -----  ----- -----  ----- -----
  +--> HG
  +--> _DEBUG_PRINTF/DEBUG

MPU_THRESHOLD_GET/MPU                         ----- -----  ----- -----  ----- -----

_UPDATE_HG_MASK/SM_FUSE_TEST                  ----- -----  ----- -----  0015H 0016H
  +--> SM_FUSE_TEST
  +--> _DEBUG_PRINTF/DEBUG

_SM_FUSE_TEST_SUBMOD7/SM_FUSE_TEST            ----- -----  ----- -----  0011H 0011H
  +--> SM_FUSE_TEST
  +--> _DEBUG_PRINTF/DEBUG
  +--> _SM_FUSE_SET/SM_FUSE_TEST

_SM_FUSE_TEST_SUBMOD8/SM_FUSE_TEST            ----- -----  ----- -----  0011H 0011H
  +--> SM_FUSE_TEST
  +--> _DEBUG_PRINTF/DEBUG
  +--> _SM_FUSE_TEST_HG_MPU/SM_FUSE_TEST

_SM_FUSE_PARAM_SUBMOD0/SM_FUSE_PARAM          ----- -----  ----- -----  0011H 0011H
  +--> SM_FUSE_PARAM
  +--> _DEBUG_PRINTF/DEBUG
  +--> _SM_FUSE_PARAM_SET_TIME/SM_FUSE_PARAM

_SM_FUSE_PARAM_SET_TIME/SM_FUSE_PARAM         ----- -----  ----- -----  0012H 0013H
  +--> _ENTER_TIME/SM_FUSE_PARAM
  +--> _INC_AND_WRITE/SM_FUSE_PARAM
  +--> _UPDATE_TIME/SM_FUSE_PARAM
  +--> SM_FUSE_PARAM
  +--> _INC_ONLY/SM_FUSE_PARAM
  +--> _WRITE_ONLY/SM_FUSE_PARAM

LX51 LINKER/LOCATER V4.66.87.0                                                        05/09/2018  21:28:12  PAGE 41


_ENTER_TIME/SM_FUSE_PARAM                     ----- -----  ----- -----  0014H 0014H
  +--> LED_CLEAR/LED
  +--> _LED_SET_BLINK/LED
  +--> _UPDATE_TIME/SM_FUSE_PARAM

_UPDATE_TIME/SM_FUSE_PARAM                    ----- -----  ----- -----  0015H 001AH
  +--> LT_TIMER_GET_YEAR/LT_TIMER
  +--> LT_TIMER_GET_MONTH/LT_TIMER
  +--> LT_TIMER_GET_DATE/LT_TIMER
  +--> _LED_SET_DP/LED
  +--> _DEBUG_PRINTF/DEBUG
  +--> _LED_SET_CODE/LED
  +--> LT_TIMER_GET_HOUR/LT_TIMER
  +--> LT_TIMER_GET_MIN/LT_TIMER
  +--> LT_TIMER_GET_SEC/LT_TIMER
  +--> CLOCK_GET_HOUR_12/CLOCK
  +--> _LED_CLR_DP/LED

LT_TIMER_GET_YEAR/LT_TIMER                    ----- -----  ----- -----  ----- -----

LT_TIMER_GET_MONTH/LT_TIMER                   ----- -----  ----- -----  ----- -----

LT_TIMER_GET_DATE/LT_TIMER                    ----- -----  ----- -----  ----- -----

LT_TIMER_GET_HOUR/LT_TIMER                    ----- -----  ----- -----  ----- -----

LT_TIMER_GET_MIN/LT_TIMER                     ----- -----  ----- -----  ----- -----

LT_TIMER_GET_SEC/LT_TIMER                     ----- -----  ----- -----  ----- -----

_INC_AND_WRITE/SM_FUSE_PARAM                  ----- -----  ----- -----  ----- -----
  +--> _INC_ONLY/SM_FUSE_PARAM
  +--> _WRITE_ONLY/SM_FUSE_PARAM

_INC_ONLY/SM_FUSE_PARAM                       ----- -----  ----- -----  ----- -----
  +--> LT_TIMER_INC_HOUR/LT_TIMER
  +--> LT_TIMER_INC_YEAR/LT_TIMER
  +--> LT_TIMER_INC_MIN/LT_TIMER
  +--> LT_TIMER_INC_MONTH/LT_TIMER
  +--> _LED_CLR_BLINK/LED
  +--> LT_TIMER_INC_SEC/LT_TIMER
  +--> LT_TIMER_INC_DATE/LT_TIMER

LT_TIMER_INC_HOUR/LT_TIMER                    ----- -----  ----- -----  ----- -----

LT_TIMER_INC_YEAR/LT_TIMER                    ----- -----  ----- -----  ----- -----

LT_TIMER_INC_MIN/LT_TIMER                     ----- -----  ----- -----  ----- -----

LT_TIMER_INC_MONTH/LT_TIMER                   ----- -----  ----- -----  ----- -----

LT_TIMER_INC_SEC/LT_TIMER                     ----- -----  ----- -----  ----- -----

LT_TIMER_INC_DATE/LT_TIMER                    ----- -----  ----- -----  ----- -----

_WRITE_ONLY/SM_FUSE_PARAM                     ----- -----  ----- -----  0014H 0014H
  +--> _ROM_WRITE/ROM
  +--> _LT_TIMER_SYNC_TO_ROM/LT_TIMER
  +--> _LED_SET_BLINK/LED

_LT_TIMER_SYNC_TO_ROM/LT_TIMER                ----- -----  ----- -----  0015H 0015H
  +--> LT_TIMER
  +--> _DEBUG_PRINTF/DEBUG
  +--> _ROM_WRITE/ROM

LX51 LINKER/LOCATER V4.66.87.0                                                        05/09/2018  21:28:12  PAGE 42


_SM_FUSE_PARAM_SUBMOD1/SM_FUSE_PARAM          ----- -----  ----- -----  0011H 0011H
  +--> SM_FUSE_PARAM
  +--> _DEBUG_PRINTF/DEBUG
  +--> _SM_FUSE_PARAM_SET_TIME/SM_FUSE_PARAM

_SM_FUSE_PARAM_SUBMOD2/SM_FUSE_PARAM          ----- -----  ----- -----  0011H 0011H
  +--> SM_FUSE_PARAM
  +--> _DEBUG_PRINTF/DEBUG
  +--> _SM_FUSE_PARAM_SET_TIME/SM_FUSE_PARAM

_SM_FUSE_PARAM_SUBMOD3/SM_FUSE_PARAM          ----- -----  ----- -----  0011H 0011H
  +--> SM_FUSE_PARAM
  +--> _DEBUG_PRINTF/DEBUG
  +--> _SM_FUSE_PARAM_SET_TIME/SM_FUSE_PARAM

_SM_FUSE_PARAM_SUBMOD4/SM_FUSE_PARAM          ----- -----  ----- -----  0011H 0011H
  +--> SM_FUSE_PARAM
  +--> _DEBUG_PRINTF/DEBUG
  +--> _SM_FUSE_PARAM_SET_TIME/SM_FUSE_PARAM

_SM_FUSE_PARAM_SUBMOD5/SM_FUSE_PARAM          ----- -----  ----- -----  0011H 0011H
  +--> SM_FUSE_PARAM
  +--> _DEBUG_PRINTF/DEBUG
  +--> _SM_FUSE_PARAM_SET_TIME/SM_FUSE_PARAM

_SM_FUSE_PARAM_SUBMOD6/SM_FUSE_PARAM          ----- -----  ----- -----  0011H 0012H
  +--> SM_FUSE_PARAM
  +--> _DEBUG_PRINTF/DEBUG
  +--> _ENTER_PASSWORD/SM_FUSE_PARAM
  +--> _INC_AND_WRITE/SM_FUSE_PARAM
  +--> _UPDATE_PASSWORD/SM_FUSE_PARAM
  +--> _INC_ONLY/SM_FUSE_PARAM
  +--> _WRITE_ONLY/SM_FUSE_PARAM

_ENTER_PASSWORD/SM_FUSE_PARAM                 ----- -----  ----- -----  0013H 0013H
  +--> _ROM_READ/ROM
  +--> _UPDATE_PASSWORD/SM_FUSE_PARAM

_UPDATE_PASSWORD/SM_FUSE_PARAM                ----- -----  ----- -----  0014H 0014H
  +--> LED_CLEAR/LED
  +--> _LED_SET_CODE/LED

_SM_FUSE_TIMER_INIT/SM_FUSE_TIMER             ----- -----  ----- -----  ----- -----
  +--> SM_FUSE_TIMER
  +--> _DEBUG_PRINTF/DEBUG
  +--> _DISPLAY_LOGO/MOD_COMMON

SM_FUSE_TIMER                                 ----- -----  ----- -----  ----- -----

_SM_FUSE_TIMER_SUBMOD0/SM_FUSE_TIMER          ----- -----  ----- -----  0011H 0012H
  +--> SM_FUSE_TIMER
  +--> _DEBUG_PRINTF/DEBUG
  +--> _DISPLAY_PREARM/SM_FUSE_TIMER
  +--> _CHECK_AND_SET/SM_FUSE_TIMER
  +--> ROLL_BACK/SM_FUSE_TIMER

_DISPLAY_PREARM/SM_FUSE_TIMER                 ----- -----  ----- -----  0013H 0014H
  +--> LED_CLEAR/LED
  +--> _LED_SET_CODE/LED

_CHECK_AND_SET/SM_FUSE_TIMER                  ----- -----  ----- -----  0013H 0014H
  +--> FUSE_ENABLE/FUSE
  +--> MPU_ENABLE/MPU
  +--> _ROM_READ/ROM
  +--> THERMO_ENABLE/THERMO
LX51 LINKER/LOCATER V4.66.87.0                                                        05/09/2018  21:28:12  PAGE 43


  +--> LT_TIMER_SYNC_FROM_ROM/LT_TIMER
  +--> LT_TIMER_SYNC_TO_RTC/LT_TIMER
  +--> LT_TIMER_GET_RELATIVE/LT_TIMER
  +--> LT_TIMER_START_RAM/LT_TIMER

ROLL_BACK/SM_FUSE_TIMER                       20H.0 20H.0  ----- -----  ----- -----
  +--> THERMO_ENABLE/THERMO
  +--> MPU_ENABLE/MPU
  +--> HG_ENABLE/HG
  +--> LT_TIMER_RESET/LT_TIMER
  +--> FUSE_ENABLE/FUSE

LT_TIMER_RESET/LT_TIMER                       ----- -----  ----- -----  ----- -----
  +--> LT_TIMER_STOP_RTC/LT_TIMER
  +--> LT_TIMER_STOP_RAM/LT_TIMER

_SM_FUSE_TIMER_SUBMOD1/SM_FUSE_TIMER          ----- -----  ----- -----  0011H 0012H
  +--> SM_FUSE_TIMER
  +--> _DEBUG_PRINTF/DEBUG
  +--> LT_TIMER_DISPLAY/LT_TIMER
  +--> POWER_TEST_POWERSAVE_TO/POWER
  +--> POWER_RESET_POWERSAVE_TO/POWER
  +--> LT_TIMER_SWITCH_DISPLAY/LT_TIMER

LT_TIMER_DISPLAY/LT_TIMER                     20H.0 20H.0  ----- -----  ----- -----
  +--> _DEBUG_PRINTF/DEBUG

LT_TIMER_SWITCH_DISPLAY/LT_TIMER              ----- -----  ----- -----  ----- -----
  +--> _DEBUG_PRINTF/DEBUG

_SM_FUSE_TIMER_SUBMOD2/SM_FUSE_TIMER          ----- -----  ----- -----  0011H 0012H
  +--> SM_FUSE_TIMER
  +--> _DEBUG_PRINTF/DEBUG
  +--> LT_TIMER_DISPLAY/LT_TIMER
  +--> VERIFY_PASSWORD/SM_FUSE_TIMER
  +--> INC_PASSWORD/SM_FUSE_TIMER
  +--> DISPLAY_PASSWORD/SM_FUSE_TIMER

VERIFY_PASSWORD/SM_FUSE_TIMER                 ----- -----  ----- -----  0013H 0013H
  +--> _ROM_READ/ROM
  +--> SM_FUSE_TIMER
  +--> _DEBUG_PRINTF/DEBUG

INC_PASSWORD/SM_FUSE_TIMER                    ----- -----  ----- -----  ----- -----

DISPLAY_PASSWORD/SM_FUSE_TIMER                ----- -----  ----- -----  ----- -----
  +--> LED_CLEAR/LED
  +--> _LED_SET_CODE/LED

_SM_FUSE_TIMER_SUBMOD3/SM_FUSE_TIMER          ----- -----  ----- -----  0011H 0011H
  +--> SM_FUSE_TIMER
  +--> _DEBUG_PRINTF/DEBUG
  +--> ROLL_BACK/SM_FUSE_TIMER
  +--> _DISPLAY_TIMER/SM_FUSE_TIMER

_DISPLAY_TIMER/SM_FUSE_TIMER                  ----- -----  ----- -----  0012H 0012H
  +--> LED_CLEAR/LED
  +--> _LED_SET_CODE/LED

_SM_FUSE_TIMER_SUBMOD4/SM_FUSE_TIMER          ----- -----  ----- -----  ----- -----
  +--> SM_FUSE_TIMER
  +--> _DEBUG_PRINTF/DEBUG
  +--> ROLL_BACK/SM_FUSE_TIMER
  +--> _DISPLAY_TIMER/SM_FUSE_TIMER

LX51 LINKER/LOCATER V4.66.87.0                                                        05/09/2018  21:28:12  PAGE 44


_SM_FUSE_DETONATE_INIT/SM_FUSE_DETONATE       ----- -----  ----- -----  0011H 0011H
  +--> SM_FUSE_DETONATE
  +--> _DEBUG_PRINTF/DEBUG
  +--> DISPLAY_DETONATE/SM_FUSE_DETONATE
  +--> FUSE_TRIGGER/FUSE

SM_FUSE_DETONATE                              ----- -----  ----- -----  ----- -----

DISPLAY_DETONATE/SM_FUSE_DETONATE             ----- -----  ----- -----  ----- -----
  +--> LED_CLEAR/LED
  +--> _LED_SET_CODE/LED
  +--> _LED_SET_BLINK/LED

FUSE_TRIGGER/FUSE                             20H.0 20H.0  ----- -----  ----- -----
  +--> _DEBUG_PRINTF/DEBUG
  +--> POWER_5V_ENABLE/POWER
  +--> _SERIAL_SET_CTL_BIT/SERIAL_HUB
  +--> SERIAL_CTL_OUT/SERIAL_HUB

POWER_5V_ENABLE/POWER                         20H.1 20H.1  ----- -----  ----- -----
  +--> _DEBUG_PRINTF/DEBUG

_SM_FUSE_POWERSAVE_INIT/SM_FUSE_POWERSAV+     ----- -----  ----- -----  ----- -----
... E
  +--> SM_FUSE_POWERSAVE
  +--> _DEBUG_PRINTF/DEBUG

SM_FUSE_POWERSAVE                             ----- -----  ----- -----  ----- -----

_SM_FUSE_DETONATE_SUBMOD0/SM_FUSE_DETONA+     ----- -----  ----- -----  0011H 0011H
... TE
  +--> SM_FUSE_DETONATE
  +--> _DEBUG_PRINTF/DEBUG
  +--> FUSE_TRIGGER/FUSE
  +--> FUSE_ENABLE/FUSE

_SM_FUSE_POWERSAVE_SUBMOD0/SM_FUSE_POWER+     ----- -----  ----- -----  0011H 0011H
... SAVE
  +--> SM_FUSE_POWERSAVE
  +--> _DEBUG_PRINTF/DEBUG
  +--> POWER_ENTER_POWERSAVE/POWER
  +--> POWER_LEAVE_POWERSAVE/POWER

_SM_FUSE_POWERSAVE_SUBMOD1/SM_FUSE_POWER+     ----- -----  ----- -----  ----- -----
... SAVE
  +--> SM_FUSE_POWERSAVE
  +--> _DEBUG_PRINTF/DEBUG
  +--> ROLL_BACK/SM_FUSE_POWERSAVE

ROLL_BACK/SM_FUSE_POWERSAVE                   ----- -----  ----- -----  ----- -----
  +--> THERMO_ENABLE/THERMO
  +--> MPU_ENABLE/MPU
  +--> HG_ENABLE/HG
  +--> LT_TIMER_RESET/LT_TIMER

_SM_GLOBAL_FLAG_MOD_SUBMOD0/SM_GLOBAL_FL+     ----- -----  ----- -----  0011H 0011H
... AG_MOD
  +--> SM_GLOBAL_FLAG_MOD
  +--> _DEBUG_PRINTF/DEBUG
  +--> _SM_GLOBAL_FLAG_MOD/SM_GLOBAL_FLAG_MOD

SM_GLOBAL_FLAG_MOD                            ----- -----  ----- -----  ----- -----

_SM_GLOBAL_FLAG_MOD/SM_GLOBAL_FLAG_MOD        ----- -----  ----- -----  0012H 0013H
  +--> _INC_WRITE/SM_GLOBAL_FLAG_MOD
LX51 LINKER/LOCATER V4.66.87.0                                                        05/09/2018  21:28:12  PAGE 45


  +--> _DISPLAY_GLOBAL_FLAG/SM_GLOBAL_FLAG_MOD

_INC_WRITE/SM_GLOBAL_FLAG_MOD                 ----- -----  ----- -----  ----- -----
  +--> POWER_INC_POWERSAVE_TO/POWER
  +--> POWER_GET_POWERSAVE_TO/POWER
  +--> BEEPER_GET_BEEP_ENABLE/BEEPER
  +--> BEEPER_SET_BEEP_ENABLE/BEEPER
  +--> CLOCK_GET_HOUR_12/CLOCK
  +--> CLOCK_SET_HOUR_12/CLOCK
  +--> _CLOCK_SYNC_TO_RTC/CLOCK
  +--> ALARM0_GET_HOUR_12/ALARM
  +--> ALARM0_SET_HOUR_12/ALARM
  +--> ALARM0_SYNC_TO_RTC/ALARM
  +--> _ROM_WRITE/ROM

POWER_INC_POWERSAVE_TO/POWER                  ----- -----  ----- -----  ----- -----

POWER_GET_POWERSAVE_TO/POWER                  ----- -----  ----- -----  ----- -----

BEEPER_GET_BEEP_ENABLE/BEEPER                 ----- -----  ----- -----  ----- -----

BEEPER_SET_BEEP_ENABLE/BEEPER                 20H.0 20H.0  ----- -----  ----- -----

CLOCK_SET_HOUR_12/CLOCK                       20H.0 20H.0  ----- -----  ----- -----

ALARM0_SET_HOUR_12/ALARM                      20H.0 20H.0  ----- -----  ----- -----

_DISPLAY_GLOBAL_FLAG/SM_GLOBAL_FLAG_MOD       ----- -----  ----- -----  0014H 0014H
  +--> LED_CLEAR/LED
  +--> _DEBUG_PRINTF/DEBUG
  +--> _LED_SET_CODE/LED
  +--> POWER_GET_POWERSAVE_TO_S/POWER
  +--> BEEPER_GET_BEEP_ENABLE/BEEPER
  +--> CLOCK_GET_HOUR_12/CLOCK

POWER_GET_POWERSAVE_TO_S/POWER                ----- -----  ----- -----  ----- -----

_SM_GLOBAL_FLAG_MOD_SUBMOD1/SM_GLOBAL_FL+     ----- -----  ----- -----  0011H 0011H
... AG_MOD
  +--> SM_GLOBAL_FLAG_MOD
  +--> _DEBUG_PRINTF/DEBUG
  +--> _SM_GLOBAL_FLAG_MOD/SM_GLOBAL_FLAG_MOD

_SM_GLOBAL_FLAG_MOD_SUBMOD2/SM_GLOBAL_FL+     ----- -----  ----- -----  0011H 0011H
... AG_MOD
  +--> SM_GLOBAL_FLAG_MOD
  +--> _DEBUG_PRINTF/DEBUG
  +--> _SM_GLOBAL_FLAG_MOD/SM_GLOBAL_FLAG_MOD

_SM_GLOBAL_FLAG_MOD_INIT/SM_GLOBAL_FLAG_+     ----- -----  ----- -----  ----- -----
... MOD
  +--> SM_GLOBAL_FLAG_MOD
  +--> _DEBUG_PRINTF/DEBUG
  +--> _DISPLAY_LOGO/MOD_COMMON

_SCAN_KEY_PROC/KEY                            ----- -----  ----- -----  ----- -----
  +--> _DELAY_10US/MISC
  +--> CLOCK_GET_SEC_256/CLOCK
  +--> KEY

KEY                                           ----- -----  ----- -----  ----- -----

_SET_PROC/KEY                                 ----- -----  ----- -----  000CH 000CH
  +--> KEY
  +--> _DEBUG_PRINTF/DEBUG
LX51 LINKER/LOCATER V4.66.87.0                                                        05/09/2018  21:28:12  PAGE 46


  +--> BEEPER_BEEP/BEEPER
  +--> _RUN_STATE_MACHINE/SM

BEEPER_BEEP/BEEPER                            ----- -----  ----- -----  000DH 000DH
  +--> _DEBUG_PRINTF/DEBUG
  +--> _DELAY_10US/MISC

_MOD_PROC/KEY                                 ----- -----  ----- -----  000CH 000CH
  +--> KEY
  +--> _DEBUG_PRINTF/DEBUG
  +--> BEEPER_BEEP/BEEPER
  +--> _RUN_STATE_MACHINE/SM

_MOD_SET_PROC/KEY                             ----- -----  ----- -----  000CH 000CH
  +--> _DEBUG_PRINTF/DEBUG
  +--> _RUN_STATE_MACHINE/SM

_FUSE_PROC/FUSE                               ----- -----  ----- -----  000CH 000CH
  +--> _DEBUG_PRINTF/DEBUG
  +--> _RUN_STATE_MACHINE/SM

_NULL_PROC/SM                                 ----- -----  ----- -----  ----- -----
  +--> _RUN_STATE_MACHINE/SM

_THERMO_PROC/THERMO                           ----- -----  ----- -----  000CH 000CH
  +--> _DEBUG_PRINTF/DEBUG
  +--> _RUN_STATE_MACHINE/SM

_ALARM_PROC/ALARM                             ----- -----  ----- -----  000CH 000CH
  +--> _DEBUG_PRINTF/DEBUG
  +--> _RUN_STATE_MACHINE/SM

_POWER_PROC/POWER                             ----- -----  ----- -----  000CH 000CH
  +--> _DEBUG_PRINTF/DEBUG
  +--> _RUN_STATE_MACHINE/SM

SM_INITIALIZE/SM                              ----- -----  ----- -----  ----- -----
  +--> _DEBUG_PRINTF/DEBUG
  +--> LT_TIMER_SWITCH_OFF/LT_TIMER
  +--> ALARM_SWITCH_ON/ALARM
  +--> RTC_SET_LT_TIMER/RTC

DELAY_TASK_INITIALIZE/DELAY_TASK              ----- -----  ----- -----  ----- -----
  +--> _DEBUG_PRINTF/DEBUG

RUN_TASK/TASK                                 ----- -----  ----- -----  0000H 0000H
  +--> COM_TRY_GET_KEY/COM
  +--> TASK

COM_TRY_GET_KEY/COM                           ----- -----  ----- -----  ----- -----
  +--> COM

COM                                           ----- -----  ----- -----  ----- -----

TASK                                          ----- -----  ----- -----  ----- -----

RUN_SHELL/SHELL                               ----- -----  ----- -----  0000H 0001H
  +--> PRINTF/PRINTF
  +--> CLOCK_ENTER_SHELL/CLOCK
  +--> LED_SAVE/LED
  +--> LED_CLEAR/LED
  +--> _LED_SET_CODE/LED
  +--> _GETS/GETS
  +--> SHELL
  +--> _CALL_CMD/SHELL
LX51 LINKER/LOCATER V4.66.87.0                                                        05/09/2018  21:28:12  PAGE 47


  +--> LED_RESTORE/LED
  +--> CLOCK_LEAVE_SHELL/CLOCK

_CMD_HELP/CMD_HELP                            ----- -----  ----- -----  0008H 0008H
  +--> SHELL_DUMP_CMD/SHELL
  +--> CMD_HELP
  +--> _SHELL_SEARCH_CMD_BY_NAME/SHELL
  +--> PRINTF/PRINTF

SHELL_DUMP_CMD/SHELL                          ----- -----  ----- -----  0009H 0009H
  +--> SHELL
  +--> PRINTF/PRINTF

SHELL                                         ----- -----  ----- -----  ----- -----

CMD_HELP                                      ----- -----  ----- -----  ----- -----

_SHELL_SEARCH_CMD_BY_NAME/SHELL               ----- -----  ----- -----  0009H 000CH
  +--> SHELL

_CMD_DBG/CMD_DBG                              ----- -----  ----- -----  0008H 0008H
  +--> CMD_DBG
  +--> PRINTF/PRINTF
  +--> DEBUG_ONOFF/DEBUG

CMD_DBG                                       ----- -----  ----- -----  ----- -----

DEBUG_ONOFF/DEBUG                             20H.0 20H.0  ----- -----  ----- -----

_CMD_SERIAL/CMD_SERIAL                        ----- -----  ----- -----  0008H 000BH
  +--> SERIAL_DUMP/SERIAL_HUB
  +--> _SERIAL_TEST_CTL_BIT/SERIAL_HUB
  +--> CMD_SERIAL
  +--> PRINTF/PRINTF
  +--> _SERIAL_SET_CTL_BIT/SERIAL_HUB
  +--> SERIAL_CTL_OUT/SERIAL_HUB
  +--> _ATOI/ATOI

CMD_SERIAL                                    ----- -----  ----- -----  ----- -----

_ATOI/ATOI                                    20H.1 20H.1  ----- -----  000FH 0013H
  +--> _ISSPACE/ISSPACE
  +--> _ISDIGIT/ISDIGIT

_ISSPACE/ISSPACE                              ----- -----  ----- -----  ----- -----

_ISDIGIT/ISDIGIT                              ----- -----  ----- -----  ----- -----

_CMD_INT/CMD_INT                              ----- -----  ----- -----  0008H 0008H
  +--> INT_HUB_DUMP/INT_HUB
  +--> INT_HUB_GET_STATUS/INT_HUB
  +--> _INT_HUB_DUMP_EXT_STATUS/INT_HUB

_CMD_I2C/CMD_I2C                              ----- -----  ----- -----  0008H 0009H
  +--> CMD_I2C
  +--> _I2C_READ/CMD_I2C
  +--> _I2C_WRITE/CMD_I2C

CMD_I2C                                       ----- -----  ----- -----  ----- -----

_I2C_READ/CMD_I2C                             20H.0 20H.0  ----- -----  000AH 000DH
  +--> CMD_I2C
  +--> _ATOI/ATOI
  +--> I2C_INIT/I2C
  +--> _I2C_GET/I2C
LX51 LINKER/LOCATER V4.66.87.0                                                        05/09/2018  21:28:12  PAGE 48


  +--> PRINTF/PRINTF

_I2C_WRITE/CMD_I2C                            20H.0 20H.0  ----- -----  000AH 000EH
  +--> CMD_I2C
  +--> _ATOI/ATOI
  +--> PRINTF/PRINTF
  +--> I2C_INIT/I2C
  +--> _I2C_PUT/I2C

_CMD_REBOOT/CMD_REBOOT                        ----- -----  ----- -----  0008H 0008H
  +--> PRINTF/PRINTF

_CMD_TASK/CMD_TASK                            ----- -----  ----- -----  0008H 000AH
  +--> TASK_DUMP/TASK
  +--> CMD_TASK
  +--> _ATOI/ATOI

TASK_DUMP/TASK                                ----- -----  ----- -----  000BH 000BH
  +--> TASK
  +--> PRINTF/PRINTF

CMD_TASK                                      ----- -----  ----- -----  ----- -----

_CMD_SM/CMD_SM                                ----- -----  ----- -----  0008H 0009H
  +--> SM_SHOW_CURRENT/SM
  +--> CMD_SM
  +--> SM_DUMP/SM
  +--> SM_DUMP_TABLE/SM
  +--> _SM_SET_TABLE_BY_NAME/SM
  +--> SM_DUMP_STATE/SM
  +--> _SM_SET_STATE_BY_NAME/SM
  +--> SM_DUMP_SUB_STATE/SM
  +--> _SM_SET_SUB_STATE_BY_NAME/SM
  +--> PRINTF/PRINTF

SM_SHOW_CURRENT/SM                            ----- -----  ----- -----  ----- -----
  +--> SM
  +--> PRINTF/PRINTF

CMD_SM                                        ----- -----  ----- -----  ----- -----

SM_DUMP/SM                                    ----- -----  ----- -----  000AH 000CH
  +--> SM
  +--> PRINTF/PRINTF

SM_DUMP_TABLE/SM                              ----- -----  ----- -----  000AH 000AH
  +--> SM
  +--> PRINTF/PRINTF

_SM_SET_TABLE_BY_NAME/SM                      ----- -----  ----- -----  000AH 000DH
  +--> SM
  +--> PRINTF/PRINTF

SM_DUMP_STATE/SM                              ----- -----  ----- -----  000AH 000AH
  +--> SM
  +--> PRINTF/PRINTF

_SM_SET_STATE_BY_NAME/SM                      ----- -----  ----- -----  000AH 000DH
  +--> SM
  +--> PRINTF/PRINTF
  +--> _SM_SET_STATE/SM
  +--> _SM_SET_SUB_STATE/SM

_SM_SET_STATE/SM                              ----- -----  ----- -----  ----- -----

LX51 LINKER/LOCATER V4.66.87.0                                                        05/09/2018  21:28:12  PAGE 49


_SM_SET_SUB_STATE/SM                          ----- -----  ----- -----  ----- -----
  +--> SM

SM_DUMP_SUB_STATE/SM                          ----- -----  ----- -----  000AH 000AH
  +--> SM
  +--> PRINTF/PRINTF

_SM_SET_SUB_STATE_BY_NAME/SM                  ----- -----  ----- -----  000AH 000DH
  +--> SM
  +--> PRINTF/PRINTF
  +--> _SM_SET_SUB_STATE/SM

_CMD_BEEPER/CMD_BEEPER                        ----- -----  ----- -----  0008H 000AH
  +--> CMD_BEEPER
  +--> BEEPER_BEEP/BEEPER
  +--> BEEPER_BEEP_BEEP/BEEPER
  +--> BEEPER_SET_BEEP_ENABLE/BEEPER
  +--> BEEPER_GET_MUSIC_INDEX/BEEPER
  +--> BEEPER_INC_MUSIC_INDEX/BEEPER
  +--> PRINTF/PRINTF
  +--> BEEPER_PLAY_MUSIC/BEEPER

CMD_BEEPER                                    ----- -----  ----- -----  ----- -----

BEEPER_BEEP_BEEP/BEEPER                       ----- -----  ----- -----  000BH 000BH
  +--> _DEBUG_PRINTF/DEBUG
  +--> _DELAY_10US/MISC
  +--> _DELAY_MS/MISC

_CMD_THERMO/CMD_THERMO                        ----- -----  ----- -----  0008H 000AH
  +--> THERMO_GET_CURRENT/THERMO
  +--> CMD_THERMO
  +--> THERMO_ENABLE/THERMO
  +--> THERMO_HI_THRESHOLD_GET/THERMO
  +--> THERMO_LO_THRESHOLD_GET/THERMO
  +--> PRINTF/PRINTF
  +--> THERMO_HI_THRESHOLD_INC/THERMO
  +--> THERMO_HI_THRESHOLD_DEC/THERMO
  +--> THERMO_HI_THRESHOLD_RESET/THERMO
  +--> _THERMO_HI_THRESHOLD_SET/THERMO
  +--> THERMO_LO_THRESHOLD_INC/THERMO
  +--> THERMO_LO_THRESHOLD_DEC/THERMO
  +--> THERMO_LO_THRESHOLD_RESET/THERMO
  +--> _THERMO_LO_THRESHOLD_SET/THERMO
  +--> _ATOI/ATOI

THERMO_GET_CURRENT/THERMO                     ----- -----  ----- -----  000BH 000DH
  +--> THERMO
  +--> _I2C_GETS/I2C
  +--> _DEBUG_PRINTF/DEBUG
  +--> _THERMO_HEX_TO_TEMP/THERMO

CMD_THERMO                                    ----- -----  ----- -----  ----- -----

THERMO_HI_THRESHOLD_INC/THERMO                ----- -----  ----- -----  ----- -----
  +--> THERMO_HI_THRESHOLD_GET/THERMO
  +--> THERMO
  +--> _THERMO_HI_THRESHOLD_SET/THERMO

THERMO_LO_THRESHOLD_DEC/THERMO                ----- -----  ----- -----  ----- -----
  +--> THERMO_LO_THRESHOLD_GET/THERMO
  +--> THERMO
  +--> _THERMO_LO_THRESHOLD_SET/THERMO

_CMD_MPU/CMD_MPU                              ----- -----  ----- -----  0008H 0009H
LX51 LINKER/LOCATER V4.66.87.0                                                        05/09/2018  21:28:12  PAGE 50


  +--> CMD_MPU
  +--> MPU_ENABLE/MPU
  +--> MPU_READ_INT_STATUS/MPU
  +--> PRINTF/PRINTF

CMD_MPU                                       ----- -----  ----- -----  ----- -----

_CMD_NULL/SHELL                               ----- -----  ----- -----  ----- -----
  +--> PRINTF/PRINTF

CLOCK_ENTER_SHELL/CLOCK                       ----- -----  ----- -----  ----- -----

LED_SAVE/LED                                  ----- -----  ----- -----  ----- -----

_GETS/GETS                                    ----- -----  ----- -----  0002H 0008H
  +--> GETCHAR/GETCHAR
  +--> _PUTCHAR/COM

GETCHAR/GETCHAR                               ----- -----  ----- -----  ----- -----
  +--> _GETKEY/COM
  +--> _PUTCHAR/COM

_GETKEY/COM                                   ----- -----  ----- -----  ----- -----
  +--> COM

_CALL_CMD/SHELL                               ----- -----  ----- -----  0002H 0007H
  +--> SHELL
  +--> PRINTF/PRINTF
  +--> _SHELL_SEARCH_CMD_BY_NAME/SHELL

LED_RESTORE/LED                               ----- -----  ----- -----  ----- -----

CLOCK_LEAVE_SHELL/CLOCK                       ----- -----  ----- -----  ----- -----
  +--> CLOCK_ENABLE_INTERRUPT/CLOCK
  +--> _CLOCK_SYNC_FROM_RTC/CLOCK

*** NEW ROOT ********************************

COM_ISR/COM                                   ----- -----  ----- -----  ----- -----

*** NEW ROOT ********************************

INT0_ISR/KEY                                  ----- -----  ----- -----  ----- -----
  +--> POWER_TEST_FLAG/POWER
  +--> POWER_CLR_FLAG/POWER
  +--> KEY
  +--> BEEPER_STOP_MUSIC/BEEPER

BEEPER_STOP_MUSIC/BEEPER                      ----- -----  ----- -----  ----- -----
  +--> _BEEPER_STOP_PLAY/BEEPER

*** NEW ROOT ********************************

BEEPER_ISR/BEEPER                             ----- -----  ----- -----  ----- -----

*** NEW ROOT ********************************

CLOCK0_ISR/CLOCK                              ----- -----  ----- -----  ----- -----
  +--> CLOCK_INC_MS39/CLOCK
  +--> TIMER_INC_MS39/TIMER
  +--> REFRESH_LED/LED

CLOCK_INC_MS39/CLOCK                          21H.3 21H.3  ----- -----  ----- -----
  +--> LT_TIMER_DEC_SEC/LT_TIMER
  +--> CLOCK
LX51 LINKER/LOCATER V4.66.87.0                                                        05/09/2018  21:28:12  PAGE 51



LT_TIMER_DEC_SEC/LT_TIMER                     ----- -----  ----- -----  ----- -----
  +--> LT_TIMER

TIMER_INC_MS39/TIMER                          ----- -----  ----- -----  ----- -----
  +--> TIMER

*** NEW ROOT ********************************

INT1_ISR/INT_HUB                              ----- -----  ----- -----  ----- -----
  +--> INT_HUB



PUBLIC SYMBOLS OF MODULE:  Clock (SM)


      VALUE       CLASS    TYPE      PUBLIC SYMBOL NAME
      =================================================
      00000020H.0 BIT      BIT       ?_alarm0_set_enable?BIT
      0200001BH   XDATA    BYTE      ?_debug_printf?BYTE
      00000020H.0 BIT      BIT       ?_fuse_set_fuse_broke?BIT
      0200001DH   XDATA    BYTE      ?_I2C_Gets?BYTE
      02000019H   XDATA    BYTE      ?_I2C_Puts?BYTE
      0200004CH   XDATA    ---       ?_PRINTF?BYTE
      00000020H.1 BIT      BIT       ?_rtc_enable_alarm_int?BIT
      02000014H   XDATA    BYTE      ?_rtc_get_temperature?BYTE
      00000020H.2 BIT      BIT       ?_serial_set_ctl_bit?BIT
      0200004CH   XDATA    ---       ?_SPRINTF?BYTE
      020000D5H   XDATA    ---       ?_UNGETCHAR?BYTE
      02010046H   XDATA    ---       ?_VPRINTF?BYTE
      00000020H.0 BIT      BIT       ?alarm0_set_hour_12?BIT
      00000020H.0 BIT      BIT       ?alarm1_set_enable?BIT
      00000020H.0 BIT      BIT       ?beeper_set_beep_enable?BIT
      01000212H   CODE     ---       ?C?CASTF
      0100074DH   CODE     ---       ?C?CCASE
      00000025H.0 BIT      ---       ?C?CHARLOADED
      01000578H   CODE     ---       ?C?CLDOPTR
      0100055FH   CODE     ---       ?C?CLDPTR
      00000000H   NUMBER   ---       ?C?CODESEG
      01000871H   CODE     ---       ?C?COPYP2
      01000A2AH   CODE     ---       ?C?CSTOPTR
      010005A5H   CODE     ---       ?C?CSTPTR
      010001DEH   CODE     ---       ?C?FCASTC
      010001D9H   CODE     ---       ?C?FCASTI
      010001D4H   CODE     ---       ?C?FCASTL
      010003DCH   CODE     ---       ?C?FPADD
      010002D0H   CODE     ---       ?C?FPCONVERT
      01000137H   CODE     ---       ?C?FPDIV
      01000249H   CODE     ---       ?C?FPGETOPN2
      0100002EH   CODE     ---       ?C?FPMUL
      0100027EH   CODE     ---       ?C?FPNANRESULT
      01000288H   CODE     ---       ?C?FPOVERFLOW
      01000260H   CODE     ---       ?C?FPRESULT
      01000274H   CODE     ---       ?C?FPRESULT2
      01000293H   CODE     ---       ?C?FPROUND
      010003D8H   CODE     ---       ?C?FPSUB
      01000285H   CODE     ---       ?C?FPUNDERFLOW
      010004FDH   CODE     ---       ?C?FTNPWR
      01000773H   CODE     ---       ?C?ICALL
      01000777H   CODE     ---       ?C?ICALL2
      0100061EH   CODE     ---       ?C?IILDX
      01000A4CH   CODE     ---       ?C?ILDIX
      01000634H   CODE     ---       ?C?ILDOPTR
      010005B7H   CODE     ---       ?C?IMUL
LX51 LINKER/LOCATER V4.66.87.0                                                        05/09/2018  21:28:12  PAGE 52


      0100066CH   CODE     ---       ?C?LNEG
      0100067AH   CODE     ---       ?C?LSTKXDATA
      01000779H   CODE     ---       ?C?MEMSET
      010006ABH   CODE     ---       ?C?OFFX256
      010006BCH   CODE     ---       ?C?OFFXADD
      010006F1H   CODE     ---       ?C?PLDCODE
      01000A62H   CODE     ---       ?C?PLDIDATA
      010006D1H   CODE     ---       ?C?PLDIXDATA
      0100071DH   CODE     ---       ?C?PLDOPTR
      01000A6BH   CODE     ---       ?C?PLDPDATA
      010006FDH   CODE     ---       ?C?PLDPTR
      010006C8H   CODE     ---       ?C?PLDXDATA
      010006E8H   CODE     ---       ?C?PSTXDATA
      0100053DH   CODE     ---       ?C?SCDIV
      01000A0DH   CODE     ---       ?C?STRCMPP2
      010005C9H   CODE     ---       ?C?UIDIV
      00000000H   NUMBER   ---       ?C?XDATASEG
      01005BE7H   CODE     ---       ?C_START
      01000000H   CODE     NEAR LAB  ?C_STARTUP
      0000001DH   DATA     ---       ?C_XBP
      00000020H.0 BIT      BIT       ?clock_display?BIT
      00000020H.2 BIT      BIT       ?clock_enable_interrupt?BIT
      00000020H.0 BIT      BIT       ?clock_set_hour_12?BIT
      00000020H.0 BIT      BIT       ?debug_onoff?BIT
      00000020H.1 BIT      BIT       ?fuse_enable?BIT
      00000020H.0 BIT      BIT       ?fuse_set_tripwire_broke?BIT
      00000020H.0 BIT      BIT       ?fuse_trigger?BIT
      00000020H.1 BIT      BIT       ?hg_enable?BIT
      00000020H.2 BIT      BIT       ?I2C_PutAck?BIT
      00000020H.0 BIT      BIT       ?lt_timer_display?BIT
      00000020H.0 BIT      BIT       ?lt_timer_get_relative?BIT
      00000020H.1 BIT      BIT       ?mpu_enable?BIT
      00000020H.1 BIT      BIT       ?power_5v_enable?BIT
      00000020H.0 BIT      BIT       ?rtc_alarm_set_hour_12?BIT
      00000020H.0 BIT      BIT       ?rtc_set_lt_timer?BIT
      00000020H.0 BIT      BIT       ?rtc_time_set_hour_12?BIT
      00000020H.1 BIT      BIT       ?thermo_enable?BIT
      00000020H.0 BIT      BIT       ?timer_set_led_autorefresh?BIT
      02000014H   XDATA    BYTE      ?timer_set_led_autorefresh?BYTE
      01004F27H   CODE     ---       _alarm0_set_enable
      01006AF8H   CODE     ---       _alarm0_test_enable
      01006D1BH   CODE     ---       _alarm_proc
      01002D2AH   CODE     ---       _atoi
      01007656H   CODE     ---       _clock_get_mon_date
      01007BC4H   CODE     ---       _clock_is_leap_year
      01008500H   CODE     ---       _clock_switch_display_mode
      01004B1FH   CODE     ---       _clock_sync_from_rtc
      01004B8AH   CODE     ---       _clock_sync_to_rtc
      01002663H   CODE     ---       _clock_yymmdd_to_day
      01002A6FH   CODE     ---       _cmd_beeper
      01005DEEH   CODE     ---       _cmd_dbg
      010058BEH   CODE     ---       _cmd_help
      010068E1H   CODE     ---       _cmd_i2c
      010064B1H   CODE     ---       _cmd_int
      010046B3H   CODE     ---       _cmd_mpu
      01005EBEH   CODE     ---       _cmd_reboot
      01003938H   CODE     ---       _cmd_serial
      01002550H   CODE     ---       _cmd_sm
      0100345AH   CODE     ---       _cmd_task
      01002404H   CODE     ---       _cmd_thermo
      01006600H   CODE     ---       _debug_printf
      010081BBH   CODE     ---       _delay_10us
      010081C9H   CODE     ---       _delay_ms
      01005CCBH   CODE     ---       _delay_task_reg
      01005965H   CODE     ---       _display_logo
LX51 LINKER/LOCATER V4.66.87.0                                                        05/09/2018  21:28:12  PAGE 53


      0100795DH   CODE     ---       _fuse_proc
      01006102H   CODE     ---       _fuse_set_fuse_broke
      0100806CH   CODE     ---       _getkey
      01002B5DH   CODE     ---       _gets
      01007B68H   CODE     ---       _I2C_Get
      0100496CH   CODE     ---       _I2C_Gets
      01007E0BH   CODE     ---       _I2C_Put
      010057C1H   CODE     ---       _I2C_Puts
      010074EFH   CODE     ---       _I2C_Write
      01000EF7H   CODE     ---       _int_hub_dump_ext_status
      01006FE7H   CODE     ---       _int_hub_test_bit
      01008182H   CODE     ---       _isdigit
      01007E97H   CODE     ---       _isspace
      01007B7FH   CODE     ---       _led_clr_blink
      010080FBH   CODE     ---       _led_clr_dp
      01007C8EH   CODE     ---       _led_set_blink
      01005B49H   CODE     ---       _led_set_code
      0100810AH   CODE     ---       _led_set_dp
      0100560DH   CODE     ---       _lt_timer_sync_to_rom
      01005AA9H   CODE     ---       _mod_proc
      01006637H   CODE     ---       _mod_set_proc
      01007FD1H   CODE     ---       _mpu_threshold_inc
      01008201H   CODE     ---       _mpu_threshold_set
      01008585H   CODE     ---       _null_proc
      01007943H   CODE     ---       _power_proc
      01000ADFH   CODE     ---       _PRINTF
      01006A9AH   CODE     ---       _putbuf
      010079DFH   CODE     ---       _putchar
      010067ACH   CODE     ---       _rom_read
      010069A9H   CODE     ---       _rom_write
      0100790FH   CODE     ---       _rtc_alarm_set_date
      01007C62H   CODE     ---       _rtc_alarm_set_day
      01007ED1H   CODE     ---       _rtc_alarm_set_hour
      01007EE4H   CODE     ---       _rtc_alarm_set_min
      01003E99H   CODE     ---       _rtc_alarm_set_mode
      010075E2H   CODE     ---       _rtc_alarm_set_sec
      01007B51H   CODE     ---       _rtc_clr_alarm_int_flag
      01003A7EH   CODE     ---       _rtc_date_set_date
      01007F1DH   CODE     ---       _rtc_date_set_day
      0100848EH   CODE     ---       _rtc_date_set_month
      01008486H   CODE     ---       _rtc_date_set_year
      01007118H   CODE     ---       _rtc_enable_alarm_int
      01003C51H   CODE     ---       _rtc_get_temperature
      0100555BH   CODE     ---       _rtc_read_data
      010075FFH   CODE     ---       _rtc_test_alarm_int
      0100761CH   CODE     ---       _rtc_test_alarm_int_flag
      010084C4H   CODE     ---       _rtc_time_set_hour
      010083AAH   CODE     ---       _rtc_time_set_min
      010084CAH   CODE     ---       _rtc_time_set_sec
      01005665H   CODE     ---       _rtc_write_data
      01001892H   CODE     ---       _run_state_machine
      010042DDH   CODE     ---       _scan_fuse
      0100472BH   CODE     ---       _scan_hg
      01005108H   CODE     ---       _scan_int_hub_proc
      0100276FH   CODE     ---       _scan_key_proc
      01006A3AH   CODE     ---       _serial_set_ctl_bit
      01006B84H   CODE     ---       _serial_test_ctl_bit
      01005AF9H   CODE     ---       _set_proc
      01005D14H   CODE     ---       _shell_search_cmd_by_name
      01004815H   CODE     ---       _sm_clock_alarm
      01007D91H   CODE     ---       _sm_clock_counter_init
      01003E0AH   CODE     ---       _sm_clock_counter_submod0
      0100544EH   CODE     ---       _sm_clock_counter_submod1
      01005281H   CODE     ---       _sm_clock_counter_submod2
      01005FC7H   CODE     ---       _sm_clock_counter_submod3
LX51 LINKER/LOCATER V4.66.87.0                                                        05/09/2018  21:28:12  PAGE 54


      0100725BH   CODE     ---       _sm_clock_counter_submod4
      010070A7H   CODE     ---       _sm_clock_counter_submod5
      0100752DH   CODE     ---       _sm_clock_display_init
      01005D5DH   CODE     ---       _sm_clock_display_submod0
      01006C96H   CODE     ---       _sm_clock_display_submod1
      010071F1H   CODE     ---       _sm_clock_display_submod2
      01006F1EH   CODE     ---       _sm_clock_display_submod3
      01008146H   CODE     ---       _sm_clock_mod_alarm_init
      010052DEH   CODE     ---       _sm_clock_mod_alarm_submod0
      010054A8H   CODE     ---       _sm_clock_mod_alarm_submod1
      010056BCH   CODE     ---       _sm_clock_mod_alarm_submod2
      01006DCBH   CODE     ---       _sm_clock_mod_alarm_submod3
      01006DF6H   CODE     ---       _sm_clock_mod_alarm_submod4
      010079ABH   CODE     ---       _sm_clock_mod_time_init
      01004DFDH   CODE     ---       _sm_clock_mod_time_submod0
      0100533BH   CODE     ---       _sm_clock_mod_time_submod1
      01006814H   CODE     ---       _sm_clock_mod_time_submod2
      01004FE8H   CODE     ---       _sm_clock_mod_time_submod3
      01005048H   CODE     ---       _sm_clock_mod_time_submod4
      010050A8H   CODE     ---       _sm_clock_mod_time_submod5
      01006946H   CODE     ---       _sm_clock_powersave
      01007991H   CODE     ---       _sm_clock_timer_init
      01005DA6H   CODE     ---       _sm_clock_timer_submod0
      0100488AH   CODE     ---       _sm_clock_timer_submod1
      01005398H   CODE     ---       _sm_clock_timer_submod2
      0100727EH   CODE     ---       _sm_fuse_detonate_init
      01006478H   CODE     ---       _sm_fuse_detonate_submod0
      01006ECAH   CODE     ---       _sm_fuse_param_init
      01007AA7H   CODE     ---       _sm_fuse_param_submod0
      010077C5H   CODE     ---       _sm_fuse_param_submod1
      010077E1H   CODE     ---       _sm_fuse_param_submod2
      010077FDH   CODE     ---       _sm_fuse_param_submod3
      01007819H   CODE     ---       _sm_fuse_param_submod4
      01007835H   CODE     ---       _sm_fuse_param_submod5
      01003F27H   CODE     ---       _sm_fuse_param_submod6
      010083A0H   CODE     ---       _sm_fuse_powersave_init
      0100754CH   CODE     ---       _sm_fuse_powersave_submod0
      01007E5BH   CODE     ---       _sm_fuse_powersave_submod1
      010063CCH   CODE     ---       _sm_fuse_test_init
      01001E86H   CODE     ---       _sm_fuse_test_submod0
      010076E5H   CODE     ---       _sm_fuse_test_submod1
      01007701H   CODE     ---       _sm_fuse_test_submod2
      0100771DH   CODE     ---       _sm_fuse_test_submod3
      01007739H   CODE     ---       _sm_fuse_test_submod4
      01007755H   CODE     ---       _sm_fuse_test_submod5
      01007771H   CODE     ---       _sm_fuse_test_submod6
      0100778DH   CODE     ---       _sm_fuse_test_submod7
      010077A9H   CODE     ---       _sm_fuse_test_submod8
      01007690H   CODE     ---       _sm_fuse_timer_init
      01002875H   CODE     ---       _sm_fuse_timer_submod0
      01005713H   CODE     ---       _sm_fuse_timer_submod1
      0100320FH   CODE     ---       _sm_fuse_timer_submod2
      0100700EH   CODE     ---       _sm_fuse_timer_submod3
      010078F4H   CODE     ---       _sm_fuse_timer_submod4
      01007DA6H   CODE     ---       _sm_global_flag_mod_init
      01007AC0H   CODE     ---       _sm_global_flag_mod_submod0
      01007AD9H   CODE     ---       _sm_global_flag_mod_submod1
      01007851H   CODE     ---       _sm_global_flag_mod_submod2
      0100836EH   CODE     ---       _sm_power_pack_display_init
      01008378H   CODE     ---       _sm_power_pack_display_submod0
      01008382H   CODE     ---       _sm_power_pack_powersave_init
      0100838CH   CODE     ---       _sm_power_pack_powersave_submod0
      01002FADH   CODE     ---       _sm_set_state_by_name
      01004155H   CODE     ---       _sm_set_sub_state_by_name
      01003516H   CODE     ---       _sm_set_table_by_name
LX51 LINKER/LOCATER V4.66.87.0                                                        05/09/2018  21:28:12  PAGE 55


      01000AD9H   CODE     ---       _SPRINTF
      01005167H   CODE     ---       _thermo_hi_threshold_set
      01004BF5H   CODE     ---       _thermo_lo_threshold_set
      01007CE6H   CODE     ---       _thermo_proc
      0100805BH   CODE     ---       _thermo_threshold_inc
      01007EABH   CODE     ---       _time_proc
      01007A11H   CODE     ---       _timer_get_hour
      01007A2AH   CODE     ---       _timer_get_min
      010076C9H   CODE     ---       _timer_get_ms10
      01007A5CH   CODE     ---       _timer_get_sec
      010076ADH   CODE     ---       _timer_inc_hour
      01007A43H   CODE     ---       _timer_inc_min
      01007A75H   CODE     ---       _timer_inc_sec
      01007185H   CODE     ---       _timer_save
      01008518H   CODE     ---       _timer_set_mode
      01006743H   CODE     ---       _VPRINTF
*SFR* 000000D0H.6 DATA     BIT       AC
*SFR* 000000E0H   DATA     BYTE      ACC
      010084D6H   CODE     ---       alarm0_get_day_mask
      010084E2H   CODE     ---       alarm0_get_hour
      0100858BH   CODE     ---       alarm0_get_hour_12
      010084DCH   CODE     ---       alarm0_get_min
      010081ADH   CODE     ---       alarm0_inc_hour
      0100819FH   CODE     ---       alarm0_inc_min
      01000026H   CODE     ---       alarm0_set_hour_12
      010059B7H   CODE     ---       alarm0_sync_to_rtc
      01008530H   CODE     ---       alarm1_set_enable
      0100687BH   CODE     ---       alarm1_sync_to_rtc
      0100858EH   CODE     ---       alarm1_test_enable
      01004D98H   CODE     ---       alarm_dump
      010083C5H   CODE     ---       alarm_enter_powersave
      01008119H   CODE     ---       alarm_initialize
      010083CEH   CODE     ---       alarm_leave_powersave
      010073EFH   CODE     ---       alarm_switch_off
      01008128H   CODE     ---       alarm_switch_on
*SFR* 0000008EH   DATA     BYTE      AUXR
*SFR* 000000A2H   DATA     BYTE      AUXR1
*SFR* 000000F0H   DATA     BYTE      B
      01006E4CH   CODE     ---       beeper_beep
      01005F45H   CODE     ---       beeper_beep_beep
      01006046H   CODE     ---       beeper_beep_beep_always
      010083E0H   CODE     ---       beeper_enter_powersave
      0100859AH   CODE     ---       beeper_get_beep_enable
      010084FAH   CODE     ---       beeper_get_music_index
      010084F4H   CODE     ---       beeper_get_music_to
      01007BADH   CODE     ---       beeper_inc_music_index
      01007E33H   CODE     ---       beeper_inc_music_to
      01005F02H   CODE     ---       beeper_initialize
      010083E9H   CODE     ---       beeper_leave_powersave
*SFR* 00000090H.0 DATA     BIT       beeper_out
      010072C3H   CODE     ---       beeper_play_music
      01008535H   CODE     ---       beeper_set_beep_enable
      0100859DH   CODE     ---       beeper_stop_music
*SFR* 000000C8H.1 DATA     BIT       C_T2
      01008553H   CODE     ---       clock_clr_sec
      0100853AH   CODE     ---       clock_display
      01003CE7H   CODE     ---       clock_dump
      010083F2H   CODE     ---       clock_enable_interrupt
      010081E5H   CODE     ---       clock_enter_powersave
      010085A3H   CODE     ---       clock_enter_shell
      01008506H   CODE     ---       clock_get_date
      0100850CH   CODE     ---       clock_get_day
      0100855DH   CODE     ---       clock_get_hour
      010085A0H   CODE     ---       clock_get_hour_12
      01008558H   CODE     ---       clock_get_min
LX51 LINKER/LOCATER V4.66.87.0                                                        05/09/2018  21:28:12  PAGE 56


      01008512H   CODE     ---       clock_get_month
      01008544H   CODE     ---       clock_get_ms39
      0100854EH   CODE     ---       clock_get_sec
      01008549H   CODE     ---       clock_get_sec_256
      01008562H   CODE     ---       clock_get_year
      0100740FH   CODE     ---       clock_inc_date
      010082C3H   CODE     ---       clock_inc_hour
      010082B8H   CODE     ---       clock_inc_min
      01007CA4H   CODE     ---       clock_inc_month
      01007D67H   CODE     ---       clock_inc_year
      01006C69H   CODE     ---       clock_initialize
      01007AF2H   CODE     ---       clock_leave_powersave
      01007CBAH   CODE     ---       clock_leave_shell
      0100853FH   CODE     ---       clock_set_hour_12
      01009639H   CONST    ---       cmds
      01008191H   CODE     ---       com_enter_powersave
      01006F47H   CODE     ---       com_initialize
      01000016H   CODE     ---       com_leave_powersave
      01007DBBH   CODE     ---       com_try_get_key
      020000C2H   XDATA    BYTE      common_state
*SFR* 000000C8H.0 DATA     BIT       CP_RL2
*SFR* 000000D0H.7 DATA     BIT       CY
      010085A9H   CODE     ---       debug_initialize
      01008580H   CODE     ---       debug_onoff
      01005A08H   CODE     ---       delay_task_call
      0100843AH   CODE     ---       delay_task_initialize
*SFR* 00000083H   DATA     BYTE      DPH
*SFR* 00000082H   DATA     BYTE      DPL
      010061F8H   CODE     ---       dump_rtc
*SFR* 000000A8H.7 DATA     BIT       EA
*SFR* 000000A8H.6 DATA     BIT       EC
*SFR* 000000A8H.4 DATA     BIT       ES
*SFR* 000000A8H.1 DATA     BIT       ET0
*SFR* 000000A8H.3 DATA     BIT       ET1
*SFR* 000000A8H.5 DATA     BIT       ET2
      0000005AH   IDATA    WORD      ev_bits0
      0000005CH   IDATA    WORD      ev_bits1
*SFR* 000000A8H.0 DATA     BIT       EX0
*SFR* 000000A8H.2 DATA     BIT       EX1
*SFR* 000000C8H.3 DATA     BIT       EXEN2
*SFR* 000000C8H.6 DATA     BIT       EXF2
*SFR* 00000090H.4 DATA     BIT       EXT_INT
*SFR* 000000D0H.5 DATA     BIT       F0
*SFR* 00000098H.7 DATA     BIT       FE
      01006F97H   CODE     ---       fuse_enable
      01008404H   CODE     ---       fuse_enter_powersave
      0100824EH   CODE     ---       fuse_initialize
      0100840DH   CODE     ---       fuse_leave_powersave
      01007081H   CODE     ---       fuse_set_tripwire_broke
      0100666DH   CODE     ---       fuse_trigger
      01007E83H   CODE     ---       GETCHAR
      01006FBFH   CODE     ---       hg_enable
      01008416H   CODE     ---       hg_enter_powersave
      01007F65H   CODE     ---       hg_get_state
      0100825AH   CODE     ---       hg_initialize
      0100841FH   CODE     ---       hg_leave_powersave
      0100800EH   CODE     ---       I2C_Delay
      010072A1H   CODE     ---       I2C_GetAck
      0100833CH   CODE     ---       I2C_Init
      01007F2FH   CODE     ---       I2C_PutAck
      01006AC9H   CODE     ---       I2C_Read
*SFR* 00000090H.7 DATA     BIT       I2C_SCL
*SFR* 00000090H.6 DATA     BIT       I2C_SDA
      010082ADH   CODE     ---       I2C_Start
      01007C78H   CODE     ---       I2C_Stop
LX51 LINKER/LOCATER V4.66.87.0                                                        05/09/2018  21:28:12  PAGE 57


*SFR* 000000A8H   DATA     BYTE      IE
*SFR* 00000088H.1 DATA     BIT       IE0
*SFR* 00000088H.3 DATA     BIT       IE1
*SFR* 000000B0H.2 DATA     BIT       INT0
*SFR* 000000B0H.3 DATA     BIT       INT1
*SFR* 000000B0H.3 DATA     BIT       INT_BIT
      01004F88H   CODE     ---       int_hub_dump
      01004E62H   CODE     ---       int_hub_get_status
      01004A47H   CODE     ---       int_hub_initialize
*SFR* 000000B8H   DATA     BYTE      IP
*SFR* 000000B7H   DATA     BYTE      IPH
*SFR* 000000E3H   DATA     BYTE      ISP_ADDRH
*SFR* 000000E4H   DATA     BYTE      ISP_ADDRL
*SFR* 000000E5H   DATA     BYTE      ISP_CMD
*SFR* 000000E7H   DATA     BYTE      ISP_CONTR
*SFR* 000000E2H   DATA     BYTE      ISP_DATA
*SFR* 000000E6H   DATA     BYTE      ISP_TRIG
*SFR* 00000088H.0 DATA     BIT       IT0
*SFR* 00000088H.2 DATA     BIT       IT1
      010083B3H   CODE     ---       key_enter_powersave
      010079F8H   CODE     ---       key_initialize
      010083BCH   CODE     ---       key_leave_powersave
      020000C4H   XDATA    BYTE      last_display_s
      00000042H   IDATA    BYTE      led_blink
      01008028H   CODE     ---       led_clear
      0100C582H   CONST    ---       led_code
      00000044H   IDATA    ---       led_data
      01008039H   CODE     ---       led_enter_powersave
      010062AAH   CODE     ---       led_initialize
      01007D3DH   CODE     ---       led_leave_powersave
      00000024H.3 BIT      BIT       led_powersave
      0100705BH   CODE     ---       led_restore
      01007035H   CODE     ---       led_save
      00000022H.6 BIT      BIT       lpress_lock_day_sec
      00000022H.4 BIT      BIT       lpress_lock_month_min
      00000022H.5 BIT      BIT       lpress_lock_year_hour
      020000C3H   XDATA    BYTE      lpress_start
      01003B1CH   CODE     ---       lt_timer_dec_sec
      01007977H   CODE     ---       lt_timer_display
      01007D7CH   CODE     ---       lt_timer_enter_powersave
      01008524H   CODE     ---       lt_timer_get_date
      0100856CH   CODE     ---       lt_timer_get_hour
      01008571H   CODE     ---       lt_timer_get_min
      0100851EH   CODE     ---       lt_timer_get_month
      01004CC9H   CODE     ---       lt_timer_get_relative
      01008576H   CODE     ---       lt_timer_get_sec
      01008567H   CODE     ---       lt_timer_get_year
      010082EFH   CODE     ---       lt_timer_inc_date
      010082FAH   CODE     ---       lt_timer_inc_hour
      01008305H   CODE     ---       lt_timer_inc_min
      010082E4H   CODE     ---       lt_timer_inc_month
      01008310H   CODE     ---       lt_timer_inc_sec
      010082D9H   CODE     ---       lt_timer_inc_year
      01007F77H   CODE     ---       lt_timer_initialize
      01007215H   CODE     ---       lt_timer_leave_powersave
      01008137H   CODE     ---       lt_timer_reset
      010081F3H   CODE     ---       lt_timer_start_ram
      0100756BH   CODE     ---       lt_timer_start_rtc
      01008272H   CODE     ---       lt_timer_stop_ram
      01007589H   CODE     ---       lt_timer_stop_rtc
      01007BF2H   CODE     ---       lt_timer_switch_display
      0100742FH   CODE     ---       lt_timer_switch_off
      01008266H   CODE     ---       lt_timer_switch_on
      010065C9H   CODE     ---       lt_timer_sync_from_rom
      01006234H   CODE     ---       lt_timer_sync_to_rtc
LX51 LINKER/LOCATER V4.66.87.0                                                        05/09/2018  21:28:12  PAGE 58


      01005BE7H   CODE     ---       main
*SFR* 000000A0H.6 DATA     BIT       MOD_KEY
      0100750EH   CODE     ---       mpu_enable
      01008443H   CODE     ---       mpu_enter_powersave
      01007CFCH   CODE     ---       mpu_initialize
*SFR* 00000090H.2 DATA     BIT       MPU_INT
      0100844CH   CODE     ---       mpu_leave_powersave
      010071CDH   CODE     ---       mpu_read_int_status
      0100852AH   CODE     ---       mpu_threshold_get
      010084AEH   CODE     ---       mpu_threshold_reset
*SFR* 000000D0H.2 DATA     BIT       OV
*SFR* 000000D0H.0 DATA     BIT       P
*SFR* 00000080H   DATA     BYTE      P0
*SFR* 00000080H.0 DATA     BIT       P00
*SFR* 00000080H.1 DATA     BIT       P01
*SFR* 00000080H.2 DATA     BIT       P02
*SFR* 00000080H.3 DATA     BIT       P03
*SFR* 00000080H.4 DATA     BIT       P04
*SFR* 00000080H.5 DATA     BIT       P05
*SFR* 00000080H.6 DATA     BIT       P06
*SFR* 00000080H.7 DATA     BIT       P07
*SFR* 00000090H   DATA     BYTE      P1
*SFR* 00000090H.0 DATA     BIT       P10
*SFR* 00000090H.1 DATA     BIT       P11
*SFR* 00000090H.2 DATA     BIT       P12
*SFR* 00000090H.3 DATA     BIT       P13
*SFR* 00000090H.4 DATA     BIT       P14
*SFR* 00000090H.5 DATA     BIT       P15
*SFR* 00000090H.6 DATA     BIT       P16
*SFR* 00000090H.7 DATA     BIT       P17
*SFR* 000000A0H   DATA     BYTE      P2
*SFR* 000000A0H.0 DATA     BIT       P20
*SFR* 000000A0H.1 DATA     BIT       P21
*SFR* 000000A0H.2 DATA     BIT       P22
*SFR* 000000A0H.3 DATA     BIT       P23
*SFR* 000000A0H.4 DATA     BIT       P24
*SFR* 000000A0H.5 DATA     BIT       P25
*SFR* 000000A0H.6 DATA     BIT       P26
*SFR* 000000A0H.7 DATA     BIT       P27
*SFR* 000000B0H   DATA     BYTE      P3
*SFR* 000000B0H.0 DATA     BIT       P30
*SFR* 000000B0H.1 DATA     BIT       P31
*SFR* 000000B0H.2 DATA     BIT       P32
*SFR* 000000B0H.3 DATA     BIT       P33
*SFR* 000000B0H.4 DATA     BIT       P34
*SFR* 000000B0H.5 DATA     BIT       P35
*SFR* 000000B0H.6 DATA     BIT       P36
*SFR* 000000B0H.7 DATA     BIT       P37
*SFR* 000000E8H   DATA     BYTE      P4
*SFR* 000000E8H.0 DATA     BIT       P40
*SFR* 000000E8H.1 DATA     BIT       P41
*SFR* 000000E8H.2 DATA     BIT       P42
*SFR* 000000E8H.3 DATA     BIT       P43
*SFR* 000000E8H.4 DATA     BIT       P44
*SFR* 000000E8H.5 DATA     BIT       P45
*SFR* 000000E8H.6 DATA     BIT       P46
*SFR* 00000087H   DATA     BYTE      PCON
*SFR* 000000B0H.6 DATA     BIT       POWER_5V_EN
      0100786DH   CODE     ---       power_5v_enable
      01008597H   CODE     ---       power_clr_flag
      01005C33H   CODE     ---       power_enter_powersave
      01007B96H   CODE     ---       power_get_powersave_to
      010084E8H   CODE     ---       power_get_powersave_to_s
      01007161H   CODE     ---       power_inc_powersave_to
      010068AEH   CODE     ---       power_initialize
LX51 LINKER/LOCATER V4.66.87.0                                                        05/09/2018  21:28:12  PAGE 59


      010069DAH   CODE     ---       power_leave_powersave
      010083D7H   CODE     ---       power_reset_powersave_to
      01008594H   CODE     ---       power_set_flag
      01008591H   CODE     ---       power_test_flag
      01006A0AH   CODE     ---       power_test_powersave_to
      00000024H.4 BIT      BIT       powersave_flag
*SFR* 000000A0H   DATA     BYTE      PPAGE_SFR
*SFR* 000000B8H.4 DATA     BIT       PS
*SFR* 000000D0H   DATA     BYTE      PSW
*SFR* 000000B8H.1 DATA     BIT       PT0
*SFR* 000000B8H.3 DATA     BIT       PT1
*SFR* 000000B8H.5 DATA     BIT       PT2
*SFR* 000000B8H.0 DATA     BIT       PX0
*SFR* 000000B8H.2 DATA     BIT       PX1
*SFR* 00000098H.2 DATA     BIT       RB8
*SFR* 000000CBH   DATA     BYTE      RCAP2H
*SFR* 000000CAH   DATA     BYTE      RCAP2L
*SFR* 000000C8H.5 DATA     BIT       RCLK
*SFR* 000000B0H.7 DATA     BIT       RD
      010053F4H   CODE     ---       refresh_led
*SFR* 00000098H.4 DATA     BIT       REN
*SFR* 00000098H.0 DATA     BIT       RI
      01006140H   CODE     ---       rom_initialize
      010084A6H   CODE     ---       rom_is_factory_reset
*SFR* 000000B0H.7 DATA     BIT       ROM_RESET
*SFR* 000000D0H.3 DATA     BIT       RS0
*SFR* 000000D0H.4 DATA     BIT       RS1
      01007D28H   CODE     ---       rtc_alarm_get_date
      01007DCFH   CODE     ---       rtc_alarm_get_day
      01007C20H   CODE     ---       rtc_alarm_get_hour
      01007C36H   CODE     ---       rtc_alarm_get_hour_12
      01007C4CH   CODE     ---       rtc_alarm_get_min
      01002EDEH   CODE     ---       rtc_alarm_get_mode
      01007DE3H   CODE     ---       rtc_alarm_get_sec
      010075C5H   CODE     ---       rtc_alarm_set_hour_12
      01008496H   CODE     ---       rtc_date_get_date
      010084D0H   CODE     ---       rtc_date_get_day
      01008236H   CODE     ---       rtc_date_get_month
      0100822AH   CODE     ---       rtc_date_get_year
      01007929H   CODE     ---       rtc_enter_powersave
      01001D1AH   CODE     ---       rtc_initialize
*SFR* 00000090H.1 DATA     BIT       RTC_INT
      01008588H   CODE     ---       rtc_is_lt_timer
      01007DF7H   CODE     ---       rtc_leave_powersave
      01000006H   CODE     ---       rtc_set_lt_timer
      01008466H   CODE     ---       rtc_time_get_hour
      0100846EH   CODE     ---       rtc_time_get_hour_12
      01008476H   CODE     ---       rtc_time_get_min
      0100847EH   CODE     ---       rtc_time_get_sec
      0100807CH   CODE     ---       rtc_time_set_hour_12
      010022B1H   CODE     ---       run_shell
      01003891H   CODE     ---       run_task
*SFR* 000000B0H.0 DATA     BIT       RXD
*SFR* 000000A9H   DATA     BYTE      SADDR
*SFR* 000000B9H   DATA     BYTE      SADEN
      020000A5H   XDATA    BYTE      saved_led_blink
      020000A7H   XDATA    ---       saved_led_data
*SFR* 00000099H   DATA     BYTE      SBUF
      010045C3H   CODE     ---       scan_alarm
      01005F87H   CODE     ---       scan_lt_timer
      01006B27H   CODE     ---       scan_mpu
      01007EBEH   CODE     ---       scan_rtc
      01004AB3H   CODE     ---       scan_thermo
*SFR* 00000098H   DATA     BYTE      SCON
      00000023H.2 BIT      BIT       sendactive
LX51 LINKER/LOCATER V4.66.87.0                                                        05/09/2018  21:28:12  PAGE 60


      00000023H.3 BIT      BIT       sendfull
      010078BEH   CODE     ---       serial_ctl_out
      0100115DH   CODE     ---       serial_dump
      01006358H   CODE     ---       serial_hub_initialize
*SFR* 000000A0H.7 DATA     BIT       SET_KEY
      0200007CH   XDATA    ---       shell_buf
      010066D9H   CODE     ---       shell_dump_cmd
*SFR* 00000098H.7 DATA     BIT       SM0
*SFR* 00000098H.6 DATA     BIT       SM1
*SFR* 00000098H.5 DATA     BIT       SM2
      0100C71CH   CONST    ---       sm_clock_alarm_ss_name
      0100B18AH   CONST    ---       sm_clock_counter_ss_name
      0100BABBH   CONST    ---       sm_clock_display_ss_name
      0100B52AH   CONST    ---       sm_clock_mod_alarm_ss_name
      0100ABA8H   CONST    ---       sm_clock_mod_time_name
      0100C773H   CONST    ---       sm_clock_powersave_ss_name
      0100BDEEH   CONST    ---       sm_clock_timer_ss_name
      0100297BH   CODE     ---       sm_dump
      01005A59H   CODE     ---       sm_dump_state
      01005502H   CODE     ---       sm_dump_sub_state
      010064EAH   CODE     ---       sm_dump_table
      0100C3DFH   CONST    ---       sm_fuse_detonate_ss_name
      0100AFA0H   CONST    ---       sm_fuse_param_ss_name
      0100C06EH   CONST    ---       sm_fuse_powersave_ss_name
      0100A2B7H   CONST    ---       sm_fuse_test_ss_name
      0100ADB0H   CONST    ---       sm_fuse_timer_ss_name
      0100BBEDH   CONST    ---       sm_global_flag_mod_ss_name
      010070F3H   CODE     ---       sm_initialize
      0100C25CH   CONST    ---       sm_power_pack_display_ss_name
      0100C1C9H   CONST    ---       sm_power_pack_powersave_ss_name
      01006007H   CODE     ---       sm_show_current
*SFR* 00000081H   DATA     BYTE      SP
*SFR* 000000B0H.4 DATA     BIT       T0
*SFR* 000000B0H.5 DATA     BIT       T1
*SFR* 00000090H.0 DATA     BIT       T2
*SFR* 000000C8H   DATA     BYTE      T2CON
*SFR* 00000090H.1 DATA     BIT       T2EX
*SFR* 000000C9H   DATA     BYTE      T2MOD
      010044CFH   CODE     ---       task_dump
      01007E1FH   CODE     ---       task_initialize
      0100A709H   CONST    ---       task_name
*SFR* 00000098H.3 DATA     BIT       TB8
*SFR* 000000C8H.4 DATA     BIT       TCLK
*SFR* 00000088H   DATA     BYTE      TCON
*SFR* 00000088H.5 DATA     BIT       TF0
*SFR* 00000088H.7 DATA     BIT       TF1
*SFR* 000000C8H.7 DATA     BIT       TF2
*SFR* 0000008CH   DATA     BYTE      TH0
*SFR* 0000008DH   DATA     BYTE      TH1
*SFR* 000000CDH   DATA     BYTE      TH2
      0100835AH   CODE     ---       thermo_enable
      01008428H   CODE     ---       thermo_enter_powersave
      01006978H   CODE     ---       thermo_get_current
      01007F89H   CODE     ---       thermo_hi_threshold_dec
      0100734BH   CODE     ---       thermo_hi_threshold_get
      01007F9BH   CODE     ---       thermo_hi_threshold_inc
      0100831BH   CODE     ---       thermo_hi_threshold_reach_bottom
      0100827EH   CODE     ---       thermo_hi_threshold_reach_top
      0100849EH   CODE     ---       thermo_hi_threshold_reset
      0100617EH   CODE     ---       thermo_initialize
*SFR* 00000090H.3 DATA     BIT       THERMO_INT
      01008431H   CODE     ---       thermo_leave_powersave
      01007FADH   CODE     ---       thermo_lo_threshold_dec
      01007238H   CODE     ---       thermo_lo_threshold_get
      01007FBFH   CODE     ---       thermo_lo_threshold_inc
LX51 LINKER/LOCATER V4.66.87.0                                                        05/09/2018  21:28:12  PAGE 61


      01008326H   CODE     ---       thermo_lo_threshold_reach_bottom
      0100828AH   CODE     ---       thermo_lo_threshold_reach_top
      0100857BH   CODE     ---       thermo_lo_threshold_reset
*SFR* 00000098H.1 DATA     BIT       TI
      01007B0AH   CODE     ---       timer_clr
      01008242H   CODE     ---       timer_enter_powersave
      01002E05H   CODE     ---       timer_inc_ms39
      01007F41H   CODE     ---       timer_initialize
      010083FBH   CODE     ---       timer_leave_powersave
      0100808CH   CODE     ---       timer_set_led_autorefresh
      01007CD0H   CODE     ---       timer_start
      010085A6H   CODE     ---       timer_stop
*SFR* 0000008AH   DATA     BYTE      TL0
*SFR* 0000008BH   DATA     BYTE      TL1
*SFR* 000000CCH   DATA     BYTE      TL2
*SFR* 00000089H   DATA     BYTE      TMOD
*SFR* 00000088H.4 DATA     BIT       TR0
*SFR* 00000088H.6 DATA     BIT       TR1
*SFR* 000000C8H.2 DATA     BIT       TR2
*SFR* 000000B0H.1 DATA     BIT       TXD
*SFR* 000000E1H   DATA     BYTE      WDT_CONTR
*SFR* 000000B0H.6 DATA     BIT       WR
*SFR* 000000C0H   DATA     BYTE      XICON



SYMBOL TABLE OF MODULE:  Clock (SM)

      VALUE       REP       CLASS    TYPE      SYMBOL NAME
      ====================================================
      ---         MODULE    ---      ---       SM
      01004155H   PUBLIC    CODE     ---       _sm_set_sub_state_by_name
      01002FADH   PUBLIC    CODE     ---       _sm_set_state_by_name
      01003516H   PUBLIC    CODE     ---       _sm_set_table_by_name
      01005502H   PUBLIC    CODE     ---       sm_dump_sub_state
      01005A59H   PUBLIC    CODE     ---       sm_dump_state
      010064EAH   PUBLIC    CODE     ---       sm_dump_table
      0100297BH   PUBLIC    CODE     ---       sm_dump
      01006007H   PUBLIC    CODE     ---       sm_show_current
      010070F3H   PUBLIC    CODE     ---       sm_initialize
      01001892H   PUBLIC    CODE     ---       _run_state_machine
      01008585H   PUBLIC    CODE     ---       _null_proc
      01007EABH   PUBLIC    CODE     ---       _time_proc
      01008F65H   SYMBOL    CONST    ---       sm_group_power_pack
      01008F6DH   SYMBOL    CONST    ---       sm_group_fuse
      01008D7BH   SYMBOL    CONST    ---       sm_trans_fuse_timer
      01008888H   SYMBOL    CONST    ---       sm_trans_clock_mod_time
      01007FF5H   SYMBOL    CODE     ---       _sm_set_state
      010089FBH   SYMBOL    CONST    ---       sm_trans_clock_powersave
      01008B59H   SYMBOL    CONST    ---       sm_trans_fuse_test
      01008FE5H   SYMBOL    CONST    ---       sm_global_flag_names
      010087E0H   SYMBOL    CONST    ---       sm_trans_clock_display
      01008E93H   SYMBOL    CONST    ---       sm_trans_fuse_detonate
      010082A2H   SYMBOL    CODE     ---       _sm_set_sub_state
      01008A80H   SYMBOL    CONST    ---       sm_trans_clock_counter
      01008B44H   SYMBOL    CONST    ---       sm_trans_power_pack_powersave
      01008F81H   SYMBOL    CONST    ---       sm_group_global_flag
      01008EAFH   SYMBOL    CONST    ---       sm_trans_fuse_powersave
      01008F91H   SYMBOL    CONST    ---       sm_clock_names
      01008A1EH   SYMBOL    CONST    ---       sm_trans_clock_alarm
      01009003H   SYMBOL    CONST    ---       sm_names
      01008F85H   SYMBOL    CONST    ---       sm_trans_table
      01008B28H   SYMBOL    CONST    ---       sm_trans_power_pack_display
      01008F49H   SYMBOL    CONST    ---       sm_group_clock
      01008F03H   SYMBOL    CONST    ---       sm_trans_global_flag_mod
LX51 LINKER/LOCATER V4.66.87.0                                                        05/09/2018  21:28:12  PAGE 62


      01008A41H   SYMBOL    CONST    ---       sm_trans_clock_timer
      020000BCH   SYMBOL    XDATA    BYTE      sm_state
      020000BDH   SYMBOL    XDATA    BYTE      sm_curr_table
      01008FF1H   SYMBOL    CONST    ---       sm_power_pack_names
      01008FC1H   SYMBOL    CONST    ---       sm_fuse_names
      0100897DH   SYMBOL    CONST    ---       sm_trans_clock_mod_alarm
      01008CA2H   SYMBOL    CONST    ---       sm_trans_fuse_param
      020000BEH   SYMBOL    XDATA    BYTE      sm_new_table

      01001BABH   BLOCK     CODE     ---       LVL=0
      ---         BLOCKEND  ---      ---       LVL=0

      01007EABH   BLOCK     CODE     ---       LVL=0
      0200000CH   SYMBOL    XDATA    BYTE      ev
      01007EABH   LINE      CODE     ---       #733
      01007EB0H   LINE      CODE     ---       #734
      01007EB0H   LINE      CODE     ---       #735
      01007EB3H   LINE      CODE     ---       #736
      01007EB6H   LINE      CODE     ---       #738
      ---         BLOCKEND  ---      ---       LVL=0

      01008585H   BLOCK     CODE     ---       LVL=0
      00000007H   SYMBOL    DATA     BYTE      ev
      01008585H   LINE      CODE     ---       #742
      01008585H   LINE      CODE     ---       #743
      01008585H   LINE      CODE     ---       #744
      ---         BLOCKEND  ---      ---       LVL=0

      01001892H   BLOCK     CODE     ---       LVL=0
      0200000DH   SYMBOL    XDATA    BYTE      ev
      01001897H   BLOCK     CODE     NEAR LAB  LVL=1
      0200000EH   SYMBOL    XDATA    BYTE      c
      0200000FH   SYMBOL    XDATA    BYTE      newstate
      02000010H   SYMBOL    XDATA    BYTE      index
      ---         BLOCKEND  ---      ---       LVL=1
      01001892H   LINE      CODE     ---       #747
      01001897H   LINE      CODE     ---       #748
      01001897H   LINE      CODE     ---       #753
      010018A2H   LINE      CODE     ---       #754
      010018D9H   LINE      CODE     ---       #755
      01001920H   LINE      CODE     ---       #757
      01001920H   LINE      CODE     ---       #758
      01001931H   LINE      CODE     ---       #759
      0100193BH   LINE      CODE     ---       #760
      010019D7H   LINE      CODE     ---       #769
      01001A09H   LINE      CODE     ---       #770
      01001A11H   LINE      CODE     ---       #771
      01001A19H   LINE      CODE     ---       #772
      01001A1AH   LINE      CODE     ---       #773
      01001A1AH   LINE      CODE     ---       #774
      01001A23H   LINE      CODE     ---       #776
      ---         BLOCKEND  ---      ---       LVL=0

      010070F3H   BLOCK     CODE     ---       LVL=0
      010070F3H   LINE      CODE     ---       #779
      010070F3H   LINE      CODE     ---       #780
      010070F3H   LINE      CODE     ---       #781
      010070FCH   LINE      CODE     ---       #782
      01007101H   LINE      CODE     ---       #783
      01007103H   LINE      CODE     ---       #785
      01007106H   LINE      CODE     ---       #786
      01007109H   LINE      CODE     ---       #787
      0100710EH   LINE      CODE     ---       #789
      01007117H   LINE      CODE     ---       #790
      ---         BLOCKEND  ---      ---       LVL=0
LX51 LINKER/LOCATER V4.66.87.0                                                        05/09/2018  21:28:12  PAGE 63



      01006007H   BLOCK     CODE     ---       LVL=0
      01006007H   LINE      CODE     ---       #792
      01006007H   LINE      CODE     ---       #793
      01006007H   LINE      CODE     ---       #794
      ---         BLOCKEND  ---      ---       LVL=0

      0100297BH   BLOCK     CODE     ---       LVL=0
      0100297BH   BLOCK     CODE     NEAR LAB  LVL=1
      0200000AH   SYMBOL    XDATA    CHAR      i
      0200000BH   SYMBOL    XDATA    CHAR      j
      0200000CH   SYMBOL    XDATA    CHAR      k
      ---         BLOCKEND  ---      ---       LVL=1
      0100297BH   LINE      CODE     ---       #801
      0100297BH   LINE      CODE     ---       #802
      0100297BH   LINE      CODE     ---       #805
      0100298EH   LINE      CODE     ---       #806
      010029ADH   LINE      CODE     ---       #807
      010029CDH   LINE      CODE     ---       #808
      01002A08H   LINE      CODE     ---       #809
      01002A15H   LINE      CODE     ---       #810
      01002A54H   LINE      CODE     ---       #812
      01002A5CH   LINE      CODE     ---       #813
      01002A65H   LINE      CODE     ---       #814
      01002A6EH   LINE      CODE     ---       #815
      ---         BLOCKEND  ---      ---       LVL=0

      010064EAH   BLOCK     CODE     ---       LVL=0
      010064EAH   BLOCK     CODE     NEAR LAB  LVL=1
      0200000AH   SYMBOL    XDATA    CHAR      i
      ---         BLOCKEND  ---      ---       LVL=1
      010064EAH   LINE      CODE     ---       #817
      010064EAH   LINE      CODE     ---       #818
      010064EAH   LINE      CODE     ---       #820
      010064FAH   LINE      CODE     ---       #821
      01006519H   LINE      CODE     ---       #822
      01006521H   LINE      CODE     ---       #823
      ---         BLOCKEND  ---      ---       LVL=0

      01005A59H   BLOCK     CODE     ---       LVL=0
      01005A59H   BLOCK     CODE     NEAR LAB  LVL=1
      0200000AH   SYMBOL    XDATA    CHAR      i
      ---         BLOCKEND  ---      ---       LVL=1
      01005A59H   LINE      CODE     ---       #825
      01005A59H   LINE      CODE     ---       #826
      01005A59H   LINE      CODE     ---       #828
      01005A74H   LINE      CODE     ---       #829
      01005AA0H   LINE      CODE     ---       #830
      01005AA8H   LINE      CODE     ---       #831
      ---         BLOCKEND  ---      ---       LVL=0

      01005502H   BLOCK     CODE     ---       LVL=0
      01005502H   BLOCK     CODE     NEAR LAB  LVL=1
      0200000AH   SYMBOL    XDATA    CHAR      i
      ---         BLOCKEND  ---      ---       LVL=1
      01005502H   LINE      CODE     ---       #833
      01005502H   LINE      CODE     ---       #834
      01005502H   LINE      CODE     ---       #836
      01005520H   LINE      CODE     ---       #837
      01005552H   LINE      CODE     ---       #839
      0100555AH   LINE      CODE     ---       #840
      ---         BLOCKEND  ---      ---       LVL=0

      01003516H   BLOCK     CODE     ---       LVL=0
      0200000AH   SYMBOL    XDATA    ---       table_name
LX51 LINKER/LOCATER V4.66.87.0                                                        05/09/2018  21:28:12  PAGE 64


      0100351CH   BLOCK     CODE     NEAR LAB  LVL=1
      0200000DH   SYMBOL    XDATA    CHAR      i
      ---         BLOCKEND  ---      ---       LVL=1
      01003516H   LINE      CODE     ---       #843
      0100351CH   LINE      CODE     ---       #844
      0100351CH   LINE      CODE     ---       #846
      01003536H   LINE      CODE     ---       #847
      0100354EH   LINE      CODE     ---       #848
      01003568H   LINE      CODE     ---       #849
      0100358EH   LINE      CODE     ---       #853
      010035B0H   LINE      CODE     ---       #857
      010035BCH   LINE      CODE     ---       #858
      010035C1H   LINE      CODE     ---       #859
      010035C3H   LINE      CODE     ---       #860
      010035C3H   LINE      CODE     ---       #861
      010035CCH   LINE      CODE     ---       #862
      010035CDH   LINE      CODE     ---       #863
      ---         BLOCKEND  ---      ---       LVL=0

      01007FF5H   BLOCK     CODE     ---       LVL=0
      00000007H   SYMBOL    DATA     BYTE      state
      01007FF5H   LINE      CODE     ---       #865
      01007FF5H   LINE      CODE     ---       #866
      01007FF5H   LINE      CODE     ---       #867
      01007FFDH   LINE      CODE     ---       #868
      01008005H   LINE      CODE     ---       #869
      ---         BLOCKEND  ---      ---       LVL=0

      010082A2H   BLOCK     CODE     ---       LVL=0
      00000007H   SYMBOL    DATA     BYTE      sub_state
      010082A2H   LINE      CODE     ---       #871
      010082A2H   LINE      CODE     ---       #872
      010082A2H   LINE      CODE     ---       #873
      010082A7H   LINE      CODE     ---       #874
      010082ACH   LINE      CODE     ---       #875
      ---         BLOCKEND  ---      ---       LVL=0

      01002FADH   BLOCK     CODE     ---       LVL=0
      0200000AH   SYMBOL    XDATA    ---       state_name
      01002FB3H   BLOCK     CODE     NEAR LAB  LVL=1
      0200000DH   SYMBOL    XDATA    CHAR      i
      ---         BLOCKEND  ---      ---       LVL=1
      01002FADH   LINE      CODE     ---       #877
      01002FB3H   LINE      CODE     ---       #878
      01002FB3H   LINE      CODE     ---       #880
      01002FD5H   LINE      CODE     ---       #881
      01002FFCH   LINE      CODE     ---       #882
      0100302BH   LINE      CODE     ---       #885
      01003061H   LINE      CODE     ---       #889
      01003069H   LINE      CODE     ---       #890
      0100306EH   LINE      CODE     ---       #891
      01003070H   LINE      CODE     ---       #892
      01003070H   LINE      CODE     ---       #893
      01003079H   LINE      CODE     ---       #894
      0100307AH   LINE      CODE     ---       #895
      ---         BLOCKEND  ---      ---       LVL=0

      01004155H   BLOCK     CODE     ---       LVL=0
      0200000AH   SYMBOL    XDATA    ---       sub_state_name
      0100415BH   BLOCK     CODE     NEAR LAB  LVL=1
      0200000DH   SYMBOL    XDATA    CHAR      i
      ---         BLOCKEND  ---      ---       LVL=1
      01004155H   LINE      CODE     ---       #897
      0100415BH   LINE      CODE     ---       #898
      0100415BH   LINE      CODE     ---       #900
LX51 LINKER/LOCATER V4.66.87.0                                                        05/09/2018  21:28:12  PAGE 65


      01004171H   LINE      CODE     ---       #901
      01004195H   LINE      CODE     ---       #902
      010041C8H   LINE      CODE     ---       #906
      010041D0H   LINE      CODE     ---       #907
      010041D2H   LINE      CODE     ---       #908
      010041D2H   LINE      CODE     ---       #909
      010041DAH   LINE      CODE     ---       #910
      010041DBH   LINE      CODE     ---       #911
      ---         BLOCKEND  ---      ---       LVL=0

      ---         MODULE    ---      ---       MAIN
      01005BE7H   PUBLIC    CODE     ---       main
      00000080H   SFRSYM    DATA     BYTE      P0
      00000090H   SFRSYM    DATA     BYTE      P1
      000000A0H   SFRSYM    DATA     BYTE      P2
      000000B0H   SFRSYM    DATA     BYTE      P3
      000000C0H   SFRSYM    DATA     BYTE      XICON
      000000B0H.4 SFRSYM    DATA     BIT       T0
      000000D0H.6 SFRSYM    DATA     BIT       AC
      000000E8H   SFRSYM    DATA     BYTE      P4
      000000B0H.5 SFRSYM    DATA     BIT       T1
      000000E6H   SFRSYM    DATA     BYTE      ISP_TRIG
      00000090H.0 SFRSYM    DATA     BIT       T2
      000000A8H.7 SFRSYM    DATA     BIT       EA
      000000A8H.6 SFRSYM    DATA     BIT       EC
      00000098H.7 SFRSYM    DATA     BIT       FE
      000000A8H   SFRSYM    DATA     BYTE      IE
      000000C8H.6 SFRSYM    DATA     BIT       EXF2
      000000B0H.7 SFRSYM    DATA     BIT       RD
      000000A8H.4 SFRSYM    DATA     BIT       ES
      000000B8H   SFRSYM    DATA     BYTE      IP
      00000098H.0 SFRSYM    DATA     BIT       RI
      000000B0H.2 SFRSYM    DATA     BIT       INT0
      000000D0H.7 SFRSYM    DATA     BIT       CY
      00000098H.1 SFRSYM    DATA     BIT       TI
      000000B0H.3 SFRSYM    DATA     BIT       INT1
      000000CBH   SFRSYM    DATA     BYTE      RCAP2H
      000000E5H   SFRSYM    DATA     BYTE      ISP_CMD
      000000B8H.4 SFRSYM    DATA     BIT       PS
      00000081H   SFRSYM    DATA     BYTE      SP
      00000090H.1 SFRSYM    DATA     BIT       T2EX
      000000D0H.2 SFRSYM    DATA     BIT       OV
      000000CAH   SFRSYM    DATA     BYTE      RCAP2L
      000000C8H.1 SFRSYM    DATA     BIT       C_T2
      000000B0H.6 SFRSYM    DATA     BIT       WR
      000000C8H.5 SFRSYM    DATA     BIT       RCLK
      000000C8H.4 SFRSYM    DATA     BIT       TCLK
      00000080H.0 SFRSYM    DATA     BIT       P00
      00000099H   SFRSYM    DATA     BYTE      SBUF
      00000087H   SFRSYM    DATA     BYTE      PCON
      00000090H.0 SFRSYM    DATA     BIT       P10
      00000080H.1 SFRSYM    DATA     BIT       P01
      000000A0H.0 SFRSYM    DATA     BIT       P20
      00000090H.1 SFRSYM    DATA     BIT       P11
      00000080H.2 SFRSYM    DATA     BIT       P02
      000000E3H   SFRSYM    DATA     BYTE      ISP_ADDRH
      000000B0H.0 SFRSYM    DATA     BIT       P30
      000000A0H.1 SFRSYM    DATA     BIT       P21
      00000090H.2 SFRSYM    DATA     BIT       P12
      00000080H.3 SFRSYM    DATA     BIT       P03
      00000098H   SFRSYM    DATA     BYTE      SCON
      000000B0H.1 SFRSYM    DATA     BIT       P31
      000000A0H.2 SFRSYM    DATA     BIT       P22
      00000090H.3 SFRSYM    DATA     BIT       P13
      00000080H.4 SFRSYM    DATA     BIT       P04
LX51 LINKER/LOCATER V4.66.87.0                                                        05/09/2018  21:28:12  PAGE 66


      000000E8H.0 SFRSYM    DATA     BIT       P40
      00000089H   SFRSYM    DATA     BYTE      TMOD
      00000088H   SFRSYM    DATA     BYTE      TCON
      000000B0H.2 SFRSYM    DATA     BIT       P32
      000000A0H.3 SFRSYM    DATA     BIT       P23
      00000090H.4 SFRSYM    DATA     BIT       P14
      00000080H.5 SFRSYM    DATA     BIT       P05
      000000E8H.1 SFRSYM    DATA     BIT       P41
      000000B0H.3 SFRSYM    DATA     BIT       P33
      000000A0H.4 SFRSYM    DATA     BIT       P24
      00000090H.5 SFRSYM    DATA     BIT       P15
      00000080H.6 SFRSYM    DATA     BIT       P06
      000000E4H   SFRSYM    DATA     BYTE      ISP_ADDRL
      000000E8H.2 SFRSYM    DATA     BIT       P42
      000000B0H.4 SFRSYM    DATA     BIT       P34
      000000A0H.5 SFRSYM    DATA     BIT       P25
      00000090H.6 SFRSYM    DATA     BIT       P16
      00000080H.7 SFRSYM    DATA     BIT       P07
      000000E8H.3 SFRSYM    DATA     BIT       P43
      000000B0H.5 SFRSYM    DATA     BIT       P35
      000000A0H.6 SFRSYM    DATA     BIT       P26
      00000090H.7 SFRSYM    DATA     BIT       P17
      000000E8H.4 SFRSYM    DATA     BIT       P44
      000000B0H.6 SFRSYM    DATA     BIT       P36
      000000A0H.7 SFRSYM    DATA     BIT       P27
      000000E8H.5 SFRSYM    DATA     BIT       P45
      000000B0H.7 SFRSYM    DATA     BIT       P37
      000000E8H.6 SFRSYM    DATA     BIT       P46
      00000088H.1 SFRSYM    DATA     BIT       IE0
      00000088H.3 SFRSYM    DATA     BIT       IE1
      0000008EH   SFRSYM    DATA     BYTE      AUXR
      000000F0H   SFRSYM    DATA     BYTE      B
      000000C8H.0 SFRSYM    DATA     BIT       CP_RL2
      000000E0H   SFRSYM    DATA     BYTE      ACC
      000000A8H.1 SFRSYM    DATA     BIT       ET0
      000000A8H.3 SFRSYM    DATA     BIT       ET1
      00000088H.5 SFRSYM    DATA     BIT       TF0
      000000A8H.5 SFRSYM    DATA     BIT       ET2
      00000088H.7 SFRSYM    DATA     BIT       TF1
      000000C8H.7 SFRSYM    DATA     BIT       TF2
      00000098H.2 SFRSYM    DATA     BIT       RB8
      0000008CH   SFRSYM    DATA     BYTE      TH0
      000000A8H.0 SFRSYM    DATA     BIT       EX0
      00000088H.0 SFRSYM    DATA     BIT       IT0
      0000008DH   SFRSYM    DATA     BYTE      TH1
      00000098H.3 SFRSYM    DATA     BIT       TB8
      000000A8H.2 SFRSYM    DATA     BIT       EX1
      00000088H.2 SFRSYM    DATA     BIT       IT1
      000000CDH   SFRSYM    DATA     BYTE      TH2
      000000D0H.0 SFRSYM    DATA     BIT       P
      00000098H.7 SFRSYM    DATA     BIT       SM0
      0000008AH   SFRSYM    DATA     BYTE      TL0
      00000098H.6 SFRSYM    DATA     BIT       SM1
      0000008BH   SFRSYM    DATA     BYTE      TL1
      00000098H.5 SFRSYM    DATA     BIT       SM2
      000000CCH   SFRSYM    DATA     BYTE      TL2
      000000B8H.1 SFRSYM    DATA     BIT       PT0
      000000B8H.3 SFRSYM    DATA     BIT       PT1
      000000D0H.3 SFRSYM    DATA     BIT       RS0
      000000E7H   SFRSYM    DATA     BYTE      ISP_CONTR
      000000B8H.5 SFRSYM    DATA     BIT       PT2
      00000088H.4 SFRSYM    DATA     BIT       TR0
      000000D0H.4 SFRSYM    DATA     BIT       RS1
      00000088H.6 SFRSYM    DATA     BIT       TR1
      000000C8H.2 SFRSYM    DATA     BIT       TR2
LX51 LINKER/LOCATER V4.66.87.0                                                        05/09/2018  21:28:12  PAGE 67


      000000B8H.0 SFRSYM    DATA     BIT       PX0
      000000E1H   SFRSYM    DATA     BYTE      WDT_CONTR
      000000B8H.2 SFRSYM    DATA     BIT       PX1
      00000083H   SFRSYM    DATA     BYTE      DPH
      00000082H   SFRSYM    DATA     BYTE      DPL
      000000B7H   SFRSYM    DATA     BYTE      IPH
      000000C8H.3 SFRSYM    DATA     BIT       EXEN2
      00000098H.4 SFRSYM    DATA     BIT       REN
      000000C9H   SFRSYM    DATA     BYTE      T2MOD
      000000C8H   SFRSYM    DATA     BYTE      T2CON
      000000E2H   SFRSYM    DATA     BYTE      ISP_DATA
      000000B9H   SFRSYM    DATA     BYTE      SADEN
      000000B0H.0 SFRSYM    DATA     BIT       RXD
      000000A9H   SFRSYM    DATA     BYTE      SADDR
      000000B0H.1 SFRSYM    DATA     BIT       TXD
      000000A2H   SFRSYM    DATA     BYTE      AUXR1
      000000D0H.5 SFRSYM    DATA     BIT       F0
      000000D0H   SFRSYM    DATA     BYTE      PSW
      01006B56H   SYMBOL    CODE     ---       show_version

      01006B56H   BLOCK     CODE     ---       LVL=0
      01006B56H   LINE      CODE     ---       #32
      01006B56H   LINE      CODE     ---       #33
      01006B56H   LINE      CODE     ---       #35
      01006B5FH   LINE      CODE     ---       #36
      01006B72H   LINE      CODE     ---       #37
      01006B7BH   LINE      CODE     ---       #38
      ---         BLOCKEND  ---      ---       LVL=0

      01005BE7H   BLOCK     CODE     ---       LVL=0
      01005BE7H   LINE      CODE     ---       #42
      01005BE7H   LINE      CODE     ---       #43
      01005BE7H   LINE      CODE     ---       #44
      01005BE9H   LINE      CODE     ---       #45
      01005BECH   LINE      CODE     ---       #46
      01005BEFH   LINE      CODE     ---       #47
      01005BF2H   LINE      CODE     ---       #48
      01005BF5H   LINE      CODE     ---       #49
      01005BF8H   LINE      CODE     ---       #50
      01005BFBH   LINE      CODE     ---       #51
      01005BFEH   LINE      CODE     ---       #52
      01005C01H   LINE      CODE     ---       #53
      01005C04H   LINE      CODE     ---       #54
      01005C07H   LINE      CODE     ---       #55
      01005C0AH   LINE      CODE     ---       #56
      01005C0DH   LINE      CODE     ---       #57
      01005C10H   LINE      CODE     ---       #58
      01005C13H   LINE      CODE     ---       #59
      01005C16H   LINE      CODE     ---       #60
      01005C19H   LINE      CODE     ---       #61
      01005C1CH   LINE      CODE     ---       #62
      01005C1FH   LINE      CODE     ---       #63
      01005C22H   LINE      CODE     ---       #64
      01005C25H   LINE      CODE     ---       #65
      01005C28H   LINE      CODE     ---       #66
      01005C2BH   LINE      CODE     ---       #67
      01005C2BH   LINE      CODE     ---       #68
      01005C2EH   LINE      CODE     ---       #69
      01005C31H   LINE      CODE     ---       #70
      ---         BLOCKEND  ---      ---       LVL=0

      ---         MODULE    ---      ---       ?C_STARTUP
      01000000H   PUBLIC    CODE     NEAR LAB  ?C_STARTUP
      000000E0H   SFRSYM    DATA     BYTE      ACC
      000000F0H   SFRSYM    DATA     BYTE      B
LX51 LINKER/LOCATER V4.66.87.0                                                        05/09/2018  21:28:12  PAGE 68


      00000083H   SFRSYM    DATA     BYTE      DPH
      00000082H   SFRSYM    DATA     BYTE      DPL
      000000A0H   SFRSYM    DATA     BYTE      PPAGE_SFR
      00000081H   SFRSYM    DATA     BYTE      SP
      00000000H   SYMBOL    NUMBER   ---       IBPSTACK
      00000100H   SYMBOL    NUMBER   ---       IBPSTACKTOP
      00000080H   SYMBOL    NUMBER   ---       IDATALEN
      010073D2H   SYMBOL    CODE     NEAR LAB  IDATALOOP
      00000000H   SYMBOL    NUMBER   ---       PBPSTACK
      00000100H   SYMBOL    NUMBER   ---       PBPSTACKTOP
      00000000H   SYMBOL    NUMBER   ---       PDATALEN
      00000000H   SYMBOL    NUMBER   ---       PDATASTART
      00000000H   SYMBOL    NUMBER   ---       PPAGE
      00000000H   SYMBOL    NUMBER   ---       PPAGEENABLE
      010073CFH   SYMBOL    CODE     NEAR LAB  STARTUP1
      00000001H   SYMBOL    NUMBER   ---       XBPSTACK
      00010000H   SYMBOL    NUMBER   ---       XBPSTACKTOP
      00000400H   SYMBOL    NUMBER   ---       XDATALEN
      010073DDH   SYMBOL    CODE     NEAR LAB  XDATALOOP
      00000000H   SYMBOL    NUMBER   ---       XDATASTART

      01000000H   BLOCK     CODE     NEAR LAB  LVL=0
      01000000H   LINE      CODE     ---       #126
      ---         BLOCKEND  ---      ---       LVL=0

      010073CFH   BLOCK     CODE     NEAR LAB  LVL=0
      010073CFH   LINE      CODE     ---       #133
      010073D1H   LINE      CODE     ---       #134
      010073D2H   LINE      CODE     ---       #135
      010073D3H   LINE      CODE     ---       #136
      010073D5H   LINE      CODE     ---       #140
      010073D8H   LINE      CODE     ---       #141
      010073DAH   LINE      CODE     ---       #145
      010073DCH   LINE      CODE     ---       #147
      010073DDH   LINE      CODE     ---       #148
      010073DEH   LINE      CODE     ---       #149
      010073DFH   LINE      CODE     ---       #150
      010073E1H   LINE      CODE     ---       #151
      010073E3H   LINE      CODE     ---       #176
      010073E6H   LINE      CODE     ---       #177
      010073E9H   LINE      CODE     ---       #185
      010073ECH   LINE      CODE     ---       #196
      ---         BLOCKEND  ---      ---       LVL=0

      ---         MODULE    ---      ---       COM
      00000023H.3 PUBLIC    BIT      BIT       sendfull
      00000023H.2 PUBLIC    BIT      BIT       sendactive
      01000016H   PUBLIC    CODE     ---       com_leave_powersave
      01008191H   PUBLIC    CODE     ---       com_enter_powersave
      01007DBBH   PUBLIC    CODE     ---       com_try_get_key
      0100806CH   PUBLIC    CODE     ---       _getkey
      010079DFH   PUBLIC    CODE     ---       _putchar
      01006A9AH   PUBLIC    CODE     ---       _putbuf
      01006F47H   PUBLIC    CODE     ---       com_initialize
      00000080H   SFRSYM    DATA     BYTE      P0
      00000090H   SFRSYM    DATA     BYTE      P1
      000000A0H   SFRSYM    DATA     BYTE      P2
      000000B0H   SFRSYM    DATA     BYTE      P3
      000000C0H   SFRSYM    DATA     BYTE      XICON
      000000B0H.4 SFRSYM    DATA     BIT       T0
      000000D0H.6 SFRSYM    DATA     BIT       AC
      000000E8H   SFRSYM    DATA     BYTE      P4
      000000B0H.5 SFRSYM    DATA     BIT       T1
      000000E6H   SFRSYM    DATA     BYTE      ISP_TRIG
      00000090H.0 SFRSYM    DATA     BIT       T2
LX51 LINKER/LOCATER V4.66.87.0                                                        05/09/2018  21:28:12  PAGE 69


      000000A8H.7 SFRSYM    DATA     BIT       EA
      000000A8H.6 SFRSYM    DATA     BIT       EC
      00000098H.7 SFRSYM    DATA     BIT       FE
      000000A8H   SFRSYM    DATA     BYTE      IE
      000000C8H.6 SFRSYM    DATA     BIT       EXF2
      000000B0H.7 SFRSYM    DATA     BIT       RD
      000000A8H.4 SFRSYM    DATA     BIT       ES
      000000B8H   SFRSYM    DATA     BYTE      IP
      00000098H.0 SFRSYM    DATA     BIT       RI
      000000B0H.2 SFRSYM    DATA     BIT       INT0
      000000D0H.7 SFRSYM    DATA     BIT       CY
      00000098H.1 SFRSYM    DATA     BIT       TI
      000000B0H.3 SFRSYM    DATA     BIT       INT1
      000000CBH   SFRSYM    DATA     BYTE      RCAP2H
      000000E5H   SFRSYM    DATA     BYTE      ISP_CMD
      000000B8H.4 SFRSYM    DATA     BIT       PS
      00000081H   SFRSYM    DATA     BYTE      SP
      00000090H.1 SFRSYM    DATA     BIT       T2EX
      000000D0H.2 SFRSYM    DATA     BIT       OV
      000000CAH   SFRSYM    DATA     BYTE      RCAP2L
      000000C8H.1 SFRSYM    DATA     BIT       C_T2
      000000B0H.6 SFRSYM    DATA     BIT       WR
      000000C8H.5 SFRSYM    DATA     BIT       RCLK
      000000C8H.4 SFRSYM    DATA     BIT       TCLK
      00000080H.0 SFRSYM    DATA     BIT       P00
      00000099H   SFRSYM    DATA     BYTE      SBUF
      00000087H   SFRSYM    DATA     BYTE      PCON
      00000090H.0 SFRSYM    DATA     BIT       P10
      00000080H.1 SFRSYM    DATA     BIT       P01
      000000A0H.0 SFRSYM    DATA     BIT       P20
      00000090H.1 SFRSYM    DATA     BIT       P11
      00000080H.2 SFRSYM    DATA     BIT       P02
      000000E3H   SFRSYM    DATA     BYTE      ISP_ADDRH
      000000B0H.0 SFRSYM    DATA     BIT       P30
      000000A0H.1 SFRSYM    DATA     BIT       P21
      00000090H.2 SFRSYM    DATA     BIT       P12
      00000080H.3 SFRSYM    DATA     BIT       P03
      00000098H   SFRSYM    DATA     BYTE      SCON
      000000B0H.1 SFRSYM    DATA     BIT       P31
      000000A0H.2 SFRSYM    DATA     BIT       P22
      00000090H.3 SFRSYM    DATA     BIT       P13
      00000080H.4 SFRSYM    DATA     BIT       P04
      000000E8H.0 SFRSYM    DATA     BIT       P40
      00000089H   SFRSYM    DATA     BYTE      TMOD
      00000088H   SFRSYM    DATA     BYTE      TCON
      000000B0H.2 SFRSYM    DATA     BIT       P32
      000000A0H.3 SFRSYM    DATA     BIT       P23
      00000090H.4 SFRSYM    DATA     BIT       P14
      00000080H.5 SFRSYM    DATA     BIT       P05
      000000E8H.1 SFRSYM    DATA     BIT       P41
      000000B0H.3 SFRSYM    DATA     BIT       P33
      000000A0H.4 SFRSYM    DATA     BIT       P24
      00000090H.5 SFRSYM    DATA     BIT       P15
      00000080H.6 SFRSYM    DATA     BIT       P06
      000000E4H   SFRSYM    DATA     BYTE      ISP_ADDRL
      000000E8H.2 SFRSYM    DATA     BIT       P42
      000000B0H.4 SFRSYM    DATA     BIT       P34
      000000A0H.5 SFRSYM    DATA     BIT       P25
      00000090H.6 SFRSYM    DATA     BIT       P16
      00000080H.7 SFRSYM    DATA     BIT       P07
      000000E8H.3 SFRSYM    DATA     BIT       P43
      000000B0H.5 SFRSYM    DATA     BIT       P35
      000000A0H.6 SFRSYM    DATA     BIT       P26
      00000090H.7 SFRSYM    DATA     BIT       P17
      000000E8H.4 SFRSYM    DATA     BIT       P44
LX51 LINKER/LOCATER V4.66.87.0                                                        05/09/2018  21:28:12  PAGE 70


      000000B0H.6 SFRSYM    DATA     BIT       P36
      000000A0H.7 SFRSYM    DATA     BIT       P27
      000000E8H.5 SFRSYM    DATA     BIT       P45
      000000B0H.7 SFRSYM    DATA     BIT       P37
      000000E8H.6 SFRSYM    DATA     BIT       P46
      00000088H.1 SFRSYM    DATA     BIT       IE0
      00000088H.3 SFRSYM    DATA     BIT       IE1
      0000008EH   SFRSYM    DATA     BYTE      AUXR
      000000F0H   SFRSYM    DATA     BYTE      B
      000000C8H.0 SFRSYM    DATA     BIT       CP_RL2
      000000E0H   SFRSYM    DATA     BYTE      ACC
      000000A8H.1 SFRSYM    DATA     BIT       ET0
      000000A8H.3 SFRSYM    DATA     BIT       ET1
      00000088H.5 SFRSYM    DATA     BIT       TF0
      000000A8H.5 SFRSYM    DATA     BIT       ET2
      00000088H.7 SFRSYM    DATA     BIT       TF1
      000000C8H.7 SFRSYM    DATA     BIT       TF2
      00000098H.2 SFRSYM    DATA     BIT       RB8
      0000008CH   SFRSYM    DATA     BYTE      TH0
      000000A8H.0 SFRSYM    DATA     BIT       EX0
      00000088H.0 SFRSYM    DATA     BIT       IT0
      0000008DH   SFRSYM    DATA     BYTE      TH1
      00000098H.3 SFRSYM    DATA     BIT       TB8
      000000A8H.2 SFRSYM    DATA     BIT       EX1
      00000088H.2 SFRSYM    DATA     BIT       IT1
      000000CDH   SFRSYM    DATA     BYTE      TH2
      000000D0H.0 SFRSYM    DATA     BIT       P
      00000098H.7 SFRSYM    DATA     BIT       SM0
      0000008AH   SFRSYM    DATA     BYTE      TL0
      00000098H.6 SFRSYM    DATA     BIT       SM1
      0000008BH   SFRSYM    DATA     BYTE      TL1
      00000098H.5 SFRSYM    DATA     BIT       SM2
      000000CCH   SFRSYM    DATA     BYTE      TL2
      000000B8H.1 SFRSYM    DATA     BIT       PT0
      000000B8H.3 SFRSYM    DATA     BIT       PT1
      000000D0H.3 SFRSYM    DATA     BIT       RS0
      000000E7H   SFRSYM    DATA     BYTE      ISP_CONTR
      000000B8H.5 SFRSYM    DATA     BIT       PT2
      00000088H.4 SFRSYM    DATA     BIT       TR0
      000000D0H.4 SFRSYM    DATA     BIT       RS1
      00000088H.6 SFRSYM    DATA     BIT       TR1
      000000C8H.2 SFRSYM    DATA     BIT       TR2
      000000B8H.0 SFRSYM    DATA     BIT       PX0
      000000E1H   SFRSYM    DATA     BYTE      WDT_CONTR
      000000B8H.2 SFRSYM    DATA     BIT       PX1
      00000083H   SFRSYM    DATA     BYTE      DPH
      00000082H   SFRSYM    DATA     BYTE      DPL
      000000B7H   SFRSYM    DATA     BYTE      IPH
      000000C8H.3 SFRSYM    DATA     BIT       EXEN2
      00000098H.4 SFRSYM    DATA     BIT       REN
      000000C9H   SFRSYM    DATA     BYTE      T2MOD
      000000C8H   SFRSYM    DATA     BYTE      T2CON
      000000E2H   SFRSYM    DATA     BYTE      ISP_DATA
      000000B9H   SFRSYM    DATA     BYTE      SADEN
      000000B0H.0 SFRSYM    DATA     BIT       RXD
      000000A9H   SFRSYM    DATA     BYTE      SADDR
      000000B0H.1 SFRSYM    DATA     BIT       TXD
      000000A2H   SFRSYM    DATA     BYTE      AUXR1
      000000D0H.5 SFRSYM    DATA     BIT       F0
      000000D0H   SFRSYM    DATA     BYTE      PSW
      00000026H   SYMBOL    IDATA    ---       inbuf
      0000002EH   SYMBOL    IDATA    ---       outbuf
      020000B8H   SYMBOL    XDATA    BYTE      istart
      020000B9H   SYMBOL    XDATA    BYTE      ostart
      020000BAH   SYMBOL    XDATA    BYTE      iend
LX51 LINKER/LOCATER V4.66.87.0                                                        05/09/2018  21:28:12  PAGE 71


      020000BBH   SYMBOL    XDATA    BYTE      oend
      010049DAH   SYMBOL    CODE     ---       com_isr

      01007B3AH   BLOCK     CODE     ---       LVL=0
      ---         BLOCKEND  ---      ---       LVL=0

      010049DAH   BLOCK     CODE     ---       LVL=0
      010049ECH   BLOCK     CODE     NEAR LAB  LVL=1
      00000017H   SYMBOL    DATA     CHAR      c
      ---         BLOCKEND  ---      ---       LVL=1
      010049DAH   LINE      CODE     ---       #31
      010049ECH   LINE      CODE     ---       #36
      010049EFH   LINE      CODE     ---       #37
      010049F1H   LINE      CODE     ---       #38
      010049F3H   LINE      CODE     ---       #39
      01004A07H   LINE      CODE     ---       #40
      01004A13H   LINE      CODE     ---       #41
      01004A13H   LINE      CODE     ---       #42
      01004A13H   LINE      CODE     ---       #45
      01004A16H   LINE      CODE     ---       #46
      01004A18H   LINE      CODE     ---       #47
      01004A24H   LINE      CODE     ---       #48
      01004A31H   LINE      CODE     ---       #49
      01004A33H   LINE      CODE     ---       #50
      01004A35H   LINE      CODE     ---       #51
      01004A35H   LINE      CODE     ---       #52
      01004A37H   LINE      CODE     ---       #53
      01004A37H   LINE      CODE     ---       #54
      01004A37H   LINE      CODE     ---       #55
      ---         BLOCKEND  ---      ---       LVL=0

      01006F47H   BLOCK     CODE     ---       LVL=0
      01006F47H   LINE      CODE     ---       #61
      01006F47H   LINE      CODE     ---       #62
      01006F4CH   LINE      CODE     ---       #63
      01006F50H   LINE      CODE     ---       #64
      01006F54H   LINE      CODE     ---       #65
      01006F58H   LINE      CODE     ---       #66
      01006F5AH   LINE      CODE     ---       #67
      01006F5CH   LINE      CODE     ---       #69
      01006F5FH   LINE      CODE     ---       #71
      01006F62H   LINE      CODE     ---       #72
      01006F65H   LINE      CODE     ---       #74
      01006F68H   LINE      CODE     ---       #75
      01006F6AH   LINE      CODE     ---       #76
      01006F6CH   LINE      CODE     ---       #77
      01006F6EH   LINE      CODE     ---       #78
      ---         BLOCKEND  ---      ---       LVL=0

      01006A9AH   BLOCK     CODE     ---       LVL=0
      00000007H   SYMBOL    DATA     CHAR      c
      01006A9AH   LINE      CODE     ---       #89
      01006A9AH   LINE      CODE     ---       #90
      01006A9DH   LINE      CODE     ---       #91
      01006AA0H   LINE      CODE     ---       #92
      01006AA2H   LINE      CODE     ---       #93
      01006AA4H   LINE      CODE     ---       #94
      01006AA5H   LINE      CODE     ---       #95
      01006AA5H   LINE      CODE     ---       #96
      01006AA7H   LINE      CODE     ---       #97
      01006AB6H   LINE      CODE     ---       #98
      01006AC4H   LINE      CODE     ---       #99
      01006AC6H   LINE      CODE     ---       #100
      01006AC6H   LINE      CODE     ---       #101
      01006AC8H   LINE      CODE     ---       #102
LX51 LINKER/LOCATER V4.66.87.0                                                        05/09/2018  21:28:12  PAGE 72


      01006AC8H   LINE      CODE     ---       #103
      01006AC8H   LINE      CODE     ---       #104
      ---         BLOCKEND  ---      ---       LVL=0

      010079DFH   BLOCK     CODE     ---       LVL=0
      00000005H   SYMBOL    DATA     CHAR      c
      010079DFH   LINE      CODE     ---       #111
      010079E1H   LINE      CODE     ---       #112
      010079E5H   LINE      CODE     ---       #113
      010079E8H   LINE      CODE     ---       #114
      010079EDH   LINE      CODE     ---       #115
      010079EDH   LINE      CODE     ---       #116
      010079F0H   LINE      CODE     ---       #117
      010079F5H   LINE      CODE     ---       #118
      010079F7H   LINE      CODE     ---       #119
      ---         BLOCKEND  ---      ---       LVL=0

      0100806CH   BLOCK     CODE     ---       LVL=0
      0100806CH   BLOCK     CODE     NEAR LAB  LVL=1
      00000007H   SYMBOL    DATA     CHAR      c
      ---         BLOCKEND  ---      ---       LVL=1
      0100806CH   LINE      CODE     ---       #126
      0100806CH   LINE      CODE     ---       #128
      01008072H   LINE      CODE     ---       #130
      01008072H   LINE      CODE     ---       #131
      01008074H   LINE      CODE     ---       #132
      01008078H   LINE      CODE     ---       #133
      0100807BH   LINE      CODE     ---       #134
      0100807BH   LINE      CODE     ---       #135
      ---         BLOCKEND  ---      ---       LVL=0

      01007DBBH   BLOCK     CODE     ---       LVL=0
      01007DBBH   BLOCK     CODE     NEAR LAB  LVL=1
      00000007H   SYMBOL    DATA     CHAR      c
      ---         BLOCKEND  ---      ---       LVL=1
      01007DBBH   LINE      CODE     ---       #137
      01007DBBH   LINE      CODE     ---       #138
      01007DBBH   LINE      CODE     ---       #140
      01007DC1H   LINE      CODE     ---       #141
      01007DC4H   LINE      CODE     ---       #142
      01007DC4H   LINE      CODE     ---       #143
      01007DC6H   LINE      CODE     ---       #144
      01007DCBH   LINE      CODE     ---       #145
      01007DCEH   LINE      CODE     ---       #146
      01007DCEH   LINE      CODE     ---       #147
      ---         BLOCKEND  ---      ---       LVL=0

      01008191H   BLOCK     CODE     ---       LVL=0
      01008191H   LINE      CODE     ---       #149
      01008191H   LINE      CODE     ---       #150
      01008191H   LINE      CODE     ---       #151
      0100819AH   LINE      CODE     ---       #152
      0100819CH   LINE      CODE     ---       #153
      0100819EH   LINE      CODE     ---       #154
      ---         BLOCKEND  ---      ---       LVL=0

      01000016H   BLOCK     CODE     ---       LVL=0
      01000016H   LINE      CODE     ---       #156
      01000016H   LINE      CODE     ---       #157
      01000016H   LINE      CODE     ---       #158
      01000018H   LINE      CODE     ---       #159
      0100001AH   LINE      CODE     ---       #160
      ---         BLOCKEND  ---      ---       LVL=0

      ---         MODULE    ---      ---       RTC
LX51 LINKER/LOCATER V4.66.87.0                                                        05/09/2018  21:28:12  PAGE 73


      01007DF7H   PUBLIC    CODE     ---       rtc_leave_powersave
      01007929H   PUBLIC    CODE     ---       rtc_enter_powersave
      0100761CH   PUBLIC    CODE     ---       _rtc_test_alarm_int_flag
      01007B51H   PUBLIC    CODE     ---       _rtc_clr_alarm_int_flag
      010075FFH   PUBLIC    CODE     ---       _rtc_test_alarm_int
      00000020H.1 PUBLIC    BIT      BIT       ?_rtc_enable_alarm_int?BIT
      01007118H   PUBLIC    CODE     ---       _rtc_enable_alarm_int
      02000014H   PUBLIC    XDATA    BYTE      ?_rtc_get_temperature?BYTE
      01003C51H   PUBLIC    CODE     ---       _rtc_get_temperature
      01003E99H   PUBLIC    CODE     ---       _rtc_alarm_set_mode
      01002EDEH   PUBLIC    CODE     ---       rtc_alarm_get_mode
      010075E2H   PUBLIC    CODE     ---       _rtc_alarm_set_sec
      01007DE3H   PUBLIC    CODE     ---       rtc_alarm_get_sec
      0100790FH   PUBLIC    CODE     ---       _rtc_alarm_set_date
      01007D28H   PUBLIC    CODE     ---       rtc_alarm_get_date
      01007C62H   PUBLIC    CODE     ---       _rtc_alarm_set_day
      01007DCFH   PUBLIC    CODE     ---       rtc_alarm_get_day
      01007EE4H   PUBLIC    CODE     ---       _rtc_alarm_set_min
      01007C4CH   PUBLIC    CODE     ---       rtc_alarm_get_min
      01007ED1H   PUBLIC    CODE     ---       _rtc_alarm_set_hour
      00000020H.0 PUBLIC    BIT      BIT       ?rtc_alarm_set_hour_12?BIT
      010075C5H   PUBLIC    CODE     ---       rtc_alarm_set_hour_12
      01007C36H   PUBLIC    CODE     ---       rtc_alarm_get_hour_12
      01007C20H   PUBLIC    CODE     ---       rtc_alarm_get_hour
      01007F1DH   PUBLIC    CODE     ---       _rtc_date_set_day
      010084D0H   PUBLIC    CODE     ---       rtc_date_get_day
      01003A7EH   PUBLIC    CODE     ---       _rtc_date_set_date
      01008496H   PUBLIC    CODE     ---       rtc_date_get_date
      0100848EH   PUBLIC    CODE     ---       _rtc_date_set_month
      01008236H   PUBLIC    CODE     ---       rtc_date_get_month
      01008486H   PUBLIC    CODE     ---       _rtc_date_set_year
      0100822AH   PUBLIC    CODE     ---       rtc_date_get_year
      010084CAH   PUBLIC    CODE     ---       _rtc_time_set_sec
      0100847EH   PUBLIC    CODE     ---       rtc_time_get_sec
      010083AAH   PUBLIC    CODE     ---       _rtc_time_set_min
      01008476H   PUBLIC    CODE     ---       rtc_time_get_min
      0100846EH   PUBLIC    CODE     ---       rtc_time_get_hour_12
      00000020H.0 PUBLIC    BIT      BIT       ?rtc_time_set_hour_12?BIT
      0100807CH   PUBLIC    CODE     ---       rtc_time_set_hour_12
      010084C4H   PUBLIC    CODE     ---       _rtc_time_set_hour
      01008466H   PUBLIC    CODE     ---       rtc_time_get_hour
      01005665H   PUBLIC    CODE     ---       _rtc_write_data
      0100555BH   PUBLIC    CODE     ---       _rtc_read_data
      01001D1AH   PUBLIC    CODE     ---       rtc_initialize
      01007EBEH   PUBLIC    CODE     ---       scan_rtc
      00000020H.0 PUBLIC    BIT      BIT       ?rtc_set_lt_timer?BIT
      01000006H   PUBLIC    CODE     ---       rtc_set_lt_timer
      01008588H   PUBLIC    CODE     ---       rtc_is_lt_timer
      010061F8H   PUBLIC    CODE     ---       dump_rtc
      00000080H   SFRSYM    DATA     BYTE      P0
      00000090H   SFRSYM    DATA     BYTE      P1
      000000A0H   SFRSYM    DATA     BYTE      P2
      000000B0H   SFRSYM    DATA     BYTE      P3
      000000C0H   SFRSYM    DATA     BYTE      XICON
      000000B0H.4 SFRSYM    DATA     BIT       T0
      000000D0H.6 SFRSYM    DATA     BIT       AC
      000000E8H   SFRSYM    DATA     BYTE      P4
      000000B0H.5 SFRSYM    DATA     BIT       T1
      000000E6H   SFRSYM    DATA     BYTE      ISP_TRIG
      00000090H.0 SFRSYM    DATA     BIT       T2
      000000A8H.7 SFRSYM    DATA     BIT       EA
      000000A8H.6 SFRSYM    DATA     BIT       EC
      00000098H.7 SFRSYM    DATA     BIT       FE
      000000A8H   SFRSYM    DATA     BYTE      IE
      000000C8H.6 SFRSYM    DATA     BIT       EXF2
LX51 LINKER/LOCATER V4.66.87.0                                                        05/09/2018  21:28:12  PAGE 74


      000000B0H.7 SFRSYM    DATA     BIT       RD
      000000A8H.4 SFRSYM    DATA     BIT       ES
      000000B8H   SFRSYM    DATA     BYTE      IP
      00000098H.0 SFRSYM    DATA     BIT       RI
      000000B0H.2 SFRSYM    DATA     BIT       INT0
      000000D0H.7 SFRSYM    DATA     BIT       CY
      00000098H.1 SFRSYM    DATA     BIT       TI
      000000B0H.3 SFRSYM    DATA     BIT       INT1
      000000CBH   SFRSYM    DATA     BYTE      RCAP2H
      000000E5H   SFRSYM    DATA     BYTE      ISP_CMD
      000000B8H.4 SFRSYM    DATA     BIT       PS
      00000081H   SFRSYM    DATA     BYTE      SP
      00000090H.1 SFRSYM    DATA     BIT       T2EX
      000000D0H.2 SFRSYM    DATA     BIT       OV
      000000CAH   SFRSYM    DATA     BYTE      RCAP2L
      000000C8H.1 SFRSYM    DATA     BIT       C_T2
      000000B0H.6 SFRSYM    DATA     BIT       WR
      000000C8H.5 SFRSYM    DATA     BIT       RCLK
      000000C8H.4 SFRSYM    DATA     BIT       TCLK
      00000080H.0 SFRSYM    DATA     BIT       P00
      00000099H   SFRSYM    DATA     BYTE      SBUF
      00000087H   SFRSYM    DATA     BYTE      PCON
      00000090H.0 SFRSYM    DATA     BIT       P10
      00000080H.1 SFRSYM    DATA     BIT       P01
      000000A0H.0 SFRSYM    DATA     BIT       P20
      00000090H.1 SFRSYM    DATA     BIT       P11
      00000080H.2 SFRSYM    DATA     BIT       P02
      000000E3H   SFRSYM    DATA     BYTE      ISP_ADDRH
      000000B0H.0 SFRSYM    DATA     BIT       P30
      000000A0H.1 SFRSYM    DATA     BIT       P21
      00000090H.2 SFRSYM    DATA     BIT       P12
      00000080H.3 SFRSYM    DATA     BIT       P03
      00000098H   SFRSYM    DATA     BYTE      SCON
      000000B0H.1 SFRSYM    DATA     BIT       P31
      000000A0H.2 SFRSYM    DATA     BIT       P22
      00000090H.3 SFRSYM    DATA     BIT       P13
      00000080H.4 SFRSYM    DATA     BIT       P04
      000000E8H.0 SFRSYM    DATA     BIT       P40
      00000089H   SFRSYM    DATA     BYTE      TMOD
      00000088H   SFRSYM    DATA     BYTE      TCON
      000000B0H.2 SFRSYM    DATA     BIT       P32
      000000A0H.3 SFRSYM    DATA     BIT       P23
      00000090H.4 SFRSYM    DATA     BIT       P14
      00000080H.5 SFRSYM    DATA     BIT       P05
      000000E8H.1 SFRSYM    DATA     BIT       P41
      000000B0H.3 SFRSYM    DATA     BIT       P33
      000000A0H.4 SFRSYM    DATA     BIT       P24
      00000090H.5 SFRSYM    DATA     BIT       P15
      00000080H.6 SFRSYM    DATA     BIT       P06
      000000E4H   SFRSYM    DATA     BYTE      ISP_ADDRL
      000000E8H.2 SFRSYM    DATA     BIT       P42
      000000B0H.4 SFRSYM    DATA     BIT       P34
      000000A0H.5 SFRSYM    DATA     BIT       P25
      00000090H.6 SFRSYM    DATA     BIT       P16
      00000080H.7 SFRSYM    DATA     BIT       P07
      000000E8H.3 SFRSYM    DATA     BIT       P43
      000000B0H.5 SFRSYM    DATA     BIT       P35
      000000A0H.6 SFRSYM    DATA     BIT       P26
      00000090H.7 SFRSYM    DATA     BIT       P17
      000000E8H.4 SFRSYM    DATA     BIT       P44
      000000B0H.6 SFRSYM    DATA     BIT       P36
      000000A0H.7 SFRSYM    DATA     BIT       P27
      000000E8H.5 SFRSYM    DATA     BIT       P45
      000000B0H.7 SFRSYM    DATA     BIT       P37
      000000E8H.6 SFRSYM    DATA     BIT       P46
LX51 LINKER/LOCATER V4.66.87.0                                                        05/09/2018  21:28:12  PAGE 75


      00000088H.1 SFRSYM    DATA     BIT       IE0
      00000088H.3 SFRSYM    DATA     BIT       IE1
      0000008EH   SFRSYM    DATA     BYTE      AUXR
      000000F0H   SFRSYM    DATA     BYTE      B
      000000C8H.0 SFRSYM    DATA     BIT       CP_RL2
      000000E0H   SFRSYM    DATA     BYTE      ACC
      000000A8H.1 SFRSYM    DATA     BIT       ET0
      000000A8H.3 SFRSYM    DATA     BIT       ET1
      00000088H.5 SFRSYM    DATA     BIT       TF0
      000000A8H.5 SFRSYM    DATA     BIT       ET2
      00000088H.7 SFRSYM    DATA     BIT       TF1
      000000C8H.7 SFRSYM    DATA     BIT       TF2
      00000098H.2 SFRSYM    DATA     BIT       RB8
      0000008CH   SFRSYM    DATA     BYTE      TH0
      000000A8H.0 SFRSYM    DATA     BIT       EX0
      00000088H.0 SFRSYM    DATA     BIT       IT0
      0000008DH   SFRSYM    DATA     BYTE      TH1
      00000098H.3 SFRSYM    DATA     BIT       TB8
      000000A8H.2 SFRSYM    DATA     BIT       EX1
      00000088H.2 SFRSYM    DATA     BIT       IT1
      000000CDH   SFRSYM    DATA     BYTE      TH2
      000000D0H.0 SFRSYM    DATA     BIT       P
      00000098H.7 SFRSYM    DATA     BIT       SM0
      0000008AH   SFRSYM    DATA     BYTE      TL0
      00000098H.6 SFRSYM    DATA     BIT       SM1
      0000008BH   SFRSYM    DATA     BYTE      TL1
      00000098H.5 SFRSYM    DATA     BIT       SM2
      000000CCH   SFRSYM    DATA     BYTE      TL2
      000000B8H.1 SFRSYM    DATA     BIT       PT0
      000000B8H.3 SFRSYM    DATA     BIT       PT1
      000000D0H.3 SFRSYM    DATA     BIT       RS0
      000000E7H   SFRSYM    DATA     BYTE      ISP_CONTR
      000000B8H.5 SFRSYM    DATA     BIT       PT2
      00000088H.4 SFRSYM    DATA     BIT       TR0
      000000D0H.4 SFRSYM    DATA     BIT       RS1
      00000088H.6 SFRSYM    DATA     BIT       TR1
      000000C8H.2 SFRSYM    DATA     BIT       TR2
      000000B8H.0 SFRSYM    DATA     BIT       PX0
      000000E1H   SFRSYM    DATA     BYTE      WDT_CONTR
      000000B8H.2 SFRSYM    DATA     BIT       PX1
      00000083H   SFRSYM    DATA     BYTE      DPH
      00000082H   SFRSYM    DATA     BYTE      DPL
      000000B7H   SFRSYM    DATA     BYTE      IPH
      000000C8H.3 SFRSYM    DATA     BIT       EXEN2
      00000098H.4 SFRSYM    DATA     BIT       REN
      000000C9H   SFRSYM    DATA     BYTE      T2MOD
      000000C8H   SFRSYM    DATA     BYTE      T2CON
      000000E2H   SFRSYM    DATA     BYTE      ISP_DATA
      000000B9H   SFRSYM    DATA     BYTE      SADEN
      000000B0H.0 SFRSYM    DATA     BIT       RXD
      000000A9H   SFRSYM    DATA     BYTE      SADDR
      000000B0H.1 SFRSYM    DATA     BIT       TXD
      000000A2H   SFRSYM    DATA     BYTE      AUXR1
      000000D0H.5 SFRSYM    DATA     BIT       F0
      000000D0H   SFRSYM    DATA     BYTE      PSW
      0100845EH   SYMBOL    CODE     ---       __rtc_get_min_sec
      01006CC3H   SYMBOL    CODE     ---       __rtc_set_min_sec
      00000024H.2 SYMBOL    BIT      BIT       is_lt_timer_mode
      010084B6H   SYMBOL    CODE     ---       __rtc_get_hour_12
      020000AEH   SYMBOL    XDATA    BYTE      last_read
      01006F6FH   SYMBOL    CODE     ---       _rtc_set_hour_12
      020000AFH   SYMBOL    XDATA    ---       rtc_data
      0100000EH   SYMBOL    CODE     ---       __rtc_get_date
      01006CEFH   SYMBOL    CODE     ---       __rtc_set_date
      0100713DH   SYMBOL    CODE     ---       __rtc_get_hour
LX51 LINKER/LOCATER V4.66.87.0                                                        05/09/2018  21:28:12  PAGE 76


      010060C4H   SYMBOL    CODE     ---       __rtc_set_hour

      010035CEH   BLOCK     CODE     ---       LVL=0
      ---         BLOCKEND  ---      ---       LVL=0

      010061F8H   BLOCK     CODE     ---       LVL=0
      010061F8H   BLOCK     CODE     NEAR LAB  LVL=1
      02000002H   SYMBOL    XDATA    BYTE      addr
      02000003H   SYMBOL    XDATA    BYTE      c
      ---         BLOCKEND  ---      ---       LVL=1
      010061F8H   LINE      CODE     ---       #29
      010061F8H   LINE      CODE     ---       #30
      010061F8H   LINE      CODE     ---       #34
      01006207H   LINE      CODE     ---       #35
      01006212H   LINE      CODE     ---       #36
      0100622BH   LINE      CODE     ---       #37
      01006233H   LINE      CODE     ---       #38
      ---         BLOCKEND  ---      ---       LVL=0

      01008588H   BLOCK     CODE     ---       LVL=0
      01008588H   LINE      CODE     ---       #40
      01008588H   LINE      CODE     ---       #41
      01008588H   LINE      CODE     ---       #42
      0100858AH   LINE      CODE     ---       #43
      ---         BLOCKEND  ---      ---       LVL=0

      01000006H   BLOCK     CODE     ---       LVL=0
      00000020H.0 SYMBOL    BIT      BIT       enable
      01000006H   LINE      CODE     ---       #45
      01000006H   LINE      CODE     ---       #46
      01000006H   LINE      CODE     ---       #47
      0100000AH   LINE      CODE     ---       #48
      ---         BLOCKEND  ---      ---       LVL=0

      01007EBEH   BLOCK     CODE     ---       LVL=0
      01007EBEH   LINE      CODE     ---       #50
      01007EBEH   LINE      CODE     ---       #51
      01007EBEH   LINE      CODE     ---       #52
      01007EC7H   LINE      CODE     ---       #54
      01007ECAH   LINE      CODE     ---       #55
      01007ECDH   LINE      CODE     ---       #56
      01007ECDH   LINE      CODE     ---       #57
      01007ED0H   LINE      CODE     ---       #58
      01007ED0H   LINE      CODE     ---       #59
      ---         BLOCKEND  ---      ---       LVL=0

      01001D1AH   BLOCK     CODE     ---       LVL=0
      01001D1AH   BLOCK     CODE     NEAR LAB  LVL=1
      02000000H   SYMBOL    XDATA    BYTE      count
      02000001H   SYMBOL    XDATA    BYTE      is12
      ---         BLOCKEND  ---      ---       LVL=1
      01001D1AH   LINE      CODE     ---       #61
      01001D1AH   LINE      CODE     ---       #62
      01001D1AH   LINE      CODE     ---       #66
      01001D23H   LINE      CODE     ---       #68
      01001D25H   LINE      CODE     ---       #70
      01001D31H   LINE      CODE     ---       #73
      01001D3BH   LINE      CODE     ---       #75
      01001D3EH   LINE      CODE     ---       #76
      01001D43H   LINE      CODE     ---       #77
      01001D4AH   LINE      CODE     ---       #80
      01001D52H   LINE      CODE     ---       #81
      01001D5BH   LINE      CODE     ---       #82
      01001D63H   LINE      CODE     ---       #85
      01001D68H   LINE      CODE     ---       #86
LX51 LINKER/LOCATER V4.66.87.0                                                        05/09/2018  21:28:12  PAGE 77


      01001D6DH   LINE      CODE     ---       #87
      01001D72H   LINE      CODE     ---       #90
      01001D77H   LINE      CODE     ---       #91
      01001D7CH   LINE      CODE     ---       #92
      01001D81H   LINE      CODE     ---       #93
      01001D86H   LINE      CODE     ---       #94
      01001D86H   LINE      CODE     ---       #96
      01001D8DH   LINE      CODE     ---       #97
      01001D92H   LINE      CODE     ---       #99
      01001D97H   LINE      CODE     ---       #100
      01001D9EH   LINE      CODE     ---       #103
      01001DA3H   LINE      CODE     ---       #104
      01001DA8H   LINE      CODE     ---       #105
      01001DADH   LINE      CODE     ---       #108
      01001DB2H   LINE      CODE     ---       #109
      01001DB7H   LINE      CODE     ---       #110
      01001DBCH   LINE      CODE     ---       #111
      01001DC1H   LINE      CODE     ---       #112
      01001DC1H   LINE      CODE     ---       #114
      01001DE1H   LINE      CODE     ---       #119
      01001DE8H   LINE      CODE     ---       #120
      01001DEDH   LINE      CODE     ---       #123
      01001DF2H   LINE      CODE     ---       #124
      01001DF9H   LINE      CODE     ---       #125
      01001DFEH   LINE      CODE     ---       #126
      01001E05H   LINE      CODE     ---       #127
      01001E0AH   LINE      CODE     ---       #128
      01001E0FH   LINE      CODE     ---       #131
      01001E1CH   LINE      CODE     ---       #132
      01001E23H   LINE      CODE     ---       #133
      01001E2CH   LINE      CODE     ---       #136
      01001E31H   LINE      CODE     ---       #137
      01001E31H   LINE      CODE     ---       #138
      01001E37H   LINE      CODE     ---       #140
      01001E3AH   LINE      CODE     ---       #142
      ---         BLOCKEND  ---      ---       LVL=0

      0100555BH   BLOCK     CODE     ---       LVL=0
      00000007H   SYMBOL    DATA     BYTE      type
      0100555BH   BLOCK     CODE     NEAR LAB  LVL=1
      02000016H   SYMBOL    XDATA    BYTE      offset
      ---         BLOCKEND  ---      ---       LVL=1
      0100555BH   LINE      CODE     ---       #145
      0100555BH   LINE      CODE     ---       #146
      0100555BH   LINE      CODE     ---       #148
      0100556FH   LINE      CODE     ---       #149
      0100556FH   LINE      CODE     ---       #150
      01005576H   LINE      CODE     ---       #151
      01005576H   LINE      CODE     ---       #152
      0100557EH   LINE      CODE     ---       #153
      0100557EH   LINE      CODE     ---       #154
      01005586H   LINE      CODE     ---       #155
      01005586H   LINE      CODE     ---       #156
      0100558EH   LINE      CODE     ---       #157
      0100558EH   LINE      CODE     ---       #158
      01005596H   LINE      CODE     ---       #159
      01005596H   LINE      CODE     ---       #160
      0100559CH   LINE      CODE     ---       #161
      0100559CH   LINE      CODE     ---       #163
      010055A1H   LINE      CODE     ---       #165
      ---         BLOCKEND  ---      ---       LVL=0

      01005665H   BLOCK     CODE     ---       LVL=0
      00000007H   SYMBOL    DATA     BYTE      type
      01005665H   BLOCK     CODE     NEAR LAB  LVL=1
LX51 LINKER/LOCATER V4.66.87.0                                                        05/09/2018  21:28:12  PAGE 78


      02000016H   SYMBOL    XDATA    BYTE      offset
      ---         BLOCKEND  ---      ---       LVL=1
      01005665H   LINE      CODE     ---       #169
      01005665H   LINE      CODE     ---       #170
      01005665H   LINE      CODE     ---       #172
      01005679H   LINE      CODE     ---       #173
      01005679H   LINE      CODE     ---       #174
      01005680H   LINE      CODE     ---       #175
      01005680H   LINE      CODE     ---       #176
      01005688H   LINE      CODE     ---       #177
      01005688H   LINE      CODE     ---       #178
      01005690H   LINE      CODE     ---       #179
      01005690H   LINE      CODE     ---       #180
      01005698H   LINE      CODE     ---       #181
      01005698H   LINE      CODE     ---       #182
      010056A0H   LINE      CODE     ---       #183
      010056A0H   LINE      CODE     ---       #184
      010056A6H   LINE      CODE     ---       #185
      010056A6H   LINE      CODE     ---       #186
      010056A9H   LINE      CODE     ---       #187
      ---         BLOCKEND  ---      ---       LVL=0

      0100713DH   BLOCK     CODE     ---       LVL=0
      00000007H   SYMBOL    DATA     BYTE      hour
      0100713DH   BLOCK     CODE     NEAR LAB  LVL=1
      00000006H   SYMBOL    DATA     BYTE      ret
      ---         BLOCKEND  ---      ---       LVL=1
      0100713DH   LINE      CODE     ---       #190
      0100713DH   LINE      CODE     ---       #191
      0100713DH   LINE      CODE     ---       #193
      01007141H   LINE      CODE     ---       #194
      01007150H   LINE      CODE     ---       #195
      01007154H   LINE      CODE     ---       #196
      01007158H   LINE      CODE     ---       #197
      01007158H   LINE      CODE     ---       #198
      0100715AH   LINE      CODE     ---       #199
      0100715EH   LINE      CODE     ---       #200
      0100715EH   LINE      CODE     ---       #201
      01007160H   LINE      CODE     ---       #202
      ---         BLOCKEND  ---      ---       LVL=0

      010060C4H   BLOCK     CODE     ---       LVL=0
      00000007H   SYMBOL    DATA     BYTE      hour
      02000018H   SYMBOL    XDATA    ---       dat
      010060C4H   LINE      CODE     ---       #205
      010060CAH   LINE      CODE     ---       #206
      010060CAH   LINE      CODE     ---       #207
      010060D1H   LINE      CODE     ---       #208
      010060D7H   LINE      CODE     ---       #209
      010060DDH   LINE      CODE     ---       #210
      010060E1H   LINE      CODE     ---       #211
      010060E3H   LINE      CODE     ---       #212
      010060EBH   LINE      CODE     ---       #213
      010060EBH   LINE      CODE     ---       #214
      010060EBH   LINE      CODE     ---       #215
      010060EBH   LINE      CODE     ---       #216
      010060F0H   LINE      CODE     ---       #217
      010060F0H   LINE      CODE     ---       #218
      010060F2H   LINE      CODE     ---       #220
      010060F2H   LINE      CODE     ---       #221
      010060F2H   LINE      CODE     ---       #222
      010060F7H   LINE      CODE     ---       #223
      01006101H   LINE      CODE     ---       #224
      01006101H   LINE      CODE     ---       #225
      ---         BLOCKEND  ---      ---       LVL=0
LX51 LINKER/LOCATER V4.66.87.0                                                        05/09/2018  21:28:12  PAGE 79



      01006F6FH   BLOCK     CODE     ---       LVL=0
      00000020H.1 SYMBOL    BIT      BIT       enable
      02000015H   SYMBOL    XDATA    ---       dat
      01006F6FH   BLOCK     CODE     NEAR LAB  LVL=1
      00000007H   SYMBOL    DATA     BYTE      hour
      ---         BLOCKEND  ---      ---       LVL=1
      01006F6FH   LINE      CODE     ---       #227
      01006F6FH   LINE      CODE     ---       #228
      01006F6FH   LINE      CODE     ---       #230
      01006F79H   LINE      CODE     ---       #231
      01006F7FH   LINE      CODE     ---       #232
      01006F84H   LINE      CODE     ---       #233
      01006F86H   LINE      CODE     ---       #234
      01006F8EH   LINE      CODE     ---       #235
      01006F8EH   LINE      CODE     ---       #236
      ---         BLOCKEND  ---      ---       LVL=0

      010084B6H   BLOCK     CODE     ---       LVL=0
      00000007H   SYMBOL    DATA     BYTE      hour
      010084B6H   LINE      CODE     ---       #239
      010084B6H   LINE      CODE     ---       #240
      010084B6H   LINE      CODE     ---       #241
      010084BCH   LINE      CODE     ---       #242
      ---         BLOCKEND  ---      ---       LVL=0

      0100845EH   BLOCK     CODE     ---       LVL=0
      00000007H   SYMBOL    DATA     BYTE      min
      0100845EH   LINE      CODE     ---       #244
      0100845EH   LINE      CODE     ---       #245
      0100845EH   LINE      CODE     ---       #246
      01008465H   LINE      CODE     ---       #247
      ---         BLOCKEND  ---      ---       LVL=0

      01006CC3H   BLOCK     CODE     ---       LVL=0
      00000007H   SYMBOL    DATA     BYTE      min
      02000015H   SYMBOL    XDATA    ---       dat
      01006CC3H   LINE      CODE     ---       #249
      01006CC9H   LINE      CODE     ---       #250
      01006CC9H   LINE      CODE     ---       #251
      01006CD1H   LINE      CODE     ---       #252
      01006CDAH   LINE      CODE     ---       #253
      01006CE2H   LINE      CODE     ---       #254
      ---         BLOCKEND  ---      ---       LVL=0

      01008466H   BLOCK     CODE     ---       LVL=0
      01008466H   LINE      CODE     ---       #259
      01008466H   LINE      CODE     ---       #260
      01008466H   LINE      CODE     ---       #261
      ---         BLOCKEND  ---      ---       LVL=0

      010084C4H   BLOCK     CODE     ---       LVL=0
      00000007H   SYMBOL    DATA     BYTE      hour
      010084C4H   LINE      CODE     ---       #266
      010084C4H   LINE      CODE     ---       #267
      010084C4H   LINE      CODE     ---       #268
      ---         BLOCKEND  ---      ---       LVL=0

      0100807CH   BLOCK     CODE     ---       LVL=0
      00000020H.0 SYMBOL    BIT      BIT       enable
      0100807CH   LINE      CODE     ---       #271
      0100807CH   LINE      CODE     ---       #272
      0100807CH   LINE      CODE     ---       #273
      ---         BLOCKEND  ---      ---       LVL=0

LX51 LINKER/LOCATER V4.66.87.0                                                        05/09/2018  21:28:12  PAGE 80


      0100846EH   BLOCK     CODE     ---       LVL=0
      0100846EH   LINE      CODE     ---       #276
      0100846EH   LINE      CODE     ---       #277
      0100846EH   LINE      CODE     ---       #278
      ---         BLOCKEND  ---      ---       LVL=0

      01008476H   BLOCK     CODE     ---       LVL=0
      01008476H   LINE      CODE     ---       #281
      01008476H   LINE      CODE     ---       #282
      01008476H   LINE      CODE     ---       #283
      ---         BLOCKEND  ---      ---       LVL=0

      010083AAH   BLOCK     CODE     ---       LVL=0
      00000007H   SYMBOL    DATA     BYTE      min
      010083AAH   LINE      CODE     ---       #286
      010083AAH   LINE      CODE     ---       #287
      010083AAH   LINE      CODE     ---       #288
      ---         BLOCKEND  ---      ---       LVL=0

      0100847EH   BLOCK     CODE     ---       LVL=0
      0100847EH   LINE      CODE     ---       #291
      0100847EH   LINE      CODE     ---       #292
      0100847EH   LINE      CODE     ---       #293
      ---         BLOCKEND  ---      ---       LVL=0

      010084CAH   BLOCK     CODE     ---       LVL=0
      00000007H   SYMBOL    DATA     BYTE      sec
      010084CAH   LINE      CODE     ---       #296
      010084CAH   LINE      CODE     ---       #297
      010084CAH   LINE      CODE     ---       #298
      ---         BLOCKEND  ---      ---       LVL=0

      0100822AH   BLOCK     CODE     ---       LVL=0
      0100822AH   LINE      CODE     ---       #302
      0100822AH   LINE      CODE     ---       #303
      0100822AH   LINE      CODE     ---       #304
      01008235H   LINE      CODE     ---       #305
      ---         BLOCKEND  ---      ---       LVL=0

      01008486H   BLOCK     CODE     ---       LVL=0
      00000007H   SYMBOL    DATA     BYTE      year
      01008486H   LINE      CODE     ---       #307
      01008486H   LINE      CODE     ---       #308
      01008486H   LINE      CODE     ---       #309
      01008489H   LINE      CODE     ---       #310
      01008489H   LINE      CODE     ---       #311
      01008489H   LINE      CODE     ---       #312
      0100848DH   LINE      CODE     ---       #313
      ---         BLOCKEND  ---      ---       LVL=0

      01008236H   BLOCK     CODE     ---       LVL=0
      01008236H   LINE      CODE     ---       #315
      01008236H   LINE      CODE     ---       #316
      01008236H   LINE      CODE     ---       #317
      01008241H   LINE      CODE     ---       #318
      ---         BLOCKEND  ---      ---       LVL=0

      0100848EH   BLOCK     CODE     ---       LVL=0
      00000007H   SYMBOL    DATA     BYTE      month
      0100848EH   LINE      CODE     ---       #320
      0100848EH   LINE      CODE     ---       #321
      0100848EH   LINE      CODE     ---       #322
      01008491H   LINE      CODE     ---       #323
      01008491H   LINE      CODE     ---       #324
      01008491H   LINE      CODE     ---       #325
LX51 LINKER/LOCATER V4.66.87.0                                                        05/09/2018  21:28:12  PAGE 81


      01008495H   LINE      CODE     ---       #326
      ---         BLOCKEND  ---      ---       LVL=0

      0100000EH   BLOCK     CODE     ---       LVL=0
      00000007H   SYMBOL    DATA     BYTE      date
      0100000EH   LINE      CODE     ---       #328
      0100000EH   LINE      CODE     ---       #329
      0100000EH   LINE      CODE     ---       #330
      01000012H   LINE      CODE     ---       #331
      ---         BLOCKEND  ---      ---       LVL=0

      01006CEFH   BLOCK     CODE     ---       LVL=0
      00000007H   SYMBOL    DATA     BYTE      date
      02000017H   SYMBOL    XDATA    ---       dat
      01006CEFH   LINE      CODE     ---       #333
      01006CF5H   LINE      CODE     ---       #334
      01006CF5H   LINE      CODE     ---       #335
      01006CFDH   LINE      CODE     ---       #336
      01006D06H   LINE      CODE     ---       #337
      01006D0EH   LINE      CODE     ---       #338
      ---         BLOCKEND  ---      ---       LVL=0

      01008496H   BLOCK     CODE     ---       LVL=0
      01008496H   LINE      CODE     ---       #341
      01008496H   LINE      CODE     ---       #342
      01008496H   LINE      CODE     ---       #343
      ---         BLOCKEND  ---      ---       LVL=0

      01003A7EH   BLOCK     CODE     ---       LVL=0
      02000015H   SYMBOL    XDATA    BYTE      date
      01003A83H   BLOCK     CODE     NEAR LAB  LVL=1
      02000016H   SYMBOL    XDATA    CHAR      mon
      ---         BLOCKEND  ---      ---       LVL=1
      01003A7EH   LINE      CODE     ---       #347
      01003A83H   LINE      CODE     ---       #348
      01003A83H   LINE      CODE     ---       #349
      01003A8BH   LINE      CODE     ---       #351
      01003A94H   LINE      CODE     ---       #352
      01003ABAH   LINE      CODE     ---       #353
      01003ABAH   LINE      CODE     ---       #354
      01003AC5H   LINE      CODE     ---       #355
      01003AC5H   LINE      CODE     ---       #356
      01003AD0H   LINE      CODE     ---       #357
      01003ADFH   LINE      CODE     ---       #358
      01003AE9H   LINE      CODE     ---       #359
      01003AF8H   LINE      CODE     ---       #360
      01003B03H   LINE      CODE     ---       #361
      01003B03H   LINE      CODE     ---       #362
      01003B03H   LINE      CODE     ---       #364
      01003B0CH   LINE      CODE     ---       #365
      01003B1AH   LINE      CODE     ---       #367
      01003B1BH   LINE      CODE     ---       #368
      ---         BLOCKEND  ---      ---       LVL=0

      010084D0H   BLOCK     CODE     ---       LVL=0
      010084D0H   LINE      CODE     ---       #370
      010084D0H   LINE      CODE     ---       #371
      010084D0H   LINE      CODE     ---       #372
      010084D5H   LINE      CODE     ---       #373
      ---         BLOCKEND  ---      ---       LVL=0

      01007F1DH   BLOCK     CODE     ---       LVL=0
      00000007H   SYMBOL    DATA     BYTE      day
      01007F1DH   LINE      CODE     ---       #375
      01007F1DH   LINE      CODE     ---       #376
LX51 LINKER/LOCATER V4.66.87.0                                                        05/09/2018  21:28:12  PAGE 82


      01007F1DH   LINE      CODE     ---       #377
      01007F29H   LINE      CODE     ---       #378
      01007F2EH   LINE      CODE     ---       #379
      01007F2EH   LINE      CODE     ---       #380
      ---         BLOCKEND  ---      ---       LVL=0

      01007C20H   BLOCK     CODE     ---       LVL=0
      01007C20H   LINE      CODE     ---       #383
      01007C20H   LINE      CODE     ---       #384
      01007C20H   LINE      CODE     ---       #385
      ---         BLOCKEND  ---      ---       LVL=0

      01007C36H   BLOCK     CODE     ---       LVL=0
      01007C36H   LINE      CODE     ---       #388
      01007C36H   LINE      CODE     ---       #389
      01007C36H   LINE      CODE     ---       #390
      ---         BLOCKEND  ---      ---       LVL=0

      010075C5H   BLOCK     CODE     ---       LVL=0
      00000020H.0 SYMBOL    BIT      BIT       enable
      010075C5H   LINE      CODE     ---       #393
      010075C5H   LINE      CODE     ---       #394
      010075C5H   LINE      CODE     ---       #395
      ---         BLOCKEND  ---      ---       LVL=0

      01007ED1H   BLOCK     CODE     ---       LVL=0
      00000007H   SYMBOL    DATA     BYTE      hour
      01007ED1H   LINE      CODE     ---       #398
      01007ED1H   LINE      CODE     ---       #399
      01007ED1H   LINE      CODE     ---       #400
      ---         BLOCKEND  ---      ---       LVL=0

      01007C4CH   BLOCK     CODE     ---       LVL=0
      01007C4CH   LINE      CODE     ---       #403
      01007C4CH   LINE      CODE     ---       #404
      01007C4CH   LINE      CODE     ---       #405
      ---         BLOCKEND  ---      ---       LVL=0

      01007EE4H   BLOCK     CODE     ---       LVL=0
      00000007H   SYMBOL    DATA     BYTE      min
      01007EE4H   LINE      CODE     ---       #408
      01007EE4H   LINE      CODE     ---       #409
      01007EE4H   LINE      CODE     ---       #410
      ---         BLOCKEND  ---      ---       LVL=0

      01007DCFH   BLOCK     CODE     ---       LVL=0
      01007DCFH   LINE      CODE     ---       #413
      01007DCFH   LINE      CODE     ---       #414
      01007DCFH   LINE      CODE     ---       #415
      01007DE2H   LINE      CODE     ---       #416
      ---         BLOCKEND  ---      ---       LVL=0

      01007C62H   BLOCK     CODE     ---       LVL=0
      00000007H   SYMBOL    DATA     BYTE      day
      01007C62H   LINE      CODE     ---       #418
      01007C62H   LINE      CODE     ---       #419
      01007C62H   LINE      CODE     ---       #420
      01007C69H   LINE      CODE     ---       #421
      01007C6CH   LINE      CODE     ---       #422
      01007C6CH   LINE      CODE     ---       #423
      01007C6EH   LINE      CODE     ---       #424
      01007C75H   LINE      CODE     ---       #425
      01007C77H   LINE      CODE     ---       #426
      01007C77H   LINE      CODE     ---       #427
      ---         BLOCKEND  ---      ---       LVL=0
LX51 LINKER/LOCATER V4.66.87.0                                                        05/09/2018  21:28:12  PAGE 83



      01007D28H   BLOCK     CODE     ---       LVL=0
      01007D28H   LINE      CODE     ---       #429
      01007D28H   LINE      CODE     ---       #430
      01007D28H   LINE      CODE     ---       #431
      01007D3CH   LINE      CODE     ---       #433
      ---         BLOCKEND  ---      ---       LVL=0

      0100790FH   BLOCK     CODE     ---       LVL=0
      00000006H   SYMBOL    DATA     BYTE      date
      0100790FH   LINE      CODE     ---       #435
      01007911H   LINE      CODE     ---       #436
      01007911H   LINE      CODE     ---       #437
      01007928H   LINE      CODE     ---       #439
      ---         BLOCKEND  ---      ---       LVL=0

      01007DE3H   BLOCK     CODE     ---       LVL=0
      01007DE3H   LINE      CODE     ---       #441
      01007DE3H   LINE      CODE     ---       #442
      01007DE3H   LINE      CODE     ---       #443
      01007DEAH   LINE      CODE     ---       #444
      01007DF4H   LINE      CODE     ---       #445
      01007DF4H   LINE      CODE     ---       #446
      01007DF6H   LINE      CODE     ---       #447
      ---         BLOCKEND  ---      ---       LVL=0

      010075E2H   BLOCK     CODE     ---       LVL=0
      00000007H   SYMBOL    DATA     BYTE      sec
      010075E2H   LINE      CODE     ---       #450
      010075E2H   LINE      CODE     ---       #451
      010075E2H   LINE      CODE     ---       #452
      010075E9H   LINE      CODE     ---       #453
      010075EFH   LINE      CODE     ---       #454
      010075F6H   LINE      CODE     ---       #455
      010075FAH   LINE      CODE     ---       #456
      010075FEH   LINE      CODE     ---       #457
      010075FEH   LINE      CODE     ---       #458
      ---         BLOCKEND  ---      ---       LVL=0

      01002EDEH   BLOCK     CODE     ---       LVL=0
      01002EDEH   BLOCK     CODE     NEAR LAB  LVL=1
      00000003H   SYMBOL    DATA     BYTE      dy
      00000007H   SYMBOL    DATA     BYTE      a1m1
      00000004H   SYMBOL    DATA     BYTE      a1m2
      00000005H   SYMBOL    DATA     BYTE      a1m3
      00000006H   SYMBOL    DATA     BYTE      a1m4
      ---         BLOCKEND  ---      ---       LVL=1
      01002EDEH   LINE      CODE     ---       #474
      01002EDEH   LINE      CODE     ---       #475
      01002EDEH   LINE      CODE     ---       #477
      01002EE6H   LINE      CODE     ---       #478
      01002EEBH   LINE      CODE     ---       #479
      01002EEFH   LINE      CODE     ---       #480
      01002EF4H   LINE      CODE     ---       #481
      01002EF9H   LINE      CODE     ---       #482
      01002EFDH   LINE      CODE     ---       #483
      01002F09H   LINE      CODE     ---       #484
      01002F0CH   LINE      CODE     ---       #485
      01002F18H   LINE      CODE     ---       #486
      01002F1BH   LINE      CODE     ---       #487
      01002F27H   LINE      CODE     ---       #488
      01002F2AH   LINE      CODE     ---       #489
      01002F36H   LINE      CODE     ---       #490
      01002F39H   LINE      CODE     ---       #491
      01002F48H   LINE      CODE     ---       #492
LX51 LINKER/LOCATER V4.66.87.0                                                        05/09/2018  21:28:12  PAGE 84


      01002F4BH   LINE      CODE     ---       #493
      01002F4BH   LINE      CODE     ---       #494
      01002F4EH   LINE      CODE     ---       #495
      01002F4EH   LINE      CODE     ---       #496
      01002F56H   LINE      CODE     ---       #497
      01002F5BH   LINE      CODE     ---       #498
      01002F5FH   LINE      CODE     ---       #499
      01002F64H   LINE      CODE     ---       #500
      01002F68H   LINE      CODE     ---       #501
      01002F71H   LINE      CODE     ---       #502
      01002F74H   LINE      CODE     ---       #503
      01002F7DH   LINE      CODE     ---       #504
      01002F80H   LINE      CODE     ---       #505
      01002F89H   LINE      CODE     ---       #506
      01002F8CH   LINE      CODE     ---       #507
      01002F95H   LINE      CODE     ---       #508
      01002F98H   LINE      CODE     ---       #509
      01002FA4H   LINE      CODE     ---       #510
      01002FA7H   LINE      CODE     ---       #511
      01002FA7H   LINE      CODE     ---       #512
      01002FAAH   LINE      CODE     ---       #513
      01002FAAH   LINE      CODE     ---       #514
      01002FAAH   LINE      CODE     ---       #515
      01002FACH   LINE      CODE     ---       #516
      ---         BLOCKEND  ---      ---       LVL=0

      01003E99H   BLOCK     CODE     ---       LVL=0
      00000005H   SYMBOL    DATA     BYTE      mode
      01003E99H   LINE      CODE     ---       #517
      01003E9BH   LINE      CODE     ---       #518
      01003E9BH   LINE      CODE     ---       #519
      01003EA9H   LINE      CODE     ---       #520
      01003EA9H   LINE      CODE     ---       #521
      01003EA9H   LINE      CODE     ---       #522
      01003EACH   LINE      CODE     ---       #523
      01003EB1H   LINE      CODE     ---       #524
      01003EB4H   LINE      CODE     ---       #525
      01003EC6H   LINE      CODE     ---       #526
      01003EC6H   LINE      CODE     ---       #527
      01003ECDH   LINE      CODE     ---       #528
      01003ECDH   LINE      CODE     ---       #529
      01003ED4H   LINE      CODE     ---       #530
      01003ED4H   LINE      CODE     ---       #531
      01003EDBH   LINE      CODE     ---       #532
      01003EDBH   LINE      CODE     ---       #533
      01003EDEH   LINE      CODE     ---       #534
      01003EDEH   LINE      CODE     ---       #535
      01003EE0H   LINE      CODE     ---       #536
      01003EE0H   LINE      CODE     ---       #537
      01003EE3H   LINE      CODE     ---       #538
      01003EE3H   LINE      CODE     ---       #539
      01003EF3H   LINE      CODE     ---       #540
      01003EF3H   LINE      CODE     ---       #541
      01003EF3H   LINE      CODE     ---       #542
      01003EF6H   LINE      CODE     ---       #543
      01003EF9H   LINE      CODE     ---       #544
      01003F09H   LINE      CODE     ---       #545
      01003F09H   LINE      CODE     ---       #546
      01003F10H   LINE      CODE     ---       #547
      01003F10H   LINE      CODE     ---       #548
      01003F17H   LINE      CODE     ---       #549
      01003F17H   LINE      CODE     ---       #550
      01003F1EH   LINE      CODE     ---       #551
      01003F1EH   LINE      CODE     ---       #552
      01003F1FH   LINE      CODE     ---       #553
LX51 LINKER/LOCATER V4.66.87.0                                                        05/09/2018  21:28:12  PAGE 85


      01003F1FH   LINE      CODE     ---       #554
      01003F26H   LINE      CODE     ---       #555
      01003F26H   LINE      CODE     ---       #556
      01003F26H   LINE      CODE     ---       #557
      ---         BLOCKEND  ---      ---       LVL=0

      01003C51H   BLOCK     CODE     ---       LVL=0
      02000014H   SYMBOL    XDATA    ---       integer
      02000017H   SYMBOL    XDATA    ---       flt
      01003C57H   BLOCK     CODE     NEAR LAB  LVL=1
      0200001AH   SYMBOL    XDATA    FLOAT     ret
      00000020H.1 SYMBOL    BIT      BIT       sign
      ---         BLOCKEND  ---      ---       LVL=1
      01003C51H   LINE      CODE     ---       #560
      01003C57H   LINE      CODE     ---       #561
      01003C57H   LINE      CODE     ---       #562
      01003C61H   LINE      CODE     ---       #563
      01003C6DH   LINE      CODE     ---       #566
      01003C70H   LINE      CODE     ---       #567
      01003C76H   LINE      CODE     ---       #568
      01003C77H   LINE      CODE     ---       #569
      01003C7AH   LINE      CODE     ---       #570
      01003C7DH   LINE      CODE     ---       #571
      01003C80H   LINE      CODE     ---       #572
      01003C82H   LINE      CODE     ---       #573
      01003C88H   LINE      CODE     ---       #574
      01003C88H   LINE      CODE     ---       #575
      01003C8AH   LINE      CODE     ---       #576
      01003C8DH   LINE      CODE     ---       #577
      01003C90H   LINE      CODE     ---       #578
      01003C90H   LINE      CODE     ---       #580
      01003C9FH   LINE      CODE     ---       #582
      01003CA9H   LINE      CODE     ---       #583
      01003CB1H   LINE      CODE     ---       #584
      01003CB6H   LINE      CODE     ---       #585
      01003CBEH   LINE      CODE     ---       #586
      01003CC6H   LINE      CODE     ---       #587
      01003CCBH   LINE      CODE     ---       #588
      01003CCDH   LINE      CODE     ---       #589
      01003CD4H   LINE      CODE     ---       #590
      01003CD4H   LINE      CODE     ---       #592
      01003CE4H   LINE      CODE     ---       #594
      01003CE6H   LINE      CODE     ---       #595
      ---         BLOCKEND  ---      ---       LVL=0

      01007118H   BLOCK     CODE     ---       LVL=0
      00000007H   SYMBOL    DATA     BYTE      index
      00000020H.1 SYMBOL    BIT      BIT       enable
      01007118H   LINE      CODE     ---       #598
      01007118H   LINE      CODE     ---       #599
      01007118H   LINE      CODE     ---       #600
      0100711BH   LINE      CODE     ---       #601
      01007122H   LINE      CODE     ---       #602
      01007126H   LINE      CODE     ---       #604
      01007129H   LINE      CODE     ---       #605
      0100712EH   LINE      CODE     ---       #606
      01007135H   LINE      CODE     ---       #607
      01007139H   LINE      CODE     ---       #609
      0100713CH   LINE      CODE     ---       #610
      0100713CH   LINE      CODE     ---       #611
      ---         BLOCKEND  ---      ---       LVL=0

      010075FFH   BLOCK     CODE     ---       LVL=0
      00000007H   SYMBOL    DATA     BYTE      index
      010075FFH   LINE      CODE     ---       #613
LX51 LINKER/LOCATER V4.66.87.0                                                        05/09/2018  21:28:12  PAGE 86


      010075FFH   LINE      CODE     ---       #614
      010075FFH   LINE      CODE     ---       #615
      01007602H   LINE      CODE     ---       #616
      0100760CH   LINE      CODE     ---       #617
      01007610H   LINE      CODE     ---       #618
      0100761AH   LINE      CODE     ---       #619
      0100761AH   LINE      CODE     ---       #620
      0100761BH   LINE      CODE     ---       #621
      ---         BLOCKEND  ---      ---       LVL=0

      01007B51H   BLOCK     CODE     ---       LVL=0
      00000007H   SYMBOL    DATA     BYTE      index
      01007B51H   LINE      CODE     ---       #623
      01007B51H   LINE      CODE     ---       #624
      01007B51H   LINE      CODE     ---       #625
      01007B54H   LINE      CODE     ---       #626
      01007B5BH   LINE      CODE     ---       #627
      01007B60H   LINE      CODE     ---       #628
      01007B67H   LINE      CODE     ---       #629
      01007B67H   LINE      CODE     ---       #630
      ---         BLOCKEND  ---      ---       LVL=0

      0100761CH   BLOCK     CODE     ---       LVL=0
      00000007H   SYMBOL    DATA     BYTE      index
      0100761CH   LINE      CODE     ---       #632
      0100761CH   LINE      CODE     ---       #633
      0100761CH   LINE      CODE     ---       #634
      0100761FH   LINE      CODE     ---       #635
      01007629H   LINE      CODE     ---       #636
      0100762DH   LINE      CODE     ---       #637
      01007637H   LINE      CODE     ---       #638
      01007637H   LINE      CODE     ---       #639
      01007638H   LINE      CODE     ---       #640
      ---         BLOCKEND  ---      ---       LVL=0

      01007929H   BLOCK     CODE     ---       LVL=0
      01007929H   LINE      CODE     ---       #642
      01007929H   LINE      CODE     ---       #643
      01007929H   LINE      CODE     ---       #645
      01007932H   LINE      CODE     ---       #647
      01007937H   LINE      CODE     ---       #648
      0100793EH   LINE      CODE     ---       #649
      ---         BLOCKEND  ---      ---       LVL=0

      01007DF7H   BLOCK     CODE     ---       LVL=0
      01007DF7H   LINE      CODE     ---       #653
      01007DF7H   LINE      CODE     ---       #654
      01007DF7H   LINE      CODE     ---       #655
      01007E00H   LINE      CODE     ---       #657
      01007E05H   LINE      CODE     ---       #658
      01007E05H   LINE      CODE     ---       #659
      ---         BLOCKEND  ---      ---       LVL=0

      ---         MODULE    ---      ---       I2C
      01007B68H   PUBLIC    CODE     ---       _I2C_Get
      0200001DH   PUBLIC    XDATA    BYTE      ?_I2C_Gets?BYTE
      0100496CH   PUBLIC    CODE     ---       _I2C_Gets
      01007E0BH   PUBLIC    CODE     ---       _I2C_Put
      02000019H   PUBLIC    XDATA    BYTE      ?_I2C_Puts?BYTE
      010057C1H   PUBLIC    CODE     ---       _I2C_Puts
      00000020H.2 PUBLIC    BIT      BIT       ?I2C_PutAck?BIT
      01007F2FH   PUBLIC    CODE     ---       I2C_PutAck
      010072A1H   PUBLIC    CODE     ---       I2C_GetAck
      01006AC9H   PUBLIC    CODE     ---       I2C_Read
      010074EFH   PUBLIC    CODE     ---       _I2C_Write
LX51 LINKER/LOCATER V4.66.87.0                                                        05/09/2018  21:28:12  PAGE 87


      01007C78H   PUBLIC    CODE     ---       I2C_Stop
      010082ADH   PUBLIC    CODE     ---       I2C_Start
      0100833CH   PUBLIC    CODE     ---       I2C_Init
      0100800EH   PUBLIC    CODE     ---       I2C_Delay
      00000080H   SFRSYM    DATA     BYTE      P0
      00000090H   SFRSYM    DATA     BYTE      P1
      00000090H.7 SFRSYM    DATA     BIT       I2C_SCL
      000000A0H   SFRSYM    DATA     BYTE      P2
      000000B0H   SFRSYM    DATA     BYTE      P3
      000000C0H   SFRSYM    DATA     BYTE      XICON
      000000B0H.4 SFRSYM    DATA     BIT       T0
      000000D0H.6 SFRSYM    DATA     BIT       AC
      000000E8H   SFRSYM    DATA     BYTE      P4
      000000B0H.5 SFRSYM    DATA     BIT       T1
      000000E6H   SFRSYM    DATA     BYTE      ISP_TRIG
      00000090H.0 SFRSYM    DATA     BIT       T2
      000000A8H.7 SFRSYM    DATA     BIT       EA
      000000A8H.6 SFRSYM    DATA     BIT       EC
      00000098H.7 SFRSYM    DATA     BIT       FE
      000000A8H   SFRSYM    DATA     BYTE      IE
      000000C8H.6 SFRSYM    DATA     BIT       EXF2
      000000B0H.7 SFRSYM    DATA     BIT       RD
      000000A8H.4 SFRSYM    DATA     BIT       ES
      000000B8H   SFRSYM    DATA     BYTE      IP
      00000098H.0 SFRSYM    DATA     BIT       RI
      000000B0H.2 SFRSYM    DATA     BIT       INT0
      000000D0H.7 SFRSYM    DATA     BIT       CY
      00000098H.1 SFRSYM    DATA     BIT       TI
      000000B0H.3 SFRSYM    DATA     BIT       INT1
      000000CBH   SFRSYM    DATA     BYTE      RCAP2H
      000000E5H   SFRSYM    DATA     BYTE      ISP_CMD
      000000B8H.4 SFRSYM    DATA     BIT       PS
      00000081H   SFRSYM    DATA     BYTE      SP
      00000090H.1 SFRSYM    DATA     BIT       T2EX
      000000D0H.2 SFRSYM    DATA     BIT       OV
      000000CAH   SFRSYM    DATA     BYTE      RCAP2L
      000000C8H.1 SFRSYM    DATA     BIT       C_T2
      000000B0H.6 SFRSYM    DATA     BIT       WR
      000000C8H.5 SFRSYM    DATA     BIT       RCLK
      000000C8H.4 SFRSYM    DATA     BIT       TCLK
      00000080H.0 SFRSYM    DATA     BIT       P00
      00000099H   SFRSYM    DATA     BYTE      SBUF
      00000087H   SFRSYM    DATA     BYTE      PCON
      00000090H.0 SFRSYM    DATA     BIT       P10
      00000080H.1 SFRSYM    DATA     BIT       P01
      000000A0H.0 SFRSYM    DATA     BIT       P20
      00000090H.1 SFRSYM    DATA     BIT       P11
      00000080H.2 SFRSYM    DATA     BIT       P02
      000000E3H   SFRSYM    DATA     BYTE      ISP_ADDRH
      000000B0H.0 SFRSYM    DATA     BIT       P30
      000000A0H.1 SFRSYM    DATA     BIT       P21
      00000090H.2 SFRSYM    DATA     BIT       P12
      00000080H.3 SFRSYM    DATA     BIT       P03
      00000098H   SFRSYM    DATA     BYTE      SCON
      000000B0H.1 SFRSYM    DATA     BIT       P31
      000000A0H.2 SFRSYM    DATA     BIT       P22
      00000090H.3 SFRSYM    DATA     BIT       P13
      00000080H.4 SFRSYM    DATA     BIT       P04
      000000E8H.0 SFRSYM    DATA     BIT       P40
      00000089H   SFRSYM    DATA     BYTE      TMOD
      00000088H   SFRSYM    DATA     BYTE      TCON
      000000B0H.2 SFRSYM    DATA     BIT       P32
      000000A0H.3 SFRSYM    DATA     BIT       P23
      00000090H.4 SFRSYM    DATA     BIT       P14
      00000080H.5 SFRSYM    DATA     BIT       P05
LX51 LINKER/LOCATER V4.66.87.0                                                        05/09/2018  21:28:12  PAGE 88


      000000E8H.1 SFRSYM    DATA     BIT       P41
      000000B0H.3 SFRSYM    DATA     BIT       P33
      000000A0H.4 SFRSYM    DATA     BIT       P24
      00000090H.5 SFRSYM    DATA     BIT       P15
      00000080H.6 SFRSYM    DATA     BIT       P06
      000000E4H   SFRSYM    DATA     BYTE      ISP_ADDRL
      000000E8H.2 SFRSYM    DATA     BIT       P42
      000000B0H.4 SFRSYM    DATA     BIT       P34
      000000A0H.5 SFRSYM    DATA     BIT       P25
      00000090H.6 SFRSYM    DATA     BIT       P16
      00000080H.7 SFRSYM    DATA     BIT       P07
      000000E8H.3 SFRSYM    DATA     BIT       P43
      000000B0H.5 SFRSYM    DATA     BIT       P35
      000000A0H.6 SFRSYM    DATA     BIT       P26
      00000090H.7 SFRSYM    DATA     BIT       P17
      000000E8H.4 SFRSYM    DATA     BIT       P44
      000000B0H.6 SFRSYM    DATA     BIT       P36
      000000A0H.7 SFRSYM    DATA     BIT       P27
      000000E8H.5 SFRSYM    DATA     BIT       P45
      000000B0H.7 SFRSYM    DATA     BIT       P37
      000000E8H.6 SFRSYM    DATA     BIT       P46
      00000088H.1 SFRSYM    DATA     BIT       IE0
      00000088H.3 SFRSYM    DATA     BIT       IE1
      0000008EH   SFRSYM    DATA     BYTE      AUXR
      000000F0H   SFRSYM    DATA     BYTE      B
      000000C8H.0 SFRSYM    DATA     BIT       CP_RL2
      000000E0H   SFRSYM    DATA     BYTE      ACC
      000000A8H.1 SFRSYM    DATA     BIT       ET0
      000000A8H.3 SFRSYM    DATA     BIT       ET1
      00000088H.5 SFRSYM    DATA     BIT       TF0
      000000A8H.5 SFRSYM    DATA     BIT       ET2
      00000088H.7 SFRSYM    DATA     BIT       TF1
      000000C8H.7 SFRSYM    DATA     BIT       TF2
      00000098H.2 SFRSYM    DATA     BIT       RB8
      0000008CH   SFRSYM    DATA     BYTE      TH0
      000000A8H.0 SFRSYM    DATA     BIT       EX0
      00000088H.0 SFRSYM    DATA     BIT       IT0
      0000008DH   SFRSYM    DATA     BYTE      TH1
      00000098H.3 SFRSYM    DATA     BIT       TB8
      000000A8H.2 SFRSYM    DATA     BIT       EX1
      00000088H.2 SFRSYM    DATA     BIT       IT1
      000000CDH   SFRSYM    DATA     BYTE      TH2
      000000D0H.0 SFRSYM    DATA     BIT       P
      00000098H.7 SFRSYM    DATA     BIT       SM0
      0000008AH   SFRSYM    DATA     BYTE      TL0
      00000098H.6 SFRSYM    DATA     BIT       SM1
      0000008BH   SFRSYM    DATA     BYTE      TL1
      00000098H.5 SFRSYM    DATA     BIT       SM2
      000000CCH   SFRSYM    DATA     BYTE      TL2
      000000B8H.1 SFRSYM    DATA     BIT       PT0
      000000B8H.3 SFRSYM    DATA     BIT       PT1
      000000D0H.3 SFRSYM    DATA     BIT       RS0
      000000E7H   SFRSYM    DATA     BYTE      ISP_CONTR
      000000B8H.5 SFRSYM    DATA     BIT       PT2
      00000088H.4 SFRSYM    DATA     BIT       TR0
      000000D0H.4 SFRSYM    DATA     BIT       RS1
      00000088H.6 SFRSYM    DATA     BIT       TR1
      000000C8H.2 SFRSYM    DATA     BIT       TR2
      000000B8H.0 SFRSYM    DATA     BIT       PX0
      000000E1H   SFRSYM    DATA     BYTE      WDT_CONTR
      000000B8H.2 SFRSYM    DATA     BIT       PX1
      00000083H   SFRSYM    DATA     BYTE      DPH
      00000082H   SFRSYM    DATA     BYTE      DPL
      000000B7H   SFRSYM    DATA     BYTE      IPH
      000000C8H.3 SFRSYM    DATA     BIT       EXEN2
LX51 LINKER/LOCATER V4.66.87.0                                                        05/09/2018  21:28:12  PAGE 89


      00000098H.4 SFRSYM    DATA     BIT       REN
      000000C9H   SFRSYM    DATA     BYTE      T2MOD
      000000C8H   SFRSYM    DATA     BYTE      T2CON
      000000E2H   SFRSYM    DATA     BYTE      ISP_DATA
      000000B9H   SFRSYM    DATA     BYTE      SADEN
      000000B0H.0 SFRSYM    DATA     BIT       RXD
      000000A9H   SFRSYM    DATA     BYTE      SADDR
      000000B0H.1 SFRSYM    DATA     BIT       TXD
      000000A2H   SFRSYM    DATA     BYTE      AUXR1
      000000D0H.5 SFRSYM    DATA     BIT       F0
      00000090H.6 SFRSYM    DATA     BIT       I2C_SDA
      000000D0H   SFRSYM    DATA     BYTE      PSW

      01008346H   BLOCK     CODE     ---       LVL=0
      ---         BLOCKEND  ---      ---       LVL=0

      01008006H   BLOCK     CODE     ---       LVL=0
      ---         BLOCKEND  ---      ---       LVL=0

      0100800EH   BLOCK     CODE     ---       LVL=0
      00000007H   SYMBOL    DATA     BYTE      c
      0100800EH   BLOCK     CODE     NEAR LAB  LVL=1
      00000007H   SYMBOL    DATA     BYTE      c
      ---         BLOCKEND  ---      ---       LVL=1
      0100800EH   LINE      CODE     ---       #5
      0100800EH   LINE      CODE     ---       #6
      0100800EH   LINE      CODE     ---       #8
      01008010H   LINE      CODE     ---       #9
      01008016H   LINE      CODE     ---       #10
      ---         BLOCKEND  ---      ---       LVL=0

      0100833CH   BLOCK     CODE     ---       LVL=0
      0100833CH   LINE      CODE     ---       #15
      0100833CH   LINE      CODE     ---       #16
      0100833CH   LINE      CODE     ---       #17
      0100833EH   LINE      CODE     ---       #18
      01008341H   LINE      CODE     ---       #19
      01008343H   LINE      CODE     ---       #20
      ---         BLOCKEND  ---      ---       LVL=0

      010082ADH   BLOCK     CODE     ---       LVL=0
      010082ADH   LINE      CODE     ---       #24
      010082ADH   LINE      CODE     ---       #25
      010082ADH   LINE      CODE     ---       #28
      010082ADH   LINE      CODE     ---       #29
      010082ADH   LINE      CODE     ---       #30
      010082ADH   LINE      CODE     ---       #31
      010082B0H   LINE      CODE     ---       #32
      010082B2H   LINE      CODE     ---       #33
      010082B2H   LINE      CODE     ---       #34
      010082B2H   LINE      CODE     ---       #35
      010082B2H   LINE      CODE     ---       #36
      010082B5H   LINE      CODE     ---       #37
      ---         BLOCKEND  ---      ---       LVL=0

      01007C78H   BLOCK     CODE     ---       LVL=0
      01007C78H   BLOCK     CODE     NEAR LAB  LVL=1
      00000004H   SYMBOL    DATA     WORD      t
      ---         BLOCKEND  ---      ---       LVL=1
      01007C78H   LINE      CODE     ---       #40
      01007C78H   LINE      CODE     ---       #41
      01007C78H   LINE      CODE     ---       #42
      01007C7CH   LINE      CODE     ---       #44
      01007C7EH   LINE      CODE     ---       #45
      01007C81H   LINE      CODE     ---       #47
LX51 LINKER/LOCATER V4.66.87.0                                                        05/09/2018  21:28:12  PAGE 90


      01007C81H   LINE      CODE     ---       #48
      01007C81H   LINE      CODE     ---       #49
      01007C81H   LINE      CODE     ---       #50
      01007C84H   LINE      CODE     ---       #54
      01007C8DH   LINE      CODE     ---       #55
      ---         BLOCKEND  ---      ---       LVL=0

      010074EFH   BLOCK     CODE     ---       LVL=0
      00000006H   SYMBOL    DATA     BYTE      dat
      010074F1H   BLOCK     CODE     NEAR LAB  LVL=1
      00000005H   SYMBOL    DATA     BYTE      t
      ---         BLOCKEND  ---      ---       LVL=1
      010074EFH   LINE      CODE     ---       #59
      010074F1H   LINE      CODE     ---       #60
      010074F1H   LINE      CODE     ---       #63
      010074F3H   LINE      CODE     ---       #64
      010074F3H   LINE      CODE     ---       #66
      010074F7H   LINE      CODE     ---       #67
      010074FAH   LINE      CODE     ---       #68
      010074FCH   LINE      CODE     ---       #69
      010074FFH   LINE      CODE     ---       #70
      01007501H   LINE      CODE     ---       #71
      01007504H   LINE      CODE     ---       #72
      01007508H   LINE      CODE     ---       #73
      0100750DH   LINE      CODE     ---       #76
      ---         BLOCKEND  ---      ---       LVL=0

      01006AC9H   BLOCK     CODE     ---       LVL=0
      01006AC9H   BLOCK     CODE     NEAR LAB  LVL=1
      00000006H   SYMBOL    DATA     BYTE      dat
      00000005H   SYMBOL    DATA     BYTE      t
      00000020H.2 SYMBOL    BIT      BIT       temp
      ---         BLOCKEND  ---      ---       LVL=1
      01006AC9H   LINE      CODE     ---       #78
      01006AC9H   LINE      CODE     ---       #79
      01006AC9H   LINE      CODE     ---       #80
      01006ACBH   LINE      CODE     ---       #83
      01006ACEH   LINE      CODE     ---       #84
      01006ACEH   LINE      CODE     ---       #85
      01006ACEH   LINE      CODE     ---       #87
      01006AD1H   LINE      CODE     ---       #89
      01006AD3H   LINE      CODE     ---       #90
      01006AD3H   LINE      CODE     ---       #91
      01006AD5H   LINE      CODE     ---       #92
      01006AD8H   LINE      CODE     ---       #93
      01006ADAH   LINE      CODE     ---       #94
      01006ADDH   LINE      CODE     ---       #95
      01006AE1H   LINE      CODE     ---       #96
      01006AE5H   LINE      CODE     ---       #97
      01006AEBH   LINE      CODE     ---       #98
      01006AF0H   LINE      CODE     ---       #100
      01006AF2H   LINE      CODE     ---       #101
      01006AF5H   LINE      CODE     ---       #103
      01006AF7H   LINE      CODE     ---       #104
      ---         BLOCKEND  ---      ---       LVL=0

      010072A1H   BLOCK     CODE     ---       LVL=0
      010072A1H   BLOCK     CODE     NEAR LAB  LVL=1
      00000020H.2 SYMBOL    BIT      BIT       ack
      00000006H   SYMBOL    DATA     BYTE      Error_time
      ---         BLOCKEND  ---      ---       LVL=1
      010072A1H   LINE      CODE     ---       #108
      010072A1H   LINE      CODE     ---       #109
      010072A1H   LINE      CODE     ---       #111
      010072A3H   LINE      CODE     ---       #113
LX51 LINKER/LOCATER V4.66.87.0                                                        05/09/2018  21:28:12  PAGE 91


      010072A3H   LINE      CODE     ---       #114
      010072A3H   LINE      CODE     ---       #115
      010072A6H   LINE      CODE     ---       #116
      010072A8H   LINE      CODE     ---       #117
      010072ABH   LINE      CODE     ---       #119
      010072ABH   LINE      CODE     ---       #120
      010072AFH   LINE      CODE     ---       #121
      010072B1H   LINE      CODE     ---       #122
      010072B1H   LINE      CODE     ---       #123
      010072B1H   LINE      CODE     ---       #124
      010072B3H   LINE      CODE     ---       #125
      010072B6H   LINE      CODE     ---       #126
      010072B8H   LINE      CODE     ---       #127
      010072B8H   LINE      CODE     ---       #128
      010072BBH   LINE      CODE     ---       #131
      010072BBH   LINE      CODE     ---       #132
      010072BBH   LINE      CODE     ---       #133
      010072BEH   LINE      CODE     ---       #134
      010072C1H   LINE      CODE     ---       #135
      010072C2H   LINE      CODE     ---       #136
      ---         BLOCKEND  ---      ---       LVL=0

      01007F2FH   BLOCK     CODE     ---       LVL=0
      00000020H.2 SYMBOL    BIT      BIT       ack
      01007F2FH   LINE      CODE     ---       #138
      01007F2FH   LINE      CODE     ---       #139
      01007F2FH   LINE      CODE     ---       #141
      01007F33H   LINE      CODE     ---       #142
      01007F36H   LINE      CODE     ---       #143
      01007F38H   LINE      CODE     ---       #144
      01007F38H   LINE      CODE     ---       #146
      01007F38H   LINE      CODE     ---       #147
      01007F38H   LINE      CODE     ---       #148
      01007F3BH   LINE      CODE     ---       #149
      01007F3EH   LINE      CODE     ---       #150
      ---         BLOCKEND  ---      ---       LVL=0

      010057C1H   BLOCK     CODE     ---       LVL=0
      00000006H   SYMBOL    DATA     BYTE      SlaveAddr
      00000004H   SYMBOL    DATA     BYTE      SubAddr
      0200001BH   SYMBOL    XDATA    BYTE      Size
      0200001CH   SYMBOL    XDATA    ---       dat
      010057C1H   LINE      CODE     ---       #219
      010057CAH   LINE      CODE     ---       #220
      010057CAH   LINE      CODE     ---       #222
      010057CEH   LINE      CODE     ---       #224
      010057D2H   LINE      CODE     ---       #226
      010057D5H   LINE      CODE     ---       #228
      010057D7H   LINE      CODE     ---       #229
      010057DCH   LINE      CODE     ---       #230
      010057DCH   LINE      CODE     ---       #231
      010057DCH   LINE      CODE     ---       #232
      010057DEH   LINE      CODE     ---       #233
      010057DEH   LINE      CODE     ---       #235
      010057E0H   LINE      CODE     ---       #236
      010057E5H   LINE      CODE     ---       #237
      010057E5H   LINE      CODE     ---       #238
      010057E5H   LINE      CODE     ---       #239
      010057E7H   LINE      CODE     ---       #240
      010057E7H   LINE      CODE     ---       #243
      010057E7H   LINE      CODE     ---       #244
      010057F8H   LINE      CODE     ---       #245
      010057FDH   LINE      CODE     ---       #246
      010057FDH   LINE      CODE     ---       #247
      01005800H   LINE      CODE     ---       #248
LX51 LINKER/LOCATER V4.66.87.0                                                        05/09/2018  21:28:12  PAGE 92


      01005802H   LINE      CODE     ---       #249
      01005802H   LINE      CODE     ---       #250
      0100580AH   LINE      CODE     ---       #252
      0100580DH   LINE      CODE     ---       #253
      0100580EH   LINE      CODE     ---       #254
      ---         BLOCKEND  ---      ---       LVL=0

      01007E0BH   BLOCK     CODE     ---       LVL=0
      00000007H   SYMBOL    DATA     BYTE      SlaveAddr
      00000005H   SYMBOL    DATA     BYTE      SubAddr
      02000018H   SYMBOL    XDATA    CHAR      dat
      01007E0BH   LINE      CODE     ---       #256
      01007E10H   LINE      CODE     ---       #257
      01007E10H   LINE      CODE     ---       #258
      ---         BLOCKEND  ---      ---       LVL=0

      0100496CH   BLOCK     CODE     ---       LVL=0
      00000004H   SYMBOL    DATA     BYTE      SlaveAddr
      00000001H   SYMBOL    DATA     BYTE      SubAddr
      0200001FH   SYMBOL    XDATA    BYTE      Size
      02000020H   SYMBOL    XDATA    ---       dat
      0100496CH   LINE      CODE     ---       #262
      01004975H   LINE      CODE     ---       #263
      01004975H   LINE      CODE     ---       #264
      01004979H   LINE      CODE     ---       #266
      0100497DH   LINE      CODE     ---       #268
      01004980H   LINE      CODE     ---       #270
      01004982H   LINE      CODE     ---       #271
      01004987H   LINE      CODE     ---       #272
      01004987H   LINE      CODE     ---       #273
      01004987H   LINE      CODE     ---       #274
      01004989H   LINE      CODE     ---       #275
      01004989H   LINE      CODE     ---       #277
      0100498BH   LINE      CODE     ---       #278
      01004990H   LINE      CODE     ---       #279
      01004990H   LINE      CODE     ---       #280
      01004990H   LINE      CODE     ---       #281
      01004992H   LINE      CODE     ---       #282
      01004992H   LINE      CODE     ---       #284
      01004995H   LINE      CODE     ---       #286
      01004999H   LINE      CODE     ---       #287
      0100499DH   LINE      CODE     ---       #288
      010049A2H   LINE      CODE     ---       #289
      010049A2H   LINE      CODE     ---       #290
      010049A5H   LINE      CODE     ---       #291
      010049A7H   LINE      CODE     ---       #292
      010049A7H   LINE      CODE     ---       #294
      010049A7H   LINE      CODE     ---       #295
      010049A7H   LINE      CODE     ---       #296
      010049B8H   LINE      CODE     ---       #297
      010049C0H   LINE      CODE     ---       #298
      010049C0H   LINE      CODE     ---       #299
      010049C5H   LINE      CODE     ---       #300
      010049C7H   LINE      CODE     ---       #301
      010049C7H   LINE      CODE     ---       #302
      010049CCH   LINE      CODE     ---       #303
      010049CEH   LINE      CODE     ---       #305
      010049D1H   LINE      CODE     ---       #306
      010049D2H   LINE      CODE     ---       #307
      ---         BLOCKEND  ---      ---       LVL=0

      01007B68H   BLOCK     CODE     ---       LVL=0
      00000007H   SYMBOL    DATA     BYTE      SlaveAddr
      00000005H   SYMBOL    DATA     BYTE      SubAddr
      0200001AH   SYMBOL    XDATA    ---       dat
LX51 LINKER/LOCATER V4.66.87.0                                                        05/09/2018  21:28:12  PAGE 93


      01007B68H   LINE      CODE     ---       #309
      01007B6EH   LINE      CODE     ---       #310
      01007B6EH   LINE      CODE     ---       #311
      ---         BLOCKEND  ---      ---       LVL=0

      ---         MODULE    ---      ---       KEY
      010083BCH   PUBLIC    CODE     ---       key_leave_powersave
      010083B3H   PUBLIC    CODE     ---       key_enter_powersave
      010079F8H   PUBLIC    CODE     ---       key_initialize
      01006637H   PUBLIC    CODE     ---       _mod_set_proc
      01005AF9H   PUBLIC    CODE     ---       _set_proc
      01005AA9H   PUBLIC    CODE     ---       _mod_proc
      0100276FH   PUBLIC    CODE     ---       _scan_key_proc
      00000080H   SFRSYM    DATA     BYTE      P0
      00000090H   SFRSYM    DATA     BYTE      P1
      000000A0H   SFRSYM    DATA     BYTE      P2
      000000B0H   SFRSYM    DATA     BYTE      P3
      000000C0H   SFRSYM    DATA     BYTE      XICON
      000000B0H.4 SFRSYM    DATA     BIT       T0
      000000D0H.6 SFRSYM    DATA     BIT       AC
      000000E8H   SFRSYM    DATA     BYTE      P4
      000000B0H.5 SFRSYM    DATA     BIT       T1
      000000E6H   SFRSYM    DATA     BYTE      ISP_TRIG
      00000090H.0 SFRSYM    DATA     BIT       T2
      000000A8H.7 SFRSYM    DATA     BIT       EA
      000000A8H.6 SFRSYM    DATA     BIT       EC
      00000098H.7 SFRSYM    DATA     BIT       FE
      000000A8H   SFRSYM    DATA     BYTE      IE
      000000C8H.6 SFRSYM    DATA     BIT       EXF2
      000000B0H.7 SFRSYM    DATA     BIT       RD
      000000A8H.4 SFRSYM    DATA     BIT       ES
      000000B8H   SFRSYM    DATA     BYTE      IP
      00000098H.0 SFRSYM    DATA     BIT       RI
      000000B0H.2 SFRSYM    DATA     BIT       INT0
      000000D0H.7 SFRSYM    DATA     BIT       CY
      00000098H.1 SFRSYM    DATA     BIT       TI
      000000B0H.3 SFRSYM    DATA     BIT       INT1
      000000CBH   SFRSYM    DATA     BYTE      RCAP2H
      000000E5H   SFRSYM    DATA     BYTE      ISP_CMD
      000000B8H.4 SFRSYM    DATA     BIT       PS
      00000081H   SFRSYM    DATA     BYTE      SP
      00000090H.1 SFRSYM    DATA     BIT       T2EX
      000000D0H.2 SFRSYM    DATA     BIT       OV
      000000CAH   SFRSYM    DATA     BYTE      RCAP2L
      000000C8H.1 SFRSYM    DATA     BIT       C_T2
      000000B0H.6 SFRSYM    DATA     BIT       WR
      000000A0H.6 SFRSYM    DATA     BIT       MOD_KEY
      000000C8H.5 SFRSYM    DATA     BIT       RCLK
      000000C8H.4 SFRSYM    DATA     BIT       TCLK
      00000080H.0 SFRSYM    DATA     BIT       P00
      00000099H   SFRSYM    DATA     BYTE      SBUF
      00000087H   SFRSYM    DATA     BYTE      PCON
      00000090H.0 SFRSYM    DATA     BIT       P10
      00000080H.1 SFRSYM    DATA     BIT       P01
      000000A0H.0 SFRSYM    DATA     BIT       P20
      00000090H.1 SFRSYM    DATA     BIT       P11
      00000080H.2 SFRSYM    DATA     BIT       P02
      000000E3H   SFRSYM    DATA     BYTE      ISP_ADDRH
      000000B0H.0 SFRSYM    DATA     BIT       P30
      000000A0H.1 SFRSYM    DATA     BIT       P21
      00000090H.2 SFRSYM    DATA     BIT       P12
      00000080H.3 SFRSYM    DATA     BIT       P03
      00000098H   SFRSYM    DATA     BYTE      SCON
      000000B0H.1 SFRSYM    DATA     BIT       P31
      000000A0H.2 SFRSYM    DATA     BIT       P22
LX51 LINKER/LOCATER V4.66.87.0                                                        05/09/2018  21:28:12  PAGE 94


      00000090H.3 SFRSYM    DATA     BIT       P13
      00000080H.4 SFRSYM    DATA     BIT       P04
      000000E8H.0 SFRSYM    DATA     BIT       P40
      00000089H   SFRSYM    DATA     BYTE      TMOD
      00000088H   SFRSYM    DATA     BYTE      TCON
      000000B0H.2 SFRSYM    DATA     BIT       P32
      000000A0H.3 SFRSYM    DATA     BIT       P23
      00000090H.4 SFRSYM    DATA     BIT       P14
      00000080H.5 SFRSYM    DATA     BIT       P05
      000000E8H.1 SFRSYM    DATA     BIT       P41
      000000B0H.3 SFRSYM    DATA     BIT       P33
      000000A0H.4 SFRSYM    DATA     BIT       P24
      00000090H.5 SFRSYM    DATA     BIT       P15
      00000080H.6 SFRSYM    DATA     BIT       P06
      000000E4H   SFRSYM    DATA     BYTE      ISP_ADDRL
      000000E8H.2 SFRSYM    DATA     BIT       P42
      000000A0H.7 SFRSYM    DATA     BIT       SET_KEY
      000000B0H.4 SFRSYM    DATA     BIT       P34
      000000A0H.5 SFRSYM    DATA     BIT       P25
      00000090H.6 SFRSYM    DATA     BIT       P16
      00000080H.7 SFRSYM    DATA     BIT       P07
      000000E8H.3 SFRSYM    DATA     BIT       P43
      000000B0H.5 SFRSYM    DATA     BIT       P35
      000000A0H.6 SFRSYM    DATA     BIT       P26
      00000090H.7 SFRSYM    DATA     BIT       P17
      000000E8H.4 SFRSYM    DATA     BIT       P44
      000000B0H.6 SFRSYM    DATA     BIT       P36
      000000A0H.7 SFRSYM    DATA     BIT       P27
      000000E8H.5 SFRSYM    DATA     BIT       P45
      000000B0H.7 SFRSYM    DATA     BIT       P37
      000000E8H.6 SFRSYM    DATA     BIT       P46
      00000088H.1 SFRSYM    DATA     BIT       IE0
      00000088H.3 SFRSYM    DATA     BIT       IE1
      0000008EH   SFRSYM    DATA     BYTE      AUXR
      000000F0H   SFRSYM    DATA     BYTE      B
      000000C8H.0 SFRSYM    DATA     BIT       CP_RL2
      000000E0H   SFRSYM    DATA     BYTE      ACC
      000000A8H.1 SFRSYM    DATA     BIT       ET0
      000000A8H.3 SFRSYM    DATA     BIT       ET1
      00000088H.5 SFRSYM    DATA     BIT       TF0
      000000A8H.5 SFRSYM    DATA     BIT       ET2
      00000088H.7 SFRSYM    DATA     BIT       TF1
      000000C8H.7 SFRSYM    DATA     BIT       TF2
      00000098H.2 SFRSYM    DATA     BIT       RB8
      0000008CH   SFRSYM    DATA     BYTE      TH0
      000000A8H.0 SFRSYM    DATA     BIT       EX0
      00000088H.0 SFRSYM    DATA     BIT       IT0
      0000008DH   SFRSYM    DATA     BYTE      TH1
      00000098H.3 SFRSYM    DATA     BIT       TB8
      000000A8H.2 SFRSYM    DATA     BIT       EX1
      00000088H.2 SFRSYM    DATA     BIT       IT1
      000000CDH   SFRSYM    DATA     BYTE      TH2
      000000D0H.0 SFRSYM    DATA     BIT       P
      00000098H.7 SFRSYM    DATA     BIT       SM0
      0000008AH   SFRSYM    DATA     BYTE      TL0
      00000098H.6 SFRSYM    DATA     BIT       SM1
      0000008BH   SFRSYM    DATA     BYTE      TL1
      00000098H.5 SFRSYM    DATA     BIT       SM2
      000000CCH   SFRSYM    DATA     BYTE      TL2
      000000B8H.1 SFRSYM    DATA     BIT       PT0
      000000B8H.3 SFRSYM    DATA     BIT       PT1
      000000D0H.3 SFRSYM    DATA     BIT       RS0
      000000E7H   SFRSYM    DATA     BYTE      ISP_CONTR
      000000B8H.5 SFRSYM    DATA     BIT       PT2
      00000088H.4 SFRSYM    DATA     BIT       TR0
LX51 LINKER/LOCATER V4.66.87.0                                                        05/09/2018  21:28:12  PAGE 95


      000000D0H.4 SFRSYM    DATA     BIT       RS1
      00000088H.6 SFRSYM    DATA     BIT       TR1
      000000C8H.2 SFRSYM    DATA     BIT       TR2
      000000B8H.0 SFRSYM    DATA     BIT       PX0
      000000E1H   SFRSYM    DATA     BYTE      WDT_CONTR
      000000B8H.2 SFRSYM    DATA     BIT       PX1
      00000083H   SFRSYM    DATA     BYTE      DPH
      00000082H   SFRSYM    DATA     BYTE      DPL
      000000B7H   SFRSYM    DATA     BYTE      IPH
      000000C8H.3 SFRSYM    DATA     BIT       EXEN2
      00000098H.4 SFRSYM    DATA     BIT       REN
      000000C9H   SFRSYM    DATA     BYTE      T2MOD
      000000C8H   SFRSYM    DATA     BYTE      T2CON
      000000E2H   SFRSYM    DATA     BYTE      ISP_DATA
      000000B9H   SFRSYM    DATA     BYTE      SADEN
      000000B0H.0 SFRSYM    DATA     BIT       RXD
      000000A9H   SFRSYM    DATA     BYTE      SADDR
      000000B0H.1 SFRSYM    DATA     BIT       TXD
      000000A2H   SFRSYM    DATA     BYTE      AUXR1
      000000D0H.5 SFRSYM    DATA     BIT       F0
      000000D0H   SFRSYM    DATA     BYTE      PSW
      020000C8H   SYMBOL    XDATA    BYTE      last_mod_tmr_count
      020000C9H   SYMBOL    XDATA    BYTE      last_set_tmr_count
      01006914H   SYMBOL    CODE     ---       int0_ISR
      00000023H.4 SYMBOL    BIT      BIT       mod_press
      00000023H.5 SYMBOL    BIT      BIT       set_press

      01008017H   BLOCK     CODE     ---       LVL=0
      ---         BLOCKEND  ---      ---       LVL=0

      01006914H   BLOCK     CODE     ---       LVL=0
      01006914H   LINE      CODE     ---       #26
      01006926H   LINE      CODE     ---       #28
      01006928H   LINE      CODE     ---       #29
      0100692DH   LINE      CODE     ---       #30
      01006930H   LINE      CODE     ---       #31
      01006933H   LINE      CODE     ---       #32
      01006933H   LINE      CODE     ---       #33
      01006936H   LINE      CODE     ---       #35
      ---         BLOCKEND  ---      ---       LVL=0

      0100276FH   BLOCK     CODE     ---       LVL=0
      02000000H   SYMBOL    XDATA    BYTE      ev
      0100276FH   LINE      CODE     ---       #37
      0100276FH   LINE      CODE     ---       #38
      0100276FH   LINE      CODE     ---       #39
      0100276FH   LINE      CODE     ---       #40
      01002775H   LINE      CODE     ---       #41
      0100277AH   LINE      CODE     ---       #42
      0100277DH   LINE      CODE     ---       #43
      01002783H   LINE      CODE     ---       #44
      01002785H   LINE      CODE     ---       #45
      0100278DH   LINE      CODE     ---       #46
      0100278DH   LINE      CODE     ---       #47
      01002795H   LINE      CODE     ---       #48
      0100279CH   LINE      CODE     ---       #49
      010027A4H   LINE      CODE     ---       #50
      010027A4H   LINE      CODE     ---       #51
      010027AAH   LINE      CODE     ---       #52
      010027B0H   LINE      CODE     ---       #53
      010027B2H   LINE      CODE     ---       #54
      010027B9H   LINE      CODE     ---       #55
      010027BFH   LINE      CODE     ---       #56
      010027C2H   LINE      CODE     ---       #57
      010027CAH   LINE      CODE     ---       #58
LX51 LINKER/LOCATER V4.66.87.0                                                        05/09/2018  21:28:12  PAGE 96


      010027CAH   LINE      CODE     ---       #59
      010027CAH   LINE      CODE     ---       #60
      010027CAH   LINE      CODE     ---       #62
      010027D0H   LINE      CODE     ---       #63
      010027D5H   LINE      CODE     ---       #64
      010027D8H   LINE      CODE     ---       #65
      010027DEH   LINE      CODE     ---       #66
      010027E0H   LINE      CODE     ---       #67
      010027E8H   LINE      CODE     ---       #68
      010027E8H   LINE      CODE     ---       #69
      010027F0H   LINE      CODE     ---       #70
      010027F7H   LINE      CODE     ---       #71
      01002802H   LINE      CODE     ---       #72
      01002802H   LINE      CODE     ---       #73
      01002808H   LINE      CODE     ---       #74
      01002811H   LINE      CODE     ---       #75
      01002818H   LINE      CODE     ---       #76
      0100281BH   LINE      CODE     ---       #77
      0100281EH   LINE      CODE     ---       #78
      01002826H   LINE      CODE     ---       #79
      01002826H   LINE      CODE     ---       #80
      01002826H   LINE      CODE     ---       #81
      01002828H   LINE      CODE     ---       #82
      01002828H   LINE      CODE     ---       #84
      01002834H   LINE      CODE     ---       #85
      01002834H   LINE      CODE     ---       #87
      01002851H   LINE      CODE     ---       #88
      0100285AH   LINE      CODE     ---       #89
      0100285AH   LINE      CODE     ---       #90
      0100285AH   LINE      CODE     ---       #91
      ---         BLOCKEND  ---      ---       LVL=0

      01005AA9H   BLOCK     CODE     ---       LVL=0
      0200000CH   SYMBOL    XDATA    BYTE      ev
      01005AA9H   LINE      CODE     ---       #93
      01005AAEH   LINE      CODE     ---       #94
      01005AAEH   LINE      CODE     ---       #95
      01005AB8H   LINE      CODE     ---       #97
      01005ACAH   LINE      CODE     ---       #98
      01005ACAH   LINE      CODE     ---       #99
      01005AD3H   LINE      CODE     ---       #100
      01005AD6H   LINE      CODE     ---       #101
      01005AD8H   LINE      CODE     ---       #102
      01005AD8H   LINE      CODE     ---       #103
      01005ADEH   LINE      CODE     ---       #104
      01005AE0H   LINE      CODE     ---       #105
      01005AE0H   LINE      CODE     ---       #106
      01005AE6H   LINE      CODE     ---       #107
      01005AE8H   LINE      CODE     ---       #108
      01005AE8H   LINE      CODE     ---       #109
      01005AF1H   LINE      CODE     ---       #110
      01005AF1H   LINE      CODE     ---       #111
      01005AF1H   LINE      CODE     ---       #113
      ---         BLOCKEND  ---      ---       LVL=0

      01005AF9H   BLOCK     CODE     ---       LVL=0
      0200000CH   SYMBOL    XDATA    BYTE      ev
      01005AF9H   LINE      CODE     ---       #117
      01005AFEH   LINE      CODE     ---       #118
      01005AFEH   LINE      CODE     ---       #119
      01005B08H   LINE      CODE     ---       #121
      01005B1AH   LINE      CODE     ---       #122
      01005B1AH   LINE      CODE     ---       #123
      01005B23H   LINE      CODE     ---       #124
      01005B26H   LINE      CODE     ---       #125
LX51 LINKER/LOCATER V4.66.87.0                                                        05/09/2018  21:28:12  PAGE 97


      01005B28H   LINE      CODE     ---       #126
      01005B28H   LINE      CODE     ---       #127
      01005B2EH   LINE      CODE     ---       #128
      01005B30H   LINE      CODE     ---       #129
      01005B30H   LINE      CODE     ---       #130
      01005B36H   LINE      CODE     ---       #131
      01005B38H   LINE      CODE     ---       #132
      01005B38H   LINE      CODE     ---       #133
      01005B41H   LINE      CODE     ---       #134
      01005B41H   LINE      CODE     ---       #135
      01005B41H   LINE      CODE     ---       #137
      ---         BLOCKEND  ---      ---       LVL=0

      01006637H   BLOCK     CODE     ---       LVL=0
      0200000CH   SYMBOL    XDATA    BYTE      ev
      01006637H   LINE      CODE     ---       #140
      0100663CH   LINE      CODE     ---       #141
      0100663CH   LINE      CODE     ---       #142
      01006649H   LINE      CODE     ---       #144
      01006654H   LINE      CODE     ---       #145
      01006654H   LINE      CODE     ---       #146
      0100665AH   LINE      CODE     ---       #147
      0100665CH   LINE      CODE     ---       #148
      0100665CH   LINE      CODE     ---       #149
      01006665H   LINE      CODE     ---       #150
      01006665H   LINE      CODE     ---       #151
      01006665H   LINE      CODE     ---       #153
      ---         BLOCKEND  ---      ---       LVL=0

      010079F8H   BLOCK     CODE     ---       LVL=0
      010079F8H   LINE      CODE     ---       #156
      010079F8H   LINE      CODE     ---       #157
      010079F8H   LINE      CODE     ---       #158
      01007A01H   LINE      CODE     ---       #160
      01007A06H   LINE      CODE     ---       #161
      01007A08H   LINE      CODE     ---       #163
      01007A0AH   LINE      CODE     ---       #164
      01007A0CH   LINE      CODE     ---       #166
      01007A0EH   LINE      CODE     ---       #167
      01007A10H   LINE      CODE     ---       #168
      ---         BLOCKEND  ---      ---       LVL=0

      010083B3H   BLOCK     CODE     ---       LVL=0
      010083B3H   LINE      CODE     ---       #170
      010083B3H   LINE      CODE     ---       #171
      010083B3H   LINE      CODE     ---       #172
      ---         BLOCKEND  ---      ---       LVL=0

      010083BCH   BLOCK     CODE     ---       LVL=0
      010083BCH   LINE      CODE     ---       #175
      010083BCH   LINE      CODE     ---       #176
      010083BCH   LINE      CODE     ---       #177
      ---         BLOCKEND  ---      ---       LVL=0

      ---         MODULE    ---      ---       TASK
      0000005CH   PUBLIC    IDATA    WORD      ev_bits1
      0000005AH   PUBLIC    IDATA    WORD      ev_bits0
      0100A709H   PUBLIC    CONST    ---       task_name
      010044CFH   PUBLIC    CODE     ---       task_dump
      01003891H   PUBLIC    CODE     ---       run_task
      01007E1FH   PUBLIC    CODE     ---       task_initialize
      0100A75DH   SYMBOL    CONST    ---       task_procs

      010080ECH   BLOCK     CODE     ---       LVL=0
      ---         BLOCKEND  ---      ---       LVL=0
LX51 LINKER/LOCATER V4.66.87.0                                                        05/09/2018  21:28:12  PAGE 98



      01007E1FH   BLOCK     CODE     ---       LVL=0
      01007E1FH   LINE      CODE     ---       #143
      01007E1FH   LINE      CODE     ---       #144
      01007E1FH   LINE      CODE     ---       #145
      01007E28H   LINE      CODE     ---       #146
      01007E2EH   LINE      CODE     ---       #147
      01007E32H   LINE      CODE     ---       #148
      ---         BLOCKEND  ---      ---       LVL=0

      01003891H   BLOCK     CODE     ---       LVL=0
      01003891H   BLOCK     CODE     NEAR LAB  LVL=1
      02000000H   SYMBOL    XDATA    BYTE      c
      ---         BLOCKEND  ---      ---       LVL=1
      01003891H   LINE      CODE     ---       #150
      01003891H   LINE      CODE     ---       #151
      01003891H   LINE      CODE     ---       #154
      0100389AH   LINE      CODE     ---       #155
      010038A8H   LINE      CODE     ---       #156
      010038DAH   LINE      CODE     ---       #157
      01003910H   LINE      CODE     ---       #158
      0100392EH   LINE      CODE     ---       #159
      0100392EH   LINE      CODE     ---       #160
      01003937H   LINE      CODE     ---       #161
      01003937H   LINE      CODE     ---       #163
      ---         BLOCKEND  ---      ---       LVL=0

      010044CFH   BLOCK     CODE     ---       LVL=0
      010044CFH   BLOCK     CODE     NEAR LAB  LVL=1
      0200000BH   SYMBOL    XDATA    BYTE      i
      ---         BLOCKEND  ---      ---       LVL=1
      010044CFH   LINE      CODE     ---       #165
      010044CFH   LINE      CODE     ---       #166
      010044CFH   LINE      CODE     ---       #168
      010044DEH   LINE      CODE     ---       #169
      01004540H   LINE      CODE     ---       #170
      01004548H   LINE      CODE     ---       #171
      ---         BLOCKEND  ---      ---       LVL=0

      ---         MODULE    ---      ---       LED
      00000024H.3 PUBLIC    BIT      BIT       led_powersave
      00000044H   PUBLIC    IDATA    ---       led_data
      00000042H   PUBLIC    IDATA    BYTE      led_blink
      020000A7H   PUBLIC    XDATA    ---       saved_led_data
      020000A5H   PUBLIC    XDATA    BYTE      saved_led_blink
      0100C582H   PUBLIC    CONST    ---       led_code
      0100705BH   PUBLIC    CODE     ---       led_restore
      01007035H   PUBLIC    CODE     ---       led_save
      01007D3DH   PUBLIC    CODE     ---       led_leave_powersave
      01008039H   PUBLIC    CODE     ---       led_enter_powersave
      01005B49H   PUBLIC    CODE     ---       _led_set_code
      0100810AH   PUBLIC    CODE     ---       _led_set_dp
      010080FBH   PUBLIC    CODE     ---       _led_clr_dp
      01007B7FH   PUBLIC    CODE     ---       _led_clr_blink
      01007C8EH   PUBLIC    CODE     ---       _led_set_blink
      01008028H   PUBLIC    CODE     ---       led_clear
      010062AAH   PUBLIC    CODE     ---       led_initialize
      010053F4H   PUBLIC    CODE     ---       refresh_led
      00000080H   SFRSYM    DATA     BYTE      P0
      00000090H   SFRSYM    DATA     BYTE      P1
      000000A0H   SFRSYM    DATA     BYTE      P2
      000000B0H   SFRSYM    DATA     BYTE      P3
      000000C0H   SFRSYM    DATA     BYTE      XICON
      000000B0H.4 SFRSYM    DATA     BIT       T0
      000000D0H.6 SFRSYM    DATA     BIT       AC
LX51 LINKER/LOCATER V4.66.87.0                                                        05/09/2018  21:28:12  PAGE 99


      000000E8H   SFRSYM    DATA     BYTE      P4
      000000B0H.5 SFRSYM    DATA     BIT       T1
      000000E6H   SFRSYM    DATA     BYTE      ISP_TRIG
      00000090H.0 SFRSYM    DATA     BIT       T2
      000000A8H.7 SFRSYM    DATA     BIT       EA
      000000A8H.6 SFRSYM    DATA     BIT       EC
      00000098H.7 SFRSYM    DATA     BIT       FE
      000000A8H   SFRSYM    DATA     BYTE      IE
      000000C8H.6 SFRSYM    DATA     BIT       EXF2
      000000B0H.7 SFRSYM    DATA     BIT       RD
      000000A8H.4 SFRSYM    DATA     BIT       ES
      000000B8H   SFRSYM    DATA     BYTE      IP
      00000098H.0 SFRSYM    DATA     BIT       RI
      000000B0H.2 SFRSYM    DATA     BIT       INT0
      000000D0H.7 SFRSYM    DATA     BIT       CY
      00000098H.1 SFRSYM    DATA     BIT       TI
      000000B0H.3 SFRSYM    DATA     BIT       INT1
      000000CBH   SFRSYM    DATA     BYTE      RCAP2H
      000000E5H   SFRSYM    DATA     BYTE      ISP_CMD
      000000B8H.4 SFRSYM    DATA     BIT       PS
      00000081H   SFRSYM    DATA     BYTE      SP
      00000090H.1 SFRSYM    DATA     BIT       T2EX
      000000D0H.2 SFRSYM    DATA     BIT       OV
      000000CAH   SFRSYM    DATA     BYTE      RCAP2L
      000000C8H.1 SFRSYM    DATA     BIT       C_T2
      000000B0H.6 SFRSYM    DATA     BIT       WR
      000000C8H.5 SFRSYM    DATA     BIT       RCLK
      000000C8H.4 SFRSYM    DATA     BIT       TCLK
      00000080H.0 SFRSYM    DATA     BIT       P00
      00000099H   SFRSYM    DATA     BYTE      SBUF
      00000087H   SFRSYM    DATA     BYTE      PCON
      00000090H.0 SFRSYM    DATA     BIT       P10
      00000080H.1 SFRSYM    DATA     BIT       P01
      000000A0H.0 SFRSYM    DATA     BIT       P20
      00000090H.1 SFRSYM    DATA     BIT       P11
      00000080H.2 SFRSYM    DATA     BIT       P02
      000000E3H   SFRSYM    DATA     BYTE      ISP_ADDRH
      000000B0H.0 SFRSYM    DATA     BIT       P30
      000000A0H.1 SFRSYM    DATA     BIT       P21
      00000090H.2 SFRSYM    DATA     BIT       P12
      00000080H.3 SFRSYM    DATA     BIT       P03
      00000098H   SFRSYM    DATA     BYTE      SCON
      000000B0H.1 SFRSYM    DATA     BIT       P31
      000000A0H.2 SFRSYM    DATA     BIT       P22
      00000090H.3 SFRSYM    DATA     BIT       P13
      00000080H.4 SFRSYM    DATA     BIT       P04
      000000E8H.0 SFRSYM    DATA     BIT       P40
      00000089H   SFRSYM    DATA     BYTE      TMOD
      00000088H   SFRSYM    DATA     BYTE      TCON
      000000B0H.2 SFRSYM    DATA     BIT       P32
      000000A0H.3 SFRSYM    DATA     BIT       P23
      00000090H.4 SFRSYM    DATA     BIT       P14
      00000080H.5 SFRSYM    DATA     BIT       P05
      000000E8H.1 SFRSYM    DATA     BIT       P41
      000000B0H.3 SFRSYM    DATA     BIT       P33
      000000A0H.4 SFRSYM    DATA     BIT       P24
      00000090H.5 SFRSYM    DATA     BIT       P15
      00000080H.6 SFRSYM    DATA     BIT       P06
      000000E4H   SFRSYM    DATA     BYTE      ISP_ADDRL
      000000E8H.2 SFRSYM    DATA     BIT       P42
      000000B0H.4 SFRSYM    DATA     BIT       P34
      000000A0H.5 SFRSYM    DATA     BIT       P25
      00000090H.6 SFRSYM    DATA     BIT       P16
      00000080H.7 SFRSYM    DATA     BIT       P07
      000000E8H.3 SFRSYM    DATA     BIT       P43
LX51 LINKER/LOCATER V4.66.87.0                                                        05/09/2018  21:28:12  PAGE 100


      000000B0H.5 SFRSYM    DATA     BIT       P35
      000000A0H.6 SFRSYM    DATA     BIT       P26
      00000090H.7 SFRSYM    DATA     BIT       P17
      000000E8H.4 SFRSYM    DATA     BIT       P44
      000000B0H.6 SFRSYM    DATA     BIT       P36
      000000A0H.7 SFRSYM    DATA     BIT       P27
      000000E8H.5 SFRSYM    DATA     BIT       P45
      000000B0H.7 SFRSYM    DATA     BIT       P37
      000000E8H.6 SFRSYM    DATA     BIT       P46
      00000088H.1 SFRSYM    DATA     BIT       IE0
      00000088H.3 SFRSYM    DATA     BIT       IE1
      0000008EH   SFRSYM    DATA     BYTE      AUXR
      000000F0H   SFRSYM    DATA     BYTE      B
      000000C8H.0 SFRSYM    DATA     BIT       CP_RL2
      000000E0H   SFRSYM    DATA     BYTE      ACC
      000000A8H.1 SFRSYM    DATA     BIT       ET0
      000000A8H.3 SFRSYM    DATA     BIT       ET1
      00000088H.5 SFRSYM    DATA     BIT       TF0
      000000A8H.5 SFRSYM    DATA     BIT       ET2
      00000088H.7 SFRSYM    DATA     BIT       TF1
      000000C8H.7 SFRSYM    DATA     BIT       TF2
      00000098H.2 SFRSYM    DATA     BIT       RB8
      0000008CH   SFRSYM    DATA     BYTE      TH0
      000000A8H.0 SFRSYM    DATA     BIT       EX0
      00000088H.0 SFRSYM    DATA     BIT       IT0
      0000008DH   SFRSYM    DATA     BYTE      TH1
      00000098H.3 SFRSYM    DATA     BIT       TB8
      000000A8H.2 SFRSYM    DATA     BIT       EX1
      00000088H.2 SFRSYM    DATA     BIT       IT1
      000000CDH   SFRSYM    DATA     BYTE      TH2
      000000D0H.0 SFRSYM    DATA     BIT       P
      00000098H.7 SFRSYM    DATA     BIT       SM0
      0000008AH   SFRSYM    DATA     BYTE      TL0
      00000098H.6 SFRSYM    DATA     BIT       SM1
      0000008BH   SFRSYM    DATA     BYTE      TL1
      00000098H.5 SFRSYM    DATA     BIT       SM2
      000000CCH   SFRSYM    DATA     BYTE      TL2
      000000B8H.1 SFRSYM    DATA     BIT       PT0
      000000B8H.3 SFRSYM    DATA     BIT       PT1
      000000D0H.3 SFRSYM    DATA     BIT       RS0
      000000E7H   SFRSYM    DATA     BYTE      ISP_CONTR
      000000B8H.5 SFRSYM    DATA     BIT       PT2
      00000088H.4 SFRSYM    DATA     BIT       TR0
      000000D0H.4 SFRSYM    DATA     BIT       RS1
      00000088H.6 SFRSYM    DATA     BIT       TR1
      000000C8H.2 SFRSYM    DATA     BIT       TR2
      000000B8H.0 SFRSYM    DATA     BIT       PX0
      000000E1H   SFRSYM    DATA     BYTE      WDT_CONTR
      000000B8H.2 SFRSYM    DATA     BIT       PX1
      00000083H   SFRSYM    DATA     BYTE      DPH
      00000082H   SFRSYM    DATA     BYTE      DPL
      000000B7H   SFRSYM    DATA     BYTE      IPH
      000000C8H.3 SFRSYM    DATA     BIT       EXEN2
      00000098H.4 SFRSYM    DATA     BIT       REN
      000000C9H   SFRSYM    DATA     BYTE      T2MOD
      000000C8H   SFRSYM    DATA     BYTE      T2CON
      000000E2H   SFRSYM    DATA     BYTE      ISP_DATA
      000000B9H   SFRSYM    DATA     BYTE      SADEN
      000000B0H.0 SFRSYM    DATA     BIT       RXD
      000000A9H   SFRSYM    DATA     BYTE      SADDR
      000000B0H.1 SFRSYM    DATA     BIT       TXD
      000000A2H   SFRSYM    DATA     BYTE      AUXR1
      000000D0H.5 SFRSYM    DATA     BIT       F0
      000000D0H   SFRSYM    DATA     BYTE      PSW
      020000A6H   SYMBOL    XDATA    BYTE      saved_led_index
LX51 LINKER/LOCATER V4.66.87.0                                                        05/09/2018  21:28:12  PAGE 101


      00000043H   SYMBOL    IDATA    BYTE      led_index
      0100C5B1H   SYMBOL    CONST    ---       led_scan
      020000ADH   SYMBOL    XDATA    BYTE      saved_scan_loop_cnt
      0000004AH   SYMBOL    IDATA    BYTE      scan_loop_cnt

      01007639H   BLOCK     CODE     ---       LVL=0
      ---         BLOCKEND  ---      ---       LVL=0

      010053F4H   BLOCK     CODE     ---       LVL=0
      010053F4H   LINE      CODE     ---       #94
      010053F4H   LINE      CODE     ---       #95
      010053F4H   LINE      CODE     ---       #96
      010053F7H   LINE      CODE     ---       #98
      010053FAH   LINE      CODE     ---       #100
      01005418H   LINE      CODE     ---       #101
      01005420H   LINE      CODE     ---       #102
      0100542BH   LINE      CODE     ---       #103
      0100542DH   LINE      CODE     ---       #107
      01005436H   LINE      CODE     ---       #108
      01005436H   LINE      CODE     ---       #110
      0100543FH   LINE      CODE     ---       #112
      01005440H   LINE      CODE     ---       #113
      01005444H   LINE      CODE     ---       #114
      01005446H   LINE      CODE     ---       #115
      0100544DH   LINE      CODE     ---       #116
      0100544DH   LINE      CODE     ---       #117
      ---         BLOCKEND  ---      ---       LVL=0

      010062AAH   BLOCK     CODE     ---       LVL=0
      010062AAH   BLOCK     CODE     NEAR LAB  LVL=1
      00000004H   SYMBOL    DATA     BYTE      i
      00000002H   SYMBOL    DATA     BYTE      j
      ---         BLOCKEND  ---      ---       LVL=1
      010062AAH   LINE      CODE     ---       #120
      010062AAH   LINE      CODE     ---       #121
      010062AAH   LINE      CODE     ---       #123
      010062B3H   LINE      CODE     ---       #125
      010062B5H   LINE      CODE     ---       #126
      010062B5H   LINE      CODE     ---       #127
      010062B5H   LINE      CODE     ---       #128
      010062B5H   LINE      CODE     ---       #129
      010062B5H   LINE      CODE     ---       #131
      010062B5H   LINE      CODE     ---       #132
      010062B8H   LINE      CODE     ---       #134
      010062BAH   LINE      CODE     ---       #135
      010062C2H   LINE      CODE     ---       #136
      010062C4H   LINE      CODE     ---       #137
      010062C6H   LINE      CODE     ---       #138
      010062C8H   LINE      CODE     ---       #139
      010062CAH   LINE      CODE     ---       #140
      010062CCH   LINE      CODE     ---       #141
      010062CEH   LINE      CODE     ---       #142
      010062D1H   LINE      CODE     ---       #143
      010062D6H   LINE      CODE     ---       #144
      010062DBH   LINE      CODE     ---       #145
      010062E0H   LINE      CODE     ---       #147
      010062E0H   LINE      CODE     ---       #148
      010062E0H   LINE      CODE     ---       #149
      010062E0H   LINE      CODE     ---       #150
      010062E0H   LINE      CODE     ---       #152
      010062E0H   LINE      CODE     ---       #153
      010062E3H   LINE      CODE     ---       #154
      ---         BLOCKEND  ---      ---       LVL=0

      01008028H   BLOCK     CODE     ---       LVL=0
LX51 LINKER/LOCATER V4.66.87.0                                                        05/09/2018  21:28:12  PAGE 102


      01008028H   LINE      CODE     ---       #156
      01008028H   LINE      CODE     ---       #157
      01008028H   LINE      CODE     ---       #158
      0100802CH   LINE      CODE     ---       #159
      ---         BLOCKEND  ---      ---       LVL=0

      01007C8EH   BLOCK     CODE     ---       LVL=0
      00000007H   SYMBOL    DATA     BYTE      i
      01007C8EH   LINE      CODE     ---       #162
      01007C8EH   LINE      CODE     ---       #163
      01007C8EH   LINE      CODE     ---       #164
      01007C94H   LINE      CODE     ---       #165
      01007CA3H   LINE      CODE     ---       #166
      01007CA3H   LINE      CODE     ---       #167
      ---         BLOCKEND  ---      ---       LVL=0

      01007B7FH   BLOCK     CODE     ---       LVL=0
      00000007H   SYMBOL    DATA     BYTE      i
      01007B7FH   LINE      CODE     ---       #169
      01007B7FH   LINE      CODE     ---       #170
      01007B7FH   LINE      CODE     ---       #171
      01007B85H   LINE      CODE     ---       #172
      01007B95H   LINE      CODE     ---       #173
      01007B95H   LINE      CODE     ---       #174
      ---         BLOCKEND  ---      ---       LVL=0

      010080FBH   BLOCK     CODE     ---       LVL=0
      00000007H   SYMBOL    DATA     BYTE      i
      010080FBH   LINE      CODE     ---       #176
      010080FBH   LINE      CODE     ---       #177
      010080FBH   LINE      CODE     ---       #178
      01008101H   LINE      CODE     ---       #179
      01008109H   LINE      CODE     ---       #180
      01008109H   LINE      CODE     ---       #181
      ---         BLOCKEND  ---      ---       LVL=0

      0100810AH   BLOCK     CODE     ---       LVL=0
      00000007H   SYMBOL    DATA     BYTE      i
      0100810AH   LINE      CODE     ---       #183
      0100810AH   LINE      CODE     ---       #184
      0100810AH   LINE      CODE     ---       #185
      01008110H   LINE      CODE     ---       #186
      01008118H   LINE      CODE     ---       #187
      01008118H   LINE      CODE     ---       #188
      ---         BLOCKEND  ---      ---       LVL=0

      01005B49H   BLOCK     CODE     ---       LVL=0
      00000007H   SYMBOL    DATA     BYTE      i
      00000005H   SYMBOL    DATA     CHAR      c
      01005B49H   LINE      CODE     ---       #192
      01005B49H   LINE      CODE     ---       #193
      01005B49H   LINE      CODE     ---       #194
      01005B4FH   LINE      CODE     ---       #195
      01005B57H   LINE      CODE     ---       #196
      01005B5AH   LINE      CODE     ---       #197
      01005B65H   LINE      CODE     ---       #198
      01005B66H   LINE      CODE     ---       #199
      01005B76H   LINE      CODE     ---       #200
      01005B8FH   LINE      CODE     ---       #201
      01005B90H   LINE      CODE     ---       #202
      01005B98H   LINE      CODE     ---       #203
      01005B98H   LINE      CODE     ---       #204
      01005B98H   LINE      CODE     ---       #205
      ---         BLOCKEND  ---      ---       LVL=0

LX51 LINKER/LOCATER V4.66.87.0                                                        05/09/2018  21:28:12  PAGE 103


      01008039H   BLOCK     CODE     ---       LVL=0
      01008039H   LINE      CODE     ---       #207
      01008039H   LINE      CODE     ---       #208
      01008039H   LINE      CODE     ---       #209
      01008042H   LINE      CODE     ---       #211
      01008044H   LINE      CODE     ---       #213
      01008044H   LINE      CODE     ---       #214
      01008047H   LINE      CODE     ---       #215
      ---         BLOCKEND  ---      ---       LVL=0

      01007D3DH   BLOCK     CODE     ---       LVL=0
      01007D3DH   LINE      CODE     ---       #218
      01007D3DH   LINE      CODE     ---       #219
      01007D3DH   LINE      CODE     ---       #220
      01007D46H   LINE      CODE     ---       #222
      01007D49H   LINE      CODE     ---       #223
      01007D4CH   LINE      CODE     ---       #224
      01007D4FH   LINE      CODE     ---       #226
      01007D51H   LINE      CODE     ---       #227
      ---         BLOCKEND  ---      ---       LVL=0

      01007035H   BLOCK     CODE     ---       LVL=0
      01007035H   LINE      CODE     ---       #229
      01007035H   LINE      CODE     ---       #230
      01007035H   LINE      CODE     ---       #231
      01007048H   LINE      CODE     ---       #232
      0100704FH   LINE      CODE     ---       #233
      01007053H   LINE      CODE     ---       #234
      0100705AH   LINE      CODE     ---       #235
      ---         BLOCKEND  ---      ---       LVL=0

      0100705BH   BLOCK     CODE     ---       LVL=0
      0100705BH   LINE      CODE     ---       #237
      0100705BH   LINE      CODE     ---       #238
      0100705BH   LINE      CODE     ---       #239
      0100706EH   LINE      CODE     ---       #240
      01007075H   LINE      CODE     ---       #241
      01007079H   LINE      CODE     ---       #242
      01007080H   LINE      CODE     ---       #243
      ---         BLOCKEND  ---      ---       LVL=0

      ---         MODULE    ---      ---       ALARM
      0100687BH   PUBLIC    CODE     ---       alarm1_sync_to_rtc
      00000020H.0 PUBLIC    BIT      BIT       ?alarm1_set_enable?BIT
      01008530H   PUBLIC    CODE     ---       alarm1_set_enable
      0100858EH   PUBLIC    CODE     ---       alarm1_test_enable
      010059B7H   PUBLIC    CODE     ---       alarm0_sync_to_rtc
      010081ADH   PUBLIC    CODE     ---       alarm0_inc_hour
      010084E2H   PUBLIC    CODE     ---       alarm0_get_hour
      0100819FH   PUBLIC    CODE     ---       alarm0_inc_min
      010084DCH   PUBLIC    CODE     ---       alarm0_get_min
      00000020H.0 PUBLIC    BIT      BIT       ?alarm0_set_hour_12?BIT
      01000026H   PUBLIC    CODE     ---       alarm0_set_hour_12
      0100858BH   PUBLIC    CODE     ---       alarm0_get_hour_12
      010084D6H   PUBLIC    CODE     ---       alarm0_get_day_mask
      00000020H.0 PUBLIC    BIT      BIT       ?_alarm0_set_enable?BIT
      01004F27H   PUBLIC    CODE     ---       _alarm0_set_enable
      01006AF8H   PUBLIC    CODE     ---       _alarm0_test_enable
      010083CEH   PUBLIC    CODE     ---       alarm_leave_powersave
      010083C5H   PUBLIC    CODE     ---       alarm_enter_powersave
      01004D98H   PUBLIC    CODE     ---       alarm_dump
      010073EFH   PUBLIC    CODE     ---       alarm_switch_off
      01008128H   PUBLIC    CODE     ---       alarm_switch_on
      01008119H   PUBLIC    CODE     ---       alarm_initialize
      010045C3H   PUBLIC    CODE     ---       scan_alarm
LX51 LINKER/LOCATER V4.66.87.0                                                        05/09/2018  21:28:12  PAGE 104


      01006D1BH   PUBLIC    CODE     ---       _alarm_proc
      00000023H.6 SYMBOL    BIT      BIT       alarm1_enable
      020000BFH   SYMBOL    XDATA    ---       alarm0
      01006848H   SYMBOL    CODE     ---       alarm_load_rom
      01006778H   SYMBOL    CODE     ---       alarm_save_rom
      00000023H.7 SYMBOL    BIT      BIT       alarm0_is12

      01007D52H   BLOCK     CODE     ---       LVL=0
      ---         BLOCKEND  ---      ---       LVL=0

      01006D1BH   BLOCK     CODE     ---       LVL=0
      0200000CH   SYMBOL    XDATA    BYTE      ev
      01006D1BH   LINE      CODE     ---       #15
      01006D20H   LINE      CODE     ---       #16
      01006D20H   LINE      CODE     ---       #18
      01006D23H   LINE      CODE     ---       #19
      01006D2CH   LINE      CODE     ---       #20
      01006D31H   LINE      CODE     ---       #21
      01006D31H   LINE      CODE     ---       #23
      01006D38H   LINE      CODE     ---       #24
      01006D41H   LINE      CODE     ---       #25
      01006D46H   LINE      CODE     ---       #26
      01006D46H   LINE      CODE     ---       #27
      ---         BLOCKEND  ---      ---       LVL=0

      010045C3H   BLOCK     CODE     ---       LVL=0
      010045C3H   BLOCK     CODE     NEAR LAB  LVL=1
      00000020H.0 SYMBOL    BIT      BIT       alarm0_hit
      00000020H.1 SYMBOL    BIT      BIT       alarm1_hit
      ---         BLOCKEND  ---      ---       LVL=1
      010045C3H   LINE      CODE     ---       #29
      010045C3H   LINE      CODE     ---       #30
      010045C3H   LINE      CODE     ---       #33
      010045C8H   LINE      CODE     ---       #34
      010045CFH   LINE      CODE     ---       #35
      010045D5H   LINE      CODE     ---       #36
      010045D9H   LINE      CODE     ---       #37
      010045DDH   LINE      CODE     ---       #38
      010045E2H   LINE      CODE     ---       #40
      010045E5H   LINE      CODE     ---       #41
      010045FFH   LINE      CODE     ---       #42
      01004604H   LINE      CODE     ---       #43
      01004607H   LINE      CODE     ---       #44
      01004607H   LINE      CODE     ---       #45
      01004610H   LINE      CODE     ---       #46
      01004613H   LINE      CODE     ---       #47
      01004615H   LINE      CODE     ---       #48
      01004615H   LINE      CODE     ---       #49
      01004615H   LINE      CODE     ---       #50
      01004615H   LINE      CODE     ---       #53
      01004618H   LINE      CODE     ---       #54
      0100461DH   LINE      CODE     ---       #55
      01004629H   LINE      CODE     ---       #56
      01004629H   LINE      CODE     ---       #57
      0100462EH   LINE      CODE     ---       #58
      01004631H   LINE      CODE     ---       #59
      01004631H   LINE      CODE     ---       #60
      0100463AH   LINE      CODE     ---       #61
      0100463AH   LINE      CODE     ---       #62
      0100463AH   LINE      CODE     ---       #63
      ---         BLOCKEND  ---      ---       LVL=0

      01006848H   BLOCK     CODE     ---       LVL=0
      01006848H   LINE      CODE     ---       #65
      01006848H   LINE      CODE     ---       #66
LX51 LINKER/LOCATER V4.66.87.0                                                        05/09/2018  21:28:12  PAGE 105


      01006848H   LINE      CODE     ---       #67
      01006852H   LINE      CODE     ---       #68
      0100685CH   LINE      CODE     ---       #69
      01006866H   LINE      CODE     ---       #70
      01006870H   LINE      CODE     ---       #71
      0100687AH   LINE      CODE     ---       #72
      ---         BLOCKEND  ---      ---       LVL=0

      01006778H   BLOCK     CODE     ---       LVL=0
      01006778H   LINE      CODE     ---       #74
      01006778H   LINE      CODE     ---       #75
      01006778H   LINE      CODE     ---       #76
      01006782H   LINE      CODE     ---       #77
      0100678CH   LINE      CODE     ---       #78
      01006796H   LINE      CODE     ---       #79
      010067A2H   LINE      CODE     ---       #80
      ---         BLOCKEND  ---      ---       LVL=0

      01008119H   BLOCK     CODE     ---       LVL=0
      01008119H   LINE      CODE     ---       #83
      01008119H   LINE      CODE     ---       #84
      01008119H   LINE      CODE     ---       #85
      01008122H   LINE      CODE     ---       #87
      01008125H   LINE      CODE     ---       #88
      ---         BLOCKEND  ---      ---       LVL=0

      01008128H   BLOCK     CODE     ---       LVL=0
      01008128H   LINE      CODE     ---       #91
      01008128H   LINE      CODE     ---       #92
      01008128H   LINE      CODE     ---       #93
      01008131H   LINE      CODE     ---       #94
      01008134H   LINE      CODE     ---       #95
      ---         BLOCKEND  ---      ---       LVL=0

      010073EFH   BLOCK     CODE     ---       LVL=0
      010073EFH   LINE      CODE     ---       #98
      010073EFH   LINE      CODE     ---       #99
      010073EFH   LINE      CODE     ---       #100
      010073F8H   LINE      CODE     ---       #101
      010073FDH   LINE      CODE     ---       #102
      01007404H   LINE      CODE     ---       #103
      0100740AH   LINE      CODE     ---       #104
      ---         BLOCKEND  ---      ---       LVL=0

      01004D98H   BLOCK     CODE     ---       LVL=0
      01004D98H   LINE      CODE     ---       #107
      01004D98H   LINE      CODE     ---       #108
      01004D98H   LINE      CODE     ---       #109
      01004DA2H   LINE      CODE     ---       #110
      01004DACH   LINE      CODE     ---       #111
      01004DB6H   LINE      CODE     ---       #112
      01004DD4H   LINE      CODE     ---       #113
      01004DF2H   LINE      CODE     ---       #114
      ---         BLOCKEND  ---      ---       LVL=0

      010083C5H   BLOCK     CODE     ---       LVL=0
      010083C5H   LINE      CODE     ---       #116
      010083C5H   LINE      CODE     ---       #117
      010083C5H   LINE      CODE     ---       #118
      ---         BLOCKEND  ---      ---       LVL=0

      010083CEH   BLOCK     CODE     ---       LVL=0
      010083CEH   LINE      CODE     ---       #121
      010083CEH   LINE      CODE     ---       #122
      010083CEH   LINE      CODE     ---       #123
LX51 LINKER/LOCATER V4.66.87.0                                                        05/09/2018  21:28:12  PAGE 106


      ---         BLOCKEND  ---      ---       LVL=0

      01006AF8H   BLOCK     CODE     ---       LVL=0
      02000019H   SYMBOL    XDATA    BYTE      day
      01006AF8H   LINE      CODE     ---       #127
      01006AFDH   LINE      CODE     ---       #128
      01006AFDH   LINE      CODE     ---       #129
      01006B0AH   LINE      CODE     ---       #130
      01006B26H   LINE      CODE     ---       #131
      ---         BLOCKEND  ---      ---       LVL=0

      01004F27H   BLOCK     CODE     ---       LVL=0
      02000014H   SYMBOL    XDATA    BYTE      day
      00000020H.0 SYMBOL    BIT      BIT       enable
      01004F27H   LINE      CODE     ---       #134
      01004F2CH   LINE      CODE     ---       #135
      01004F2CH   LINE      CODE     ---       #136
      01004F4EH   LINE      CODE     ---       #137
      01004F63H   LINE      CODE     ---       #138
      01004F6FH   LINE      CODE     ---       #139
      01004F72H   LINE      CODE     ---       #140
      01004F74H   LINE      CODE     ---       #141
      01004F7CH   LINE      CODE     ---       #142
      01004F7CH   LINE      CODE     ---       #143
      ---         BLOCKEND  ---      ---       LVL=0

      010084D6H   BLOCK     CODE     ---       LVL=0
      010084D6H   LINE      CODE     ---       #147
      010084D6H   LINE      CODE     ---       #148
      010084D6H   LINE      CODE     ---       #149
      010084DBH   LINE      CODE     ---       #150
      ---         BLOCKEND  ---      ---       LVL=0

      0100858BH   BLOCK     CODE     ---       LVL=0
      0100858BH   LINE      CODE     ---       #152
      0100858BH   LINE      CODE     ---       #153
      0100858BH   LINE      CODE     ---       #154
      0100858DH   LINE      CODE     ---       #155
      ---         BLOCKEND  ---      ---       LVL=0

      01000026H   BLOCK     CODE     ---       LVL=0
      00000020H.0 SYMBOL    BIT      BIT       enable
      01000026H   LINE      CODE     ---       #157
      01000026H   LINE      CODE     ---       #158
      01000026H   LINE      CODE     ---       #159
      0100002AH   LINE      CODE     ---       #160
      ---         BLOCKEND  ---      ---       LVL=0

      010084DCH   BLOCK     CODE     ---       LVL=0
      010084DCH   LINE      CODE     ---       #163
      010084DCH   LINE      CODE     ---       #164
      010084DCH   LINE      CODE     ---       #165
      010084E1H   LINE      CODE     ---       #166
      ---         BLOCKEND  ---      ---       LVL=0

      0100819FH   BLOCK     CODE     ---       LVL=0
      0100819FH   LINE      CODE     ---       #168
      0100819FH   LINE      CODE     ---       #169
      0100819FH   LINE      CODE     ---       #170
      010081ACH   LINE      CODE     ---       #171
      ---         BLOCKEND  ---      ---       LVL=0

      010084E2H   BLOCK     CODE     ---       LVL=0
      010084E2H   LINE      CODE     ---       #173
      010084E2H   LINE      CODE     ---       #174
LX51 LINKER/LOCATER V4.66.87.0                                                        05/09/2018  21:28:12  PAGE 107


      010084E2H   LINE      CODE     ---       #175
      010084E7H   LINE      CODE     ---       #176
      ---         BLOCKEND  ---      ---       LVL=0

      010081ADH   BLOCK     CODE     ---       LVL=0
      010081ADH   LINE      CODE     ---       #178
      010081ADH   LINE      CODE     ---       #179
      010081ADH   LINE      CODE     ---       #180
      010081BAH   LINE      CODE     ---       #181
      ---         BLOCKEND  ---      ---       LVL=0

      010059B7H   BLOCK     CODE     ---       LVL=0
      010059B7H   LINE      CODE     ---       #183
      010059B7H   LINE      CODE     ---       #184
      010059B7H   LINE      CODE     ---       #185
      010059C0H   LINE      CODE     ---       #186
      010059C5H   LINE      CODE     ---       #187
      010059CAH   LINE      CODE     ---       #188
      010059D2H   LINE      CODE     ---       #189
      010059DAH   LINE      CODE     ---       #190
      010059DFH   LINE      CODE     ---       #191
      010059E6H   LINE      CODE     ---       #192
      010059EBH   LINE      CODE     ---       #194
      010059F0H   LINE      CODE     ---       #195
      010059FFH   LINE      CODE     ---       #196
      01005A03H   LINE      CODE     ---       #197
      ---         BLOCKEND  ---      ---       LVL=0

      0100858EH   BLOCK     CODE     ---       LVL=0
      0100858EH   LINE      CODE     ---       #200
      0100858EH   LINE      CODE     ---       #201
      0100858EH   LINE      CODE     ---       #202
      01008590H   LINE      CODE     ---       #203
      ---         BLOCKEND  ---      ---       LVL=0

      01008530H   BLOCK     CODE     ---       LVL=0
      00000020H.0 SYMBOL    BIT      BIT       enable
      01008530H   LINE      CODE     ---       #205
      01008530H   LINE      CODE     ---       #206
      01008530H   LINE      CODE     ---       #207
      01008534H   LINE      CODE     ---       #208
      ---         BLOCKEND  ---      ---       LVL=0

      0100687BH   BLOCK     CODE     ---       LVL=0
      0100687BH   LINE      CODE     ---       #210
      0100687BH   LINE      CODE     ---       #211
      0100687BH   LINE      CODE     ---       #212
      01006884H   LINE      CODE     ---       #213
      01006889H   LINE      CODE     ---       #214
      0100688EH   LINE      CODE     ---       #215
      01006893H   LINE      CODE     ---       #216
      01006898H   LINE      CODE     ---       #218
      0100689DH   LINE      CODE     ---       #219
      010068A6H   LINE      CODE     ---       #220
      010068A9H   LINE      CODE     ---       #221
      ---         BLOCKEND  ---      ---       LVL=0

      ---         MODULE    ---      ---       POWER
      00000024H.4 PUBLIC    BIT      BIT       powersave_flag
      00000020H.1 PUBLIC    BIT      BIT       ?power_5v_enable?BIT
      0100786DH   PUBLIC    CODE     ---       power_5v_enable
      010083D7H   PUBLIC    CODE     ---       power_reset_powersave_to
      01008597H   PUBLIC    CODE     ---       power_clr_flag
      01008594H   PUBLIC    CODE     ---       power_set_flag
      01008591H   PUBLIC    CODE     ---       power_test_flag
LX51 LINKER/LOCATER V4.66.87.0                                                        05/09/2018  21:28:12  PAGE 108


      01006A0AH   PUBLIC    CODE     ---       power_test_powersave_to
      01007161H   PUBLIC    CODE     ---       power_inc_powersave_to
      01007B96H   PUBLIC    CODE     ---       power_get_powersave_to
      010084E8H   PUBLIC    CODE     ---       power_get_powersave_to_s
      010069DAH   PUBLIC    CODE     ---       power_leave_powersave
      01005C33H   PUBLIC    CODE     ---       power_enter_powersave
      01007943H   PUBLIC    CODE     ---       _power_proc
      010068AEH   PUBLIC    CODE     ---       power_initialize
      00000080H   SFRSYM    DATA     BYTE      P0
      00000090H   SFRSYM    DATA     BYTE      P1
      000000A0H   SFRSYM    DATA     BYTE      P2
      000000B0H   SFRSYM    DATA     BYTE      P3
      000000C0H   SFRSYM    DATA     BYTE      XICON
      000000B0H.4 SFRSYM    DATA     BIT       T0
      000000D0H.6 SFRSYM    DATA     BIT       AC
      000000E8H   SFRSYM    DATA     BYTE      P4
      000000B0H.5 SFRSYM    DATA     BIT       T1
      000000E6H   SFRSYM    DATA     BYTE      ISP_TRIG
      00000090H.0 SFRSYM    DATA     BIT       T2
      000000A8H.7 SFRSYM    DATA     BIT       EA
      000000A8H.6 SFRSYM    DATA     BIT       EC
      00000098H.7 SFRSYM    DATA     BIT       FE
      000000A8H   SFRSYM    DATA     BYTE      IE
      000000C8H.6 SFRSYM    DATA     BIT       EXF2
      000000B0H.7 SFRSYM    DATA     BIT       RD
      000000A8H.4 SFRSYM    DATA     BIT       ES
      000000B8H   SFRSYM    DATA     BYTE      IP
      00000098H.0 SFRSYM    DATA     BIT       RI
      000000B0H.2 SFRSYM    DATA     BIT       INT0
      000000D0H.7 SFRSYM    DATA     BIT       CY
      00000098H.1 SFRSYM    DATA     BIT       TI
      000000B0H.3 SFRSYM    DATA     BIT       INT1
      000000CBH   SFRSYM    DATA     BYTE      RCAP2H
      000000E5H   SFRSYM    DATA     BYTE      ISP_CMD
      000000B8H.4 SFRSYM    DATA     BIT       PS
      00000081H   SFRSYM    DATA     BYTE      SP
      00000090H.1 SFRSYM    DATA     BIT       T2EX
      000000D0H.2 SFRSYM    DATA     BIT       OV
      000000CAH   SFRSYM    DATA     BYTE      RCAP2L
      000000C8H.1 SFRSYM    DATA     BIT       C_T2
      000000B0H.6 SFRSYM    DATA     BIT       WR
      000000C8H.5 SFRSYM    DATA     BIT       RCLK
      000000C8H.4 SFRSYM    DATA     BIT       TCLK
      00000080H.0 SFRSYM    DATA     BIT       P00
      00000099H   SFRSYM    DATA     BYTE      SBUF
      00000087H   SFRSYM    DATA     BYTE      PCON
      00000090H.0 SFRSYM    DATA     BIT       P10
      00000080H.1 SFRSYM    DATA     BIT       P01
      000000A0H.0 SFRSYM    DATA     BIT       P20
      00000090H.1 SFRSYM    DATA     BIT       P11
      00000080H.2 SFRSYM    DATA     BIT       P02
      000000E3H   SFRSYM    DATA     BYTE      ISP_ADDRH
      000000B0H.0 SFRSYM    DATA     BIT       P30
      000000A0H.1 SFRSYM    DATA     BIT       P21
      00000090H.2 SFRSYM    DATA     BIT       P12
      00000080H.3 SFRSYM    DATA     BIT       P03
      00000098H   SFRSYM    DATA     BYTE      SCON
      000000B0H.1 SFRSYM    DATA     BIT       P31
      000000A0H.2 SFRSYM    DATA     BIT       P22
      00000090H.3 SFRSYM    DATA     BIT       P13
      00000080H.4 SFRSYM    DATA     BIT       P04
      000000E8H.0 SFRSYM    DATA     BIT       P40
      00000089H   SFRSYM    DATA     BYTE      TMOD
      00000088H   SFRSYM    DATA     BYTE      TCON
      000000B0H.2 SFRSYM    DATA     BIT       P32
LX51 LINKER/LOCATER V4.66.87.0                                                        05/09/2018  21:28:12  PAGE 109


      000000A0H.3 SFRSYM    DATA     BIT       P23
      00000090H.4 SFRSYM    DATA     BIT       P14
      00000080H.5 SFRSYM    DATA     BIT       P05
      000000E8H.1 SFRSYM    DATA     BIT       P41
      000000B0H.3 SFRSYM    DATA     BIT       P33
      000000A0H.4 SFRSYM    DATA     BIT       P24
      00000090H.5 SFRSYM    DATA     BIT       P15
      00000080H.6 SFRSYM    DATA     BIT       P06
      000000E4H   SFRSYM    DATA     BYTE      ISP_ADDRL
      000000E8H.2 SFRSYM    DATA     BIT       P42
      000000B0H.4 SFRSYM    DATA     BIT       P34
      000000A0H.5 SFRSYM    DATA     BIT       P25
      00000090H.6 SFRSYM    DATA     BIT       P16
      00000080H.7 SFRSYM    DATA     BIT       P07
      000000E8H.3 SFRSYM    DATA     BIT       P43
      000000B0H.5 SFRSYM    DATA     BIT       P35
      000000A0H.6 SFRSYM    DATA     BIT       P26
      00000090H.7 SFRSYM    DATA     BIT       P17
      000000E8H.4 SFRSYM    DATA     BIT       P44
      000000B0H.6 SFRSYM    DATA     BIT       P36
      000000A0H.7 SFRSYM    DATA     BIT       P27
      000000E8H.5 SFRSYM    DATA     BIT       P45
      000000B0H.7 SFRSYM    DATA     BIT       P37
      000000E8H.6 SFRSYM    DATA     BIT       P46
      00000088H.1 SFRSYM    DATA     BIT       IE0
      00000088H.3 SFRSYM    DATA     BIT       IE1
      0000008EH   SFRSYM    DATA     BYTE      AUXR
      000000F0H   SFRSYM    DATA     BYTE      B
      000000C8H.0 SFRSYM    DATA     BIT       CP_RL2
      000000E0H   SFRSYM    DATA     BYTE      ACC
      000000A8H.1 SFRSYM    DATA     BIT       ET0
      000000A8H.3 SFRSYM    DATA     BIT       ET1
      00000088H.5 SFRSYM    DATA     BIT       TF0
      000000A8H.5 SFRSYM    DATA     BIT       ET2
      00000088H.7 SFRSYM    DATA     BIT       TF1
      000000C8H.7 SFRSYM    DATA     BIT       TF2
      00000098H.2 SFRSYM    DATA     BIT       RB8
      0000008CH   SFRSYM    DATA     BYTE      TH0
      000000A8H.0 SFRSYM    DATA     BIT       EX0
      00000088H.0 SFRSYM    DATA     BIT       IT0
      0000008DH   SFRSYM    DATA     BYTE      TH1
      00000098H.3 SFRSYM    DATA     BIT       TB8
      000000A8H.2 SFRSYM    DATA     BIT       EX1
      00000088H.2 SFRSYM    DATA     BIT       IT1
      000000CDH   SFRSYM    DATA     BYTE      TH2
      000000D0H.0 SFRSYM    DATA     BIT       P
      00000098H.7 SFRSYM    DATA     BIT       SM0
      0000008AH   SFRSYM    DATA     BYTE      TL0
      00000098H.6 SFRSYM    DATA     BIT       SM1
      0000008BH   SFRSYM    DATA     BYTE      TL1
      00000098H.5 SFRSYM    DATA     BIT       SM2
      000000CCH   SFRSYM    DATA     BYTE      TL2
      000000B8H.1 SFRSYM    DATA     BIT       PT0
      000000B8H.3 SFRSYM    DATA     BIT       PT1
      000000D0H.3 SFRSYM    DATA     BIT       RS0
      000000E7H   SFRSYM    DATA     BYTE      ISP_CONTR
      000000B8H.5 SFRSYM    DATA     BIT       PT2
      00000088H.4 SFRSYM    DATA     BIT       TR0
      000000D0H.4 SFRSYM    DATA     BIT       RS1
      00000088H.6 SFRSYM    DATA     BIT       TR1
      000000C8H.2 SFRSYM    DATA     BIT       TR2
      000000B8H.0 SFRSYM    DATA     BIT       PX0
      000000E1H   SFRSYM    DATA     BYTE      WDT_CONTR
      000000B8H.2 SFRSYM    DATA     BIT       PX1
      00000083H   SFRSYM    DATA     BYTE      DPH
LX51 LINKER/LOCATER V4.66.87.0                                                        05/09/2018  21:28:12  PAGE 110


      00000082H   SFRSYM    DATA     BYTE      DPL
      000000B7H   SFRSYM    DATA     BYTE      IPH
      000000C8H.3 SFRSYM    DATA     BIT       EXEN2
      00000098H.4 SFRSYM    DATA     BIT       REN
      000000C9H   SFRSYM    DATA     BYTE      T2MOD
      000000C8H   SFRSYM    DATA     BYTE      T2CON
      000000E2H   SFRSYM    DATA     BYTE      ISP_DATA
      000000B9H   SFRSYM    DATA     BYTE      SADEN
      000000B0H.6 SFRSYM    DATA     BIT       POWER_5V_EN
      000000B0H.0 SFRSYM    DATA     BIT       RXD
      000000A9H   SFRSYM    DATA     BYTE      SADDR
      000000B0H.1 SFRSYM    DATA     BIT       TXD
      000000A2H   SFRSYM    DATA     BYTE      AUXR1
      000000D0H.5 SFRSYM    DATA     BIT       F0
      000000D0H   SFRSYM    DATA     BYTE      PSW
      020000CAH   SYMBOL    XDATA    BYTE      last_ps_s
      020000CBH   SYMBOL    XDATA    BYTE      powersave_to_s

      010068AEH   BLOCK     CODE     ---       LVL=0
      010068AEH   BLOCK     CODE     NEAR LAB  LVL=1
      00000007H   SYMBOL    DATA     BYTE      powersave_to
      ---         BLOCKEND  ---      ---       LVL=1
      010068AEH   LINE      CODE     ---       #31
      010068AEH   LINE      CODE     ---       #32
      010068AEH   LINE      CODE     ---       #34
      010068B7H   LINE      CODE     ---       #35
      010068BCH   LINE      CODE     ---       #36
      010068C7H   LINE      CODE     ---       #37
      010068CEH   LINE      CODE     ---       #38
      010068D6H   LINE      CODE     ---       #39
      010068DCH   LINE      CODE     ---       #40
      010068DCH   LINE      CODE     ---       #41
      010068DEH   LINE      CODE     ---       #42
      010068E0H   LINE      CODE     ---       #43
      ---         BLOCKEND  ---      ---       LVL=0

      01007943H   BLOCK     CODE     ---       LVL=0
      0200000CH   SYMBOL    XDATA    BYTE      ev
      01007943H   LINE      CODE     ---       #45
      01007948H   LINE      CODE     ---       #46
      01007948H   LINE      CODE     ---       #47
      01007955H   LINE      CODE     ---       #48
      ---         BLOCKEND  ---      ---       LVL=0

      01005C33H   BLOCK     CODE     ---       LVL=0
      01005C33H   LINE      CODE     ---       #51
      01005C33H   LINE      CODE     ---       #52
      01005C33H   LINE      CODE     ---       #53
      01005C3CH   LINE      CODE     ---       #54
      01005C3FH   LINE      CODE     ---       #55
      01005C42H   LINE      CODE     ---       #56
      01005C45H   LINE      CODE     ---       #57
      01005C48H   LINE      CODE     ---       #58
      01005C4BH   LINE      CODE     ---       #59
      01005C4EH   LINE      CODE     ---       #60
      01005C51H   LINE      CODE     ---       #61
      01005C54H   LINE      CODE     ---       #62
      01005C57H   LINE      CODE     ---       #63
      01005C5AH   LINE      CODE     ---       #64
      01005C5DH   LINE      CODE     ---       #65
      01005C60H   LINE      CODE     ---       #66
      01005C63H   LINE      CODE     ---       #67
      01005C66H   LINE      CODE     ---       #68
      01005C6BH   LINE      CODE     ---       #70
      01005C6EH   LINE      CODE     ---       #74
LX51 LINKER/LOCATER V4.66.87.0                                                        05/09/2018  21:28:12  PAGE 111


      01005C71H   LINE      CODE     ---       #75
      01005C76H   LINE      CODE     ---       #76
      01005C79H   LINE      CODE     ---       #77
      01005C7EH   LINE      CODE     ---       #78
      01005C7EH   LINE      CODE     ---       #79
      01005C7EH   LINE      CODE     ---       #80
      01005C7EH   LINE      CODE     ---       #81
      ---         BLOCKEND  ---      ---       LVL=0

      010069DAH   BLOCK     CODE     ---       LVL=0
      010069DAH   LINE      CODE     ---       #83
      010069DAH   LINE      CODE     ---       #84
      010069DAH   LINE      CODE     ---       #86
      010069DDH   LINE      CODE     ---       #87
      010069E0H   LINE      CODE     ---       #88
      010069E3H   LINE      CODE     ---       #89
      010069E6H   LINE      CODE     ---       #90
      010069E9H   LINE      CODE     ---       #91
      010069ECH   LINE      CODE     ---       #92
      010069EFH   LINE      CODE     ---       #93
      010069F2H   LINE      CODE     ---       #94
      010069F5H   LINE      CODE     ---       #95
      010069F8H   LINE      CODE     ---       #96
      010069FBH   LINE      CODE     ---       #97
      010069FEH   LINE      CODE     ---       #98
      01006A01H   LINE      CODE     ---       #99
      ---         BLOCKEND  ---      ---       LVL=0

      010084E8H   BLOCK     CODE     ---       LVL=0
      010084E8H   LINE      CODE     ---       #102
      010084E8H   LINE      CODE     ---       #103
      010084E8H   LINE      CODE     ---       #104
      010084EDH   LINE      CODE     ---       #105
      ---         BLOCKEND  ---      ---       LVL=0

      01007B96H   BLOCK     CODE     ---       LVL=0
      01007B96H   LINE      CODE     ---       #107
      01007B96H   LINE      CODE     ---       #108
      01007B96H   LINE      CODE     ---       #109
      01007BA4H   LINE      CODE     ---       #110
      01007BA7H   LINE      CODE     ---       #111
      01007BAAH   LINE      CODE     ---       #112
      01007BADH   LINE      CODE     ---       #113
      ---         BLOCKEND  ---      ---       LVL=0

      01007161H   BLOCK     CODE     ---       LVL=0
      01007161H   LINE      CODE     ---       #117
      01007161H   LINE      CODE     ---       #118
      01007161H   LINE      CODE     ---       #119
      01007171H   LINE      CODE     ---       #120
      01007171H   LINE      CODE     ---       #121
      01007178H   LINE      CODE     ---       #122
      01007178H   LINE      CODE     ---       #123
      0100717FH   LINE      CODE     ---       #124
      0100717FH   LINE      CODE     ---       #125
      01007184H   LINE      CODE     ---       #126
      01007184H   LINE      CODE     ---       #127
      ---         BLOCKEND  ---      ---       LVL=0

      01006A0AH   BLOCK     CODE     ---       LVL=0
      01006A0AH   LINE      CODE     ---       #129
      01006A0AH   LINE      CODE     ---       #130
      01006A0AH   LINE      CODE     ---       #132
      01006A24H   LINE      CODE     ---       #133
      01006A2DH   LINE      CODE     ---       #134
LX51 LINKER/LOCATER V4.66.87.0                                                        05/09/2018  21:28:12  PAGE 112


      01006A36H   LINE      CODE     ---       #135
      01006A38H   LINE      CODE     ---       #136
      01006A38H   LINE      CODE     ---       #137
      01006A39H   LINE      CODE     ---       #138
      ---         BLOCKEND  ---      ---       LVL=0

      01008591H   BLOCK     CODE     ---       LVL=0
      01008591H   LINE      CODE     ---       #140
      01008591H   LINE      CODE     ---       #141
      01008591H   LINE      CODE     ---       #142
      01008593H   LINE      CODE     ---       #143
      ---         BLOCKEND  ---      ---       LVL=0

      01008594H   BLOCK     CODE     ---       LVL=0
      01008594H   LINE      CODE     ---       #145
      01008594H   LINE      CODE     ---       #146
      01008594H   LINE      CODE     ---       #147
      01008596H   LINE      CODE     ---       #148
      ---         BLOCKEND  ---      ---       LVL=0

      01008597H   BLOCK     CODE     ---       LVL=0
      01008597H   LINE      CODE     ---       #150
      01008597H   LINE      CODE     ---       #151
      01008597H   LINE      CODE     ---       #152
      01008599H   LINE      CODE     ---       #153
      ---         BLOCKEND  ---      ---       LVL=0

      010083D7H   BLOCK     CODE     ---       LVL=0
      010083D7H   LINE      CODE     ---       #155
      010083D7H   LINE      CODE     ---       #156
      010083D7H   LINE      CODE     ---       #157
      010083DFH   LINE      CODE     ---       #158
      ---         BLOCKEND  ---      ---       LVL=0

      0100786DH   BLOCK     CODE     ---       LVL=0
      00000020H.1 SYMBOL    BIT      BIT       enable
      0100786DH   LINE      CODE     ---       #160
      0100786DH   LINE      CODE     ---       #161
      0100786DH   LINE      CODE     ---       #162
      01007882H   LINE      CODE     ---       #164
      01007887H   LINE      CODE     ---       #165
      ---         BLOCKEND  ---      ---       LVL=0

      ---         MODULE    ---      ---       MISC
      010081C9H   PUBLIC    CODE     ---       _delay_ms
      010081BBH   PUBLIC    CODE     ---       _delay_10us
      010084EEH   SYMBOL    CODE     ---       internal_delay_10us
      01008350H   SYMBOL    CODE     ---       internal_delay_ms

      010084EEH   BLOCK     CODE     ---       LVL=0
      010084EEH   BLOCK     CODE     NEAR LAB  LVL=1
      00000007H   SYMBOL    DATA     BYTE      i
      ---         BLOCKEND  ---      ---       LVL=1
      010084EEH   LINE      CODE     ---       #7
      010084EEH   LINE      CODE     ---       #8
      010084EEH   LINE      CODE     ---       #11
      010084EFH   LINE      CODE     ---       #12
      010084F1H   LINE      CODE     ---       #13
      010084F3H   LINE      CODE     ---       #14
      ---         BLOCKEND  ---      ---       LVL=0

      01008350H   BLOCK     CODE     ---       LVL=0
      01008350H   BLOCK     CODE     NEAR LAB  LVL=1
      00000007H   SYMBOL    DATA     BYTE      i
      00000006H   SYMBOL    DATA     BYTE      j
LX51 LINKER/LOCATER V4.66.87.0                                                        05/09/2018  21:28:12  PAGE 113


      ---         BLOCKEND  ---      ---       LVL=1
      01008350H   LINE      CODE     ---       #16
      01008350H   LINE      CODE     ---       #17
      01008350H   LINE      CODE     ---       #20
      01008351H   LINE      CODE     ---       #21
      01008353H   LINE      CODE     ---       #22
      01008355H   LINE      CODE     ---       #24
      01008355H   LINE      CODE     ---       #25
      01008357H   LINE      CODE     ---       #26
      01008359H   LINE      CODE     ---       #27
      ---         BLOCKEND  ---      ---       LVL=0

      010081BBH   BLOCK     CODE     ---       LVL=0
      00000006H   SYMBOL    DATA     BYTE      t
      010081BBH   LINE      CODE     ---       #53
      010081BDH   LINE      CODE     ---       #54
      010081BDH   LINE      CODE     ---       #55
      010081C3H   LINE      CODE     ---       #56
      010081C6H   LINE      CODE     ---       #57
      010081C8H   LINE      CODE     ---       #58
      ---         BLOCKEND  ---      ---       LVL=0

      010081C9H   BLOCK     CODE     ---       LVL=0
      00000005H   SYMBOL    DATA     BYTE      t
      010081C9H   LINE      CODE     ---       #60
      010081CBH   LINE      CODE     ---       #61
      010081CBH   LINE      CODE     ---       #62
      010081D1H   LINE      CODE     ---       #63
      010081D4H   LINE      CODE     ---       #64
      010081D6H   LINE      CODE     ---       #65
      ---         BLOCKEND  ---      ---       LVL=0

      ---         MODULE    ---      ---       MOD_COMMON
      00000022H.6 PUBLIC    BIT      BIT       lpress_lock_day_sec
      020000C4H   PUBLIC    XDATA    BYTE      last_display_s
      00000022H.5 PUBLIC    BIT      BIT       lpress_lock_year_hour
      00000022H.4 PUBLIC    BIT      BIT       lpress_lock_month_min
      020000C3H   PUBLIC    XDATA    BYTE      lpress_start
      020000C2H   PUBLIC    XDATA    BYTE      common_state
      01005965H   PUBLIC    CODE     ---       _display_logo

      01005965H   BLOCK     CODE     ---       LVL=0
      02000012H   SYMBOL    XDATA    BYTE      type
      02000013H   SYMBOL    XDATA    BYTE      num
      01005965H   LINE      CODE     ---       #16
      0100596DH   LINE      CODE     ---       #17
      0100596DH   LINE      CODE     ---       #18
      0100597EH   LINE      CODE     ---       #20
      01005981H   LINE      CODE     ---       #21
      01005987H   LINE      CODE     ---       #22
      01005989H   LINE      CODE     ---       #23
      0100598BH   LINE      CODE     ---       #24
      01005992H   LINE      CODE     ---       #25
      01005992H   LINE      CODE     ---       #26
      010059A2H   LINE      CODE     ---       #27
      010059B4H   LINE      CODE     ---       #28
      ---         BLOCKEND  ---      ---       LVL=0

      ---         MODULE    ---      ---       BEEPER
      0100859DH   PUBLIC    CODE     ---       beeper_stop_music
      010072C3H   PUBLIC    CODE     ---       beeper_play_music
      01005F45H   PUBLIC    CODE     ---       beeper_beep_beep
      01006046H   PUBLIC    CODE     ---       beeper_beep_beep_always
      01006E4CH   PUBLIC    CODE     ---       beeper_beep
      010084FAH   PUBLIC    CODE     ---       beeper_get_music_index
LX51 LINKER/LOCATER V4.66.87.0                                                        05/09/2018  21:28:12  PAGE 114


      01007BADH   PUBLIC    CODE     ---       beeper_inc_music_index
      01007E33H   PUBLIC    CODE     ---       beeper_inc_music_to
      010084F4H   PUBLIC    CODE     ---       beeper_get_music_to
      00000020H.0 PUBLIC    BIT      BIT       ?beeper_set_beep_enable?BIT
      01008535H   PUBLIC    CODE     ---       beeper_set_beep_enable
      0100859AH   PUBLIC    CODE     ---       beeper_get_beep_enable
      010083E9H   PUBLIC    CODE     ---       beeper_leave_powersave
      010083E0H   PUBLIC    CODE     ---       beeper_enter_powersave
      01005F02H   PUBLIC    CODE     ---       beeper_initialize
      00000080H   SFRSYM    DATA     BYTE      P0
      00000090H   SFRSYM    DATA     BYTE      P1
      000000A0H   SFRSYM    DATA     BYTE      P2
      000000B0H   SFRSYM    DATA     BYTE      P3
      000000C0H   SFRSYM    DATA     BYTE      XICON
      000000B0H.4 SFRSYM    DATA     BIT       T0
      000000D0H.6 SFRSYM    DATA     BIT       AC
      000000E8H   SFRSYM    DATA     BYTE      P4
      000000B0H.5 SFRSYM    DATA     BIT       T1
      000000E6H   SFRSYM    DATA     BYTE      ISP_TRIG
      00000090H.0 SFRSYM    DATA     BIT       T2
      000000A8H.7 SFRSYM    DATA     BIT       EA
      000000A8H.6 SFRSYM    DATA     BIT       EC
      00000098H.7 SFRSYM    DATA     BIT       FE
      000000A8H   SFRSYM    DATA     BYTE      IE
      000000C8H.6 SFRSYM    DATA     BIT       EXF2
      000000B0H.7 SFRSYM    DATA     BIT       RD
      000000A8H.4 SFRSYM    DATA     BIT       ES
      000000B8H   SFRSYM    DATA     BYTE      IP
      00000098H.0 SFRSYM    DATA     BIT       RI
      000000B0H.2 SFRSYM    DATA     BIT       INT0
      000000D0H.7 SFRSYM    DATA     BIT       CY
      00000098H.1 SFRSYM    DATA     BIT       TI
      000000B0H.3 SFRSYM    DATA     BIT       INT1
      000000CBH   SFRSYM    DATA     BYTE      RCAP2H
      000000E5H   SFRSYM    DATA     BYTE      ISP_CMD
      000000B8H.4 SFRSYM    DATA     BIT       PS
      00000081H   SFRSYM    DATA     BYTE      SP
      00000090H.1 SFRSYM    DATA     BIT       T2EX
      000000D0H.2 SFRSYM    DATA     BIT       OV
      000000CAH   SFRSYM    DATA     BYTE      RCAP2L
      000000C8H.1 SFRSYM    DATA     BIT       C_T2
      000000B0H.6 SFRSYM    DATA     BIT       WR
      000000C8H.5 SFRSYM    DATA     BIT       RCLK
      000000C8H.4 SFRSYM    DATA     BIT       TCLK
      00000080H.0 SFRSYM    DATA     BIT       P00
      00000090H.0 SFRSYM    DATA     BIT       beeper_out
      00000099H   SFRSYM    DATA     BYTE      SBUF
      00000087H   SFRSYM    DATA     BYTE      PCON
      00000090H.0 SFRSYM    DATA     BIT       P10
      00000080H.1 SFRSYM    DATA     BIT       P01
      000000A0H.0 SFRSYM    DATA     BIT       P20
      00000090H.1 SFRSYM    DATA     BIT       P11
      00000080H.2 SFRSYM    DATA     BIT       P02
      000000E3H   SFRSYM    DATA     BYTE      ISP_ADDRH
      000000B0H.0 SFRSYM    DATA     BIT       P30
      000000A0H.1 SFRSYM    DATA     BIT       P21
      00000090H.2 SFRSYM    DATA     BIT       P12
      00000080H.3 SFRSYM    DATA     BIT       P03
      00000098H   SFRSYM    DATA     BYTE      SCON
      000000B0H.1 SFRSYM    DATA     BIT       P31
      000000A0H.2 SFRSYM    DATA     BIT       P22
      00000090H.3 SFRSYM    DATA     BIT       P13
      00000080H.4 SFRSYM    DATA     BIT       P04
      000000E8H.0 SFRSYM    DATA     BIT       P40
      00000089H   SFRSYM    DATA     BYTE      TMOD
LX51 LINKER/LOCATER V4.66.87.0                                                        05/09/2018  21:28:12  PAGE 115


      00000088H   SFRSYM    DATA     BYTE      TCON
      000000B0H.2 SFRSYM    DATA     BIT       P32
      000000A0H.3 SFRSYM    DATA     BIT       P23
      00000090H.4 SFRSYM    DATA     BIT       P14
      00000080H.5 SFRSYM    DATA     BIT       P05
      000000E8H.1 SFRSYM    DATA     BIT       P41
      000000B0H.3 SFRSYM    DATA     BIT       P33
      000000A0H.4 SFRSYM    DATA     BIT       P24
      00000090H.5 SFRSYM    DATA     BIT       P15
      00000080H.6 SFRSYM    DATA     BIT       P06
      000000E4H   SFRSYM    DATA     BYTE      ISP_ADDRL
      000000E8H.2 SFRSYM    DATA     BIT       P42
      000000B0H.4 SFRSYM    DATA     BIT       P34
      000000A0H.5 SFRSYM    DATA     BIT       P25
      00000090H.6 SFRSYM    DATA     BIT       P16
      00000080H.7 SFRSYM    DATA     BIT       P07
      000000E8H.3 SFRSYM    DATA     BIT       P43
      000000B0H.5 SFRSYM    DATA     BIT       P35
      000000A0H.6 SFRSYM    DATA     BIT       P26
      00000090H.7 SFRSYM    DATA     BIT       P17
      000000E8H.4 SFRSYM    DATA     BIT       P44
      000000B0H.6 SFRSYM    DATA     BIT       P36
      000000A0H.7 SFRSYM    DATA     BIT       P27
      000000E8H.5 SFRSYM    DATA     BIT       P45
      000000B0H.7 SFRSYM    DATA     BIT       P37
      000000E8H.6 SFRSYM    DATA     BIT       P46
      00000088H.1 SFRSYM    DATA     BIT       IE0
      00000088H.3 SFRSYM    DATA     BIT       IE1
      0000008EH   SFRSYM    DATA     BYTE      AUXR
      000000F0H   SFRSYM    DATA     BYTE      B
      000000C8H.0 SFRSYM    DATA     BIT       CP_RL2
      000000E0H   SFRSYM    DATA     BYTE      ACC
      000000A8H.1 SFRSYM    DATA     BIT       ET0
      000000A8H.3 SFRSYM    DATA     BIT       ET1
      00000088H.5 SFRSYM    DATA     BIT       TF0
      000000A8H.5 SFRSYM    DATA     BIT       ET2
      00000088H.7 SFRSYM    DATA     BIT       TF1
      000000C8H.7 SFRSYM    DATA     BIT       TF2
      00000098H.2 SFRSYM    DATA     BIT       RB8
      0000008CH   SFRSYM    DATA     BYTE      TH0
      000000A8H.0 SFRSYM    DATA     BIT       EX0
      00000088H.0 SFRSYM    DATA     BIT       IT0
      0000008DH   SFRSYM    DATA     BYTE      TH1
      00000098H.3 SFRSYM    DATA     BIT       TB8
      000000A8H.2 SFRSYM    DATA     BIT       EX1
      00000088H.2 SFRSYM    DATA     BIT       IT1
      000000CDH   SFRSYM    DATA     BYTE      TH2
      000000D0H.0 SFRSYM    DATA     BIT       P
      00000098H.7 SFRSYM    DATA     BIT       SM0
      0000008AH   SFRSYM    DATA     BYTE      TL0
      00000098H.6 SFRSYM    DATA     BIT       SM1
      0000008BH   SFRSYM    DATA     BYTE      TL1
      00000098H.5 SFRSYM    DATA     BIT       SM2
      000000CCH   SFRSYM    DATA     BYTE      TL2
      000000B8H.1 SFRSYM    DATA     BIT       PT0
      000000B8H.3 SFRSYM    DATA     BIT       PT1
      000000D0H.3 SFRSYM    DATA     BIT       RS0
      000000E7H   SFRSYM    DATA     BYTE      ISP_CONTR
      000000B8H.5 SFRSYM    DATA     BIT       PT2
      00000088H.4 SFRSYM    DATA     BIT       TR0
      000000D0H.4 SFRSYM    DATA     BIT       RS1
      00000088H.6 SFRSYM    DATA     BIT       TR1
      000000C8H.2 SFRSYM    DATA     BIT       TR2
      000000B8H.0 SFRSYM    DATA     BIT       PX0
      000000E1H   SFRSYM    DATA     BYTE      WDT_CONTR
LX51 LINKER/LOCATER V4.66.87.0                                                        05/09/2018  21:28:12  PAGE 116


      000000B8H.2 SFRSYM    DATA     BIT       PX1
      00000083H   SFRSYM    DATA     BYTE      DPH
      00000082H   SFRSYM    DATA     BYTE      DPL
      000000B7H   SFRSYM    DATA     BYTE      IPH
      000000C8H.3 SFRSYM    DATA     BIT       EXEN2
      00000098H.4 SFRSYM    DATA     BIT       REN
      000000C9H   SFRSYM    DATA     BYTE      T2MOD
      000000C8H   SFRSYM    DATA     BYTE      T2CON
      000000E2H   SFRSYM    DATA     BYTE      ISP_DATA
      000000B9H   SFRSYM    DATA     BYTE      SADEN
      000000B0H.0 SFRSYM    DATA     BIT       RXD
      000000A9H   SFRSYM    DATA     BYTE      SADDR
      000000B0H.1 SFRSYM    DATA     BIT       TXD
      000000A2H   SFRSYM    DATA     BYTE      AUXR1
      000000D0H.5 SFRSYM    DATA     BIT       F0
      000000D0H   SFRSYM    DATA     BYTE      PSW
      01009FC7H   SYMBOL    CONST    ---       music_table
      010081D7H   SYMBOL    CODE     ---       _beeper_stop_play
      00000024H.0 SYMBOL    BIT      BIT       beeper_stop
      020000C5H   SYMBOL    XDATA    BYTE      pai
      020000C6H   SYMBOL    XDATA    BYTE      beeper_music_to
      01009D2FH   SYMBOL    CONST    ---       music_table0
      01009DF1H   SYMBOL    CONST    ---       music_table1
      01009ECBH   SYMBOL    CONST    ---       music_table2
      01009F83H   SYMBOL    CONST    ---       music_table3
      01006C3CH   SYMBOL    CODE     ---       beeper_ISR
      010039DEH   SYMBOL    CODE     ---       __beepler_play
      00000024H.1 SYMBOL    BIT      BIT       beep_enable
      020000C7H   SYMBOL    XDATA    BYTE      beeper_music_index

      01007888H   BLOCK     CODE     ---       LVL=0
      ---         BLOCKEND  ---      ---       LVL=0

      01006C3CH   BLOCK     CODE     ---       LVL=0
      01006C3CH   LINE      CODE     ---       #115
      01006C4BH   LINE      CODE     ---       #118
      01006C54H   LINE      CODE     ---       #119
      01006C57H   LINE      CODE     ---       #120
      01006C59H   LINE      CODE     ---       #121
      ---         BLOCKEND  ---      ---       LVL=0

      01005F02H   BLOCK     CODE     ---       LVL=0
      01005F02H   LINE      CODE     ---       #124
      01005F02H   LINE      CODE     ---       #125
      01005F02H   LINE      CODE     ---       #126
      01005F0BH   LINE      CODE     ---       #133
      01005F0EH   LINE      CODE     ---       #137
      01005F11H   LINE      CODE     ---       #138
      01005F14H   LINE      CODE     ---       #139
      01005F17H   LINE      CODE     ---       #140
      01005F1AH   LINE      CODE     ---       #149
      01005F1CH   LINE      CODE     ---       #151
      01005F1EH   LINE      CODE     ---       #153
      01005F20H   LINE      CODE     ---       #155
      01005F2CH   LINE      CODE     ---       #156
      01005F2EH   LINE      CODE     ---       #157
      01005F38H   LINE      CODE     ---       #158
      01005F42H   LINE      CODE     ---       #159
      01005F44H   LINE      CODE     ---       #160
      ---         BLOCKEND  ---      ---       LVL=0

      010083E0H   BLOCK     CODE     ---       LVL=0
      010083E0H   LINE      CODE     ---       #162
      010083E0H   LINE      CODE     ---       #163
      010083E0H   LINE      CODE     ---       #164
LX51 LINKER/LOCATER V4.66.87.0                                                        05/09/2018  21:28:12  PAGE 117


      ---         BLOCKEND  ---      ---       LVL=0

      010083E9H   BLOCK     CODE     ---       LVL=0
      010083E9H   LINE      CODE     ---       #167
      010083E9H   LINE      CODE     ---       #168
      010083E9H   LINE      CODE     ---       #169
      ---         BLOCKEND  ---      ---       LVL=0

      0100859AH   BLOCK     CODE     ---       LVL=0
      0100859AH   LINE      CODE     ---       #172
      0100859AH   LINE      CODE     ---       #173
      0100859AH   LINE      CODE     ---       #174
      0100859CH   LINE      CODE     ---       #175
      ---         BLOCKEND  ---      ---       LVL=0

      01008535H   BLOCK     CODE     ---       LVL=0
      00000020H.0 SYMBOL    BIT      BIT       enable
      01008535H   LINE      CODE     ---       #177
      01008535H   LINE      CODE     ---       #178
      01008535H   LINE      CODE     ---       #179
      01008539H   LINE      CODE     ---       #180
      ---         BLOCKEND  ---      ---       LVL=0

      010084F4H   BLOCK     CODE     ---       LVL=0
      010084F4H   LINE      CODE     ---       #182
      010084F4H   LINE      CODE     ---       #183
      010084F4H   LINE      CODE     ---       #184
      010084F9H   LINE      CODE     ---       #185
      ---         BLOCKEND  ---      ---       LVL=0

      01007E33H   BLOCK     CODE     ---       LVL=0
      01007E33H   LINE      CODE     ---       #188
      01007E33H   LINE      CODE     ---       #189
      01007E33H   LINE      CODE     ---       #190
      01007E46H   LINE      CODE     ---       #191
      ---         BLOCKEND  ---      ---       LVL=0

      01007BADH   BLOCK     CODE     ---       LVL=0
      01007BADH   LINE      CODE     ---       #193
      01007BADH   LINE      CODE     ---       #194
      01007BADH   LINE      CODE     ---       #195
      01007BB6H   LINE      CODE     ---       #196
      ---         BLOCKEND  ---      ---       LVL=0

      010084FAH   BLOCK     CODE     ---       LVL=0
      010084FAH   LINE      CODE     ---       #199
      010084FAH   LINE      CODE     ---       #200
      010084FAH   LINE      CODE     ---       #201
      010084FFH   LINE      CODE     ---       #202
      ---         BLOCKEND  ---      ---       LVL=0

      010081D7H   BLOCK     CODE     ---       LVL=0
      010081D7H   LINE      CODE     ---       #204
      010081D7H   LINE      CODE     ---       #205
      010081D7H   LINE      CODE     ---       #206
      010081D9H   LINE      CODE     ---       #207
      010081DBH   LINE      CODE     ---       #208
      010081E0H   LINE      CODE     ---       #209
      010081E2H   LINE      CODE     ---       #210
      010081E4H   LINE      CODE     ---       #211
      ---         BLOCKEND  ---      ---       LVL=0

      010039DEH   BLOCK     CODE     ---       LVL=0
      02000013H   SYMBOL    XDATA    ---       music
      00000020H.0 SYMBOL    BIT      BIT       once
LX51 LINKER/LOCATER V4.66.87.0                                                        05/09/2018  21:28:12  PAGE 118


      010039E4H   BLOCK     CODE     NEAR LAB  LVL=1
      02000016H   SYMBOL    XDATA    BYTE      cm
      02000017H   SYMBOL    XDATA    BYTE      tune
      02000018H   SYMBOL    XDATA    BYTE      start_s
      ---         BLOCKEND  ---      ---       LVL=1
      010039DEH   LINE      CODE     ---       #213
      010039E4H   LINE      CODE     ---       #214
      010039E4H   LINE      CODE     ---       #219
      010039E4H   LINE      CODE     ---       #220
      010039E4H   LINE      CODE     ---       #221
      010039E7H   LINE      CODE     ---       #222
      010039E9H   LINE      CODE     ---       #223
      010039EFH   LINE      CODE     ---       #225
      010039F2H   LINE      CODE     ---       #226
      010039F2H   LINE      CODE     ---       #227
      01003A07H   LINE      CODE     ---       #228
      01003A07H   LINE      CODE     ---       #229
      01003A07H   LINE      CODE     ---       #230
      01003A07H   LINE      CODE     ---       #231
      01003A0AH   LINE      CODE     ---       #232
      01003A0DH   LINE      CODE     ---       #233
      01003A10H   LINE      CODE     ---       #234
      01003A12H   LINE      CODE     ---       #235
      01003A12H   LINE      CODE     ---       #237
      01003A17H   LINE      CODE     ---       #238
      01003A17H   LINE      CODE     ---       #239
      01003A19H   LINE      CODE     ---       #240
      01003A19H   LINE      CODE     ---       #241
      01003A19H   LINE      CODE     ---       #242
      01003A19H   LINE      CODE     ---       #243
      01003A1EH   LINE      CODE     ---       #244
      01003A21H   LINE      CODE     ---       #245
      01003A21H   LINE      CODE     ---       #246
      01003A21H   LINE      CODE     ---       #247
      01003A28H   LINE      CODE     ---       #248
      01003A2DH   LINE      CODE     ---       #249
      01003A2FH   LINE      CODE     ---       #250
      01003A2FH   LINE      CODE     ---       #251
      01003A3CH   LINE      CODE     ---       #252
      01003A43H   LINE      CODE     ---       #253
      01003A45H   LINE      CODE     ---       #254
      01003A47H   LINE      CODE     ---       #255
      01003A49H   LINE      CODE     ---       #256
      01003A52H   LINE      CODE     ---       #257
      01003A54H   LINE      CODE     ---       #258
      01003A5EH   LINE      CODE     ---       #259
      01003A60H   LINE      CODE     ---       #260
      01003A62H   LINE      CODE     ---       #261
      01003A62H   LINE      CODE     ---       #262
      01003A64H   LINE      CODE     ---       #263
      01003A67H   LINE      CODE     ---       #264
      01003A68H   LINE      CODE     ---       #265
      ---         BLOCKEND  ---      ---       LVL=0

      01006E4CH   BLOCK     CODE     ---       LVL=0
      01006E4CH   BLOCK     CODE     NEAR LAB  LVL=1
      0200000DH   SYMBOL    XDATA    BYTE      c
      ---         BLOCKEND  ---      ---       LVL=1
      01006E4CH   LINE      CODE     ---       #267
      01006E4CH   LINE      CODE     ---       #268
      01006E4CH   LINE      CODE     ---       #269
      01006E52H   LINE      CODE     ---       #270
      01006E5BH   LINE      CODE     ---       #271
      01006E5EH   LINE      CODE     ---       #273
      01006E60H   LINE      CODE     ---       #274
LX51 LINKER/LOCATER V4.66.87.0                                                        05/09/2018  21:28:12  PAGE 119


      01006E6AH   LINE      CODE     ---       #275
      01006E6CH   LINE      CODE     ---       #276
      01006E71H   LINE      CODE     ---       #277
      01006E73H   LINE      CODE     ---       #278
      01006E75H   LINE      CODE     ---       #279
      ---         BLOCKEND  ---      ---       LVL=0

      01006046H   BLOCK     CODE     ---       LVL=0
      01006046H   BLOCK     CODE     NEAR LAB  LVL=1
      02000014H   SYMBOL    XDATA    BYTE      c
      ---         BLOCKEND  ---      ---       LVL=1
      01006046H   LINE      CODE     ---       #281
      01006046H   LINE      CODE     ---       #282
      01006046H   LINE      CODE     ---       #283
      0100604CH   LINE      CODE     ---       #284
      01006055H   LINE      CODE     ---       #285
      01006057H   LINE      CODE     ---       #286
      01006061H   LINE      CODE     ---       #287
      01006063H   LINE      CODE     ---       #288
      01006068H   LINE      CODE     ---       #289
      0100606AH   LINE      CODE     ---       #291
      0100606FH   LINE      CODE     ---       #293
      01006079H   LINE      CODE     ---       #294
      0100607BH   LINE      CODE     ---       #295
      01006080H   LINE      CODE     ---       #296
      01006082H   LINE      CODE     ---       #297
      01006084H   LINE      CODE     ---       #298
      ---         BLOCKEND  ---      ---       LVL=0

      01005F45H   BLOCK     CODE     ---       LVL=0
      01005F45H   BLOCK     CODE     NEAR LAB  LVL=1
      0200000BH   SYMBOL    XDATA    BYTE      c
      ---         BLOCKEND  ---      ---       LVL=1
      01005F45H   LINE      CODE     ---       #300
      01005F45H   LINE      CODE     ---       #301
      01005F45H   LINE      CODE     ---       #302
      01005F4BH   LINE      CODE     ---       #303
      01005F54H   LINE      CODE     ---       #304
      01005F57H   LINE      CODE     ---       #306
      01005F59H   LINE      CODE     ---       #307
      01005F63H   LINE      CODE     ---       #308
      01005F65H   LINE      CODE     ---       #309
      01005F6AH   LINE      CODE     ---       #310
      01005F6CH   LINE      CODE     ---       #312
      01005F71H   LINE      CODE     ---       #314
      01005F7BH   LINE      CODE     ---       #315
      01005F7DH   LINE      CODE     ---       #316
      01005F82H   LINE      CODE     ---       #317
      01005F84H   LINE      CODE     ---       #318
      01005F86H   LINE      CODE     ---       #319
      ---         BLOCKEND  ---      ---       LVL=0

      010072C3H   BLOCK     CODE     ---       LVL=0
      010072C3H   LINE      CODE     ---       #321
      010072C3H   LINE      CODE     ---       #322
      010072C3H   LINE      CODE     ---       #324
      010072CCH   LINE      CODE     ---       #325
      ---         BLOCKEND  ---      ---       LVL=0

      0100859DH   BLOCK     CODE     ---       LVL=0
      0100859DH   LINE      CODE     ---       #328
      0100859DH   LINE      CODE     ---       #329
      0100859DH   LINE      CODE     ---       #330
      ---         BLOCKEND  ---      ---       LVL=0

LX51 LINKER/LOCATER V4.66.87.0                                                        05/09/2018  21:28:12  PAGE 120


      ---         MODULE    ---      ---       CLOCK
      01007CBAH   PUBLIC    CODE     ---       clock_leave_shell
      010085A3H   PUBLIC    CODE     ---       clock_enter_shell
      01007AF2H   PUBLIC    CODE     ---       clock_leave_powersave
      010081E5H   PUBLIC    CODE     ---       clock_enter_powersave
      01006C69H   PUBLIC    CODE     ---       clock_initialize
      00000020H.2 PUBLIC    BIT      BIT       ?clock_enable_interrupt?BIT
      010083F2H   PUBLIC    CODE     ---       clock_enable_interrupt
      01007656H   PUBLIC    CODE     ---       _clock_get_mon_date
      01007BC4H   PUBLIC    CODE     ---       _clock_is_leap_year
      01004B8AH   PUBLIC    CODE     ---       _clock_sync_to_rtc
      01004B1FH   PUBLIC    CODE     ---       _clock_sync_from_rtc
      01007D67H   PUBLIC    CODE     ---       clock_inc_year
      01008562H   PUBLIC    CODE     ---       clock_get_year
      01007CA4H   PUBLIC    CODE     ---       clock_inc_month
      01008512H   PUBLIC    CODE     ---       clock_get_month
      0100850CH   PUBLIC    CODE     ---       clock_get_day
      0100740FH   PUBLIC    CODE     ---       clock_inc_date
      01008506H   PUBLIC    CODE     ---       clock_get_date
      010082C3H   PUBLIC    CODE     ---       clock_inc_hour
      0100855DH   PUBLIC    CODE     ---       clock_get_hour
      010082B8H   PUBLIC    CODE     ---       clock_inc_min
      01008558H   PUBLIC    CODE     ---       clock_get_min
      01008553H   PUBLIC    CODE     ---       clock_clr_sec
      0100854EH   PUBLIC    CODE     ---       clock_get_sec
      01008549H   PUBLIC    CODE     ---       clock_get_sec_256
      01008544H   PUBLIC    CODE     ---       clock_get_ms39
      00000020H.0 PUBLIC    BIT      BIT       ?clock_set_hour_12?BIT
      0100853FH   PUBLIC    CODE     ---       clock_set_hour_12
      010085A0H   PUBLIC    CODE     ---       clock_get_hour_12
      01002663H   PUBLIC    CODE     ---       _clock_yymmdd_to_day
      01003CE7H   PUBLIC    CODE     ---       clock_dump
      01008500H   PUBLIC    CODE     ---       _clock_switch_display_mode
      00000020H.0 PUBLIC    BIT      BIT       ?clock_display?BIT
      0100853AH   PUBLIC    CODE     ---       clock_display
      00000080H   SFRSYM    DATA     BYTE      P0
      00000090H   SFRSYM    DATA     BYTE      P1
      000000A0H   SFRSYM    DATA     BYTE      P2
      000000B0H   SFRSYM    DATA     BYTE      P3
      000000C0H   SFRSYM    DATA     BYTE      XICON
      000000B0H.4 SFRSYM    DATA     BIT       T0
      000000D0H.6 SFRSYM    DATA     BIT       AC
      000000E8H   SFRSYM    DATA     BYTE      P4
      000000B0H.5 SFRSYM    DATA     BIT       T1
      000000E6H   SFRSYM    DATA     BYTE      ISP_TRIG
      00000090H.0 SFRSYM    DATA     BIT       T2
      000000A8H.7 SFRSYM    DATA     BIT       EA
      000000A8H.6 SFRSYM    DATA     BIT       EC
      00000098H.7 SFRSYM    DATA     BIT       FE
      000000A8H   SFRSYM    DATA     BYTE      IE
      000000C8H.6 SFRSYM    DATA     BIT       EXF2
      000000B0H.7 SFRSYM    DATA     BIT       RD
      000000A8H.4 SFRSYM    DATA     BIT       ES
      000000B8H   SFRSYM    DATA     BYTE      IP
      00000098H.0 SFRSYM    DATA     BIT       RI
      000000B0H.2 SFRSYM    DATA     BIT       INT0
      000000D0H.7 SFRSYM    DATA     BIT       CY
      00000098H.1 SFRSYM    DATA     BIT       TI
      000000B0H.3 SFRSYM    DATA     BIT       INT1
      000000CBH   SFRSYM    DATA     BYTE      RCAP2H
      000000E5H   SFRSYM    DATA     BYTE      ISP_CMD
      000000B8H.4 SFRSYM    DATA     BIT       PS
      00000081H   SFRSYM    DATA     BYTE      SP
      00000090H.1 SFRSYM    DATA     BIT       T2EX
      000000D0H.2 SFRSYM    DATA     BIT       OV
LX51 LINKER/LOCATER V4.66.87.0                                                        05/09/2018  21:28:12  PAGE 121


      000000CAH   SFRSYM    DATA     BYTE      RCAP2L
      000000C8H.1 SFRSYM    DATA     BIT       C_T2
      000000B0H.6 SFRSYM    DATA     BIT       WR
      000000C8H.5 SFRSYM    DATA     BIT       RCLK
      000000C8H.4 SFRSYM    DATA     BIT       TCLK
      00000080H.0 SFRSYM    DATA     BIT       P00
      00000099H   SFRSYM    DATA     BYTE      SBUF
      00000087H   SFRSYM    DATA     BYTE      PCON
      00000090H.0 SFRSYM    DATA     BIT       P10
      00000080H.1 SFRSYM    DATA     BIT       P01
      000000A0H.0 SFRSYM    DATA     BIT       P20
      00000090H.1 SFRSYM    DATA     BIT       P11
      00000080H.2 SFRSYM    DATA     BIT       P02
      000000E3H   SFRSYM    DATA     BYTE      ISP_ADDRH
      000000B0H.0 SFRSYM    DATA     BIT       P30
      000000A0H.1 SFRSYM    DATA     BIT       P21
      00000090H.2 SFRSYM    DATA     BIT       P12
      00000080H.3 SFRSYM    DATA     BIT       P03
      00000098H   SFRSYM    DATA     BYTE      SCON
      000000B0H.1 SFRSYM    DATA     BIT       P31
      000000A0H.2 SFRSYM    DATA     BIT       P22
      00000090H.3 SFRSYM    DATA     BIT       P13
      00000080H.4 SFRSYM    DATA     BIT       P04
      000000E8H.0 SFRSYM    DATA     BIT       P40
      00000089H   SFRSYM    DATA     BYTE      TMOD
      00000088H   SFRSYM    DATA     BYTE      TCON
      000000B0H.2 SFRSYM    DATA     BIT       P32
      000000A0H.3 SFRSYM    DATA     BIT       P23
      00000090H.4 SFRSYM    DATA     BIT       P14
      00000080H.5 SFRSYM    DATA     BIT       P05
      000000E8H.1 SFRSYM    DATA     BIT       P41
      000000B0H.3 SFRSYM    DATA     BIT       P33
      000000A0H.4 SFRSYM    DATA     BIT       P24
      00000090H.5 SFRSYM    DATA     BIT       P15
      00000080H.6 SFRSYM    DATA     BIT       P06
      000000E4H   SFRSYM    DATA     BYTE      ISP_ADDRL
      000000E8H.2 SFRSYM    DATA     BIT       P42
      000000B0H.4 SFRSYM    DATA     BIT       P34
      000000A0H.5 SFRSYM    DATA     BIT       P25
      00000090H.6 SFRSYM    DATA     BIT       P16
      00000080H.7 SFRSYM    DATA     BIT       P07
      000000E8H.3 SFRSYM    DATA     BIT       P43
      000000B0H.5 SFRSYM    DATA     BIT       P35
      000000A0H.6 SFRSYM    DATA     BIT       P26
      00000090H.7 SFRSYM    DATA     BIT       P17
      000000E8H.4 SFRSYM    DATA     BIT       P44
      000000B0H.6 SFRSYM    DATA     BIT       P36
      000000A0H.7 SFRSYM    DATA     BIT       P27
      000000E8H.5 SFRSYM    DATA     BIT       P45
      000000B0H.7 SFRSYM    DATA     BIT       P37
      000000E8H.6 SFRSYM    DATA     BIT       P46
      00000088H.1 SFRSYM    DATA     BIT       IE0
      00000088H.3 SFRSYM    DATA     BIT       IE1
      0000008EH   SFRSYM    DATA     BYTE      AUXR
      000000F0H   SFRSYM    DATA     BYTE      B
      000000C8H.0 SFRSYM    DATA     BIT       CP_RL2
      000000E0H   SFRSYM    DATA     BYTE      ACC
      000000A8H.1 SFRSYM    DATA     BIT       ET0
      000000A8H.3 SFRSYM    DATA     BIT       ET1
      00000088H.5 SFRSYM    DATA     BIT       TF0
      000000A8H.5 SFRSYM    DATA     BIT       ET2
      00000088H.7 SFRSYM    DATA     BIT       TF1
      000000C8H.7 SFRSYM    DATA     BIT       TF2
      00000098H.2 SFRSYM    DATA     BIT       RB8
      0000008CH   SFRSYM    DATA     BYTE      TH0
LX51 LINKER/LOCATER V4.66.87.0                                                        05/09/2018  21:28:12  PAGE 122


      000000A8H.0 SFRSYM    DATA     BIT       EX0
      00000088H.0 SFRSYM    DATA     BIT       IT0
      0000008DH   SFRSYM    DATA     BYTE      TH1
      00000098H.3 SFRSYM    DATA     BIT       TB8
      000000A8H.2 SFRSYM    DATA     BIT       EX1
      00000088H.2 SFRSYM    DATA     BIT       IT1
      000000CDH   SFRSYM    DATA     BYTE      TH2
      000000D0H.0 SFRSYM    DATA     BIT       P
      00000098H.7 SFRSYM    DATA     BIT       SM0
      0000008AH   SFRSYM    DATA     BYTE      TL0
      00000098H.6 SFRSYM    DATA     BIT       SM1
      0000008BH   SFRSYM    DATA     BYTE      TL1
      00000098H.5 SFRSYM    DATA     BIT       SM2
      000000CCH   SFRSYM    DATA     BYTE      TL2
      000000B8H.1 SFRSYM    DATA     BIT       PT0
      000000B8H.3 SFRSYM    DATA     BIT       PT1
      000000D0H.3 SFRSYM    DATA     BIT       RS0
      000000E7H   SFRSYM    DATA     BYTE      ISP_CONTR
      000000B8H.5 SFRSYM    DATA     BIT       PT2
      00000088H.4 SFRSYM    DATA     BIT       TR0
      000000D0H.4 SFRSYM    DATA     BIT       RS1
      00000088H.6 SFRSYM    DATA     BIT       TR1
      000000C8H.2 SFRSYM    DATA     BIT       TR2
      000000B8H.0 SFRSYM    DATA     BIT       PX0
      000000E1H   SFRSYM    DATA     BYTE      WDT_CONTR
      000000B8H.2 SFRSYM    DATA     BIT       PX1
      00000083H   SFRSYM    DATA     BYTE      DPH
      00000082H   SFRSYM    DATA     BYTE      DPL
      000000B7H   SFRSYM    DATA     BYTE      IPH
      000000C8H.3 SFRSYM    DATA     BIT       EXEN2
      00000098H.4 SFRSYM    DATA     BIT       REN
      000000C9H   SFRSYM    DATA     BYTE      T2MOD
      000000C8H   SFRSYM    DATA     BYTE      T2CON
      000000E2H   SFRSYM    DATA     BYTE      ISP_DATA
      000000B9H   SFRSYM    DATA     BYTE      SADEN
      000000B0H.0 SFRSYM    DATA     BIT       RXD
      000000A9H   SFRSYM    DATA     BYTE      SADDR
      000000B0H.1 SFRSYM    DATA     BIT       TXD
      000000A2H   SFRSYM    DATA     BYTE      AUXR1
      000000D0H.5 SFRSYM    DATA     BIT       F0
      000000D0H   SFRSYM    DATA     BYTE      PSW
      020000D0H   SYMBOL    XDATA    BYTE      display_mode
      010097D2H   SYMBOL    CONST    ---       date_table
      01006522H   SYMBOL    CODE     ---       clock0_ISR
      0000004BH   SYMBOL    IDATA    BYTE      sec_256
      0000004CH   SYMBOL    IDATA    ---       clk
      00000022H.7 SYMBOL    BIT      BIT       display_enable
      00000023H.0 SYMBOL    BIT      BIT       in_shell
      01001FEFH   SYMBOL    CODE     ---       clock_inc_ms39
      00000023H.1 SYMBOL    BIT      BIT       clk_is12

      01004549H   BLOCK     CODE     ---       LVL=0
      ---         BLOCKEND  ---      ---       LVL=0

      0100853AH   BLOCK     CODE     ---       LVL=0
      00000020H.0 SYMBOL    BIT      BIT       enable
      0100853AH   LINE      CODE     ---       #129
      0100853AH   LINE      CODE     ---       #130
      0100853AH   LINE      CODE     ---       #131
      0100853EH   LINE      CODE     ---       #132
      ---         BLOCKEND  ---      ---       LVL=0

      01008500H   BLOCK     CODE     ---       LVL=0
      00000007H   SYMBOL    DATA     BYTE      mode
      01008500H   LINE      CODE     ---       #134
LX51 LINKER/LOCATER V4.66.87.0                                                        05/09/2018  21:28:12  PAGE 123


      01008500H   LINE      CODE     ---       #135
      01008500H   LINE      CODE     ---       #136
      01008505H   LINE      CODE     ---       #137
      ---         BLOCKEND  ---      ---       LVL=0

      01001FEFH   BLOCK     CODE     ---       LVL=0
      01001FEFH   BLOCK     CODE     NEAR LAB  LVL=1
      00000005H   SYMBOL    DATA     BYTE      hour
      00000021H.3 SYMBOL    BIT      BIT       is_pm
      ---         BLOCKEND  ---      ---       LVL=1
      01001FEFH   LINE      CODE     ---       #140
      01001FEFH   LINE      CODE     ---       #141
      01001FEFH   LINE      CODE     ---       #145
      01001FF2H   LINE      CODE     ---       #147
      01001FFCH   LINE      CODE     ---       #148
      01002002H   LINE      CODE     ---       #149
      01002002H   LINE      CODE     ---       #151
      01002007H   LINE      CODE     ---       #152
      0100200DH   LINE      CODE     ---       #153
      0100200DH   LINE      CODE     ---       #155
      01002012H   LINE      CODE     ---       #156
      0100201CH   LINE      CODE     ---       #157
      0100201FH   LINE      CODE     ---       #158
      01002022H   LINE      CODE     ---       #159
      01002028H   LINE      CODE     ---       #160
      0100202DH   LINE      CODE     ---       #161
      01002032H   LINE      CODE     ---       #162
      01002037H   LINE      CODE     ---       #163
      0100203CH   LINE      CODE     ---       #164
      01002041H   LINE      CODE     ---       #165
      0100205DH   LINE      CODE     ---       #166
      01002067H   LINE      CODE     ---       #167
      0100206AH   LINE      CODE     ---       #168
      01002075H   LINE      CODE     ---       #169
      01002078H   LINE      CODE     ---       #170
      01002082H   LINE      CODE     ---       #171
      01002082H   LINE      CODE     ---       #172
      01002082H   LINE      CODE     ---       #173
      01002082H   LINE      CODE     ---       #174
      01002082H   LINE      CODE     ---       #175
      01002082H   LINE      CODE     ---       #176
      01002082H   LINE      CODE     ---       #177
      0100208EH   LINE      CODE     ---       #178
      01002095H   LINE      CODE     ---       #179
      01002099H   LINE      CODE     ---       #180
      0100209BH   LINE      CODE     ---       #181
      010020A3H   LINE      CODE     ---       #182
      010020A7H   LINE      CODE     ---       #183
      010020A9H   LINE      CODE     ---       #184
      010020A9H   LINE      CODE     ---       #186
      010020B0H   LINE      CODE     ---       #187
      010020BEH   LINE      CODE     ---       #188
      010020C0H   LINE      CODE     ---       #189
      010020CDH   LINE      CODE     ---       #190
      010020CDH   LINE      CODE     ---       #191
      010020D8H   LINE      CODE     ---       #192
      010020DDH   LINE      CODE     ---       #193
      010020E3H   LINE      CODE     ---       #194
      010020E8H   LINE      CODE     ---       #195
      010020F0H   LINE      CODE     ---       #196
      010020F6H   LINE      CODE     ---       #197
      01002107H   LINE      CODE     ---       #198
      0100210EH   LINE      CODE     ---       #199
      01002115H   LINE      CODE     ---       #200
      0100211FH   LINE      CODE     ---       #201
LX51 LINKER/LOCATER V4.66.87.0                                                        05/09/2018  21:28:12  PAGE 124


      01002121H   LINE      CODE     ---       #202
      01002121H   LINE      CODE     ---       #203
      01002123H   LINE      CODE     ---       #204
      0100212DH   LINE      CODE     ---       #205
      01002133H   LINE      CODE     ---       #206
      01002139H   LINE      CODE     ---       #207
      0100213FH   LINE      CODE     ---       #208
      01002146H   LINE      CODE     ---       #209
      0100214FH   LINE      CODE     ---       #210
      0100214FH   LINE      CODE     ---       #211
      0100214FH   LINE      CODE     ---       #212
      ---         BLOCKEND  ---      ---       LVL=0

      01003CE7H   BLOCK     CODE     ---       LVL=0
      01003CE7H   LINE      CODE     ---       #215
      01003CE7H   LINE      CODE     ---       #216
      01003CE7H   LINE      CODE     ---       #217
      01003CEDH   LINE      CODE     ---       #218
      01003CF9H   LINE      CODE     ---       #219
      01003CFFH   LINE      CODE     ---       #220
      01003D0BH   LINE      CODE     ---       #221
      01003D11H   LINE      CODE     ---       #222
      01003D22H   LINE      CODE     ---       #223
      01003D28H   LINE      CODE     ---       #224
      01003D39H   LINE      CODE     ---       #225
      01003D57H   LINE      CODE     ---       #226
      ---         BLOCKEND  ---      ---       LVL=0

      01002663H   BLOCK     CODE     ---       LVL=0
      00000004H   SYMBOL    DATA     BYTE      year
      00000005H   SYMBOL    DATA     BYTE      mon
      00000003H   SYMBOL    DATA     BYTE      date
      01002665H   BLOCK     CODE     NEAR LAB  LVL=1
      02000014H   SYMBOL    XDATA    WORD      d
      02000016H   SYMBOL    XDATA    WORD      m
      02000018H   SYMBOL    XDATA    WORD      y
      0200001AH   SYMBOL    XDATA    WORD      c
      ---         BLOCKEND  ---      ---       LVL=1
      01002663H   LINE      CODE     ---       #233
      01002665H   LINE      CODE     ---       #234
      01002665H   LINE      CODE     ---       #236
      01002672H   LINE      CODE     ---       #237
      0100267FH   LINE      CODE     ---       #238
      0100268BH   LINE      CODE     ---       #240
      01002694H   LINE      CODE     ---       #241
      0100269EH   LINE      CODE     ---       #242
      010026A8H   LINE      CODE     ---       #243
      010026A8H   LINE      CODE     ---       #245
      010026B7H   LINE      CODE     ---       #246
      010026CDH   LINE      CODE     ---       #248
      01002744H   LINE      CODE     ---       #249
      01002761H   LINE      CODE     ---       #251
      01002764H   LINE      CODE     ---       #252
      01002767H   LINE      CODE     ---       #253
      01002767H   LINE      CODE     ---       #255
      0100276EH   LINE      CODE     ---       #256
      ---         BLOCKEND  ---      ---       LVL=0

      010085A0H   BLOCK     CODE     ---       LVL=0
      010085A0H   LINE      CODE     ---       #258
      010085A0H   LINE      CODE     ---       #259
      010085A0H   LINE      CODE     ---       #260
      010085A2H   LINE      CODE     ---       #261
      ---         BLOCKEND  ---      ---       LVL=0

LX51 LINKER/LOCATER V4.66.87.0                                                        05/09/2018  21:28:12  PAGE 125


      0100853FH   BLOCK     CODE     ---       LVL=0
      00000020H.0 SYMBOL    BIT      BIT       enable
      0100853FH   LINE      CODE     ---       #262
      0100853FH   LINE      CODE     ---       #263
      0100853FH   LINE      CODE     ---       #264
      01008543H   LINE      CODE     ---       #265
      ---         BLOCKEND  ---      ---       LVL=0

      01008544H   BLOCK     CODE     ---       LVL=0
      01008544H   LINE      CODE     ---       #267
      01008544H   LINE      CODE     ---       #268
      01008544H   LINE      CODE     ---       #269
      01008548H   LINE      CODE     ---       #270
      ---         BLOCKEND  ---      ---       LVL=0

      01008549H   BLOCK     CODE     ---       LVL=0
      01008549H   LINE      CODE     ---       #272
      01008549H   LINE      CODE     ---       #273
      01008549H   LINE      CODE     ---       #274
      0100854DH   LINE      CODE     ---       #275
      ---         BLOCKEND  ---      ---       LVL=0

      0100854EH   BLOCK     CODE     ---       LVL=0
      0100854EH   LINE      CODE     ---       #277
      0100854EH   LINE      CODE     ---       #278
      0100854EH   LINE      CODE     ---       #279
      01008552H   LINE      CODE     ---       #280
      ---         BLOCKEND  ---      ---       LVL=0

      01008553H   BLOCK     CODE     ---       LVL=0
      01008553H   LINE      CODE     ---       #281
      01008553H   LINE      CODE     ---       #282
      01008553H   LINE      CODE     ---       #283
      01008557H   LINE      CODE     ---       #284
      ---         BLOCKEND  ---      ---       LVL=0

      01008558H   BLOCK     CODE     ---       LVL=0
      01008558H   LINE      CODE     ---       #286
      01008558H   LINE      CODE     ---       #287
      01008558H   LINE      CODE     ---       #288
      0100855CH   LINE      CODE     ---       #289
      ---         BLOCKEND  ---      ---       LVL=0

      010082B8H   BLOCK     CODE     ---       LVL=0
      010082B8H   LINE      CODE     ---       #290
      010082B8H   LINE      CODE     ---       #291
      010082B8H   LINE      CODE     ---       #292
      010082C2H   LINE      CODE     ---       #293
      ---         BLOCKEND  ---      ---       LVL=0

      0100855DH   BLOCK     CODE     ---       LVL=0
      0100855DH   LINE      CODE     ---       #295
      0100855DH   LINE      CODE     ---       #296
      0100855DH   LINE      CODE     ---       #297
      01008561H   LINE      CODE     ---       #298
      ---         BLOCKEND  ---      ---       LVL=0

      010082C3H   BLOCK     CODE     ---       LVL=0
      010082C3H   LINE      CODE     ---       #299
      010082C3H   LINE      CODE     ---       #300
      010082C3H   LINE      CODE     ---       #301
      010082CDH   LINE      CODE     ---       #302
      ---         BLOCKEND  ---      ---       LVL=0

      01008506H   BLOCK     CODE     ---       LVL=0
LX51 LINKER/LOCATER V4.66.87.0                                                        05/09/2018  21:28:12  PAGE 126


      01008506H   LINE      CODE     ---       #305
      01008506H   LINE      CODE     ---       #306
      01008506H   LINE      CODE     ---       #307
      0100850BH   LINE      CODE     ---       #308
      ---         BLOCKEND  ---      ---       LVL=0

      0100740FH   BLOCK     CODE     ---       LVL=0
      0100740FH   LINE      CODE     ---       #309
      0100740FH   LINE      CODE     ---       #310
      0100740FH   LINE      CODE     ---       #311
      01007422H   LINE      CODE     ---       #312
      0100742EH   LINE      CODE     ---       #313
      ---         BLOCKEND  ---      ---       LVL=0

      0100850CH   BLOCK     CODE     ---       LVL=0
      0100850CH   LINE      CODE     ---       #315
      0100850CH   LINE      CODE     ---       #316
      0100850CH   LINE      CODE     ---       #317
      01008511H   LINE      CODE     ---       #318
      ---         BLOCKEND  ---      ---       LVL=0

      01008512H   BLOCK     CODE     ---       LVL=0
      01008512H   LINE      CODE     ---       #320
      01008512H   LINE      CODE     ---       #321
      01008512H   LINE      CODE     ---       #322
      01008517H   LINE      CODE     ---       #323
      ---         BLOCKEND  ---      ---       LVL=0

      01007CA4H   BLOCK     CODE     ---       LVL=0
      01007CA4H   LINE      CODE     ---       #324
      01007CA4H   LINE      CODE     ---       #325
      01007CA4H   LINE      CODE     ---       #326
      01007CAEH   LINE      CODE     ---       #327
      01007CB9H   LINE      CODE     ---       #328
      ---         BLOCKEND  ---      ---       LVL=0

      01008562H   BLOCK     CODE     ---       LVL=0
      01008562H   LINE      CODE     ---       #330
      01008562H   LINE      CODE     ---       #331
      01008562H   LINE      CODE     ---       #332
      01008566H   LINE      CODE     ---       #333
      ---         BLOCKEND  ---      ---       LVL=0

      01007D67H   BLOCK     CODE     ---       LVL=0
      01007D67H   LINE      CODE     ---       #334
      01007D67H   LINE      CODE     ---       #335
      01007D67H   LINE      CODE     ---       #336
      01007D71H   LINE      CODE     ---       #337
      01007D7BH   LINE      CODE     ---       #338
      ---         BLOCKEND  ---      ---       LVL=0

      01004B1FH   BLOCK     CODE     ---       LVL=0
      02000013H   SYMBOL    XDATA    BYTE      type
      01004B1FH   LINE      CODE     ---       #340
      01004B24H   LINE      CODE     ---       #341
      01004B24H   LINE      CODE     ---       #342
      01004B31H   LINE      CODE     ---       #343
      01004B36H   LINE      CODE     ---       #344
      01004B3CH   LINE      CODE     ---       #345
      01004B40H   LINE      CODE     ---       #346
      01004B47H   LINE      CODE     ---       #347
      01004B4DH   LINE      CODE     ---       #348
      01004B53H   LINE      CODE     ---       #349
      01004B56H   LINE      CODE     ---       #350
      01004B5BH   LINE      CODE     ---       #351
LX51 LINKER/LOCATER V4.66.87.0                                                        05/09/2018  21:28:12  PAGE 127


      01004B64H   LINE      CODE     ---       #352
      01004B69H   LINE      CODE     ---       #353
      01004B70H   LINE      CODE     ---       #354
      01004B77H   LINE      CODE     ---       #355
      01004B7EH   LINE      CODE     ---       #356
      01004B85H   LINE      CODE     ---       #357
      01004B85H   LINE      CODE     ---       #358
      ---         BLOCKEND  ---      ---       LVL=0

      01004B8AH   BLOCK     CODE     ---       LVL=0
      02000014H   SYMBOL    XDATA    BYTE      type
      01004B8AH   LINE      CODE     ---       #361
      01004B8FH   LINE      CODE     ---       #362
      01004B8FH   LINE      CODE     ---       #363
      01004B9CH   LINE      CODE     ---       #364
      01004BA1H   LINE      CODE     ---       #365
      01004BA7H   LINE      CODE     ---       #366
      01004BABH   LINE      CODE     ---       #367
      01004BB2H   LINE      CODE     ---       #368
      01004BB8H   LINE      CODE     ---       #369
      01004BBEH   LINE      CODE     ---       #370
      01004BC5H   LINE      CODE     ---       #371
      01004BC7H   LINE      CODE     ---       #372
      01004BD1H   LINE      CODE     ---       #373
      01004BD6H   LINE      CODE     ---       #374
      01004BDDH   LINE      CODE     ---       #375
      01004BE4H   LINE      CODE     ---       #376
      01004BEBH   LINE      CODE     ---       #377
      01004BF0H   LINE      CODE     ---       #378
      01004BF0H   LINE      CODE     ---       #379
      ---         BLOCKEND  ---      ---       LVL=0

      01006522H   BLOCK     CODE     ---       LVL=0
      01006522H   LINE      CODE     ---       #382
      01006536H   LINE      CODE     ---       #384
      01006539H   LINE      CODE     ---       #385
      0100653DH   LINE      CODE     ---       #387
      0100653DH   LINE      CODE     ---       #389
      01006540H   LINE      CODE     ---       #390
      01006543H   LINE      CODE     ---       #392
      01006546H   LINE      CODE     ---       #394
      01006548H   LINE      CODE     ---       #395
      ---         BLOCKEND  ---      ---       LVL=0

      01007BC4H   BLOCK     CODE     ---       LVL=0
      00000007H   SYMBOL    DATA     BYTE      year
      01007BC4H   LINE      CODE     ---       #399
      01007BC4H   LINE      CODE     ---       #400
      01007BC4H   LINE      CODE     ---       #401
      01007BCCH   LINE      CODE     ---       #402
      01007BDAH   LINE      CODE     ---       #403
      ---         BLOCKEND  ---      ---       LVL=0

      01007656H   BLOCK     CODE     ---       LVL=0
      00000007H   SYMBOL    DATA     BYTE      year
      00000005H   SYMBOL    DATA     BYTE      mon
      01007656H   LINE      CODE     ---       #405
      01007656H   LINE      CODE     ---       #406
      01007656H   LINE      CODE     ---       #407
      0100765EH   LINE      CODE     ---       #408
      01007666H   LINE      CODE     ---       #409
      01007672H   LINE      CODE     ---       #410
      ---         BLOCKEND  ---      ---       LVL=0

      010083F2H   BLOCK     CODE     ---       LVL=0
LX51 LINKER/LOCATER V4.66.87.0                                                        05/09/2018  21:28:12  PAGE 128


      00000020H.2 SYMBOL    BIT      BIT       enable
      010083F2H   LINE      CODE     ---       #412
      010083F2H   LINE      CODE     ---       #413
      010083F2H   LINE      CODE     ---       #414
      010083F6H   LINE      CODE     ---       #415
      010083FAH   LINE      CODE     ---       #416
      ---         BLOCKEND  ---      ---       LVL=0

      01006C69H   BLOCK     CODE     ---       LVL=0
      01006C69H   LINE      CODE     ---       #418
      01006C69H   LINE      CODE     ---       #419
      01006C69H   LINE      CODE     ---       #420
      01006C72H   LINE      CODE     ---       #421
      01006C77H   LINE      CODE     ---       #422
      01006C7CH   LINE      CODE     ---       #427
      01006C7FH   LINE      CODE     ---       #428
      01006C82H   LINE      CODE     ---       #429
      01006C85H   LINE      CODE     ---       #430
      01006C87H   LINE      CODE     ---       #431
      01006C8CH   LINE      CODE     ---       #432
      01006C8EH   LINE      CODE     ---       #434
      01006C93H   LINE      CODE     ---       #436
      ---         BLOCKEND  ---      ---       LVL=0

      010081E5H   BLOCK     CODE     ---       LVL=0
      010081E5H   LINE      CODE     ---       #440
      010081E5H   LINE      CODE     ---       #441
      010081E5H   LINE      CODE     ---       #442
      010081EEH   LINE      CODE     ---       #443
      ---         BLOCKEND  ---      ---       LVL=0

      01007AF2H   BLOCK     CODE     ---       LVL=0
      01007AF2H   LINE      CODE     ---       #446
      01007AF2H   LINE      CODE     ---       #447
      01007AF2H   LINE      CODE     ---       #448
      01007AFBH   LINE      CODE     ---       #449
      01007B00H   LINE      CODE     ---       #450
      01007B05H   LINE      CODE     ---       #451
      ---         BLOCKEND  ---      ---       LVL=0

      010085A3H   BLOCK     CODE     ---       LVL=0
      010085A3H   LINE      CODE     ---       #454
      010085A3H   LINE      CODE     ---       #455
      010085A3H   LINE      CODE     ---       #456
      010085A5H   LINE      CODE     ---       #457
      ---         BLOCKEND  ---      ---       LVL=0

      01007CBAH   BLOCK     CODE     ---       LVL=0
      01007CBAH   LINE      CODE     ---       #459
      01007CBAH   LINE      CODE     ---       #460
      01007CBAH   LINE      CODE     ---       #461
      01007CBCH   LINE      CODE     ---       #462
      01007CC1H   LINE      CODE     ---       #463
      01007CC6H   LINE      CODE     ---       #464
      01007CCBH   LINE      CODE     ---       #465
      ---         BLOCKEND  ---      ---       LVL=0

      ---         MODULE    ---      ---       TIMER
      01007B0AH   PUBLIC    CODE     ---       timer_clr
      010085A6H   PUBLIC    CODE     ---       timer_stop
      010076C9H   PUBLIC    CODE     ---       _timer_get_ms10
      01007A75H   PUBLIC    CODE     ---       _timer_inc_sec
      01007A5CH   PUBLIC    CODE     ---       _timer_get_sec
      01007A43H   PUBLIC    CODE     ---       _timer_inc_min
      01007A2AH   PUBLIC    CODE     ---       _timer_get_min
LX51 LINKER/LOCATER V4.66.87.0                                                        05/09/2018  21:28:12  PAGE 129


      010076ADH   PUBLIC    CODE     ---       _timer_inc_hour
      01007A11H   PUBLIC    CODE     ---       _timer_get_hour
      01007185H   PUBLIC    CODE     ---       _timer_save
      01007CD0H   PUBLIC    CODE     ---       timer_start
      01008518H   PUBLIC    CODE     ---       _timer_set_mode
      00000020H.0 PUBLIC    BIT      BIT       ?timer_set_led_autorefresh?BIT
      02000014H   PUBLIC    XDATA    BYTE      ?timer_set_led_autorefresh?BYTE
      0100808CH   PUBLIC    CODE     ---       timer_set_led_autorefresh
      010083FBH   PUBLIC    CODE     ---       timer_leave_powersave
      01008242H   PUBLIC    CODE     ---       timer_enter_powersave
      01007F41H   PUBLIC    CODE     ---       timer_initialize
      01002E05H   PUBLIC    CODE     ---       timer_inc_ms39
      00000021H.4 SYMBOL    BIT      BIT       tmr_display
      00000021H.5 SYMBOL    BIT      BIT       tmr_countdown_stop
      00000036H   SYMBOL    IDATA    ---       tmr
      020000D1H   SYMBOL    XDATA    BYTE      tmr_mode
      00000021H.6 SYMBOL    BIT      BIT       tmr_start
      00000021H.7 SYMBOL    BIT      BIT       tmr_disp_mmssms

      01006592H   BLOCK     CODE     ---       LVL=0
      ---         BLOCKEND  ---      ---       LVL=0

      01002E05H   BLOCK     CODE     ---       LVL=0
      01002E05H   BLOCK     CODE     NEAR LAB  LVL=1
      00000007H   SYMBOL    DATA     BYTE      ms10
      ---         BLOCKEND  ---      ---       LVL=1
      01002E05H   LINE      CODE     ---       #18
      01002E05H   LINE      CODE     ---       #19
      01002E05H   LINE      CODE     ---       #22
      01002E0BH   LINE      CODE     ---       #25
      01002E11H   LINE      CODE     ---       #26
      01002E14H   LINE      CODE     ---       #27
      01002E17H   LINE      CODE     ---       #28
      01002E1DH   LINE      CODE     ---       #29
      01002E20H   LINE      CODE     ---       #30
      01002E26H   LINE      CODE     ---       #31
      01002E29H   LINE      CODE     ---       #32
      01002E33H   LINE      CODE     ---       #33
      01002E33H   LINE      CODE     ---       #34
      01002E33H   LINE      CODE     ---       #35
      01002E33H   LINE      CODE     ---       #36
      01002E35H   LINE      CODE     ---       #37
      01002E38H   LINE      CODE     ---       #38
      01002E49H   LINE      CODE     ---       #41
      01002E49H   LINE      CODE     ---       #42
      01002E4CH   LINE      CODE     ---       #43
      01002E50H   LINE      CODE     ---       #44
      01002E52H   LINE      CODE     ---       #45
      01002E56H   LINE      CODE     ---       #46
      01002E58H   LINE      CODE     ---       #47
      01002E5AH   LINE      CODE     ---       #48
      01002E5EH   LINE      CODE     ---       #49
      01002E60H   LINE      CODE     ---       #50
      01002E67H   LINE      CODE     ---       #51
      01002E68H   LINE      CODE     ---       #52
      01002E68H   LINE      CODE     ---       #53
      01002E68H   LINE      CODE     ---       #54
      01002E68H   LINE      CODE     ---       #55
      01002E68H   LINE      CODE     ---       #56
      01002E6AH   LINE      CODE     ---       #57
      01002E6CH   LINE      CODE     ---       #58
      01002E75H   LINE      CODE     ---       #59
      01002E75H   LINE      CODE     ---       #60
      01002E75H   LINE      CODE     ---       #61
      01002E75H   LINE      CODE     ---       #62
LX51 LINKER/LOCATER V4.66.87.0                                                        05/09/2018  21:28:12  PAGE 130


      01002E78H   LINE      CODE     ---       #63
      01002E80H   LINE      CODE     ---       #64
      01002E83H   LINE      CODE     ---       #65
      01002E92H   LINE      CODE     ---       #66
      01002E96H   LINE      CODE     ---       #67
      01002EA2H   LINE      CODE     ---       #68
      01002EA6H   LINE      CODE     ---       #69
      01002EADH   LINE      CODE     ---       #70
      01002EADH   LINE      CODE     ---       #71
      01002EAFH   LINE      CODE     ---       #72
      01002EB9H   LINE      CODE     ---       #73
      01002EBCH   LINE      CODE     ---       #74
      01002EC3H   LINE      CODE     ---       #75
      01002EC6H   LINE      CODE     ---       #76
      01002ECEH   LINE      CODE     ---       #77
      01002ED1H   LINE      CODE     ---       #78
      01002ED1H   LINE      CODE     ---       #79
      01002ED7H   LINE      CODE     ---       #80
      01002EDDH   LINE      CODE     ---       #81
      01002EDDH   LINE      CODE     ---       #82
      ---         BLOCKEND  ---      ---       LVL=0

      01007F41H   BLOCK     CODE     ---       LVL=0
      01007F41H   LINE      CODE     ---       #85
      01007F41H   LINE      CODE     ---       #86
      01007F41H   LINE      CODE     ---       #87
      01007F4AH   LINE      CODE     ---       #89
      01007F4CH   LINE      CODE     ---       #90
      01007F4EH   LINE      CODE     ---       #91
      01007F50H   LINE      CODE     ---       #92
      01007F52H   LINE      CODE     ---       #93
      ---         BLOCKEND  ---      ---       LVL=0

      01008242H   BLOCK     CODE     ---       LVL=0
      01008242H   LINE      CODE     ---       #95
      01008242H   LINE      CODE     ---       #96
      01008242H   LINE      CODE     ---       #97
      0100824BH   LINE      CODE     ---       #98
      ---         BLOCKEND  ---      ---       LVL=0

      010083FBH   BLOCK     CODE     ---       LVL=0
      010083FBH   LINE      CODE     ---       #101
      010083FBH   LINE      CODE     ---       #102
      010083FBH   LINE      CODE     ---       #103
      ---         BLOCKEND  ---      ---       LVL=0

      0100808CH   BLOCK     CODE     ---       LVL=0
      00000020H.0 SYMBOL    BIT      BIT       enable
      02000014H   SYMBOL    XDATA    BYTE      mode
      0100808CH   LINE      CODE     ---       #106
      0100808CH   LINE      CODE     ---       #107
      0100808CH   LINE      CODE     ---       #108
      01008090H   LINE      CODE     ---       #109
      01008096H   LINE      CODE     ---       #110
      01008098H   LINE      CODE     ---       #111
      01008099H   LINE      CODE     ---       #112
      0100809BH   LINE      CODE     ---       #113
      0100809BH   LINE      CODE     ---       #114
      ---         BLOCKEND  ---      ---       LVL=0

      01008518H   BLOCK     CODE     ---       LVL=0
      00000007H   SYMBOL    DATA     BYTE      mode
      01008518H   LINE      CODE     ---       #116
      01008518H   LINE      CODE     ---       #117
      01008518H   LINE      CODE     ---       #118
LX51 LINKER/LOCATER V4.66.87.0                                                        05/09/2018  21:28:12  PAGE 131


      0100851DH   LINE      CODE     ---       #119
      ---         BLOCKEND  ---      ---       LVL=0

      01007CD0H   BLOCK     CODE     ---       LVL=0
      01007CD0H   LINE      CODE     ---       #121
      01007CD0H   LINE      CODE     ---       #122
      01007CD0H   LINE      CODE     ---       #123
      01007CE1H   LINE      CODE     ---       #124
      01007CE3H   LINE      CODE     ---       #125
      01007CE5H   LINE      CODE     ---       #126
      ---         BLOCKEND  ---      ---       LVL=0

      01007185H   BLOCK     CODE     ---       LVL=0
      00000007H   SYMBOL    DATA     BYTE      slot
      01007185H   LINE      CODE     ---       #128
      01007185H   LINE      CODE     ---       #129
      01007185H   LINE      CODE     ---       #130
      01007190H   LINE      CODE     ---       #131
      010071A8H   LINE      CODE     ---       #132
      010071A8H   LINE      CODE     ---       #133
      ---         BLOCKEND  ---      ---       LVL=0

      01007A11H   BLOCK     CODE     ---       LVL=0
      00000007H   SYMBOL    DATA     BYTE      slot
      01007A11H   LINE      CODE     ---       #135
      01007A11H   LINE      CODE     ---       #136
      01007A11H   LINE      CODE     ---       #137
      01007A1CH   LINE      CODE     ---       #138
      01007A27H   LINE      CODE     ---       #139
      01007A27H   LINE      CODE     ---       #140
      01007A29H   LINE      CODE     ---       #141
      ---         BLOCKEND  ---      ---       LVL=0

      010076ADH   BLOCK     CODE     ---       LVL=0
      00000007H   SYMBOL    DATA     BYTE      slot
      010076ADH   LINE      CODE     ---       #142
      010076ADH   LINE      CODE     ---       #143
      010076ADH   LINE      CODE     ---       #144
      010076B8H   LINE      CODE     ---       #145
      010076C8H   LINE      CODE     ---       #146
      010076C8H   LINE      CODE     ---       #147
      ---         BLOCKEND  ---      ---       LVL=0

      01007A2AH   BLOCK     CODE     ---       LVL=0
      00000007H   SYMBOL    DATA     BYTE      slot
      01007A2AH   LINE      CODE     ---       #149
      01007A2AH   LINE      CODE     ---       #150
      01007A2AH   LINE      CODE     ---       #151
      01007A35H   LINE      CODE     ---       #152
      01007A40H   LINE      CODE     ---       #153
      01007A40H   LINE      CODE     ---       #154
      01007A42H   LINE      CODE     ---       #155
      ---         BLOCKEND  ---      ---       LVL=0

      01007A43H   BLOCK     CODE     ---       LVL=0
      00000007H   SYMBOL    DATA     BYTE      slot
      01007A43H   LINE      CODE     ---       #156
      01007A43H   LINE      CODE     ---       #157
      01007A43H   LINE      CODE     ---       #158
      01007A4EH   LINE      CODE     ---       #159
      01007A5BH   LINE      CODE     ---       #160
      01007A5BH   LINE      CODE     ---       #161
      ---         BLOCKEND  ---      ---       LVL=0

      01007A5CH   BLOCK     CODE     ---       LVL=0
LX51 LINKER/LOCATER V4.66.87.0                                                        05/09/2018  21:28:12  PAGE 132


      00000007H   SYMBOL    DATA     BYTE      slot
      01007A5CH   LINE      CODE     ---       #164
      01007A5CH   LINE      CODE     ---       #165
      01007A5CH   LINE      CODE     ---       #166
      01007A67H   LINE      CODE     ---       #167
      01007A72H   LINE      CODE     ---       #168
      01007A72H   LINE      CODE     ---       #169
      01007A74H   LINE      CODE     ---       #170
      ---         BLOCKEND  ---      ---       LVL=0

      01007A75H   BLOCK     CODE     ---       LVL=0
      00000007H   SYMBOL    DATA     BYTE      slot
      01007A75H   LINE      CODE     ---       #171
      01007A75H   LINE      CODE     ---       #172
      01007A75H   LINE      CODE     ---       #173
      01007A80H   LINE      CODE     ---       #174
      01007A8DH   LINE      CODE     ---       #175
      01007A8DH   LINE      CODE     ---       #176
      ---         BLOCKEND  ---      ---       LVL=0

      010076C9H   BLOCK     CODE     ---       LVL=0
      00000007H   SYMBOL    DATA     BYTE      slot
      010076C9H   LINE      CODE     ---       #178
      010076C9H   LINE      CODE     ---       #179
      010076C9H   LINE      CODE     ---       #181
      010076D4H   LINE      CODE     ---       #182
      010076E2H   LINE      CODE     ---       #183
      010076E2H   LINE      CODE     ---       #184
      010076E4H   LINE      CODE     ---       #185
      ---         BLOCKEND  ---      ---       LVL=0

      010085A6H   BLOCK     CODE     ---       LVL=0
      010085A6H   LINE      CODE     ---       #187
      010085A6H   LINE      CODE     ---       #188
      010085A6H   LINE      CODE     ---       #189
      010085A8H   LINE      CODE     ---       #190
      ---         BLOCKEND  ---      ---       LVL=0

      01007B0AH   BLOCK     CODE     ---       LVL=0
      01007B0AH   LINE      CODE     ---       #192
      01007B0AH   LINE      CODE     ---       #193
      01007B0AH   LINE      CODE     ---       #194
      01007B19H   LINE      CODE     ---       #196
      01007B1BH   LINE      CODE     ---       #197
      01007B1DH   LINE      CODE     ---       #198
      01007B1FH   LINE      CODE     ---       #199
      01007B21H   LINE      CODE     ---       #200
      ---         BLOCKEND  ---      ---       LVL=0

      ---         MODULE    ---      ---       INT_HUB
      01005108H   PUBLIC    CODE     ---       _scan_int_hub_proc
      01000EF7H   PUBLIC    CODE     ---       _int_hub_dump_ext_status
      01004E62H   PUBLIC    CODE     ---       int_hub_get_status
      01004F88H   PUBLIC    CODE     ---       int_hub_dump
      01006FE7H   PUBLIC    CODE     ---       _int_hub_test_bit
      01004A47H   PUBLIC    CODE     ---       int_hub_initialize
      00000080H   SFRSYM    DATA     BYTE      P0
      00000090H   SFRSYM    DATA     BYTE      P1
      000000A0H   SFRSYM    DATA     BYTE      P2
      000000B0H   SFRSYM    DATA     BYTE      P3
      000000C0H   SFRSYM    DATA     BYTE      XICON
      000000B0H.4 SFRSYM    DATA     BIT       T0
      000000D0H.6 SFRSYM    DATA     BIT       AC
      000000E8H   SFRSYM    DATA     BYTE      P4
      000000B0H.5 SFRSYM    DATA     BIT       T1
LX51 LINKER/LOCATER V4.66.87.0                                                        05/09/2018  21:28:12  PAGE 133


      000000E6H   SFRSYM    DATA     BYTE      ISP_TRIG
      00000090H.0 SFRSYM    DATA     BIT       T2
      000000A8H.7 SFRSYM    DATA     BIT       EA
      000000A8H.6 SFRSYM    DATA     BIT       EC
      00000098H.7 SFRSYM    DATA     BIT       FE
      000000A8H   SFRSYM    DATA     BYTE      IE
      000000C8H.6 SFRSYM    DATA     BIT       EXF2
      000000B0H.7 SFRSYM    DATA     BIT       RD
      000000A8H.4 SFRSYM    DATA     BIT       ES
      000000B8H   SFRSYM    DATA     BYTE      IP
      00000098H.0 SFRSYM    DATA     BIT       RI
      000000B0H.2 SFRSYM    DATA     BIT       INT0
      000000D0H.7 SFRSYM    DATA     BIT       CY
      00000098H.1 SFRSYM    DATA     BIT       TI
      000000B0H.3 SFRSYM    DATA     BIT       INT1
      00000090H.3 SFRSYM    DATA     BIT       THERMO_INT
      000000CBH   SFRSYM    DATA     BYTE      RCAP2H
      000000E5H   SFRSYM    DATA     BYTE      ISP_CMD
      000000B8H.4 SFRSYM    DATA     BIT       PS
      00000081H   SFRSYM    DATA     BYTE      SP
      00000090H.1 SFRSYM    DATA     BIT       T2EX
      000000D0H.2 SFRSYM    DATA     BIT       OV
      000000CAH   SFRSYM    DATA     BYTE      RCAP2L
      000000C8H.1 SFRSYM    DATA     BIT       C_T2
      000000B0H.6 SFRSYM    DATA     BIT       WR
      000000B0H.3 SFRSYM    DATA     BIT       INT_BIT
      000000C8H.5 SFRSYM    DATA     BIT       RCLK
      000000C8H.4 SFRSYM    DATA     BIT       TCLK
      00000080H.0 SFRSYM    DATA     BIT       P00
      00000099H   SFRSYM    DATA     BYTE      SBUF
      00000087H   SFRSYM    DATA     BYTE      PCON
      00000090H.0 SFRSYM    DATA     BIT       P10
      00000080H.1 SFRSYM    DATA     BIT       P01
      000000A0H.0 SFRSYM    DATA     BIT       P20
      00000090H.1 SFRSYM    DATA     BIT       P11
      00000080H.2 SFRSYM    DATA     BIT       P02
      000000E3H   SFRSYM    DATA     BYTE      ISP_ADDRH
      000000B0H.0 SFRSYM    DATA     BIT       P30
      000000A0H.1 SFRSYM    DATA     BIT       P21
      00000090H.2 SFRSYM    DATA     BIT       P12
      00000080H.3 SFRSYM    DATA     BIT       P03
      00000098H   SFRSYM    DATA     BYTE      SCON
      000000B0H.1 SFRSYM    DATA     BIT       P31
      000000A0H.2 SFRSYM    DATA     BIT       P22
      00000090H.3 SFRSYM    DATA     BIT       P13
      00000080H.4 SFRSYM    DATA     BIT       P04
      000000E8H.0 SFRSYM    DATA     BIT       P40
      00000089H   SFRSYM    DATA     BYTE      TMOD
      00000088H   SFRSYM    DATA     BYTE      TCON
      000000B0H.2 SFRSYM    DATA     BIT       P32
      000000A0H.3 SFRSYM    DATA     BIT       P23
      00000090H.4 SFRSYM    DATA     BIT       P14
      00000080H.5 SFRSYM    DATA     BIT       P05
      000000E8H.1 SFRSYM    DATA     BIT       P41
      00000090H.1 SFRSYM    DATA     BIT       RTC_INT
      000000B0H.3 SFRSYM    DATA     BIT       P33
      000000A0H.4 SFRSYM    DATA     BIT       P24
      00000090H.5 SFRSYM    DATA     BIT       P15
      00000080H.6 SFRSYM    DATA     BIT       P06
      000000E4H   SFRSYM    DATA     BYTE      ISP_ADDRL
      000000E8H.2 SFRSYM    DATA     BIT       P42
      000000B0H.4 SFRSYM    DATA     BIT       P34
      000000A0H.5 SFRSYM    DATA     BIT       P25
      00000090H.6 SFRSYM    DATA     BIT       P16
      00000080H.7 SFRSYM    DATA     BIT       P07
LX51 LINKER/LOCATER V4.66.87.0                                                        05/09/2018  21:28:12  PAGE 134


      000000E8H.3 SFRSYM    DATA     BIT       P43
      000000B0H.5 SFRSYM    DATA     BIT       P35
      000000A0H.6 SFRSYM    DATA     BIT       P26
      00000090H.7 SFRSYM    DATA     BIT       P17
      000000E8H.4 SFRSYM    DATA     BIT       P44
      000000B0H.6 SFRSYM    DATA     BIT       P36
      000000A0H.7 SFRSYM    DATA     BIT       P27
      000000E8H.5 SFRSYM    DATA     BIT       P45
      000000B0H.7 SFRSYM    DATA     BIT       P37
      000000E8H.6 SFRSYM    DATA     BIT       P46
      00000090H.4 SFRSYM    DATA     BIT       EXT_INT
      00000088H.1 SFRSYM    DATA     BIT       IE0
      00000090H.2 SFRSYM    DATA     BIT       MPU_INT
      00000088H.3 SFRSYM    DATA     BIT       IE1
      0000008EH   SFRSYM    DATA     BYTE      AUXR
      000000F0H   SFRSYM    DATA     BYTE      B
      000000C8H.0 SFRSYM    DATA     BIT       CP_RL2
      000000E0H   SFRSYM    DATA     BYTE      ACC
      000000A8H.1 SFRSYM    DATA     BIT       ET0
      000000A8H.3 SFRSYM    DATA     BIT       ET1
      00000088H.5 SFRSYM    DATA     BIT       TF0
      000000A8H.5 SFRSYM    DATA     BIT       ET2
      00000088H.7 SFRSYM    DATA     BIT       TF1
      000000C8H.7 SFRSYM    DATA     BIT       TF2
      00000098H.2 SFRSYM    DATA     BIT       RB8
      0000008CH   SFRSYM    DATA     BYTE      TH0
      000000A8H.0 SFRSYM    DATA     BIT       EX0
      00000088H.0 SFRSYM    DATA     BIT       IT0
      0000008DH   SFRSYM    DATA     BYTE      TH1
      00000098H.3 SFRSYM    DATA     BIT       TB8
      000000A8H.2 SFRSYM    DATA     BIT       EX1
      00000088H.2 SFRSYM    DATA     BIT       IT1
      000000CDH   SFRSYM    DATA     BYTE      TH2
      000000D0H.0 SFRSYM    DATA     BIT       P
      00000098H.7 SFRSYM    DATA     BIT       SM0
      0000008AH   SFRSYM    DATA     BYTE      TL0
      00000098H.6 SFRSYM    DATA     BIT       SM1
      0000008BH   SFRSYM    DATA     BYTE      TL1
      00000098H.5 SFRSYM    DATA     BIT       SM2
      000000CCH   SFRSYM    DATA     BYTE      TL2
      000000B8H.1 SFRSYM    DATA     BIT       PT0
      000000B8H.3 SFRSYM    DATA     BIT       PT1
      000000D0H.3 SFRSYM    DATA     BIT       RS0
      000000E7H   SFRSYM    DATA     BYTE      ISP_CONTR
      000000B8H.5 SFRSYM    DATA     BIT       PT2
      00000088H.4 SFRSYM    DATA     BIT       TR0
      000000D0H.4 SFRSYM    DATA     BIT       RS1
      00000088H.6 SFRSYM    DATA     BIT       TR1
      000000C8H.2 SFRSYM    DATA     BIT       TR2
      000000B8H.0 SFRSYM    DATA     BIT       PX0
      000000E1H   SFRSYM    DATA     BYTE      WDT_CONTR
      000000B8H.2 SFRSYM    DATA     BIT       PX1
      00000083H   SFRSYM    DATA     BYTE      DPH
      00000082H   SFRSYM    DATA     BYTE      DPL
      000000B7H   SFRSYM    DATA     BYTE      IPH
      000000C8H.3 SFRSYM    DATA     BIT       EXEN2
      00000098H.4 SFRSYM    DATA     BIT       REN
      000000C9H   SFRSYM    DATA     BYTE      T2MOD
      000000C8H   SFRSYM    DATA     BYTE      T2CON
      000000E2H   SFRSYM    DATA     BYTE      ISP_DATA
      000000B9H   SFRSYM    DATA     BYTE      SADEN
      000000B0H.0 SFRSYM    DATA     BIT       RXD
      000000A9H   SFRSYM    DATA     BYTE      SADDR
      000000B0H.1 SFRSYM    DATA     BIT       TXD
      000000A2H   SFRSYM    DATA     BYTE      AUXR1
LX51 LINKER/LOCATER V4.66.87.0                                                        05/09/2018  21:28:12  PAGE 135


      000000D0H.5 SFRSYM    DATA     BIT       F0
      000000D0H   SFRSYM    DATA     BYTE      PSW
      0100804AH   SYMBOL    CODE     ---       int1_ISR

      01007EF7H   BLOCK     CODE     ---       LVL=0
      ---         BLOCKEND  ---      ---       LVL=0

      0100804AH   BLOCK     CODE     ---       LVL=0
      0100804AH   LINE      CODE     ---       #29
      01008051H   LINE      CODE     ---       #31
      01008053H   LINE      CODE     ---       #32
      01008056H   LINE      CODE     ---       #33
      ---         BLOCKEND  ---      ---       LVL=0

      01004A47H   BLOCK     CODE     ---       LVL=0
      01004A47H   BLOCK     CODE     NEAR LAB  LVL=1
      02000000H   SYMBOL    XDATA    BYTE      val
      ---         BLOCKEND  ---      ---       LVL=1
      01004A47H   LINE      CODE     ---       #35
      01004A47H   LINE      CODE     ---       #36
      01004A47H   LINE      CODE     ---       #38
      01004A50H   LINE      CODE     ---       #40
      01004A59H   LINE      CODE     ---       #42
      01004A5BH   LINE      CODE     ---       #46
      01004A65H   LINE      CODE     ---       #47
      01004A6CH   LINE      CODE     ---       #50
      01004A75H   LINE      CODE     ---       #52
      01004A77H   LINE      CODE     ---       #55
      01004A81H   LINE      CODE     ---       #56
      01004A88H   LINE      CODE     ---       #58
      01004A8AH   LINE      CODE     ---       #59
      01004A8CH   LINE      CODE     ---       #60
      01004A8EH   LINE      CODE     ---       #61
      01004A90H   LINE      CODE     ---       #62
      01004A92H   LINE      CODE     ---       #64
      01004A94H   LINE      CODE     ---       #65
      01004A96H   LINE      CODE     ---       #66
      ---         BLOCKEND  ---      ---       LVL=0

      01006FE7H   BLOCK     CODE     ---       LVL=0
      00000007H   SYMBOL    DATA     BYTE      index
      00000004H   SYMBOL    DATA     WORD      status
      01006FE7H   LINE      CODE     ---       #69
      01006FE7H   LINE      CODE     ---       #70
      01006FE7H   LINE      CODE     ---       #71
      01006FEDH   LINE      CODE     ---       #72
      01006FEEH   LINE      CODE     ---       #74
      0100700DH   LINE      CODE     ---       #75
      ---         BLOCKEND  ---      ---       LVL=0

      01004F88H   BLOCK     CODE     ---       LVL=0
      01004F88H   LINE      CODE     ---       #77
      01004F88H   LINE      CODE     ---       #78
      01004F88H   LINE      CODE     ---       #80
      01004F91H   LINE      CODE     ---       #81
      01004F9EH   LINE      CODE     ---       #82
      01004FACH   LINE      CODE     ---       #83
      01004FBAH   LINE      CODE     ---       #84
      01004FC8H   LINE      CODE     ---       #85
      01004FD2H   LINE      CODE     ---       #86
      ---         BLOCKEND  ---      ---       LVL=0

      01004E62H   BLOCK     CODE     ---       LVL=0
      01004E62H   BLOCK     CODE     NEAR LAB  LVL=1
      02000016H   SYMBOL    XDATA    WORD      status
LX51 LINKER/LOCATER V4.66.87.0                                                        05/09/2018  21:28:12  PAGE 136


      02000018H   SYMBOL    XDATA    BYTE      val
      ---         BLOCKEND  ---      ---       LVL=1
      01004E62H   LINE      CODE     ---       #88
      01004E62H   LINE      CODE     ---       #89
      01004E62H   LINE      CODE     ---       #90
      01004E69H   LINE      CODE     ---       #93
      01004E76H   LINE      CODE     ---       #94
      01004E7AH   LINE      CODE     ---       #95
      01004E82H   LINE      CODE     ---       #97
      01004E8BH   LINE      CODE     ---       #98
      01004E98H   LINE      CODE     ---       #99
      01004E9CH   LINE      CODE     ---       #100
      01004EAEH   LINE      CODE     ---       #102
      01004EAEH   LINE      CODE     ---       #103
      ---         BLOCKEND  ---      ---       LVL=0

      01000EF7H   BLOCK     CODE     ---       LVL=0
      02000016H   SYMBOL    XDATA    WORD      status
      01000EF7H   LINE      CODE     ---       #105
      01000EFFH   LINE      CODE     ---       #106
      01000EFFH   LINE      CODE     ---       #107
      01000F08H   LINE      CODE     ---       #108
      01000F29H   LINE      CODE     ---       #109
      01000F41H   LINE      CODE     ---       #110
      01000F59H   LINE      CODE     ---       #111
      01000F71H   LINE      CODE     ---       #112
      01000F89H   LINE      CODE     ---       #113
      01000FA1H   LINE      CODE     ---       #114
      01000FB9H   LINE      CODE     ---       #115
      01000FD1H   LINE      CODE     ---       #116
      01000FE9H   LINE      CODE     ---       #117
      01001001H   LINE      CODE     ---       #118
      01001019H   LINE      CODE     ---       #119
      01001031H   LINE      CODE     ---       #120
      01001049H   LINE      CODE     ---       #121
      01001061H   LINE      CODE     ---       #122
      0100107CH   LINE      CODE     ---       #123
      0100109CH   LINE      CODE     ---       #124
      010010A5H   LINE      CODE     ---       #125
      ---         BLOCKEND  ---      ---       LVL=0

      01005108H   BLOCK     CODE     ---       LVL=0
      02000013H   SYMBOL    XDATA    BYTE      ev
      0100510DH   BLOCK     CODE     NEAR LAB  LVL=1
      02000014H   SYMBOL    XDATA    WORD      status
      ---         BLOCKEND  ---      ---       LVL=1
      01005108H   LINE      CODE     ---       #127
      0100510DH   LINE      CODE     ---       #128
      0100510DH   LINE      CODE     ---       #129
      01005112H   LINE      CODE     ---       #130
      0100511BH   LINE      CODE     ---       #132
      0100511BH   LINE      CODE     ---       #134
      0100511EH   LINE      CODE     ---       #136
      01005121H   LINE      CODE     ---       #137
      01005124H   LINE      CODE     ---       #138
      01005124H   LINE      CODE     ---       #141
      01005127H   LINE      CODE     ---       #149
      01005132H   LINE      CODE     ---       #150
      01005135H   LINE      CODE     ---       #151
      01005140H   LINE      CODE     ---       #152
      0100514BH   LINE      CODE     ---       #153
      0100514BH   LINE      CODE     ---       #156
      0100514EH   LINE      CODE     ---       #157
      01005151H   LINE      CODE     ---       #158
      01005151H   LINE      CODE     ---       #160
LX51 LINKER/LOCATER V4.66.87.0                                                        05/09/2018  21:28:12  PAGE 137


      01005154H   LINE      CODE     ---       #161
      01005157H   LINE      CODE     ---       #162
      01005157H   LINE      CODE     ---       #164
      01005163H   LINE      CODE     ---       #165
      01005166H   LINE      CODE     ---       #166
      01005166H   LINE      CODE     ---       #167
      ---         BLOCKEND  ---      ---       LVL=0

      ---         MODULE    ---      ---       FUSE
      00000020H.1 PUBLIC    BIT      BIT       ?fuse_enable?BIT
      01006F97H   PUBLIC    CODE     ---       fuse_enable
      00000020H.0 PUBLIC    BIT      BIT       ?fuse_set_tripwire_broke?BIT
      01007081H   PUBLIC    CODE     ---       fuse_set_tripwire_broke
      00000020H.0 PUBLIC    BIT      BIT       ?_fuse_set_fuse_broke?BIT
      01006102H   PUBLIC    CODE     ---       _fuse_set_fuse_broke
      0100795DH   PUBLIC    CODE     ---       _fuse_proc
      010042DDH   PUBLIC    CODE     ---       _scan_fuse
      0100840DH   PUBLIC    CODE     ---       fuse_leave_powersave
      01008404H   PUBLIC    CODE     ---       fuse_enter_powersave
      00000020H.0 PUBLIC    BIT      BIT       ?fuse_trigger?BIT
      0100666DH   PUBLIC    CODE     ---       fuse_trigger
      0100824EH   PUBLIC    CODE     ---       fuse_initialize
      00000080H   SFRSYM    DATA     BYTE      P0
      00000090H   SFRSYM    DATA     BYTE      P1
      000000A0H   SFRSYM    DATA     BYTE      P2
      000000B0H   SFRSYM    DATA     BYTE      P3
      000000C0H   SFRSYM    DATA     BYTE      XICON
      000000B0H.4 SFRSYM    DATA     BIT       T0
      000000D0H.6 SFRSYM    DATA     BIT       AC
      000000E8H   SFRSYM    DATA     BYTE      P4
      000000B0H.5 SFRSYM    DATA     BIT       T1
      000000E6H   SFRSYM    DATA     BYTE      ISP_TRIG
      00000090H.0 SFRSYM    DATA     BIT       T2
      000000A8H.7 SFRSYM    DATA     BIT       EA
      000000A8H.6 SFRSYM    DATA     BIT       EC
      00000098H.7 SFRSYM    DATA     BIT       FE
      000000A8H   SFRSYM    DATA     BYTE      IE
      000000C8H.6 SFRSYM    DATA     BIT       EXF2
      000000B0H.7 SFRSYM    DATA     BIT       RD
      000000A8H.4 SFRSYM    DATA     BIT       ES
      000000B8H   SFRSYM    DATA     BYTE      IP
      00000098H.0 SFRSYM    DATA     BIT       RI
      000000B0H.2 SFRSYM    DATA     BIT       INT0
      000000D0H.7 SFRSYM    DATA     BIT       CY
      00000098H.1 SFRSYM    DATA     BIT       TI
      000000B0H.3 SFRSYM    DATA     BIT       INT1
      000000CBH   SFRSYM    DATA     BYTE      RCAP2H
      000000E5H   SFRSYM    DATA     BYTE      ISP_CMD
      000000B8H.4 SFRSYM    DATA     BIT       PS
      00000081H   SFRSYM    DATA     BYTE      SP
      00000090H.1 SFRSYM    DATA     BIT       T2EX
      000000D0H.2 SFRSYM    DATA     BIT       OV
      000000CAH   SFRSYM    DATA     BYTE      RCAP2L
      000000C8H.1 SFRSYM    DATA     BIT       C_T2
      000000B0H.6 SFRSYM    DATA     BIT       WR
      000000C8H.5 SFRSYM    DATA     BIT       RCLK
      000000C8H.4 SFRSYM    DATA     BIT       TCLK
      00000080H.0 SFRSYM    DATA     BIT       P00
      00000099H   SFRSYM    DATA     BYTE      SBUF
      00000087H   SFRSYM    DATA     BYTE      PCON
      00000090H.0 SFRSYM    DATA     BIT       P10
      00000080H.1 SFRSYM    DATA     BIT       P01
      000000A0H.0 SFRSYM    DATA     BIT       P20
      00000090H.1 SFRSYM    DATA     BIT       P11
      00000080H.2 SFRSYM    DATA     BIT       P02
LX51 LINKER/LOCATER V4.66.87.0                                                        05/09/2018  21:28:12  PAGE 138


      000000E3H   SFRSYM    DATA     BYTE      ISP_ADDRH
      000000B0H.0 SFRSYM    DATA     BIT       P30
      000000A0H.1 SFRSYM    DATA     BIT       P21
      00000090H.2 SFRSYM    DATA     BIT       P12
      00000080H.3 SFRSYM    DATA     BIT       P03
      00000098H   SFRSYM    DATA     BYTE      SCON
      000000B0H.1 SFRSYM    DATA     BIT       P31
      000000A0H.2 SFRSYM    DATA     BIT       P22
      00000090H.3 SFRSYM    DATA     BIT       P13
      00000080H.4 SFRSYM    DATA     BIT       P04
      000000E8H.0 SFRSYM    DATA     BIT       P40
      00000089H   SFRSYM    DATA     BYTE      TMOD
      00000088H   SFRSYM    DATA     BYTE      TCON
      000000B0H.2 SFRSYM    DATA     BIT       P32
      000000A0H.3 SFRSYM    DATA     BIT       P23
      00000090H.4 SFRSYM    DATA     BIT       P14
      00000080H.5 SFRSYM    DATA     BIT       P05
      000000E8H.1 SFRSYM    DATA     BIT       P41
      000000B0H.3 SFRSYM    DATA     BIT       P33
      000000A0H.4 SFRSYM    DATA     BIT       P24
      00000090H.5 SFRSYM    DATA     BIT       P15
      00000080H.6 SFRSYM    DATA     BIT       P06
      000000E4H   SFRSYM    DATA     BYTE      ISP_ADDRL
      000000E8H.2 SFRSYM    DATA     BIT       P42
      000000B0H.4 SFRSYM    DATA     BIT       P34
      000000A0H.5 SFRSYM    DATA     BIT       P25
      00000090H.6 SFRSYM    DATA     BIT       P16
      00000080H.7 SFRSYM    DATA     BIT       P07
      000000E8H.3 SFRSYM    DATA     BIT       P43
      000000B0H.5 SFRSYM    DATA     BIT       P35
      000000A0H.6 SFRSYM    DATA     BIT       P26
      00000090H.7 SFRSYM    DATA     BIT       P17
      000000E8H.4 SFRSYM    DATA     BIT       P44
      000000B0H.6 SFRSYM    DATA     BIT       P36
      000000A0H.7 SFRSYM    DATA     BIT       P27
      000000E8H.5 SFRSYM    DATA     BIT       P45
      000000B0H.7 SFRSYM    DATA     BIT       P37
      000000E8H.6 SFRSYM    DATA     BIT       P46
      00000088H.1 SFRSYM    DATA     BIT       IE0
      00000088H.3 SFRSYM    DATA     BIT       IE1
      0000008EH   SFRSYM    DATA     BYTE      AUXR
      000000F0H   SFRSYM    DATA     BYTE      B
      000000C8H.0 SFRSYM    DATA     BIT       CP_RL2
      000000E0H   SFRSYM    DATA     BYTE      ACC
      000000A8H.1 SFRSYM    DATA     BIT       ET0
      000000A8H.3 SFRSYM    DATA     BIT       ET1
      00000088H.5 SFRSYM    DATA     BIT       TF0
      000000A8H.5 SFRSYM    DATA     BIT       ET2
      00000088H.7 SFRSYM    DATA     BIT       TF1
      000000C8H.7 SFRSYM    DATA     BIT       TF2
      00000098H.2 SFRSYM    DATA     BIT       RB8
      0000008CH   SFRSYM    DATA     BYTE      TH0
      000000A8H.0 SFRSYM    DATA     BIT       EX0
      00000088H.0 SFRSYM    DATA     BIT       IT0
      0000008DH   SFRSYM    DATA     BYTE      TH1
      00000098H.3 SFRSYM    DATA     BIT       TB8
      000000A8H.2 SFRSYM    DATA     BIT       EX1
      00000088H.2 SFRSYM    DATA     BIT       IT1
      000000CDH   SFRSYM    DATA     BYTE      TH2
      000000D0H.0 SFRSYM    DATA     BIT       P
      00000098H.7 SFRSYM    DATA     BIT       SM0
      0000008AH   SFRSYM    DATA     BYTE      TL0
      00000098H.6 SFRSYM    DATA     BIT       SM1
      0000008BH   SFRSYM    DATA     BYTE      TL1
      00000098H.5 SFRSYM    DATA     BIT       SM2
LX51 LINKER/LOCATER V4.66.87.0                                                        05/09/2018  21:28:12  PAGE 139


      000000CCH   SFRSYM    DATA     BYTE      TL2
      000000B8H.1 SFRSYM    DATA     BIT       PT0
      000000B8H.3 SFRSYM    DATA     BIT       PT1
      000000D0H.3 SFRSYM    DATA     BIT       RS0
      000000E7H   SFRSYM    DATA     BYTE      ISP_CONTR
      000000B8H.5 SFRSYM    DATA     BIT       PT2
      00000088H.4 SFRSYM    DATA     BIT       TR0
      000000D0H.4 SFRSYM    DATA     BIT       RS1
      00000088H.6 SFRSYM    DATA     BIT       TR1
      000000C8H.2 SFRSYM    DATA     BIT       TR2
      000000B8H.0 SFRSYM    DATA     BIT       PX0
      000000E1H   SFRSYM    DATA     BYTE      WDT_CONTR
      000000B8H.2 SFRSYM    DATA     BIT       PX1
      00000083H   SFRSYM    DATA     BYTE      DPH
      00000082H   SFRSYM    DATA     BYTE      DPL
      000000B7H   SFRSYM    DATA     BYTE      IPH
      000000C8H.3 SFRSYM    DATA     BIT       EXEN2
      00000098H.4 SFRSYM    DATA     BIT       REN
      000000C9H   SFRSYM    DATA     BYTE      T2MOD
      000000C8H   SFRSYM    DATA     BYTE      T2CON
      000000E2H   SFRSYM    DATA     BYTE      ISP_DATA
      000000B9H   SFRSYM    DATA     BYTE      SADEN
      000000B0H.0 SFRSYM    DATA     BIT       RXD
      000000A9H   SFRSYM    DATA     BYTE      SADDR
      000000B0H.1 SFRSYM    DATA     BIT       TXD
      000000A2H   SFRSYM    DATA     BYTE      AUXR1
      000000D0H.5 SFRSYM    DATA     BIT       F0
      000000D0H   SFRSYM    DATA     BYTE      PSW
      01006D47H   SYMBOL    CODE     ---       fuse_power_on
      01006D73H   SYMBOL    CODE     ---       fuse_power_off
      00000024H.5 SYMBOL    BIT      BIT       fuse_enabled

      01006D47H   BLOCK     CODE     ---       LVL=0
      01006D47H   LINE      CODE     ---       #17
      01006D47H   LINE      CODE     ---       #18
      01006D47H   LINE      CODE     ---       #19
      01006D4EH   LINE      CODE     ---       #20
      01006D53H   LINE      CODE     ---       #21
      01006D5AH   LINE      CODE     ---       #22
      01006D5AH   LINE      CODE     ---       #23
      01006D5DH   LINE      CODE     ---       #24
      01006D5DH   LINE      CODE     ---       #25
      01006D60H   LINE      CODE     ---       #26
      01006D63H   LINE      CODE     ---       #27
      01006D65H   LINE      CODE     ---       #28
      ---         BLOCKEND  ---      ---       LVL=0

      01006D73H   BLOCK     CODE     ---       LVL=0
      01006D73H   LINE      CODE     ---       #30
      01006D73H   LINE      CODE     ---       #31
      01006D73H   LINE      CODE     ---       #32
      01006D7AH   LINE      CODE     ---       #33
      01006D7FH   LINE      CODE     ---       #34
      01006D86H   LINE      CODE     ---       #35
      01006D86H   LINE      CODE     ---       #36
      01006D89H   LINE      CODE     ---       #37
      01006D89H   LINE      CODE     ---       #38
      01006D8CH   LINE      CODE     ---       #39
      01006D8FH   LINE      CODE     ---       #40
      01006D91H   LINE      CODE     ---       #41
      ---         BLOCKEND  ---      ---       LVL=0

      0100824EH   BLOCK     CODE     ---       LVL=0
      0100824EH   LINE      CODE     ---       #43
      0100824EH   LINE      CODE     ---       #44
LX51 LINKER/LOCATER V4.66.87.0                                                        05/09/2018  21:28:12  PAGE 140


      0100824EH   LINE      CODE     ---       #45
      01008257H   LINE      CODE     ---       #46
      ---         BLOCKEND  ---      ---       LVL=0

      0100666DH   BLOCK     CODE     ---       LVL=0
      00000020H.0 SYMBOL    BIT      BIT       enable
      0100666DH   LINE      CODE     ---       #50
      0100666DH   LINE      CODE     ---       #51
      0100666DH   LINE      CODE     ---       #52
      01006682H   LINE      CODE     ---       #54
      01006685H   LINE      CODE     ---       #57
      0100668CH   LINE      CODE     ---       #60
      01006696H   LINE      CODE     ---       #61
      0100669FH   LINE      CODE     ---       #62
      010066A2H   LINE      CODE     ---       #63
      ---         BLOCKEND  ---      ---       LVL=0

      01008404H   BLOCK     CODE     ---       LVL=0
      01008404H   LINE      CODE     ---       #65
      01008404H   LINE      CODE     ---       #66
      01008404H   LINE      CODE     ---       #67
      ---         BLOCKEND  ---      ---       LVL=0

      0100840DH   BLOCK     CODE     ---       LVL=0
      0100840DH   LINE      CODE     ---       #70
      0100840DH   LINE      CODE     ---       #71
      0100840DH   LINE      CODE     ---       #72
      ---         BLOCKEND  ---      ---       LVL=0

      010042DDH   BLOCK     CODE     ---       LVL=0
      02000016H   SYMBOL    XDATA    WORD      status
      010042E5H   BLOCK     CODE     NEAR LAB  LVL=1
      00000020H.0 SYMBOL    BIT      BIT       has_event
      ---         BLOCKEND  ---      ---       LVL=1
      010042DDH   LINE      CODE     ---       #75
      010042E5H   LINE      CODE     ---       #76
      010042E5H   LINE      CODE     ---       #77
      010042E7H   LINE      CODE     ---       #78
      010042F8H   LINE      CODE     ---       #80
      010042FFH   LINE      CODE     ---       #81
      01004308H   LINE      CODE     ---       #82
      0100430BH   LINE      CODE     ---       #83
      01004314H   LINE      CODE     ---       #84
      01004316H   LINE      CODE     ---       #85
      01004316H   LINE      CODE     ---       #87
      0100431DH   LINE      CODE     ---       #88
      01004326H   LINE      CODE     ---       #89
      01004329H   LINE      CODE     ---       #90
      01004332H   LINE      CODE     ---       #91
      01004334H   LINE      CODE     ---       #92
      01004334H   LINE      CODE     ---       #94
      0100433BH   LINE      CODE     ---       #95
      01004344H   LINE      CODE     ---       #96
      01004347H   LINE      CODE     ---       #97
      0100434DH   LINE      CODE     ---       #98
      0100434FH   LINE      CODE     ---       #99
      0100434FH   LINE      CODE     ---       #101
      01004357H   LINE      CODE     ---       #102
      0100435AH   LINE      CODE     ---       #103
      0100435AH   LINE      CODE     ---       #104
      ---         BLOCKEND  ---      ---       LVL=0

      0100795DH   BLOCK     CODE     ---       LVL=0
      0200000CH   SYMBOL    XDATA    BYTE      ev
      0100795DH   LINE      CODE     ---       #106
LX51 LINKER/LOCATER V4.66.87.0                                                        05/09/2018  21:28:12  PAGE 141


      01007962H   LINE      CODE     ---       #107
      01007962H   LINE      CODE     ---       #108
      0100796FH   LINE      CODE     ---       #109
      ---         BLOCKEND  ---      ---       LVL=0

      01006102H   BLOCK     CODE     ---       LVL=0
      02000012H   SYMBOL    XDATA    BYTE      index
      00000020H.0 SYMBOL    BIT      BIT       enable
      01006102H   LINE      CODE     ---       #113
      01006107H   LINE      CODE     ---       #114
      01006107H   LINE      CODE     ---       #115
      01006120H   LINE      CODE     ---       #117
      01006123H   LINE      CODE     ---       #119
      01006129H   LINE      CODE     ---       #120
      01006132H   LINE      CODE     ---       #122
      0100613CH   LINE      CODE     ---       #124
      0100613FH   LINE      CODE     ---       #125
      ---         BLOCKEND  ---      ---       LVL=0

      01007081H   BLOCK     CODE     ---       LVL=0
      00000020H.0 SYMBOL    BIT      BIT       broke
      01007081H   LINE      CODE     ---       #127
      01007081H   LINE      CODE     ---       #128
      01007081H   LINE      CODE     ---       #129
      01007096H   LINE      CODE     ---       #131
      01007099H   LINE      CODE     ---       #133
      010070A3H   LINE      CODE     ---       #134
      010070A6H   LINE      CODE     ---       #135
      ---         BLOCKEND  ---      ---       LVL=0

      01006F97H   BLOCK     CODE     ---       LVL=0
      00000020H.1 SYMBOL    BIT      BIT       enable
      01006F97H   LINE      CODE     ---       #137
      01006F97H   LINE      CODE     ---       #138
      01006F97H   LINE      CODE     ---       #139
      01006FACH   LINE      CODE     ---       #141
      01006FB2H   LINE      CODE     ---       #142
      01006FB5H   LINE      CODE     ---       #143
      01006FBBH   LINE      CODE     ---       #144
      01006FBEH   LINE      CODE     ---       #145
      01006FBEH   LINE      CODE     ---       #146
      ---         BLOCKEND  ---      ---       LVL=0

      ---         MODULE    ---      ---       HG
      01007F65H   PUBLIC    CODE     ---       hg_get_state
      00000020H.1 PUBLIC    BIT      BIT       ?hg_enable?BIT
      01006FBFH   PUBLIC    CODE     ---       hg_enable
      0100825AH   PUBLIC    CODE     ---       hg_initialize
      0100472BH   PUBLIC    CODE     ---       _scan_hg
      0100841FH   PUBLIC    CODE     ---       hg_leave_powersave
      01008416H   PUBLIC    CODE     ---       hg_enter_powersave
      00000024H.6 SYMBOL    BIT      BIT       hg_enabled
      010078A3H   SYMBOL    CODE     ---       hg_power_on
      020000D2H   SYMBOL    XDATA    BYTE      hg_state
      01007F53H   SYMBOL    CODE     ---       __hg_get_state
      01007BDBH   SYMBOL    CODE     ---       hg_cb_set_enable
      0100821DH   SYMBOL    CODE     ---       hg_power_off

      010082CEH   BLOCK     CODE     ---       LVL=0
      ---         BLOCKEND  ---      ---       LVL=0

      01008416H   BLOCK     CODE     ---       LVL=0
      01008416H   LINE      CODE     ---       #15
      01008416H   LINE      CODE     ---       #16
      01008416H   LINE      CODE     ---       #17
LX51 LINKER/LOCATER V4.66.87.0                                                        05/09/2018  21:28:12  PAGE 142


      ---         BLOCKEND  ---      ---       LVL=0

      0100841FH   BLOCK     CODE     ---       LVL=0
      0100841FH   LINE      CODE     ---       #20
      0100841FH   LINE      CODE     ---       #21
      0100841FH   LINE      CODE     ---       #22
      ---         BLOCKEND  ---      ---       LVL=0

      01007F53H   BLOCK     CODE     ---       LVL=0
      00000006H   SYMBOL    DATA     WORD      status
      01007F53H   LINE      CODE     ---       #25
      01007F53H   LINE      CODE     ---       #26
      01007F53H   LINE      CODE     ---       #27
      01007F64H   LINE      CODE     ---       #28
      ---         BLOCKEND  ---      ---       LVL=0

      01007BDBH   BLOCK     CODE     ---       LVL=0
      01007BDBH   BLOCK     CODE     NEAR LAB  LVL=1
      00000006H   SYMBOL    DATA     WORD      status
      ---         BLOCKEND  ---      ---       LVL=1
      01007BDBH   LINE      CODE     ---       #30
      01007BDBH   LINE      CODE     ---       #31
      01007BDBH   LINE      CODE     ---       #33
      01007BE4H   LINE      CODE     ---       #35
      01007BE7H   LINE      CODE     ---       #36
      01007BEFH   LINE      CODE     ---       #37
      01007BF1H   LINE      CODE     ---       #38
      ---         BLOCKEND  ---      ---       LVL=0

      0100472BH   BLOCK     CODE     ---       LVL=0
      02000016H   SYMBOL    XDATA    WORD      status
      01004733H   BLOCK     CODE     NEAR LAB  LVL=1
      02000018H   SYMBOL    XDATA    BYTE      hg_new_state
      ---         BLOCKEND  ---      ---       LVL=1
      0100472BH   LINE      CODE     ---       #40
      01004733H   LINE      CODE     ---       #41
      01004733H   LINE      CODE     ---       #43
      01004744H   LINE      CODE     ---       #45
      01004752H   LINE      CODE     ---       #47
      0100475FH   LINE      CODE     ---       #49
      0100476BH   LINE      CODE     ---       #50
      0100476EH   LINE      CODE     ---       #51
      01004777H   LINE      CODE     ---       #52
      0100477DH   LINE      CODE     ---       #53
      0100477DH   LINE      CODE     ---       #54
      01004782H   LINE      CODE     ---       #55
      01004785H   LINE      CODE     ---       #56
      01004785H   LINE      CODE     ---       #58
      01004797H   LINE      CODE     ---       #59
      0100479FH   LINE      CODE     ---       #60
      0100479FH   LINE      CODE     ---       #62
      ---         BLOCKEND  ---      ---       LVL=0

      010078A3H   BLOCK     CODE     ---       LVL=0
      010078A3H   LINE      CODE     ---       #64
      010078A3H   LINE      CODE     ---       #65
      010078A3H   LINE      CODE     ---       #66
      010078AAH   LINE      CODE     ---       #67
      010078ADH   LINE      CODE     ---       #68
      010078B3H   LINE      CODE     ---       #69
      ---         BLOCKEND  ---      ---       LVL=0

      0100821DH   BLOCK     CODE     ---       LVL=0
      0100821DH   LINE      CODE     ---       #72
      0100821DH   LINE      CODE     ---       #73
LX51 LINKER/LOCATER V4.66.87.0                                                        05/09/2018  21:28:12  PAGE 143


      0100821DH   LINE      CODE     ---       #74
      01008224H   LINE      CODE     ---       #75
      01008227H   LINE      CODE     ---       #76
      01008229H   LINE      CODE     ---       #77
      ---         BLOCKEND  ---      ---       LVL=0

      0100825AH   BLOCK     CODE     ---       LVL=0
      0100825AH   LINE      CODE     ---       #79
      0100825AH   LINE      CODE     ---       #80
      0100825AH   LINE      CODE     ---       #81
      01008263H   LINE      CODE     ---       #82
      ---         BLOCKEND  ---      ---       LVL=0

      01006FBFH   BLOCK     CODE     ---       LVL=0
      00000020H.1 SYMBOL    BIT      BIT       enable
      01006FBFH   LINE      CODE     ---       #85
      01006FBFH   LINE      CODE     ---       #86
      01006FBFH   LINE      CODE     ---       #87
      01006FD4H   LINE      CODE     ---       #88
      01006FDAH   LINE      CODE     ---       #89
      01006FDDH   LINE      CODE     ---       #91
      01006FE3H   LINE      CODE     ---       #92
      01006FE6H   LINE      CODE     ---       #93
      01006FE6H   LINE      CODE     ---       #94
      ---         BLOCKEND  ---      ---       LVL=0

      01007F65H   BLOCK     CODE     ---       LVL=0
      01007F65H   LINE      CODE     ---       #96
      01007F65H   LINE      CODE     ---       #97
      01007F65H   LINE      CODE     ---       #98
      01007F71H   LINE      CODE     ---       #99
      01007F76H   LINE      CODE     ---       #100
      ---         BLOCKEND  ---      ---       LVL=0

      ---         MODULE    ---      ---       LT_TIMER
      01006234H   PUBLIC    CODE     ---       lt_timer_sync_to_rtc
      00000020H.0 PUBLIC    BIT      BIT       ?lt_timer_get_relative?BIT
      01004CC9H   PUBLIC    CODE     ---       lt_timer_get_relative
      0100560DH   PUBLIC    CODE     ---       _lt_timer_sync_to_rom
      010065C9H   PUBLIC    CODE     ---       lt_timer_sync_from_rom
      01003B1CH   PUBLIC    CODE     ---       lt_timer_dec_sec
      01008137H   PUBLIC    CODE     ---       lt_timer_reset
      00000020H.0 PUBLIC    BIT      BIT       ?lt_timer_display?BIT
      01007977H   PUBLIC    CODE     ---       lt_timer_display
      01007BF2H   PUBLIC    CODE     ---       lt_timer_switch_display
      01008272H   PUBLIC    CODE     ---       lt_timer_stop_ram
      010081F3H   PUBLIC    CODE     ---       lt_timer_start_ram
      01007589H   PUBLIC    CODE     ---       lt_timer_stop_rtc
      0100756BH   PUBLIC    CODE     ---       lt_timer_start_rtc
      01008524H   PUBLIC    CODE     ---       lt_timer_get_date
      01008576H   PUBLIC    CODE     ---       lt_timer_get_sec
      01008571H   PUBLIC    CODE     ---       lt_timer_get_min
      0100856CH   PUBLIC    CODE     ---       lt_timer_get_hour
      0100851EH   PUBLIC    CODE     ---       lt_timer_get_month
      01008567H   PUBLIC    CODE     ---       lt_timer_get_year
      01008310H   PUBLIC    CODE     ---       lt_timer_inc_sec
      01008305H   PUBLIC    CODE     ---       lt_timer_inc_min
      010082FAH   PUBLIC    CODE     ---       lt_timer_inc_hour
      010082EFH   PUBLIC    CODE     ---       lt_timer_inc_date
      010082E4H   PUBLIC    CODE     ---       lt_timer_inc_month
      010082D9H   PUBLIC    CODE     ---       lt_timer_inc_year
      01005F87H   PUBLIC    CODE     ---       scan_lt_timer
      0100742FH   PUBLIC    CODE     ---       lt_timer_switch_off
      01008266H   PUBLIC    CODE     ---       lt_timer_switch_on
      01007215H   PUBLIC    CODE     ---       lt_timer_leave_powersave
LX51 LINKER/LOCATER V4.66.87.0                                                        05/09/2018  21:28:12  PAGE 144


      01007D7CH   PUBLIC    CODE     ---       lt_timer_enter_powersave
      01007F77H   PUBLIC    CODE     ---       lt_timer_initialize
      0100339BH   SYMBOL    CODE     ---       lt_timer_sub_date
      00000022H.0 SYMBOL    BIT      BIT       lt_tmr_start
      0100A9A2H   SYMBOL    CONST    ---       leap_month
      0100631EH   SYMBOL    CODE     ---       lt_timer_sub_hour_date
      00000022H.1 SYMBOL    BIT      BIT       lt_tmr_disp_day
      00000054H   SYMBOL    IDATA    ---       ltm
      010075A7H   SYMBOL    CODE     ---       lt_timer_sub_sec_min
      010062E4H   SYMBOL    CODE     ---       lt_timer_sub_min_hour
      00000022H.2 SYMBOL    BIT      BIT       lt_tmr_display
      00000022H.3 SYMBOL    BIT      BIT       lt_tmr_stopped

      010047A0H   BLOCK     CODE     ---       LVL=0
      ---         BLOCKEND  ---      ---       LVL=0

      01007F77H   BLOCK     CODE     ---       LVL=0
      01007F77H   LINE      CODE     ---       #21
      01007F77H   LINE      CODE     ---       #22
      01007F77H   LINE      CODE     ---       #23
      01007F80H   LINE      CODE     ---       #24
      01007F82H   LINE      CODE     ---       #25
      01007F84H   LINE      CODE     ---       #26
      01007F86H   LINE      CODE     ---       #27
      01007F88H   LINE      CODE     ---       #28
      ---         BLOCKEND  ---      ---       LVL=0

      01007D7CH   BLOCK     CODE     ---       LVL=0
      01007D7CH   LINE      CODE     ---       #30
      01007D7CH   LINE      CODE     ---       #31
      01007D7CH   LINE      CODE     ---       #32
      01007D85H   LINE      CODE     ---       #33
      01007D8AH   LINE      CODE     ---       #34
      01007D8DH   LINE      CODE     ---       #35
      01007D90H   LINE      CODE     ---       #36
      01007D90H   LINE      CODE     ---       #37
      ---         BLOCKEND  ---      ---       LVL=0

      01007215H   BLOCK     CODE     ---       LVL=0
      01007215H   LINE      CODE     ---       #39
      01007215H   LINE      CODE     ---       #40
      01007215H   LINE      CODE     ---       #41
      0100721EH   LINE      CODE     ---       #42
      01007223H   LINE      CODE     ---       #43
      01007226H   LINE      CODE     ---       #44
      01007229H   LINE      CODE     ---       #45
      01007230H   LINE      CODE     ---       #46
      01007230H   LINE      CODE     ---       #47
      01007233H   LINE      CODE     ---       #48
      01007234H   LINE      CODE     ---       #49
      01007237H   LINE      CODE     ---       #50
      01007237H   LINE      CODE     ---       #51
      01007237H   LINE      CODE     ---       #52
      ---         BLOCKEND  ---      ---       LVL=0

      01008266H   BLOCK     CODE     ---       LVL=0
      01008266H   LINE      CODE     ---       #54
      01008266H   LINE      CODE     ---       #55
      01008266H   LINE      CODE     ---       #56
      0100826FH   LINE      CODE     ---       #57
      ---         BLOCKEND  ---      ---       LVL=0

      0100742FH   BLOCK     CODE     ---       LVL=0
      0100742FH   LINE      CODE     ---       #60
      0100742FH   LINE      CODE     ---       #61
LX51 LINKER/LOCATER V4.66.87.0                                                        05/09/2018  21:28:12  PAGE 145


      0100742FH   LINE      CODE     ---       #62
      01007438H   LINE      CODE     ---       #63
      0100743DH   LINE      CODE     ---       #64
      01007444H   LINE      CODE     ---       #65
      0100744AH   LINE      CODE     ---       #66
      ---         BLOCKEND  ---      ---       LVL=0

      01005F87H   BLOCK     CODE     ---       LVL=0
      01005F87H   BLOCK     CODE     NEAR LAB  LVL=1
      00000020H.0 SYMBOL    BIT      BIT       alarm0_hit
      ---         BLOCKEND  ---      ---       LVL=1
      01005F87H   LINE      CODE     ---       #69
      01005F87H   LINE      CODE     ---       #70
      01005F87H   LINE      CODE     ---       #73
      01005F90H   LINE      CODE     ---       #75
      01005F95H   LINE      CODE     ---       #76
      01005F9CH   LINE      CODE     ---       #77
      01005FA0H   LINE      CODE     ---       #78
      01005FA5H   LINE      CODE     ---       #80
      01005FA8H   LINE      CODE     ---       #81
      01005FADH   LINE      CODE     ---       #83
      01005FB2H   LINE      CODE     ---       #84
      01005FBBH   LINE      CODE     ---       #85
      01005FC0H   LINE      CODE     ---       #86
      01005FC3H   LINE      CODE     ---       #87
      01005FC3H   LINE      CODE     ---       #88
      01005FC6H   LINE      CODE     ---       #89
      01005FC6H   LINE      CODE     ---       #90
      01005FC6H   LINE      CODE     ---       #91
      ---         BLOCKEND  ---      ---       LVL=0

      010082D9H   BLOCK     CODE     ---       LVL=0
      010082D9H   LINE      CODE     ---       #93
      010082D9H   LINE      CODE     ---       #94
      010082D9H   LINE      CODE     ---       #95
      010082E3H   LINE      CODE     ---       #96
      ---         BLOCKEND  ---      ---       LVL=0

      010082E4H   BLOCK     CODE     ---       LVL=0
      010082E4H   LINE      CODE     ---       #98
      010082E4H   LINE      CODE     ---       #99
      010082E4H   LINE      CODE     ---       #100
      010082EEH   LINE      CODE     ---       #101
      ---         BLOCKEND  ---      ---       LVL=0

      010082EFH   BLOCK     CODE     ---       LVL=0
      010082EFH   LINE      CODE     ---       #103
      010082EFH   LINE      CODE     ---       #104
      010082EFH   LINE      CODE     ---       #105
      010082F9H   LINE      CODE     ---       #106
      ---         BLOCKEND  ---      ---       LVL=0

      010082FAH   BLOCK     CODE     ---       LVL=0
      010082FAH   LINE      CODE     ---       #108
      010082FAH   LINE      CODE     ---       #109
      010082FAH   LINE      CODE     ---       #110
      01008304H   LINE      CODE     ---       #111
      ---         BLOCKEND  ---      ---       LVL=0

      01008305H   BLOCK     CODE     ---       LVL=0
      01008305H   LINE      CODE     ---       #113
      01008305H   LINE      CODE     ---       #114
      01008305H   LINE      CODE     ---       #115
      0100830FH   LINE      CODE     ---       #116
      ---         BLOCKEND  ---      ---       LVL=0
LX51 LINKER/LOCATER V4.66.87.0                                                        05/09/2018  21:28:12  PAGE 146



      01008310H   BLOCK     CODE     ---       LVL=0
      01008310H   LINE      CODE     ---       #118
      01008310H   LINE      CODE     ---       #119
      01008310H   LINE      CODE     ---       #120
      0100831AH   LINE      CODE     ---       #121
      ---         BLOCKEND  ---      ---       LVL=0

      01008567H   BLOCK     CODE     ---       LVL=0
      01008567H   LINE      CODE     ---       #123
      01008567H   LINE      CODE     ---       #124
      01008567H   LINE      CODE     ---       #125
      0100856BH   LINE      CODE     ---       #126
      ---         BLOCKEND  ---      ---       LVL=0

      0100851EH   BLOCK     CODE     ---       LVL=0
      0100851EH   LINE      CODE     ---       #128
      0100851EH   LINE      CODE     ---       #129
      0100851EH   LINE      CODE     ---       #130
      01008523H   LINE      CODE     ---       #131
      ---         BLOCKEND  ---      ---       LVL=0

      0100856CH   BLOCK     CODE     ---       LVL=0
      0100856CH   LINE      CODE     ---       #133
      0100856CH   LINE      CODE     ---       #134
      0100856CH   LINE      CODE     ---       #135
      01008570H   LINE      CODE     ---       #136
      ---         BLOCKEND  ---      ---       LVL=0

      01008571H   BLOCK     CODE     ---       LVL=0
      01008571H   LINE      CODE     ---       #138
      01008571H   LINE      CODE     ---       #139
      01008571H   LINE      CODE     ---       #140
      01008575H   LINE      CODE     ---       #141
      ---         BLOCKEND  ---      ---       LVL=0

      01008576H   BLOCK     CODE     ---       LVL=0
      01008576H   LINE      CODE     ---       #143
      01008576H   LINE      CODE     ---       #144
      01008576H   LINE      CODE     ---       #145
      0100857AH   LINE      CODE     ---       #146
      ---         BLOCKEND  ---      ---       LVL=0

      01008524H   BLOCK     CODE     ---       LVL=0
      01008524H   LINE      CODE     ---       #148
      01008524H   LINE      CODE     ---       #149
      01008524H   LINE      CODE     ---       #150
      01008529H   LINE      CODE     ---       #151
      ---         BLOCKEND  ---      ---       LVL=0

      0100756BH   BLOCK     CODE     ---       LVL=0
      0100756BH   LINE      CODE     ---       #153
      0100756BH   LINE      CODE     ---       #154
      0100756BH   LINE      CODE     ---       #155
      01007574H   LINE      CODE     ---       #156
      01007579H   LINE      CODE     ---       #157
      01007580H   LINE      CODE     ---       #158
      01007584H   LINE      CODE     ---       #159
      ---         BLOCKEND  ---      ---       LVL=0

      01007589H   BLOCK     CODE     ---       LVL=0
      01007589H   LINE      CODE     ---       #162
      01007589H   LINE      CODE     ---       #163
      01007589H   LINE      CODE     ---       #164
      01007592H   LINE      CODE     ---       #165
LX51 LINKER/LOCATER V4.66.87.0                                                        05/09/2018  21:28:12  PAGE 147


      01007597H   LINE      CODE     ---       #166
      0100759EH   LINE      CODE     ---       #167
      010075A2H   LINE      CODE     ---       #168
      ---         BLOCKEND  ---      ---       LVL=0

      010081F3H   BLOCK     CODE     ---       LVL=0
      010081F3H   LINE      CODE     ---       #171
      010081F3H   LINE      CODE     ---       #172
      010081F3H   LINE      CODE     ---       #173
      010081FCH   LINE      CODE     ---       #174
      010081FEH   LINE      CODE     ---       #175
      01008200H   LINE      CODE     ---       #176
      ---         BLOCKEND  ---      ---       LVL=0

      01008272H   BLOCK     CODE     ---       LVL=0
      01008272H   LINE      CODE     ---       #178
      01008272H   LINE      CODE     ---       #179
      01008272H   LINE      CODE     ---       #180
      0100827BH   LINE      CODE     ---       #181
      0100827DH   LINE      CODE     ---       #182
      ---         BLOCKEND  ---      ---       LVL=0

      01007BF2H   BLOCK     CODE     ---       LVL=0
      01007BF2H   LINE      CODE     ---       #184
      01007BF2H   LINE      CODE     ---       #185
      01007BF2H   LINE      CODE     ---       #186
      01007BF4H   LINE      CODE     ---       #187
      ---         BLOCKEND  ---      ---       LVL=0

      01007977H   BLOCK     CODE     ---       LVL=0
      00000020H.0 SYMBOL    BIT      BIT       enable
      01007977H   LINE      CODE     ---       #190
      01007977H   LINE      CODE     ---       #191
      01007977H   LINE      CODE     ---       #192
      0100798CH   LINE      CODE     ---       #193
      01007990H   LINE      CODE     ---       #194
      ---         BLOCKEND  ---      ---       LVL=0

      01008137H   BLOCK     CODE     ---       LVL=0
      01008137H   LINE      CODE     ---       #196
      01008137H   LINE      CODE     ---       #197
      01008137H   LINE      CODE     ---       #198
      0100813AH   LINE      CODE     ---       #199
      0100813DH   LINE      CODE     ---       #200
      0100813FH   LINE      CODE     ---       #201
      01008141H   LINE      CODE     ---       #202
      01008143H   LINE      CODE     ---       #203
      01008145H   LINE      CODE     ---       #204
      ---         BLOCKEND  ---      ---       LVL=0

      010075A7H   BLOCK     CODE     ---       LVL=0
      010075A7H   BLOCK     CODE     NEAR LAB  LVL=1
      00000020H.2 SYMBOL    BIT      BIT       borrow_min
      ---         BLOCKEND  ---      ---       LVL=1
      010075A7H   LINE      CODE     ---       #208
      010075A7H   LINE      CODE     ---       #209
      010075A7H   LINE      CODE     ---       #211
      010075A9H   LINE      CODE     ---       #213
      010075B3H   LINE      CODE     ---       #215
      010075B7H   LINE      CODE     ---       #216
      010075B9H   LINE      CODE     ---       #217
      010075B9H   LINE      CODE     ---       #219
      010075C2H   LINE      CODE     ---       #221
      010075C4H   LINE      CODE     ---       #222
      ---         BLOCKEND  ---      ---       LVL=0
LX51 LINKER/LOCATER V4.66.87.0                                                        05/09/2018  21:28:12  PAGE 148



      010062E4H   BLOCK     CODE     ---       LVL=0
      00000020H.2 SYMBOL    BIT      BIT       borrow_min
      010062E4H   BLOCK     CODE     NEAR LAB  LVL=1
      00000020H.3 SYMBOL    BIT      BIT       borrow_hour
      ---         BLOCKEND  ---      ---       LVL=1
      010062E4H   LINE      CODE     ---       #226
      010062E4H   LINE      CODE     ---       #227
      010062E4H   LINE      CODE     ---       #229
      010062E6H   LINE      CODE     ---       #231
      010062FDH   LINE      CODE     ---       #233
      01006303H   LINE      CODE     ---       #234
      01006305H   LINE      CODE     ---       #235
      01006305H   LINE      CODE     ---       #237
      0100630EH   LINE      CODE     ---       #238
      0100631BH   LINE      CODE     ---       #240
      0100631DH   LINE      CODE     ---       #241
      ---         BLOCKEND  ---      ---       LVL=0

      0100631EH   BLOCK     CODE     ---       LVL=0
      00000020H.2 SYMBOL    BIT      BIT       borrow_hour
      0100631EH   BLOCK     CODE     NEAR LAB  LVL=1
      00000020H.3 SYMBOL    BIT      BIT       borrow_date
      ---         BLOCKEND  ---      ---       LVL=1
      0100631EH   LINE      CODE     ---       #244
      0100631EH   LINE      CODE     ---       #245
      0100631EH   LINE      CODE     ---       #247
      01006320H   LINE      CODE     ---       #249
      01006337H   LINE      CODE     ---       #251
      0100633DH   LINE      CODE     ---       #252
      0100633FH   LINE      CODE     ---       #253
      0100633FH   LINE      CODE     ---       #255
      01006348H   LINE      CODE     ---       #256
      01006355H   LINE      CODE     ---       #258
      01006357H   LINE      CODE     ---       #259
      ---         BLOCKEND  ---      ---       LVL=0

      0100339BH   BLOCK     CODE     ---       LVL=0
      00000020H.2 SYMBOL    BIT      BIT       borrow_date
      0100339BH   BLOCK     CODE     NEAR LAB  LVL=1
      00000006H   SYMBOL    DATA     BYTE      i
      00000005H   SYMBOL    DATA     BYTE      j
      02000015H   SYMBOL    XDATA    INT       day
      ---         BLOCKEND  ---      ---       LVL=1
      0100339BH   LINE      CODE     ---       #263
      0100339BH   LINE      CODE     ---       #264
      0100339BH   LINE      CODE     ---       #268
      010033A2H   LINE      CODE     ---       #271
      010033B0H   LINE      CODE     ---       #272
      010033C6H   LINE      CODE     ---       #274
      010033D3H   LINE      CODE     ---       #276
      010033DEH   LINE      CODE     ---       #277
      010033E8H   LINE      CODE     ---       #279
      010033F5H   LINE      CODE     ---       #280
      01003409H   LINE      CODE     ---       #282
      0100342DH   LINE      CODE     ---       #284
      01003430H   LINE      CODE     ---       #285
      0100343AH   LINE      CODE     ---       #287
      0100344AH   LINE      CODE     ---       #288
      0100344EH   LINE      CODE     ---       #289
      01003450H   LINE      CODE     ---       #290
      01003452H   LINE      CODE     ---       #291
      01003454H   LINE      CODE     ---       #292
      01003455H   LINE      CODE     ---       #293
      01003459H   LINE      CODE     ---       #294
LX51 LINKER/LOCATER V4.66.87.0                                                        05/09/2018  21:28:12  PAGE 149


      01003459H   LINE      CODE     ---       #295
      ---         BLOCKEND  ---      ---       LVL=0

      01003B1CH   BLOCK     CODE     ---       LVL=0
      01003B1CH   LINE      CODE     ---       #364
      01003B1CH   LINE      CODE     ---       #365
      01003B1CH   LINE      CODE     ---       #366
      01003B22H   LINE      CODE     ---       #369
      01003B25H   LINE      CODE     ---       #370
      01003B32H   LINE      CODE     ---       #372
      01003B32H   LINE      CODE     ---       #373
      01003B35H   LINE      CODE     ---       #374
      01003B39H   LINE      CODE     ---       #375
      01003B3BH   LINE      CODE     ---       #376
      01003B3DH   LINE      CODE     ---       #377
      01003B41H   LINE      CODE     ---       #378
      01003B43H   LINE      CODE     ---       #379
      01003B45H   LINE      CODE     ---       #380
      01003B49H   LINE      CODE     ---       #381
      01003B4BH   LINE      CODE     ---       #382
      01003B52H   LINE      CODE     ---       #383
      01003B53H   LINE      CODE     ---       #384
      01003B53H   LINE      CODE     ---       #385
      01003B53H   LINE      CODE     ---       #386
      01003B53H   LINE      CODE     ---       #387
      01003B53H   LINE      CODE     ---       #388
      01003B55H   LINE      CODE     ---       #389
      01003B55H   LINE      CODE     ---       #390
      01003B58H   LINE      CODE     ---       #391
      01003B58H   LINE      CODE     ---       #392
      01003B58H   LINE      CODE     ---       #394
      01003B5EH   LINE      CODE     ---       #395
      01003B61H   LINE      CODE     ---       #396
      01003B6BH   LINE      CODE     ---       #397
      01003B71H   LINE      CODE     ---       #398
      01003B77H   LINE      CODE     ---       #399
      01003B7DH   LINE      CODE     ---       #400
      01003B86H   LINE      CODE     ---       #401
      01003B8DH   LINE      CODE     ---       #402
      01003B8EH   LINE      CODE     ---       #403
      01003B95H   LINE      CODE     ---       #404
      01003B9AH   LINE      CODE     ---       #405
      01003B9FH   LINE      CODE     ---       #406
      01003BA4H   LINE      CODE     ---       #407
      01003BA9H   LINE      CODE     ---       #408
      01003BAEH   LINE      CODE     ---       #409
      01003BB1H   LINE      CODE     ---       #410
      01003BB7H   LINE      CODE     ---       #411
      01003BB7H   LINE      CODE     ---       #412
      01003BB7H   LINE      CODE     ---       #413
      ---         BLOCKEND  ---      ---       LVL=0

      010065C9H   BLOCK     CODE     ---       LVL=0
      010065C9H   LINE      CODE     ---       #418
      010065C9H   LINE      CODE     ---       #419
      010065C9H   LINE      CODE     ---       #420
      010065D2H   LINE      CODE     ---       #421
      010065DBH   LINE      CODE     ---       #422
      010065E4H   LINE      CODE     ---       #423
      010065EDH   LINE      CODE     ---       #424
      010065F6H   LINE      CODE     ---       #425
      010065FFH   LINE      CODE     ---       #426
      ---         BLOCKEND  ---      ---       LVL=0

      0100560DH   BLOCK     CODE     ---       LVL=0
LX51 LINKER/LOCATER V4.66.87.0                                                        05/09/2018  21:28:12  PAGE 150


      02000015H   SYMBOL    XDATA    BYTE      type
      0100560DH   LINE      CODE     ---       #429
      01005612H   LINE      CODE     ---       #430
      01005612H   LINE      CODE     ---       #431
      0100561CH   LINE      CODE     ---       #432
      01005633H   LINE      CODE     ---       #433
      01005633H   LINE      CODE     ---       #434
      01005639H   LINE      CODE     ---       #435
      0100563BH   LINE      CODE     ---       #436
      0100563BH   LINE      CODE     ---       #437
      01005641H   LINE      CODE     ---       #438
      01005643H   LINE      CODE     ---       #439
      01005643H   LINE      CODE     ---       #440
      01005649H   LINE      CODE     ---       #441
      0100564BH   LINE      CODE     ---       #442
      0100564BH   LINE      CODE     ---       #443
      01005651H   LINE      CODE     ---       #444
      01005653H   LINE      CODE     ---       #445
      01005653H   LINE      CODE     ---       #446
      01005659H   LINE      CODE     ---       #447
      0100565BH   LINE      CODE     ---       #448
      0100565BH   LINE      CODE     ---       #449
      01005664H   LINE      CODE     ---       #450
      01005664H   LINE      CODE     ---       #452
      01005664H   LINE      CODE     ---       #453
      ---         BLOCKEND  ---      ---       LVL=0

      01004CC9H   BLOCK     CODE     ---       LVL=0
      00000020H.0 SYMBOL    BIT      BIT       too_close_check
      01004CC9H   BLOCK     CODE     NEAR LAB  LVL=1
      00000020H.1 SYMBOL    BIT      BIT       borrow
      ---         BLOCKEND  ---      ---       LVL=1
      01004CC9H   LINE      CODE     ---       #457
      01004CC9H   LINE      CODE     ---       #458
      01004CC9H   LINE      CODE     ---       #462
      01004CCEH   LINE      CODE     ---       #463
      01004CD3H   LINE      CODE     ---       #464
      01004CDCH   LINE      CODE     ---       #465
      01004CE5H   LINE      CODE     ---       #466
      01004CECH   LINE      CODE     ---       #467
      01004CF1H   LINE      CODE     ---       #469
      01004D00H   LINE      CODE     ---       #473
      01004D0DH   LINE      CODE     ---       #474
      01004D11H   LINE      CODE     ---       #475
      01004D17H   LINE      CODE     ---       #476
      01004D19H   LINE      CODE     ---       #477
      01004D24H   LINE      CODE     ---       #478
      01004D2DH   LINE      CODE     ---       #479
      01004D2FH   LINE      CODE     ---       #480
      01004D2FH   LINE      CODE     ---       #481
      01004D2FH   LINE      CODE     ---       #483
      01004D30H   LINE      CODE     ---       #484
      ---         BLOCKEND  ---      ---       LVL=0

      01006234H   BLOCK     CODE     ---       LVL=0
      01006234H   LINE      CODE     ---       #487
      01006234H   LINE      CODE     ---       #488
      01006234H   LINE      CODE     ---       #489
      01006246H   LINE      CODE     ---       #492
      0100624BH   LINE      CODE     ---       #493
      01006250H   LINE      CODE     ---       #494
      01006258H   LINE      CODE     ---       #495
      0100625EH   LINE      CODE     ---       #496
      01006264H   LINE      CODE     ---       #497
      0100626AH   LINE      CODE     ---       #498
LX51 LINKER/LOCATER V4.66.87.0                                                        05/09/2018  21:28:12  PAGE 151


      ---         BLOCKEND  ---      ---       LVL=0

      ---         MODULE    ---      ---       SERIAL_HUB
      01006358H   PUBLIC    CODE     ---       serial_hub_initialize
      01006B84H   PUBLIC    CODE     ---       _serial_test_ctl_bit
      00000020H.2 PUBLIC    BIT      BIT       ?_serial_set_ctl_bit?BIT
      01006A3AH   PUBLIC    CODE     ---       _serial_set_ctl_bit
      010078BEH   PUBLIC    CODE     ---       serial_ctl_out
      0100115DH   PUBLIC    CODE     ---       serial_dump
      00000080H   SFRSYM    DATA     BYTE      P0
      00000090H   SFRSYM    DATA     BYTE      P1
      000000A0H   SFRSYM    DATA     BYTE      P2
      000000B0H   SFRSYM    DATA     BYTE      P3
      000000C0H   SFRSYM    DATA     BYTE      XICON
      000000B0H.4 SFRSYM    DATA     BIT       T0
      000000D0H.6 SFRSYM    DATA     BIT       AC
      000000E8H   SFRSYM    DATA     BYTE      P4
      000000B0H.5 SFRSYM    DATA     BIT       T1
      000000E6H   SFRSYM    DATA     BYTE      ISP_TRIG
      00000090H.0 SFRSYM    DATA     BIT       T2
      000000A8H.7 SFRSYM    DATA     BIT       EA
      000000A8H.6 SFRSYM    DATA     BIT       EC
      00000098H.7 SFRSYM    DATA     BIT       FE
      000000A8H   SFRSYM    DATA     BYTE      IE
      000000C8H.6 SFRSYM    DATA     BIT       EXF2
      000000B0H.7 SFRSYM    DATA     BIT       RD
      000000A8H.4 SFRSYM    DATA     BIT       ES
      000000B8H   SFRSYM    DATA     BYTE      IP
      00000098H.0 SFRSYM    DATA     BIT       RI
      000000B0H.2 SFRSYM    DATA     BIT       INT0
      000000D0H.7 SFRSYM    DATA     BIT       CY
      00000098H.1 SFRSYM    DATA     BIT       TI
      000000B0H.3 SFRSYM    DATA     BIT       INT1
      000000CBH   SFRSYM    DATA     BYTE      RCAP2H
      000000E5H   SFRSYM    DATA     BYTE      ISP_CMD
      000000B8H.4 SFRSYM    DATA     BIT       PS
      00000081H   SFRSYM    DATA     BYTE      SP
      00000090H.1 SFRSYM    DATA     BIT       T2EX
      000000D0H.2 SFRSYM    DATA     BIT       OV
      000000CAH   SFRSYM    DATA     BYTE      RCAP2L
      000000C8H.1 SFRSYM    DATA     BIT       C_T2
      000000B0H.6 SFRSYM    DATA     BIT       WR
      000000C8H.5 SFRSYM    DATA     BIT       RCLK
      000000C8H.4 SFRSYM    DATA     BIT       TCLK
      00000080H.0 SFRSYM    DATA     BIT       P00
      00000099H   SFRSYM    DATA     BYTE      SBUF
      00000087H   SFRSYM    DATA     BYTE      PCON
      00000090H.0 SFRSYM    DATA     BIT       P10
      00000080H.1 SFRSYM    DATA     BIT       P01
      000000A0H.0 SFRSYM    DATA     BIT       P20
      00000090H.1 SFRSYM    DATA     BIT       P11
      00000080H.2 SFRSYM    DATA     BIT       P02
      000000E3H   SFRSYM    DATA     BYTE      ISP_ADDRH
      000000B0H.0 SFRSYM    DATA     BIT       P30
      000000A0H.1 SFRSYM    DATA     BIT       P21
      00000090H.2 SFRSYM    DATA     BIT       P12
      00000080H.3 SFRSYM    DATA     BIT       P03
      00000098H   SFRSYM    DATA     BYTE      SCON
      000000B0H.1 SFRSYM    DATA     BIT       P31
      000000A0H.2 SFRSYM    DATA     BIT       P22
      00000090H.3 SFRSYM    DATA     BIT       P13
      00000080H.4 SFRSYM    DATA     BIT       P04
      000000E8H.0 SFRSYM    DATA     BIT       P40
      00000089H   SFRSYM    DATA     BYTE      TMOD
      00000088H   SFRSYM    DATA     BYTE      TCON
LX51 LINKER/LOCATER V4.66.87.0                                                        05/09/2018  21:28:12  PAGE 152


      000000B0H.2 SFRSYM    DATA     BIT       P32
      000000A0H.3 SFRSYM    DATA     BIT       P23
      00000090H.4 SFRSYM    DATA     BIT       P14
      00000080H.5 SFRSYM    DATA     BIT       P05
      000000E8H.1 SFRSYM    DATA     BIT       P41
      000000B0H.3 SFRSYM    DATA     BIT       P33
      000000A0H.4 SFRSYM    DATA     BIT       P24
      00000090H.5 SFRSYM    DATA     BIT       P15
      00000080H.6 SFRSYM    DATA     BIT       P06
      000000E4H   SFRSYM    DATA     BYTE      ISP_ADDRL
      000000E8H.2 SFRSYM    DATA     BIT       P42
      000000B0H.4 SFRSYM    DATA     BIT       P34
      000000A0H.5 SFRSYM    DATA     BIT       P25
      00000090H.6 SFRSYM    DATA     BIT       P16
      00000080H.7 SFRSYM    DATA     BIT       P07
      000000E8H.3 SFRSYM    DATA     BIT       P43
      000000B0H.5 SFRSYM    DATA     BIT       P35
      000000A0H.6 SFRSYM    DATA     BIT       P26
      00000090H.7 SFRSYM    DATA     BIT       P17
      000000E8H.4 SFRSYM    DATA     BIT       P44
      000000B0H.6 SFRSYM    DATA     BIT       P36
      000000A0H.7 SFRSYM    DATA     BIT       P27
      000000E8H.5 SFRSYM    DATA     BIT       P45
      000000B0H.7 SFRSYM    DATA     BIT       P37
      000000E8H.6 SFRSYM    DATA     BIT       P46
      00000088H.1 SFRSYM    DATA     BIT       IE0
      00000088H.3 SFRSYM    DATA     BIT       IE1
      0000008EH   SFRSYM    DATA     BYTE      AUXR
      000000F0H   SFRSYM    DATA     BYTE      B
      000000C8H.0 SFRSYM    DATA     BIT       CP_RL2
      000000E0H   SFRSYM    DATA     BYTE      ACC
      000000A8H.1 SFRSYM    DATA     BIT       ET0
      000000A8H.3 SFRSYM    DATA     BIT       ET1
      00000088H.5 SFRSYM    DATA     BIT       TF0
      000000A8H.5 SFRSYM    DATA     BIT       ET2
      00000088H.7 SFRSYM    DATA     BIT       TF1
      000000C8H.7 SFRSYM    DATA     BIT       TF2
      00000098H.2 SFRSYM    DATA     BIT       RB8
      0000008CH   SFRSYM    DATA     BYTE      TH0
      000000A8H.0 SFRSYM    DATA     BIT       EX0
      00000088H.0 SFRSYM    DATA     BIT       IT0
      0000008DH   SFRSYM    DATA     BYTE      TH1
      00000098H.3 SFRSYM    DATA     BIT       TB8
      000000A8H.2 SFRSYM    DATA     BIT       EX1
      00000088H.2 SFRSYM    DATA     BIT       IT1
      000000CDH   SFRSYM    DATA     BYTE      TH2
      000000D0H.0 SFRSYM    DATA     BIT       P
      00000098H.7 SFRSYM    DATA     BIT       SM0
      0000008AH   SFRSYM    DATA     BYTE      TL0
      00000098H.6 SFRSYM    DATA     BIT       SM1
      0000008BH   SFRSYM    DATA     BYTE      TL1
      00000098H.5 SFRSYM    DATA     BIT       SM2
      000000CCH   SFRSYM    DATA     BYTE      TL2
      000000B8H.1 SFRSYM    DATA     BIT       PT0
      000000B8H.3 SFRSYM    DATA     BIT       PT1
      000000D0H.3 SFRSYM    DATA     BIT       RS0
      000000E7H   SFRSYM    DATA     BYTE      ISP_CONTR
      000000B8H.5 SFRSYM    DATA     BIT       PT2
      00000088H.4 SFRSYM    DATA     BIT       TR0
      000000D0H.4 SFRSYM    DATA     BIT       RS1
      00000088H.6 SFRSYM    DATA     BIT       TR1
      000000C8H.2 SFRSYM    DATA     BIT       TR2
      000000B8H.0 SFRSYM    DATA     BIT       PX0
      000000E1H   SFRSYM    DATA     BYTE      WDT_CONTR
      000000B8H.2 SFRSYM    DATA     BIT       PX1
LX51 LINKER/LOCATER V4.66.87.0                                                        05/09/2018  21:28:12  PAGE 153


      00000083H   SFRSYM    DATA     BYTE      DPH
      00000082H   SFRSYM    DATA     BYTE      DPL
      000000B7H   SFRSYM    DATA     BYTE      IPH
      000000C8H.3 SFRSYM    DATA     BIT       EXEN2
      00000098H.4 SFRSYM    DATA     BIT       REN
      000000C9H   SFRSYM    DATA     BYTE      T2MOD
      000000C8H   SFRSYM    DATA     BYTE      T2CON
      000000E2H   SFRSYM    DATA     BYTE      ISP_DATA
      000000B9H   SFRSYM    DATA     BYTE      SADEN
      000000B0H.0 SFRSYM    DATA     BIT       RXD
      000000A9H   SFRSYM    DATA     BYTE      SADDR
      000000B0H.1 SFRSYM    DATA     BIT       TXD
      000000A2H   SFRSYM    DATA     BYTE      AUXR1
      000000D0H.5 SFRSYM    DATA     BIT       F0
      000000D0H   SFRSYM    DATA     BYTE      PSW
      020000CCH   SYMBOL    XDATA    ---       ctl_buffer

      01007A8EH   BLOCK     CODE     ---       LVL=0
      ---         BLOCKEND  ---      ---       LVL=0

      0100115DH   BLOCK     CODE     ---       LVL=0
      0100115DH   LINE      CODE     ---       #15
      0100115DH   LINE      CODE     ---       #16
      0100115DH   LINE      CODE     ---       #17
      01001166H   LINE      CODE     ---       #18
      0100117FH   LINE      CODE     ---       #19
      01001197H   LINE      CODE     ---       #20
      010011AFH   LINE      CODE     ---       #21
      010011C7H   LINE      CODE     ---       #22
      010011DFH   LINE      CODE     ---       #23
      010011F7H   LINE      CODE     ---       #24
      0100120FH   LINE      CODE     ---       #25
      01001227H   LINE      CODE     ---       #26
      0100123FH   LINE      CODE     ---       #27
      01001257H   LINE      CODE     ---       #28
      0100126FH   LINE      CODE     ---       #29
      01001287H   LINE      CODE     ---       #30
      0100129FH   LINE      CODE     ---       #31
      010012B7H   LINE      CODE     ---       #32
      010012CFH   LINE      CODE     ---       #33
      010012E7H   LINE      CODE     ---       #34
      01001303H   LINE      CODE     ---       #35
      0100130CH   LINE      CODE     ---       #36
      ---         BLOCKEND  ---      ---       LVL=0

      010078BEH   BLOCK     CODE     ---       LVL=0
      010078BEH   LINE      CODE     ---       #38
      010078BEH   LINE      CODE     ---       #39
      010078BEH   LINE      CODE     ---       #40
      010078CAH   LINE      CODE     ---       #41
      010078D6H   LINE      CODE     ---       #43
      ---         BLOCKEND  ---      ---       LVL=0

      01006A3AH   BLOCK     CODE     ---       LVL=0
      00000007H   SYMBOL    DATA     BYTE      index
      00000020H.2 SYMBOL    BIT      BIT       what
      01006A3AH   LINE      CODE     ---       #46
      01006A3AH   LINE      CODE     ---       #47
      01006A3AH   LINE      CODE     ---       #48
      01006A40H   LINE      CODE     ---       #51
      01006A60H   LINE      CODE     ---       #52
      01006A63H   LINE      CODE     ---       #53
      01006A69H   LINE      CODE     ---       #54
      ---         BLOCKEND  ---      ---       LVL=0

LX51 LINKER/LOCATER V4.66.87.0                                                        05/09/2018  21:28:12  PAGE 154


      01006B84H   BLOCK     CODE     ---       LVL=0
      00000007H   SYMBOL    DATA     BYTE      index
      01006B84H   LINE      CODE     ---       #56
      01006B84H   LINE      CODE     ---       #57
      01006B84H   LINE      CODE     ---       #58
      01006B8AH   LINE      CODE     ---       #59
      01006B8BH   LINE      CODE     ---       #61
      01006BB1H   LINE      CODE     ---       #62
      ---         BLOCKEND  ---      ---       LVL=0

      01006358H   BLOCK     CODE     ---       LVL=0
      01006358H   LINE      CODE     ---       #65
      01006358H   LINE      CODE     ---       #66
      01006358H   LINE      CODE     ---       #67
      01006361H   LINE      CODE     ---       #69
      0100636BH   LINE      CODE     ---       #72
      01006374H   LINE      CODE     ---       #75
      0100637DH   LINE      CODE     ---       #78
      01006386H   LINE      CODE     ---       #81
      0100638FH   LINE      CODE     ---       #83
      ---         BLOCKEND  ---      ---       LVL=0

      ---         MODULE    ---      ---       THERMO
      01008431H   PUBLIC    CODE     ---       thermo_leave_powersave
      01008428H   PUBLIC    CODE     ---       thermo_enter_powersave
      01007CE6H   PUBLIC    CODE     ---       _thermo_proc
      0100857BH   PUBLIC    CODE     ---       thermo_lo_threshold_reset
      0100849EH   PUBLIC    CODE     ---       thermo_hi_threshold_reset
      00000020H.1 PUBLIC    BIT      BIT       ?thermo_enable?BIT
      0100835AH   PUBLIC    CODE     ---       thermo_enable
      0100828AH   PUBLIC    CODE     ---       thermo_lo_threshold_reach_top
      01008326H   PUBLIC    CODE     ---       thermo_lo_threshold_reach_bottom
      0100827EH   PUBLIC    CODE     ---       thermo_hi_threshold_reach_top
      0100831BH   PUBLIC    CODE     ---       thermo_hi_threshold_reach_bottom
      0100805BH   PUBLIC    CODE     ---       _thermo_threshold_inc
      01007FBFH   PUBLIC    CODE     ---       thermo_lo_threshold_inc
      01007FADH   PUBLIC    CODE     ---       thermo_lo_threshold_dec
      01007F9BH   PUBLIC    CODE     ---       thermo_hi_threshold_inc
      01007F89H   PUBLIC    CODE     ---       thermo_hi_threshold_dec
      01004BF5H   PUBLIC    CODE     ---       _thermo_lo_threshold_set
      01005167H   PUBLIC    CODE     ---       _thermo_hi_threshold_set
      01007238H   PUBLIC    CODE     ---       thermo_lo_threshold_get
      0100734BH   PUBLIC    CODE     ---       thermo_hi_threshold_get
      01006978H   PUBLIC    CODE     ---       thermo_get_current
      01004AB3H   PUBLIC    CODE     ---       scan_thermo
      0100617EH   PUBLIC    CODE     ---       thermo_initialize
      020000CEH   SYMBOL    XDATA    CHAR      thermo_threshold_lo
      010071A9H   SYMBOL    CODE     ---       _thermo_hex_to_temp
      01005E7AH   SYMBOL    CODE     ---       _thermo_temp_to_hex
      01006BB2H   SYMBOL    CODE     ---       thermo_power_off
      01005816H   SYMBOL    CODE     ---       thermo_power_on
      020000CFH   SYMBOL    XDATA    CHAR      thermo_threshold_hi

      0100586AH   BLOCK     CODE     ---       LVL=0
      ---         BLOCKEND  ---      ---       LVL=0

      01006BB2H   BLOCK     CODE     ---       LVL=0
      01006BB2H   BLOCK     CODE     NEAR LAB  LVL=1
      02000015H   SYMBOL    XDATA    BYTE      val
      ---         BLOCKEND  ---      ---       LVL=1
      01006BB2H   LINE      CODE     ---       #35
      01006BB2H   LINE      CODE     ---       #36
      01006BB2H   LINE      CODE     ---       #42
      01006BBBH   LINE      CODE     ---       #45
      01006BC4H   LINE      CODE     ---       #48
LX51 LINKER/LOCATER V4.66.87.0                                                        05/09/2018  21:28:12  PAGE 155


      01006BCEH   LINE      CODE     ---       #51
      01006BD7H   LINE      CODE     ---       #52
      ---         BLOCKEND  ---      ---       LVL=0

      0100617EH   BLOCK     CODE     ---       LVL=0
      0100617EH   LINE      CODE     ---       #61
      0100617EH   LINE      CODE     ---       #62
      0100617EH   LINE      CODE     ---       #63
      01006187H   LINE      CODE     ---       #65
      01006191H   LINE      CODE     ---       #66
      0100619BH   LINE      CODE     ---       #67
      010061A3H   LINE      CODE     ---       #68
      010061ADH   LINE      CODE     ---       #69
      010061B0H   LINE      CODE     ---       #70
      ---         BLOCKEND  ---      ---       LVL=0

      01005816H   BLOCK     CODE     ---       LVL=0
      01005816H   BLOCK     CODE     NEAR LAB  LVL=1
      02000015H   SYMBOL    XDATA    BYTE      val
      ---         BLOCKEND  ---      ---       LVL=1
      01005816H   LINE      CODE     ---       #72
      01005816H   LINE      CODE     ---       #73
      01005816H   LINE      CODE     ---       #79
      0100581BH   LINE      CODE     ---       #82
      01005824H   LINE      CODE     ---       #85
      01005827H   LINE      CODE     ---       #86
      0100582AH   LINE      CODE     ---       #89
      0100582FH   LINE      CODE     ---       #90
      01005838H   LINE      CODE     ---       #92
      0100583DH   LINE      CODE     ---       #96
      01005846H   LINE      CODE     ---       #99
      0100584FH   LINE      CODE     ---       #102
      01005859H   LINE      CODE     ---       #104
      01005862H   LINE      CODE     ---       #124
      ---         BLOCKEND  ---      ---       LVL=0

      01004AB3H   BLOCK     CODE     ---       LVL=0
      01004AB3H   BLOCK     CODE     NEAR LAB  LVL=1
      02000016H   SYMBOL    XDATA    BYTE      val
      02000017H   SYMBOL    XDATA    CHAR      hi
      02000018H   SYMBOL    XDATA    CHAR      lo
      02000019H   SYMBOL    XDATA    CHAR      current
      00000020H.0 SYMBOL    BIT      BIT       has_event
      ---         BLOCKEND  ---      ---       LVL=1
      01004AB3H   LINE      CODE     ---       #126
      01004AB3H   LINE      CODE     ---       #127
      01004AB3H   LINE      CODE     ---       #131
      01004AB5H   LINE      CODE     ---       #134
      01004AB5H   LINE      CODE     ---       #135
      01004AB5H   LINE      CODE     ---       #136
      01004AB5H   LINE      CODE     ---       #137
      01004ABEH   LINE      CODE     ---       #140
      01004ACBH   LINE      CODE     ---       #141
      01004AD4H   LINE      CODE     ---       #143
      01004AE3H   LINE      CODE     ---       #144
      01004AECH   LINE      CODE     ---       #145
      01004AF1H   LINE      CODE     ---       #146
      01004AF1H   LINE      CODE     ---       #147
      01004B02H   LINE      CODE     ---       #148
      01004B0BH   LINE      CODE     ---       #149
      01004B11H   LINE      CODE     ---       #150
      01004B13H   LINE      CODE     ---       #151
      01004B13H   LINE      CODE     ---       #170
      01004B1BH   LINE      CODE     ---       #171
      01004B1EH   LINE      CODE     ---       #172
LX51 LINKER/LOCATER V4.66.87.0                                                        05/09/2018  21:28:12  PAGE 156


      01004B1EH   LINE      CODE     ---       #173
      ---         BLOCKEND  ---      ---       LVL=0

      01005E7AH   BLOCK     CODE     ---       LVL=0
      00000005H   SYMBOL    DATA     CHAR      temp
      01005E7CH   BLOCK     CODE     NEAR LAB  LVL=1
      02000019H   SYMBOL    XDATA    WORD      ret
      ---         BLOCKEND  ---      ---       LVL=1
      01005E7AH   LINE      CODE     ---       #175
      01005E7CH   LINE      CODE     ---       #176
      01005E7CH   LINE      CODE     ---       #177
      01005E87H   LINE      CODE     ---       #178
      01005E8FH   LINE      CODE     ---       #179
      01005E98H   LINE      CODE     ---       #180
      01005EB5H   LINE      CODE     ---       #181
      01005EBDH   LINE      CODE     ---       #182
      ---         BLOCKEND  ---      ---       LVL=0

      010071A9H   BLOCK     CODE     ---       LVL=0
      00000004H   SYMBOL    DATA     WORD      val
      010071ADH   BLOCK     CODE     NEAR LAB  LVL=1
      02000017H   SYMBOL    XDATA    CHAR      temp
      ---         BLOCKEND  ---      ---       LVL=1
      010071A9H   LINE      CODE     ---       #184
      010071ADH   LINE      CODE     ---       #185
      010071ADH   LINE      CODE     ---       #187
      010071B2H   LINE      CODE     ---       #188
      010071C7H   LINE      CODE     ---       #189
      010071CCH   LINE      CODE     ---       #190
      ---         BLOCKEND  ---      ---       LVL=0

      01006978H   BLOCK     CODE     ---       LVL=0
      01006978H   BLOCK     CODE     NEAR LAB  LVL=1
      0200000BH   SYMBOL    XDATA    WORD      val
      0200000DH   SYMBOL    XDATA    BYTE      tmp
      ---         BLOCKEND  ---      ---       LVL=1
      01006978H   LINE      CODE     ---       #193
      01006978H   LINE      CODE     ---       #194
      01006978H   LINE      CODE     ---       #198
      01006978H   LINE      CODE     ---       #199
      01006986H   LINE      CODE     ---       #200
      0100699EH   LINE      CODE     ---       #202
      ---         BLOCKEND  ---      ---       LVL=0

      0100734BH   BLOCK     CODE     ---       LVL=0
      0100734BH   BLOCK     CODE     NEAR LAB  LVL=1
      02000015H   SYMBOL    XDATA    WORD      val
      00000007H   SYMBOL    DATA     CHAR      ret
      ---         BLOCKEND  ---      ---       LVL=1
      0100734BH   LINE      CODE     ---       #218
      0100734BH   LINE      CODE     ---       #219
      0100734BH   LINE      CODE     ---       #223
      01007359H   LINE      CODE     ---       #227
      01007364H   LINE      CODE     ---       #228
      01007368H   LINE      CODE     ---       #229
      0100736BH   LINE      CODE     ---       #231
      0100736BH   LINE      CODE     ---       #232
      ---         BLOCKEND  ---      ---       LVL=0

      01007238H   BLOCK     CODE     ---       LVL=0
      01007238H   BLOCK     CODE     NEAR LAB  LVL=1
      02000015H   SYMBOL    XDATA    WORD      val
      00000007H   SYMBOL    DATA     CHAR      ret
      ---         BLOCKEND  ---      ---       LVL=1
      01007238H   LINE      CODE     ---       #234
LX51 LINKER/LOCATER V4.66.87.0                                                        05/09/2018  21:28:12  PAGE 157


      01007238H   LINE      CODE     ---       #235
      01007238H   LINE      CODE     ---       #239
      01007248H   LINE      CODE     ---       #243
      01007253H   LINE      CODE     ---       #244
      01007257H   LINE      CODE     ---       #245
      0100725AH   LINE      CODE     ---       #247
      0100725AH   LINE      CODE     ---       #248
      ---         BLOCKEND  ---      ---       LVL=0

      01005167H   BLOCK     CODE     ---       LVL=0
      02000016H   SYMBOL    XDATA    CHAR      temp
      0100516CH   BLOCK     CODE     NEAR LAB  LVL=1
      02000017H   SYMBOL    XDATA    WORD      val
      ---         BLOCKEND  ---      ---       LVL=1
      01005167H   LINE      CODE     ---       #251
      0100516CH   LINE      CODE     ---       #252
      0100516CH   LINE      CODE     ---       #254
      01005176H   LINE      CODE     ---       #256
      01005180H   LINE      CODE     ---       #257
      01005185H   LINE      CODE     ---       #258
      01005185H   LINE      CODE     ---       #259
      0100518DH   LINE      CODE     ---       #260
      01005193H   LINE      CODE     ---       #262
      0100519EH   LINE      CODE     ---       #263
      010051A1H   LINE      CODE     ---       #264
      010051A1H   LINE      CODE     ---       #265
      010051B1H   LINE      CODE     ---       #267
      010051BBH   LINE      CODE     ---       #268
      ---         BLOCKEND  ---      ---       LVL=0

      01004BF5H   BLOCK     CODE     ---       LVL=0
      02000016H   SYMBOL    XDATA    CHAR      temp
      01004BFAH   BLOCK     CODE     NEAR LAB  LVL=1
      02000017H   SYMBOL    XDATA    WORD      val
      ---         BLOCKEND  ---      ---       LVL=1
      01004BF5H   LINE      CODE     ---       #274
      01004BFAH   LINE      CODE     ---       #275
      01004BFAH   LINE      CODE     ---       #277
      01004C07H   LINE      CODE     ---       #279
      01004C11H   LINE      CODE     ---       #280
      01004C16H   LINE      CODE     ---       #281
      01004C16H   LINE      CODE     ---       #282
      01004C1EH   LINE      CODE     ---       #283
      01004C24H   LINE      CODE     ---       #285
      01004C2FH   LINE      CODE     ---       #286
      01004C32H   LINE      CODE     ---       #287
      01004C32H   LINE      CODE     ---       #289
      01004C42H   LINE      CODE     ---       #291
      01004C50H   LINE      CODE     ---       #292
      ---         BLOCKEND  ---      ---       LVL=0

      01007F89H   BLOCK     CODE     ---       LVL=0
      01007F89H   BLOCK     CODE     NEAR LAB  LVL=1
      00000007H   SYMBOL    DATA     CHAR      val
      ---         BLOCKEND  ---      ---       LVL=1
      01007F89H   LINE      CODE     ---       #299
      01007F89H   LINE      CODE     ---       #300
      01007F89H   LINE      CODE     ---       #302
      01007F8CH   LINE      CODE     ---       #304
      01007F91H   LINE      CODE     ---       #307
      01007F96H   LINE      CODE     ---       #308
      01007F97H   LINE      CODE     ---       #309
      01007F9AH   LINE      CODE     ---       #310
      01007F9AH   LINE      CODE     ---       #311
      ---         BLOCKEND  ---      ---       LVL=0
LX51 LINKER/LOCATER V4.66.87.0                                                        05/09/2018  21:28:12  PAGE 158



      01007F9BH   BLOCK     CODE     ---       LVL=0
      01007F9BH   BLOCK     CODE     NEAR LAB  LVL=1
      00000007H   SYMBOL    DATA     CHAR      val
      ---         BLOCKEND  ---      ---       LVL=1
      01007F9BH   LINE      CODE     ---       #313
      01007F9BH   LINE      CODE     ---       #314
      01007F9BH   LINE      CODE     ---       #316
      01007F9EH   LINE      CODE     ---       #318
      01007FA3H   LINE      CODE     ---       #321
      01007FA8H   LINE      CODE     ---       #322
      01007FA9H   LINE      CODE     ---       #323
      01007FACH   LINE      CODE     ---       #324
      01007FACH   LINE      CODE     ---       #325
      ---         BLOCKEND  ---      ---       LVL=0

      01007FADH   BLOCK     CODE     ---       LVL=0
      01007FADH   BLOCK     CODE     NEAR LAB  LVL=1
      00000007H   SYMBOL    DATA     CHAR      val
      ---         BLOCKEND  ---      ---       LVL=1
      01007FADH   LINE      CODE     ---       #327
      01007FADH   LINE      CODE     ---       #328
      01007FADH   LINE      CODE     ---       #330
      01007FB0H   LINE      CODE     ---       #332
      01007FB5H   LINE      CODE     ---       #335
      01007FBAH   LINE      CODE     ---       #336
      01007FBBH   LINE      CODE     ---       #337
      01007FBEH   LINE      CODE     ---       #338
      01007FBEH   LINE      CODE     ---       #339
      ---         BLOCKEND  ---      ---       LVL=0

      01007FBFH   BLOCK     CODE     ---       LVL=0
      01007FBFH   BLOCK     CODE     NEAR LAB  LVL=1
      00000007H   SYMBOL    DATA     CHAR      val
      ---         BLOCKEND  ---      ---       LVL=1
      01007FBFH   LINE      CODE     ---       #341
      01007FBFH   LINE      CODE     ---       #342
      01007FBFH   LINE      CODE     ---       #344
      01007FC2H   LINE      CODE     ---       #346
      01007FC7H   LINE      CODE     ---       #349
      01007FCCH   LINE      CODE     ---       #350
      01007FCDH   LINE      CODE     ---       #351
      01007FD0H   LINE      CODE     ---       #352
      01007FD0H   LINE      CODE     ---       #353
      ---         BLOCKEND  ---      ---       LVL=0

      0100805BH   BLOCK     CODE     ---       LVL=0
      00000007H   SYMBOL    DATA     BYTE      thres
      0100805BH   BLOCK     CODE     NEAR LAB  LVL=1
      00000007H   SYMBOL    DATA     CHAR      value
      ---         BLOCKEND  ---      ---       LVL=1
      0100805BH   LINE      CODE     ---       #355
      0100805BH   LINE      CODE     ---       #356
      0100805BH   LINE      CODE     ---       #358
      0100805FH   LINE      CODE     ---       #359
      0100805FH   LINE      CODE     ---       #360
      01008064H   LINE      CODE     ---       #361
      01008065H   LINE      CODE     ---       #362
      01008066H   LINE      CODE     ---       #363
      01008066H   LINE      CODE     ---       #364
      01008069H   LINE      CODE     ---       #365
      01008069H   LINE      CODE     ---       #366
      01008069H   LINE      CODE     ---       #367
      0100806BH   LINE      CODE     ---       #368
      0100806BH   LINE      CODE     ---       #369
LX51 LINKER/LOCATER V4.66.87.0                                                        05/09/2018  21:28:12  PAGE 159


      ---         BLOCKEND  ---      ---       LVL=0

      0100831BH   BLOCK     CODE     ---       LVL=0
      0100831BH   LINE      CODE     ---       #371
      0100831BH   LINE      CODE     ---       #372
      0100831BH   LINE      CODE     ---       #373
      01008325H   LINE      CODE     ---       #374
      ---         BLOCKEND  ---      ---       LVL=0

      0100827EH   BLOCK     CODE     ---       LVL=0
      0100827EH   LINE      CODE     ---       #376
      0100827EH   LINE      CODE     ---       #377
      0100827EH   LINE      CODE     ---       #378
      01008289H   LINE      CODE     ---       #379
      ---         BLOCKEND  ---      ---       LVL=0

      01008326H   BLOCK     CODE     ---       LVL=0
      01008326H   LINE      CODE     ---       #381
      01008326H   LINE      CODE     ---       #382
      01008326H   LINE      CODE     ---       #383
      01008330H   LINE      CODE     ---       #384
      ---         BLOCKEND  ---      ---       LVL=0

      0100828AH   BLOCK     CODE     ---       LVL=0
      0100828AH   LINE      CODE     ---       #386
      0100828AH   LINE      CODE     ---       #387
      0100828AH   LINE      CODE     ---       #388
      01008295H   LINE      CODE     ---       #389
      ---         BLOCKEND  ---      ---       LVL=0

      0100835AH   BLOCK     CODE     ---       LVL=0
      00000020H.1 SYMBOL    BIT      BIT       enable
      0100835AH   LINE      CODE     ---       #391
      0100835AH   LINE      CODE     ---       #392
      0100835AH   LINE      CODE     ---       #393
      0100835DH   LINE      CODE     ---       #394
      01008360H   LINE      CODE     ---       #395
      01008360H   LINE      CODE     ---       #396
      01008363H   LINE      CODE     ---       #397
      01008363H   LINE      CODE     ---       #398
      ---         BLOCKEND  ---      ---       LVL=0

      0100849EH   BLOCK     CODE     ---       LVL=0
      0100849EH   LINE      CODE     ---       #400
      0100849EH   LINE      CODE     ---       #401
      0100849EH   LINE      CODE     ---       #402
      ---         BLOCKEND  ---      ---       LVL=0

      0100857BH   BLOCK     CODE     ---       LVL=0
      0100857BH   LINE      CODE     ---       #405
      0100857BH   LINE      CODE     ---       #406
      0100857BH   LINE      CODE     ---       #407
      ---         BLOCKEND  ---      ---       LVL=0

      01007CE6H   BLOCK     CODE     ---       LVL=0
      0200000CH   SYMBOL    XDATA    BYTE      ev
      01007CE6H   LINE      CODE     ---       #410
      01007CEBH   LINE      CODE     ---       #411
      01007CEBH   LINE      CODE     ---       #412
      01007CF4H   LINE      CODE     ---       #413
      ---         BLOCKEND  ---      ---       LVL=0

      01008428H   BLOCK     CODE     ---       LVL=0
      01008428H   LINE      CODE     ---       #416
      01008428H   LINE      CODE     ---       #417
LX51 LINKER/LOCATER V4.66.87.0                                                        05/09/2018  21:28:12  PAGE 160


      01008428H   LINE      CODE     ---       #418
      ---         BLOCKEND  ---      ---       LVL=0

      01008431H   BLOCK     CODE     ---       LVL=0
      01008431H   LINE      CODE     ---       #421
      01008431H   LINE      CODE     ---       #422
      01008431H   LINE      CODE     ---       #423
      ---         BLOCKEND  ---      ---       LVL=0

      ---         MODULE    ---      ---       ROM
      01006140H   PUBLIC    CODE     ---       rom_initialize
      010084A6H   PUBLIC    CODE     ---       rom_is_factory_reset
      010069A9H   PUBLIC    CODE     ---       _rom_write
      010067ACH   PUBLIC    CODE     ---       _rom_read
      00000080H   SFRSYM    DATA     BYTE      P0
      00000090H   SFRSYM    DATA     BYTE      P1
      000000A0H   SFRSYM    DATA     BYTE      P2
      000000B0H   SFRSYM    DATA     BYTE      P3
      000000C0H   SFRSYM    DATA     BYTE      XICON
      000000B0H.4 SFRSYM    DATA     BIT       T0
      000000D0H.6 SFRSYM    DATA     BIT       AC
      000000E8H   SFRSYM    DATA     BYTE      P4
      000000B0H.5 SFRSYM    DATA     BIT       T1
      000000E6H   SFRSYM    DATA     BYTE      ISP_TRIG
      00000090H.0 SFRSYM    DATA     BIT       T2
      000000A8H.7 SFRSYM    DATA     BIT       EA
      000000A8H.6 SFRSYM    DATA     BIT       EC
      00000098H.7 SFRSYM    DATA     BIT       FE
      000000A8H   SFRSYM    DATA     BYTE      IE
      000000C8H.6 SFRSYM    DATA     BIT       EXF2
      000000B0H.7 SFRSYM    DATA     BIT       RD
      000000A8H.4 SFRSYM    DATA     BIT       ES
      000000B8H   SFRSYM    DATA     BYTE      IP
      00000098H.0 SFRSYM    DATA     BIT       RI
      000000B0H.2 SFRSYM    DATA     BIT       INT0
      000000D0H.7 SFRSYM    DATA     BIT       CY
      00000098H.1 SFRSYM    DATA     BIT       TI
      000000B0H.3 SFRSYM    DATA     BIT       INT1
      000000CBH   SFRSYM    DATA     BYTE      RCAP2H
      000000E5H   SFRSYM    DATA     BYTE      ISP_CMD
      000000B8H.4 SFRSYM    DATA     BIT       PS
      00000081H   SFRSYM    DATA     BYTE      SP
      00000090H.1 SFRSYM    DATA     BIT       T2EX
      000000D0H.2 SFRSYM    DATA     BIT       OV
      000000CAH   SFRSYM    DATA     BYTE      RCAP2L
      000000C8H.1 SFRSYM    DATA     BIT       C_T2
      000000B0H.6 SFRSYM    DATA     BIT       WR
      000000C8H.5 SFRSYM    DATA     BIT       RCLK
      000000C8H.4 SFRSYM    DATA     BIT       TCLK
      00000080H.0 SFRSYM    DATA     BIT       P00
      00000099H   SFRSYM    DATA     BYTE      SBUF
      00000087H   SFRSYM    DATA     BYTE      PCON
      00000090H.0 SFRSYM    DATA     BIT       P10
      00000080H.1 SFRSYM    DATA     BIT       P01
      000000A0H.0 SFRSYM    DATA     BIT       P20
      00000090H.1 SFRSYM    DATA     BIT       P11
      00000080H.2 SFRSYM    DATA     BIT       P02
      000000E3H   SFRSYM    DATA     BYTE      ISP_ADDRH
      000000B0H.0 SFRSYM    DATA     BIT       P30
      000000A0H.1 SFRSYM    DATA     BIT       P21
      00000090H.2 SFRSYM    DATA     BIT       P12
      00000080H.3 SFRSYM    DATA     BIT       P03
      00000098H   SFRSYM    DATA     BYTE      SCON
      000000B0H.1 SFRSYM    DATA     BIT       P31
      000000A0H.2 SFRSYM    DATA     BIT       P22
LX51 LINKER/LOCATER V4.66.87.0                                                        05/09/2018  21:28:12  PAGE 161


      00000090H.3 SFRSYM    DATA     BIT       P13
      00000080H.4 SFRSYM    DATA     BIT       P04
      000000E8H.0 SFRSYM    DATA     BIT       P40
      00000089H   SFRSYM    DATA     BYTE      TMOD
      00000088H   SFRSYM    DATA     BYTE      TCON
      000000B0H.2 SFRSYM    DATA     BIT       P32
      000000A0H.3 SFRSYM    DATA     BIT       P23
      00000090H.4 SFRSYM    DATA     BIT       P14
      00000080H.5 SFRSYM    DATA     BIT       P05
      000000E8H.1 SFRSYM    DATA     BIT       P41
      000000B0H.3 SFRSYM    DATA     BIT       P33
      000000A0H.4 SFRSYM    DATA     BIT       P24
      00000090H.5 SFRSYM    DATA     BIT       P15
      00000080H.6 SFRSYM    DATA     BIT       P06
      000000E4H   SFRSYM    DATA     BYTE      ISP_ADDRL
      000000E8H.2 SFRSYM    DATA     BIT       P42
      000000B0H.4 SFRSYM    DATA     BIT       P34
      000000A0H.5 SFRSYM    DATA     BIT       P25
      00000090H.6 SFRSYM    DATA     BIT       P16
      00000080H.7 SFRSYM    DATA     BIT       P07
      000000E8H.3 SFRSYM    DATA     BIT       P43
      000000B0H.5 SFRSYM    DATA     BIT       P35
      000000A0H.6 SFRSYM    DATA     BIT       P26
      00000090H.7 SFRSYM    DATA     BIT       P17
      000000E8H.4 SFRSYM    DATA     BIT       P44
      000000B0H.6 SFRSYM    DATA     BIT       P36
      000000A0H.7 SFRSYM    DATA     BIT       P27
      000000E8H.5 SFRSYM    DATA     BIT       P45
      000000B0H.7 SFRSYM    DATA     BIT       P37
      000000E8H.6 SFRSYM    DATA     BIT       P46
      00000088H.1 SFRSYM    DATA     BIT       IE0
      00000088H.3 SFRSYM    DATA     BIT       IE1
      0000008EH   SFRSYM    DATA     BYTE      AUXR
      000000F0H   SFRSYM    DATA     BYTE      B
      000000C8H.0 SFRSYM    DATA     BIT       CP_RL2
      000000E0H   SFRSYM    DATA     BYTE      ACC
      000000A8H.1 SFRSYM    DATA     BIT       ET0
      000000A8H.3 SFRSYM    DATA     BIT       ET1
      00000088H.5 SFRSYM    DATA     BIT       TF0
      000000A8H.5 SFRSYM    DATA     BIT       ET2
      00000088H.7 SFRSYM    DATA     BIT       TF1
      000000C8H.7 SFRSYM    DATA     BIT       TF2
      00000098H.2 SFRSYM    DATA     BIT       RB8
      0000008CH   SFRSYM    DATA     BYTE      TH0
      000000A8H.0 SFRSYM    DATA     BIT       EX0
      00000088H.0 SFRSYM    DATA     BIT       IT0
      0000008DH   SFRSYM    DATA     BYTE      TH1
      00000098H.3 SFRSYM    DATA     BIT       TB8
      000000A8H.2 SFRSYM    DATA     BIT       EX1
      00000088H.2 SFRSYM    DATA     BIT       IT1
      000000CDH   SFRSYM    DATA     BYTE      TH2
      000000D0H.0 SFRSYM    DATA     BIT       P
      00000098H.7 SFRSYM    DATA     BIT       SM0
      0000008AH   SFRSYM    DATA     BYTE      TL0
      00000098H.6 SFRSYM    DATA     BIT       SM1
      0000008BH   SFRSYM    DATA     BYTE      TL1
      00000098H.5 SFRSYM    DATA     BIT       SM2
      000000CCH   SFRSYM    DATA     BYTE      TL2
      000000B0H.7 SFRSYM    DATA     BIT       ROM_RESET
      000000B8H.1 SFRSYM    DATA     BIT       PT0
      000000B8H.3 SFRSYM    DATA     BIT       PT1
      000000D0H.3 SFRSYM    DATA     BIT       RS0
      000000E7H   SFRSYM    DATA     BYTE      ISP_CONTR
      000000B8H.5 SFRSYM    DATA     BIT       PT2
      00000088H.4 SFRSYM    DATA     BIT       TR0
LX51 LINKER/LOCATER V4.66.87.0                                                        05/09/2018  21:28:12  PAGE 162


      000000D0H.4 SFRSYM    DATA     BIT       RS1
      00000088H.6 SFRSYM    DATA     BIT       TR1
      000000C8H.2 SFRSYM    DATA     BIT       TR2
      000000B8H.0 SFRSYM    DATA     BIT       PX0
      000000E1H   SFRSYM    DATA     BYTE      WDT_CONTR
      000000B8H.2 SFRSYM    DATA     BIT       PX1
      00000083H   SFRSYM    DATA     BYTE      DPH
      00000082H   SFRSYM    DATA     BYTE      DPL
      000000B7H   SFRSYM    DATA     BYTE      IPH
      000000C8H.3 SFRSYM    DATA     BIT       EXEN2
      00000098H.4 SFRSYM    DATA     BIT       REN
      000000C9H   SFRSYM    DATA     BYTE      T2MOD
      000000C8H   SFRSYM    DATA     BYTE      T2CON
      000000E2H   SFRSYM    DATA     BYTE      ISP_DATA
      000000B9H   SFRSYM    DATA     BYTE      SADEN
      000000B0H.0 SFRSYM    DATA     BIT       RXD
      000000A9H   SFRSYM    DATA     BYTE      SADDR
      000000B0H.1 SFRSYM    DATA     BIT       TXD
      000000A2H   SFRSYM    DATA     BYTE      AUXR1
      000000D0H.5 SFRSYM    DATA     BIT       F0
      000000D0H   SFRSYM    DATA     BYTE      PSW
      01003685H   SYMBOL    CODE     ---       rom_reset
      0100435BH   SYMBOL    CODE     ---       rom_dump

      010067ACH   BLOCK     CODE     ---       LVL=0
      02000015H   SYMBOL    XDATA    BYTE      addr
      010067B1H   BLOCK     CODE     NEAR LAB  LVL=1
      02000016H   SYMBOL    XDATA    BYTE      dat
      ---         BLOCKEND  ---      ---       LVL=1
      010067ACH   LINE      CODE     ---       #11
      010067B1H   LINE      CODE     ---       #12
      010067B1H   LINE      CODE     ---       #14
      010067B4H   LINE      CODE     ---       #15
      010067C1H   LINE      CODE     ---       #16
      010067DAH   LINE      CODE     ---       #17
      010067DFH   LINE      CODE     ---       #18
      ---         BLOCKEND  ---      ---       LVL=0

      010069A9H   BLOCK     CODE     ---       LVL=0
      02000016H   SYMBOL    XDATA    BYTE      addr
      02000017H   SYMBOL    XDATA    BYTE      val
      010069A9H   LINE      CODE     ---       #20
      010069B1H   LINE      CODE     ---       #21
      010069B1H   LINE      CODE     ---       #22
      010069B4H   LINE      CODE     ---       #23
      010069C1H   LINE      CODE     ---       #24
      ---         BLOCKEND  ---      ---       LVL=0

      0100435BH   BLOCK     CODE     ---       LVL=0
      0100435BH   LINE      CODE     ---       #27
      0100435BH   LINE      CODE     ---       #28
      0100435BH   LINE      CODE     ---       #29
      01004360H   LINE      CODE     ---       #30
      01004365H   LINE      CODE     ---       #31
      0100436AH   LINE      CODE     ---       #32
      0100436FH   LINE      CODE     ---       #33
      01004374H   LINE      CODE     ---       #35
      01004379H   LINE      CODE     ---       #36
      0100437EH   LINE      CODE     ---       #37
      01004383H   LINE      CODE     ---       #40
      01004388H   LINE      CODE     ---       #42
      0100438DH   LINE      CODE     ---       #43
      01004392H   LINE      CODE     ---       #44
      01004397H   LINE      CODE     ---       #45
      0100439CH   LINE      CODE     ---       #47
LX51 LINKER/LOCATER V4.66.87.0                                                        05/09/2018  21:28:12  PAGE 163


      010043A1H   LINE      CODE     ---       #48
      010043A6H   LINE      CODE     ---       #49
      010043ABH   LINE      CODE     ---       #50
      010043B0H   LINE      CODE     ---       #51
      010043B5H   LINE      CODE     ---       #52
      010043BAH   LINE      CODE     ---       #54
      010043BFH   LINE      CODE     ---       #55
      010043C4H   LINE      CODE     ---       #56
      010043C9H   LINE      CODE     ---       #57
      010043CEH   LINE      CODE     ---       #58
      010043D3H   LINE      CODE     ---       #59
      ---         BLOCKEND  ---      ---       LVL=0

      01003685H   BLOCK     CODE     ---       LVL=0
      01003685H   LINE      CODE     ---       #62
      01003685H   LINE      CODE     ---       #63
      01003685H   LINE      CODE     ---       #64
      0100368CH   LINE      CODE     ---       #65
      01003693H   LINE      CODE     ---       #66
      0100369AH   LINE      CODE     ---       #67
      0100369CH   LINE      CODE     ---       #68
      010036A4H   LINE      CODE     ---       #70
      010036ABH   LINE      CODE     ---       #71
      010036B2H   LINE      CODE     ---       #72
      010036B9H   LINE      CODE     ---       #75
      010036BBH   LINE      CODE     ---       #77
      010036C3H   LINE      CODE     ---       #78
      010036CAH   LINE      CODE     ---       #79
      010036D1H   LINE      CODE     ---       #80
      010036D8H   LINE      CODE     ---       #82
      010036DFH   LINE      CODE     ---       #83
      010036E6H   LINE      CODE     ---       #84
      010036EDH   LINE      CODE     ---       #85
      010036F4H   LINE      CODE     ---       #86
      010036FBH   LINE      CODE     ---       #87
      01003702H   LINE      CODE     ---       #89
      01003709H   LINE      CODE     ---       #90
      01003710H   LINE      CODE     ---       #91
      01003717H   LINE      CODE     ---       #92
      0100371EH   LINE      CODE     ---       #93
      01003725H   LINE      CODE     ---       #94
      0100372CH   LINE      CODE     ---       #95
      ---         BLOCKEND  ---      ---       LVL=0

      010084A6H   BLOCK     CODE     ---       LVL=0
      010084A6H   LINE      CODE     ---       #97
      010084A6H   LINE      CODE     ---       #98
      010084A6H   LINE      CODE     ---       #99
      010084ADH   LINE      CODE     ---       #100
      ---         BLOCKEND  ---      ---       LVL=0

      01006140H   BLOCK     CODE     ---       LVL=0
      01006140H   LINE      CODE     ---       #102
      01006140H   LINE      CODE     ---       #103
      01006140H   LINE      CODE     ---       #104
      0100616AH   LINE      CODE     ---       #105
      0100616FH   LINE      CODE     ---       #106
      01006178H   LINE      CODE     ---       #107
      0100617BH   LINE      CODE     ---       #108
      0100617BH   LINE      CODE     ---       #110
      ---         BLOCKEND  ---      ---       LVL=0

      ---         MODULE    ---      ---       DELAY_TASK
      01005A08H   PUBLIC    CODE     ---       delay_task_call
      01005CCBH   PUBLIC    CODE     ---       _delay_task_reg
LX51 LINKER/LOCATER V4.66.87.0                                                        05/09/2018  21:28:12  PAGE 164


      0100843AH   PUBLIC    CODE     ---       delay_task_initialize
      020000B3H   SYMBOL    XDATA    ---       delay_tasks
      020000B6H   SYMBOL    XDATA    ---       task

      0100744FH   BLOCK     CODE     ---       LVL=0
      ---         BLOCKEND  ---      ---       LVL=0

      0100843AH   BLOCK     CODE     ---       LVL=0
      0100843AH   LINE      CODE     ---       #9
      0100843AH   LINE      CODE     ---       #10
      0100843AH   LINE      CODE     ---       #11
      ---         BLOCKEND  ---      ---       LVL=0

      01005CCBH   BLOCK     CODE     ---       LVL=0
      02000015H   SYMBOL    XDATA    BYTE      index
      02000016H   SYMBOL    XDATA    ---       task
      02000018H   SYMBOL    XDATA    BYTE      delay_sec
      01005CCBH   LINE      CODE     ---       #14
      01005CDEH   LINE      CODE     ---       #15
      01005CDEH   LINE      CODE     ---       #16
      01005CEFH   LINE      CODE     ---       #17
      01005CF9H   LINE      CODE     ---       #19
      01005CF9H   LINE      CODE     ---       #21
      01005D08H   LINE      CODE     ---       #22
      01005D13H   LINE      CODE     ---       #23
      ---         BLOCKEND  ---      ---       LVL=0

      01005A08H   BLOCK     CODE     ---       LVL=0
      01005A08H   BLOCK     CODE     NEAR LAB  LVL=1
      0200000DH   SYMBOL    XDATA    BYTE      i
      ---         BLOCKEND  ---      ---       LVL=1
      01005A08H   LINE      CODE     ---       #26
      01005A08H   LINE      CODE     ---       #27
      01005A08H   LINE      CODE     ---       #30
      01005A17H   LINE      CODE     ---       #31
      01005A2EH   LINE      CODE     ---       #32
      01005A3CH   LINE      CODE     ---       #33
      01005A49H   LINE      CODE     ---       #34
      01005A50H   LINE      CODE     ---       #35
      01005A50H   LINE      CODE     ---       #36
      01005A58H   LINE      CODE     ---       #37
      ---         BLOCKEND  ---      ---       LVL=0

      ---         MODULE    ---      ---       SHELL
      0200007CH   PUBLIC    XDATA    ---       shell_buf
      01009639H   PUBLIC    CONST    ---       cmds
      010022B1H   PUBLIC    CODE     ---       run_shell
      010066D9H   PUBLIC    CODE     ---       shell_dump_cmd
      01005D14H   PUBLIC    CODE     ---       _shell_search_cmd_by_name
      010043D8H   SYMBOL    CODE     ---       _call_cmd
      01008296H   SYMBOL    CODE     ---       _cmd_null

      01005B99H   BLOCK     CODE     ---       LVL=0
      ---         BLOCKEND  ---      ---       LVL=0

      01008296H   BLOCK     CODE     ---       LVL=0
      02000000H   SYMBOL    XDATA    CHAR      arg1
      02000001H   SYMBOL    XDATA    CHAR      arg2
      01008296H   LINE      CODE     ---       #26
      01008296H   LINE      CODE     ---       #27
      01008296H   LINE      CODE     ---       #28
      01008296H   LINE      CODE     ---       #29
      01008296H   LINE      CODE     ---       #30
      0100829FH   LINE      CODE     ---       #31
      010082A1H   LINE      CODE     ---       #32
LX51 LINKER/LOCATER V4.66.87.0                                                        05/09/2018  21:28:12  PAGE 165


      ---         BLOCKEND  ---      ---       LVL=0

      01005D14H   BLOCK     CODE     ---       LVL=0
      02000009H   SYMBOL    XDATA    ---       cmd
      01005D1AH   BLOCK     CODE     NEAR LAB  LVL=1
      0200000CH   SYMBOL    XDATA    CHAR      i
      ---         BLOCKEND  ---      ---       LVL=1
      01005D14H   LINE      CODE     ---       #81
      01005D1AH   LINE      CODE     ---       #82
      01005D1AH   LINE      CODE     ---       #84
      01005D2BH   LINE      CODE     ---       #85
      01005D4CH   LINE      CODE     ---       #86
      01005D52H   LINE      CODE     ---       #87
      01005D52H   LINE      CODE     ---       #88
      01005D5AH   LINE      CODE     ---       #89
      01005D5CH   LINE      CODE     ---       #90
      ---         BLOCKEND  ---      ---       LVL=0

      010043D8H   BLOCK     CODE     ---       LVL=0
      02000002H   SYMBOL    XDATA    ---       buf
      02000005H   SYMBOL    XDATA    CHAR      arg1
      02000006H   SYMBOL    XDATA    CHAR      arg2
      010043E3H   BLOCK     CODE     NEAR LAB  LVL=1
      02000007H   SYMBOL    XDATA    CHAR      i
      ---         BLOCKEND  ---      ---       LVL=1
      010043D8H   LINE      CODE     ---       #92
      010043E3H   LINE      CODE     ---       #93
      010043E3H   LINE      CODE     ---       #95
      010043EFH   LINE      CODE     ---       #96
      010043FDH   LINE      CODE     ---       #97
      01004400H   LINE      CODE     ---       #98
      01004428H   LINE      CODE     ---       #99
      01004445H   LINE      CODE     ---       #100
      01004445H   LINE      CODE     ---       #101
      01004447H   LINE      CODE     ---       #102
      01004453H   LINE      CODE     ---       #103
      01004453H   LINE      CODE     ---       #104
      ---         BLOCKEND  ---      ---       LVL=0

      010066D9H   BLOCK     CODE     ---       LVL=0
      010066D9H   BLOCK     CODE     NEAR LAB  LVL=1
      02000009H   SYMBOL    XDATA    CHAR      i
      ---         BLOCKEND  ---      ---       LVL=1
      010066D9H   LINE      CODE     ---       #106
      010066D9H   LINE      CODE     ---       #107
      010066D9H   LINE      CODE     ---       #109
      010066EAH   LINE      CODE     ---       #110
      01006705H   LINE      CODE     ---       #111
      0100670DH   LINE      CODE     ---       #112
      ---         BLOCKEND  ---      ---       LVL=0

      010022B1H   BLOCK     CODE     ---       LVL=0
      010022B1H   BLOCK     CODE     NEAR LAB  LVL=1
      02000000H   SYMBOL    XDATA    CHAR      arg1_pos
      02000001H   SYMBOL    XDATA    CHAR      arg2_pos
      ---         BLOCKEND  ---      ---       LVL=1
      010022B1H   LINE      CODE     ---       #114
      010022B1H   LINE      CODE     ---       #115
      010022B1H   LINE      CODE     ---       #118
      010022B4H   LINE      CODE     ---       #119
      010022BDH   LINE      CODE     ---       #120
      010022C0H   LINE      CODE     ---       #123
      010022C3H   LINE      CODE     ---       #124
      010022C6H   LINE      CODE     ---       #125
      010022C9H   LINE      CODE     ---       #126
LX51 LINKER/LOCATER V4.66.87.0                                                        05/09/2018  21:28:12  PAGE 166


      010022D0H   LINE      CODE     ---       #127
      010022D7H   LINE      CODE     ---       #128
      010022DEH   LINE      CODE     ---       #129
      010022E5H   LINE      CODE     ---       #130
      010022EAH   LINE      CODE     ---       #131
      010022EAH   LINE      CODE     ---       #132
      010022F3H   LINE      CODE     ---       #134
      01002300H   LINE      CODE     ---       #136
      01002305H   LINE      CODE     ---       #138
      0100230EH   LINE      CODE     ---       #139
      0100230EH   LINE      CODE     ---       #141
      01002313H   LINE      CODE     ---       #142
      01002315H   LINE      CODE     ---       #144
      0100232AH   LINE      CODE     ---       #146
      01002335H   LINE      CODE     ---       #147
      01002335H   LINE      CODE     ---       #148
      01002337H   LINE      CODE     ---       #149
      01002337H   LINE      CODE     ---       #151
      01002343H   LINE      CODE     ---       #152
      01002348H   LINE      CODE     ---       #153
      0100234EH   LINE      CODE     ---       #154
      01002350H   LINE      CODE     ---       #156
      0100235BH   LINE      CODE     ---       #157
      01002367H   LINE      CODE     ---       #158
      01002369H   LINE      CODE     ---       #159
      01002369H   LINE      CODE     ---       #161
      0100236FH   LINE      CODE     ---       #163
      01002387H   LINE      CODE     ---       #165
      01002392H   LINE      CODE     ---       #166
      0100239AH   LINE      CODE     ---       #167
      0100239CH   LINE      CODE     ---       #168
      0100239CH   LINE      CODE     ---       #170
      010023ABH   LINE      CODE     ---       #171
      010023B0H   LINE      CODE     ---       #172
      010023B6H   LINE      CODE     ---       #173
      010023B8H   LINE      CODE     ---       #175
      010023C6H   LINE      CODE     ---       #176
      010023CEH   LINE      CODE     ---       #177
      010023D0H   LINE      CODE     ---       #178
      010023D0H   LINE      CODE     ---       #180
      010023DCH   LINE      CODE     ---       #182
      010023F1H   LINE      CODE     ---       #184
      010023F4H   LINE      CODE     ---       #185
      010023F7H   LINE      CODE     ---       #186
      010023FAH   LINE      CODE     ---       #187
      ---         BLOCKEND  ---      ---       LVL=0

      ---         MODULE    ---      ---       DEBUG
      0200001BH   PUBLIC    XDATA    BYTE      ?_debug_printf?BYTE
      01006600H   PUBLIC    CODE     ---       _debug_printf
      00000020H.0 PUBLIC    BIT      BIT       ?debug_onoff?BIT
      01008580H   PUBLIC    CODE     ---       debug_onoff
      010085A9H   PUBLIC    CODE     ---       debug_initialize
      00000024H.7 SYMBOL    BIT      BIT       debug_is_on

      010085A9H   BLOCK     CODE     ---       LVL=0
      010085A9H   LINE      CODE     ---       #7
      010085A9H   LINE      CODE     ---       #8
      010085A9H   LINE      CODE     ---       #9
      010085ABH   LINE      CODE     ---       #10
      ---         BLOCKEND  ---      ---       LVL=0

      01008580H   BLOCK     CODE     ---       LVL=0
      00000020H.0 SYMBOL    BIT      BIT       enable
      01008580H   LINE      CODE     ---       #12
LX51 LINKER/LOCATER V4.66.87.0                                                        05/09/2018  21:28:12  PAGE 167


      01008580H   LINE      CODE     ---       #13
      01008580H   LINE      CODE     ---       #14
      01008584H   LINE      CODE     ---       #15
      ---         BLOCKEND  ---      ---       LVL=0

      01006600H   BLOCK     CODE     ---       LVL=0
      0200001BH   SYMBOL    XDATA    ---       fmt
      01006606H   BLOCK     CODE     NEAR LAB  LVL=1
      0200001EH   SYMBOL    XDATA    ---       ellipsis_40
      02000046H   SYMBOL    XDATA    ---       arg_ptr
      ---         BLOCKEND  ---      ---       LVL=1
      01006600H   LINE      CODE     ---       #17
      01006606H   LINE      CODE     ---       #18
      01006606H   LINE      CODE     ---       #21
      01006609H   LINE      CODE     ---       #22
      01006615H   LINE      CODE     ---       #23
      0100662AH   LINE      CODE     ---       #24
      01006636H   LINE      CODE     ---       #25
      01006636H   LINE      CODE     ---       #26
      ---         BLOCKEND  ---      ---       LVL=0

      ---         MODULE    ---      ---       MPU
      010071CDH   PUBLIC    CODE     ---       mpu_read_int_status
      01008201H   PUBLIC    CODE     ---       _mpu_threshold_set
      0100852AH   PUBLIC    CODE     ---       mpu_threshold_get
      01007FD1H   PUBLIC    CODE     ---       _mpu_threshold_inc
      010084AEH   PUBLIC    CODE     ---       mpu_threshold_reset
      00000020H.1 PUBLIC    BIT      BIT       ?mpu_enable?BIT
      0100750EH   PUBLIC    CODE     ---       mpu_enable
      01006B27H   PUBLIC    CODE     ---       scan_mpu
      0100844CH   PUBLIC    CODE     ---       mpu_leave_powersave
      01008443H   PUBLIC    CODE     ---       mpu_enter_powersave
      01007CFCH   PUBLIC    CODE     ---       mpu_initialize
      01006C0EH   SYMBOL    CODE     ---       mpu_power_off
      020000D3H   SYMBOL    XDATA    BYTE      mpu_threshold
      01006BE0H   SYMBOL    CODE     ---       mpu_power_on

      01007F0AH   BLOCK     CODE     ---       LVL=0
      ---         BLOCKEND  ---      ---       LVL=0

      01006BE0H   BLOCK     CODE     ---       LVL=0
      01006BE0H   BLOCK     CODE     NEAR LAB  LVL=1
      02000015H   SYMBOL    XDATA    BYTE      val
      ---         BLOCKEND  ---      ---       LVL=1
      01006BE0H   LINE      CODE     ---       #19
      01006BE0H   LINE      CODE     ---       #20
      01006BE0H   LINE      CODE     ---       #22
      01006BE9H   LINE      CODE     ---       #26
      01006BF2H   LINE      CODE     ---       #29
      01006BFBH   LINE      CODE     ---       #32
      01006C05H   LINE      CODE     ---       #34
      ---         BLOCKEND  ---      ---       LVL=0

      01006C0EH   BLOCK     CODE     ---       LVL=0
      01006C0EH   BLOCK     CODE     NEAR LAB  LVL=1
      02000015H   SYMBOL    XDATA    BYTE      val
      ---         BLOCKEND  ---      ---       LVL=1
      01006C0EH   LINE      CODE     ---       #110
      01006C0EH   LINE      CODE     ---       #111
      01006C0EH   LINE      CODE     ---       #113
      01006C17H   LINE      CODE     ---       #116
      01006C20H   LINE      CODE     ---       #119
      01006C29H   LINE      CODE     ---       #122
      01006C33H   LINE      CODE     ---       #124
      ---         BLOCKEND  ---      ---       LVL=0
LX51 LINKER/LOCATER V4.66.87.0                                                        05/09/2018  21:28:12  PAGE 168



      01007CFCH   BLOCK     CODE     ---       LVL=0
      01007CFCH   LINE      CODE     ---       #148
      01007CFCH   LINE      CODE     ---       #149
      01007CFCH   LINE      CODE     ---       #150
      01007D05H   LINE      CODE     ---       #152
      01007D0FH   LINE      CODE     ---       #154
      ---         BLOCKEND  ---      ---       LVL=0

      01008443H   BLOCK     CODE     ---       LVL=0
      01008443H   LINE      CODE     ---       #157
      01008443H   LINE      CODE     ---       #158
      01008443H   LINE      CODE     ---       #159
      ---         BLOCKEND  ---      ---       LVL=0

      0100844CH   BLOCK     CODE     ---       LVL=0
      0100844CH   LINE      CODE     ---       #162
      0100844CH   LINE      CODE     ---       #163
      0100844CH   LINE      CODE     ---       #164
      ---         BLOCKEND  ---      ---       LVL=0

      01006B27H   BLOCK     CODE     ---       LVL=0
      01006B27H   BLOCK     CODE     NEAR LAB  LVL=1
      00000007H   SYMBOL    DATA     BYTE      val
      00000020H.0 SYMBOL    BIT      BIT       has_event
      ---         BLOCKEND  ---      ---       LVL=1
      01006B27H   LINE      CODE     ---       #167
      01006B27H   LINE      CODE     ---       #168
      01006B27H   LINE      CODE     ---       #170
      01006B29H   LINE      CODE     ---       #172
      01006B32H   LINE      CODE     ---       #173
      01006B35H   LINE      CODE     ---       #176
      01006B39H   LINE      CODE     ---       #180
      01006B42H   LINE      CODE     ---       #181
      01006B48H   LINE      CODE     ---       #182
      01006B4AH   LINE      CODE     ---       #183
      01006B4AH   LINE      CODE     ---       #185
      01006B52H   LINE      CODE     ---       #186
      01006B55H   LINE      CODE     ---       #187
      01006B55H   LINE      CODE     ---       #188
      ---         BLOCKEND  ---      ---       LVL=0

      0100750EH   BLOCK     CODE     ---       LVL=0
      00000020H.1 SYMBOL    BIT      BIT       enable
      0100750EH   LINE      CODE     ---       #190
      0100750EH   LINE      CODE     ---       #191
      0100750EH   LINE      CODE     ---       #192
      01007523H   LINE      CODE     ---       #193
      01007526H   LINE      CODE     ---       #194
      01007529H   LINE      CODE     ---       #195
      01007529H   LINE      CODE     ---       #196
      0100752CH   LINE      CODE     ---       #197
      0100752CH   LINE      CODE     ---       #199
      ---         BLOCKEND  ---      ---       LVL=0

      010084AEH   BLOCK     CODE     ---       LVL=0
      010084AEH   LINE      CODE     ---       #201
      010084AEH   LINE      CODE     ---       #202
      010084AEH   LINE      CODE     ---       #203
      ---         BLOCKEND  ---      ---       LVL=0

      01007FD1H   BLOCK     CODE     ---       LVL=0
      00000007H   SYMBOL    DATA     BYTE      thres
      01007FD1H   LINE      CODE     ---       #207
      01007FD1H   LINE      CODE     ---       #208
LX51 LINKER/LOCATER V4.66.87.0                                                        05/09/2018  21:28:12  PAGE 169


      01007FD1H   LINE      CODE     ---       #209
      01007FD5H   LINE      CODE     ---       #210
      01007FDBH   LINE      CODE     ---       #211
      01007FDCH   LINE      CODE     ---       #212
      01007FDDH   LINE      CODE     ---       #213
      01007FDDH   LINE      CODE     ---       #214
      01007FE0H   LINE      CODE     ---       #215
      01007FE0H   LINE      CODE     ---       #216
      01007FE0H   LINE      CODE     ---       #217
      01007FE2H   LINE      CODE     ---       #218
      01007FE2H   LINE      CODE     ---       #219
      ---         BLOCKEND  ---      ---       LVL=0

      0100852AH   BLOCK     CODE     ---       LVL=0
      0100852AH   LINE      CODE     ---       #221
      0100852AH   LINE      CODE     ---       #222
      0100852AH   LINE      CODE     ---       #224
      0100852FH   LINE      CODE     ---       #230
      ---         BLOCKEND  ---      ---       LVL=0

      01008201H   BLOCK     CODE     ---       LVL=0
      00000007H   SYMBOL    DATA     BYTE      val
      01008201H   LINE      CODE     ---       #232
      01008201H   LINE      CODE     ---       #233
      01008201H   LINE      CODE     ---       #234
      ---         BLOCKEND  ---      ---       LVL=0

      010071CDH   BLOCK     CODE     ---       LVL=0
      010071CDH   BLOCK     CODE     NEAR LAB  LVL=1
      02000016H   SYMBOL    XDATA    BYTE      val
      ---         BLOCKEND  ---      ---       LVL=1
      010071CDH   LINE      CODE     ---       #252
      010071CDH   LINE      CODE     ---       #253
      010071CDH   LINE      CODE     ---       #256
      010071DAH   LINE      CODE     ---       #260
      010071EBH   LINE      CODE     ---       #261
      010071F0H   LINE      CODE     ---       #262
      ---         BLOCKEND  ---      ---       LVL=0

      ---         MODULE    ---      ---       SM_CLOCK_TIMER
      0100BDEEH   PUBLIC    CONST    ---       sm_clock_timer_ss_name
      01005398H   PUBLIC    CODE     ---       _sm_clock_timer_submod2
      0100488AH   PUBLIC    CODE     ---       _sm_clock_timer_submod1
      01005DA6H   PUBLIC    CODE     ---       _sm_clock_timer_submod0
      01007991H   PUBLIC    CODE     ---       _sm_clock_timer_init
      0100425EH   SYMBOL    CODE     ---       _display_slot
      01006406H   SYMBOL    CODE     ---       _show_slot_title

      0100736CH   BLOCK     CODE     ---       LVL=0
      ---         BLOCKEND  ---      ---       LVL=0

      01006406H   BLOCK     CODE     ---       LVL=0
      02000012H   SYMBOL    XDATA    BYTE      slot
      01006406H   LINE      CODE     ---       #20
      0100640BH   LINE      CODE     ---       #21
      0100640BH   LINE      CODE     ---       #22
      0100640EH   LINE      CODE     ---       #23
      01006415H   LINE      CODE     ---       #24
      0100641CH   LINE      CODE     ---       #25
      01006423H   LINE      CODE     ---       #26
      01006433H   LINE      CODE     ---       #27
      ---         BLOCKEND  ---      ---       LVL=0

      0100425EH   BLOCK     CODE     ---       LVL=0
      02000014H   SYMBOL    XDATA    BYTE      slot
LX51 LINKER/LOCATER V4.66.87.0                                                        05/09/2018  21:28:12  PAGE 170


      0100425EH   LINE      CODE     ---       #30
      01004263H   LINE      CODE     ---       #31
      01004263H   LINE      CODE     ---       #32
      01004266H   LINE      CODE     ---       #34
      0100426BH   LINE      CODE     ---       #35
      0100426FH   LINE      CODE     ---       #36
      01004273H   LINE      CODE     ---       #37
      01004277H   LINE      CODE     ---       #38
      01004282H   LINE      CODE     ---       #39
      0100428BH   LINE      CODE     ---       #40
      01004294H   LINE      CODE     ---       #41
      010042A2H   LINE      CODE     ---       #42
      010042ADH   LINE      CODE     ---       #43
      010042BBH   LINE      CODE     ---       #44
      ---         BLOCKEND  ---      ---       LVL=0

      01007991H   BLOCK     CODE     ---       LVL=0
      00000007H   SYMBOL    DATA     BYTE      from
      00000005H   SYMBOL    DATA     BYTE      to
      00000006H   SYMBOL    DATA     BYTE      ev
      01007991H   LINE      CODE     ---       #46
      01007993H   LINE      CODE     ---       #47
      01007993H   LINE      CODE     ---       #48
      0100799FH   LINE      CODE     ---       #49
      010079A4H   LINE      CODE     ---       #50
      ---         BLOCKEND  ---      ---       LVL=0

      01005DA6H   BLOCK     CODE     ---       LVL=0
      02000011H   SYMBOL    XDATA    BYTE      from
      02000012H   SYMBOL    XDATA    BYTE      to
      02000013H   SYMBOL    XDATA    BYTE      ev
      01005DA6H   LINE      CODE     ---       #53
      01005DB1H   LINE      CODE     ---       #54
      01005DB1H   LINE      CODE     ---       #55
      01005DBBH   LINE      CODE     ---       #57
      01005DD0H   LINE      CODE     ---       #59
      01005DD0H   LINE      CODE     ---       #60
      01005DD5H   LINE      CODE     ---       #61
      01005DDAH   LINE      CODE     ---       #62
      01005DDEH   LINE      CODE     ---       #64
      01005DDEH   LINE      CODE     ---       #67
      01005DE5H   LINE      CODE     ---       #68
      01005DE8H   LINE      CODE     ---       #69
      01005DEDH   LINE      CODE     ---       #71
      01005DEDH   LINE      CODE     ---       #72
      ---         BLOCKEND  ---      ---       LVL=0

      0100488AH   BLOCK     CODE     ---       LVL=0
      00000007H   SYMBOL    DATA     BYTE      from
      00000005H   SYMBOL    DATA     BYTE      to
      02000011H   SYMBOL    XDATA    BYTE      ev
      0100488AH   LINE      CODE     ---       #74
      0100488FH   LINE      CODE     ---       #75
      0100488FH   LINE      CODE     ---       #76
      01004899H   LINE      CODE     ---       #78
      010048A0H   LINE      CODE     ---       #79
      010048A3H   LINE      CODE     ---       #80
      010048A6H   LINE      CODE     ---       #81
      010048AAH   LINE      CODE     ---       #83
      010048AAH   LINE      CODE     ---       #86
      010048B1H   LINE      CODE     ---       #87
      010048BAH   LINE      CODE     ---       #88
      010048C5H   LINE      CODE     ---       #89
      010048CDH   LINE      CODE     ---       #90
      010048CDH   LINE      CODE     ---       #92
LX51 LINKER/LOCATER V4.66.87.0                                                        05/09/2018  21:28:12  PAGE 171


      010048CDH   LINE      CODE     ---       #94
      010048D4H   LINE      CODE     ---       #95
      010048DDH   LINE      CODE     ---       #96
      010048E0H   LINE      CODE     ---       #97
      010048E8H   LINE      CODE     ---       #98
      010048EEH   LINE      CODE     ---       #99
      010048EEH   LINE      CODE     ---       #101
      010048EEH   LINE      CODE     ---       #102
      ---         BLOCKEND  ---      ---       LVL=0

      01005398H   BLOCK     CODE     ---       LVL=0
      00000007H   SYMBOL    DATA     BYTE      from
      00000005H   SYMBOL    DATA     BYTE      to
      02000011H   SYMBOL    XDATA    BYTE      ev
      01005398H   LINE      CODE     ---       #104
      0100539EH   LINE      CODE     ---       #105
      0100539EH   LINE      CODE     ---       #106
      010053AAH   LINE      CODE     ---       #108
      010053B1H   LINE      CODE     ---       #109
      010053B4H   LINE      CODE     ---       #110
      010053BFH   LINE      CODE     ---       #111
      010053C4H   LINE      CODE     ---       #112
      010053C8H   LINE      CODE     ---       #114
      010053C8H   LINE      CODE     ---       #117
      010053CFH   LINE      CODE     ---       #118
      010053D7H   LINE      CODE     ---       #120
      010053D7H   LINE      CODE     ---       #122
      010053DEH   LINE      CODE     ---       #123
      010053E6H   LINE      CODE     ---       #124
      010053F3H   LINE      CODE     ---       #126
      010053F3H   LINE      CODE     ---       #127
      ---         BLOCKEND  ---      ---       LVL=0

      ---         MODULE    ---      ---       SM_CLOCK_COUNTER
      0100B18AH   PUBLIC    CONST    ---       sm_clock_counter_ss_name
      010070A7H   PUBLIC    CODE     ---       _sm_clock_counter_submod5
      0100725BH   PUBLIC    CODE     ---       _sm_clock_counter_submod4
      01005FC7H   PUBLIC    CODE     ---       _sm_clock_counter_submod3
      01005281H   PUBLIC    CODE     ---       _sm_clock_counter_submod2
      0100544EH   PUBLIC    CODE     ---       _sm_clock_counter_submod1
      01003E0AH   PUBLIC    CODE     ---       _sm_clock_counter_submod0
      01007D91H   PUBLIC    CODE     ---       _sm_clock_counter_init
      01006E76H   SYMBOL    CODE     ---       _enter_hhmmss
      01006D9FH   SYMBOL    CODE     ---       _write_only
      01008364H   SYMBOL    CODE     ---       _inc_and_write
      01005E35H   SYMBOL    CODE     ---       _inc_only
      01003BB8H   SYMBOL    CODE     ---       update_hhmmss

      0100670EH   BLOCK     CODE     ---       LVL=0
      ---         BLOCKEND  ---      ---       LVL=0

      01005E35H   BLOCK     CODE     ---       LVL=0
      00000007H   SYMBOL    DATA     BYTE      what
      01005E35H   LINE      CODE     ---       #21
      01005E35H   LINE      CODE     ---       #22
      01005E35H   LINE      CODE     ---       #23
      01005E40H   LINE      CODE     ---       #24
      01005E40H   LINE      CODE     ---       #25
      01005E43H   LINE      CODE     ---       #26
      01005E45H   LINE      CODE     ---       #27
      01005E47H   LINE      CODE     ---       #28
      01005E4AH   LINE      CODE     ---       #29
      01005E4AH   LINE      CODE     ---       #30
      01005E4FH   LINE      CODE     ---       #31
      01005E4FH   LINE      CODE     ---       #32
LX51 LINKER/LOCATER V4.66.87.0                                                        05/09/2018  21:28:12  PAGE 172


      01005E4FH   LINE      CODE     ---       #33
      01005E52H   LINE      CODE     ---       #34
      01005E54H   LINE      CODE     ---       #35
      01005E56H   LINE      CODE     ---       #36
      01005E59H   LINE      CODE     ---       #37
      01005E59H   LINE      CODE     ---       #38
      01005E5EH   LINE      CODE     ---       #39
      01005E5EH   LINE      CODE     ---       #40
      01005E5EH   LINE      CODE     ---       #41
      01005E61H   LINE      CODE     ---       #42
      01005E63H   LINE      CODE     ---       #43
      01005E68H   LINE      CODE     ---       #44
      01005E6CH   LINE      CODE     ---       #45
      01005E6CH   LINE      CODE     ---       #46
      01005E71H   LINE      CODE     ---       #47
      01005E71H   LINE      CODE     ---       #48
      01005E71H   LINE      CODE     ---       #49
      ---         BLOCKEND  ---      ---       LVL=0

      01006D9FH   BLOCK     CODE     ---       LVL=0
      00000007H   SYMBOL    DATA     BYTE      what
      01006D9FH   LINE      CODE     ---       #51
      01006D9FH   LINE      CODE     ---       #52
      01006D9FH   LINE      CODE     ---       #53
      01006DAAH   LINE      CODE     ---       #54
      01006DAAH   LINE      CODE     ---       #55
      01006DADH   LINE      CODE     ---       #56
      01006DAFH   LINE      CODE     ---       #57
      01006DB1H   LINE      CODE     ---       #58
      01006DB1H   LINE      CODE     ---       #59
      01006DB1H   LINE      CODE     ---       #60
      01006DB3H   LINE      CODE     ---       #61
      01006DB3H   LINE      CODE     ---       #62
      01006DB6H   LINE      CODE     ---       #63
      01006DB8H   LINE      CODE     ---       #64
      01006DBAH   LINE      CODE     ---       #65
      01006DBAH   LINE      CODE     ---       #66
      01006DBAH   LINE      CODE     ---       #67
      01006DBCH   LINE      CODE     ---       #68
      01006DBCH   LINE      CODE     ---       #69
      01006DBFH   LINE      CODE     ---       #70
      01006DC1H   LINE      CODE     ---       #71
      01006DC6H   LINE      CODE     ---       #72
      01006DCAH   LINE      CODE     ---       #73
      01006DCAH   LINE      CODE     ---       #74
      01006DCAH   LINE      CODE     ---       #75
      01006DCAH   LINE      CODE     ---       #76
      ---         BLOCKEND  ---      ---       LVL=0

      01008364H   BLOCK     CODE     ---       LVL=0
      00000006H   SYMBOL    DATA     BYTE      what
      01008364H   LINE      CODE     ---       #78
      01008366H   LINE      CODE     ---       #79
      01008366H   LINE      CODE     ---       #80
      01008369H   LINE      CODE     ---       #81
      ---         BLOCKEND  ---      ---       LVL=0

      01003BB8H   BLOCK     CODE     ---       LVL=0
      01003BB8H   BLOCK     CODE     NEAR LAB  LVL=1
      02000015H   SYMBOL    XDATA    BYTE      hour
      02000016H   SYMBOL    XDATA    BYTE      min
      02000017H   SYMBOL    XDATA    BYTE      sec
      ---         BLOCKEND  ---      ---       LVL=1
      01003BB8H   LINE      CODE     ---       #84
      01003BB8H   LINE      CODE     ---       #85
LX51 LINKER/LOCATER V4.66.87.0                                                        05/09/2018  21:28:12  PAGE 173


      01003BB8H   LINE      CODE     ---       #88
      01003BC2H   LINE      CODE     ---       #89
      01003BCAH   LINE      CODE     ---       #90
      01003BD2H   LINE      CODE     ---       #93
      01003BD7H   LINE      CODE     ---       #94
      01003BDBH   LINE      CODE     ---       #95
      01003BDFH   LINE      CODE     ---       #96
      01003BE3H   LINE      CODE     ---       #98
      01003C04H   LINE      CODE     ---       #100
      01003C0CH   LINE      CODE     ---       #101
      01003C17H   LINE      CODE     ---       #102
      01003C1FH   LINE      CODE     ---       #103
      01003C2AH   LINE      CODE     ---       #104
      01003C3AH   LINE      CODE     ---       #105
      01003C45H   LINE      CODE     ---       #107
      ---         BLOCKEND  ---      ---       LVL=0

      01006E76H   BLOCK     CODE     ---       LVL=0
      02000014H   SYMBOL    XDATA    BYTE      what
      01006E76H   LINE      CODE     ---       #109
      01006E7BH   LINE      CODE     ---       #110
      01006E7BH   LINE      CODE     ---       #111
      01006E7EH   LINE      CODE     ---       #112
      01006E8CH   LINE      CODE     ---       #113
      01006E8CH   LINE      CODE     ---       #114
      01006E8EH   LINE      CODE     ---       #115
      01006E8EH   LINE      CODE     ---       #116
      01006E90H   LINE      CODE     ---       #117
      01006E90H   LINE      CODE     ---       #118
      01006E92H   LINE      CODE     ---       #119
      01006E92H   LINE      CODE     ---       #120
      01006E94H   LINE      CODE     ---       #121
      01006E94H   LINE      CODE     ---       #122
      01006E99H   LINE      CODE     ---       #123
      01006E9DH   LINE      CODE     ---       #124
      01006E9DH   LINE      CODE     ---       #125
      01006E9DH   LINE      CODE     ---       #126
      ---         BLOCKEND  ---      ---       LVL=0

      01007D91H   BLOCK     CODE     ---       LVL=0
      00000007H   SYMBOL    DATA     BYTE      from
      00000005H   SYMBOL    DATA     BYTE      to
      00000006H   SYMBOL    DATA     BYTE      ev
      01007D91H   LINE      CODE     ---       #129
      01007D93H   LINE      CODE     ---       #130
      01007D93H   LINE      CODE     ---       #131
      01007D9FH   LINE      CODE     ---       #132
      ---         BLOCKEND  ---      ---       LVL=0

      01003E0AH   BLOCK     CODE     ---       LVL=0
      02000011H   SYMBOL    XDATA    BYTE      from
      02000012H   SYMBOL    XDATA    BYTE      to
      02000013H   SYMBOL    XDATA    BYTE      ev
      01003E0AH   LINE      CODE     ---       #135
      01003E15H   LINE      CODE     ---       #136
      01003E15H   LINE      CODE     ---       #137
      01003E1FH   LINE      CODE     ---       #139
      01003E34H   LINE      CODE     ---       #141
      01003E34H   LINE      CODE     ---       #142
      01003E39H   LINE      CODE     ---       #143
      01003E3CH   LINE      CODE     ---       #144
      01003E41H   LINE      CODE     ---       #145
      01003E47H   LINE      CODE     ---       #147
      01003E47H   LINE      CODE     ---       #150
      01003E4DH   LINE      CODE     ---       #151
LX51 LINKER/LOCATER V4.66.87.0                                                        05/09/2018  21:28:12  PAGE 174


      01003E50H   LINE      CODE     ---       #153
      01003E50H   LINE      CODE     ---       #156
      01003E58H   LINE      CODE     ---       #157
      01003E5DH   LINE      CODE     ---       #159
      01003E5DH   LINE      CODE     ---       #162
      01003E61H   LINE      CODE     ---       #163
      01003E66H   LINE      CODE     ---       #164
      01003E6AH   LINE      CODE     ---       #165
      01003E6AH   LINE      CODE     ---       #166
      01003E6AH   LINE      CODE     ---       #167
      01003E73H   LINE      CODE     ---       #169
      01003E73H   LINE      CODE     ---       #172
      01003E7BH   LINE      CODE     ---       #173
      01003E80H   LINE      CODE     ---       #174
      01003E86H   LINE      CODE     ---       #176
      01003E86H   LINE      CODE     ---       #179
      01003E8AH   LINE      CODE     ---       #180
      01003E90H   LINE      CODE     ---       #181
      01003E93H   LINE      CODE     ---       #182
      01003E98H   LINE      CODE     ---       #184
      01003E98H   LINE      CODE     ---       #185
      ---         BLOCKEND  ---      ---       LVL=0

      0100544EH   BLOCK     CODE     ---       LVL=0
      00000007H   SYMBOL    DATA     BYTE      from
      00000005H   SYMBOL    DATA     BYTE      to
      02000011H   SYMBOL    XDATA    BYTE      ev
      0100544EH   LINE      CODE     ---       #187
      01005453H   LINE      CODE     ---       #188
      01005453H   LINE      CODE     ---       #189
      0100545DH   LINE      CODE     ---       #191
      01005463H   LINE      CODE     ---       #192
      01005466H   LINE      CODE     ---       #194
      01005466H   LINE      CODE     ---       #197
      0100546DH   LINE      CODE     ---       #198
      01005472H   LINE      CODE     ---       #200
      01005472H   LINE      CODE     ---       #203
      0100547AH   LINE      CODE     ---       #204
      0100547FH   LINE      CODE     ---       #206
      0100547FH   LINE      CODE     ---       #209
      01005483H   LINE      CODE     ---       #210
      01005488H   LINE      CODE     ---       #211
      0100548DH   LINE      CODE     ---       #212
      0100548DH   LINE      CODE     ---       #213
      0100548DH   LINE      CODE     ---       #214
      01005496H   LINE      CODE     ---       #216
      01005496H   LINE      CODE     ---       #219
      0100549DH   LINE      CODE     ---       #220
      010054A2H   LINE      CODE     ---       #221
      010054A7H   LINE      CODE     ---       #223
      010054A7H   LINE      CODE     ---       #224
      ---         BLOCKEND  ---      ---       LVL=0

      01005281H   BLOCK     CODE     ---       LVL=0
      00000007H   SYMBOL    DATA     BYTE      from
      00000005H   SYMBOL    DATA     BYTE      to
      02000011H   SYMBOL    XDATA    BYTE      ev
      01005281H   LINE      CODE     ---       #226
      01005287H   LINE      CODE     ---       #227
      01005287H   LINE      CODE     ---       #228
      01005293H   LINE      CODE     ---       #230
      01005299H   LINE      CODE     ---       #231
      0100529CH   LINE      CODE     ---       #233
      0100529CH   LINE      CODE     ---       #236
      010052A3H   LINE      CODE     ---       #237
LX51 LINKER/LOCATER V4.66.87.0                                                        05/09/2018  21:28:12  PAGE 175


      010052A8H   LINE      CODE     ---       #239
      010052A8H   LINE      CODE     ---       #242
      010052B0H   LINE      CODE     ---       #243
      010052B5H   LINE      CODE     ---       #245
      010052B5H   LINE      CODE     ---       #248
      010052B9H   LINE      CODE     ---       #249
      010052BEH   LINE      CODE     ---       #250
      010052C3H   LINE      CODE     ---       #251
      010052C3H   LINE      CODE     ---       #252
      010052C3H   LINE      CODE     ---       #253
      010052CCH   LINE      CODE     ---       #255
      010052CCH   LINE      CODE     ---       #258
      010052D3H   LINE      CODE     ---       #259
      010052D8H   LINE      CODE     ---       #260
      010052DDH   LINE      CODE     ---       #262
      010052DDH   LINE      CODE     ---       #263
      ---         BLOCKEND  ---      ---       LVL=0

      01005FC7H   BLOCK     CODE     ---       LVL=0
      00000007H   SYMBOL    DATA     BYTE      from
      00000005H   SYMBOL    DATA     BYTE      to
      02000011H   SYMBOL    XDATA    BYTE      ev
      01005FC7H   LINE      CODE     ---       #265
      01005FCDH   LINE      CODE     ---       #266
      01005FCDH   LINE      CODE     ---       #267
      01005FD9H   LINE      CODE     ---       #270
      01005FE0H   LINE      CODE     ---       #271
      01005FE3H   LINE      CODE     ---       #272
      01005FE8H   LINE      CODE     ---       #273
      01005FECH   LINE      CODE     ---       #274
      01005FEEH   LINE      CODE     ---       #276
      01005FEEH   LINE      CODE     ---       #279
      01005FF5H   LINE      CODE     ---       #280
      01005FF8H   LINE      CODE     ---       #281
      01005FFBH   LINE      CODE     ---       #283
      01005FFBH   LINE      CODE     ---       #284
      ---         BLOCKEND  ---      ---       LVL=0

      0100725BH   BLOCK     CODE     ---       LVL=0
      00000007H   SYMBOL    DATA     BYTE      from
      00000005H   SYMBOL    DATA     BYTE      to
      02000011H   SYMBOL    XDATA    BYTE      ev
      0100725BH   LINE      CODE     ---       #286
      01007261H   LINE      CODE     ---       #287
      01007261H   LINE      CODE     ---       #288
      0100726DH   LINE      CODE     ---       #291
      01007274H   LINE      CODE     ---       #292
      01007277H   LINE      CODE     ---       #293
      0100727DH   LINE      CODE     ---       #295
      0100727DH   LINE      CODE     ---       #296
      ---         BLOCKEND  ---      ---       LVL=0

      010070A7H   BLOCK     CODE     ---       LVL=0
      00000007H   SYMBOL    DATA     BYTE      from
      00000005H   SYMBOL    DATA     BYTE      to
      02000011H   SYMBOL    XDATA    BYTE      ev
      010070A7H   LINE      CODE     ---       #298
      010070ADH   LINE      CODE     ---       #299
      010070ADH   LINE      CODE     ---       #300
      010070B9H   LINE      CODE     ---       #302
      010070C0H   LINE      CODE     ---       #303
      010070C6H   LINE      CODE     ---       #304
      010070C9H   LINE      CODE     ---       #305
      010070CCH   LINE      CODE     ---       #307
      010070CCH   LINE      CODE     ---       #308
LX51 LINKER/LOCATER V4.66.87.0                                                        05/09/2018  21:28:12  PAGE 176


      ---         BLOCKEND  ---      ---       LVL=0

      ---         MODULE    ---      ---       SM_CLOCK_DISPLAY
      0100BABBH   PUBLIC    CONST    ---       sm_clock_display_ss_name
      01006F1EH   PUBLIC    CODE     ---       _sm_clock_display_submod3
      010071F1H   PUBLIC    CODE     ---       _sm_clock_display_submod2
      01006C96H   PUBLIC    CODE     ---       _sm_clock_display_submod1
      01005D5DH   PUBLIC    CODE     ---       _sm_clock_display_submod0
      0100752DH   PUBLIC    CODE     ---       _sm_clock_display_init
      01004041H   SYMBOL    CODE     ---       display_temp
      01008455H   SYMBOL    CODE     ---       reset_auto_switch
      0100746FH   SYMBOL    CODE     ---       test_autoswitch

      0100748FH   BLOCK     CODE     ---       LVL=0
      ---         BLOCKEND  ---      ---       LVL=0

      01004041H   BLOCK     CODE     ---       LVL=0
      01004041H   BLOCK     CODE     NEAR LAB  LVL=1
      02000012H   SYMBOL    XDATA    BYTE      inti
      02000013H   SYMBOL    XDATA    BYTE      flt
      00000020H.0 SYMBOL    BIT      BIT       sign
      ---         BLOCKEND  ---      ---       LVL=1
      01004041H   LINE      CODE     ---       #25
      01004041H   LINE      CODE     ---       #26
      01004041H   LINE      CODE     ---       #30
      01004046H   LINE      CODE     ---       #31
      0100405AH   LINE      CODE     ---       #33
      0100407FH   LINE      CODE     ---       #35
      01004082H   LINE      CODE     ---       #37
      01004087H   LINE      CODE     ---       #39
      0100408EH   LINE      CODE     ---       #40
      0100409AH   LINE      CODE     ---       #41
      010040A2H   LINE      CODE     ---       #42
      010040ADH   LINE      CODE     ---       #43
      010040B5H   LINE      CODE     ---       #44
      010040C0H   LINE      CODE     ---       #45
      ---         BLOCKEND  ---      ---       LVL=0

      01008455H   BLOCK     CODE     ---       LVL=0
      01008455H   LINE      CODE     ---       #47
      01008455H   LINE      CODE     ---       #48
      01008455H   LINE      CODE     ---       #49
      0100845DH   LINE      CODE     ---       #50
      ---         BLOCKEND  ---      ---       LVL=0

      0100746FH   BLOCK     CODE     ---       LVL=0
      0100746FH   LINE      CODE     ---       #53
      0100746FH   LINE      CODE     ---       #54
      0100746FH   LINE      CODE     ---       #55
      0100747FH   LINE      CODE     ---       #56
      01007488H   LINE      CODE     ---       #57
      0100748EH   LINE      CODE     ---       #58
      0100748EH   LINE      CODE     ---       #59
      ---         BLOCKEND  ---      ---       LVL=0

      0100752DH   BLOCK     CODE     ---       LVL=0
      00000007H   SYMBOL    DATA     BYTE      from
      00000005H   SYMBOL    DATA     BYTE      to
      00000006H   SYMBOL    DATA     BYTE      ev
      0100752DH   LINE      CODE     ---       #61
      0100752FH   LINE      CODE     ---       #62
      0100752FH   LINE      CODE     ---       #63
      0100753BH   LINE      CODE     ---       #64
      0100753EH   LINE      CODE     ---       #65
      01007541H   LINE      CODE     ---       #66
LX51 LINKER/LOCATER V4.66.87.0                                                        05/09/2018  21:28:12  PAGE 177


      01007546H   LINE      CODE     ---       #67
      ---         BLOCKEND  ---      ---       LVL=0

      01005D5DH   BLOCK     CODE     ---       LVL=0
      02000011H   SYMBOL    XDATA    BYTE      from
      00000005H   SYMBOL    DATA     BYTE      to
      02000012H   SYMBOL    XDATA    BYTE      ev
      01005D5DH   LINE      CODE     ---       #70
      01005D65H   LINE      CODE     ---       #71
      01005D65H   LINE      CODE     ---       #72
      01005D6FH   LINE      CODE     ---       #75
      01005D7CH   LINE      CODE     ---       #76
      01005D7CH   LINE      CODE     ---       #77
      01005D7FH   LINE      CODE     ---       #78
      01005D7FH   LINE      CODE     ---       #79
      01005D7FH   LINE      CODE     ---       #80
      01005D81H   LINE      CODE     ---       #82
      01005D81H   LINE      CODE     ---       #85
      01005D8EH   LINE      CODE     ---       #86
      01005D93H   LINE      CODE     ---       #87
      01005D98H   LINE      CODE     ---       #88
      01005D9BH   LINE      CODE     ---       #90
      01005D9BH   LINE      CODE     ---       #93
      01005DA2H   LINE      CODE     ---       #94
      01005DA5H   LINE      CODE     ---       #96
      01005DA5H   LINE      CODE     ---       #97
      ---         BLOCKEND  ---      ---       LVL=0

      01006C96H   BLOCK     CODE     ---       LVL=0
      00000007H   SYMBOL    DATA     BYTE      from
      00000005H   SYMBOL    DATA     BYTE      to
      02000011H   SYMBOL    XDATA    BYTE      ev
      01006C96H   LINE      CODE     ---       #99
      01006C9CH   LINE      CODE     ---       #100
      01006C9CH   LINE      CODE     ---       #101
      01006CA8H   LINE      CODE     ---       #103
      01006CB0H   LINE      CODE     ---       #105
      01006CB5H   LINE      CODE     ---       #106
      01006CB8H   LINE      CODE     ---       #107
      01006CBBH   LINE      CODE     ---       #109
      01006CBBH   LINE      CODE     ---       #112
      01006CBFH   LINE      CODE     ---       #113
      01006CC2H   LINE      CODE     ---       #115
      01006CC2H   LINE      CODE     ---       #116
      ---         BLOCKEND  ---      ---       LVL=0

      010071F1H   BLOCK     CODE     ---       LVL=0
      00000007H   SYMBOL    DATA     BYTE      from
      00000005H   SYMBOL    DATA     BYTE      to
      02000011H   SYMBOL    XDATA    BYTE      ev
      010071F1H   LINE      CODE     ---       #118
      010071F4H   LINE      CODE     ---       #119
      010071F4H   LINE      CODE     ---       #120
      010071FAH   LINE      CODE     ---       #122
      01007202H   LINE      CODE     ---       #124
      01007207H   LINE      CODE     ---       #125
      0100720AH   LINE      CODE     ---       #126
      0100720DH   LINE      CODE     ---       #128
      0100720DH   LINE      CODE     ---       #131
      01007211H   LINE      CODE     ---       #132
      01007214H   LINE      CODE     ---       #134
      01007214H   LINE      CODE     ---       #135
      ---         BLOCKEND  ---      ---       LVL=0

      01006F1EH   BLOCK     CODE     ---       LVL=0
LX51 LINKER/LOCATER V4.66.87.0                                                        05/09/2018  21:28:12  PAGE 178


      00000007H   SYMBOL    DATA     BYTE      from
      00000005H   SYMBOL    DATA     BYTE      to
      02000011H   SYMBOL    XDATA    BYTE      ev
      01006F1EH   LINE      CODE     ---       #137
      01006F21H   LINE      CODE     ---       #138
      01006F21H   LINE      CODE     ---       #139
      01006F27H   LINE      CODE     ---       #141
      01006F2EH   LINE      CODE     ---       #142
      01006F33H   LINE      CODE     ---       #143
      01006F36H   LINE      CODE     ---       #144
      01006F39H   LINE      CODE     ---       #145
      01006F3CH   LINE      CODE     ---       #147
      01006F3CH   LINE      CODE     ---       #150
      01006F43H   LINE      CODE     ---       #151
      01006F46H   LINE      CODE     ---       #153
      01006F46H   LINE      CODE     ---       #154
      ---         BLOCKEND  ---      ---       LVL=0

      ---         MODULE    ---      ---       SM_CLOCK_POWERSAVE
      0100C773H   PUBLIC    CONST    ---       sm_clock_powersave_ss_name
      01006946H   PUBLIC    CODE     ---       _sm_clock_powersave

      01006946H   BLOCK     CODE     ---       LVL=0
      00000007H   SYMBOL    DATA     BYTE      from
      02000011H   SYMBOL    XDATA    BYTE      to
      02000012H   SYMBOL    XDATA    BYTE      ev
      01006946H   LINE      CODE     ---       #17
      0100694FH   LINE      CODE     ---       #18
      0100694FH   LINE      CODE     ---       #19
      01006963H   LINE      CODE     ---       #22
      01006971H   LINE      CODE     ---       #24
      01006974H   LINE      CODE     ---       #25
      01006977H   LINE      CODE     ---       #27
      01006977H   LINE      CODE     ---       #29
      ---         BLOCKEND  ---      ---       LVL=0

      ---         MODULE    ---      ---       SM_CLOCK_MOD_ALARM
      0100B52AH   PUBLIC    CONST    ---       sm_clock_mod_alarm_ss_name
      01006DF6H   PUBLIC    CODE     ---       _sm_clock_mod_alarm_submod4
      01006DCBH   PUBLIC    CODE     ---       _sm_clock_mod_alarm_submod3
      010056BCH   PUBLIC    CODE     ---       _sm_clock_mod_alarm_submod2
      010054A8H   PUBLIC    CODE     ---       _sm_clock_mod_alarm_submod1
      010052DEH   PUBLIC    CODE     ---       _sm_clock_mod_alarm_submod0
      01008146H   PUBLIC    CODE     ---       _sm_clock_mod_alarm_init
      01006392H   SYMBOL    CODE     ---       _enter_alarm
      0100738DH   SYMBOL    CODE     ---       toggle_alarm_bs
      0100809CH   SYMBOL    CODE     ---       _inc_write
      01005C7FH   SYMBOL    CODE     ---       _write_only
      010067E0H   SYMBOL    CODE     ---       _inc_only
      010072E5H   SYMBOL    CODE     ---       _toggle_alarm
      01001A24H   SYMBOL    CODE     ---       _update_alarm
      01007E47H   SYMBOL    CODE     ---       toggle_alarm_music

      01007673H   BLOCK     CODE     ---       LVL=0
      ---         BLOCKEND  ---      ---       LVL=0

      01001A24H   BLOCK     CODE     ---       LVL=0
      02000015H   SYMBOL    XDATA    BYTE      what
      02000016H   SYMBOL    XDATA    BYTE      day
      01001A2EH   BLOCK     CODE     NEAR LAB  LVL=1
      02000017H   SYMBOL    XDATA    BYTE      hour
      02000018H   SYMBOL    XDATA    BYTE      min
      ---         BLOCKEND  ---      ---       LVL=1
      01001A24H   LINE      CODE     ---       #23
      01001A2EH   LINE      CODE     ---       #24
LX51 LINKER/LOCATER V4.66.87.0                                                        05/09/2018  21:28:12  PAGE 179


      01001A2EH   LINE      CODE     ---       #26
      01001A38H   LINE      CODE     ---       #27
      01001A38H   LINE      CODE     ---       #28
      01001A3BH   LINE      CODE     ---       #29
      01001A43H   LINE      CODE     ---       #30
      01001A4BH   LINE      CODE     ---       #31
      01001A50H   LINE      CODE     ---       #32
      01001A54H   LINE      CODE     ---       #35
      01001A61H   LINE      CODE     ---       #36
      01001A65H   LINE      CODE     ---       #37
      01001A69H   LINE      CODE     ---       #38
      01001A6BH   LINE      CODE     ---       #39
      01001A70H   LINE      CODE     ---       #40
      01001A70H   LINE      CODE     ---       #42
      01001A89H   LINE      CODE     ---       #44
      01001A93H   LINE      CODE     ---       #45
      01001A96H   LINE      CODE     ---       #46
      01001A98H   LINE      CODE     ---       #47
      01001A9FH   LINE      CODE     ---       #48
      01001A9FH   LINE      CODE     ---       #49
      01001AABH   LINE      CODE     ---       #50
      01001AB0H   LINE      CODE     ---       #51
      01001AB7H   LINE      CODE     ---       #53
      01001AC2H   LINE      CODE     ---       #54
      01001AE5H   LINE      CODE     ---       #55
      01001AE5H   LINE      CODE     ---       #56
      01001AE8H   LINE      CODE     ---       #57
      01001AF4H   LINE      CODE     ---       #58
      01001AFEH   LINE      CODE     ---       #59
      01001AFEH   LINE      CODE     ---       #60
      01001AFEH   LINE      CODE     ---       #61
      01001B01H   LINE      CODE     ---       #62
      01001B03H   LINE      CODE     ---       #63
      01001B03H   LINE      CODE     ---       #64
      01001B06H   LINE      CODE     ---       #65
      01001B06H   LINE      CODE     ---       #66
      01001B06H   LINE      CODE     ---       #67
      01001B10H   LINE      CODE     ---       #68
      01001B17H   LINE      CODE     ---       #69
      01001B1EH   LINE      CODE     ---       #70
      01001B23H   LINE      CODE     ---       #71
      01001B23H   LINE      CODE     ---       #72
      01001B23H   LINE      CODE     ---       #73
      01001B26H   LINE      CODE     ---       #74
      01001B28H   LINE      CODE     ---       #75
      01001B28H   LINE      CODE     ---       #76
      01001B2BH   LINE      CODE     ---       #77
      01001B2BH   LINE      CODE     ---       #78
      01001B2BH   LINE      CODE     ---       #79
      01001B2DH   LINE      CODE     ---       #80
      01001B34H   LINE      CODE     ---       #81
      01001B3BH   LINE      CODE     ---       #82
      01001B42H   LINE      CODE     ---       #83
      01001B49H   LINE      CODE     ---       #84
      01001B50H   LINE      CODE     ---       #85
      01001B61H   LINE      CODE     ---       #86
      01001B6DH   LINE      CODE     ---       #87
      01001B6DH   LINE      CODE     ---       #88
      ---         BLOCKEND  ---      ---       LVL=0

      01006392H   BLOCK     CODE     ---       LVL=0
      02000013H   SYMBOL    XDATA    BYTE      what
      02000014H   SYMBOL    XDATA    BYTE      day
      01006392H   LINE      CODE     ---       #92
      0100639AH   LINE      CODE     ---       #93
LX51 LINKER/LOCATER V4.66.87.0                                                        05/09/2018  21:28:12  PAGE 180


      0100639AH   LINE      CODE     ---       #94
      0100639DH   LINE      CODE     ---       #95
      010063ACH   LINE      CODE     ---       #96
      010063ACH   LINE      CODE     ---       #97
      010063AEH   LINE      CODE     ---       #98
      010063AEH   LINE      CODE     ---       #99
      010063B0H   LINE      CODE     ---       #100
      010063B0H   LINE      CODE     ---       #101
      010063B2H   LINE      CODE     ---       #102
      010063B2H   LINE      CODE     ---       #103
      010063B4H   LINE      CODE     ---       #104
      010063B4H   LINE      CODE     ---       #105
      010063B9H   LINE      CODE     ---       #106
      010063BDH   LINE      CODE     ---       #107
      010063C1H   LINE      CODE     ---       #108
      010063C1H   LINE      CODE     ---       #109
      010063C1H   LINE      CODE     ---       #110
      ---         BLOCKEND  ---      ---       LVL=0

      01005C7FH   BLOCK     CODE     ---       LVL=0
      02000014H   SYMBOL    XDATA    BYTE      what
      01005C7FH   LINE      CODE     ---       #114
      01005C84H   LINE      CODE     ---       #115
      01005C84H   LINE      CODE     ---       #116
      01005C87H   LINE      CODE     ---       #117
      01005C96H   LINE      CODE     ---       #118
      01005C96H   LINE      CODE     ---       #119
      01005C99H   LINE      CODE     ---       #120
      01005C9BH   LINE      CODE     ---       #121
      01005CA0H   LINE      CODE     ---       #122
      01005CA4H   LINE      CODE     ---       #123
      01005CA4H   LINE      CODE     ---       #124
      01005CA7H   LINE      CODE     ---       #125
      01005CA9H   LINE      CODE     ---       #126
      01005CA9H   LINE      CODE     ---       #127
      01005CACH   LINE      CODE     ---       #128
      01005CAEH   LINE      CODE     ---       #129
      01005CB3H   LINE      CODE     ---       #130
      01005CB7H   LINE      CODE     ---       #131
      01005CB7H   LINE      CODE     ---       #132
      01005CBEH   LINE      CODE     ---       #133
      01005CC0H   LINE      CODE     ---       #134
      01005CC0H   LINE      CODE     ---       #135
      01005CCAH   LINE      CODE     ---       #136
      01005CCAH   LINE      CODE     ---       #137
      01005CCAH   LINE      CODE     ---       #138
      ---         BLOCKEND  ---      ---       LVL=0

      010072E5H   BLOCK     CODE     ---       LVL=0
      02000013H   SYMBOL    XDATA    BYTE      day
      010072E5H   LINE      CODE     ---       #140
      010072EAH   LINE      CODE     ---       #141
      010072EAH   LINE      CODE     ---       #142
      010072F8H   LINE      CODE     ---       #143
      01007302H   LINE      CODE     ---       #144
      ---         BLOCKEND  ---      ---       LVL=0

      010067E0H   BLOCK     CODE     ---       LVL=0
      00000006H   SYMBOL    DATA     BYTE      what
      010067E0H   LINE      CODE     ---       #147
      010067E2H   LINE      CODE     ---       #148
      010067E2H   LINE      CODE     ---       #149
      010067E9H   LINE      CODE     ---       #150
      010067E9H   LINE      CODE     ---       #151
      010067ECH   LINE      CODE     ---       #152
LX51 LINKER/LOCATER V4.66.87.0                                                        05/09/2018  21:28:12  PAGE 181


      010067EEH   LINE      CODE     ---       #153
      010067F3H   LINE      CODE     ---       #154
      010067F7H   LINE      CODE     ---       #155
      010067F7H   LINE      CODE     ---       #156
      010067FAH   LINE      CODE     ---       #157
      010067FCH   LINE      CODE     ---       #158
      010067FCH   LINE      CODE     ---       #159
      010067FFH   LINE      CODE     ---       #160
      01006801H   LINE      CODE     ---       #161
      01006806H   LINE      CODE     ---       #162
      0100680AH   LINE      CODE     ---       #163
      0100680AH   LINE      CODE     ---       #164
      0100680DH   LINE      CODE     ---       #165
      0100680DH   LINE      CODE     ---       #166
      0100680DH   LINE      CODE     ---       #167
      ---         BLOCKEND  ---      ---       LVL=0

      0100809CH   BLOCK     CODE     ---       LVL=0
      02000013H   SYMBOL    XDATA    BYTE      what
      0100809CH   LINE      CODE     ---       #170
      010080A1H   LINE      CODE     ---       #171
      010080A1H   LINE      CODE     ---       #172
      010080A4H   LINE      CODE     ---       #173
      ---         BLOCKEND  ---      ---       LVL=0

      0100738DH   BLOCK     CODE     ---       LVL=0
      0100738DH   LINE      CODE     ---       #176
      0100738DH   LINE      CODE     ---       #177
      0100738DH   LINE      CODE     ---       #178
      01007396H   LINE      CODE     ---       #179
      01007399H   LINE      CODE     ---       #180
      010073A7H   LINE      CODE     ---       #181
      ---         BLOCKEND  ---      ---       LVL=0

      01007E47H   BLOCK     CODE     ---       LVL=0
      01007E47H   LINE      CODE     ---       #184
      01007E47H   LINE      CODE     ---       #185
      01007E47H   LINE      CODE     ---       #186
      01007E4AH   LINE      CODE     ---       #187
      01007E54H   LINE      CODE     ---       #188
      ---         BLOCKEND  ---      ---       LVL=0

      01008146H   BLOCK     CODE     ---       LVL=0
      00000007H   SYMBOL    DATA     BYTE      from
      00000005H   SYMBOL    DATA     BYTE      to
      00000006H   SYMBOL    DATA     BYTE      ev
      01008146H   LINE      CODE     ---       #191
      01008148H   LINE      CODE     ---       #192
      01008148H   LINE      CODE     ---       #193
      0100814EH   LINE      CODE     ---       #194
      ---         BLOCKEND  ---      ---       LVL=0

      010052DEH   BLOCK     CODE     ---       LVL=0
      02000011H   SYMBOL    XDATA    BYTE      from
      00000005H   SYMBOL    DATA     BYTE      to
      02000012H   SYMBOL    XDATA    BYTE      ev
      010052DEH   LINE      CODE     ---       #197
      010052E7H   LINE      CODE     ---       #198
      010052E7H   LINE      CODE     ---       #199
      010052EDH   LINE      CODE     ---       #201
      010052FAH   LINE      CODE     ---       #202
      010052FAH   LINE      CODE     ---       #203
      01005300H   LINE      CODE     ---       #205
      01005300H   LINE      CODE     ---       #208
      01005307H   LINE      CODE     ---       #209
LX51 LINKER/LOCATER V4.66.87.0                                                        05/09/2018  21:28:12  PAGE 182


      0100530CH   LINE      CODE     ---       #211
      0100530CH   LINE      CODE     ---       #214
      01005313H   LINE      CODE     ---       #215
      01005318H   LINE      CODE     ---       #216
      0100531CH   LINE      CODE     ---       #217
      0100531CH   LINE      CODE     ---       #218
      01005322H   LINE      CODE     ---       #219
      01005329H   LINE      CODE     ---       #221
      01005329H   LINE      CODE     ---       #224
      01005330H   LINE      CODE     ---       #225
      01005335H   LINE      CODE     ---       #226
      0100533AH   LINE      CODE     ---       #228
      0100533AH   LINE      CODE     ---       #229
      ---         BLOCKEND  ---      ---       LVL=0

      010054A8H   BLOCK     CODE     ---       LVL=0
      00000007H   SYMBOL    DATA     BYTE      from
      00000005H   SYMBOL    DATA     BYTE      to
      02000011H   SYMBOL    XDATA    BYTE      ev
      010054A8H   LINE      CODE     ---       #231
      010054AEH   LINE      CODE     ---       #232
      010054AEH   LINE      CODE     ---       #233
      010054B8H   LINE      CODE     ---       #235
      010054BFH   LINE      CODE     ---       #236
      010054C6H   LINE      CODE     ---       #238
      010054C6H   LINE      CODE     ---       #242
      010054CDH   LINE      CODE     ---       #243
      010054D2H   LINE      CODE     ---       #245
      010054D2H   LINE      CODE     ---       #248
      010054D9H   LINE      CODE     ---       #249
      010054DEH   LINE      CODE     ---       #250
      010054E3H   LINE      CODE     ---       #251
      010054E3H   LINE      CODE     ---       #252
      010054E9H   LINE      CODE     ---       #253
      010054F0H   LINE      CODE     ---       #255
      010054F0H   LINE      CODE     ---       #258
      010054F7H   LINE      CODE     ---       #259
      010054FCH   LINE      CODE     ---       #260
      01005501H   LINE      CODE     ---       #262
      01005501H   LINE      CODE     ---       #263
      ---         BLOCKEND  ---      ---       LVL=0

      010056BCH   BLOCK     CODE     ---       LVL=0
      02000011H   SYMBOL    XDATA    BYTE      from
      00000005H   SYMBOL    DATA     BYTE      to
      02000012H   SYMBOL    XDATA    BYTE      ev
      010056BCH   LINE      CODE     ---       #265
      010056C5H   LINE      CODE     ---       #266
      010056C5H   LINE      CODE     ---       #267
      010056D1H   LINE      CODE     ---       #269
      010056DBH   LINE      CODE     ---       #270
      010056E1H   LINE      CODE     ---       #271
      010056E4H   LINE      CODE     ---       #273
      010056E4H   LINE      CODE     ---       #275
      010056EBH   LINE      CODE     ---       #276
      010056F3H   LINE      CODE     ---       #277
      010056F3H   LINE      CODE     ---       #279
      010056FAH   LINE      CODE     ---       #280
      01005700H   LINE      CODE     ---       #281
      01005707H   LINE      CODE     ---       #282
      0100570CH   LINE      CODE     ---       #283
      0100570CH   LINE      CODE     ---       #284
      01005712H   LINE      CODE     ---       #285
      01005712H   LINE      CODE     ---       #286
      01005712H   LINE      CODE     ---       #287
LX51 LINKER/LOCATER V4.66.87.0                                                        05/09/2018  21:28:12  PAGE 183


      ---         BLOCKEND  ---      ---       LVL=0

      01006DCBH   BLOCK     CODE     ---       LVL=0
      00000007H   SYMBOL    DATA     BYTE      from
      00000005H   SYMBOL    DATA     BYTE      to
      02000011H   SYMBOL    XDATA    BYTE      ev
      01006DCBH   LINE      CODE     ---       #289
      01006DD1H   LINE      CODE     ---       #290
      01006DD1H   LINE      CODE     ---       #291
      01006DDDH   LINE      CODE     ---       #293
      01006DE4H   LINE      CODE     ---       #294
      01006DEBH   LINE      CODE     ---       #295
      01006DEBH   LINE      CODE     ---       #297
      01006DF2H   LINE      CODE     ---       #298
      01006DF5H   LINE      CODE     ---       #299
      01006DF5H   LINE      CODE     ---       #300
      ---         BLOCKEND  ---      ---       LVL=0

      01006DF6H   BLOCK     CODE     ---       LVL=0
      00000007H   SYMBOL    DATA     BYTE      from
      00000005H   SYMBOL    DATA     BYTE      to
      02000011H   SYMBOL    XDATA    BYTE      ev
      01006DF6H   LINE      CODE     ---       #302
      01006DFCH   LINE      CODE     ---       #303
      01006DFCH   LINE      CODE     ---       #304
      01006E08H   LINE      CODE     ---       #306
      01006E0FH   LINE      CODE     ---       #307
      01006E16H   LINE      CODE     ---       #308
      01006E16H   LINE      CODE     ---       #310
      01006E1DH   LINE      CODE     ---       #311
      01006E20H   LINE      CODE     ---       #312
      01006E20H   LINE      CODE     ---       #313
      ---         BLOCKEND  ---      ---       LVL=0

      ---         MODULE    ---      ---       SM_CLOCK_ALARM
      0100C71CH   PUBLIC    CONST    ---       sm_clock_alarm_ss_name
      01004815H   PUBLIC    CODE     ---       _sm_clock_alarm
      0100307BH   SYMBOL    CODE     ---       _display_alarm

      010084BDH   BLOCK     CODE     ---       LVL=0
      ---         BLOCKEND  ---      ---       LVL=0

      0100307BH   BLOCK     CODE     ---       LVL=0
      02000013H   SYMBOL    XDATA    BYTE      what
      01003080H   BLOCK     CODE     NEAR LAB  LVL=1
      02000014H   SYMBOL    XDATA    BYTE      hour
      02000015H   SYMBOL    XDATA    BYTE      min
      00000020H.0 SYMBOL    BIT      BIT       is12
      ---         BLOCKEND  ---      ---       LVL=1
      0100307BH   LINE      CODE     ---       #19
      01003080H   LINE      CODE     ---       #20
      01003080H   LINE      CODE     ---       #23
      01003083H   LINE      CODE     ---       #24
      01003092H   LINE      CODE     ---       #25
      01003092H   LINE      CODE     ---       #26
      01003092H   LINE      CODE     ---       #27
      01003096H   LINE      CODE     ---       #28
      0100309DH   LINE      CODE     ---       #29
      0100309FH   LINE      CODE     ---       #30
      010030A1H   LINE      CODE     ---       #31
      010030A8H   LINE      CODE     ---       #32
      010030AFH   LINE      CODE     ---       #33
      010030AFH   LINE      CODE     ---       #34
      010030B6H   LINE      CODE     ---       #35
      010030BEH   LINE      CODE     ---       #36
LX51 LINKER/LOCATER V4.66.87.0                                                        05/09/2018  21:28:12  PAGE 184


      010030C6H   LINE      CODE     ---       #37
      010030CBH   LINE      CODE     ---       #38
      010030CDH   LINE      CODE     ---       #39
      010030D5H   LINE      CODE     ---       #40
      010030DBH   LINE      CODE     ---       #41
      010030E0H   LINE      CODE     ---       #42
      010030E0H   LINE      CODE     ---       #43
      010030E5H   LINE      CODE     ---       #44
      010030E9H   LINE      CODE     ---       #45
      010030F5H   LINE      CODE     ---       #46
      010030F9H   LINE      CODE     ---       #47
      010030FDH   LINE      CODE     ---       #48
      010030FFH   LINE      CODE     ---       #49
      01003104H   LINE      CODE     ---       #50
      01003104H   LINE      CODE     ---       #51
      0100310EH   LINE      CODE     ---       #52
      01003111H   LINE      CODE     ---       #53
      01003113H   LINE      CODE     ---       #54
      0100311AH   LINE      CODE     ---       #55
      0100311AH   LINE      CODE     ---       #56
      01003126H   LINE      CODE     ---       #57
      0100312BH   LINE      CODE     ---       #58
      01003138H   LINE      CODE     ---       #59
      01003138H   LINE      CODE     ---       #60
      01003138H   LINE      CODE     ---       #61
      ---         BLOCKEND  ---      ---       LVL=0

      01004815H   BLOCK     CODE     ---       LVL=0
      00000007H   SYMBOL    DATA     BYTE      from
      02000011H   SYMBOL    XDATA    BYTE      to
      02000012H   SYMBOL    XDATA    BYTE      ev
      01004815H   LINE      CODE     ---       #63
      0100481EH   LINE      CODE     ---       #64
      0100481EH   LINE      CODE     ---       #65
      01004832H   LINE      CODE     ---       #68
      0100483CH   LINE      CODE     ---       #69
      01004841H   LINE      CODE     ---       #70
      01004846H   LINE      CODE     ---       #71
      0100484BH   LINE      CODE     ---       #73
      0100484DH   LINE      CODE     ---       #74
      0100484DH   LINE      CODE     ---       #76
      0100484DH   LINE      CODE     ---       #79
      01004859H   LINE      CODE     ---       #80
      0100485EH   LINE      CODE     ---       #81
      01004863H   LINE      CODE     ---       #82
      01004866H   LINE      CODE     ---       #83
      0100486CH   LINE      CODE     ---       #85
      0100486CH   LINE      CODE     ---       #87
      01004878H   LINE      CODE     ---       #88
      01004883H   LINE      CODE     ---       #89
      01004889H   LINE      CODE     ---       #90
      01004889H   LINE      CODE     ---       #92
      01004889H   LINE      CODE     ---       #93
      ---         BLOCKEND  ---      ---       LVL=0

      ---         MODULE    ---      ---       SM_CLOCK_MOD_TIME
      0100ABA8H   PUBLIC    CONST    ---       sm_clock_mod_time_name
      010050A8H   PUBLIC    CODE     ---       _sm_clock_mod_time_submod5
      01005048H   PUBLIC    CODE     ---       _sm_clock_mod_time_submod4
      01004FE8H   PUBLIC    CODE     ---       _sm_clock_mod_time_submod3
      01006814H   PUBLIC    CODE     ---       _sm_clock_mod_time_submod2
      0100533BH   PUBLIC    CODE     ---       _sm_clock_mod_time_submod1
      01004DFDH   PUBLIC    CODE     ---       _sm_clock_mod_time_submod0
      010079ABH   PUBLIC    CODE     ---       _sm_clock_mod_time_init
      01003FB5H   SYMBOL    CODE     ---       update_yymmdd
LX51 LINKER/LOCATER V4.66.87.0                                                        05/09/2018  21:28:12  PAGE 185


      01006EA0H   SYMBOL    CODE     ---       _enter_hhmmss
      01006E21H   SYMBOL    CODE     ---       _enter_yymmdd
      01004D31H   SYMBOL    CODE     ---       _write_only
      010080ACH   SYMBOL    CODE     ---       _inc_and_write
      010051C5H   SYMBOL    CODE     ---       _inc_only
      01003734H   SYMBOL    CODE     ---       update_hhmmss

      010066A3H   BLOCK     CODE     ---       LVL=0
      ---         BLOCKEND  ---      ---       LVL=0

      010051C5H   BLOCK     CODE     ---       LVL=0
      00000001H   SYMBOL    DATA     BYTE      what
      010051C5H   LINE      CODE     ---       #21
      010051C7H   LINE      CODE     ---       #22
      010051C7H   LINE      CODE     ---       #23
      010051DBH   LINE      CODE     ---       #24
      010051DBH   LINE      CODE     ---       #25
      010051DBH   LINE      CODE     ---       #26
      010051DEH   LINE      CODE     ---       #27
      010051E0H   LINE      CODE     ---       #28
      010051E2H   LINE      CODE     ---       #29
      010051E5H   LINE      CODE     ---       #30
      010051E5H   LINE      CODE     ---       #31
      010051E8H   LINE      CODE     ---       #32
      010051EBH   LINE      CODE     ---       #33
      010051EBH   LINE      CODE     ---       #34
      010051EEH   LINE      CODE     ---       #35
      010051EEH   LINE      CODE     ---       #36
      010051EEH   LINE      CODE     ---       #37
      010051EEH   LINE      CODE     ---       #38
      010051EEH   LINE      CODE     ---       #39
      010051F1H   LINE      CODE     ---       #40
      010051F3H   LINE      CODE     ---       #41
      010051F5H   LINE      CODE     ---       #42
      010051F8H   LINE      CODE     ---       #43
      010051F8H   LINE      CODE     ---       #44
      010051FCH   LINE      CODE     ---       #45
      010051FFH   LINE      CODE     ---       #46
      010051FFH   LINE      CODE     ---       #47
      01005202H   LINE      CODE     ---       #48
      01005202H   LINE      CODE     ---       #49
      01005202H   LINE      CODE     ---       #50
      01005202H   LINE      CODE     ---       #51
      01005202H   LINE      CODE     ---       #52
      01005205H   LINE      CODE     ---       #53
      01005207H   LINE      CODE     ---       #54
      0100520CH   LINE      CODE     ---       #55
      01005210H   LINE      CODE     ---       #56
      01005210H   LINE      CODE     ---       #57
      01005214H   LINE      CODE     ---       #58
      01005217H   LINE      CODE     ---       #59
      01005217H   LINE      CODE     ---       #60
      0100521AH   LINE      CODE     ---       #61
      0100521AH   LINE      CODE     ---       #62
      0100521AH   LINE      CODE     ---       #63
      0100521AH   LINE      CODE     ---       #64
      ---         BLOCKEND  ---      ---       LVL=0

      01004D31H   BLOCK     CODE     ---       LVL=0
      00000007H   SYMBOL    DATA     BYTE      what
      01004D31H   LINE      CODE     ---       #66
      01004D31H   LINE      CODE     ---       #67
      01004D31H   LINE      CODE     ---       #68
      01004D45H   LINE      CODE     ---       #69
      01004D45H   LINE      CODE     ---       #70
LX51 LINKER/LOCATER V4.66.87.0                                                        05/09/2018  21:28:12  PAGE 186


      01004D48H   LINE      CODE     ---       #71
      01004D4AH   LINE      CODE     ---       #72
      01004D4AH   LINE      CODE     ---       #73
      01004D4AH   LINE      CODE     ---       #74
      01004D4AH   LINE      CODE     ---       #75
      01004D4AH   LINE      CODE     ---       #76
      01004D4CH   LINE      CODE     ---       #77
      01004D4CH   LINE      CODE     ---       #78
      01004D4FH   LINE      CODE     ---       #79
      01004D54H   LINE      CODE     ---       #80
      01004D56H   LINE      CODE     ---       #81
      01004D58H   LINE      CODE     ---       #82
      01004D58H   LINE      CODE     ---       #83
      01004D58H   LINE      CODE     ---       #84
      01004D5AH   LINE      CODE     ---       #85
      01004D5AH   LINE      CODE     ---       #86
      01004D5DH   LINE      CODE     ---       #87
      01004D62H   LINE      CODE     ---       #88
      01004D64H   LINE      CODE     ---       #89
      01004D66H   LINE      CODE     ---       #90
      01004D66H   LINE      CODE     ---       #91
      01004D66H   LINE      CODE     ---       #92
      01004D68H   LINE      CODE     ---       #93
      01004D68H   LINE      CODE     ---       #94
      01004D6BH   LINE      CODE     ---       #95
      01004D70H   LINE      CODE     ---       #96
      01004D72H   LINE      CODE     ---       #97
      01004D74H   LINE      CODE     ---       #98
      01004D74H   LINE      CODE     ---       #99
      01004D74H   LINE      CODE     ---       #100
      01004D76H   LINE      CODE     ---       #101
      01004D76H   LINE      CODE     ---       #102
      01004D79H   LINE      CODE     ---       #103
      01004D7EH   LINE      CODE     ---       #104
      01004D80H   LINE      CODE     ---       #105
      01004D82H   LINE      CODE     ---       #106
      01004D82H   LINE      CODE     ---       #107
      01004D82H   LINE      CODE     ---       #108
      01004D84H   LINE      CODE     ---       #109
      01004D84H   LINE      CODE     ---       #110
      01004D87H   LINE      CODE     ---       #111
      01004D8CH   LINE      CODE     ---       #112
      01004D8EH   LINE      CODE     ---       #113
      01004D93H   LINE      CODE     ---       #114
      01004D97H   LINE      CODE     ---       #115
      01004D97H   LINE      CODE     ---       #116
      01004D97H   LINE      CODE     ---       #117
      01004D97H   LINE      CODE     ---       #119
      ---         BLOCKEND  ---      ---       LVL=0

      010080ACH   BLOCK     CODE     ---       LVL=0
      02000013H   SYMBOL    XDATA    BYTE      what
      010080ACH   LINE      CODE     ---       #121
      010080B1H   LINE      CODE     ---       #122
      010080B1H   LINE      CODE     ---       #123
      010080B4H   LINE      CODE     ---       #124
      ---         BLOCKEND  ---      ---       LVL=0

      01003734H   BLOCK     CODE     ---       LVL=0
      01003734H   BLOCK     CODE     NEAR LAB  LVL=1
      02000014H   SYMBOL    XDATA    BYTE      hour
      02000015H   SYMBOL    XDATA    BYTE      min
      02000016H   SYMBOL    XDATA    BYTE      sec
      ---         BLOCKEND  ---      ---       LVL=1
      01003734H   LINE      CODE     ---       #127
LX51 LINKER/LOCATER V4.66.87.0                                                        05/09/2018  21:28:12  PAGE 187


      01003734H   LINE      CODE     ---       #128
      01003734H   LINE      CODE     ---       #131
      0100373CH   LINE      CODE     ---       #132
      01003742H   LINE      CODE     ---       #133
      01003748H   LINE      CODE     ---       #136
      0100374DH   LINE      CODE     ---       #137
      01003751H   LINE      CODE     ---       #138
      01003755H   LINE      CODE     ---       #139
      01003759H   LINE      CODE     ---       #142
      01003766H   LINE      CODE     ---       #143
      0100376AH   LINE      CODE     ---       #144
      0100376EH   LINE      CODE     ---       #145
      01003770H   LINE      CODE     ---       #146
      01003775H   LINE      CODE     ---       #147
      01003775H   LINE      CODE     ---       #150
      01003796H   LINE      CODE     ---       #152
      010037A0H   LINE      CODE     ---       #153
      010037A3H   LINE      CODE     ---       #154
      010037A5H   LINE      CODE     ---       #155
      010037ACH   LINE      CODE     ---       #156
      010037ACH   LINE      CODE     ---       #157
      010037B7H   LINE      CODE     ---       #158
      010037C2H   LINE      CODE     ---       #159
      010037CDH   LINE      CODE     ---       #160
      010037D8H   LINE      CODE     ---       #161
      ---         BLOCKEND  ---      ---       LVL=0

      01003FB5H   BLOCK     CODE     ---       LVL=0
      01003FB5H   BLOCK     CODE     NEAR LAB  LVL=1
      02000013H   SYMBOL    XDATA    BYTE      year
      02000014H   SYMBOL    XDATA    BYTE      mon
      02000015H   SYMBOL    XDATA    BYTE      date
      ---         BLOCKEND  ---      ---       LVL=1
      01003FB5H   LINE      CODE     ---       #164
      01003FB5H   LINE      CODE     ---       #165
      01003FB5H   LINE      CODE     ---       #169
      01003FBDH   LINE      CODE     ---       #170
      01003FC3H   LINE      CODE     ---       #171
      01003FC9H   LINE      CODE     ---       #173
      01003FCEH   LINE      CODE     ---       #174
      01003FD3H   LINE      CODE     ---       #176
      01003FF4H   LINE      CODE     ---       #178
      01003FFEH   LINE      CODE     ---       #179
      01004001H   LINE      CODE     ---       #180
      01004003H   LINE      CODE     ---       #181
      0100400AH   LINE      CODE     ---       #182
      0100400AH   LINE      CODE     ---       #183
      01004015H   LINE      CODE     ---       #184
      01004020H   LINE      CODE     ---       #185
      0100402BH   LINE      CODE     ---       #186
      01004036H   LINE      CODE     ---       #187
      ---         BLOCKEND  ---      ---       LVL=0

      01006EA0H   BLOCK     CODE     ---       LVL=0
      02000013H   SYMBOL    XDATA    BYTE      what
      01006EA0H   LINE      CODE     ---       #190
      01006EA5H   LINE      CODE     ---       #191
      01006EA5H   LINE      CODE     ---       #192
      01006EA8H   LINE      CODE     ---       #193
      01006EB6H   LINE      CODE     ---       #194
      01006EB6H   LINE      CODE     ---       #195
      01006EB8H   LINE      CODE     ---       #196
      01006EB8H   LINE      CODE     ---       #197
      01006EBAH   LINE      CODE     ---       #198
      01006EBAH   LINE      CODE     ---       #199
LX51 LINKER/LOCATER V4.66.87.0                                                        05/09/2018  21:28:12  PAGE 188


      01006EBCH   LINE      CODE     ---       #200
      01006EBCH   LINE      CODE     ---       #201
      01006EBEH   LINE      CODE     ---       #202
      01006EBEH   LINE      CODE     ---       #203
      01006EC3H   LINE      CODE     ---       #204
      01006EC7H   LINE      CODE     ---       #205
      01006EC7H   LINE      CODE     ---       #206
      01006EC7H   LINE      CODE     ---       #207
      ---         BLOCKEND  ---      ---       LVL=0

      01006E21H   BLOCK     CODE     ---       LVL=0
      02000012H   SYMBOL    XDATA    BYTE      what
      01006E21H   LINE      CODE     ---       #211
      01006E26H   LINE      CODE     ---       #212
      01006E26H   LINE      CODE     ---       #213
      01006E29H   LINE      CODE     ---       #214
      01006E38H   LINE      CODE     ---       #215
      01006E38H   LINE      CODE     ---       #216
      01006E3AH   LINE      CODE     ---       #217
      01006E3AH   LINE      CODE     ---       #218
      01006E3CH   LINE      CODE     ---       #219
      01006E3CH   LINE      CODE     ---       #220
      01006E3EH   LINE      CODE     ---       #221
      01006E3EH   LINE      CODE     ---       #222
      01006E40H   LINE      CODE     ---       #223
      01006E40H   LINE      CODE     ---       #224
      01006E45H   LINE      CODE     ---       #225
      01006E49H   LINE      CODE     ---       #226
      01006E49H   LINE      CODE     ---       #227
      01006E49H   LINE      CODE     ---       #228
      ---         BLOCKEND  ---      ---       LVL=0

      010079ABH   BLOCK     CODE     ---       LVL=0
      00000007H   SYMBOL    DATA     BYTE      from
      00000005H   SYMBOL    DATA     BYTE      to
      00000006H   SYMBOL    DATA     BYTE      ev
      010079ABH   LINE      CODE     ---       #231
      010079ADH   LINE      CODE     ---       #232
      010079ADH   LINE      CODE     ---       #233
      010079B9H   LINE      CODE     ---       #234
      010079BEH   LINE      CODE     ---       #235
      ---         BLOCKEND  ---      ---       LVL=0

      01004DFDH   BLOCK     CODE     ---       LVL=0
      02000011H   SYMBOL    XDATA    BYTE      from
      00000005H   SYMBOL    DATA     BYTE      to
      02000012H   SYMBOL    XDATA    BYTE      ev
      01004DFDH   LINE      CODE     ---       #238
      01004E05H   LINE      CODE     ---       #239
      01004E05H   LINE      CODE     ---       #240
      01004E0FH   LINE      CODE     ---       #243
      01004E1CH   LINE      CODE     ---       #244
      01004E1CH   LINE      CODE     ---       #245
      01004E21H   LINE      CODE     ---       #247
      01004E21H   LINE      CODE     ---       #249
      01004E28H   LINE      CODE     ---       #250
      01004E2DH   LINE      CODE     ---       #252
      01004E2DH   LINE      CODE     ---       #255
      01004E34H   LINE      CODE     ---       #256
      01004E39H   LINE      CODE     ---       #257
      01004E3DH   LINE      CODE     ---       #258
      01004E3DH   LINE      CODE     ---       #259
      01004E3DH   LINE      CODE     ---       #260
      01004E46H   LINE      CODE     ---       #262
      01004E46H   LINE      CODE     ---       #265
LX51 LINKER/LOCATER V4.66.87.0                                                        05/09/2018  21:28:12  PAGE 189


      01004E4DH   LINE      CODE     ---       #266
      01004E52H   LINE      CODE     ---       #267
      01004E58H   LINE      CODE     ---       #269
      01004E58H   LINE      CODE     ---       #272
      01004E5EH   LINE      CODE     ---       #273
      01004E61H   LINE      CODE     ---       #275
      01004E61H   LINE      CODE     ---       #276
      ---         BLOCKEND  ---      ---       LVL=0

      0100533BH   BLOCK     CODE     ---       LVL=0
      00000007H   SYMBOL    DATA     BYTE      from
      00000005H   SYMBOL    DATA     BYTE      to
      02000011H   SYMBOL    XDATA    BYTE      ev
      0100533BH   LINE      CODE     ---       #278
      01005340H   LINE      CODE     ---       #279
      01005340H   LINE      CODE     ---       #280
      0100534AH   LINE      CODE     ---       #283
      01005351H   LINE      CODE     ---       #284
      01005356H   LINE      CODE     ---       #286
      01005356H   LINE      CODE     ---       #288
      0100535DH   LINE      CODE     ---       #289
      01005362H   LINE      CODE     ---       #291
      01005362H   LINE      CODE     ---       #294
      01005369H   LINE      CODE     ---       #295
      0100536EH   LINE      CODE     ---       #296
      01005373H   LINE      CODE     ---       #297
      01005373H   LINE      CODE     ---       #298
      01005373H   LINE      CODE     ---       #299
      0100537CH   LINE      CODE     ---       #301
      0100537CH   LINE      CODE     ---       #304
      01005383H   LINE      CODE     ---       #305
      01005388H   LINE      CODE     ---       #306
      0100538EH   LINE      CODE     ---       #308
      0100538EH   LINE      CODE     ---       #311
      01005394H   LINE      CODE     ---       #312
      01005397H   LINE      CODE     ---       #314
      01005397H   LINE      CODE     ---       #315
      ---         BLOCKEND  ---      ---       LVL=0

      01006814H   BLOCK     CODE     ---       LVL=0
      00000007H   SYMBOL    DATA     BYTE      from
      00000005H   SYMBOL    DATA     BYTE      to
      02000011H   SYMBOL    XDATA    BYTE      ev
      01006814H   LINE      CODE     ---       #317
      0100681AH   LINE      CODE     ---       #318
      0100681AH   LINE      CODE     ---       #319
      01006826H   LINE      CODE     ---       #322
      0100682DH   LINE      CODE     ---       #323
      01006832H   LINE      CODE     ---       #325
      01006832H   LINE      CODE     ---       #327
      01006839H   LINE      CODE     ---       #328
      0100683EH   LINE      CODE     ---       #330
      0100683EH   LINE      CODE     ---       #333
      01006844H   LINE      CODE     ---       #334
      01006847H   LINE      CODE     ---       #336
      01006847H   LINE      CODE     ---       #337
      ---         BLOCKEND  ---      ---       LVL=0

      01004FE8H   BLOCK     CODE     ---       LVL=0
      00000007H   SYMBOL    DATA     BYTE      from
      00000005H   SYMBOL    DATA     BYTE      to
      02000011H   SYMBOL    XDATA    BYTE      ev
      01004FE8H   LINE      CODE     ---       #339
      01004FEEH   LINE      CODE     ---       #340
      01004FEEH   LINE      CODE     ---       #341
LX51 LINKER/LOCATER V4.66.87.0                                                        05/09/2018  21:28:12  PAGE 190


      01004FFAH   LINE      CODE     ---       #344
      01005001H   LINE      CODE     ---       #345
      01005006H   LINE      CODE     ---       #347
      01005006H   LINE      CODE     ---       #349
      0100500DH   LINE      CODE     ---       #350
      01005012H   LINE      CODE     ---       #352
      01005012H   LINE      CODE     ---       #355
      01005019H   LINE      CODE     ---       #356
      0100501EH   LINE      CODE     ---       #357
      01005023H   LINE      CODE     ---       #358
      01005023H   LINE      CODE     ---       #359
      01005023H   LINE      CODE     ---       #360
      0100502CH   LINE      CODE     ---       #362
      0100502CH   LINE      CODE     ---       #365
      01005033H   LINE      CODE     ---       #366
      01005038H   LINE      CODE     ---       #367
      0100503EH   LINE      CODE     ---       #369
      0100503EH   LINE      CODE     ---       #372
      01005044H   LINE      CODE     ---       #373
      01005047H   LINE      CODE     ---       #375
      01005047H   LINE      CODE     ---       #376
      ---         BLOCKEND  ---      ---       LVL=0

      01005048H   BLOCK     CODE     ---       LVL=0
      00000007H   SYMBOL    DATA     BYTE      from
      00000005H   SYMBOL    DATA     BYTE      to
      02000011H   SYMBOL    XDATA    BYTE      ev
      01005048H   LINE      CODE     ---       #378
      0100504EH   LINE      CODE     ---       #379
      0100504EH   LINE      CODE     ---       #380
      0100505AH   LINE      CODE     ---       #383
      01005061H   LINE      CODE     ---       #384
      01005066H   LINE      CODE     ---       #386
      01005066H   LINE      CODE     ---       #389
      0100506DH   LINE      CODE     ---       #390
      01005072H   LINE      CODE     ---       #392
      01005072H   LINE      CODE     ---       #395
      01005079H   LINE      CODE     ---       #396
      0100507EH   LINE      CODE     ---       #397
      01005083H   LINE      CODE     ---       #398
      01005083H   LINE      CODE     ---       #399
      01005083H   LINE      CODE     ---       #400
      0100508CH   LINE      CODE     ---       #402
      0100508CH   LINE      CODE     ---       #405
      01005093H   LINE      CODE     ---       #406
      01005098H   LINE      CODE     ---       #407
      0100509EH   LINE      CODE     ---       #409
      0100509EH   LINE      CODE     ---       #412
      010050A4H   LINE      CODE     ---       #413
      010050A7H   LINE      CODE     ---       #415
      010050A7H   LINE      CODE     ---       #416
      ---         BLOCKEND  ---      ---       LVL=0

      010050A8H   BLOCK     CODE     ---       LVL=0
      00000007H   SYMBOL    DATA     BYTE      from
      00000005H   SYMBOL    DATA     BYTE      to
      02000011H   SYMBOL    XDATA    BYTE      ev
      010050A8H   LINE      CODE     ---       #418
      010050AEH   LINE      CODE     ---       #419
      010050AEH   LINE      CODE     ---       #420
      010050BAH   LINE      CODE     ---       #423
      010050C1H   LINE      CODE     ---       #424
      010050C6H   LINE      CODE     ---       #426
      010050C6H   LINE      CODE     ---       #429
      010050CDH   LINE      CODE     ---       #430
LX51 LINKER/LOCATER V4.66.87.0                                                        05/09/2018  21:28:12  PAGE 191


      010050D2H   LINE      CODE     ---       #432
      010050D2H   LINE      CODE     ---       #435
      010050D9H   LINE      CODE     ---       #436
      010050DEH   LINE      CODE     ---       #437
      010050E3H   LINE      CODE     ---       #438
      010050E3H   LINE      CODE     ---       #439
      010050E3H   LINE      CODE     ---       #440
      010050ECH   LINE      CODE     ---       #442
      010050ECH   LINE      CODE     ---       #445
      010050F3H   LINE      CODE     ---       #446
      010050F8H   LINE      CODE     ---       #447
      010050FEH   LINE      CODE     ---       #449
      010050FEH   LINE      CODE     ---       #452
      01005104H   LINE      CODE     ---       #453
      01005107H   LINE      CODE     ---       #455
      01005107H   LINE      CODE     ---       #456
      ---         BLOCKEND  ---      ---       LVL=0

      ---         MODULE    ---      ---       SM_POWER_PACK_DISPLAY
      0100C25CH   PUBLIC    CONST    ---       sm_power_pack_display_ss_name
      01008378H   PUBLIC    CODE     ---       _sm_power_pack_display_submod0
      0100836EH   PUBLIC    CODE     ---       _sm_power_pack_display_init

      010080BCH   BLOCK     CODE     ---       LVL=0
      ---         BLOCKEND  ---      ---       LVL=0

      0100836EH   BLOCK     CODE     ---       LVL=0
      00000007H   SYMBOL    DATA     BYTE      from
      00000005H   SYMBOL    DATA     BYTE      to
      00000006H   SYMBOL    DATA     BYTE      ev
      0100836EH   LINE      CODE     ---       #10
      0100836EH   LINE      CODE     ---       #11
      0100836EH   LINE      CODE     ---       #12
      ---         BLOCKEND  ---      ---       LVL=0

      01008378H   BLOCK     CODE     ---       LVL=0
      00000007H   SYMBOL    DATA     BYTE      from
      00000005H   SYMBOL    DATA     BYTE      to
      00000006H   SYMBOL    DATA     BYTE      ev
      01008378H   LINE      CODE     ---       #15
      01008378H   LINE      CODE     ---       #16
      01008378H   LINE      CODE     ---       #17
      ---         BLOCKEND  ---      ---       LVL=0

      ---         MODULE    ---      ---       SM_POWER_PACK_POWERSAVE
      0100C1C9H   PUBLIC    CONST    ---       sm_power_pack_powersave_ss_name
      0100838CH   PUBLIC    CODE     ---       _sm_power_pack_powersave_submod0
      01008382H   PUBLIC    CODE     ---       _sm_power_pack_powersave_init

      010080CCH   BLOCK     CODE     ---       LVL=0
      ---         BLOCKEND  ---      ---       LVL=0

      01008382H   BLOCK     CODE     ---       LVL=0
      00000007H   SYMBOL    DATA     BYTE      from
      00000005H   SYMBOL    DATA     BYTE      to
      00000006H   SYMBOL    DATA     BYTE      ev
      01008382H   LINE      CODE     ---       #10
      01008382H   LINE      CODE     ---       #11
      01008382H   LINE      CODE     ---       #12
      ---         BLOCKEND  ---      ---       LVL=0

      0100838CH   BLOCK     CODE     ---       LVL=0
      00000007H   SYMBOL    DATA     BYTE      from
      00000005H   SYMBOL    DATA     BYTE      to
      00000006H   SYMBOL    DATA     BYTE      ev
LX51 LINKER/LOCATER V4.66.87.0                                                        05/09/2018  21:28:12  PAGE 192


      0100838CH   LINE      CODE     ---       #15
      0100838CH   LINE      CODE     ---       #16
      0100838CH   LINE      CODE     ---       #17
      ---         BLOCKEND  ---      ---       LVL=0

      ---         MODULE    ---      ---       SM_FUSE_TEST
      0100A2B7H   PUBLIC    CONST    ---       sm_fuse_test_ss_name
      010077A9H   PUBLIC    CODE     ---       _sm_fuse_test_submod8
      0100778DH   PUBLIC    CODE     ---       _sm_fuse_test_submod7
      01007771H   PUBLIC    CODE     ---       _sm_fuse_test_submod6
      01007755H   PUBLIC    CODE     ---       _sm_fuse_test_submod5
      01007739H   PUBLIC    CODE     ---       _sm_fuse_test_submod4
      0100771DH   PUBLIC    CODE     ---       _sm_fuse_test_submod3
      01007701H   PUBLIC    CODE     ---       _sm_fuse_test_submod2
      010076E5H   PUBLIC    CODE     ---       _sm_fuse_test_submod1
      01001E86H   PUBLIC    CODE     ---       _sm_fuse_test_submod0
      010063CCH   PUBLIC    CODE     ---       _sm_fuse_test_init
      01001558H   SYMBOL    CODE     ---       _sm_fuse_test_hg_mpu
      010016FEH   SYMBOL    CODE     ---       _sm_fuse_test_thermo
      0100138CH   SYMBOL    CODE     ---       _display_test
      01005223H   SYMBOL    CODE     ---       _sm_fuse_set
      010037E3H   SYMBOL    CODE     ---       _update_set
      01005912H   SYMBOL    CODE     ---       _update_hg_mask
      01007307H   SYMBOL    CODE     ---       _inc_write
      01003D7AH   SYMBOL    CODE     ---       _enter_set
      010055B4H   SYMBOL    CODE     ---       _write_only
      01004EC5H   SYMBOL    CODE     ---       _inc_only

      010041DCH   BLOCK     CODE     ---       LVL=0
      ---         BLOCKEND  ---      ---       LVL=0

      010063CCH   BLOCK     CODE     ---       LVL=0
      00000007H   SYMBOL    DATA     BYTE      from
      00000005H   SYMBOL    DATA     BYTE      to
      02000011H   SYMBOL    XDATA    BYTE      ev
      010063CCH   LINE      CODE     ---       #50
      010063D1H   LINE      CODE     ---       #51
      010063D1H   LINE      CODE     ---       #52
      010063DBH   LINE      CODE     ---       #53
      010063E0H   LINE      CODE     ---       #54
      010063E7H   LINE      CODE     ---       #55
      010063EAH   LINE      CODE     ---       #56
      010063EDH   LINE      CODE     ---       #57
      010063F2H   LINE      CODE     ---       #58
      010063F2H   LINE      CODE     ---       #59
      010063F5H   LINE      CODE     ---       #60
      010063FCH   LINE      CODE     ---       #61
      01006405H   LINE      CODE     ---       #62
      01006405H   LINE      CODE     ---       #63
      ---         BLOCKEND  ---      ---       LVL=0

      01005912H   BLOCK     CODE     ---       LVL=0
      02000015H   SYMBOL    XDATA    BYTE      state
      02000016H   SYMBOL    XDATA    BYTE      mask
      0100591CH   BLOCK     CODE     NEAR LAB  LVL=1
      00000005H   SYMBOL    DATA     BYTE      val
      ---         BLOCKEND  ---      ---       LVL=1
      01005912H   LINE      CODE     ---       #65
      0100591CH   LINE      CODE     ---       #66
      0100591CH   LINE      CODE     ---       #68
      0100592AH   LINE      CODE     ---       #69
      01005935H   LINE      CODE     ---       #70
      01005939H   LINE      CODE     ---       #71
      0100593DH   LINE      CODE     ---       #72
      01005941H   LINE      CODE     ---       #73
LX51 LINKER/LOCATER V4.66.87.0                                                        05/09/2018  21:28:12  PAGE 193


      01005947H   LINE      CODE     ---       #74
      01005957H   LINE      CODE     ---       #75
      0100595AH   LINE      CODE     ---       #76
      ---         BLOCKEND  ---      ---       LVL=0

      0100138CH   BLOCK     CODE     ---       LVL=0
      02000015H   SYMBOL    XDATA    BYTE      what
      02000016H   SYMBOL    XDATA    BYTE      stage
      02000017H   SYMBOL    XDATA    BYTE      val
      02000018H   SYMBOL    XDATA    BYTE      errcode
      01001397H   BLOCK     CODE     NEAR LAB  LVL=1
      00000003H   SYMBOL    DATA     CHAR      tmp
      ---         BLOCKEND  ---      ---       LVL=1
      0100138CH   LINE      CODE     ---       #78
      01001397H   LINE      CODE     ---       #79
      01001397H   LINE      CODE     ---       #81
      010013A9H   LINE      CODE     ---       #83
      010013ACH   LINE      CODE     ---       #85
      010013B1H   LINE      CODE     ---       #86
      010013B5H   LINE      CODE     ---       #88
      010013BCH   LINE      CODE     ---       #89
      010013C1H   LINE      CODE     ---       #90
      010013C8H   LINE      CODE     ---       #91
      010013CFH   LINE      CODE     ---       #92
      010013CFH   LINE      CODE     ---       #93
      010013D6H   LINE      CODE     ---       #94
      010013D6H   LINE      CODE     ---       #95
      010013D9H   LINE      CODE     ---       #96
      010013E0H   LINE      CODE     ---       #97
      010013E2H   LINE      CODE     ---       #98
      010013ECH   LINE      CODE     ---       #99
      010013ECH   LINE      CODE     ---       #100
      010013EFH   LINE      CODE     ---       #101
      010013F6H   LINE      CODE     ---       #102
      010013FDH   LINE      CODE     ---       #103
      010013FDH   LINE      CODE     ---       #105
      0100141EH   LINE      CODE     ---       #106
      0100141EH   LINE      CODE     ---       #107
      0100141EH   LINE      CODE     ---       #108
      0100141EH   LINE      CODE     ---       #109
      01001425H   LINE      CODE     ---       #110
      0100142CH   LINE      CODE     ---       #111
      01001434H   LINE      CODE     ---       #112
      0100143AH   LINE      CODE     ---       #113
      01001443H   LINE      CODE     ---       #114
      01001446H   LINE      CODE     ---       #115
      01001448H   LINE      CODE     ---       #116
      0100144BH   LINE      CODE     ---       #117
      0100144BH   LINE      CODE     ---       #118
      01001456H   LINE      CODE     ---       #119
      01001459H   LINE      CODE     ---       #120
      01001463H   LINE      CODE     ---       #121
      01001465H   LINE      CODE     ---       #122
      01001465H   LINE      CODE     ---       #123
      01001465H   LINE      CODE     ---       #124
      01001465H   LINE      CODE     ---       #125
      01001465H   LINE      CODE     ---       #126
      01001465H   LINE      CODE     ---       #127
      01001468H   LINE      CODE     ---       #128
      01001468H   LINE      CODE     ---       #129
      01001468H   LINE      CODE     ---       #130
      0100146FH   LINE      CODE     ---       #131
      01001476H   LINE      CODE     ---       #132
      01001478H   LINE      CODE     ---       #133
      0100147AH   LINE      CODE     ---       #134
LX51 LINKER/LOCATER V4.66.87.0                                                        05/09/2018  21:28:12  PAGE 194


      01001481H   LINE      CODE     ---       #135
      01001481H   LINE      CODE     ---       #136
      0100148CH   LINE      CODE     ---       #137
      0100148FH   LINE      CODE     ---       #138
      01001494H   LINE      CODE     ---       #139
      0100149BH   LINE      CODE     ---       #140
      010014A2H   LINE      CODE     ---       #141
      010014A6H   LINE      CODE     ---       #142
      010014A6H   LINE      CODE     ---       #143
      010014B2H   LINE      CODE     ---       #144
      010014BAH   LINE      CODE     ---       #145
      010014BAH   LINE      CODE     ---       #146
      010014BCH   LINE      CODE     ---       #147
      010014BCH   LINE      CODE     ---       #148
      010014BCH   LINE      CODE     ---       #149
      010014C0H   LINE      CODE     ---       #150
      010014C7H   LINE      CODE     ---       #151
      010014C8H   LINE      CODE     ---       #152
      010014CAH   LINE      CODE     ---       #153
      010014D1H   LINE      CODE     ---       #154
      010014D8H   LINE      CODE     ---       #155
      010014D8H   LINE      CODE     ---       #156
      010014E1H   LINE      CODE     ---       #157
      010014E8H   LINE      CODE     ---       #158
      010014EBH   LINE      CODE     ---       #159
      010014F0H   LINE      CODE     ---       #160
      010014F5H   LINE      CODE     ---       #161
      010014FAH   LINE      CODE     ---       #162
      010014FEH   LINE      CODE     ---       #163
      01001502H   LINE      CODE     ---       #164
      01001507H   LINE      CODE     ---       #165
      01001509H   LINE      CODE     ---       #166
      0100150CH   LINE      CODE     ---       #168
      0100151BH   LINE      CODE     ---       #169
      01001529H   LINE      CODE     ---       #170
      01001529H   LINE      CODE     ---       #171
      01001529H   LINE      CODE     ---       #172
      01001529H   LINE      CODE     ---       #173
      ---         BLOCKEND  ---      ---       LVL=0

      010037E3H   BLOCK     CODE     ---       LVL=0
      00000007H   SYMBOL    DATA     BYTE      what
      010037E3H   BLOCK     CODE     NEAR LAB  LVL=1
      00000004H   SYMBOL    DATA     CHAR      val
      ---         BLOCKEND  ---      ---       LVL=1
      010037E3H   LINE      CODE     ---       #175
      010037E3H   LINE      CODE     ---       #176
      010037E3H   LINE      CODE     ---       #178
      010037F5H   LINE      CODE     ---       #179
      010037F5H   LINE      CODE     ---       #180
      010037F5H   LINE      CODE     ---       #181
      010037FAH   LINE      CODE     ---       #182
      010037FDH   LINE      CODE     ---       #183
      010037FDH   LINE      CODE     ---       #184
      01003800H   LINE      CODE     ---       #185
      01003800H   LINE      CODE     ---       #186
      01003802H   LINE      CODE     ---       #187
      0100380AH   LINE      CODE     ---       #188
      01003811H   LINE      CODE     ---       #189
      01003815H   LINE      CODE     ---       #190
      01003815H   LINE      CODE     ---       #191
      01003821H   LINE      CODE     ---       #192
      0100382CH   LINE      CODE     ---       #193
      0100382CH   LINE      CODE     ---       #194
      0100382EH   LINE      CODE     ---       #195
LX51 LINKER/LOCATER V4.66.87.0                                                        05/09/2018  21:28:12  PAGE 195


      0100382EH   LINE      CODE     ---       #196
      01003834H   LINE      CODE     ---       #197
      0100383BH   LINE      CODE     ---       #198
      01003842H   LINE      CODE     ---       #199
      01003843H   LINE      CODE     ---       #200
      01003845H   LINE      CODE     ---       #201
      01003845H   LINE      CODE     ---       #202
      01003848H   LINE      CODE     ---       #203
      01003848H   LINE      CODE     ---       #204
      01003848H   LINE      CODE     ---       #205
      0100384AH   LINE      CODE     ---       #206
      0100384AH   LINE      CODE     ---       #207
      01003852H   LINE      CODE     ---       #208
      01003859H   LINE      CODE     ---       #209
      01003860H   LINE      CODE     ---       #210
      01003860H   LINE      CODE     ---       #211
      01003862H   LINE      CODE     ---       #212
      0100386FH   LINE      CODE     ---       #213
      01003881H   LINE      CODE     ---       #214
      01003881H   LINE      CODE     ---       #215
      01003881H   LINE      CODE     ---       #216
      01003881H   LINE      CODE     ---       #217
      ---         BLOCKEND  ---      ---       LVL=0

      01003D7AH   BLOCK     CODE     ---       LVL=0
      02000014H   SYMBOL    XDATA    BYTE      what
      01003D7AH   LINE      CODE     ---       #220
      01003D7FH   LINE      CODE     ---       #221
      01003D7FH   LINE      CODE     ---       #222
      01003D89H   LINE      CODE     ---       #223
      01003D8CH   LINE      CODE     ---       #224
      01003D91H   LINE      CODE     ---       #225
      01003D95H   LINE      CODE     ---       #226
      01003D99H   LINE      CODE     ---       #227
      01003D9DH   LINE      CODE     ---       #228
      01003DA1H   LINE      CODE     ---       #229
      01003DB3H   LINE      CODE     ---       #230
      01003DB3H   LINE      CODE     ---       #231
      01003DB3H   LINE      CODE     ---       #232
      01003DBAH   LINE      CODE     ---       #233
      01003DC1H   LINE      CODE     ---       #234
      01003DC3H   LINE      CODE     ---       #235
      01003DC5H   LINE      CODE     ---       #236
      01003DCCH   LINE      CODE     ---       #237
      01003DCCH   LINE      CODE     ---       #238
      01003DD7H   LINE      CODE     ---       #240
      01003DD9H   LINE      CODE     ---       #241
      01003DD9H   LINE      CODE     ---       #242
      01003DE0H   LINE      CODE     ---       #243
      01003DE6H   LINE      CODE     ---       #244
      01003DE8H   LINE      CODE     ---       #245
      01003DEAH   LINE      CODE     ---       #246
      01003DEAH   LINE      CODE     ---       #247
      01003DF1H   LINE      CODE     ---       #248
      01003DF8H   LINE      CODE     ---       #249
      01003E02H   LINE      CODE     ---       #250
      01003E02H   LINE      CODE     ---       #251
      01003E02H   LINE      CODE     ---       #252
      ---         BLOCKEND  ---      ---       LVL=0

      01004EC5H   BLOCK     CODE     ---       LVL=0
      02000015H   SYMBOL    XDATA    BYTE      what
      01004EC5H   LINE      CODE     ---       #255
      01004ECAH   LINE      CODE     ---       #256
      01004ECAH   LINE      CODE     ---       #258
LX51 LINKER/LOCATER V4.66.87.0                                                        05/09/2018  21:28:12  PAGE 196


      01004ED4H   LINE      CODE     ---       #260
      01004ED7H   LINE      CODE     ---       #261
      01004ED9H   LINE      CODE     ---       #262
      01004EDEH   LINE      CODE     ---       #263
      01004EE2H   LINE      CODE     ---       #264
      01004EE6H   LINE      CODE     ---       #265
      01004EE6H   LINE      CODE     ---       #267
      01004EF8H   LINE      CODE     ---       #268
      01004EF8H   LINE      CODE     ---       #269
      01004EF8H   LINE      CODE     ---       #270
      01004F02H   LINE      CODE     ---       #271
      01004F04H   LINE      CODE     ---       #272
      01004F04H   LINE      CODE     ---       #273
      01004F13H   LINE      CODE     ---       #274
      01004F15H   LINE      CODE     ---       #275
      01004F15H   LINE      CODE     ---       #276
      01004F1FH   LINE      CODE     ---       #277
      01004F1FH   LINE      CODE     ---       #278
      01004F1FH   LINE      CODE     ---       #279
      ---         BLOCKEND  ---      ---       LVL=0

      010055B4H   BLOCK     CODE     ---       LVL=0
      02000015H   SYMBOL    XDATA    BYTE      what
      010055B4H   LINE      CODE     ---       #282
      010055B9H   LINE      CODE     ---       #283
      010055B9H   LINE      CODE     ---       #284
      010055C3H   LINE      CODE     ---       #286
      010055C6H   LINE      CODE     ---       #287
      010055C8H   LINE      CODE     ---       #288
      010055CDH   LINE      CODE     ---       #289
      010055D1H   LINE      CODE     ---       #290
      010055D5H   LINE      CODE     ---       #291
      010055D5H   LINE      CODE     ---       #293
      010055E7H   LINE      CODE     ---       #294
      010055E7H   LINE      CODE     ---       #295
      010055EEH   LINE      CODE     ---       #296
      010055F0H   LINE      CODE     ---       #297
      010055F0H   LINE      CODE     ---       #298
      010055F7H   LINE      CODE     ---       #299
      010055F9H   LINE      CODE     ---       #300
      010055F9H   LINE      CODE     ---       #301
      01005600H   LINE      CODE     ---       #302
      01005602H   LINE      CODE     ---       #303
      01005602H   LINE      CODE     ---       #304
      0100560CH   LINE      CODE     ---       #305
      0100560CH   LINE      CODE     ---       #306
      0100560CH   LINE      CODE     ---       #307
      ---         BLOCKEND  ---      ---       LVL=0

      01007307H   BLOCK     CODE     ---       LVL=0
      02000014H   SYMBOL    XDATA    BYTE      what
      01007307H   LINE      CODE     ---       #309
      0100730CH   LINE      CODE     ---       #310
      0100730CH   LINE      CODE     ---       #311
      01007319H   LINE      CODE     ---       #312
      01007321H   LINE      CODE     ---       #313
      ---         BLOCKEND  ---      ---       LVL=0

      010016FEH   BLOCK     CODE     ---       LVL=0
      02000012H   SYMBOL    XDATA    BYTE      what
      02000013H   SYMBOL    XDATA    BYTE      ev
      01001706H   BLOCK     CODE     NEAR LAB  LVL=1
      02000014H   SYMBOL    XDATA    CHAR      val
      ---         BLOCKEND  ---      ---       LVL=1
      010016FEH   LINE      CODE     ---       #316
LX51 LINKER/LOCATER V4.66.87.0                                                        05/09/2018  21:28:12  PAGE 197


      01001706H   LINE      CODE     ---       #317
      01001706H   LINE      CODE     ---       #319
      01001709H   LINE      CODE     ---       #321
      01001709H   LINE      CODE     ---       #322
      0100170CH   LINE      CODE     ---       #323
      01001711H   LINE      CODE     ---       #324
      0100171CH   LINE      CODE     ---       #326
      0100171CH   LINE      CODE     ---       #328
      0100172AH   LINE      CODE     ---       #330
      01001731H   LINE      CODE     ---       #331
      01001735H   LINE      CODE     ---       #333
      0100173FH   LINE      CODE     ---       #334
      0100174DH   LINE      CODE     ---       #336
      0100174FH   LINE      CODE     ---       #337
      01001752H   LINE      CODE     ---       #338
      01001757H   LINE      CODE     ---       #339
      01001770H   LINE      CODE     ---       #342
      01001773H   LINE      CODE     ---       #344
      0100178AH   LINE      CODE     ---       #347
      0100178DH   LINE      CODE     ---       #349
      0100178DH   LINE      CODE     ---       #351
      0100179BH   LINE      CODE     ---       #352
      010017A0H   LINE      CODE     ---       #354
      010017B6H   LINE      CODE     ---       #357
      010017B6H   LINE      CODE     ---       #358
      010017B6H   LINE      CODE     ---       #359
      010017C0H   LINE      CODE     ---       #361
      010017D9H   LINE      CODE     ---       #364
      010017D9H   LINE      CODE     ---       #365
      010017D9H   LINE      CODE     ---       #366
      010017DCH   LINE      CODE     ---       #368
      010017DCH   LINE      CODE     ---       #370
      010017E7H   LINE      CODE     ---       #371
      010017ECH   LINE      CODE     ---       #372
      010017F7H   LINE      CODE     ---       #373
      010017F9H   LINE      CODE     ---       #374
      010017FCH   LINE      CODE     ---       #375
      01001815H   LINE      CODE     ---       #378
      01001815H   LINE      CODE     ---       #379
      0100181CH   LINE      CODE     ---       #380
      01001824H   LINE      CODE     ---       #381
      01001829H   LINE      CODE     ---       #382
      0100182CH   LINE      CODE     ---       #383
      01001839H   LINE      CODE     ---       #384
      0100183BH   LINE      CODE     ---       #385
      01001848H   LINE      CODE     ---       #386
      01001848H   LINE      CODE     ---       #387
      01001848H   LINE      CODE     ---       #388
      01001848H   LINE      CODE     ---       #389
      01001852H   LINE      CODE     ---       #390
      01001857H   LINE      CODE     ---       #391
      0100185AH   LINE      CODE     ---       #392
      0100186AH   LINE      CODE     ---       #393
      0100186AH   LINE      CODE     ---       #394
      0100187AH   LINE      CODE     ---       #395
      0100187FH   LINE      CODE     ---       #396
      01001884H   LINE      CODE     ---       #397
      01001884H   LINE      CODE     ---       #398
      01001884H   LINE      CODE     ---       #399
      01001884H   LINE      CODE     ---       #401
      01001884H   LINE      CODE     ---       #402
      ---         BLOCKEND  ---      ---       LVL=0

      01005223H   BLOCK     CODE     ---       LVL=0
      02000012H   SYMBOL    XDATA    BYTE      what
LX51 LINKER/LOCATER V4.66.87.0                                                        05/09/2018  21:28:12  PAGE 198


      02000013H   SYMBOL    XDATA    BYTE      ev
      01005223H   LINE      CODE     ---       #404
      0100522BH   LINE      CODE     ---       #405
      0100522BH   LINE      CODE     ---       #406
      0100522EH   LINE      CODE     ---       #407
      01005236H   LINE      CODE     ---       #408
      01005238H   LINE      CODE     ---       #410
      01005238H   LINE      CODE     ---       #412
      0100523FH   LINE      CODE     ---       #413
      01005247H   LINE      CODE     ---       #415
      01005247H   LINE      CODE     ---       #417
      0100524EH   LINE      CODE     ---       #418
      0100525AH   LINE      CODE     ---       #419
      0100525FH   LINE      CODE     ---       #420
      0100525FH   LINE      CODE     ---       #421
      01005265H   LINE      CODE     ---       #422
      0100526CH   LINE      CODE     ---       #424
      0100526CH   LINE      CODE     ---       #426
      01005273H   LINE      CODE     ---       #427
      0100527BH   LINE      CODE     ---       #428
      01005280H   LINE      CODE     ---       #430
      01005280H   LINE      CODE     ---       #431
      ---         BLOCKEND  ---      ---       LVL=0

      01001E86H   BLOCK     CODE     ---       LVL=0
      00000007H   SYMBOL    DATA     BYTE      from
      00000005H   SYMBOL    DATA     BYTE      to
      02000011H   SYMBOL    XDATA    BYTE      ev
      01001E86H   LINE      CODE     ---       #439
      01001E8CH   LINE      CODE     ---       #440
      01001E8CH   LINE      CODE     ---       #441
      01001E98H   LINE      CODE     ---       #443
      01001EA5H   LINE      CODE     ---       #445
      01001EA5H   LINE      CODE     ---       #446
      01001EA8H   LINE      CODE     ---       #447
      01001EAAH   LINE      CODE     ---       #448
      01001EACH   LINE      CODE     ---       #450
      01001EACH   LINE      CODE     ---       #452
      01001EBAH   LINE      CODE     ---       #454
      01001EBCH   LINE      CODE     ---       #455
      01001EC4H   LINE      CODE     ---       #456
      01001EC9H   LINE      CODE     ---       #457
      01001ECCH   LINE      CODE     ---       #459
      01001ECCH   LINE      CODE     ---       #461
      01001ED4H   LINE      CODE     ---       #463
      01001ED9H   LINE      CODE     ---       #465
      01001EDCH   LINE      CODE     ---       #466
      01001EE3H   LINE      CODE     ---       #467
      01001EE7H   LINE      CODE     ---       #468
      01001EEAH   LINE      CODE     ---       #469
      01001EEAH   LINE      CODE     ---       #470
      01001EEDH   LINE      CODE     ---       #472
      01001EF2H   LINE      CODE     ---       #473
      01001EF2H   LINE      CODE     ---       #474
      01001EF2H   LINE      CODE     ---       #475
      01001EF5H   LINE      CODE     ---       #477
      01001EF5H   LINE      CODE     ---       #479
      01001EFDH   LINE      CODE     ---       #481
      01001F05H   LINE      CODE     ---       #483
      01001F08H   LINE      CODE     ---       #484
      01001F0FH   LINE      CODE     ---       #485
      01001F14H   LINE      CODE     ---       #486
      01001F1CH   LINE      CODE     ---       #487
      01001F26H   LINE      CODE     ---       #488
      01001F28H   LINE      CODE     ---       #490
LX51 LINKER/LOCATER V4.66.87.0                                                        05/09/2018  21:28:12  PAGE 199


      01001F2DH   LINE      CODE     ---       #491
      01001F2DH   LINE      CODE     ---       #492
      01001F2DH   LINE      CODE     ---       #493
      01001F30H   LINE      CODE     ---       #495
      01001F30H   LINE      CODE     ---       #497
      01001F38H   LINE      CODE     ---       #499
      01001F3FH   LINE      CODE     ---       #502
      01001F3FH   LINE      CODE     ---       #503
      01001F42H   LINE      CODE     ---       #504
      01001F4AH   LINE      CODE     ---       #505
      01001F4CH   LINE      CODE     ---       #507
      01001F51H   LINE      CODE     ---       #508
      01001F51H   LINE      CODE     ---       #509
      01001F51H   LINE      CODE     ---       #510
      01001F53H   LINE      CODE     ---       #512
      01001F53H   LINE      CODE     ---       #514
      01001F5BH   LINE      CODE     ---       #516
      01001F60H   LINE      CODE     ---       #517
      01001F68H   LINE      CODE     ---       #518
      01001F6EH   LINE      CODE     ---       #519
      01001F72H   LINE      CODE     ---       #520
      01001F75H   LINE      CODE     ---       #521
      01001F82H   LINE      CODE     ---       #522
      01001F82H   LINE      CODE     ---       #523
      01001F87H   LINE      CODE     ---       #524
      01001F8FH   LINE      CODE     ---       #526
      01001F99H   LINE      CODE     ---       #527
      01001F99H   LINE      CODE     ---       #528
      01001F99H   LINE      CODE     ---       #529
      01001F99H   LINE      CODE     ---       #530
      01001FA3H   LINE      CODE     ---       #531
      01001FABH   LINE      CODE     ---       #533
      01001FB5H   LINE      CODE     ---       #534
      01001FB5H   LINE      CODE     ---       #535
      01001FB5H   LINE      CODE     ---       #536
      01001FB5H   LINE      CODE     ---       #537
      01001FBFH   LINE      CODE     ---       #538
      01001FC7H   LINE      CODE     ---       #540
      01001FD4H   LINE      CODE     ---       #541
      01001FD4H   LINE      CODE     ---       #542
      01001FD7H   LINE      CODE     ---       #543
      01001FD7H   LINE      CODE     ---       #544
      01001FD7H   LINE      CODE     ---       #546
      01001FD7H   LINE      CODE     ---       #547
      ---         BLOCKEND  ---      ---       LVL=0

      010076E5H   BLOCK     CODE     ---       LVL=0
      00000007H   SYMBOL    DATA     BYTE      from
      00000005H   SYMBOL    DATA     BYTE      to
      02000011H   SYMBOL    XDATA    BYTE      ev
      010076E5H   LINE      CODE     ---       #549
      010076EBH   LINE      CODE     ---       #550
      010076EBH   LINE      CODE     ---       #551
      010076F7H   LINE      CODE     ---       #552
      ---         BLOCKEND  ---      ---       LVL=0

      01007701H   BLOCK     CODE     ---       LVL=0
      00000007H   SYMBOL    DATA     BYTE      from
      00000005H   SYMBOL    DATA     BYTE      to
      02000011H   SYMBOL    XDATA    BYTE      ev
      01007701H   LINE      CODE     ---       #560
      01007707H   LINE      CODE     ---       #561
      01007707H   LINE      CODE     ---       #562
      01007713H   LINE      CODE     ---       #563
      ---         BLOCKEND  ---      ---       LVL=0
LX51 LINKER/LOCATER V4.66.87.0                                                        05/09/2018  21:28:12  PAGE 200



      0100771DH   BLOCK     CODE     ---       LVL=0
      00000007H   SYMBOL    DATA     BYTE      from
      00000005H   SYMBOL    DATA     BYTE      to
      02000011H   SYMBOL    XDATA    BYTE      ev
      0100771DH   LINE      CODE     ---       #566
      01007723H   LINE      CODE     ---       #567
      01007723H   LINE      CODE     ---       #568
      0100772FH   LINE      CODE     ---       #569
      ---         BLOCKEND  ---      ---       LVL=0

      01007739H   BLOCK     CODE     ---       LVL=0
      00000007H   SYMBOL    DATA     BYTE      from
      00000005H   SYMBOL    DATA     BYTE      to
      02000011H   SYMBOL    XDATA    BYTE      ev
      01007739H   LINE      CODE     ---       #572
      0100773FH   LINE      CODE     ---       #573
      0100773FH   LINE      CODE     ---       #574
      0100774BH   LINE      CODE     ---       #575
      ---         BLOCKEND  ---      ---       LVL=0

      01007755H   BLOCK     CODE     ---       LVL=0
      00000007H   SYMBOL    DATA     BYTE      from
      00000005H   SYMBOL    DATA     BYTE      to
      02000011H   SYMBOL    XDATA    BYTE      ev
      01007755H   LINE      CODE     ---       #578
      0100775BH   LINE      CODE     ---       #579
      0100775BH   LINE      CODE     ---       #580
      01007767H   LINE      CODE     ---       #581
      ---         BLOCKEND  ---      ---       LVL=0

      01001558H   BLOCK     CODE     ---       LVL=0
      02000012H   SYMBOL    XDATA    BYTE      what
      02000013H   SYMBOL    XDATA    BYTE      ev
      01001560H   BLOCK     CODE     NEAR LAB  LVL=1
      02000014H   SYMBOL    XDATA    BYTE      val
      ---         BLOCKEND  ---      ---       LVL=1
      01001558H   LINE      CODE     ---       #584
      01001560H   LINE      CODE     ---       #585
      01001560H   LINE      CODE     ---       #588
      01001564H   LINE      CODE     ---       #590
      01001568H   LINE      CODE     ---       #591
      0100156CH   LINE      CODE     ---       #592
      01001570H   LINE      CODE     ---       #593
      01001577H   LINE      CODE     ---       #594
      0100157CH   LINE      CODE     ---       #595
      0100157EH   LINE      CODE     ---       #596
      01001583H   LINE      CODE     ---       #597
      01001583H   LINE      CODE     ---       #598
      0100158BH   LINE      CODE     ---       #600
      0100158BH   LINE      CODE     ---       #602
      0100159FH   LINE      CODE     ---       #603
      010015B4H   LINE      CODE     ---       #604
      010015C4H   LINE      CODE     ---       #606
      010015C5H   LINE      CODE     ---       #607
      010015C8H   LINE      CODE     ---       #608
      010015CDH   LINE      CODE     ---       #609
      010015D8H   LINE      CODE     ---       #610
      010015E0H   LINE      CODE     ---       #611
      010015F2H   LINE      CODE     ---       #612
      010015F4H   LINE      CODE     ---       #613
      010015F7H   LINE      CODE     ---       #614
      010015FCH   LINE      CODE     ---       #615
      01001605H   LINE      CODE     ---       #616
      0100160DH   LINE      CODE     ---       #617
LX51 LINKER/LOCATER V4.66.87.0                                                        05/09/2018  21:28:12  PAGE 201


      01001610H   LINE      CODE     ---       #619
      0100161EH   LINE      CODE     ---       #620
      01001621H   LINE      CODE     ---       #622
      01001621H   LINE      CODE     ---       #624
      01001629H   LINE      CODE     ---       #625
      0100162EH   LINE      CODE     ---       #626
      0100163FH   LINE      CODE     ---       #627
      0100164AH   LINE      CODE     ---       #628
      01001656H   LINE      CODE     ---       #630
      01001659H   LINE      CODE     ---       #631
      01001659H   LINE      CODE     ---       #632
      01001659H   LINE      CODE     ---       #633
      01001659H   LINE      CODE     ---       #634
      01001667H   LINE      CODE     ---       #636
      0100166FH   LINE      CODE     ---       #637
      0100166FH   LINE      CODE     ---       #638
      0100166FH   LINE      CODE     ---       #639
      01001671H   LINE      CODE     ---       #641
      01001671H   LINE      CODE     ---       #643
      01001679H   LINE      CODE     ---       #644
      01001681H   LINE      CODE     ---       #646
      01001687H   LINE      CODE     ---       #647
      01001687H   LINE      CODE     ---       #648
      01001687H   LINE      CODE     ---       #649
      01001692H   LINE      CODE     ---       #651
      0100169AH   LINE      CODE     ---       #652
      0100169AH   LINE      CODE     ---       #653
      0100169AH   LINE      CODE     ---       #654
      0100169CH   LINE      CODE     ---       #656
      0100169CH   LINE      CODE     ---       #658
      010016A4H   LINE      CODE     ---       #659
      010016A9H   LINE      CODE     ---       #660
      010016B1H   LINE      CODE     ---       #662
      010016B7H   LINE      CODE     ---       #663
      010016BFH   LINE      CODE     ---       #664
      010016C8H   LINE      CODE     ---       #665
      010016C8H   LINE      CODE     ---       #666
      010016CDH   LINE      CODE     ---       #667
      010016DDH   LINE      CODE     ---       #669
      010016E6H   LINE      CODE     ---       #670
      010016EBH   LINE      CODE     ---       #671
      010016F0H   LINE      CODE     ---       #672
      010016F0H   LINE      CODE     ---       #673
      010016F0H   LINE      CODE     ---       #675
      010016F0H   LINE      CODE     ---       #676
      ---         BLOCKEND  ---      ---       LVL=0

      01007771H   BLOCK     CODE     ---       LVL=0
      00000007H   SYMBOL    DATA     BYTE      from
      00000005H   SYMBOL    DATA     BYTE      to
      02000011H   SYMBOL    XDATA    BYTE      ev
      01007771H   LINE      CODE     ---       #682
      01007777H   LINE      CODE     ---       #683
      01007777H   LINE      CODE     ---       #684
      01007783H   LINE      CODE     ---       #685
      ---         BLOCKEND  ---      ---       LVL=0

      0100778DH   BLOCK     CODE     ---       LVL=0
      00000007H   SYMBOL    DATA     BYTE      from
      00000005H   SYMBOL    DATA     BYTE      to
      02000011H   SYMBOL    XDATA    BYTE      ev
      0100778DH   LINE      CODE     ---       #688
      01007793H   LINE      CODE     ---       #689
      01007793H   LINE      CODE     ---       #690
      0100779FH   LINE      CODE     ---       #691
LX51 LINKER/LOCATER V4.66.87.0                                                        05/09/2018  21:28:12  PAGE 202


      ---         BLOCKEND  ---      ---       LVL=0

      010077A9H   BLOCK     CODE     ---       LVL=0
      00000007H   SYMBOL    DATA     BYTE      from
      00000005H   SYMBOL    DATA     BYTE      to
      02000011H   SYMBOL    XDATA    BYTE      ev
      010077A9H   LINE      CODE     ---       #695
      010077AFH   LINE      CODE     ---       #696
      010077AFH   LINE      CODE     ---       #697
      010077BBH   LINE      CODE     ---       #698
      ---         BLOCKEND  ---      ---       LVL=0

      ---         MODULE    ---      ---       SM_FUSE_PARAM
      0100AFA0H   PUBLIC    CONST    ---       sm_fuse_param_ss_name
      01003F27H   PUBLIC    CODE     ---       _sm_fuse_param_submod6
      01007835H   PUBLIC    CODE     ---       _sm_fuse_param_submod5
      01007819H   PUBLIC    CODE     ---       _sm_fuse_param_submod4
      010077FDH   PUBLIC    CODE     ---       _sm_fuse_param_submod3
      010077E1H   PUBLIC    CODE     ---       _sm_fuse_param_submod2
      010077C5H   PUBLIC    CODE     ---       _sm_fuse_param_submod1
      01007AA7H   PUBLIC    CODE     ---       _sm_fuse_param_submod0
      01006ECAH   PUBLIC    CODE     ---       _sm_fuse_param_init
      01002150H   SYMBOL    CODE     ---       _update_time
      01004C60H   SYMBOL    CODE     ---       _sm_fuse_param_set_time
      0100655AH   SYMBOL    CODE     ---       _enter_time
      01004454H   SYMBOL    CODE     ---       _write_only
      01008396H   SYMBOL    CODE     ---       _inc_and_write
      0100643FH   SYMBOL    CODE     ---       _update_password
      0100463BH   SYMBOL    CODE     ---       _inc_only
      010079C5H   SYMBOL    CODE     ---       _enter_password

      01007329H   BLOCK     CODE     ---       LVL=0
      ---         BLOCKEND  ---      ---       LVL=0

      0100463BH   BLOCK     CODE     ---       LVL=0
      00000006H   SYMBOL    DATA     BYTE      what
      0100463BH   LINE      CODE     ---       #26
      0100463DH   LINE      CODE     ---       #27
      0100463DH   LINE      CODE     ---       #29
      01004649H   LINE      CODE     ---       #30
      01004657H   LINE      CODE     ---       #32
      01004657H   LINE      CODE     ---       #34
      0100466BH   LINE      CODE     ---       #35
      0100466BH   LINE      CODE     ---       #36
      0100466BH   LINE      CODE     ---       #37
      0100466EH   LINE      CODE     ---       #38
      01004670H   LINE      CODE     ---       #39
      01004672H   LINE      CODE     ---       #40
      01004675H   LINE      CODE     ---       #41
      01004675H   LINE      CODE     ---       #42
      01004678H   LINE      CODE     ---       #43
      0100467BH   LINE      CODE     ---       #44
      0100467BH   LINE      CODE     ---       #45
      0100467EH   LINE      CODE     ---       #46
      0100467EH   LINE      CODE     ---       #47
      0100467EH   LINE      CODE     ---       #48
      0100467EH   LINE      CODE     ---       #49
      0100467EH   LINE      CODE     ---       #50
      01004681H   LINE      CODE     ---       #51
      01004683H   LINE      CODE     ---       #52
      01004685H   LINE      CODE     ---       #53
      01004688H   LINE      CODE     ---       #54
      01004688H   LINE      CODE     ---       #55
      0100468CH   LINE      CODE     ---       #56
      0100468FH   LINE      CODE     ---       #57
LX51 LINKER/LOCATER V4.66.87.0                                                        05/09/2018  21:28:12  PAGE 203


      0100468FH   LINE      CODE     ---       #58
      01004692H   LINE      CODE     ---       #59
      01004692H   LINE      CODE     ---       #60
      01004692H   LINE      CODE     ---       #61
      01004692H   LINE      CODE     ---       #62
      01004692H   LINE      CODE     ---       #63
      01004695H   LINE      CODE     ---       #64
      01004697H   LINE      CODE     ---       #65
      0100469CH   LINE      CODE     ---       #66
      010046A0H   LINE      CODE     ---       #67
      010046A0H   LINE      CODE     ---       #68
      010046A4H   LINE      CODE     ---       #69
      010046A7H   LINE      CODE     ---       #70
      010046A7H   LINE      CODE     ---       #71
      010046AAH   LINE      CODE     ---       #72
      010046AAH   LINE      CODE     ---       #73
      010046AAH   LINE      CODE     ---       #74
      010046AAH   LINE      CODE     ---       #75
      ---         BLOCKEND  ---      ---       LVL=0

      01004454H   BLOCK     CODE     ---       LVL=0
      02000014H   SYMBOL    XDATA    BYTE      what
      01004459H   BLOCK     CODE     NEAR LAB  LVL=1
      00000007H   SYMBOL    DATA     BYTE      i
      ---         BLOCKEND  ---      ---       LVL=1
      01004454H   LINE      CODE     ---       #77
      01004459H   LINE      CODE     ---       #78
      01004459H   LINE      CODE     ---       #81
      01004465H   LINE      CODE     ---       #82
      01004468H   LINE      CODE     ---       #83
      01004473H   LINE      CODE     ---       #85
      01004473H   LINE      CODE     ---       #87
      0100448AH   LINE      CODE     ---       #88
      0100448AH   LINE      CODE     ---       #89
      0100448DH   LINE      CODE     ---       #90
      0100448FH   LINE      CODE     ---       #91
      0100448FH   LINE      CODE     ---       #92
      0100448FH   LINE      CODE     ---       #93
      0100448FH   LINE      CODE     ---       #94
      0100448FH   LINE      CODE     ---       #95
      01004491H   LINE      CODE     ---       #96
      01004491H   LINE      CODE     ---       #97
      01004494H   LINE      CODE     ---       #98
      01004496H   LINE      CODE     ---       #99
      01004496H   LINE      CODE     ---       #100
      01004496H   LINE      CODE     ---       #101
      01004496H   LINE      CODE     ---       #102
      01004496H   LINE      CODE     ---       #103
      01004498H   LINE      CODE     ---       #104
      01004498H   LINE      CODE     ---       #105
      0100449BH   LINE      CODE     ---       #106
      0100449DH   LINE      CODE     ---       #107
      0100449DH   LINE      CODE     ---       #108
      0100449DH   LINE      CODE     ---       #109
      0100449DH   LINE      CODE     ---       #110
      0100449DH   LINE      CODE     ---       #111
      0100449FH   LINE      CODE     ---       #112
      0100449FH   LINE      CODE     ---       #113
      010044A2H   LINE      CODE     ---       #114
      010044A7H   LINE      CODE     ---       #115
      010044A9H   LINE      CODE     ---       #116
      010044ABH   LINE      CODE     ---       #117
      010044ABH   LINE      CODE     ---       #118
      010044ABH   LINE      CODE     ---       #119
      010044ADH   LINE      CODE     ---       #120
LX51 LINKER/LOCATER V4.66.87.0                                                        05/09/2018  21:28:12  PAGE 204


      010044ADH   LINE      CODE     ---       #121
      010044B0H   LINE      CODE     ---       #122
      010044B5H   LINE      CODE     ---       #123
      010044B7H   LINE      CODE     ---       #124
      010044B9H   LINE      CODE     ---       #125
      010044B9H   LINE      CODE     ---       #126
      010044B9H   LINE      CODE     ---       #127
      010044BBH   LINE      CODE     ---       #128
      010044BBH   LINE      CODE     ---       #129
      010044BEH   LINE      CODE     ---       #130
      010044C3H   LINE      CODE     ---       #131
      010044C5H   LINE      CODE     ---       #132
      010044CAH   LINE      CODE     ---       #133
      010044CEH   LINE      CODE     ---       #134
      010044CEH   LINE      CODE     ---       #135
      010044CEH   LINE      CODE     ---       #136
      010044CEH   LINE      CODE     ---       #138
      ---         BLOCKEND  ---      ---       LVL=0

      01008396H   BLOCK     CODE     ---       LVL=0
      00000005H   SYMBOL    DATA     BYTE      what
      01008396H   LINE      CODE     ---       #140
      01008398H   LINE      CODE     ---       #141
      01008398H   LINE      CODE     ---       #142
      0100839BH   LINE      CODE     ---       #143
      ---         BLOCKEND  ---      ---       LVL=0

      01002150H   BLOCK     CODE     ---       LVL=0
      00000007H   SYMBOL    DATA     BYTE      what
      01002150H   BLOCK     CODE     NEAR LAB  LVL=1
      02000015H   SYMBOL    XDATA    BYTE      year
      02000016H   SYMBOL    XDATA    BYTE      mon
      02000017H   SYMBOL    XDATA    BYTE      date
      02000018H   SYMBOL    XDATA    BYTE      hour
      02000019H   SYMBOL    XDATA    BYTE      min
      0200001AH   SYMBOL    XDATA    BYTE      sec
      ---         BLOCKEND  ---      ---       LVL=1
      01002150H   LINE      CODE     ---       #146
      01002150H   LINE      CODE     ---       #147
      01002150H   LINE      CODE     ---       #150
      0100215FH   LINE      CODE     ---       #152
      01002167H   LINE      CODE     ---       #153
      0100216DH   LINE      CODE     ---       #154
      01002173H   LINE      CODE     ---       #156
      01002178H   LINE      CODE     ---       #157
      0100217DH   LINE      CODE     ---       #159
      0100219EH   LINE      CODE     ---       #161
      010021A8H   LINE      CODE     ---       #162
      010021ABH   LINE      CODE     ---       #163
      010021ADH   LINE      CODE     ---       #164
      010021B4H   LINE      CODE     ---       #165
      010021B4H   LINE      CODE     ---       #166
      010021BAH   LINE      CODE     ---       #167
      010021C0H   LINE      CODE     ---       #168
      010021C6H   LINE      CODE     ---       #169
      010021CCH   LINE      CODE     ---       #170
      010021CFH   LINE      CODE     ---       #171
      010021D2H   LINE      CODE     ---       #172
      010021DAH   LINE      CODE     ---       #173
      010021E0H   LINE      CODE     ---       #174
      010021E6H   LINE      CODE     ---       #177
      010021EBH   LINE      CODE     ---       #178
      010021EFH   LINE      CODE     ---       #179
      010021F3H   LINE      CODE     ---       #180
      010021F7H   LINE      CODE     ---       #183
LX51 LINKER/LOCATER V4.66.87.0                                                        05/09/2018  21:28:12  PAGE 205


      01002204H   LINE      CODE     ---       #184
      01002208H   LINE      CODE     ---       #185
      0100220CH   LINE      CODE     ---       #186
      0100220EH   LINE      CODE     ---       #187
      01002213H   LINE      CODE     ---       #188
      01002213H   LINE      CODE     ---       #191
      01002234H   LINE      CODE     ---       #193
      0100223EH   LINE      CODE     ---       #194
      01002241H   LINE      CODE     ---       #195
      01002243H   LINE      CODE     ---       #196
      0100224AH   LINE      CODE     ---       #197
      0100224AH   LINE      CODE     ---       #198
      01002250H   LINE      CODE     ---       #199
      01002256H   LINE      CODE     ---       #200
      0100225CH   LINE      CODE     ---       #201
      01002262H   LINE      CODE     ---       #202
      01002274H   LINE      CODE     ---       #203
      01002274H   LINE      CODE     ---       #204
      ---         BLOCKEND  ---      ---       LVL=0

      0100655AH   BLOCK     CODE     ---       LVL=0
      02000014H   SYMBOL    XDATA    BYTE      what
      0100655AH   LINE      CODE     ---       #206
      0100655FH   LINE      CODE     ---       #207
      0100655FH   LINE      CODE     ---       #208
      01006562H   LINE      CODE     ---       #209
      01006579H   LINE      CODE     ---       #210
      01006579H   LINE      CODE     ---       #211
      01006579H   LINE      CODE     ---       #212
      0100657BH   LINE      CODE     ---       #213
      0100657BH   LINE      CODE     ---       #214
      0100657DH   LINE      CODE     ---       #215
      0100657DH   LINE      CODE     ---       #216
      0100657DH   LINE      CODE     ---       #217
      0100657FH   LINE      CODE     ---       #218
      0100657FH   LINE      CODE     ---       #219
      01006581H   LINE      CODE     ---       #220
      01006581H   LINE      CODE     ---       #221
      01006581H   LINE      CODE     ---       #222
      01006586H   LINE      CODE     ---       #223
      0100658AH   LINE      CODE     ---       #224
      0100658AH   LINE      CODE     ---       #225
      0100658AH   LINE      CODE     ---       #226
      ---         BLOCKEND  ---      ---       LVL=0

      0100643FH   BLOCK     CODE     ---       LVL=0
      00000007H   SYMBOL    DATA     BYTE      index
      0100643FH   BLOCK     CODE     NEAR LAB  LVL=1
      02000014H   SYMBOL    XDATA    BYTE      i
      ---         BLOCKEND  ---      ---       LVL=1
      0100643FH   LINE      CODE     ---       #229
      0100643FH   LINE      CODE     ---       #230
      0100643FH   LINE      CODE     ---       #232
      01006446H   LINE      CODE     ---       #233
      01006449H   LINE      CODE     ---       #234
      01006450H   LINE      CODE     ---       #235
      01006455H   LINE      CODE     ---       #236
      0100645AH   LINE      CODE     ---       #237
      0100645FH   LINE      CODE     ---       #238
      01006464H   LINE      CODE     ---       #239
      01006469H   LINE      CODE     ---       #240
      ---         BLOCKEND  ---      ---       LVL=0

      010079C5H   BLOCK     CODE     ---       LVL=0
      02000013H   SYMBOL    XDATA    BYTE      index
LX51 LINKER/LOCATER V4.66.87.0                                                        05/09/2018  21:28:12  PAGE 206


      010079CAH   BLOCK     CODE     NEAR LAB  LVL=1
      00000007H   SYMBOL    DATA     BYTE      i
      ---         BLOCKEND  ---      ---       LVL=1
      010079C5H   LINE      CODE     ---       #243
      010079CAH   LINE      CODE     ---       #244
      010079CAH   LINE      CODE     ---       #246
      010079CCH   LINE      CODE     ---       #247
      010079D7H   LINE      CODE     ---       #248
      ---         BLOCKEND  ---      ---       LVL=0

      01006ECAH   BLOCK     CODE     ---       LVL=0
      00000007H   SYMBOL    DATA     BYTE      from
      00000005H   SYMBOL    DATA     BYTE      to
      02000011H   SYMBOL    XDATA    BYTE      ev
      01006ECAH   LINE      CODE     ---       #251
      01006ECFH   LINE      CODE     ---       #252
      01006ECFH   LINE      CODE     ---       #253
      01006ED9H   LINE      CODE     ---       #254
      01006EE0H   LINE      CODE     ---       #255
      01006EE6H   LINE      CODE     ---       #256
      01006EEDH   LINE      CODE     ---       #257
      01006EF3H   LINE      CODE     ---       #258
      01006EF3H   LINE      CODE     ---       #259
      ---         BLOCKEND  ---      ---       LVL=0

      01004C60H   BLOCK     CODE     ---       LVL=0
      02000012H   SYMBOL    XDATA    BYTE      what
      02000013H   SYMBOL    XDATA    BYTE      ev
      01004C60H   LINE      CODE     ---       #261
      01004C68H   LINE      CODE     ---       #262
      01004C68H   LINE      CODE     ---       #263
      01004C6BH   LINE      CODE     ---       #264
      01004C73H   LINE      CODE     ---       #266
      01004C73H   LINE      CODE     ---       #268
      01004C7AH   LINE      CODE     ---       #269
      01004C82H   LINE      CODE     ---       #270
      01004C8AH   LINE      CODE     ---       #272
      01004C8AH   LINE      CODE     ---       #274
      01004C92H   LINE      CODE     ---       #275
      01004C97H   LINE      CODE     ---       #276
      01004C9FH   LINE      CODE     ---       #277
      01004CA7H   LINE      CODE     ---       #278
      01004CA7H   LINE      CODE     ---       #279
      01004CADH   LINE      CODE     ---       #280
      01004CB4H   LINE      CODE     ---       #282
      01004CB4H   LINE      CODE     ---       #284
      01004CBBH   LINE      CODE     ---       #285
      01004CC3H   LINE      CODE     ---       #286
      01004CC8H   LINE      CODE     ---       #288
      01004CC8H   LINE      CODE     ---       #289
      ---         BLOCKEND  ---      ---       LVL=0

      01007AA7H   BLOCK     CODE     ---       LVL=0
      00000007H   SYMBOL    DATA     BYTE      from
      00000005H   SYMBOL    DATA     BYTE      to
      02000011H   SYMBOL    XDATA    BYTE      ev
      01007AA7H   LINE      CODE     ---       #292
      01007AACH   LINE      CODE     ---       #293
      01007AACH   LINE      CODE     ---       #294
      01007AB6H   LINE      CODE     ---       #295
      ---         BLOCKEND  ---      ---       LVL=0

      010077C5H   BLOCK     CODE     ---       LVL=0
      00000007H   SYMBOL    DATA     BYTE      from
      00000005H   SYMBOL    DATA     BYTE      to
LX51 LINKER/LOCATER V4.66.87.0                                                        05/09/2018  21:28:12  PAGE 207


      02000011H   SYMBOL    XDATA    BYTE      ev
      010077C5H   LINE      CODE     ---       #298
      010077CBH   LINE      CODE     ---       #299
      010077CBH   LINE      CODE     ---       #300
      010077D7H   LINE      CODE     ---       #301
      ---         BLOCKEND  ---      ---       LVL=0

      010077E1H   BLOCK     CODE     ---       LVL=0
      00000007H   SYMBOL    DATA     BYTE      from
      00000005H   SYMBOL    DATA     BYTE      to
      02000011H   SYMBOL    XDATA    BYTE      ev
      010077E1H   LINE      CODE     ---       #304
      010077E7H   LINE      CODE     ---       #305
      010077E7H   LINE      CODE     ---       #306
      010077F3H   LINE      CODE     ---       #307
      ---         BLOCKEND  ---      ---       LVL=0

      010077FDH   BLOCK     CODE     ---       LVL=0
      00000007H   SYMBOL    DATA     BYTE      from
      00000005H   SYMBOL    DATA     BYTE      to
      02000011H   SYMBOL    XDATA    BYTE      ev
      010077FDH   LINE      CODE     ---       #310
      01007803H   LINE      CODE     ---       #311
      01007803H   LINE      CODE     ---       #312
      0100780FH   LINE      CODE     ---       #313
      ---         BLOCKEND  ---      ---       LVL=0

      01007819H   BLOCK     CODE     ---       LVL=0
      00000007H   SYMBOL    DATA     BYTE      from
      00000005H   SYMBOL    DATA     BYTE      to
      02000011H   SYMBOL    XDATA    BYTE      ev
      01007819H   LINE      CODE     ---       #316
      0100781FH   LINE      CODE     ---       #317
      0100781FH   LINE      CODE     ---       #318
      0100782BH   LINE      CODE     ---       #319
      ---         BLOCKEND  ---      ---       LVL=0

      01007835H   BLOCK     CODE     ---       LVL=0
      00000007H   SYMBOL    DATA     BYTE      from
      00000005H   SYMBOL    DATA     BYTE      to
      02000011H   SYMBOL    XDATA    BYTE      ev
      01007835H   LINE      CODE     ---       #322
      0100783BH   LINE      CODE     ---       #323
      0100783BH   LINE      CODE     ---       #324
      01007847H   LINE      CODE     ---       #325
      ---         BLOCKEND  ---      ---       LVL=0

      01003F27H   BLOCK     CODE     ---       LVL=0
      02000011H   SYMBOL    XDATA    BYTE      from
      00000005H   SYMBOL    DATA     BYTE      to
      02000012H   SYMBOL    XDATA    BYTE      ev
      01003F27H   LINE      CODE     ---       #328
      01003F30H   LINE      CODE     ---       #329
      01003F30H   LINE      CODE     ---       #330
      01003F3CH   LINE      CODE     ---       #333
      01003F44H   LINE      CODE     ---       #334
      01003F4EH   LINE      CODE     ---       #335
      01003F57H   LINE      CODE     ---       #336
      01003F5AH   LINE      CODE     ---       #337
      01003F5CH   LINE      CODE     ---       #338
      01003F63H   LINE      CODE     ---       #340
      01003F63H   LINE      CODE     ---       #341
      01003F63H   LINE      CODE     ---       #342
      01003F69H   LINE      CODE     ---       #344
      01003F69H   LINE      CODE     ---       #346
LX51 LINKER/LOCATER V4.66.87.0                                                        05/09/2018  21:28:12  PAGE 208


      01003F70H   LINE      CODE     ---       #347
      01003F76H   LINE      CODE     ---       #348
      01003F7CH   LINE      CODE     ---       #350
      01003F7CH   LINE      CODE     ---       #352
      01003F84H   LINE      CODE     ---       #353
      01003F89H   LINE      CODE     ---       #354
      01003F8FH   LINE      CODE     ---       #355
      01003F95H   LINE      CODE     ---       #356
      01003F95H   LINE      CODE     ---       #357
      01003F9BH   LINE      CODE     ---       #358
      01003FA2H   LINE      CODE     ---       #360
      01003FA2H   LINE      CODE     ---       #362
      01003FA9H   LINE      CODE     ---       #363
      01003FAFH   LINE      CODE     ---       #364
      01003FB4H   LINE      CODE     ---       #366
      01003FB4H   LINE      CODE     ---       #367
      ---         BLOCKEND  ---      ---       LVL=0

      ---         MODULE    ---      ---       SM_FUSE_TIMER
      0100ADB0H   PUBLIC    CONST    ---       sm_fuse_timer_ss_name
      010078F4H   PUBLIC    CODE     ---       _sm_fuse_timer_submod4
      0100700EH   PUBLIC    CODE     ---       _sm_fuse_timer_submod3
      0100320FH   PUBLIC    CODE     ---       _sm_fuse_timer_submod2
      01005713H   PUBLIC    CODE     ---       _sm_fuse_timer_submod1
      01002875H   PUBLIC    CODE     ---       _sm_fuse_timer_submod0
      01007690H   PUBLIC    CODE     ---       _sm_fuse_timer_init
      010061BBH   SYMBOL    CODE     ---       _display_timer
      0100820FH   SYMBOL    CODE     ---       inc_password
      010078D9H   SYMBOL    CODE     ---       roll_back
      01003148H   SYMBOL    CODE     ---       _check_and_set
      01006A6AH   SYMBOL    CODE     ---       display_password
      01006085H   SYMBOL    CODE     ---       _display_prearm
      010048FBH   SYMBOL    CODE     ---       verify_password

      010074AFH   BLOCK     CODE     ---       LVL=0
      ---         BLOCKEND  ---      ---       LVL=0

      01003148H   BLOCK     CODE     ---       LVL=0
      00000007H   SYMBOL    DATA     BYTE      step
      01003148H   BLOCK     CODE     NEAR LAB  LVL=1
      02000013H   SYMBOL    XDATA    BYTE      ret
      02000014H   SYMBOL    XDATA    CHAR      val
      00000007H   SYMBOL    DATA     CHAR      val1
      ---         BLOCKEND  ---      ---       LVL=1
      01003148H   LINE      CODE     ---       #66
      01003148H   LINE      CODE     ---       #67
      01003148H   LINE      CODE     ---       #68
      0100314DH   LINE      CODE     ---       #70
      01003164H   LINE      CODE     ---       #71
      01003164H   LINE      CODE     ---       #72
      01003169H   LINE      CODE     ---       #73
      0100316CH   LINE      CODE     ---       #74
      0100316CH   LINE      CODE     ---       #75
      01003171H   LINE      CODE     ---       #76
      0100317CH   LINE      CODE     ---       #77
      0100317EH   LINE      CODE     ---       #78
      0100317EH   LINE      CODE     ---       #79
      01003183H   LINE      CODE     ---       #80
      0100318FH   LINE      CODE     ---       #81
      01003191H   LINE      CODE     ---       #82
      01003191H   LINE      CODE     ---       #83
      0100319BH   LINE      CODE     ---       #84
      010031A0H   LINE      CODE     ---       #85
      010031B9H   LINE      CODE     ---       #86
      010031C9H   LINE      CODE     ---       #87
LX51 LINKER/LOCATER V4.66.87.0                                                        05/09/2018  21:28:12  PAGE 209


      010031D9H   LINE      CODE     ---       #88
      010031DFH   LINE      CODE     ---       #89
      010031E1H   LINE      CODE     ---       #90
      010031E1H   LINE      CODE     ---       #91
      010031E1H   LINE      CODE     ---       #92
      010031E6H   LINE      CODE     ---       #93
      010031E6H   LINE      CODE     ---       #94
      010031E8H   LINE      CODE     ---       #95
      010031E8H   LINE      CODE     ---       #96
      010031EBH   LINE      CODE     ---       #97
      010031EEH   LINE      CODE     ---       #98
      010031F5H   LINE      CODE     ---       #99
      010031FBH   LINE      CODE     ---       #100
      010031FDH   LINE      CODE     ---       #101
      010031FDH   LINE      CODE     ---       #102
      01003200H   LINE      CODE     ---       #103
      01003200H   LINE      CODE     ---       #104
      01003200H   LINE      CODE     ---       #105
      01003200H   LINE      CODE     ---       #106
      01003200H   LINE      CODE     ---       #107
      01003200H   LINE      CODE     ---       #108
      01003200H   LINE      CODE     ---       #109
      01003200H   LINE      CODE     ---       #110
      01003200H   LINE      CODE     ---       #111
      01003200H   LINE      CODE     ---       #112
      01003205H   LINE      CODE     ---       #113
      ---         BLOCKEND  ---      ---       LVL=0

      010078D9H   BLOCK     CODE     ---       LVL=0
      00000020H.0 SYMBOL    BIT      BIT       include_fuse
      010078D9H   LINE      CODE     ---       #115
      010078D9H   LINE      CODE     ---       #116
      010078D9H   LINE      CODE     ---       #117
      010078DEH   LINE      CODE     ---       #118
      010078E3H   LINE      CODE     ---       #119
      010078E8H   LINE      CODE     ---       #120
      010078EBH   LINE      CODE     ---       #121
      010078EEH   LINE      CODE     ---       #122
      010078F3H   LINE      CODE     ---       #123
      010078F3H   LINE      CODE     ---       #124
      ---         BLOCKEND  ---      ---       LVL=0

      01006085H   BLOCK     CODE     ---       LVL=0
      02000013H   SYMBOL    XDATA    BYTE      step
      02000014H   SYMBOL    XDATA    BYTE      err
      01006085H   LINE      CODE     ---       #126
      0100608DH   LINE      CODE     ---       #127
      0100608DH   LINE      CODE     ---       #128
      01006090H   LINE      CODE     ---       #129
      01006097H   LINE      CODE     ---       #130
      0100609EH   LINE      CODE     ---       #131
      010060A5H   LINE      CODE     ---       #132
      010060B1H   LINE      CODE     ---       #133
      010060B8H   LINE      CODE     ---       #134
      ---         BLOCKEND  ---      ---       LVL=0

      010061BBH   BLOCK     CODE     ---       LVL=0
      02000012H   SYMBOL    XDATA    BYTE      what
      010061BBH   LINE      CODE     ---       #137
      010061C0H   LINE      CODE     ---       #138
      010061C0H   LINE      CODE     ---       #139
      010061C3H   LINE      CODE     ---       #140
      010061CAH   LINE      CODE     ---       #141
      010061D1H   LINE      CODE     ---       #142
      010061D8H   LINE      CODE     ---       #143
LX51 LINKER/LOCATER V4.66.87.0                                                        05/09/2018  21:28:12  PAGE 210


      010061E2H   LINE      CODE     ---       #144
      010061E2H   LINE      CODE     ---       #145
      010061E4H   LINE      CODE     ---       #146
      010061E4H   LINE      CODE     ---       #147
      010061E4H   LINE      CODE     ---       #148
      010061E6H   LINE      CODE     ---       #149
      010061E6H   LINE      CODE     ---       #150
      010061EDH   LINE      CODE     ---       #151
      010061F2H   LINE      CODE     ---       #152
      010061F7H   LINE      CODE     ---       #153
      010061F7H   LINE      CODE     ---       #154
      010061F7H   LINE      CODE     ---       #155
      ---         BLOCKEND  ---      ---       LVL=0

      010048FBH   BLOCK     CODE     ---       LVL=0
      010048FBH   BLOCK     CODE     NEAR LAB  LVL=1
      02000013H   SYMBOL    XDATA    BYTE      res
      ---         BLOCKEND  ---      ---       LVL=1
      010048FBH   LINE      CODE     ---       #157
      010048FBH   LINE      CODE     ---       #158
      010048FBH   LINE      CODE     ---       #161
      0100490BH   LINE      CODE     ---       #163
      01004927H   LINE      CODE     ---       #165
      0100492FH   LINE      CODE     ---       #166
      0100493FH   LINE      CODE     ---       #167
      0100494EH   LINE      CODE     ---       #168
      01004950H   LINE      CODE     ---       #169
      0100496BH   LINE      CODE     ---       #170
      0100496BH   LINE      CODE     ---       #172
      ---         BLOCKEND  ---      ---       LVL=0

      01006A6AH   BLOCK     CODE     ---       LVL=0
      01006A6AH   BLOCK     CODE     NEAR LAB  LVL=1
      00000004H   SYMBOL    DATA     BYTE      i
      ---         BLOCKEND  ---      ---       LVL=1
      01006A6AH   LINE      CODE     ---       #174
      01006A6AH   LINE      CODE     ---       #175
      01006A6AH   LINE      CODE     ---       #177
      01006A6DH   LINE      CODE     ---       #178
      01006A6FH   LINE      CODE     ---       #179
      01006A79H   LINE      CODE     ---       #180
      01006A7DH   LINE      CODE     ---       #181
      01006A83H   LINE      CODE     ---       #182
      01006A8BH   LINE      CODE     ---       #183
      01006A8DH   LINE      CODE     ---       #184
      01006A94H   LINE      CODE     ---       #185
      01006A94H   LINE      CODE     ---       #186
      01006A99H   LINE      CODE     ---       #187
      ---         BLOCKEND  ---      ---       LVL=0

      0100820FH   BLOCK     CODE     ---       LVL=0
      0100820FH   LINE      CODE     ---       #189
      0100820FH   LINE      CODE     ---       #190
      0100820FH   LINE      CODE     ---       #191
      0100821CH   LINE      CODE     ---       #192
      ---         BLOCKEND  ---      ---       LVL=0

      01007690H   BLOCK     CODE     ---       LVL=0
      00000007H   SYMBOL    DATA     BYTE      from
      00000005H   SYMBOL    DATA     BYTE      to
      00000006H   SYMBOL    DATA     BYTE      ev
      01007690H   LINE      CODE     ---       #194
      01007692H   LINE      CODE     ---       #195
      01007692H   LINE      CODE     ---       #196
      0100769EH   LINE      CODE     ---       #197
LX51 LINKER/LOCATER V4.66.87.0                                                        05/09/2018  21:28:12  PAGE 211


      010076A5H   LINE      CODE     ---       #198
      010076AAH   LINE      CODE     ---       #199
      010076ACH   LINE      CODE     ---       #200
      ---         BLOCKEND  ---      ---       LVL=0

      01002875H   BLOCK     CODE     ---       LVL=0
      00000007H   SYMBOL    DATA     BYTE      from
      00000005H   SYMBOL    DATA     BYTE      to
      02000011H   SYMBOL    XDATA    BYTE      ev
      0100287AH   BLOCK     CODE     NEAR LAB  LVL=1
      02000012H   SYMBOL    XDATA    BYTE      err
      ---         BLOCKEND  ---      ---       LVL=1
      01002875H   LINE      CODE     ---       #203
      0100287AH   LINE      CODE     ---       #204
      0100287AH   LINE      CODE     ---       #206
      01002884H   LINE      CODE     ---       #208
      0100288BH   LINE      CODE     ---       #209
      0100288EH   LINE      CODE     ---       #210
      01002892H   LINE      CODE     ---       #211
      01002894H   LINE      CODE     ---       #212
      01002899H   LINE      CODE     ---       #214
      01002899H   LINE      CODE     ---       #216
      010028A4H   LINE      CODE     ---       #217
      010028AEH   LINE      CODE     ---       #218
      010028B7H   LINE      CODE     ---       #219
      010028BFH   LINE      CODE     ---       #220
      010028C5H   LINE      CODE     ---       #221
      010028C5H   LINE      CODE     ---       #222
      010028C5H   LINE      CODE     ---       #223
      010028C8H   LINE      CODE     ---       #225
      010028C8H   LINE      CODE     ---       #226
      010028CEH   LINE      CODE     ---       #227
      010028CFH   LINE      CODE     ---       #228
      010028D5H   LINE      CODE     ---       #229
      010028D6H   LINE      CODE     ---       #231
      010028D6H   LINE      CODE     ---       #233
      01002905H   LINE      CODE     ---       #235
      01002905H   LINE      CODE     ---       #236
      01002925H   LINE      CODE     ---       #237
      01002925H   LINE      CODE     ---       #238
      0100292DH   LINE      CODE     ---       #239
      01002935H   LINE      CODE     ---       #240
      0100293DH   LINE      CODE     ---       #241
      01002945H   LINE      CODE     ---       #242
      0100294DH   LINE      CODE     ---       #243
      01002955H   LINE      CODE     ---       #244
      0100295DH   LINE      CODE     ---       #245
      01002963H   LINE      CODE     ---       #246
      01002963H   LINE      CODE     ---       #247
      01002970H   LINE      CODE     ---       #248
      01002972H   LINE      CODE     ---       #249
      01002977H   LINE      CODE     ---       #250
      0100297AH   LINE      CODE     ---       #252
      0100297AH   LINE      CODE     ---       #253
      ---         BLOCKEND  ---      ---       LVL=0

      01005713H   BLOCK     CODE     ---       LVL=0
      02000011H   SYMBOL    XDATA    BYTE      from
      00000005H   SYMBOL    DATA     BYTE      to
      02000012H   SYMBOL    XDATA    BYTE      ev
      01005713H   LINE      CODE     ---       #256
      0100571BH   LINE      CODE     ---       #257
      0100571BH   LINE      CODE     ---       #258
      01005725H   LINE      CODE     ---       #260
      01005732H   LINE      CODE     ---       #261
LX51 LINKER/LOCATER V4.66.87.0                                                        05/09/2018  21:28:12  PAGE 212


      01005737H   LINE      CODE     ---       #263
      01005741H   LINE      CODE     ---       #264
      01005746H   LINE      CODE     ---       #265
      01005746H   LINE      CODE     ---       #266
      01005748H   LINE      CODE     ---       #268
      01005748H   LINE      CODE     ---       #270
      0100574FH   LINE      CODE     ---       #271
      01005752H   LINE      CODE     ---       #273
      01005752H   LINE      CODE     ---       #275
      01005759H   LINE      CODE     ---       #276
      0100575CH   LINE      CODE     ---       #277
      0100575FH   LINE      CODE     ---       #279
      0100575FH   LINE      CODE     ---       #281
      01005766H   LINE      CODE     ---       #282
      01005769H   LINE      CODE     ---       #284
      01005769H   LINE      CODE     ---       #285
      ---         BLOCKEND  ---      ---       LVL=0

      0100320FH   BLOCK     CODE     ---       LVL=0
      02000011H   SYMBOL    XDATA    BYTE      from
      00000005H   SYMBOL    DATA     BYTE      to
      02000012H   SYMBOL    XDATA    BYTE      ev
      0100320FH   LINE      CODE     ---       #288
      01003218H   LINE      CODE     ---       #289
      01003218H   LINE      CODE     ---       #290
      01003224H   LINE      CODE     ---       #291
      0100322FH   LINE      CODE     ---       #293
      01003239H   LINE      CODE     ---       #294
      0100323FH   LINE      CODE     ---       #295
      01003244H   LINE      CODE     ---       #296
      0100324BH   LINE      CODE     ---       #297
      01003250H   LINE      CODE     ---       #298
      01003250H   LINE      CODE     ---       #299
      0100325DH   LINE      CODE     ---       #301
      01003266H   LINE      CODE     ---       #302
      01003269H   LINE      CODE     ---       #303
      0100326EH   LINE      CODE     ---       #304
      01003274H   LINE      CODE     ---       #305
      01003274H   LINE      CODE     ---       #306
      01003276H   LINE      CODE     ---       #310
      01003279H   LINE      CODE     ---       #311
      01003283H   LINE      CODE     ---       #312
      0100328CH   LINE      CODE     ---       #313
      0100328FH   LINE      CODE     ---       #314
      0100329AH   LINE      CODE     ---       #315
      010032A3H   LINE      CODE     ---       #316
      010032A9H   LINE      CODE     ---       #317
      010032AAH   LINE      CODE     ---       #318
      010032B1H   LINE      CODE     ---       #319
      010032C1H   LINE      CODE     ---       #320
      010032C7H   LINE      CODE     ---       #321
      010032C7H   LINE      CODE     ---       #322
      010032C7H   LINE      CODE     ---       #323
      010032C8H   LINE      CODE     ---       #325
      010032C8H   LINE      CODE     ---       #327
      010032CFH   LINE      CODE     ---       #328
      010032D2H   LINE      CODE     ---       #329
      010032D5H   LINE      CODE     ---       #331
      010032D5H   LINE      CODE     ---       #333
      ---         BLOCKEND  ---      ---       LVL=0

      0100700EH   BLOCK     CODE     ---       LVL=0
      00000007H   SYMBOL    DATA     BYTE      from
      00000005H   SYMBOL    DATA     BYTE      to
      02000011H   SYMBOL    XDATA    BYTE      ev
LX51 LINKER/LOCATER V4.66.87.0                                                        05/09/2018  21:28:12  PAGE 213


      0100700EH   LINE      CODE     ---       #336
      01007014H   LINE      CODE     ---       #337
      01007014H   LINE      CODE     ---       #338
      01007020H   LINE      CODE     ---       #340
      01007027H   LINE      CODE     ---       #341
      0100702CH   LINE      CODE     ---       #342
      0100702FH   LINE      CODE     ---       #343
      01007034H   LINE      CODE     ---       #345
      01007034H   LINE      CODE     ---       #347
      ---         BLOCKEND  ---      ---       LVL=0

      010078F4H   BLOCK     CODE     ---       LVL=0
      00000007H   SYMBOL    DATA     BYTE      from
      00000005H   SYMBOL    DATA     BYTE      to
      00000006H   SYMBOL    DATA     BYTE      ev
      010078F4H   LINE      CODE     ---       #350
      010078F6H   LINE      CODE     ---       #351
      010078F6H   LINE      CODE     ---       #352
      01007902H   LINE      CODE     ---       #353
      01007907H   LINE      CODE     ---       #354
      0100790AH   LINE      CODE     ---       #355
      ---         BLOCKEND  ---      ---       LVL=0

      ---         MODULE    ---      ---       SM_FUSE_DETONATE
      0100C3DFH   PUBLIC    CONST    ---       sm_fuse_detonate_ss_name
      01006478H   PUBLIC    CODE     ---       _sm_fuse_detonate_submod0
      0100727EH   PUBLIC    CODE     ---       _sm_fuse_detonate_init
      01007C09H   SYMBOL    CODE     ---       display_detonate

      01008155H   BLOCK     CODE     ---       LVL=0
      ---         BLOCKEND  ---      ---       LVL=0

      01007C09H   BLOCK     CODE     ---       LVL=0
      01007C09H   BLOCK     CODE     NEAR LAB  LVL=1
      00000004H   SYMBOL    DATA     BYTE      i
      ---         BLOCKEND  ---      ---       LVL=1
      01007C09H   LINE      CODE     ---       #17
      01007C09H   LINE      CODE     ---       #18
      01007C09H   LINE      CODE     ---       #20
      01007C0CH   LINE      CODE     ---       #21
      01007C0EH   LINE      CODE     ---       #22
      01007C15H   LINE      CODE     ---       #23
      01007C1AH   LINE      CODE     ---       #24
      01007C1FH   LINE      CODE     ---       #25
      ---         BLOCKEND  ---      ---       LVL=0

      0100727EH   BLOCK     CODE     ---       LVL=0
      00000007H   SYMBOL    DATA     BYTE      from
      00000005H   SYMBOL    DATA     BYTE      to
      02000011H   SYMBOL    XDATA    BYTE      ev
      0100727EH   LINE      CODE     ---       #27
      01007283H   LINE      CODE     ---       #28
      01007283H   LINE      CODE     ---       #29
      0100728DH   LINE      CODE     ---       #30
      01007293H   LINE      CODE     ---       #31
      01007296H   LINE      CODE     ---       #32
      0100729BH   LINE      CODE     ---       #33
      010072A0H   LINE      CODE     ---       #34
      010072A0H   LINE      CODE     ---       #35
      ---         BLOCKEND  ---      ---       LVL=0

      01006478H   BLOCK     CODE     ---       LVL=0
      00000007H   SYMBOL    DATA     BYTE      from
      00000005H   SYMBOL    DATA     BYTE      to
      02000011H   SYMBOL    XDATA    BYTE      ev
LX51 LINKER/LOCATER V4.66.87.0                                                        05/09/2018  21:28:12  PAGE 214


      01006478H   LINE      CODE     ---       #38
      0100647DH   LINE      CODE     ---       #39
      0100647DH   LINE      CODE     ---       #40
      01006487H   LINE      CODE     ---       #41
      01006494H   LINE      CODE     ---       #42
      0100649AH   LINE      CODE     ---       #43
      010064A0H   LINE      CODE     ---       #44
      010064A5H   LINE      CODE     ---       #45
      010064AAH   LINE      CODE     ---       #46
      010064B0H   LINE      CODE     ---       #47
      010064B0H   LINE      CODE     ---       #48
      010064B0H   LINE      CODE     ---       #49
      ---         BLOCKEND  ---      ---       LVL=0

      ---         MODULE    ---      ---       SM_FUSE_POWERSAVE
      0100C06EH   PUBLIC    CONST    ---       sm_fuse_powersave_ss_name
      01007E5BH   PUBLIC    CODE     ---       _sm_fuse_powersave_submod1
      0100754CH   PUBLIC    CODE     ---       _sm_fuse_powersave_submod0
      010083A0H   PUBLIC    CODE     ---       _sm_fuse_powersave_init
      01007FE3H   SYMBOL    CODE     ---       roll_back

      010080DCH   BLOCK     CODE     ---       LVL=0
      ---         BLOCKEND  ---      ---       LVL=0

      01007FE3H   BLOCK     CODE     ---       LVL=0
      01007FE3H   LINE      CODE     ---       #18
      01007FE3H   LINE      CODE     ---       #19
      01007FE3H   LINE      CODE     ---       #20
      01007FE8H   LINE      CODE     ---       #21
      01007FEDH   LINE      CODE     ---       #22
      01007FF2H   LINE      CODE     ---       #23
      ---         BLOCKEND  ---      ---       LVL=0

      010083A0H   BLOCK     CODE     ---       LVL=0
      00000007H   SYMBOL    DATA     BYTE      from
      00000005H   SYMBOL    DATA     BYTE      to
      00000006H   SYMBOL    DATA     BYTE      ev
      010083A0H   LINE      CODE     ---       #26
      010083A0H   LINE      CODE     ---       #27
      010083A0H   LINE      CODE     ---       #28
      ---         BLOCKEND  ---      ---       LVL=0

      0100754CH   BLOCK     CODE     ---       LVL=0
      00000007H   SYMBOL    DATA     BYTE      from
      00000005H   SYMBOL    DATA     BYTE      to
      02000011H   SYMBOL    XDATA    BYTE      ev
      0100754CH   LINE      CODE     ---       #31
      01007552H   LINE      CODE     ---       #32
      01007552H   LINE      CODE     ---       #33
      0100755EH   LINE      CODE     ---       #34
      01007564H   LINE      CODE     ---       #36
      01007567H   LINE      CODE     ---       #37
      0100756AH   LINE      CODE     ---       #39
      0100756AH   LINE      CODE     ---       #40
      ---         BLOCKEND  ---      ---       LVL=0

      01007E5BH   BLOCK     CODE     ---       LVL=0
      00000007H   SYMBOL    DATA     BYTE      from
      00000005H   SYMBOL    DATA     BYTE      to
      00000006H   SYMBOL    DATA     BYTE      ev
      01007E5BH   LINE      CODE     ---       #42
      01007E5BH   LINE      CODE     ---       #43
      01007E5BH   LINE      CODE     ---       #44
      01007E65H   LINE      CODE     ---       #45
      01007E68H   LINE      CODE     ---       #46
LX51 LINKER/LOCATER V4.66.87.0                                                        05/09/2018  21:28:12  PAGE 215


      01007E6EH   LINE      CODE     ---       #47
      ---         BLOCKEND  ---      ---       LVL=0

      ---         MODULE    ---      ---       SM_GLOBAL_FLAG_MOD
      0100BBEDH   PUBLIC    CONST    ---       sm_global_flag_mod_ss_name
      01007851H   PUBLIC    CODE     ---       _sm_global_flag_mod_submod2
      01007AD9H   PUBLIC    CODE     ---       _sm_global_flag_mod_submod1
      01007AC0H   PUBLIC    CODE     ---       _sm_global_flag_mod_submod0
      01007DA6H   PUBLIC    CODE     ---       _sm_global_flag_mod_init
      0100576AH   SYMBOL    CODE     ---       _inc_write
      01002C4AH   SYMBOL    CODE     ---       _display_global_flag
      01006EF4H   SYMBOL    CODE     ---       _sm_global_flag_mod

      01008164H   BLOCK     CODE     ---       LVL=0
      ---         BLOCKEND  ---      ---       LVL=0

      01002C4AH   BLOCK     CODE     ---       LVL=0
      02000014H   SYMBOL    XDATA    BYTE      what
      01002C4AH   LINE      CODE     ---       #20
      01002C4FH   LINE      CODE     ---       #21
      01002C4FH   LINE      CODE     ---       #23
      01002C52H   LINE      CODE     ---       #25
      01002C63H   LINE      CODE     ---       #27
      01002C78H   LINE      CODE     ---       #28
      01002C78H   LINE      CODE     ---       #29
      01002C7FH   LINE      CODE     ---       #30
      01002C86H   LINE      CODE     ---       #31
      01002C8CH   LINE      CODE     ---       #32
      01002C93H   LINE      CODE     ---       #33
      01002C9AH   LINE      CODE     ---       #34
      01002C9AH   LINE      CODE     ---       #35
      01002C9DH   LINE      CODE     ---       #36
      01002CADH   LINE      CODE     ---       #37
      01002CBAH   LINE      CODE     ---       #38
      01002CBAH   LINE      CODE     ---       #39
      01002CBCH   LINE      CODE     ---       #40
      01002CBCH   LINE      CODE     ---       #41
      01002CC3H   LINE      CODE     ---       #42
      01002CCAH   LINE      CODE     ---       #43
      01002CD1H   LINE      CODE     ---       #44
      01002CD6H   LINE      CODE     ---       #45
      01002CDDH   LINE      CODE     ---       #46
      01002CE4H   LINE      CODE     ---       #47
      01002CE5H   LINE      CODE     ---       #48
      01002CE7H   LINE      CODE     ---       #49
      01002CEEH   LINE      CODE     ---       #50
      01002CF5H   LINE      CODE     ---       #51
      01002CF5H   LINE      CODE     ---       #52
      01002CF5H   LINE      CODE     ---       #53
      01002CF7H   LINE      CODE     ---       #54
      01002CF7H   LINE      CODE     ---       #55
      01002CFEH   LINE      CODE     ---       #56
      01002D05H   LINE      CODE     ---       #57
      01002D0CH   LINE      CODE     ---       #58
      01002D11H   LINE      CODE     ---       #59
      01002D18H   LINE      CODE     ---       #60
      01002D1AH   LINE      CODE     ---       #61
      01002D1CH   LINE      CODE     ---       #62
      01002D23H   LINE      CODE     ---       #63
      01002D29H   LINE      CODE     ---       #64
      01002D29H   LINE      CODE     ---       #65
      01002D29H   LINE      CODE     ---       #66
      01002D29H   LINE      CODE     ---       #67
      ---         BLOCKEND  ---      ---       LVL=0

LX51 LINKER/LOCATER V4.66.87.0                                                        05/09/2018  21:28:12  PAGE 216


      0100576AH   BLOCK     CODE     ---       LVL=0
      00000007H   SYMBOL    DATA     BYTE      what
      0100576AH   LINE      CODE     ---       #69
      0100576AH   LINE      CODE     ---       #70
      0100576AH   LINE      CODE     ---       #71
      01005776H   LINE      CODE     ---       #72
      01005776H   LINE      CODE     ---       #73
      01005779H   LINE      CODE     ---       #74
      01005780H   LINE      CODE     ---       #75
      01005782H   LINE      CODE     ---       #76
      01005782H   LINE      CODE     ---       #77
      0100578BH   LINE      CODE     ---       #78
      01005796H   LINE      CODE     ---       #79
      01005798H   LINE      CODE     ---       #80
      01005798H   LINE      CODE     ---       #81
      010057A1H   LINE      CODE     ---       #82
      010057A6H   LINE      CODE     ---       #83
      010057AFH   LINE      CODE     ---       #84
      010057B2H   LINE      CODE     ---       #85
      010057C0H   LINE      CODE     ---       #86
      010057C0H   LINE      CODE     ---       #87
      010057C0H   LINE      CODE     ---       #88
      ---         BLOCKEND  ---      ---       LVL=0

      01007DA6H   BLOCK     CODE     ---       LVL=0
      00000007H   SYMBOL    DATA     BYTE      from
      00000005H   SYMBOL    DATA     BYTE      to
      00000006H   SYMBOL    DATA     BYTE      ev
      01007DA6H   LINE      CODE     ---       #90
      01007DA8H   LINE      CODE     ---       #91
      01007DA8H   LINE      CODE     ---       #92
      01007DB4H   LINE      CODE     ---       #93
      ---         BLOCKEND  ---      ---       LVL=0

      01006EF4H   BLOCK     CODE     ---       LVL=0
      02000012H   SYMBOL    XDATA    BYTE      what
      02000013H   SYMBOL    XDATA    BYTE      ev
      01006EF4H   LINE      CODE     ---       #96
      01006EFCH   LINE      CODE     ---       #97
      01006EFCH   LINE      CODE     ---       #98
      01006F04H   LINE      CODE     ---       #99
      01006F06H   LINE      CODE     ---       #101
      01006F06H   LINE      CODE     ---       #103
      01006F0DH   LINE      CODE     ---       #104
      01006F15H   LINE      CODE     ---       #105
      01006F1DH   LINE      CODE     ---       #107
      01006F1DH   LINE      CODE     ---       #108
      ---         BLOCKEND  ---      ---       LVL=0

      01007AC0H   BLOCK     CODE     ---       LVL=0
      00000007H   SYMBOL    DATA     BYTE      from
      00000005H   SYMBOL    DATA     BYTE      to
      02000011H   SYMBOL    XDATA    BYTE      ev
      01007AC0H   LINE      CODE     ---       #110
      01007AC5H   LINE      CODE     ---       #111
      01007AC5H   LINE      CODE     ---       #112
      01007ACFH   LINE      CODE     ---       #113
      ---         BLOCKEND  ---      ---       LVL=0

      01007AD9H   BLOCK     CODE     ---       LVL=0
      00000007H   SYMBOL    DATA     BYTE      from
      00000005H   SYMBOL    DATA     BYTE      to
      02000011H   SYMBOL    XDATA    BYTE      ev
      01007AD9H   LINE      CODE     ---       #116
      01007ADEH   LINE      CODE     ---       #117
LX51 LINKER/LOCATER V4.66.87.0                                                        05/09/2018  21:28:12  PAGE 217


      01007ADEH   LINE      CODE     ---       #118
      01007AE8H   LINE      CODE     ---       #119
      ---         BLOCKEND  ---      ---       LVL=0

      01007851H   BLOCK     CODE     ---       LVL=0
      00000007H   SYMBOL    DATA     BYTE      from
      00000005H   SYMBOL    DATA     BYTE      to
      02000011H   SYMBOL    XDATA    BYTE      ev
      01007851H   LINE      CODE     ---       #122
      01007857H   LINE      CODE     ---       #123
      01007857H   LINE      CODE     ---       #124
      01007863H   LINE      CODE     ---       #125
      ---         BLOCKEND  ---      ---       LVL=0

      ---         MODULE    ---      ---       CMD_HELP
      010058BEH   PUBLIC    CODE     ---       _cmd_help

      01007E6FH   BLOCK     CODE     ---       LVL=0
      ---         BLOCKEND  ---      ---       LVL=0

      010058BEH   BLOCK     CODE     ---       LVL=0
      02000008H   SYMBOL    XDATA    CHAR      arg1
      02000009H   SYMBOL    XDATA    CHAR      arg2
      010058C3H   BLOCK     CODE     NEAR LAB  LVL=1
      00000007H   SYMBOL    DATA     CHAR      i
      ---         BLOCKEND  ---      ---       LVL=1
      010058BEH   LINE      CODE     ---       #6
      010058C3H   LINE      CODE     ---       #7
      010058C3H   LINE      CODE     ---       #10
      010058C3H   LINE      CODE     ---       #12
      010058C5H   LINE      CODE     ---       #13
      010058C8H   LINE      CODE     ---       #14
      010058CAH   LINE      CODE     ---       #15
      010058D0H   LINE      CODE     ---       #16
      010058D4H   LINE      CODE     ---       #17
      010058FBH   LINE      CODE     ---       #18
      010058FDH   LINE      CODE     ---       #19
      0100590FH   LINE      CODE     ---       #20
      0100590FH   LINE      CODE     ---       #21
      0100590FH   LINE      CODE     ---       #22
      01005911H   LINE      CODE     ---       #23
      ---         BLOCKEND  ---      ---       LVL=0

      ---         MODULE    ---      ---       CMD_SERIAL
      01003938H   PUBLIC    CODE     ---       _cmd_serial

      01008331H   BLOCK     CODE     ---       LVL=0
      ---         BLOCKEND  ---      ---       LVL=0

      01003938H   BLOCK     CODE     ---       LVL=0
      02000008H   SYMBOL    XDATA    CHAR      arg1
      02000009H   SYMBOL    XDATA    CHAR      arg2
      01003942H   BLOCK     CODE     NEAR LAB  LVL=1
      0200000AH   SYMBOL    XDATA    CHAR      index
      0200000BH   SYMBOL    XDATA    CHAR      val
      ---         BLOCKEND  ---      ---       LVL=1
      01003938H   LINE      CODE     ---       #8
      01003942H   LINE      CODE     ---       #9
      01003942H   LINE      CODE     ---       #12
      01003944H   LINE      CODE     ---       #13
      01003947H   LINE      CODE     ---       #14
      01003949H   LINE      CODE     ---       #15
      01003954H   LINE      CODE     ---       #16
      0100395AH   LINE      CODE     ---       #17
      01003975H   LINE      CODE     ---       #18
LX51 LINKER/LOCATER V4.66.87.0                                                        05/09/2018  21:28:12  PAGE 218


      01003977H   LINE      CODE     ---       #19
      0100398AH   LINE      CODE     ---       #20
      010039B6H   LINE      CODE     ---       #21
      010039C4H   LINE      CODE     ---       #22
      010039C7H   LINE      CODE     ---       #23
      010039C7H   LINE      CODE     ---       #24
      010039C7H   LINE      CODE     ---       #25
      010039C9H   LINE      CODE     ---       #26
      ---         BLOCKEND  ---      ---       LVL=0

      ---         MODULE    ---      ---       CMD_INT
      010064B1H   PUBLIC    CODE     ---       _cmd_int

      010064B1H   BLOCK     CODE     ---       LVL=0
      02000008H   SYMBOL    XDATA    CHAR      arg1
      02000009H   SYMBOL    XDATA    CHAR      arg2
      010064B6H   BLOCK     CODE     NEAR LAB  LVL=1
      00000006H   SYMBOL    DATA     WORD      status
      ---         BLOCKEND  ---      ---       LVL=1
      010064B1H   LINE      CODE     ---       #7
      010064B6H   LINE      CODE     ---       #8
      010064B6H   LINE      CODE     ---       #11
      010064B6H   LINE      CODE     ---       #13
      010064B8H   LINE      CODE     ---       #14
      010064BBH   LINE      CODE     ---       #15
      010064DCH   LINE      CODE     ---       #16
      010064DFH   LINE      CODE     ---       #17
      010064E2H   LINE      CODE     ---       #18
      010064E4H   LINE      CODE     ---       #19
      010064E7H   LINE      CODE     ---       #20
      010064E7H   LINE      CODE     ---       #22
      010064E9H   LINE      CODE     ---       #23
      ---         BLOCKEND  ---      ---       LVL=0

      ---         MODULE    ---      ---       CMD_I2C
      010068E1H   PUBLIC    CODE     ---       _cmd_i2c
      010032D6H   SYMBOL    CODE     ---       _i2c_write
      020000D4H   SYMBOL    XDATA    BYTE      write_addr
      010040CCH   SYMBOL    CODE     ---       _i2c_read

      010073AEH   BLOCK     CODE     ---       LVL=0
      ---         BLOCKEND  ---      ---       LVL=0

      010040CCH   BLOCK     CODE     ---       LVL=0
      00000007H   SYMBOL    DATA     CHAR      arg1
      0200000AH   SYMBOL    XDATA    CHAR      arg2
      010040D1H   BLOCK     CODE     NEAR LAB  LVL=1
      0200000BH   SYMBOL    XDATA    BYTE      addr
      0200000CH   SYMBOL    XDATA    BYTE      cmd
      0200000DH   SYMBOL    XDATA    BYTE      val
      00000020H.0 SYMBOL    BIT      BIT       ret
      ---         BLOCKEND  ---      ---       LVL=1
      010040CCH   LINE      CODE     ---       #10
      010040D1H   LINE      CODE     ---       #11
      010040D1H   LINE      CODE     ---       #15
      010040D7H   LINE      CODE     ---       #16
      010040DAH   LINE      CODE     ---       #18
      010040E6H   LINE      CODE     ---       #19
      010040F4H   LINE      CODE     ---       #21
      01004103H   LINE      CODE     ---       #22
      01004106H   LINE      CODE     ---       #24
      01004109H   LINE      CODE     ---       #25
      0100411CH   LINE      CODE     ---       #27
      01004152H   LINE      CODE     ---       #29
      01004154H   LINE      CODE     ---       #30
LX51 LINKER/LOCATER V4.66.87.0                                                        05/09/2018  21:28:12  PAGE 219


      ---         BLOCKEND  ---      ---       LVL=0

      010032D6H   BLOCK     CODE     ---       LVL=0
      0200000AH   SYMBOL    XDATA    CHAR      arg1
      0200000BH   SYMBOL    XDATA    CHAR      arg2
      010032E0H   BLOCK     CODE     NEAR LAB  LVL=1
      0200000CH   SYMBOL    XDATA    BYTE      addr
      0200000DH   SYMBOL    XDATA    BYTE      cmd
      0200000EH   SYMBOL    XDATA    BYTE      val
      00000020H.0 SYMBOL    BIT      BIT       ret
      ---         BLOCKEND  ---      ---       LVL=1
      010032D6H   LINE      CODE     ---       #32
      010032E0H   LINE      CODE     ---       #33
      010032E0H   LINE      CODE     ---       #37
      010032E2H   LINE      CODE     ---       #38
      010032E5H   LINE      CODE     ---       #41
      010032EBH   LINE      CODE     ---       #42
      010032F6H   LINE      CODE     ---       #43
      010032FBH   LINE      CODE     ---       #44
      010032FEH   LINE      CODE     ---       #45
      010032FEH   LINE      CODE     ---       #46
      01003317H   LINE      CODE     ---       #47
      0100331FH   LINE      CODE     ---       #48
      01003322H   LINE      CODE     ---       #49
      01003322H   LINE      CODE     ---       #50
      01003322H   LINE      CODE     ---       #53
      0100332DH   LINE      CODE     ---       #54
      0100333BH   LINE      CODE     ---       #56
      0100334AH   LINE      CODE     ---       #57
      0100334DH   LINE      CODE     ---       #59
      01003350H   LINE      CODE     ---       #60
      01003362H   LINE      CODE     ---       #61
      01003398H   LINE      CODE     ---       #63
      0100339AH   LINE      CODE     ---       #64
      ---         BLOCKEND  ---      ---       LVL=0

      010068E1H   BLOCK     CODE     ---       LVL=0
      02000008H   SYMBOL    XDATA    CHAR      arg1
      02000009H   SYMBOL    XDATA    CHAR      arg2
      010068E1H   LINE      CODE     ---       #66
      010068E9H   LINE      CODE     ---       #67
      010068E9H   LINE      CODE     ---       #68
      010068F2H   LINE      CODE     ---       #69
      010068FDH   LINE      CODE     ---       #70
      01006906H   LINE      CODE     ---       #71
      01006911H   LINE      CODE     ---       #72
      01006911H   LINE      CODE     ---       #73
      01006913H   LINE      CODE     ---       #74
      ---         BLOCKEND  ---      ---       LVL=0

      ---         MODULE    ---      ---       CMD_DBG
      01005DEEH   PUBLIC    CODE     ---       _cmd_dbg

      01007B22H   BLOCK     CODE     ---       LVL=0
      ---         BLOCKEND  ---      ---       LVL=0

      01005DEEH   BLOCK     CODE     ---       LVL=0
      02000008H   SYMBOL    XDATA    CHAR      arg1
      02000009H   SYMBOL    XDATA    CHAR      arg2
      01005DEEH   LINE      CODE     ---       #8
      01005DF3H   LINE      CODE     ---       #9
      01005DF3H   LINE      CODE     ---       #11
      01005DF3H   LINE      CODE     ---       #13
      01005DF5H   LINE      CODE     ---       #14
      01005DF8H   LINE      CODE     ---       #16
LX51 LINKER/LOCATER V4.66.87.0                                                        05/09/2018  21:28:12  PAGE 220


      01005E05H   LINE      CODE     ---       #17
      01005E0EH   LINE      CODE     ---       #18
      01005E10H   LINE      CODE     ---       #19
      01005E1FH   LINE      CODE     ---       #20
      01005E28H   LINE      CODE     ---       #21
      01005E2DH   LINE      CODE     ---       #22
      01005E2FH   LINE      CODE     ---       #23
      01005E32H   LINE      CODE     ---       #24
      01005E32H   LINE      CODE     ---       #26
      01005E34H   LINE      CODE     ---       #27
      ---         BLOCKEND  ---      ---       LVL=0

      ---         MODULE    ---      ---       CMD_REBOOT
      01005EBEH   PUBLIC    CODE     ---       _cmd_reboot
      00000080H   SFRSYM    DATA     BYTE      P0
      00000090H   SFRSYM    DATA     BYTE      P1
      000000A0H   SFRSYM    DATA     BYTE      P2
      000000B0H   SFRSYM    DATA     BYTE      P3
      000000C0H   SFRSYM    DATA     BYTE      XICON
      000000B0H.4 SFRSYM    DATA     BIT       T0
      000000D0H.6 SFRSYM    DATA     BIT       AC
      000000E8H   SFRSYM    DATA     BYTE      P4
      000000B0H.5 SFRSYM    DATA     BIT       T1
      000000E6H   SFRSYM    DATA     BYTE      ISP_TRIG
      00000090H.0 SFRSYM    DATA     BIT       T2
      000000A8H.7 SFRSYM    DATA     BIT       EA
      000000A8H.6 SFRSYM    DATA     BIT       EC
      00000098H.7 SFRSYM    DATA     BIT       FE
      000000A8H   SFRSYM    DATA     BYTE      IE
      000000C8H.6 SFRSYM    DATA     BIT       EXF2
      000000B0H.7 SFRSYM    DATA     BIT       RD
      000000A8H.4 SFRSYM    DATA     BIT       ES
      000000B8H   SFRSYM    DATA     BYTE      IP
      00000098H.0 SFRSYM    DATA     BIT       RI
      000000B0H.2 SFRSYM    DATA     BIT       INT0
      000000D0H.7 SFRSYM    DATA     BIT       CY
      00000098H.1 SFRSYM    DATA     BIT       TI
      000000B0H.3 SFRSYM    DATA     BIT       INT1
      000000CBH   SFRSYM    DATA     BYTE      RCAP2H
      000000E5H   SFRSYM    DATA     BYTE      ISP_CMD
      000000B8H.4 SFRSYM    DATA     BIT       PS
      00000081H   SFRSYM    DATA     BYTE      SP
      00000090H.1 SFRSYM    DATA     BIT       T2EX
      000000D0H.2 SFRSYM    DATA     BIT       OV
      000000CAH   SFRSYM    DATA     BYTE      RCAP2L
      000000C8H.1 SFRSYM    DATA     BIT       C_T2
      000000B0H.6 SFRSYM    DATA     BIT       WR
      000000C8H.5 SFRSYM    DATA     BIT       RCLK
      000000C8H.4 SFRSYM    DATA     BIT       TCLK
      00000080H.0 SFRSYM    DATA     BIT       P00
      00000099H   SFRSYM    DATA     BYTE      SBUF
      00000087H   SFRSYM    DATA     BYTE      PCON
      00000090H.0 SFRSYM    DATA     BIT       P10
      00000080H.1 SFRSYM    DATA     BIT       P01
      000000A0H.0 SFRSYM    DATA     BIT       P20
      00000090H.1 SFRSYM    DATA     BIT       P11
      00000080H.2 SFRSYM    DATA     BIT       P02
      000000E3H   SFRSYM    DATA     BYTE      ISP_ADDRH
      000000B0H.0 SFRSYM    DATA     BIT       P30
      000000A0H.1 SFRSYM    DATA     BIT       P21
      00000090H.2 SFRSYM    DATA     BIT       P12
      00000080H.3 SFRSYM    DATA     BIT       P03
      00000098H   SFRSYM    DATA     BYTE      SCON
      000000B0H.1 SFRSYM    DATA     BIT       P31
      000000A0H.2 SFRSYM    DATA     BIT       P22
LX51 LINKER/LOCATER V4.66.87.0                                                        05/09/2018  21:28:12  PAGE 221


      00000090H.3 SFRSYM    DATA     BIT       P13
      00000080H.4 SFRSYM    DATA     BIT       P04
      000000E8H.0 SFRSYM    DATA     BIT       P40
      00000089H   SFRSYM    DATA     BYTE      TMOD
      00000088H   SFRSYM    DATA     BYTE      TCON
      000000B0H.2 SFRSYM    DATA     BIT       P32
      000000A0H.3 SFRSYM    DATA     BIT       P23
      00000090H.4 SFRSYM    DATA     BIT       P14
      00000080H.5 SFRSYM    DATA     BIT       P05
      000000E8H.1 SFRSYM    DATA     BIT       P41
      000000B0H.3 SFRSYM    DATA     BIT       P33
      000000A0H.4 SFRSYM    DATA     BIT       P24
      00000090H.5 SFRSYM    DATA     BIT       P15
      00000080H.6 SFRSYM    DATA     BIT       P06
      000000E4H   SFRSYM    DATA     BYTE      ISP_ADDRL
      000000E8H.2 SFRSYM    DATA     BIT       P42
      000000B0H.4 SFRSYM    DATA     BIT       P34
      000000A0H.5 SFRSYM    DATA     BIT       P25
      00000090H.6 SFRSYM    DATA     BIT       P16
      00000080H.7 SFRSYM    DATA     BIT       P07
      000000E8H.3 SFRSYM    DATA     BIT       P43
      000000B0H.5 SFRSYM    DATA     BIT       P35
      000000A0H.6 SFRSYM    DATA     BIT       P26
      00000090H.7 SFRSYM    DATA     BIT       P17
      000000E8H.4 SFRSYM    DATA     BIT       P44
      000000B0H.6 SFRSYM    DATA     BIT       P36
      000000A0H.7 SFRSYM    DATA     BIT       P27
      000000E8H.5 SFRSYM    DATA     BIT       P45
      000000B0H.7 SFRSYM    DATA     BIT       P37
      000000E8H.6 SFRSYM    DATA     BIT       P46
      00000088H.1 SFRSYM    DATA     BIT       IE0
      00000088H.3 SFRSYM    DATA     BIT       IE1
      0000008EH   SFRSYM    DATA     BYTE      AUXR
      000000F0H   SFRSYM    DATA     BYTE      B
      000000C8H.0 SFRSYM    DATA     BIT       CP_RL2
      000000E0H   SFRSYM    DATA     BYTE      ACC
      000000A8H.1 SFRSYM    DATA     BIT       ET0
      000000A8H.3 SFRSYM    DATA     BIT       ET1
      00000088H.5 SFRSYM    DATA     BIT       TF0
      000000A8H.5 SFRSYM    DATA     BIT       ET2
      00000088H.7 SFRSYM    DATA     BIT       TF1
      000000C8H.7 SFRSYM    DATA     BIT       TF2
      00000098H.2 SFRSYM    DATA     BIT       RB8
      0000008CH   SFRSYM    DATA     BYTE      TH0
      000000A8H.0 SFRSYM    DATA     BIT       EX0
      00000088H.0 SFRSYM    DATA     BIT       IT0
      0000008DH   SFRSYM    DATA     BYTE      TH1
      00000098H.3 SFRSYM    DATA     BIT       TB8
      000000A8H.2 SFRSYM    DATA     BIT       EX1
      00000088H.2 SFRSYM    DATA     BIT       IT1
      000000CDH   SFRSYM    DATA     BYTE      TH2
      000000D0H.0 SFRSYM    DATA     BIT       P
      00000098H.7 SFRSYM    DATA     BIT       SM0
      0000008AH   SFRSYM    DATA     BYTE      TL0
      00000098H.6 SFRSYM    DATA     BIT       SM1
      0000008BH   SFRSYM    DATA     BYTE      TL1
      00000098H.5 SFRSYM    DATA     BIT       SM2
      000000CCH   SFRSYM    DATA     BYTE      TL2
      000000B8H.1 SFRSYM    DATA     BIT       PT0
      000000B8H.3 SFRSYM    DATA     BIT       PT1
      000000D0H.3 SFRSYM    DATA     BIT       RS0
      000000E7H   SFRSYM    DATA     BYTE      ISP_CONTR
      000000B8H.5 SFRSYM    DATA     BIT       PT2
      00000088H.4 SFRSYM    DATA     BIT       TR0
      000000D0H.4 SFRSYM    DATA     BIT       RS1
LX51 LINKER/LOCATER V4.66.87.0                                                        05/09/2018  21:28:12  PAGE 222


      00000088H.6 SFRSYM    DATA     BIT       TR1
      000000C8H.2 SFRSYM    DATA     BIT       TR2
      000000B8H.0 SFRSYM    DATA     BIT       PX0
      000000E1H   SFRSYM    DATA     BYTE      WDT_CONTR
      000000B8H.2 SFRSYM    DATA     BIT       PX1
      00000083H   SFRSYM    DATA     BYTE      DPH
      00000082H   SFRSYM    DATA     BYTE      DPL
      000000B7H   SFRSYM    DATA     BYTE      IPH
      000000C8H.3 SFRSYM    DATA     BIT       EXEN2
      00000098H.4 SFRSYM    DATA     BIT       REN
      000000C9H   SFRSYM    DATA     BYTE      T2MOD
      000000C8H   SFRSYM    DATA     BYTE      T2CON
      000000E2H   SFRSYM    DATA     BYTE      ISP_DATA
      000000B9H   SFRSYM    DATA     BYTE      SADEN
      000000B0H.0 SFRSYM    DATA     BIT       RXD
      000000A9H   SFRSYM    DATA     BYTE      SADDR
      000000B0H.1 SFRSYM    DATA     BIT       TXD
      000000A2H   SFRSYM    DATA     BYTE      AUXR1
      000000D0H.5 SFRSYM    DATA     BIT       F0
      000000D0H   SFRSYM    DATA     BYTE      PSW

      01005EBEH   BLOCK     CODE     ---       LVL=0
      02000008H   SYMBOL    XDATA    CHAR      arg1
      02000009H   SYMBOL    XDATA    CHAR      arg2
      01005EC3H   BLOCK     CODE     NEAR LAB  LVL=1
      00000006H   SYMBOL    DATA     ---       fuck
      ---         BLOCKEND  ---      ---       LVL=1
      01005EBEH   LINE      CODE     ---       #9
      01005EC3H   LINE      CODE     ---       #10
      01005EC3H   LINE      CODE     ---       #13
      01005EC3H   LINE      CODE     ---       #15
      01005EC5H   LINE      CODE     ---       #17
      01005EC7H   LINE      CODE     ---       #18
      01005ECFH   LINE      CODE     ---       #23
      01005ED2H   LINE      CODE     ---       #24
      01005EF3H   LINE      CODE     ---       #26
      01005EFCH   LINE      CODE     ---       #27
      01005EFFH   LINE      CODE     ---       #32
      01005EFFH   LINE      CODE     ---       #33
      01005F01H   LINE      CODE     ---       #34
      ---         BLOCKEND  ---      ---       LVL=0

      ---         MODULE    ---      ---       CMD_TASK
      0100345AH   PUBLIC    CODE     ---       _cmd_task

      01008173H   BLOCK     CODE     ---       LVL=0
      ---         BLOCKEND  ---      ---       LVL=0

      0100345AH   BLOCK     CODE     ---       LVL=0
      02000008H   SYMBOL    XDATA    CHAR      arg1
      02000009H   SYMBOL    XDATA    CHAR      arg2
      01003464H   BLOCK     CODE     NEAR LAB  LVL=1
      0200000AH   SYMBOL    XDATA    BYTE      tsk
      00000007H   SYMBOL    DATA     BYTE      val
      ---         BLOCKEND  ---      ---       LVL=1
      0100345AH   LINE      CODE     ---       #6
      01003464H   LINE      CODE     ---       #7
      01003464H   LINE      CODE     ---       #11
      01003466H   LINE      CODE     ---       #12
      01003469H   LINE      CODE     ---       #13
      0100346CH   LINE      CODE     ---       #14
      01003475H   LINE      CODE     ---       #15
      0100347DH   LINE      CODE     ---       #16
      01003480H   LINE      CODE     ---       #18
      0100348AH   LINE      CODE     ---       #19
LX51 LINKER/LOCATER V4.66.87.0                                                        05/09/2018  21:28:12  PAGE 223


      0100348DH   LINE      CODE     ---       #21
      01003490H   LINE      CODE     ---       #22
      010034C1H   LINE      CODE     ---       #23
      010034C3H   LINE      CODE     ---       #24
      010034F9H   LINE      CODE     ---       #25
      010034F9H   LINE      CODE     ---       #26
      010034FCH   LINE      CODE     ---       #27
      010034FCH   LINE      CODE     ---       #29
      010034FEH   LINE      CODE     ---       #30
      ---         BLOCKEND  ---      ---       LVL=0

      ---         MODULE    ---      ---       CMD_SM
      01002550H   PUBLIC    CODE     ---       _cmd_sm

      0100626FH   BLOCK     CODE     ---       LVL=0
      ---         BLOCKEND  ---      ---       LVL=0

      01002550H   BLOCK     CODE     ---       LVL=0
      02000008H   SYMBOL    XDATA    CHAR      arg1
      02000009H   SYMBOL    XDATA    CHAR      arg2
      01002550H   LINE      CODE     ---       #8
      0100255AH   LINE      CODE     ---       #9
      0100255AH   LINE      CODE     ---       #10
      0100255CH   LINE      CODE     ---       #11
      0100255FH   LINE      CODE     ---       #12
      01002562H   LINE      CODE     ---       #13
      01002570H   LINE      CODE     ---       #14
      01002573H   LINE      CODE     ---       #15
      0100258AH   LINE      CODE     ---       #16
      0100258DH   LINE      CODE     ---       #17
      010025A5H   LINE      CODE     ---       #18
      010025B3H   LINE      CODE     ---       #19
      010025C0H   LINE      CODE     ---       #20
      010025C0H   LINE      CODE     ---       #21
      010025D7H   LINE      CODE     ---       #22
      010025DAH   LINE      CODE     ---       #23
      010025F2H   LINE      CODE     ---       #24
      010025FDH   LINE      CODE     ---       #25
      0100260AH   LINE      CODE     ---       #26
      0100260AH   LINE      CODE     ---       #27
      01002620H   LINE      CODE     ---       #28
      01002623H   LINE      CODE     ---       #29
      01002640H   LINE      CODE     ---       #30
      0100264BH   LINE      CODE     ---       #31
      0100265BH   LINE      CODE     ---       #32
      0100265BH   LINE      CODE     ---       #33
      0100265DH   LINE      CODE     ---       #34
      01002660H   LINE      CODE     ---       #35
      01002660H   LINE      CODE     ---       #36
      01002660H   LINE      CODE     ---       #37
      01002662H   LINE      CODE     ---       #38
      ---         BLOCKEND  ---      ---       LVL=0

      ---         MODULE    ---      ---       CMD_BEEPER
      01002A6FH   PUBLIC    CODE     ---       _cmd_beeper

      010070CDH   BLOCK     CODE     ---       LVL=0
      ---         BLOCKEND  ---      ---       LVL=0

      01002A6FH   BLOCK     CODE     ---       LVL=0
      02000008H   SYMBOL    XDATA    CHAR      arg1
      02000009H   SYMBOL    XDATA    CHAR      arg2
      01002A79H   BLOCK     CODE     NEAR LAB  LVL=1
      0200000AH   SYMBOL    XDATA    CHAR      index
      ---         BLOCKEND  ---      ---       LVL=1
LX51 LINKER/LOCATER V4.66.87.0                                                        05/09/2018  21:28:12  PAGE 224


      01002A6FH   LINE      CODE     ---       #8
      01002A79H   LINE      CODE     ---       #9
      01002A79H   LINE      CODE     ---       #11
      01002A90H   LINE      CODE     ---       #12
      01002A93H   LINE      CODE     ---       #13
      01002AAAH   LINE      CODE     ---       #14
      01002AADH   LINE      CODE     ---       #15
      01002AC4H   LINE      CODE     ---       #16
      01002AC9H   LINE      CODE     ---       #17
      01002ACFH   LINE      CODE     ---       #18
      01002AE8H   LINE      CODE     ---       #19
      01002AEDH   LINE      CODE     ---       #20
      01002AF3H   LINE      CODE     ---       #21
      01002B0CH   LINE      CODE     ---       #22
      01002B14H   LINE      CODE     ---       #23
      01002B17H   LINE      CODE     ---       #24
      01002B30H   LINE      CODE     ---       #25
      01002B49H   LINE      CODE     ---       #26
      01002B52H   LINE      CODE     ---       #27
      01002B55H   LINE      CODE     ---       #28
      01002B57H   LINE      CODE     ---       #29
      01002B5AH   LINE      CODE     ---       #30
      01002B5AH   LINE      CODE     ---       #31
      01002B5CH   LINE      CODE     ---       #32
      ---         BLOCKEND  ---      ---       LVL=0

      ---         MODULE    ---      ---       CMD_THERMO
      01002404H   PUBLIC    CODE     ---       _cmd_thermo

      010074CFH   BLOCK     CODE     ---       LVL=0
      ---         BLOCKEND  ---      ---       LVL=0

      01002404H   BLOCK     CODE     ---       LVL=0
      02000008H   SYMBOL    XDATA    CHAR      arg1
      02000009H   SYMBOL    XDATA    CHAR      arg2
      0100240EH   BLOCK     CODE     NEAR LAB  LVL=1
      0200000AH   SYMBOL    XDATA    CHAR      val
      ---         BLOCKEND  ---      ---       LVL=1
      01002404H   LINE      CODE     ---       #8
      0100240EH   LINE      CODE     ---       #9
      0100240EH   LINE      CODE     ---       #11
      01002410H   LINE      CODE     ---       #12
      01002413H   LINE      CODE     ---       #13
      0100241AH   LINE      CODE     ---       #14
      01002422H   LINE      CODE     ---       #15
      0100242FH   LINE      CODE     ---       #16
      01002431H   LINE      CODE     ---       #17
      01002440H   LINE      CODE     ---       #18
      01002445H   LINE      CODE     ---       #19
      01002455H   LINE      CODE     ---       #20
      01002458H   LINE      CODE     ---       #21
      0100245FH   LINE      CODE     ---       #22
      0100246EH   LINE      CODE     ---       #23
      01002471H   LINE      CODE     ---       #24
      0100247FH   LINE      CODE     ---       #25
      01002482H   LINE      CODE     ---       #26
      01002485H   LINE      CODE     ---       #27
      01002485H   LINE      CODE     ---       #28
      01002485H   LINE      CODE     ---       #29
      01002492H   LINE      CODE     ---       #30
      010024A2H   LINE      CODE     ---       #31
      010024A5H   LINE      CODE     ---       #32
      010024B8H   LINE      CODE     ---       #33
      010024BBH   LINE      CODE     ---       #34
      010024CDH   LINE      CODE     ---       #35
LX51 LINKER/LOCATER V4.66.87.0                                                        05/09/2018  21:28:12  PAGE 225


      010024D0H   LINE      CODE     ---       #36
      010024D2H   LINE      CODE     ---       #37
      010024D5H   LINE      CODE     ---       #38
      010024D8H   LINE      CODE     ---       #39
      010024D8H   LINE      CODE     ---       #40
      010024E7H   LINE      CODE     ---       #41
      010024F7H   LINE      CODE     ---       #42
      010024FAH   LINE      CODE     ---       #43
      0100250CH   LINE      CODE     ---       #44
      0100250FH   LINE      CODE     ---       #45
      01002521H   LINE      CODE     ---       #46
      01002524H   LINE      CODE     ---       #47
      01002526H   LINE      CODE     ---       #48
      01002529H   LINE      CODE     ---       #49
      0100252CH   LINE      CODE     ---       #50
      0100252CH   LINE      CODE     ---       #51
      0100252EH   LINE      CODE     ---       #52
      01002531H   LINE      CODE     ---       #53
      01002531H   LINE      CODE     ---       #54
      01002531H   LINE      CODE     ---       #55
      01002533H   LINE      CODE     ---       #56
      ---         BLOCKEND  ---      ---       LVL=0

      ---         MODULE    ---      ---       CMD_MPU
      010046B3H   PUBLIC    CODE     ---       _cmd_mpu

      01007D12H   BLOCK     CODE     ---       LVL=0
      ---         BLOCKEND  ---      ---       LVL=0

      010046B3H   BLOCK     CODE     ---       LVL=0
      02000008H   SYMBOL    XDATA    CHAR      arg1
      02000009H   SYMBOL    XDATA    CHAR      arg2
      010046B3H   LINE      CODE     ---       #10
      010046BDH   LINE      CODE     ---       #11
      010046BDH   LINE      CODE     ---       #12
      010046DFH   LINE      CODE     ---       #13
      010046E1H   LINE      CODE     ---       #14
      010046F7H   LINE      CODE     ---       #15
      010046FCH   LINE      CODE     ---       #16
      01004712H   LINE      CODE     ---       #17
      01004723H   LINE      CODE     ---       #18
      01004725H   LINE      CODE     ---       #19
      01004728H   LINE      CODE     ---       #20
      01004728H   LINE      CODE     ---       #21
      0100472AH   LINE      CODE     ---       #22
      ---         BLOCKEND  ---      ---       LVL=0

      ---         MODULE    ---      ---       ?C?FPMUL
      0100002EH   PUBLIC    CODE     ---       ?C?FPMUL

      ---         MODULE    ---      ---       ?C?FPDIV
      01000137H   PUBLIC    CODE     ---       ?C?FPDIV

      ---         MODULE    ---      ---       ?C?FCAST
      010001DEH   PUBLIC    CODE     ---       ?C?FCASTC
      010001D9H   PUBLIC    CODE     ---       ?C?FCASTI
      010001D4H   PUBLIC    CODE     ---       ?C?FCASTL

      ---         MODULE    ---      ---       ?C?CASTF
      01000212H   PUBLIC    CODE     ---       ?C?CASTF

      ---         MODULE    ---      ---       PRINTF
      0200004CH   PUBLIC    XDATA    ---       ?_PRINTF?BYTE
      0200004CH   PUBLIC    XDATA    ---       ?_SPRINTF?BYTE
      01000ADFH   PUBLIC    CODE     ---       _PRINTF
LX51 LINKER/LOCATER V4.66.87.0                                                        05/09/2018  21:28:12  PAGE 226


      01000AD9H   PUBLIC    CODE     ---       _SPRINTF

      ---         MODULE    ---      ---       VPRINTF
      02010046H   PUBLIC    XDATA    ---       ?_VPRINTF?BYTE
      01006743H   PUBLIC    CODE     ---       _VPRINTF

      ---         MODULE    ---      ---       ?C?FPGETOPN
      01000249H   PUBLIC    CODE     ---       ?C?FPGETOPN2
      0100027EH   PUBLIC    CODE     ---       ?C?FPNANRESULT
      01000288H   PUBLIC    CODE     ---       ?C?FPOVERFLOW
      01000260H   PUBLIC    CODE     ---       ?C?FPRESULT
      01000274H   PUBLIC    CODE     ---       ?C?FPRESULT2
      01000285H   PUBLIC    CODE     ---       ?C?FPUNDERFLOW

      ---         MODULE    ---      ---       ?C?FPROUND
      01000293H   PUBLIC    CODE     ---       ?C?FPROUND

      ---         MODULE    ---      ---       ?C?FPCONVERT
      010002D0H   PUBLIC    CODE     ---       ?C?FPCONVERT

      ---         MODULE    ---      ---       ?C?FPADD
      010003DCH   PUBLIC    CODE     ---       ?C?FPADD
      010003D8H   PUBLIC    CODE     ---       ?C?FPSUB

      ---         MODULE    ---      ---       ?C?FTNPWR
      010004FDH   PUBLIC    CODE     ---       ?C?FTNPWR

      ---         MODULE    ---      ---       ?C?SCDIV
      0100053DH   PUBLIC    CODE     ---       ?C?SCDIV

      ---         MODULE    ---      ---       ?C?CLDPTR
      0100055FH   PUBLIC    CODE     ---       ?C?CLDPTR

      ---         MODULE    ---      ---       ?C?CLDOPTR
      01000578H   PUBLIC    CODE     ---       ?C?CLDOPTR

      ---         MODULE    ---      ---       ?C?CSTPTR
      010005A5H   PUBLIC    CODE     ---       ?C?CSTPTR

      ---         MODULE    ---      ---       ?C?IMUL
      010005B7H   PUBLIC    CODE     ---       ?C?IMUL

      ---         MODULE    ---      ---       ?C?UIDIV
      010005C9H   PUBLIC    CODE     ---       ?C?UIDIV

      ---         MODULE    ---      ---       ?C?IILDX
      0100061EH   PUBLIC    CODE     ---       ?C?IILDX

      ---         MODULE    ---      ---       ?C?ILDOPTR
      01000634H   PUBLIC    CODE     ---       ?C?ILDOPTR

      ---         MODULE    ---      ---       ?C?LNEG
      0100066CH   PUBLIC    CODE     ---       ?C?LNEG

      ---         MODULE    ---      ---       ?C?LSTKXDATA
      0100067AH   PUBLIC    CODE     ---       ?C?LSTKXDATA

      ---         MODULE    ---      ---       ?C?OFFX256
      010006ABH   PUBLIC    CODE     ---       ?C?OFFX256

      ---         MODULE    ---      ---       ?C?OFFXADD
      010006BCH   PUBLIC    CODE     ---       ?C?OFFXADD

      ---         MODULE    ---      ---       ?C?PLDXDATA
      010006C8H   PUBLIC    CODE     ---       ?C?PLDXDATA
LX51 LINKER/LOCATER V4.66.87.0                                                        05/09/2018  21:28:12  PAGE 227



      ---         MODULE    ---      ---       ?C?PLDIXDATA
      010006D1H   PUBLIC    CODE     ---       ?C?PLDIXDATA

      ---         MODULE    ---      ---       ?C?PSTXDATA
      010006E8H   PUBLIC    CODE     ---       ?C?PSTXDATA

      ---         MODULE    ---      ---       ?C?PLDCODE
      010006F1H   PUBLIC    CODE     ---       ?C?PLDCODE

      ---         MODULE    ---      ---       ?C?PLDPTR
      010006FDH   PUBLIC    CODE     ---       ?C?PLDPTR

      ---         MODULE    ---      ---       ?C?PLDOPTR
      0100071DH   PUBLIC    CODE     ---       ?C?PLDOPTR

      ---         MODULE    ---      ---       ?C?CCASE
      0100074DH   PUBLIC    CODE     ---       ?C?CCASE

      ---         MODULE    ---      ---       ?C?ICALL
      01000773H   PUBLIC    CODE     ---       ?C?ICALL
      01000777H   PUBLIC    CODE     ---       ?C?ICALL2

      ---         MODULE    ---      ---       ?C_XBP
      0000001DH   PUBLIC    DATA     ---       ?C_XBP

      ---         MODULE    ---      ---       GETS
      01002B5DH   PUBLIC    CODE     ---       _GETS

      ---         MODULE    ---      ---       ATOI
      01002D2AH   PUBLIC    CODE     ---       _ATOI

      ---         MODULE    ---      ---       ?C?MEMSET
      01000779H   PUBLIC    CODE     ---       ?C?MEMSET

      ---         MODULE    ---      ---       ?C?COPYP2
      01000871H   PUBLIC    CODE     ---       ?C?COPYP2

      ---         MODULE    ---      ---       ?C?STRCMPP2
      01000A0DH   PUBLIC    CODE     ---       ?C?STRCMPP2

      ---         MODULE    ---      ---       ?C?CSTOPTR
      01000A2AH   PUBLIC    CODE     ---       ?C?CSTOPTR

      ---         MODULE    ---      ---       ?C?ILDIX
      01000A4CH   PUBLIC    CODE     ---       ?C?ILDIX

      ---         MODULE    ---      ---       ?C?PLDIDATA
      01000A62H   PUBLIC    CODE     ---       ?C?PLDIDATA

      ---         MODULE    ---      ---       ?C?PLDPDATA
      01000A6BH   PUBLIC    CODE     ---       ?C?PLDPDATA

      ---         MODULE    ---      ---       GETCHAR
      00000025H.0 PUBLIC    BIT      ---       ?C?CHARLOADED
      020000D5H   PUBLIC    XDATA    ---       ?_UNGETCHAR?BYTE
      01007E83H   PUBLIC    CODE     ---       GETCHAR

      ---         MODULE    ---      ---       ISDIGIT
      01008182H   PUBLIC    CODE     ---       _ISDIGIT

      ---         MODULE    ---      ---       ISSPACE
      01007E97H   PUBLIC    CODE     ---       _ISSPACE


LX51 LINKER/LOCATER V4.66.87.0                                                        05/09/2018  21:28:12  PAGE 228



FUNCTION REGISTER MASKS


FUNCTION . . . . . . . . . . . . . . REG MASK
==============================================

_clock_get_mon_date. . . . . . . . . @0x1e000ca0
_clock_is_leap_year. . . . . . . . . @0x1e000c80
_clock_switch_display_mode . . . . . @0x0e000800
_clock_yymmdd_to_day . . . . . . . . @0x1e000cfd
_delay_10us. . . . . . . . . . . . . @0x080008c0
_delay_ms. . . . . . . . . . . . . . @0x080008e0
_getkey. . . . . . . . . . . . . . . @0x1e000881
_I2C_Write . . . . . . . . . . . . . @0x180008e0
_int_hub_test_bit. . . . . . . . . . @0x180008c1
_isdigit . . . . . . . . . . . . . . @0x18000800
_isspace . . . . . . . . . . . . . . @0x18000800
_led_clr_blink . . . . . . . . . . . @0x18000801
_led_clr_dp. . . . . . . . . . . . . @0x18000801
_led_set_blink . . . . . . . . . . . @0x18000801
_led_set_code. . . . . . . . . . . . @0x1e0008c3
_led_set_dp. . . . . . . . . . . . . @0x18000801
_mpu_threshold_inc . . . . . . . . . @0x18000880
_putbuf. . . . . . . . . . . . . . . @0x1e0008c1
_putchar . . . . . . . . . . . . . . @0x1e0008e1
_rtc_alarm_set_date. . . . . . . . . @0x1e000cce
_rtc_alarm_set_day . . . . . . . . . @0x1e000800
_rtc_alarm_set_hour. . . . . . . . . @0x1e000cce
_rtc_alarm_set_min . . . . . . . . . @0x1e000cce
_rtc_alarm_set_mode. . . . . . . . . @0x1e000820
_rtc_alarm_set_sec . . . . . . . . . @0x1e000c40
_rtc_clr_alarm_int_flag. . . . . . . @0x1e000800
_rtc_date_set_day. . . . . . . . . . @0x1e000800
_rtc_date_set_month. . . . . . . . . @0x1e000cc0
_rtc_date_set_year . . . . . . . . . @0x1e000cc0
_rtc_enable_alarm_int. . . . . . . . @0x1e000800
_rtc_test_alarm_int. . . . . . . . . @0x1e000800
_rtc_test_alarm_int_flag . . . . . . @0x1e000800
_rtc_time_set_hour . . . . . . . . . @0x1e000cce
_rtc_time_set_min. . . . . . . . . . @0x1e000cce
_rtc_time_set_sec. . . . . . . . . . @0x1e000cce
_scan_key_proc . . . . . . . . . . . @0x1e0008c1
_serial_set_ctl_bit. . . . . . . . . @0x1e000861
_serial_test_ctl_bit . . . . . . . . @0x1e0008f1
_thermo_threshold_inc. . . . . . . . @0x18000880
_timer_get_hour. . . . . . . . . . . @0x18000881
_timer_get_min . . . . . . . . . . . @0x18000881
_timer_get_sec . . . . . . . . . . . @0x18000881
_timer_inc_hour. . . . . . . . . . . @0x18000c01
_timer_inc_min . . . . . . . . . . . @0x18000c01
_timer_inc_sec . . . . . . . . . . . @0x18000c01
_timer_set_mode. . . . . . . . . . . @0x0e000800
alarm0_get_day_mask. . . . . . . . . @0x0e000880
alarm0_get_hour. . . . . . . . . . . @0x0e000880
alarm0_get_hour_12 . . . . . . . . . @0x18000000
alarm0_get_min . . . . . . . . . . . @0x0e000880
alarm0_inc_hour. . . . . . . . . . . @0x1e000c00
alarm0_inc_min . . . . . . . . . . . @0x1e000c00
alarm0_set_hour_12 . . . . . . . . . @0x18000000
alarm1_set_enable. . . . . . . . . . @0x18000000
alarm1_test_enable . . . . . . . . . @0x18000000
beeper_get_beep_enable . . . . . . . @0x18000000
beeper_get_music_index . . . . . . . @0x0e000880
beeper_get_music_to. . . . . . . . . @0x0e000880
LX51 LINKER/LOCATER V4.66.87.0                                                        05/09/2018  21:28:12  PAGE 229


beeper_inc_music_to. . . . . . . . . @0x1e000cf1
beeper_set_beep_enable . . . . . . . @0x18000000
beeper_stop_music. . . . . . . . . . @0x0e000800
clock_clr_sec. . . . . . . . . . . . @0x08000801
clock_display. . . . . . . . . . . . @0x18000000
clock_enable_interrupt . . . . . . . @0x18000000
clock_enter_shell. . . . . . . . . . @0x80000000
clock_get_date . . . . . . . . . . . @0x08000881
clock_get_day. . . . . . . . . . . . @0x08000881
clock_get_hour . . . . . . . . . . . @0x08000881
clock_get_hour_12. . . . . . . . . . @0x18000000
clock_get_min. . . . . . . . . . . . @0x08000881
clock_get_month. . . . . . . . . . . @0x08000881
clock_get_ms39 . . . . . . . . . . . @0x08000881
clock_get_sec. . . . . . . . . . . . @0x08000881
clock_get_sec_256. . . . . . . . . . @0x08000881
clock_get_year . . . . . . . . . . . @0x08000881
clock_inc_hour . . . . . . . . . . . @0x18000c01
clock_inc_min. . . . . . . . . . . . @0x18000c01
clock_inc_month. . . . . . . . . . . @0x1e000cfd
clock_inc_year . . . . . . . . . . . @0x1e000cfd
clock_set_hour_12. . . . . . . . . . @0x18000000
com_initialize . . . . . . . . . . . @0x0e000800
com_try_get_key. . . . . . . . . . . @0x1e000881
debug_initialize . . . . . . . . . . @0x80000000
debug_onoff. . . . . . . . . . . . . @0x18000000
I2C_Delay. . . . . . . . . . . . . . @0x18000880
I2C_GetAck . . . . . . . . . . . . . @0x180008c0
I2C_Init . . . . . . . . . . . . . . @0x18000880
I2C_PutAck . . . . . . . . . . . . . @0x18000880
I2C_Read . . . . . . . . . . . . . . @0x180008e0
I2C_Start. . . . . . . . . . . . . . @0x18000880
I2C_Stop . . . . . . . . . . . . . . @0x180008b0
lt_timer_dec_sec . . . . . . . . . . @0x1e000c81
lt_timer_get_date. . . . . . . . . . @0x08000881
lt_timer_get_hour. . . . . . . . . . @0x08000881
lt_timer_get_min . . . . . . . . . . @0x08000881
lt_timer_get_month . . . . . . . . . @0x08000881
lt_timer_get_sec . . . . . . . . . . @0x08000881
lt_timer_get_year. . . . . . . . . . @0x08000881
lt_timer_inc_date. . . . . . . . . . @0x18000c01
lt_timer_inc_hour. . . . . . . . . . @0x18000c01
lt_timer_inc_min . . . . . . . . . . @0x18000c01
lt_timer_inc_month . . . . . . . . . @0x18000c01
lt_timer_inc_sec . . . . . . . . . . @0x18000c01
lt_timer_inc_year. . . . . . . . . . @0x18000c01
mpu_threshold_get. . . . . . . . . . @0x0e000880
power_clr_flag . . . . . . . . . . . @0x80000000
power_get_powersave_to . . . . . . . @0x1e000880
power_get_powersave_to_s . . . . . . @0x0e000880
power_inc_powersave_to . . . . . . . @0x1e000800
power_reset_powersave_to . . . . . . @0x0e000881
power_set_flag . . . . . . . . . . . @0x80000000
power_test_flag. . . . . . . . . . . @0x18000000
refresh_led. . . . . . . . . . . . . @0x1e0008e9
rom_is_factory_reset . . . . . . . . @0x18000000
rtc_alarm_get_date . . . . . . . . . @0x1e000cc0
rtc_alarm_get_day. . . . . . . . . . @0x1e000880
rtc_alarm_get_hour . . . . . . . . . @0x1e000ce0
rtc_alarm_get_hour_12. . . . . . . . @0x1e000880
rtc_alarm_get_min. . . . . . . . . . @0x1e000cc0
rtc_alarm_get_mode . . . . . . . . . @0x0e0008fa
rtc_alarm_get_sec. . . . . . . . . . @0x1e000cc0
rtc_alarm_set_hour_12. . . . . . . . @0x1e000cee
rtc_date_get_date. . . . . . . . . . @0x1e000cc0
LX51 LINKER/LOCATER V4.66.87.0                                                        05/09/2018  21:28:12  PAGE 230


rtc_date_get_day . . . . . . . . . . @0x0e000880
rtc_date_get_month . . . . . . . . . @0x1e000cc0
rtc_date_get_year. . . . . . . . . . @0x1e000cc0
rtc_is_lt_timer. . . . . . . . . . . @0x18000000
rtc_set_lt_timer . . . . . . . . . . @0x18000000
rtc_time_get_hour. . . . . . . . . . @0x1e000ce0
rtc_time_get_hour_12 . . . . . . . . @0x1e000880
rtc_time_get_min . . . . . . . . . . @0x1e000cc0
rtc_time_get_sec . . . . . . . . . . @0x1e000cc0
rtc_time_set_hour_12 . . . . . . . . @0x1e000cee
timer_set_led_autorefresh. . . . . . @0x1e000800
timer_stop . . . . . . . . . . . . . @0x80000000



*** WARNING L13: RECURSIVE CALL TO FUNCTION
    CALLED:  ?CO?TASK
    CALLER:  _RUN_STATE_MACHINE/SM

*** WARNING L13: RECURSIVE CALL TO FUNCTION
    CALLED:  ?CO?SHELL
    CALLER:  SHELL

*** WARNING L13: RECURSIVE CALL TO FUNCTION
    CALLED:  ?CO?SHELL
    CALLER:  SHELL_DUMP_CMD/SHELL

*** WARNING L13: RECURSIVE CALL TO FUNCTION
    CALLED:  ?CO?SHELL
    CALLER:  _CMD_HELP/CMD_HELP

*** WARNING L57: UNCALLED FUNCTION, IGNORED FOR OVERLAY PROCESS
    NAME:    RTC_ALARM_GET_HOUR/RTC

*** WARNING L57: UNCALLED FUNCTION, IGNORED FOR OVERLAY PROCESS
    NAME:    RTC_ALARM_GET_HOUR_12/RTC

*** WARNING L57: UNCALLED FUNCTION, IGNORED FOR OVERLAY PROCESS
    NAME:    RTC_ALARM_GET_MIN/RTC

*** WARNING L57: UNCALLED FUNCTION, IGNORED FOR OVERLAY PROCESS
    NAME:    RTC_ALARM_GET_DAY/RTC

*** WARNING L57: UNCALLED FUNCTION, IGNORED FOR OVERLAY PROCESS
    NAME:    _RTC_ALARM_SET_DAY/RTC

*** WARNING L57: UNCALLED FUNCTION, IGNORED FOR OVERLAY PROCESS
    NAME:    RTC_ALARM_GET_DATE/RTC

*** WARNING L57: UNCALLED FUNCTION, IGNORED FOR OVERLAY PROCESS
    NAME:    RTC_ALARM_GET_SEC/RTC

*** WARNING L57: UNCALLED FUNCTION, IGNORED FOR OVERLAY PROCESS
    NAME:    RTC_ALARM_GET_MODE/RTC

*** WARNING L57: UNCALLED FUNCTION, IGNORED FOR OVERLAY PROCESS
    NAME:    _RTC_TEST_ALARM_INT/RTC

*** WARNING L16: UNCALLED SEGMENT, IGNORED FOR OVERLAY PROCESS
    NAME:    ALARM_SAVE_ROM/ALARM

*** WARNING L57: UNCALLED FUNCTION, IGNORED FOR OVERLAY PROCESS
    NAME:    BEEPER_GET_MUSIC_TO/BEEPER

*** WARNING L57: UNCALLED FUNCTION, IGNORED FOR OVERLAY PROCESS
LX51 LINKER/LOCATER V4.66.87.0                                                        05/09/2018  21:28:12  PAGE 231


    NAME:    BEEPER_INC_MUSIC_TO/BEEPER

*** WARNING L57: UNCALLED FUNCTION, IGNORED FOR OVERLAY PROCESS
    NAME:    CLOCK_GET_MS39/CLOCK

*** WARNING L57: UNCALLED FUNCTION, IGNORED FOR OVERLAY PROCESS
    NAME:    THERMO_HI_THRESHOLD_REACH_TOP/THERMO

*** WARNING L57: UNCALLED FUNCTION, IGNORED FOR OVERLAY PROCESS
    NAME:    THERMO_LO_THRESHOLD_REACH_BOTTOM/THERMO

*** WARNING L57: UNCALLED FUNCTION, IGNORED FOR OVERLAY PROCESS
    NAME:    MPU_THRESHOLD_RESET/MPU

Program Size: data=93.1 xdata=214 const=17146 code=34220
LX51 RUN COMPLETE.  20 WARNING(S),  0 ERROR(S)
