LX51 LINKER/LOCATER V4.66.87.0                                                          04/18/2018  10:36:57  PAGE 1


LX51 LINKER/LOCATER V4.66.87.0, INVOKED BY:
C:\KEIL\C51\BIN\LX51.EXE sm.obj, main.obj, STARTUP.obj, com.obj, rtc.obj, i2c.obj, key.obj, task.obj, led.obj, alarm.obj
>> , power.obj, misc.obj, mod_common.obj, beeper.obj, clock.obj, timer.obj, int_hub.obj, fuse.obj, hg.obj, lt_timer.obj,
>>  serial_hub.obj, thermo.obj, rom.obj, delay_task.obj, shell.obj, debug.obj, mpu.obj, sm_clock_timer.obj, sm_clock_cou
>> nter.obj, sm_clock_display.obj, sm_clock_powersave.obj, sm_clock_mod_alarm.obj, sm_clock_alarm.obj, sm_clock_mod_glob
>> al_flag.obj, sm_clock_mod_time.obj, sm_fuse_mode.obj, sm_fuse_test.obj, sm_fuse_param.obj, sm_fuse_timer.obj, sm_fuse
>> _grenade.obj, sm_fuse_detonate.obj, sm_fuse_powersave.obj, cmd_help.obj, cmd_serial.obj, cmd_int.obj, cmd_i2c.obj, cm
>> d_dbg.obj, cmd_reboot.obj, cmd_task.obj, cmd_sm.obj, cmd_beeper.obj, cmd_thermo.obj, cmd_mpu.obj TO Clock REGFILE (.\
>> Clock.ORC) CLASSES (XDATA (X:0X0-X:0X3FF), HDATA (X:0X0-X:0X3FF), ECODE (C:0X0-C:0XFFFF), HCONST (C:0X0-C:0XFFFF))




PROGRAM RECURSIONS REMOVED FROM CALL TREE
=========================================
+--> ?CO?TASK
|  | _TIME_PROC/SM
<--+ _RUN_STATE_MACHINE/SM


+--> ?CO?SHELL
|  | _CMD_HELP/CMD_HELP
|  | SHELL_DUMP_CMD/SHELL
<--+ SHELL


+--> ?CO?SHELL
|  | _CMD_HELP/CMD_HELP
<--+ SHELL_DUMP_CMD/SHELL


+--> ?CO?SHELL
<--+ _CMD_HELP/CMD_HELP



CPU MODE:     8051 MODE
MEMORY MODEL: LARGE WITH FLOATING POINT ARITHMETIC


INPUT MODULES INCLUDED:
  sm.obj (SM)
         COMMENT TYPE 0: C51 V9.57.0.0
  main.obj (MAIN)
         COMMENT TYPE 0: C51 V9.57.0.0
  STARTUP.obj (?C_STARTUP)
         COMMENT TYPE 0: AX51 V3.15.3.0
  com.obj (COM)
         COMMENT TYPE 0: C51 V9.57.0.0
  rtc.obj (RTC)
         COMMENT TYPE 0: C51 V9.57.0.0
  i2c.obj (I2C)
         COMMENT TYPE 0: C51 V9.57.0.0
  key.obj (KEY)
         COMMENT TYPE 0: C51 V9.57.0.0
  task.obj (TASK)
         COMMENT TYPE 0: C51 V9.57.0.0
  led.obj (LED)
         COMMENT TYPE 0: C51 V9.57.0.0
  alarm.obj (ALARM)
         COMMENT TYPE 0: C51 V9.57.0.0
  power.obj (POWER)
         COMMENT TYPE 0: C51 V9.57.0.0
  misc.obj (MISC)
         COMMENT TYPE 0: C51 V9.57.0.0
  mod_common.obj (MOD_COMMON)
LX51 LINKER/LOCATER V4.66.87.0                                                        04/18/2018  10:36:57  PAGE 2


         COMMENT TYPE 0: C51 V9.57.0.0
  beeper.obj (BEEPER)
         COMMENT TYPE 0: C51 V9.57.0.0
  clock.obj (CLOCK)
         COMMENT TYPE 0: C51 V9.57.0.0
  timer.obj (TIMER)
         COMMENT TYPE 0: C51 V9.57.0.0
  int_hub.obj (INT_HUB)
         COMMENT TYPE 0: C51 V9.57.0.0
  fuse.obj (FUSE)
         COMMENT TYPE 0: C51 V9.57.0.0
  hg.obj (HG)
         COMMENT TYPE 0: C51 V9.57.0.0
  lt_timer.obj (LT_TIMER)
         COMMENT TYPE 0: C51 V9.57.0.0
  serial_hub.obj (SERIAL_HUB)
         COMMENT TYPE 0: C51 V9.57.0.0
  thermo.obj (THERMO)
         COMMENT TYPE 0: C51 V9.57.0.0
  rom.obj (ROM)
         COMMENT TYPE 0: C51 V9.57.0.0
  delay_task.obj (DELAY_TASK)
         COMMENT TYPE 0: C51 V9.57.0.0
  shell.obj (SHELL)
         COMMENT TYPE 0: C51 V9.57.0.0
  debug.obj (DEBUG)
         COMMENT TYPE 0: C51 V9.57.0.0
  mpu.obj (MPU)
         COMMENT TYPE 0: C51 V9.57.0.0
  sm_clock_timer.obj (SM_CLOCK_TIMER)
         COMMENT TYPE 0: C51 V9.57.0.0
  sm_clock_counter.obj (SM_CLOCK_COUNTER)
         COMMENT TYPE 0: C51 V9.57.0.0
  sm_clock_display.obj (SM_CLOCK_DISPLAY)
         COMMENT TYPE 0: C51 V9.57.0.0
  sm_clock_powersave.obj (SM_CLOCK_POWERSAVE)
         COMMENT TYPE 0: C51 V9.57.0.0
  sm_clock_mod_alarm.obj (SM_CLOCK_MOD_ALARM)
         COMMENT TYPE 0: C51 V9.57.0.0
  sm_clock_alarm.obj (SM_CLOCK_ALARM)
         COMMENT TYPE 0: C51 V9.57.0.0
  sm_clock_mod_global_flag.obj (SM_CLOCK_MOD_GLOBAL_FLAG)
         COMMENT TYPE 0: C51 V9.57.0.0
  sm_clock_mod_time.obj (SM_CLOCK_MOD_TIME)
         COMMENT TYPE 0: C51 V9.57.0.0
  sm_fuse_mode.obj (SM_FUSE_MODE)
         COMMENT TYPE 0: C51 V9.57.0.0
  sm_fuse_test.obj (SM_FUSE_TEST)
         COMMENT TYPE 0: C51 V9.57.0.0
  sm_fuse_param.obj (SM_FUSE_PARAM)
         COMMENT TYPE 0: C51 V9.57.0.0
  sm_fuse_timer.obj (SM_FUSE_TIMER)
         COMMENT TYPE 0: C51 V9.57.0.0
  sm_fuse_grenade.obj (SM_FUSE_GRENADE)
         COMMENT TYPE 0: C51 V9.57.0.0
  sm_fuse_detonate.obj (SM_FUSE_DETONATE)
         COMMENT TYPE 0: C51 V9.57.0.0
  sm_fuse_powersave.obj (SM_FUSE_POWERSAVE)
         COMMENT TYPE 0: C51 V9.57.0.0
  cmd_help.obj (CMD_HELP)
         COMMENT TYPE 0: C51 V9.57.0.0
  cmd_serial.obj (CMD_SERIAL)
         COMMENT TYPE 0: C51 V9.57.0.0
  cmd_int.obj (CMD_INT)
         COMMENT TYPE 0: C51 V9.57.0.0
LX51 LINKER/LOCATER V4.66.87.0                                                        04/18/2018  10:36:57  PAGE 3


  cmd_i2c.obj (CMD_I2C)
         COMMENT TYPE 0: C51 V9.57.0.0
  cmd_dbg.obj (CMD_DBG)
         COMMENT TYPE 0: C51 V9.57.0.0
  cmd_reboot.obj (CMD_REBOOT)
         COMMENT TYPE 0: C51 V9.57.0.0
  cmd_task.obj (CMD_TASK)
         COMMENT TYPE 0: C51 V9.57.0.0
  cmd_sm.obj (CMD_SM)
         COMMENT TYPE 0: C51 V9.57.0.0
  cmd_beeper.obj (CMD_BEEPER)
         COMMENT TYPE 0: C51 V9.57.0.0
  cmd_thermo.obj (CMD_THERMO)
         COMMENT TYPE 0: C51 V9.57.0.0
  cmd_mpu.obj (CMD_MPU)
         COMMENT TYPE 0: C51 V9.57.0.0
  C:\KEIL\C51\LIB\C51FPL.LIB (?C?FPMUL)
         COMMENT TYPE 1: A51 / ASM51 Assembler
  C:\KEIL\C51\LIB\C51FPL.LIB (?C?FPDIV)
         COMMENT TYPE 1: A51 / ASM51 Assembler
  C:\KEIL\C51\LIB\C51FPL.LIB (?C?FCAST)
         COMMENT TYPE 1: A51 / ASM51 Assembler
  C:\KEIL\C51\LIB\C51FPL.LIB (?C?CASTF)
         COMMENT TYPE 1: A51 / ASM51 Assembler
  C:\KEIL\C51\LIB\C51FPL.LIB (PRINTF)
         COMMENT TYPE 1: A51 / ASM51 Assembler
  C:\KEIL\C51\LIB\C51FPL.LIB (VPRINTF)
         COMMENT TYPE 1: A51 / ASM51 Assembler
  C:\KEIL\C51\LIB\C51FPL.LIB (?C?FPGETOPN)
         COMMENT TYPE 1: A51 / ASM51 Assembler
  C:\KEIL\C51\LIB\C51FPL.LIB (?C?FPROUND)
         COMMENT TYPE 1: A51 / ASM51 Assembler
  C:\KEIL\C51\LIB\C51FPL.LIB (?C?FPCONVERT)
         COMMENT TYPE 1: A51 / ASM51 Assembler
  C:\KEIL\C51\LIB\C51FPL.LIB (?C?FPADD)
         COMMENT TYPE 1: A51 / ASM51 Assembler
  C:\KEIL\C51\LIB\C51FPL.LIB (?C?FTNPWR)
         COMMENT TYPE 1: A51 / ASM51 Assembler
  C:\KEIL\C51\LIB\C51L.LIB (?C?SCDIV)
         COMMENT TYPE 1: A51 / ASM51 Assembler
  C:\KEIL\C51\LIB\C51L.LIB (?C?CLDPTR)
         COMMENT TYPE 1: A51 / ASM51 Assembler
  C:\KEIL\C51\LIB\C51L.LIB (?C?CLDOPTR)
         COMMENT TYPE 1: A51 / ASM51 Assembler
  C:\KEIL\C51\LIB\C51L.LIB (?C?CSTPTR)
         COMMENT TYPE 1: A51 / ASM51 Assembler
  C:\KEIL\C51\LIB\C51L.LIB (?C?IMUL)
         COMMENT TYPE 1: A51 / ASM51 Assembler
  C:\KEIL\C51\LIB\C51L.LIB (?C?UIDIV)
         COMMENT TYPE 1: A51 / ASM51 Assembler
  C:\KEIL\C51\LIB\C51L.LIB (?C?SIDIV)
         COMMENT TYPE 1: A51 / ASM51 Assembler
  C:\KEIL\C51\LIB\C51L.LIB (?C?IILDX)
         COMMENT TYPE 1: A51 / ASM51 Assembler
  C:\KEIL\C51\LIB\C51L.LIB (?C?ILDOPTR)
         COMMENT TYPE 1: A51 / ASM51 Assembler
  C:\KEIL\C51\LIB\C51L.LIB (?C?ISTPTR)
         COMMENT TYPE 1: A51 / ASM51 Assembler
  C:\KEIL\C51\LIB\C51L.LIB (?C?LNEG)
         COMMENT TYPE 1: A51 / ASM51 Assembler
  C:\KEIL\C51\LIB\C51L.LIB (?C?LLDXDATA)
         COMMENT TYPE 1: A51 / ASM51 Assembler
  C:\KEIL\C51\LIB\C51L.LIB (?C?LSTXDATA)
         COMMENT TYPE 1: A51 / ASM51 Assembler
  C:\KEIL\C51\LIB\C51L.LIB (?C?LSTKXDATA)
LX51 LINKER/LOCATER V4.66.87.0                                                        04/18/2018  10:36:57  PAGE 4


         COMMENT TYPE 1: A51 / ASM51 Assembler
  C:\KEIL\C51\LIB\C51L.LIB (?C?OFFX256)
         COMMENT TYPE 1: A51 / ASM51 Assembler
  C:\KEIL\C51\LIB\C51L.LIB (?C?OFFXADD)
         COMMENT TYPE 1: A51 / ASM51 Assembler
  C:\KEIL\C51\LIB\C51L.LIB (?C?PLDXDATA)
         COMMENT TYPE 1: A51 / ASM51 Assembler
  C:\KEIL\C51\LIB\C51L.LIB (?C?PLDIXDATA)
         COMMENT TYPE 1: A51 / ASM51 Assembler
  C:\KEIL\C51\LIB\C51L.LIB (?C?PSTXDATA)
         COMMENT TYPE 1: A51 / ASM51 Assembler
  C:\KEIL\C51\LIB\C51L.LIB (?C?PLDCODE)
         COMMENT TYPE 1: A51 / ASM51 Assembler
  C:\KEIL\C51\LIB\C51L.LIB (?C?PLDPTR)
         COMMENT TYPE 1: A51 / ASM51 Assembler
  C:\KEIL\C51\LIB\C51L.LIB (?C?PLDOPTR)
         COMMENT TYPE 1: A51 / ASM51 Assembler
  C:\KEIL\C51\LIB\C51L.LIB (?C?CCASE)
         COMMENT TYPE 1: A51 / ASM51 Assembler
  C:\KEIL\C51\LIB\C51L.LIB (?C?ICALL)
         COMMENT TYPE 1: A51 / ASM51 Assembler
  C:\KEIL\C51\LIB\C51L.LIB (?C_XBP)
         COMMENT TYPE 1: A51 / ASM51 Assembler
  C:\KEIL\C51\LIB\C51L.LIB (GETS)
         COMMENT TYPE 1: C51 Compiler
  C:\KEIL\C51\LIB\C51L.LIB (ATOI)
         COMMENT TYPE 1: C51 Compiler
  C:\KEIL\C51\LIB\C51L.LIB (?C?MEMSET)
         COMMENT TYPE 1: A51 / ASM51 Assembler
  C:\KEIL\C51\LIB\C51L.LIB (?C?COPYP2)
         COMMENT TYPE 1: A51 / ASM51 Assembler
  C:\KEIL\C51\LIB\C51L.LIB (?C?STRCMPP2)
         COMMENT TYPE 1: A51 / ASM51 Assembler
  C:\KEIL\C51\LIB\C51L.LIB (?C?CSTOPTR)
         COMMENT TYPE 1: A51 / ASM51 Assembler
  C:\KEIL\C51\LIB\C51L.LIB (?C?ILDIX)
         COMMENT TYPE 1: A51 / ASM51 Assembler
  C:\KEIL\C51\LIB\C51L.LIB (?C?PLDIDATA)
         COMMENT TYPE 1: A51 / ASM51 Assembler
  C:\KEIL\C51\LIB\C51L.LIB (?C?PLDPDATA)
         COMMENT TYPE 1: A51 / ASM51 Assembler
  C:\KEIL\C51\LIB\C51L.LIB (GETCHAR)
         COMMENT TYPE 1: A51 / ASM51 Assembler
  C:\KEIL\C51\LIB\C51L.LIB (ISDIGIT)
         COMMENT TYPE 1: C51 Compiler
  C:\KEIL\C51\LIB\C51L.LIB (ISSPACE)
         COMMENT TYPE 1: C51 Compiler


ACTIVE MEMORY CLASSES OF MODULE:  Clock (SM)

BASE        START       END         USED      MEMORY CLASS
==========================================================
X:000000H   X:000000H   X:0003FFH   0000D7H   XDATA
X:000000H   X:000000H   X:0003FFH             HDATA
C:000000H   C:000000H   C:00FFFFH             ECODE
B00:0000H   C:000000H   C:00FFFFH             HCONST
C:000000H   C:000000H   C:00FFFFH   008FA3H   CODE
C:000000H   C:000000H   C:00FFFFH   003FDCH   CONST
I:000000H   I:000000H   I:0000FFH   000039H   IDATA
I:000020H.0 I:000020H.0 I:00002FH.7 000005H.4 BIT
I:000000H   I:000000H   I:00007FH   00001FH   DATA


MEMORY MAP OF MODULE:  Clock (SM)
LX51 LINKER/LOCATER V4.66.87.0                                                        04/18/2018  10:36:57  PAGE 5




START     STOP      LENGTH    ALIGN  RELOC    MEMORY CLASS   SEGMENT NAME
=========================================================================

* * * * * * * * * * *   D A T A   M E M O R Y   * * * * * * * * * * * * *
000000H   000007H   000008H   ---    AT..     DATA           "REG BANK 0"
000008H   00000FH   000008H   ---    AT..     DATA           "REG BANK 1"
000010H   000017H   000008H   ---    AT..     DATA           "REG BANK 2"
000018H   00001CH   000005H   BYTE   UNIT     DATA           _DATA_GROUP_
00001DH   00001EH   000002H   BYTE   UNIT     DATA           ?C?LIB_DATA
00001FH.0 00001FH.7 000001H.0 ---    ---      **GAP**
000020H.0 000021H.3 000001H.4 BIT    UNIT     BIT            _BIT_GROUP_
000021H.4 000021H.7 000000H.4 BIT    UNIT     BIT            ?BI?TIMER
000022H.0 000022H.3 000000H.4 BIT    UNIT     BIT            ?BI?LT_TIMER
000022H.4 000022H.6 000000H.3 BIT    UNIT     BIT            ?BI?MOD_COMMON
000022H.7 000023H.1 000000H.3 BIT    UNIT     BIT            ?BI?CLOCK
000023H.2 000023H.3 000000H.2 BIT    UNIT     BIT            ?BI?COM
000023H.4 000023H.5 000000H.2 BIT    UNIT     BIT            ?BI?KEY
000023H.6 000023H.7 000000H.2 BIT    UNIT     BIT            ?BI?ALARM
000024H.0 000024H.1 000000H.2 BIT    UNIT     BIT            ?BI?BEEPER
000024H.2 000024H.3 000000H.2 BIT    UNIT     BIT            ?BI?THERMO
000024H.4 000024H.4 000000H.1 BIT    UNIT     BIT            ?BI?RTC
000024H.5 000024H.5 000000H.1 BIT    UNIT     BIT            ?BI?LED
000024H.6 000024H.6 000000H.1 BIT    UNIT     BIT            ?BI?POWER
000024H.7 000024H.7 000000H.1 BIT    UNIT     BIT            ?BI?FUSE
000025H.0 000025H.0 000000H.1 BIT    UNIT     BIT            ?BI?HG
000025H.1 000025H.1 000000H.1 BIT    UNIT     BIT            ?BI?DEBUG
000025H.2 000025H.2 000000H.1 BIT    UNIT     BIT            ?BI?MPU
000025H.3 000025H.3 000000H.1 BIT    UNIT     BIT            ?BI?GETCHAR
000025H.4 000025H   000000H.4 ---    ---      **GAP**
000026H   000035H   000010H   BYTE   UNIT     IDATA          ?ID?COM
000036H   000041H   00000CH   BYTE   UNIT     IDATA          ?ID?TIMER
000042H   00004AH   000009H   BYTE   UNIT     IDATA          ?ID?LED
00004BH   000053H   000009H   BYTE   UNIT     IDATA          ?ID?CLOCK
000054H   000059H   000006H   BYTE   UNIT     IDATA          ?ID?LT_TIMER
00005AH   00005DH   000004H   BYTE   UNIT     IDATA          ?ID?TASK
00005EH   00005EH   000001H   BYTE   UNIT     IDATA          ?STACK

* * * * * * * * * * *   C O D E   M E M O R Y   * * * * * * * * * * * * *
000000H   000002H   000003H   ---    OFFS..   CODE           ?CO?STARTUP?3
000003H   000005H   000003H   BYTE   OFFS..   CODE           ?KEY?00003
000006H   00000AH   000005H   BYTE   UNIT     CODE           ?PR?RTC_SET_LT_TIMER?RTC
00000BH   00000DH   000003H   BYTE   OFFS..   CODE           ?CLOCK?0000B
00000EH   000012H   000005H   BYTE   UNIT     CODE           ?PR?__RTC_GET_DATE?RTC
000013H   000015H   000003H   BYTE   OFFS..   CODE           ?INT_HUB?00013
000016H   000022H   00000DH   BYTE   UNIT     CODE           ?PR?COM_LEAVE_POWERSAVE?COM
000023H   000025H   000003H   BYTE   OFFS..   CODE           ?COM?00023
000026H   00002AH   000005H   BYTE   UNIT     CODE           ?PR?ALARM0_SET_HOUR_12?ALARM
00002BH   00002DH   000003H   BYTE   OFFS..   CODE           ?BEEPER?0002B
00002EH   000AE0H   000AB3H   BYTE   UNIT     CODE           ?C?LIB_CODE
000AE1H   0011C8H   0006E8H   BYTE   UNIT     CODE           ?PR?_SM_FUSE_TEST?SM_FUSE_TEST
0011C9H   00164BH   000483H   BYTE   UNIT     CODE           ?PR?PRINTF?PRINTF
00164CH   001A2CH   0003E1H   BYTE   UNIT     CODE           ?PR?_SM_FUSE_PARAM?SM_FUSE_PARAM
001A2DH   001CDBH   0002AFH   BYTE   UNIT     CODE           ?PR?_SM_FUSE_TIMER?SM_FUSE_TIMER
001CDCH   001F41H   000266H   BYTE   UNIT     CODE           ?PR?_INT_HUB_DUMP_EXT_STATUS?INT_HUB
001F42H   00218BH   00024AH   BYTE   UNIT     CODE           ?PR?_SM_CLOCK_MOD_TIME?SM_CLOCK_MOD_TIME
00218CH   0023BAH   00022FH   BYTE   UNIT     CODE           ?PR?SERIAL_DUMP?SERIAL_HUB
0023BBH   0025A6H   0001ECH   BYTE   UNIT     CODE           ?PR?_DISPLAY_FUSE_STATE?SM_FUSE_TEST
0025A7H   002790H   0001EAH   BYTE   UNIT     CODE           ?PR?_SM_CLOCK_COUNTER?SM_CLOCK_COUNTER
002791H   002966H   0001D6H   BYTE   UNIT     CODE           ?PR?_SM_CLOCK_MOD_ALARM?SM_CLOCK_MOD_ALARM
002967H   002AF8H   000192H   BYTE   UNIT     CODE           ?PR?_RUN_STATE_MACHINE?SM
002AF9H   002C67H   00016FH   BYTE   UNIT     CODE           ?PR?SM
002C68H   002DD6H   00016FH   BYTE   UNIT     CODE           ?PR?_CHECK_AND_SET_TIMER_PARAM?SM_FUSE_TIMER
002DD7H   002F42H   00016CH   BYTE   UNIT     CODE           ?PR?RTC_INITIALIZE?RTC
LX51 LINKER/LOCATER V4.66.87.0                                                        04/18/2018  10:36:57  PAGE 6


002F43H   0030A3H   000161H   BYTE   UNIT     CODE           ?PR?CLOCK_INC_MS39?CLOCK
0030A4H   0031F6H   000153H   BYTE   UNIT     CODE           ?PR?RUN_SHELL?SHELL
0031F7H   003342H   00014CH   BYTE   UNIT     CODE           ?PR?_CMD_THERMO?CMD_THERMO
003343H   003489H   000147H   BYTE   UNIT     CODE           ?PR?_DISPLAY_GLOBAL_FLAG?SM_CLOCK_MOD_GLOBAL_FLAG
00348AH   0035B8H   00012FH   BYTE   UNIT     CODE           ?PR?_SM_CLOCK_TIMER?SM_CLOCK_TIMER
0035B9H   0036CBH   000113H   BYTE   UNIT     CODE           ?PR?_CMD_SM?CMD_SM
0036CCH   0037D8H   00010DH   BYTE   UNIT     CODE           ?PR?_UPDATE_ALARM?SM_CLOCK_MOD_ALARM
0037D9H   0038E4H   00010CH   BYTE   UNIT     CODE           ?PR?_CLOCK_YYMMDD_TO_DAY?CLOCK
0038E5H   0039F0H   00010CH   BYTE   UNIT     CODE           ?PR?_SM_CLOCK_DISPLAY?SM_CLOCK_DISPLAY
0039F1H   003AF6H   000106H   BYTE   UNIT     CODE           ?PR?_SCAN_KEY_PROC?KEY
003AF7H   003BF4H   0000FEH   BYTE   UNIT     CODE           ?PR?_SM_CLOCK_MOD_GLOBAL_FLAG?SM_CLOCK_MOD_GLOBAL_FLAG
003BF5H   003CE8H   0000F4H   BYTE   UNIT     CODE           ?PR?SM_DUMP?SM
003CE9H   003DD6H   0000EEH   BYTE   UNIT     CODE           ?PR?_CMD_BEEPER?CMD_BEEPER
003DD7H   003EC3H   0000EDH   BYTE   UNIT     CODE           ?PR?_GETS?GETS
003EC4H   003FAAH   0000E7H   BYTE   UNIT     CODE           ?PR?ROM_RESET?ROM
003FABH   004085H   0000DBH   BYTE   UNIT     CODE           ?PR?_ATOI?ATOI
004086H   00415EH   0000D9H   BYTE   UNIT     CODE           ?PR?TIMER_INC_MS39?TIMER
00415FH   004231H   0000D3H   BYTE   UNIT     CODE           ?PR?MPU_POWER_ON?MPU
004232H   004300H   0000CFH   BYTE   UNIT     CODE           ?PR?RTC_ALARM_GET_MODE?RTC
004301H   0043CEH   0000CEH   BYTE   UNIT     CODE           ?PR?_SM_SET_STATE_BY_NAME?SM
0043CFH   00449CH   0000CEH   BYTE   UNIT     CODE           ?PR?_SM_FUSE_GRENADE?SM_FUSE_GRENADE
00449DH   004566H   0000CAH   BYTE   UNIT     CODE           ?PR?_DISPLAY_ALARM?SM_CLOCK_ALARM
004567H   00462BH   0000C5H   BYTE   UNIT     CODE           ?PR?_I2C_WRITE?CMD_I2C
00462CH   0046EAH   0000BFH   BYTE   UNIT     CODE           ?PR?LT_TIMER_SUB_DATE?LT_TIMER
0046EBH   0047A6H   0000BCH   BYTE   UNIT     CODE           ?PR?_CMD_TASK?CMD_TASK
0047A7H   004860H   0000BAH   BYTE   UNIT     CODE           ?PR?_CMD_MPU?CMD_MPU
004861H   004918H   0000B8H   BYTE   UNIT     CODE           ?PR?_SM_SET_TABLE_BY_NAME?SM
004919H   0049CFH   0000B7H   BYTE   UNIT     CODE           ?PR?RTC
0049D0H   004A86H   0000B7H   BYTE   UNIT     CODE           ?PR?_TEST_HG_STATE_MASK?SM_FUSE_TEST
004A87H   004B39H   0000B3H   BYTE   UNIT     CODE           ?PR?_DISPLAY_ERROR_CODE?SM_FUSE_TEST
004B3AH   004BECH   0000B3H   BYTE   UNIT     CODE           ?PR?_INC_ONLY?SM_FUSE_PARAM
004BEDH   004C9EH   0000B2H   BYTE   UNIT     CODE           ?PR?_WRITE_ONLY?SM_FUSE_PARAM
004C9FH   004D4DH   0000AFH   BYTE   UNIT     CODE           ?PR?UPDATE_HHMMSS?SM_CLOCK_MOD_TIME
004D4EH   004DFCH   0000AFH   BYTE   UNIT     CODE           ?PR?UPDATE_HHMMSS?SM_FUSE_PARAM
004DFDH   004EA6H   0000AAH   BYTE   UNIT     CODE           ?PR?_MPU_READ_ACC?MPU
004EA7H   004F4DH   0000A7H   BYTE   UNIT     CODE           ?PR?RUN_TASK?TASK
004F4EH   004FF3H   0000A6H   BYTE   UNIT     CODE           ?PR?_CMD_SERIAL?CMD_SERIAL
004FF4H   005093H   0000A0H   BYTE   UNIT     CODE           ?PR?__BEEPLER_PLAY?BEEPER
005094H   005131H   00009EH   BYTE   UNIT     CODE           ?PR?_RTC_DATE_SET_DATE?RTC
005132H   0051CEH   00009DH   BYTE   UNIT     CODE           ?PR?ROM_DUMP?ROM
0051CFH   00526AH   00009CH   BYTE   UNIT     CODE           ?PR?LT_TIMER_DEC_SEC?LT_TIMER
00526BH   005303H   000099H   BYTE   UNIT     CODE           ?PR?UPDATE_HHMMSS?SM_CLOCK_COUNTER
005304H   005399H   000096H   BYTE   UNIT     CODE           ?PR?_RTC_GET_TEMPERATURE?RTC
00539AH   00542CH   000093H   BYTE   UNIT     CODE           ?PR?CLOCK_DUMP?CLOCK
00542DH   0054BBH   00008FH   BYTE   UNIT     CODE           ?PR?_SM_FUSE_MODE?SM_FUSE_MODE
0054BCH   005549H   00008EH   BYTE   UNIT     CODE           ?PR?_RTC_ALARM_SET_MODE?RTC
00554AH   0055D5H   00008CH   BYTE   UNIT     CODE           ?PR?UPDATE_YYMMDD?SM_CLOCK_MOD_TIME
0055D6H   005661H   00008CH   BYTE   UNIT     CODE           ?PR?UPDATE_YYMMDD?SM_FUSE_PARAM
005662H   0056ECH   00008BH   BYTE   UNIT     CODE           ?PR?DISPLAY_TEMP?SM_CLOCK_DISPLAY
0056EDH   005775H   000089H   BYTE   UNIT     CODE           ?PR?_I2C_READ?CMD_I2C
005776H   0057FCH   000087H   BYTE   UNIT     CODE           ?PR?_SM_SET_SUB_STATE_BY_NAME?SM
0057FDH   00587FH   000083H   BYTE   UNIT     CODE           ?PR?SCAN_THERMO?THERMO
005880H   005900H   000081H   BYTE   UNIT     CODE           ?PR?_INC_WRITE?SM_CLOCK_MOD_GLOBAL_FLAG
005901H   005980H   000080H   BYTE   UNIT     CODE           ?PR?_SM_FUSE_DETONATE?SM_FUSE_DETONATE
005981H   0059FFH   00007FH   BYTE   UNIT     CODE           ?PR?_DISPLAY_SLOT?SM_CLOCK_TIMER
005A00H   005A7DH   00007EH   BYTE   UNIT     CODE           ?PR?_SCAN_FUSE?FUSE
005A7EH   005AF9H   00007CH   BYTE   UNIT     CODE           ?PR?_CALL_CMD?SHELL
005AFAH   005B75H   00007CH   BYTE   UNIT     CODE           ?PR?_UPDATE_THERMO?SM_FUSE_PARAM
005B76H   005BEFH   00007AH   BYTE   UNIT     CODE           ?PR?TASK_DUMP?TASK
005BF0H   005C69H   00007AH   BYTE   UNIT     CODE           ?PR?CLOCK
005C6AH   005CE2H   000079H   BYTE   UNIT     CODE           ?PR?VERIFY_PASSWORD?SM_FUSE_TIMER
005CE3H   005D5AH   000078H   BYTE   UNIT     CODE           ?PR?SCAN_ALARM?ALARM
005D5BH   005DCFH   000075H   BYTE   UNIT     CODE           ?PR?_SCAN_HG?HG
005DD0H   005E44H   000075H   BYTE   UNIT     CODE           ?PR?LT_TIMER
005E45H   005EB9H   000075H   BYTE   UNIT     CODE           ?PR?_SM_CLOCK_ALARM?SM_CLOCK_ALARM
LX51 LINKER/LOCATER V4.66.87.0                                                        04/18/2018  10:36:57  PAGE 7


005EBAH   005F27H   00006EH   BYTE   UNIT     CODE           ?PR?_I2C_GETS?I2C
005F28H   005F94H   00006DH   BYTE   UNIT     CODE           ?PR?COM_ISR?COM
005F95H   006000H   00006CH   BYTE   UNIT     CODE           ?PR?INT_HUB_INITIALIZE?INT_HUB
006001H   00606BH   00006BH   BYTE   UNIT     CODE           ?PR?_CLOCK_SYNC_FROM_RTC?CLOCK
00606CH   0060D6H   00006BH   BYTE   UNIT     CODE           ?PR?_CLOCK_SYNC_TO_RTC?CLOCK
0060D7H   00613EH   000068H   BYTE   UNIT     CODE           ?PR?_DISPLAY_PARAM_ERROR?MOD_COMMON
00613FH   0061A6H   000068H   BYTE   UNIT     CODE           ?PR?LT_TIMER_GET_RELATIVE?LT_TIMER
0061A7H   00620DH   000067H   BYTE   UNIT     CODE           ?PR?_WRITE_ONLY?SM_CLOCK_MOD_TIME
00620EH   006273H   000066H   BYTE   UNIT     CODE           ?PR?CMD_MPU
006274H   0062D8H   000065H   BYTE   UNIT     CODE           ?PR?ALARM_DUMP?ALARM
0062D9H   00633BH   000063H   BYTE   UNIT     CODE           ?PR?INT_HUB_GET_STATUS?INT_HUB
00633CH   00639CH   000061H   BYTE   UNIT     CODE           ?PR?_ALARM0_SET_ENABLE?ALARM
00639DH   0063FDH   000061H   BYTE   UNIT     CODE           ?PR?MPU_READ?CMD_MPU
0063FEH   00645DH   000060H   BYTE   UNIT     CODE           ?PR?INT_HUB_DUMP?INT_HUB
00645EH   0064BCH   00005FH   BYTE   UNIT     CODE           ?PR?_SCAN_INT_HUB_PROC?INT_HUB
0064BDH   00651BH   00005FH   BYTE   UNIT     CODE           ?PR?_DISPLAY_PARAM_ERROR?SM_FUSE_TIMER
00651CH   006579H   00005EH   BYTE   UNIT     CODE           ?PR?_INC_ONLY?SM_CLOCK_MOD_TIME
00657AH   0065D5H   00005CH   BYTE   UNIT     CODE           ?PR?_DISPLAY_GRENADE?SM_FUSE_GRENADE
0065D6H   00662FH   00005AH   BYTE   UNIT     CODE           ?PR?REFRESH_LED?LED
006630H   006688H   000059H   BYTE   UNIT     CODE           ?PR?SM_DUMP_SUB_STATE?SM
006689H   0066E1H   000059H   BYTE   UNIT     CODE           ?PR?_RTC_READ_DATA?RTC
0066E2H   00673AH   000059H   BYTE   UNIT     CODE           ?PR?THERMO_POWER_ON?THERMO
00673BH   006792H   000058H   BYTE   UNIT     CODE           ?PR?_LT_TIMER_SYNC_TO_ROM?LT_TIMER
006793H   0067E9H   000057H   BYTE   UNIT     CODE           ?PR?_RTC_WRITE_DATA?RTC
0067EAH   00683EH   000055H   BYTE   UNIT     CODE           ?PR?_I2C_PUTS?I2C
00683FH   006892H   000054H   BYTE   UNIT     CODE           ?PR?_CMD_HELP?CMD_HELP
006893H   0068E4H   000052H   BYTE   UNIT     CODE           ?PR?_DISPLAY_LOGO?MOD_COMMON
0068E5H   006935H   000051H   BYTE   UNIT     CODE           ?PR?ALARM0_SYNC_TO_RTC?ALARM
006936H   006986H   000051H   BYTE   UNIT     CODE           ?PR?DELAY_TASK_CALL?DELAY_TASK
006987H   0069D7H   000051H   BYTE   UNIT     CODE           ?PR?GRENADE_CHECK_SET_PARAM?SM_FUSE_GRENADE
0069D8H   006A27H   000050H   BYTE   UNIT     CODE           ?PR?SM_DUMP_STATE?SM
006A28H   006A77H   000050H   BYTE   UNIT     CODE           ?PR?_MOD_PROC?KEY
006A78H   006AC7H   000050H   BYTE   UNIT     CODE           ?PR?_SET_PROC?KEY
006AC8H   006B17H   000050H   BYTE   UNIT     CODE           ?PR?_LED_SET_CODE?LED
006B18H   006B66H   00004FH   BYTE   UNIT     CODE           ?PR?_DISPLAY_PREARM_STEP?SM_FUSE_TIMER
006B67H   006BB4H   00004EH   BYTE   UNIT     CODE           ?PR?SHELL
006BB5H   006C00H   00004CH   BYTE   UNIT     CODE           ?PR?_THERMO_LO_THRESHOLD_SET?THERMO
006C01H   006C4CH   00004CH   BYTE   UNIT     CODE           ?PR?_WRITE_ONLY?SM_CLOCK_MOD_ALARM
006C4DH   006C95H   000049H   BYTE   UNIT     CODE           ?PR?MAIN?MAIN
006C96H   006CDEH   000049H   BYTE   UNIT     CODE           ?PR?_THERMO_HI_THRESHOLD_SET?THERMO
006CDFH   006D27H   000049H   BYTE   UNIT     CODE           ?PR?_DELAY_TASK_REG?DELAY_TASK
006D28H   006D70H   000049H   BYTE   UNIT     CODE           ?PR?_SHELL_SEARCH_CMD_BY_NAME?SHELL
006D71H   006DB8H   000048H   BYTE   UNIT     CODE           ?PR?_SM_FUSE_POWERSAVE?SM_FUSE_POWERSAVE
006DB9H   006DFFH   000047H   BYTE   UNIT     CODE           ?PR?POWER_ENTER_POWERSAVE?POWER
006E00H   006E46H   000047H   BYTE   UNIT     CODE           ?PR?MPU_POWER_OFF?MPU
006E47H   006E8DH   000047H   BYTE   UNIT     CODE           ?PR?_CMD_DBG?CMD_DBG
006E8EH   006ED2H   000045H   BYTE   UNIT     CODE           ?PR?_INC_ONLY?SM_CLOCK_COUNTER
006ED3H   006F16H   000044H   BYTE   UNIT     CODE           ?PR?_THERMO_TEMP_TO_HEX?THERMO
006F17H   006F59H   000043H   BYTE   UNIT     CODE           ?PR?BEEPER_INITIALIZE?BEEPER
006F5AH   006F9BH   000042H   BYTE   UNIT     CODE           ?PR?BEEPER_BEEP_BEEP?BEEPER
006F9CH   006FDCH   000041H   BYTE   UNIT     CODE           ?PR?SM_FUSE_TEST
006FDDH   00701CH   000040H   BYTE   UNIT     CODE           ?PR?SCAN_LT_TIMER?LT_TIMER
00701DH   00705CH   000040H   BYTE   UNIT     CODE           ?PR?_UPDATE_ONOFF?SM_FUSE_PARAM
00705DH   00709BH   00003FH   BYTE   UNIT     CODE           ?PR?SM_SHOW_CURRENT?SM
00709CH   0070DAH   00003FH   BYTE   UNIT     CODE           ?PR?BEEPER_BEEP_BEEP_ALWAYS?BEEPER
0070DBH   007119H   00003FH   BYTE   UNIT     CODE           ?PR?_DISPLAY_TIMER?SM_FUSE_TIMER
00711AH   007157H   00003EH   BYTE   UNIT     CODE           ?PR?__RTC_SET_HOUR?RTC
007158H   007195H   00003EH   BYTE   UNIT     CODE           ?PR?_FUSE_SET_FUSE_BROKE?FUSE
007196H   0071D3H   00003EH   BYTE   UNIT     CODE           ?PR?ROM_INITIALIZE?ROM
0071D4H   007210H   00003DH   BYTE   UNIT     CODE           ?PR?THERMO_GET_CURRENT?THERMO
007211H   00724DH   00003DH   BYTE   UNIT     CODE           ?PR?_CMD_REBOOT?CMD_REBOOT
00724EH   007289H   00003CH   BYTE   UNIT     CODE           ?PR?DUMP_RTC?RTC
00728AH   0072C4H   00003BH   BYTE   UNIT     CODE           ?PR?LT_TIMER_SYNC_TO_RTC?LT_TIMER
0072C5H   0072FFH   00003BH   BYTE   UNIT     CODE           ?PR?CMD_SM
007300H   007339H   00003AH   BYTE   UNIT     CODE           ?PR?LED_INITIALIZE?LED
LX51 LINKER/LOCATER V4.66.87.0                                                        04/18/2018  10:36:57  PAGE 8


00733AH   007373H   00003AH   BYTE   UNIT     CODE           ?PR?LT_TIMER_SUB_MIN_HOUR?LT_TIMER
007374H   0073ADH   00003AH   BYTE   UNIT     CODE           ?PR?LT_TIMER_SUB_HOUR_DATE?LT_TIMER
0073AEH   0073E7H   00003AH   BYTE   UNIT     CODE           ?PR?SERIAL_HUB_INITIALIZE?SERIAL_HUB
0073E8H   007421H   00003AH   BYTE   UNIT     CODE           ?PR?_ENTER_ALARM?SM_CLOCK_MOD_ALARM
007422H   00745AH   000039H   BYTE   UNIT     CODE           ?PR?_SHOW_SLOT_TITLE?SM_CLOCK_TIMER
00745BH   007493H   000039H   BYTE   UNIT     CODE           ?PR?_UPDATE_PASSWORD?SM_FUSE_PARAM
007494H   0074CCH   000039H   BYTE   UNIT     CODE           ?PR?_CMD_INT?CMD_INT
0074CDH   007504H   000038H   BYTE   UNIT     CODE           ?PR?SM_DUMP_TABLE?SM
007505H   00753CH   000038H   BYTE   UNIT     CODE           ?PR?CLOCK0_ISR?CLOCK
00753DH   007574H   000038H   BYTE   UNIT     CODE           ?PR?SM_CLOCK_MOD_TIME
007575H   0075ACH   000038H   BYTE   UNIT     CODE           ?PR?SM_FUSE_PARAM
0075ADH   0075E3H   000037H   BYTE   UNIT     CODE           ?PR?TIMER
0075E4H   00761AH   000037H   BYTE   UNIT     CODE           ?PR?LT_TIMER_SYNC_FROM_ROM?LT_TIMER
00761BH   007651H   000037H   BYTE   UNIT     CODE           ?PR?_DEBUG_PRINTF?DEBUG
007652H   007687H   000036H   BYTE   UNIT     CODE           ?PR?_MOD_SET_PROC?KEY
007688H   0076BCH   000035H   BYTE   UNIT     CODE           ?PR?SHELL_DUMP_CMD?SHELL
0076BDH   0076F1H   000035H   BYTE   UNIT     CODE           ?PR?_VPRINTF?VPRINTF
0076F2H   007725H   000034H   BYTE   UNIT     CODE           ?PR?ALARM_SAVE_ROM?ALARM
007726H   007759H   000034H   BYTE   UNIT     CODE           ?PR?THERMO
00775AH   00778DH   000034H   BYTE   UNIT     CODE           ?PR?_ROM_READ?ROM
00778EH   0077C1H   000034H   BYTE   UNIT     CODE           ?PR?_INC_ONLY?SM_CLOCK_MOD_ALARM
0077C2H   0077F4H   000033H   BYTE   UNIT     CODE           ?PR?ALARM_LOAD_ROM?ALARM
0077F5H   007827H   000033H   BYTE   UNIT     CODE           ?PR?ALARM1_SYNC_TO_RTC?ALARM
007828H   00785AH   000033H   BYTE   UNIT     CODE           ?PR?_DISPLAY_MODE?SM_FUSE_MODE
00785BH   00788DH   000033H   BYTE   UNIT     CODE           ?PR?_CMD_I2C?CMD_I2C
00788EH   0078BFH   000032H   BYTE   UNIT     CODE           ?PR?INT0_ISR?KEY
0078C0H   0078F1H   000032H   BYTE   UNIT     CODE           ?PR?_SM_CLOCK_POWERSAVE?SM_CLOCK_POWERSAVE
0078F2H   007922H   000031H   BYTE   UNIT     CODE           ?PR?POWER_INITIALIZE?POWER
007923H   007953H   000031H   BYTE   UNIT     CODE           ?PR?_ROM_WRITE?ROM
007954H   007983H   000030H   BYTE   UNIT     CODE           ?PR?POWER_LEAVE_POWERSAVE?POWER
007984H   0079B3H   000030H   BYTE   UNIT     CODE           ?PR?POWER_TEST_POWERSAVE_TO?POWER
0079B4H   0079E3H   000030H   BYTE   UNIT     CODE           ?PR?_SERIAL_SET_CTL_BIT?SERIAL_HUB
0079E4H   007A13H   000030H   BYTE   UNIT     CODE           ?PR?DISPLAY_PASSWORD?SM_FUSE_TIMER
007A14H   007A42H   00002FH   BYTE   UNIT     CODE           ?PR?_PUTBUF?COM
007A43H   007A71H   00002FH   BYTE   UNIT     CODE           ?PR?I2C_READ?I2C
007A72H   007AA0H   00002FH   BYTE   UNIT     CODE           ?PR?_ALARM0_TEST_ENABLE?ALARM
007AA1H   007ACEH   00002EH   BYTE   UNIT     CODE           ?PR?SHOW_VERSION?MAIN
007ACFH   007AFCH   00002EH   BYTE   UNIT     CODE           ?PR?FUSE_ENABLE?FUSE
007AFDH   007B2AH   00002EH   BYTE   UNIT     CODE           ?PR?_SERIAL_TEST_CTL_BIT?SERIAL_HUB
007B2BH   007B57H   00002DH   BYTE   UNIT     CODE           ?PR?BEEPER_ISR?BEEPER
007B58H   007B84H   00002DH   BYTE   UNIT     CODE           ?PR?CLOCK_INITIALIZE?CLOCK
007B85H   007BB1H   00002DH   BYTE   UNIT     CODE           ?PR?FUSE_TRIGGER?FUSE
007BB2H   007BDDH   00002CH   BYTE   UNIT     CODE           ?PR?__RTC_SET_MIN_SEC?RTC
007BDEH   007C09H   00002CH   BYTE   UNIT     CODE           ?PR?__RTC_SET_DATE?RTC
007C0AH   007C35H   00002CH   BYTE   UNIT     CODE           ?PR?_ALARM_PROC?ALARM
007C36H   007C61H   00002CH   BYTE   UNIT     CODE           ?PR?_WRITE_ONLY?SM_CLOCK_COUNTER
007C62H   007C8CH   00002BH   BYTE   UNIT     CODE           ?PR?_ENTER_YYMMDD?SM_CLOCK_MOD_TIME
007C8DH   007CB7H   00002BH   BYTE   UNIT     CODE           ?PR?_ENTER_YYMMDD?SM_FUSE_PARAM
007CB8H   007CE1H   00002AH   BYTE   UNIT     CODE           ?PR?BEEPER_BEEP?BEEPER
007CE2H   007D0BH   00002AH   BYTE   UNIT     CODE           ?PR?_ENTER_HHMMSS?SM_CLOCK_COUNTER
007D0CH   007D35H   00002AH   BYTE   UNIT     CODE           ?PR?_ENTER_HHMMSS?SM_CLOCK_MOD_TIME
007D36H   007D5FH   00002AH   BYTE   UNIT     CODE           ?PR?_ENTER_HHMMSS?SM_FUSE_PARAM
007D60H   007D87H   000028H   BYTE   UNIT     CODE           ?PR?COM_INITIALIZE?COM
007D88H   007DAFH   000028H   BYTE   UNIT     CODE           ?PR?_RTC_SET_HOUR_12?RTC
007DB0H   007DD7H   000028H   BYTE   UNIT     CODE           ?PR?HG_ENABLE?HG
007DD8H   007DFEH   000027H   BYTE   UNIT     CODE           ?PR?_INT_HUB_TEST_BIT?INT_HUB
007DFFH   007E25H   000027H   BYTE   UNIT     CODE           ?PR?SM_CLOCK_COUNTER
007E26H   007E4BH   000026H   BYTE   UNIT     CODE           ?PR?LED_SAVE?LED
007E4CH   007E71H   000026H   BYTE   UNIT     CODE           ?PR?LED_RESTORE?LED
007E72H   007E97H   000026H   BYTE   UNIT     CODE           ?PR?FUSE_SET_TRIPWIRE_BROKE?FUSE
007E98H   007EBDH   000026H   BYTE   UNIT     CODE           ?PR?MPU
007EBEH   007EE3H   000026H   BYTE   UNIT     CODE           ?PR?CMD_BEEPER
007EE4H   007F08H   000025H   BYTE   UNIT     CODE           ?PR?SM_INITIALIZE?SM
007F09H   007F2DH   000025H   BYTE   UNIT     CODE           ?PR?_RTC_ENABLE_ALARM_INT?RTC
007F2EH   007F51H   000024H   BYTE   UNIT     CODE           ?PR?__RTC_GET_HOUR?RTC
LX51 LINKER/LOCATER V4.66.87.0                                                        04/18/2018  10:36:57  PAGE 9


007F52H   007F75H   000024H   BYTE   UNIT     CODE           ?PR?POWER_INC_POWERSAVE_TO?POWER
007F76H   007F99H   000024H   BYTE   UNIT     CODE           ?PR?_TIMER_SAVE?TIMER
007F9AH   007FBDH   000024H   BYTE   UNIT     CODE           ?PR?HG_POWER_ON?HG
007FBEH   007FE1H   000024H   BYTE   UNIT     CODE           ?PR?_THERMO_HEX_TO_TEMP?THERMO
007FE2H   008005H   000024H   BYTE   UNIT     CODE           ?PR?SM_CLOCK_MOD_ALARM
008006H   008028H   000023H   BYTE   UNIT     CODE           ?PR?LT_TIMER_LEAVE_POWERSAVE?LT_TIMER
008029H   00804BH   000023H   BYTE   UNIT     CODE           ?PR?SM_FUSE_TIMER
00804CH   00806DH   000022H   BYTE   UNIT     CODE           ?PR?I2C_GETACK?I2C
00806EH   00808FH   000022H   BYTE   UNIT     CODE           ?PR?BEEPER_PLAY_MUSIC?BEEPER
008090H   0080B1H   000022H   BYTE   UNIT     CODE           ?PR?_TOGGLE_ALARM?SM_CLOCK_MOD_ALARM
0080B2H   0080D3H   000022H   BYTE   UNIT     CODE           ?PR?_ENTER_THERMO?SM_FUSE_PARAM
0080D4H   0080F5H   000022H   BYTE   UNIT     CODE           ?PR?_ENTER_ONOFF?SM_FUSE_PARAM
0080F6H   008116H   000021H   BYTE   UNIT     CODE           ?PR?CMD_I2C
008117H   008136H   000020H   BYTE   UNIT     CODE           ?C_C51STARTUP
008137H   008156H   000020H   BYTE   UNIT     CODE           ?PR?ALARM_SWITCH_OFF?ALARM
008157H   008176H   000020H   BYTE   UNIT     CODE           ?PR?CLOCK_INC_DATE?CLOCK
008177H   008196H   000020H   BYTE   UNIT     CODE           ?PR?LT_TIMER_SWITCH_OFF?LT_TIMER
008197H   0081B6H   000020H   BYTE   UNIT     CODE           ?PR?DELAY_TASK
0081B7H   0081D6H   000020H   BYTE   UNIT     CODE           ?PR?TEST_AUTOSWITCH?SM_CLOCK_DISPLAY
0081D7H   0081F6H   000020H   BYTE   UNIT     CODE           ?PR?CMD_THERMO
0081F7H   008215H   00001FH   BYTE   UNIT     CODE           ?PR?_I2C_WRITE?I2C
008216H   008234H   00001FH   BYTE   UNIT     CODE           ?PR?MPU_ENABLE?MPU
008235H   008252H   00001EH   BYTE   UNIT     CODE           ?PR?LT_TIMER_START_RTC?LT_TIMER
008253H   008270H   00001EH   BYTE   UNIT     CODE           ?PR?LT_TIMER_STOP_RTC?LT_TIMER
008271H   00828EH   00001EH   BYTE   UNIT     CODE           ?PR?LT_TIMER_SUB_SEC_MIN?LT_TIMER
00828FH   0082ABH   00001DH   BYTE   UNIT     CODE           ?PR?RTC_ALARM_SET_HOUR_12?RTC
0082ACH   0082C8H   00001DH   BYTE   UNIT     CODE           ?PR?_RTC_ALARM_SET_SEC?RTC
0082C9H   0082E5H   00001DH   BYTE   UNIT     CODE           ?PR?_RTC_TEST_ALARM_INT?RTC
0082E6H   008302H   00001DH   BYTE   UNIT     CODE           ?PR?_RTC_TEST_ALARM_INT_FLAG?RTC
008303H   00831FH   00001DH   BYTE   UNIT     CODE           ?PR?LED
008320H   00833CH   00001DH   BYTE   UNIT     CODE           ?PR?_CLOCK_GET_MON_DATE?CLOCK
00833DH   008358H   00001CH   BYTE   UNIT     CODE           ?PR?_TIMER_INC_HOUR?TIMER
008359H   008374H   00001CH   BYTE   UNIT     CODE           ?PR?_TIMER_GET_MS10?TIMER
008375H   00838FH   00001BH   BYTE   UNIT     CODE           ?PR?BEEPER
008390H   0083AAH   00001BH   BYTE   UNIT     CODE           ?PR?SERIAL_CTL_OUT?SERIAL_HUB
0083ABH   0083C4H   00001AH   BYTE   UNIT     CODE           ?PR?_RTC_ALARM_SET_DATE?RTC
0083C5H   0083DEH   00001AH   BYTE   UNIT     CODE           ?PR?RTC_ENTER_POWERSAVE?RTC
0083DFH   0083F8H   00001AH   BYTE   UNIT     CODE           ?PR?_POWER_PROC?POWER
0083F9H   008412H   00001AH   BYTE   UNIT     CODE           ?PR?LT_TIMER_DISPLAY?LT_TIMER
008413H   00842CH   00001AH   BYTE   UNIT     CODE           ?PR?THERMO_HI_ENABLE?THERMO
00842DH   008446H   00001AH   BYTE   UNIT     CODE           ?PR?THERMO_LO_ENABLE?THERMO
008447H   008460H   00001AH   BYTE   UNIT     CODE           ?PR?_ENTER_PASSWORD?SM_FUSE_PARAM
008461H   008479H   000019H   BYTE   UNIT     CODE           ?PR?_PUTCHAR?COM
00847AH   008492H   000019H   BYTE   UNIT     CODE           ?PR?KEY_INITIALIZE?KEY
008493H   0084ABH   000019H   BYTE   UNIT     CODE           ?PR?_TIMER_GET_HOUR?TIMER
0084ACH   0084C4H   000019H   BYTE   UNIT     CODE           ?PR?_TIMER_GET_MIN?TIMER
0084C5H   0084DDH   000019H   BYTE   UNIT     CODE           ?PR?_TIMER_INC_MIN?TIMER
0084DEH   0084F6H   000019H   BYTE   UNIT     CODE           ?PR?_TIMER_GET_SEC?TIMER
0084F7H   00850FH   000019H   BYTE   UNIT     CODE           ?PR?_TIMER_INC_SEC?TIMER
008510H   008528H   000019H   BYTE   UNIT     CODE           ?PR?SERIAL_HUB
008529H   008541H   000019H   BYTE   UNIT     CODE           ?PR?THERMO_HI_THRESHOLD_GET?THERMO
008542H   00855AH   000019H   BYTE   UNIT     CODE           ?PR?THERMO_LO_THRESHOLD_GET?THERMO
00855BH   008573H   000019H   BYTE   UNIT     CODE           ?PR?SM_CLOCK_DISPLAY
008574H   00858BH   000018H   BYTE   UNIT     CODE           ?PR?CLOCK_LEAVE_POWERSAVE?CLOCK
00858CH   0085A3H   000018H   BYTE   UNIT     CODE           ?PR?TIMER_CLR?TIMER
0085A4H   0085BBH   000018H   BYTE   UNIT     CODE           ?PR?CMD_DBG
0085BCH   0085D2H   000017H   BYTE   UNIT     CODE           ?PR?COM
0085D3H   0085E9H   000017H   BYTE   UNIT     CODE           ?PR?_RTC_CLR_ALARM_INT_FLAG?RTC
0085EAH   008600H   000017H   BYTE   UNIT     CODE           ?PR?_I2C_GET?I2C
008601H   008617H   000017H   BYTE   UNIT     CODE           ?PR?_LED_CLR_BLINK?LED
008618H   00862EH   000017H   BYTE   UNIT     CODE           ?PR?POWER_GET_POWERSAVE_TO?POWER
00862FH   008645H   000017H   BYTE   UNIT     CODE           ?PR?BEEPER_INC_MUSIC_INDEX?BEEPER
008646H   00865CH   000017H   BYTE   UNIT     CODE           ?PR?_CLOCK_IS_LEAP_YEAR?CLOCK
00865DH   008673H   000017H   BYTE   UNIT     CODE           ?PR?LT_TIMER_SWITCH_DISPLAY?LT_TIMER
008674H   00868AH   000017H   BYTE   UNIT     CODE           ?PR?DISPLAY_DETONATE?SM_FUSE_DETONATE
LX51 LINKER/LOCATER V4.66.87.0                                                        04/18/2018  10:36:57  PAGE 10


00868BH   0086A0H   000016H   BYTE   UNIT     CODE           ?PR?RTC_ALARM_GET_HOUR?RTC
0086A1H   0086B6H   000016H   BYTE   UNIT     CODE           ?PR?RTC_ALARM_GET_HOUR_12?RTC
0086B7H   0086CCH   000016H   BYTE   UNIT     CODE           ?PR?RTC_ALARM_GET_MIN?RTC
0086CDH   0086E2H   000016H   BYTE   UNIT     CODE           ?PR?_RTC_ALARM_SET_DAY?RTC
0086E3H   0086F8H   000016H   BYTE   UNIT     CODE           ?PR?I2C_STOP?I2C
0086F9H   00870EH   000016H   BYTE   UNIT     CODE           ?PR?_LED_SET_BLINK?LED
00870FH   008724H   000016H   BYTE   UNIT     CODE           ?PR?CLOCK_INC_MONTH?CLOCK
008725H   00873AH   000016H   BYTE   UNIT     CODE           ?PR?CLOCK_LEAVE_SHELL?CLOCK
00873BH   008750H   000016H   BYTE   UNIT     CODE           ?PR?TIMER_START?TIMER
008751H   008766H   000016H   BYTE   UNIT     CODE           ?PR?_FUSE_PROC?FUSE
008767H   00877CH   000016H   BYTE   UNIT     CODE           ?PR?HG_POWER_OFF?HG
00877DH   008792H   000016H   BYTE   UNIT     CODE           ?PR?_THERMO_PROC?THERMO
008793H   0087A7H   000015H   BYTE   UNIT     CODE           ?PR?RTC_ALARM_GET_DATE?RTC
0087A8H   0087BCH   000015H   BYTE   UNIT     CODE           ?PR?LED_LEAVE_POWERSAVE?LED
0087BDH   0087D1H   000015H   BYTE   UNIT     CODE           ?PR?ALARM
0087D2H   0087E6H   000015H   BYTE   UNIT     CODE           ?PR?CLOCK_INC_YEAR?CLOCK
0087E7H   0087FBH   000015H   BYTE   UNIT     CODE           ?PR?LT_TIMER_ENTER_POWERSAVE?LT_TIMER
0087FCH   00880FH   000014H   BYTE   UNIT     CODE           ?PR?COM_TRY_GET_KEY?COM
008810H   008823H   000014H   BYTE   UNIT     CODE           ?PR?RTC_ALARM_GET_DAY?RTC
008824H   008837H   000014H   BYTE   UNIT     CODE           ?PR?RTC_ALARM_GET_SEC?RTC
008838H   00884BH   000014H   BYTE   UNIT     CODE           ?PR?RTC_LEAVE_POWERSAVE?RTC
00884CH   00885FH   000014H   BYTE   UNIT     CODE           ?PR?_I2C_PUT?I2C
008860H   008873H   000014H   BYTE   UNIT     CODE           ?PR?TASK_INITIALIZE?TASK
008874H   008887H   000014H   BYTE   UNIT     CODE           ?PR?BEEPER_INC_MUSIC_TO?BEEPER
008888H   00889BH   000014H   BYTE   UNIT     CODE           ?PR?CMD_HELP
00889CH   0088AFH   000014H   BYTE   UNIT     CODE           ?PR?GETCHAR?GETCHAR
0088B0H   0088C3H   000014H   BYTE   UNIT     CODE           ?PR?_ISSPACE?ISSPACE
0088C4H   0088D6H   000013H   BYTE   UNIT     CODE           ?PR?_TIME_PROC?SM
0088D7H   0088E9H   000013H   BYTE   UNIT     CODE           ?PR?SCAN_RTC?RTC
0088EAH   0088FCH   000013H   BYTE   UNIT     CODE           ?PR?_RTC_ALARM_SET_HOUR?RTC
0088FDH   00890FH   000013H   BYTE   UNIT     CODE           ?PR?_RTC_ALARM_SET_MIN?RTC
008910H   008922H   000013H   BYTE   UNIT     CODE           ?PR?INT_HUB
008923H   008935H   000013H   BYTE   UNIT     CODE           ?PR?FUSE_POWER_ON?FUSE
008936H   008948H   000013H   BYTE   UNIT     CODE           ?PR?FUSE_POWER_OFF?FUSE
008949H   00895BH   000013H   BYTE   UNIT     CODE           ?PR?THERMO_INITIALIZE?THERMO
00895CH   00896EH   000013H   BYTE   UNIT     CODE           ?PR?MPU_READ_INT_STATUS?MPU
00896FH   008980H   000012H   BYTE   UNIT     CODE           ?PR?_RTC_DATE_SET_DAY?RTC
008981H   008992H   000012H   BYTE   UNIT     CODE           ?PR?I2C_PUTACK?I2C
008993H   0089A4H   000012H   BYTE   UNIT     CODE           ?PR?TIMER_INITIALIZE?TIMER
0089A5H   0089B6H   000012H   BYTE   UNIT     CODE           ?PR?__HG_GET_STATE?HG
0089B7H   0089C8H   000012H   BYTE   UNIT     CODE           ?PR?HG_INITIALIZE?HG
0089C9H   0089DAH   000012H   BYTE   UNIT     CODE           ?PR?HG_GET_STATE?HG
0089DBH   0089ECH   000012H   BYTE   UNIT     CODE           ?PR?LT_TIMER_INITIALIZE?LT_TIMER
0089EDH   0089FEH   000012H   BYTE   UNIT     CODE           ?PR?SM_CLOCK_TIMER
0089FFH   008A0FH   000011H   BYTE   UNIT     CODE           ?PR?_SM_SET_STATE?SM
008A10H   008A20H   000011H   BYTE   UNIT     CODE           ?PR?I2C_DELAY?I2C
008A21H   008A31H   000011H   BYTE   UNIT     CODE           ?PR?KEY
008A32H   008A42H   000011H   BYTE   UNIT     CODE           ?PR?LED_CLEAR?LED
008A43H   008A53H   000011H   BYTE   UNIT     CODE           ?PR?LED_ENTER_POWERSAVE?LED
008A54H   008A64H   000011H   BYTE   UNIT     CODE           ?PR?INT1_ISR?INT_HUB
008A65H   008A75H   000011H   BYTE   UNIT     CODE           ?PR?_THERMO_THRESHOLD_INC?THERMO
008A76H   008A85H   000010H   BYTE   UNIT     CODE           ?PR?_GETKEY?COM
008A86H   008A95H   000010H   BYTE   UNIT     CODE           ?PR?RTC_TIME_SET_HOUR_12?RTC
008A96H   008AA5H   000010H   BYTE   UNIT     CODE           ?PR?TIMER_SET_LED_AUTOREFRESH?TIMER
008AA6H   008AB5H   000010H   BYTE   UNIT     CODE           ?PR?THERMO_HI_THRESHOLD_DEC?THERMO
008AB6H   008AC5H   000010H   BYTE   UNIT     CODE           ?PR?THERMO_HI_THRESHOLD_INC?THERMO
008AC6H   008AD5H   000010H   BYTE   UNIT     CODE           ?PR?THERMO_LO_THRESHOLD_DEC?THERMO
008AD6H   008AE5H   000010H   BYTE   UNIT     CODE           ?PR?THERMO_LO_THRESHOLD_INC?THERMO
008AE6H   008AF5H   000010H   BYTE   UNIT     CODE           ?PR?_INC_WRITE?SM_CLOCK_MOD_ALARM
008AF6H   008B05H   000010H   BYTE   UNIT     CODE           ?PR?_INC_AND_WRITE?SM_CLOCK_MOD_TIME
008B06H   008B15H   000010H   BYTE   UNIT     CODE           ?PR?_INC_AND_WRITE?SM_FUSE_PARAM
008B16H   008B24H   00000FH   BYTE   UNIT     CODE           ?PR?TASK
008B25H   008B33H   00000FH   BYTE   UNIT     CODE           ?PR?_LED_CLR_DP?LED
008B34H   008B42H   00000FH   BYTE   UNIT     CODE           ?PR?_LED_SET_DP?LED
008B43H   008B51H   00000FH   BYTE   UNIT     CODE           ?PR?ALARM_INITIALIZE?ALARM
LX51 LINKER/LOCATER V4.66.87.0                                                        04/18/2018  10:36:57  PAGE 11


008B52H   008B60H   00000FH   BYTE   UNIT     CODE           ?PR?ALARM_SWITCH_ON?ALARM
008B61H   008B6FH   00000FH   BYTE   UNIT     CODE           ?PR?LT_TIMER_RESET?LT_TIMER
008B70H   008B7EH   00000FH   BYTE   UNIT     CODE           ?PR?MPU_INITIALIZE?MPU
008B7FH   008B8DH   00000FH   BYTE   UNIT     CODE           ?PR?STOP_PERIPHERAL?SM_FUSE_TIMER
008B8EH   008B9CH   00000FH   BYTE   UNIT     CODE           ?PR?STOP_PERIPHERAL?SM_FUSE_POWERSAVE
008B9DH   008BABH   00000FH   BYTE   UNIT     CODE           ?PR?CMD_TASK
008BACH   008BBAH   00000FH   BYTE   UNIT     CODE           ?PR?_ISDIGIT?ISDIGIT
008BBBH   008BC8H   00000EH   BYTE   UNIT     CODE           ?PR?COM_ENTER_POWERSAVE?COM
008BC9H   008BD6H   00000EH   BYTE   UNIT     CODE           ?PR?ALARM0_INC_MIN?ALARM
008BD7H   008BE4H   00000EH   BYTE   UNIT     CODE           ?PR?ALARM0_INC_HOUR?ALARM
008BE5H   008BF2H   00000EH   BYTE   UNIT     CODE           ?PR?_DELAY_10US?MISC
008BF3H   008C00H   00000EH   BYTE   UNIT     CODE           ?PR?_DELAY_MS?MISC
008C01H   008C0EH   00000EH   BYTE   UNIT     CODE           ?PR?_BEEPER_STOP_PLAY?BEEPER
008C0FH   008C1CH   00000EH   BYTE   UNIT     CODE           ?PR?CLOCK_ENTER_POWERSAVE?CLOCK
008C1DH   008C2AH   00000EH   BYTE   UNIT     CODE           ?PR?FUSE_INITIALIZE?FUSE
008C2BH   008C38H   00000EH   BYTE   UNIT     CODE           ?PR?LT_TIMER_START_RAM?LT_TIMER
008C39H   008C46H   00000EH   BYTE   UNIT     CODE           ?PR?INC_PASSWORD?SM_FUSE_TIMER
008C47H   008C52H   00000CH   BYTE   UNIT     CODE           ?PR?RTC_DATE_GET_YEAR?RTC
008C53H   008C5EH   00000CH   BYTE   UNIT     CODE           ?PR?RTC_DATE_GET_MONTH?RTC
008C5FH   008C6AH   00000CH   BYTE   UNIT     CODE           ?PR?TIMER_ENTER_POWERSAVE?TIMER
008C6BH   008C76H   00000CH   BYTE   UNIT     CODE           ?PR?HG_CB_SET_ENABLE?HG
008C77H   008C82H   00000CH   BYTE   UNIT     CODE           ?PR?LT_TIMER_SWITCH_ON?LT_TIMER
008C83H   008C8EH   00000CH   BYTE   UNIT     CODE           ?PR?LT_TIMER_STOP_RAM?LT_TIMER
008C8FH   008C9AH   00000CH   BYTE   UNIT     CODE           ?PR?THERMO_HI_THRESHOLD_REACH_TOP?THERMO
008C9BH   008CA6H   00000CH   BYTE   UNIT     CODE           ?PR?THERMO_LO_THRESHOLD_REACH_TOP?THERMO
008CA7H   008CB2H   00000CH   BYTE   UNIT     CODE           ?PR?_CMD_NULL?SHELL
008CB3H   008CBDH   00000BH   BYTE   UNIT     CODE           ?PR?_SM_SET_SUB_STATE?SM
008CBEH   008CC8H   00000BH   BYTE   UNIT     CODE           ?PR?I2C_START?I2C
008CC9H   008CD3H   00000BH   BYTE   UNIT     CODE           ?PR?CLOCK_INC_MIN?CLOCK
008CD4H   008CDEH   00000BH   BYTE   UNIT     CODE           ?PR?CLOCK_INC_HOUR?CLOCK
008CDFH   008CE9H   00000BH   BYTE   UNIT     CODE           ?PR?HG
008CEAH   008CF4H   00000BH   BYTE   UNIT     CODE           ?PR?LT_TIMER_INC_YEAR?LT_TIMER
008CF5H   008CFFH   00000BH   BYTE   UNIT     CODE           ?PR?LT_TIMER_INC_MONTH?LT_TIMER
008D00H   008D0AH   00000BH   BYTE   UNIT     CODE           ?PR?LT_TIMER_INC_DATE?LT_TIMER
008D0BH   008D15H   00000BH   BYTE   UNIT     CODE           ?PR?LT_TIMER_INC_HOUR?LT_TIMER
008D16H   008D20H   00000BH   BYTE   UNIT     CODE           ?PR?LT_TIMER_INC_MIN?LT_TIMER
008D21H   008D2BH   00000BH   BYTE   UNIT     CODE           ?PR?LT_TIMER_INC_SEC?LT_TIMER
008D2CH   008D36H   00000BH   BYTE   UNIT     CODE           ?PR?THERMO_HI_THRESHOLD_REACH_BOTTOM?THERMO
008D37H   008D41H   00000BH   BYTE   UNIT     CODE           ?PR?THERMO_LO_THRESHOLD_REACH_BOTTOM?THERMO
008D42H   008D4CH   00000BH   BYTE   UNIT     CODE           ?PR?ROLLBACK_PARAM?SM_FUSE_TIMER
008D4DH   008D57H   00000BH   BYTE   UNIT     CODE           ?PR?CMD_SERIAL
008D58H   008D61H   00000AH   BYTE   UNIT     CODE           ?PR?I2C_INIT?I2C
008D62H   008D6BH   00000AH   BYTE   UNIT     CODE           ?PR?I2C
008D6CH   008D75H   00000AH   BYTE   UNIT     CODE           ?PR?INTERNAL_DELAY_MS?MISC
008D76H   008D7FH   00000AH   BYTE   UNIT     CODE           ?PR?THERMO_ENABLE?THERMO
008D80H   008D89H   00000AH   BYTE   UNIT     CODE           ?PR?_INC_AND_WRITE?SM_CLOCK_COUNTER
008D8AH   008D92H   000009H   BYTE   UNIT     CODE           ?PR?_RTC_TIME_SET_MIN?RTC
008D93H   008D9BH   000009H   BYTE   UNIT     CODE           ?PR?KEY_ENTER_POWERSAVE?KEY
008D9CH   008DA4H   000009H   BYTE   UNIT     CODE           ?PR?KEY_LEAVE_POWERSAVE?KEY
008DA5H   008DADH   000009H   BYTE   UNIT     CODE           ?PR?ALARM_ENTER_POWERSAVE?ALARM
008DAEH   008DB6H   000009H   BYTE   UNIT     CODE           ?PR?ALARM_LEAVE_POWERSAVE?ALARM
008DB7H   008DBFH   000009H   BYTE   UNIT     CODE           ?PR?POWER_RESET_POWERSAVE_TO?POWER
008DC0H   008DC8H   000009H   BYTE   UNIT     CODE           ?PR?BEEPER_ENTER_POWERSAVE?BEEPER
008DC9H   008DD1H   000009H   BYTE   UNIT     CODE           ?PR?BEEPER_LEAVE_POWERSAVE?BEEPER
008DD2H   008DDAH   000009H   BYTE   UNIT     CODE           ?PR?CLOCK_ENABLE_INTERRUPT?CLOCK
008DDBH   008DE3H   000009H   BYTE   UNIT     CODE           ?PR?TIMER_LEAVE_POWERSAVE?TIMER
008DE4H   008DECH   000009H   BYTE   UNIT     CODE           ?PR?FUSE_ENTER_POWERSAVE?FUSE
008DEDH   008DF5H   000009H   BYTE   UNIT     CODE           ?PR?FUSE_LEAVE_POWERSAVE?FUSE
008DF6H   008DFEH   000009H   BYTE   UNIT     CODE           ?PR?HG_ENTER_POWERSAVE?HG
008DFFH   008E07H   000009H   BYTE   UNIT     CODE           ?PR?HG_LEAVE_POWERSAVE?HG
008E08H   008E10H   000009H   BYTE   UNIT     CODE           ?PR?THERMO_POWER_OFF?THERMO
008E11H   008E19H   000009H   BYTE   UNIT     CODE           ?PR?THERMO_ENTER_POWERSAVE?THERMO
008E1AH   008E22H   000009H   BYTE   UNIT     CODE           ?PR?THERMO_LEAVE_POWERSAVE?THERMO
008E23H   008E2BH   000009H   BYTE   UNIT     CODE           ?PR?DELAY_TASK_INITIALIZE?DELAY_TASK
008E2CH   008E34H   000009H   BYTE   UNIT     CODE           ?PR?MPU_ENTER_POWERSAVE?MPU
LX51 LINKER/LOCATER V4.66.87.0                                                        04/18/2018  10:36:57  PAGE 12


008E35H   008E3DH   000009H   BYTE   UNIT     CODE           ?PR?MPU_LEAVE_POWERSAVE?MPU
008E3EH   008E46H   000009H   BYTE   UNIT     CODE           ?PR?SCAN_MPU?MPU
008E47H   008E4FH   000009H   BYTE   UNIT     CODE           ?PR?RESET_AUTO_SWITCH?SM_CLOCK_DISPLAY
008E50H   008E57H   000008H   BYTE   UNIT     CODE           ?PR?__RTC_GET_MIN_SEC?RTC
008E58H   008E5FH   000008H   BYTE   UNIT     CODE           ?PR?RTC_TIME_GET_HOUR?RTC
008E60H   008E67H   000008H   BYTE   UNIT     CODE           ?PR?RTC_TIME_GET_HOUR_12?RTC
008E68H   008E6FH   000008H   BYTE   UNIT     CODE           ?PR?RTC_TIME_GET_MIN?RTC
008E70H   008E77H   000008H   BYTE   UNIT     CODE           ?PR?RTC_TIME_GET_SEC?RTC
008E78H   008E7FH   000008H   BYTE   UNIT     CODE           ?PR?_RTC_DATE_SET_YEAR?RTC
008E80H   008E87H   000008H   BYTE   UNIT     CODE           ?PR?_RTC_DATE_SET_MONTH?RTC
008E88H   008E8FH   000008H   BYTE   UNIT     CODE           ?PR?RTC_DATE_GET_DATE?RTC
008E90H   008E97H   000008H   BYTE   UNIT     CODE           ?PR?ROM_IS_FACTORY_RESET?ROM
008E98H   008E9FH   000008H   BYTE   UNIT     CODE           ?PR?SM_CLOCK_MOD_GLOBAL_FLAG
008EA0H   008EA6H   000007H   BYTE   UNIT     CODE           ?PR?__RTC_GET_HOUR_12?RTC
008EA7H   008EADH   000007H   BYTE   UNIT     CODE           ?PR?SM_CLOCK_ALARM
008EAEH   008EB4H   000007H   BYTE   UNIT     CODE           ?PR?SM_FUSE_MODE
008EB5H   008EBBH   000007H   BYTE   UNIT     CODE           ?PR?SM_FUSE_GRENADE
008EBCH   008EC1H   000006H   BYTE   UNIT     CODE           ?PR?_RTC_TIME_SET_HOUR?RTC
008EC2H   008EC7H   000006H   BYTE   UNIT     CODE           ?PR?_RTC_TIME_SET_SEC?RTC
008EC8H   008ECDH   000006H   BYTE   UNIT     CODE           ?PR?RTC_DATE_GET_DAY?RTC
008ECEH   008ED3H   000006H   BYTE   UNIT     CODE           ?PR?ALARM0_GET_DAY_MASK?ALARM
008ED4H   008ED9H   000006H   BYTE   UNIT     CODE           ?PR?ALARM0_GET_MIN?ALARM
008EDAH   008EDFH   000006H   BYTE   UNIT     CODE           ?PR?ALARM0_GET_HOUR?ALARM
008EE0H   008EE5H   000006H   BYTE   UNIT     CODE           ?PR?POWER_GET_POWERSAVE_TO_S?POWER
008EE6H   008EEBH   000006H   BYTE   UNIT     CODE           ?PR?INTERNAL_DELAY_10US?MISC
008EECH   008EF1H   000006H   BYTE   UNIT     CODE           ?PR?BEEPER_GET_MUSIC_TO?BEEPER
008EF2H   008EF7H   000006H   BYTE   UNIT     CODE           ?PR?BEEPER_GET_MUSIC_INDEX?BEEPER
008EF8H   008EFDH   000006H   BYTE   UNIT     CODE           ?PR?_CLOCK_SWITCH_DISPLAY_MODE?CLOCK
008EFEH   008F03H   000006H   BYTE   UNIT     CODE           ?PR?CLOCK_GET_DATE?CLOCK
008F04H   008F09H   000006H   BYTE   UNIT     CODE           ?PR?CLOCK_GET_DAY?CLOCK
008F0AH   008F0FH   000006H   BYTE   UNIT     CODE           ?PR?CLOCK_GET_MONTH?CLOCK
008F10H   008F15H   000006H   BYTE   UNIT     CODE           ?PR?_TIMER_SET_MODE?TIMER
008F16H   008F1BH   000006H   BYTE   UNIT     CODE           ?PR?LT_TIMER_GET_MONTH?LT_TIMER
008F1CH   008F21H   000006H   BYTE   UNIT     CODE           ?PR?LT_TIMER_GET_DATE?LT_TIMER
008F22H   008F26H   000005H   BYTE   UNIT     CODE           ?PR?ALARM1_SET_ENABLE?ALARM
008F27H   008F2BH   000005H   BYTE   UNIT     CODE           ?PR?BEEPER_SET_BEEP_ENABLE?BEEPER
008F2CH   008F30H   000005H   BYTE   UNIT     CODE           ?PR?CLOCK_DISPLAY?CLOCK
008F31H   008F35H   000005H   BYTE   UNIT     CODE           ?PR?CLOCK_SET_HOUR_12?CLOCK
008F36H   008F3AH   000005H   BYTE   UNIT     CODE           ?PR?CLOCK_GET_MS39?CLOCK
008F3BH   008F3FH   000005H   BYTE   UNIT     CODE           ?PR?CLOCK_GET_SEC_256?CLOCK
008F40H   008F44H   000005H   BYTE   UNIT     CODE           ?PR?CLOCK_GET_SEC?CLOCK
008F45H   008F49H   000005H   BYTE   UNIT     CODE           ?PR?CLOCK_CLR_SEC?CLOCK
008F4AH   008F4EH   000005H   BYTE   UNIT     CODE           ?PR?CLOCK_GET_MIN?CLOCK
008F4FH   008F53H   000005H   BYTE   UNIT     CODE           ?PR?CLOCK_GET_HOUR?CLOCK
008F54H   008F58H   000005H   BYTE   UNIT     CODE           ?PR?CLOCK_GET_YEAR?CLOCK
008F59H   008F5DH   000005H   BYTE   UNIT     CODE           ?PR?LT_TIMER_GET_YEAR?LT_TIMER
008F5EH   008F62H   000005H   BYTE   UNIT     CODE           ?PR?LT_TIMER_GET_HOUR?LT_TIMER
008F63H   008F67H   000005H   BYTE   UNIT     CODE           ?PR?LT_TIMER_GET_MIN?LT_TIMER
008F68H   008F6CH   000005H   BYTE   UNIT     CODE           ?PR?LT_TIMER_GET_SEC?LT_TIMER
008F6DH   008F71H   000005H   BYTE   UNIT     CODE           ?PR?THERMO_HI_THRESHOLD_RESET?THERMO
008F72H   008F76H   000005H   BYTE   UNIT     CODE           ?PR?THERMO_LO_THRESHOLD_RESET?THERMO
008F77H   008F7BH   000005H   BYTE   UNIT     CODE           ?PR?DEBUG_ONOFF?DEBUG
008F7CH   008F7EH   000003H   BYTE   UNIT     CODE           ?PR?_NULL_PROC?SM
008F7FH   008F81H   000003H   BYTE   UNIT     CODE           ?PR?RTC_IS_LT_TIMER?RTC
008F82H   008F84H   000003H   BYTE   UNIT     CODE           ?PR?ALARM0_GET_HOUR_12?ALARM
008F85H   008F87H   000003H   BYTE   UNIT     CODE           ?PR?ALARM1_TEST_ENABLE?ALARM
008F88H   008F8AH   000003H   BYTE   UNIT     CODE           ?PR?POWER_TEST_FLAG?POWER
008F8BH   008F8DH   000003H   BYTE   UNIT     CODE           ?PR?POWER_SET_FLAG?POWER
008F8EH   008F90H   000003H   BYTE   UNIT     CODE           ?PR?POWER_CLR_FLAG?POWER
008F91H   008F93H   000003H   BYTE   UNIT     CODE           ?PR?BEEPER_GET_BEEP_ENABLE?BEEPER
008F94H   008F96H   000003H   BYTE   UNIT     CODE           ?PR?BEEPER_STOP_MUSIC?BEEPER
008F97H   008F99H   000003H   BYTE   UNIT     CODE           ?PR?CLOCK_GET_HOUR_12?CLOCK
008F9AH   008F9CH   000003H   BYTE   UNIT     CODE           ?PR?CLOCK_ENTER_SHELL?CLOCK
008F9DH   008F9FH   000003H   BYTE   UNIT     CODE           ?PR?TIMER_STOP?TIMER
008FA0H   008FA2H   000003H   BYTE   UNIT     CODE           ?PR?DEBUG_INITIALIZE?DEBUG
LX51 LINKER/LOCATER V4.66.87.0                                                        04/18/2018  10:36:57  PAGE 13


008FA3H   009B52H   000BB0H   BYTE   UNIT     CONST          ?CO?SM
009B53H   00A21FH   0006CDH   BYTE   UNIT     CONST          ?CO?SHELL
00A220H   00A7D9H   0005BAH   BYTE   UNIT     CONST          ?CO?CLOCK
00A7DAH   00AB2AH   000351H   BYTE   UNIT     CONST          ?CO?BEEPER
00AB2BH   00AE04H   0002DAH   BYTE   UNIT     CONST          ?CO?SM_FUSE_TEST
00AE05H   00B090H   00028CH   BYTE   UNIT     CONST          ?CO?INT_HUB
00B091H   00B2EEH   00025EH   BYTE   UNIT     CONST          ?CO?TASK
00B2EFH   00B513H   000225H   BYTE   UNIT     CONST          ?CO?LT_TIMER
00B514H   00B6E9H   0001D6H   BYTE   UNIT     CONST          ?CO?SERIAL_HUB
00B6EAH   00B881H   000198H   BYTE   UNIT     CONST          ?CO?THERMO
00B882H   00BA04H   000183H   BYTE   UNIT     CONST          ?CO?SM_FUSE_PARAM
00BA05H   00BB85H   000181H   BYTE   UNIT     CONST          ?CO?KEY
00BB86H   00BCFEH   000179H   BYTE   UNIT     CONST          ?CO?SM_CLOCK_MOD_ALARM
00BCFFH   00BE6EH   000170H   BYTE   UNIT     CONST          ?CO?SM_FUSE_TIMER
00BE6FH   00BFD3H   000165H   BYTE   UNIT     CONST          ?CO?ALARM
00BFD4H   00C113H   000140H   BYTE   UNIT     CONST          ?CO?SM_CLOCK_MOD_GLOBAL_FLAG
00C114H   00C22AH   000117H   BYTE   UNIT     CONST          ?CO?SM_CLOCK_MOD_TIME
00C22BH   00C33BH   000111H   BYTE   UNIT     CONST          ?CO?RTC
00C33CH   00C43FH   000104H   BYTE   UNIT     CONST          ?CO?FUSE
00C440H   00C53DH   0000FEH   BYTE   UNIT     CONST          ?CO?SM_CLOCK_COUNTER
00C53EH   00C624H   0000E7H   BYTE   UNIT     CONST          ?CO?HG
00C625H   00C6F9H   0000D5H   BYTE   UNIT     CONST          ?CO?SM_CLOCK_DISPLAY
00C6FAH   00C7A1H   0000A8H   BYTE   UNIT     CONST          ?CO?SM_FUSE_GRENADE
00C7A2H   00C822H   000081H   BYTE   UNIT     CONST          ?CO?MAIN
00C823H   00C8A1H   00007FH   BYTE   UNIT     CONST          ?CO?SM_CLOCK_TIMER
00C8A2H   00C91EH   00007DH   BYTE   UNIT     CONST          ?CO?CMD_I2C
00C91FH   00C993H   000075H   BYTE   UNIT     CONST          ?CO?SM_FUSE_POWERSAVE
00C994H   00CA06H   000073H   BYTE   UNIT     CONST          ?CO?CMD_BEEPER
00CA07H   00CA77H   000071H   BYTE   UNIT     CONST          ?CO?MPU
00CA78H   00CAE7H   000070H   BYTE   UNIT     CONST          ?CO?ROM
00CAE8H   00CB56H   00006FH   BYTE   UNIT     CONST          ?CO?LED
00CB57H   00CBC3H   00006DH   BYTE   UNIT     CONST          ?CO?POWER
00CBC4H   00CC26H   000063H   BYTE   UNIT     CONST          ?CO?SM_FUSE_DETONATE
00CC27H   00CC88H   000062H   BYTE   UNIT     CONST          ?CO?CMD_THERMO
00CC89H   00CCE8H   000060H   BYTE   UNIT     CONST          ?CO?SM_FUSE_MODE
00CCE9H   00CD42H   00005AH   BYTE   UNIT     CONST          ?CO?DELAY_TASK
00CD43H   00CD9BH   000059H   BYTE   UNIT     CONST          ?CO?TIMER
00CD9CH   00CDF4H   000059H   BYTE   UNIT     CONST          ?CO?SM_CLOCK_ALARM
00CDF5H   00CE4BH   000057H   BYTE   UNIT     CONST          ?CO?SM_CLOCK_POWERSAVE
00CE4CH   00CE9AH   00004FH   BYTE   UNIT     CONST          ?CO?CMD_MPU
00CE9BH   00CEDFH   000045H   BYTE   UNIT     CONST          ?CO?CMD_SM
00CEE0H   00CF09H   00002AH   BYTE   UNIT     CONST          ?CO?COM
00CF0AH   00CF27H   00001EH   BYTE   UNIT     CONST          ?CO?CMD_SERIAL
00CF28H   00CF44H   00001DH   BYTE   UNIT     CONST          ?CO?CMD_HELP
00CF45H   00CF60H   00001CH   BYTE   UNIT     CONST          ?CO?CMD_DBG
00CF61H   00CF76H   000016H   BYTE   UNIT     CONST          ?CO?MOD_COMMON
00CF77H   00CF7AH   000004H   BYTE   UNIT     CONST          ?CO?CMD_INT
00CF7BH   00CF7EH   000004H   BYTE   UNIT     CONST          ?CO?CMD_REBOOT

* * * * * * * * * * *  X D A T A   M E M O R Y  * * * * * * * * * * * * *
000000H   00007EH   00007FH   BYTE   UNIT     XDATA          _XDATA_GROUP_
00007FH   0000A7H   000029H   BYTE   UNIT     XDATA          ?XD?SHELL
0000A8H   0000B0H   000009H   BYTE   UNIT     XDATA          ?XD?LED
0000B1H   0000B5H   000005H   BYTE   UNIT     XDATA          ?XD?RTC
0000B6H   0000BAH   000005H   BYTE   UNIT     XDATA          ?XD?DELAY_TASK
0000BBH   0000BEH   000004H   BYTE   UNIT     XDATA          ?XD?COM
0000BFH   0000C1H   000003H   BYTE   UNIT     XDATA          ?XD?SM
0000C2H   0000C4H   000003H   BYTE   UNIT     XDATA          ?XD?ALARM
0000C5H   0000C7H   000003H   BYTE   UNIT     XDATA          ?XD?MOD_COMMON
0000C8H   0000CAH   000003H   BYTE   UNIT     XDATA          ?XD?BEEPER
0000CBH   0000CCH   000002H   BYTE   UNIT     XDATA          ?XD?KEY
0000CDH   0000CEH   000002H   BYTE   UNIT     XDATA          ?XD?POWER
0000CFH   0000D0H   000002H   BYTE   UNIT     XDATA          ?XD?SERIAL_HUB
0000D1H   0000D1H   000001H   BYTE   UNIT     XDATA          ?XD?CLOCK
0000D2H   0000D2H   000001H   BYTE   UNIT     XDATA          ?XD?TIMER
LX51 LINKER/LOCATER V4.66.87.0                                                        04/18/2018  10:36:57  PAGE 14


0000D3H   0000D3H   000001H   BYTE   UNIT     XDATA          ?XD?HG
0000D4H   0000D4H   000001H   BYTE   UNIT     XDATA          ?XD?SM_FUSE_TEST
0000D5H   0000D5H   000001H   BYTE   UNIT     XDATA          ?XD?CMD_I2C
0000D6H   0000D6H   000001H   BYTE   UNIT     XDATA          ?XD?GETCHAR



OVERLAY MAP OF MODULE:   Clock (SM)


FUNCTION/MODULE                                BIT_GROUP   DATA_GROUP   XDATA_GROUP
--> CALLED FUNCTION/MODULE                    START  STOP  START  STOP  START  STOP
===================================================================================
?C_C51STARTUP                                 ----- -----  ----- -----  ----- -----
  +--> MAIN/MAIN

MAIN/MAIN                                     ----- -----  ----- -----  ----- -----
  +--> DEBUG_INITIALIZE/DEBUG
  +--> COM_INITIALIZE/COM
  +--> SHOW_VERSION/MAIN
  +--> ROM_INITIALIZE/ROM
  +--> SERIAL_HUB_INITIALIZE/SERIAL_HUB
  +--> RTC_INITIALIZE/RTC
  +--> CLOCK_INITIALIZE/CLOCK
  +--> KEY_INITIALIZE/KEY
  +--> LED_INITIALIZE/LED
  +--> POWER_INITIALIZE/POWER
  +--> ALARM_INITIALIZE/ALARM
  +--> LT_TIMER_INITIALIZE/LT_TIMER
  +--> TIMER_INITIALIZE/TIMER
  +--> BEEPER_INITIALIZE/BEEPER
  +--> THERMO_INITIALIZE/THERMO
  +--> FUSE_INITIALIZE/FUSE
  +--> MPU_INITIALIZE/MPU
  +--> HG_INITIALIZE/HG
  +--> INT_HUB_INITIALIZE/INT_HUB
  +--> TASK_INITIALIZE/TASK
  +--> SM_INITIALIZE/SM
  +--> RUN_TASK/TASK
  +--> RUN_SHELL/SHELL

DEBUG_INITIALIZE/DEBUG                        ----- -----  ----- -----  ----- -----

COM_INITIALIZE/COM                            ----- -----  ----- -----  ----- -----

SHOW_VERSION/MAIN                             ----- -----  ----- -----  ----- -----
  +--> _DEBUG_PRINTF/DEBUG

_DEBUG_PRINTF/DEBUG                           ----- -----  ----- -----  001EH 004BH
  +--> _VPRINTF/VPRINTF

_VPRINTF/VPRINTF                              ----- -----  ----- -----  004CH 004EH
  +--> PRINTF/PRINTF

PRINTF/PRINTF                                 20H.2 21H.2  0018H 001CH  004FH 007EH
  +--> _PUTCHAR/COM

_PUTCHAR/COM                                  ----- -----  ----- -----  ----- -----
  +--> _PUTBUF/COM

_PUTBUF/COM                                   ----- -----  ----- -----  ----- -----

ROM_INITIALIZE/ROM                            ----- -----  ----- -----  ----- -----
  +--> _DEBUG_PRINTF/DEBUG
  +--> ROM_IS_FACTORY_RESET/ROM
LX51 LINKER/LOCATER V4.66.87.0                                                        04/18/2018  10:36:57  PAGE 15


  +--> ROM_RESET/ROM
  +--> ROM_DUMP/ROM

ROM_IS_FACTORY_RESET/ROM                      ----- -----  ----- -----  ----- -----

ROM_RESET/ROM                                 ----- -----  ----- -----  ----- -----
  +--> _ROM_WRITE/ROM

_ROM_WRITE/ROM                                ----- -----  ----- -----  0017H 0018H
  +--> I2C_INIT/I2C
  +--> _I2C_PUT/I2C
  +--> _DEBUG_PRINTF/DEBUG

I2C_INIT/I2C                                  ----- -----  ----- -----  ----- -----
  +--> I2C_DELAY/I2C

I2C_DELAY/I2C                                 ----- -----  ----- -----  ----- -----

_I2C_PUT/I2C                                  ----- -----  ----- -----  001CH 001CH
  +--> _I2C_PUTS/I2C

_I2C_PUTS/I2C                                 ----- -----  ----- -----  001DH 0022H
  +--> I2C_START/I2C
  +--> _I2C_WRITE/I2C
  +--> I2C_GETACK/I2C
  +--> I2C_STOP/I2C

I2C_START/I2C                                 ----- -----  ----- -----  ----- -----
  +--> I2C
  +--> I2C_DELAY/I2C

I2C                                           ----- -----  ----- -----  ----- -----
  +--> I2C_DELAY/I2C

_I2C_WRITE/I2C                                ----- -----  ----- -----  ----- -----
  +--> I2C_DELAY/I2C

I2C_GETACK/I2C                                20H.2 20H.2  ----- -----  ----- -----
  +--> I2C
  +--> I2C_DELAY/I2C

I2C_STOP/I2C                                  ----- -----  ----- -----  ----- -----
  +--> I2C_DELAY/I2C
  +--> I2C

ROM_DUMP/ROM                                  ----- -----  ----- -----  ----- -----
  +--> _ROM_READ/ROM

_ROM_READ/ROM                                 ----- -----  ----- -----  0018H 0019H
  +--> I2C_INIT/I2C
  +--> _I2C_GET/I2C
  +--> _DEBUG_PRINTF/DEBUG

_I2C_GET/I2C                                  ----- -----  ----- -----  0020H 0022H
  +--> _I2C_GETS/I2C

_I2C_GETS/I2C                                 ----- -----  ----- -----  0023H 0028H
  +--> I2C_START/I2C
  +--> _I2C_WRITE/I2C
  +--> I2C_GETACK/I2C
  +--> I2C_STOP/I2C
  +--> I2C_READ/I2C
  +--> I2C_PUTACK/I2C

I2C_READ/I2C                                  20H.2 20H.2  ----- -----  ----- -----
LX51 LINKER/LOCATER V4.66.87.0                                                        04/18/2018  10:36:57  PAGE 16


  +--> I2C_DELAY/I2C
  +--> I2C

I2C_PUTACK/I2C                                20H.2 20H.2  ----- -----  ----- -----
  +--> I2C_DELAY/I2C

SERIAL_HUB_INITIALIZE/SERIAL_HUB              ----- -----  ----- -----  ----- -----
  +--> _DEBUG_PRINTF/DEBUG
  +--> _I2C_PUT/I2C
  +--> SERIAL_CTL_OUT/SERIAL_HUB

SERIAL_CTL_OUT/SERIAL_HUB                     ----- -----  ----- -----  ----- -----
  +--> _I2C_PUT/I2C
  +--> SERIAL_DUMP/SERIAL_HUB

SERIAL_DUMP/SERIAL_HUB                        ----- -----  ----- -----  ----- -----
  +--> _DEBUG_PRINTF/DEBUG
  +--> _SERIAL_TEST_CTL_BIT/SERIAL_HUB
  +--> SERIAL_HUB

_SERIAL_TEST_CTL_BIT/SERIAL_HUB               ----- -----  ----- -----  ----- -----
  +--> SERIAL_HUB

SERIAL_HUB                                    ----- -----  ----- -----  ----- -----

RTC_INITIALIZE/RTC                            ----- -----  ----- -----  0000H 0001H
  +--> _DEBUG_PRINTF/DEBUG
  +--> RTC
  +--> _ROM_READ/ROM
  +--> I2C_INIT/I2C
  +--> _RTC_READ_DATA/RTC
  +--> RTC_TIME_GET_HOUR/RTC
  +--> RTC_TIME_SET_HOUR_12/RTC
  +--> _RTC_TIME_SET_HOUR/RTC
  +--> _RTC_TIME_SET_MIN/RTC
  +--> _RTC_TIME_SET_SEC/RTC
  +--> ROM_IS_FACTORY_RESET/ROM
  +--> _RTC_WRITE_DATA/RTC
  +--> _RTC_DATE_SET_YEAR/RTC
  +--> _RTC_DATE_SET_MONTH/RTC
  +--> _RTC_DATE_SET_DATE/RTC
  +--> RTC_DATE_GET_YEAR/RTC
  +--> RTC_DATE_GET_MONTH/RTC
  +--> RTC_DATE_GET_DATE/RTC
  +--> _CLOCK_YYMMDD_TO_DAY/CLOCK
  +--> _RTC_DATE_SET_DAY/RTC
  +--> _RTC_ENABLE_ALARM_INT/RTC
  +--> _RTC_CLR_ALARM_INT_FLAG/RTC
  +--> _I2C_GET/I2C
  +--> _I2C_PUT/I2C
  +--> DUMP_RTC/RTC

RTC                                           ----- -----  ----- -----  ----- -----

_RTC_READ_DATA/RTC                            ----- -----  ----- -----  0018H 0018H
  +--> RTC
  +--> _I2C_GETS/I2C

RTC_TIME_GET_HOUR/RTC                         ----- -----  ----- -----  ----- -----
  +--> __RTC_GET_HOUR/RTC

__RTC_GET_HOUR/RTC                            ----- -----  ----- -----  ----- -----
  +--> RTC

RTC_TIME_SET_HOUR_12/RTC                      20H.0 20H.0  ----- -----  ----- -----
LX51 LINKER/LOCATER V4.66.87.0                                                        04/18/2018  10:36:57  PAGE 17


  +--> RTC
  +--> _RTC_SET_HOUR_12/RTC

_RTC_SET_HOUR_12/RTC                          20H.1 20H.1  ----- -----  0016H 0018H
  +--> RTC
  +--> __RTC_GET_HOUR/RTC
  +--> __RTC_SET_HOUR/RTC

__RTC_SET_HOUR/RTC                            ----- -----  ----- -----  0019H 001BH
  +--> RTC

_RTC_TIME_SET_HOUR/RTC                        ----- -----  ----- -----  ----- -----
  +--> RTC
  +--> __RTC_SET_HOUR/RTC

_RTC_TIME_SET_MIN/RTC                         ----- -----  ----- -----  ----- -----
  +--> __RTC_SET_MIN_SEC/RTC

__RTC_SET_MIN_SEC/RTC                         ----- -----  ----- -----  0018H 001AH
  +--> RTC

_RTC_TIME_SET_SEC/RTC                         ----- -----  ----- -----  ----- -----
  +--> RTC
  +--> __RTC_SET_MIN_SEC/RTC

_RTC_WRITE_DATA/RTC                           ----- -----  ----- -----  0018H 0018H
  +--> I2C_INIT/I2C
  +--> RTC
  +--> _I2C_PUTS/I2C

_RTC_DATE_SET_YEAR/RTC                        ----- -----  ----- -----  ----- -----
  +--> RTC

_RTC_DATE_SET_MONTH/RTC                       ----- -----  ----- -----  ----- -----
  +--> RTC

_RTC_DATE_SET_DATE/RTC                        ----- -----  ----- -----  0016H 0017H
  +--> RTC_DATE_GET_MONTH/RTC
  +--> _DEBUG_PRINTF/DEBUG
  +--> RTC_DATE_GET_YEAR/RTC
  +--> _CLOCK_IS_LEAP_YEAR/CLOCK
  +--> __RTC_SET_DATE/RTC

RTC_DATE_GET_MONTH/RTC                        ----- -----  ----- -----  ----- -----
  +--> RTC

RTC_DATE_GET_YEAR/RTC                         ----- -----  ----- -----  ----- -----
  +--> RTC

_CLOCK_IS_LEAP_YEAR/CLOCK                     ----- -----  ----- -----  ----- -----
  +--> CLOCK

CLOCK                                         ----- -----  ----- -----  ----- -----

__RTC_SET_DATE/RTC                            ----- -----  ----- -----  0018H 001AH
  +--> RTC

RTC_DATE_GET_DATE/RTC                         ----- -----  ----- -----  ----- -----
  +--> __RTC_GET_DATE/RTC

__RTC_GET_DATE/RTC                            ----- -----  ----- -----  ----- -----
  +--> RTC

_CLOCK_YYMMDD_TO_DAY/CLOCK                    ----- -----  ----- -----  0015H 001CH
  +--> CLOCK
LX51 LINKER/LOCATER V4.66.87.0                                                        04/18/2018  10:36:57  PAGE 18



_RTC_DATE_SET_DAY/RTC                         ----- -----  ----- -----  ----- -----

_RTC_ENABLE_ALARM_INT/RTC                     20H.0 20H.0  ----- -----  ----- -----

_RTC_CLR_ALARM_INT_FLAG/RTC                   ----- -----  ----- -----  ----- -----

DUMP_RTC/RTC                                  ----- -----  ----- -----  0002H 0003H
  +--> _I2C_GET/I2C
  +--> _DEBUG_PRINTF/DEBUG

CLOCK_INITIALIZE/CLOCK                        ----- -----  ----- -----  ----- -----
  +--> _DEBUG_PRINTF/DEBUG
  +--> _CLOCK_SYNC_FROM_RTC/CLOCK
  +--> CLOCK_ENABLE_INTERRUPT/CLOCK
  +--> CLOCK_DUMP/CLOCK

_CLOCK_SYNC_FROM_RTC/CLOCK                    ----- -----  ----- -----  0013H 0013H
  +--> _DEBUG_PRINTF/DEBUG
  +--> CLOCK_ENABLE_INTERRUPT/CLOCK
  +--> _RTC_READ_DATA/RTC
  +--> RTC_TIME_GET_HOUR/RTC
  +--> RTC_TIME_GET_MIN/RTC
  +--> RTC_TIME_GET_SEC/RTC
  +--> RTC_TIME_GET_HOUR_12/RTC
  +--> RTC_DATE_GET_YEAR/RTC
  +--> RTC_DATE_GET_MONTH/RTC
  +--> RTC_DATE_GET_DATE/RTC
  +--> RTC_DATE_GET_DAY/RTC

CLOCK_ENABLE_INTERRUPT/CLOCK                  20H.2 20H.2  ----- -----  ----- -----

RTC_TIME_GET_MIN/RTC                          ----- -----  ----- -----  ----- -----
  +--> __RTC_GET_MIN_SEC/RTC

__RTC_GET_MIN_SEC/RTC                         ----- -----  ----- -----  ----- -----
  +--> RTC

RTC_TIME_GET_SEC/RTC                          ----- -----  ----- -----  ----- -----
  +--> __RTC_GET_MIN_SEC/RTC

RTC_TIME_GET_HOUR_12/RTC                      ----- -----  ----- -----  ----- -----
  +--> __RTC_GET_HOUR_12/RTC

__RTC_GET_HOUR_12/RTC                         ----- -----  ----- -----  ----- -----

RTC_DATE_GET_DAY/RTC                          ----- -----  ----- -----  ----- -----

CLOCK_DUMP/CLOCK                              ----- -----  ----- -----  ----- -----
  +--> _DEBUG_PRINTF/DEBUG

KEY_INITIALIZE/KEY                            ----- -----  ----- -----  ----- -----
  +--> _DEBUG_PRINTF/DEBUG

LED_INITIALIZE/LED                            ----- -----  ----- -----  ----- -----
  +--> _DEBUG_PRINTF/DEBUG
  +--> LED
  +--> REFRESH_LED/LED
  +--> _DELAY_MS/MISC

LED                                           ----- -----  ----- -----  ----- -----

REFRESH_LED/LED                               ----- -----  ----- -----  ----- -----

_DELAY_MS/MISC                                ----- -----  ----- -----  ----- -----
LX51 LINKER/LOCATER V4.66.87.0                                                        04/18/2018  10:36:57  PAGE 19


  +--> INTERNAL_DELAY_MS/MISC

INTERNAL_DELAY_MS/MISC                        ----- -----  ----- -----  ----- -----

POWER_INITIALIZE/POWER                        ----- -----  ----- -----  ----- -----
  +--> _DEBUG_PRINTF/DEBUG
  +--> _ROM_READ/ROM

ALARM_INITIALIZE/ALARM                        ----- -----  ----- -----  ----- -----
  +--> _DEBUG_PRINTF/DEBUG
  +--> ALARM_LOAD_ROM/ALARM
  +--> ALARM_DUMP/ALARM

ALARM_LOAD_ROM/ALARM                          ----- -----  ----- -----  ----- -----
  +--> _ROM_READ/ROM

ALARM_DUMP/ALARM                              ----- -----  ----- -----  ----- -----
  +--> ALARM
  +--> _DEBUG_PRINTF/DEBUG

ALARM                                         ----- -----  ----- -----  ----- -----

LT_TIMER_INITIALIZE/LT_TIMER                  ----- -----  ----- -----  ----- -----
  +--> _DEBUG_PRINTF/DEBUG

TIMER_INITIALIZE/TIMER                        ----- -----  ----- -----  ----- -----
  +--> _DEBUG_PRINTF/DEBUG

BEEPER_INITIALIZE/BEEPER                      ----- -----  ----- -----  ----- -----
  +--> _DEBUG_PRINTF/DEBUG
  +--> _ROM_READ/ROM

THERMO_INITIALIZE/THERMO                      ----- -----  ----- -----  0000H 0000H
  +--> _DEBUG_PRINTF/DEBUG
  +--> THERMO_POWER_ON/THERMO
  +--> THERMO_POWER_OFF/THERMO

THERMO_POWER_ON/THERMO                        ----- -----  ----- -----  0018H 0018H
  +--> _I2C_GET/I2C
  +--> _DEBUG_PRINTF/DEBUG
  +--> THERMO_LO_THRESHOLD_RESET/THERMO
  +--> THERMO_HI_THRESHOLD_RESET/THERMO
  +--> _I2C_PUT/I2C
  +--> THERMO_LO_THRESHOLD_GET/THERMO
  +--> THERMO_HI_THRESHOLD_GET/THERMO

THERMO_LO_THRESHOLD_RESET/THERMO              ----- -----  ----- -----  ----- -----
  +--> _THERMO_LO_THRESHOLD_SET/THERMO

_THERMO_LO_THRESHOLD_SET/THERMO               ----- -----  ----- -----  0019H 001BH
  +--> _DEBUG_PRINTF/DEBUG
  +--> _THERMO_TEMP_TO_HEX/THERMO
  +--> THERMO
  +--> _I2C_PUTS/I2C

_THERMO_TEMP_TO_HEX/THERMO                    ----- -----  ----- -----  001CH 001DH
  +--> _DEBUG_PRINTF/DEBUG

THERMO                                        ----- -----  ----- -----  ----- -----

THERMO_HI_THRESHOLD_RESET/THERMO              ----- -----  ----- -----  ----- -----
  +--> _THERMO_HI_THRESHOLD_SET/THERMO

_THERMO_HI_THRESHOLD_SET/THERMO               ----- -----  ----- -----  0019H 001BH
  +--> THERMO
LX51 LINKER/LOCATER V4.66.87.0                                                        04/18/2018  10:36:57  PAGE 20


  +--> _DEBUG_PRINTF/DEBUG
  +--> _THERMO_TEMP_TO_HEX/THERMO
  +--> _I2C_PUTS/I2C

THERMO_LO_THRESHOLD_GET/THERMO                ----- -----  ----- -----  0019H 001AH
  +--> THERMO
  +--> _I2C_GETS/I2C
  +--> _THERMO_HEX_TO_TEMP/THERMO

_THERMO_HEX_TO_TEMP/THERMO                    ----- -----  ----- -----  001CH 001CH
  +--> THERMO
  +--> _DEBUG_PRINTF/DEBUG

THERMO_HI_THRESHOLD_GET/THERMO                ----- -----  ----- -----  0019H 001AH
  +--> THERMO
  +--> _I2C_GETS/I2C
  +--> _THERMO_HEX_TO_TEMP/THERMO

THERMO_POWER_OFF/THERMO                       ----- -----  ----- -----  ----- -----
  +--> _I2C_PUT/I2C

FUSE_INITIALIZE/FUSE                          ----- -----  ----- -----  ----- -----
  +--> _DEBUG_PRINTF/DEBUG

MPU_INITIALIZE/MPU                            ----- -----  ----- -----  ----- -----
  +--> _DEBUG_PRINTF/DEBUG
  +--> MPU_POWER_ON/MPU
  +--> MPU_POWER_OFF/MPU

MPU_POWER_ON/MPU                              ----- -----  ----- -----  0018H 0019H
  +--> _DEBUG_PRINTF/DEBUG
  +--> MPU
  +--> _I2C_PUTS/I2C
  +--> _DELAY_MS/MISC

MPU                                           ----- -----  ----- -----  ----- -----

MPU_POWER_OFF/MPU                             ----- -----  ----- -----  0018H 0019H
  +--> _DEBUG_PRINTF/DEBUG
  +--> MPU
  +--> _I2C_PUTS/I2C
  +--> _DELAY_MS/MISC
  +--> _I2C_GET/I2C

HG_INITIALIZE/HG                              ----- -----  ----- -----  ----- -----
  +--> _DEBUG_PRINTF/DEBUG

INT_HUB_INITIALIZE/INT_HUB                    ----- -----  ----- -----  0000H 0000H
  +--> _DEBUG_PRINTF/DEBUG
  +--> _I2C_PUT/I2C
  +--> _I2C_GET/I2C

TASK_INITIALIZE/TASK                          ----- -----  ----- -----  ----- -----
  +--> _DEBUG_PRINTF/DEBUG

_TIME_PROC/SM                                 ----- -----  ----- -----  000CH 000CH
  +--> DELAY_TASK_CALL/DELAY_TASK
  +--> _RUN_STATE_MACHINE/SM

DELAY_TASK_CALL/DELAY_TASK                    ----- -----  ----- -----  000DH 000DH
  +--> DELAY_TASK
  +--> _DEBUG_PRINTF/DEBUG

DELAY_TASK                                    ----- -----  ----- -----  ----- -----

LX51 LINKER/LOCATER V4.66.87.0                                                        04/18/2018  10:36:57  PAGE 21


_RUN_STATE_MACHINE/SM                         ----- -----  ----- -----  000DH 0010H
  +--> SM
  +--> _DEBUG_PRINTF/DEBUG

SM                                            ----- -----  ----- -----  ----- -----

_SM_CLOCK_DISPLAY/SM_CLOCK_DISPLAY            ----- -----  ----- -----  0011H 0013H
  +--> _DEBUG_PRINTF/DEBUG
  +--> SM_CLOCK_DISPLAY
  +--> LT_TIMER_SWITCH_OFF/LT_TIMER
  +--> ALARM_SWITCH_ON/ALARM
  +--> RTC_SET_LT_TIMER/RTC
  +--> _DISPLAY_LOGO/MOD_COMMON
  +--> LED_CLEAR/LED
  +--> CLOCK_DISPLAY/CLOCK
  +--> _CLOCK_SWITCH_DISPLAY_MODE/CLOCK
  +--> POWER_TEST_POWERSAVE_TO/POWER
  +--> RESET_AUTO_SWITCH/SM_CLOCK_DISPLAY
  +--> DISPLAY_TEMP/SM_CLOCK_DISPLAY
  +--> POWER_RESET_POWERSAVE_TO/POWER
  +--> TEST_AUTOSWITCH/SM_CLOCK_DISPLAY

SM_CLOCK_DISPLAY                              ----- -----  ----- -----  ----- -----

LT_TIMER_SWITCH_OFF/LT_TIMER                  ----- -----  ----- -----  ----- -----
  +--> _DEBUG_PRINTF/DEBUG
  +--> _RTC_READ_DATA/RTC
  +--> _RTC_ENABLE_ALARM_INT/RTC
  +--> _RTC_WRITE_DATA/RTC

ALARM_SWITCH_ON/ALARM                         ----- -----  ----- -----  ----- -----
  +--> _DEBUG_PRINTF/DEBUG
  +--> ALARM0_SYNC_TO_RTC/ALARM
  +--> ALARM1_SYNC_TO_RTC/ALARM

ALARM0_SYNC_TO_RTC/ALARM                      ----- -----  ----- -----  ----- -----
  +--> _DEBUG_PRINTF/DEBUG
  +--> _RTC_READ_DATA/RTC
  +--> _RTC_ALARM_SET_MODE/RTC
  +--> _RTC_ALARM_SET_HOUR/RTC
  +--> _RTC_ALARM_SET_MIN/RTC
  +--> _RTC_ALARM_SET_SEC/RTC
  +--> RTC_ALARM_SET_HOUR_12/RTC
  +--> _RTC_WRITE_DATA/RTC
  +--> _RTC_ENABLE_ALARM_INT/RTC
  +--> _RTC_CLR_ALARM_INT_FLAG/RTC

_RTC_ALARM_SET_MODE/RTC                       ----- -----  ----- -----  ----- -----
  +--> RTC

_RTC_ALARM_SET_HOUR/RTC                       ----- -----  ----- -----  ----- -----
  +--> RTC
  +--> __RTC_SET_HOUR/RTC

_RTC_ALARM_SET_MIN/RTC                        ----- -----  ----- -----  ----- -----
  +--> RTC
  +--> __RTC_SET_MIN_SEC/RTC

_RTC_ALARM_SET_SEC/RTC                        ----- -----  ----- -----  ----- -----
  +--> RTC

RTC_ALARM_SET_HOUR_12/RTC                     20H.0 20H.0  ----- -----  ----- -----
  +--> RTC
  +--> _RTC_SET_HOUR_12/RTC

LX51 LINKER/LOCATER V4.66.87.0                                                        04/18/2018  10:36:57  PAGE 22


ALARM1_SYNC_TO_RTC/ALARM                      ----- -----  ----- -----  ----- -----
  +--> _DEBUG_PRINTF/DEBUG
  +--> _RTC_READ_DATA/RTC
  +--> _RTC_ALARM_SET_MODE/RTC
  +--> _RTC_ALARM_SET_MIN/RTC
  +--> _RTC_WRITE_DATA/RTC
  +--> _RTC_ENABLE_ALARM_INT/RTC
  +--> _RTC_CLR_ALARM_INT_FLAG/RTC

RTC_SET_LT_TIMER/RTC                          20H.0 20H.0  ----- -----  ----- -----

_DISPLAY_LOGO/MOD_COMMON                      ----- -----  ----- -----  0014H 0015H
  +--> _DEBUG_PRINTF/DEBUG
  +--> LED_CLEAR/LED
  +--> _LED_SET_CODE/LED
  +--> BEEPER_BEEP_BEEP_ALWAYS/BEEPER

LED_CLEAR/LED                                 ----- -----  ----- -----  ----- -----

_LED_SET_CODE/LED                             ----- -----  ----- -----  ----- -----

BEEPER_BEEP_BEEP_ALWAYS/BEEPER                ----- -----  ----- -----  0016H 0016H
  +--> _DEBUG_PRINTF/DEBUG
  +--> _DELAY_10US/MISC
  +--> _DELAY_MS/MISC

_DELAY_10US/MISC                              ----- -----  ----- -----  ----- -----
  +--> INTERNAL_DELAY_10US/MISC

INTERNAL_DELAY_10US/MISC                      ----- -----  ----- -----  ----- -----

CLOCK_DISPLAY/CLOCK                           20H.0 20H.0  ----- -----  ----- -----

_CLOCK_SWITCH_DISPLAY_MODE/CLOCK              ----- -----  ----- -----  ----- -----

POWER_TEST_POWERSAVE_TO/POWER                 ----- -----  ----- -----  ----- -----
  +--> CLOCK_GET_SEC_256/CLOCK
  +--> _DEBUG_PRINTF/DEBUG

CLOCK_GET_SEC_256/CLOCK                       ----- -----  ----- -----  ----- -----

RESET_AUTO_SWITCH/SM_CLOCK_DISPLAY            ----- -----  ----- -----  ----- -----
  +--> CLOCK_GET_SEC_256/CLOCK

DISPLAY_TEMP/SM_CLOCK_DISPLAY                 20H.0 20H.0  ----- -----  0014H 0015H
  +--> _RTC_READ_DATA/RTC
  +--> _RTC_GET_TEMPERATURE/RTC
  +--> _DEBUG_PRINTF/DEBUG
  +--> LED_CLEAR/LED
  +--> _LED_SET_DP/LED
  +--> _LED_SET_CODE/LED
  +--> SM_CLOCK_DISPLAY

_RTC_GET_TEMPERATURE/RTC                      20H.1 20H.1  ----- -----  0016H 001FH
  +--> RTC

_LED_SET_DP/LED                               ----- -----  ----- -----  ----- -----

POWER_RESET_POWERSAVE_TO/POWER                ----- -----  ----- -----  ----- -----
  +--> CLOCK_GET_SEC_256/CLOCK

TEST_AUTOSWITCH/SM_CLOCK_DISPLAY              ----- -----  ----- -----  ----- -----
  +--> CLOCK_GET_SEC_256/CLOCK
  +--> _DEBUG_PRINTF/DEBUG

LX51 LINKER/LOCATER V4.66.87.0                                                        04/18/2018  10:36:57  PAGE 23


_SM_CLOCK_MOD_TIME/SM_CLOCK_MOD_TIME          ----- -----  ----- -----  0011H 0013H
  +--> _DEBUG_PRINTF/DEBUG
  +--> SM_CLOCK_MOD_TIME
  +--> CLOCK_DISPLAY/CLOCK
  +--> _DISPLAY_LOGO/MOD_COMMON
  +--> _INC_ONLY/SM_CLOCK_MOD_TIME
  +--> UPDATE_HHMMSS/SM_CLOCK_MOD_TIME
  +--> _ENTER_YYMMDD/SM_CLOCK_MOD_TIME
  +--> _ENTER_HHMMSS/SM_CLOCK_MOD_TIME
  +--> _INC_AND_WRITE/SM_CLOCK_MOD_TIME
  +--> _WRITE_ONLY/SM_CLOCK_MOD_TIME
  +--> UPDATE_YYMMDD/SM_CLOCK_MOD_TIME

SM_CLOCK_MOD_TIME                             ----- -----  ----- -----  ----- -----

_INC_ONLY/SM_CLOCK_MOD_TIME                   ----- -----  ----- -----  ----- -----
  +--> CLOCK_INC_HOUR/CLOCK
  +--> CLOCK_INC_YEAR/CLOCK
  +--> CLOCK_INC_MIN/CLOCK
  +--> CLOCK_INC_MONTH/CLOCK
  +--> _LED_CLR_BLINK/LED
  +--> CLOCK_CLR_SEC/CLOCK
  +--> CLOCK_INC_DATE/CLOCK

CLOCK_INC_HOUR/CLOCK                          ----- -----  ----- -----  ----- -----

CLOCK_INC_YEAR/CLOCK                          ----- -----  ----- -----  ----- -----
  +--> CLOCK
  +--> _CLOCK_YYMMDD_TO_DAY/CLOCK

CLOCK_INC_MIN/CLOCK                           ----- -----  ----- -----  ----- -----

CLOCK_INC_MONTH/CLOCK                         ----- -----  ----- -----  ----- -----
  +--> CLOCK
  +--> _CLOCK_YYMMDD_TO_DAY/CLOCK

_LED_CLR_BLINK/LED                            ----- -----  ----- -----  ----- -----

CLOCK_CLR_SEC/CLOCK                           ----- -----  ----- -----  ----- -----

CLOCK_INC_DATE/CLOCK                          ----- -----  ----- -----  ----- -----
  +--> _CLOCK_GET_MON_DATE/CLOCK
  +--> CLOCK
  +--> _CLOCK_YYMMDD_TO_DAY/CLOCK

_CLOCK_GET_MON_DATE/CLOCK                     ----- -----  ----- -----  ----- -----
  +--> CLOCK

UPDATE_HHMMSS/SM_CLOCK_MOD_TIME               ----- -----  ----- -----  0015H 0017H
  +--> CLOCK_GET_HOUR/CLOCK
  +--> CLOCK_GET_MIN/CLOCK
  +--> CLOCK_GET_SEC/CLOCK
  +--> _LED_SET_DP/LED
  +--> CLOCK_GET_HOUR_12/CLOCK
  +--> _LED_CLR_DP/LED
  +--> _DEBUG_PRINTF/DEBUG
  +--> _LED_SET_CODE/LED
  +--> SM_CLOCK_MOD_TIME

CLOCK_GET_HOUR/CLOCK                          ----- -----  ----- -----  ----- -----

CLOCK_GET_MIN/CLOCK                           ----- -----  ----- -----  ----- -----

CLOCK_GET_SEC/CLOCK                           ----- -----  ----- -----  ----- -----

LX51 LINKER/LOCATER V4.66.87.0                                                        04/18/2018  10:36:57  PAGE 24


CLOCK_GET_HOUR_12/CLOCK                       ----- -----  ----- -----  ----- -----

_LED_CLR_DP/LED                               ----- -----  ----- -----  ----- -----

_ENTER_YYMMDD/SM_CLOCK_MOD_TIME               ----- -----  ----- -----  0014H 0014H
  +--> LED_CLEAR/LED
  +--> _LED_SET_BLINK/LED
  +--> UPDATE_YYMMDD/SM_CLOCK_MOD_TIME

_LED_SET_BLINK/LED                            ----- -----  ----- -----  ----- -----

UPDATE_YYMMDD/SM_CLOCK_MOD_TIME               ----- -----  ----- -----  0015H 0017H
  +--> CLOCK_GET_YEAR/CLOCK
  +--> CLOCK_GET_MONTH/CLOCK
  +--> CLOCK_GET_DATE/CLOCK
  +--> _LED_SET_DP/LED
  +--> _DEBUG_PRINTF/DEBUG
  +--> _LED_SET_CODE/LED
  +--> SM_CLOCK_MOD_TIME

CLOCK_GET_YEAR/CLOCK                          ----- -----  ----- -----  ----- -----

CLOCK_GET_MONTH/CLOCK                         ----- -----  ----- -----  ----- -----

CLOCK_GET_DATE/CLOCK                          ----- -----  ----- -----  ----- -----

_ENTER_HHMMSS/SM_CLOCK_MOD_TIME               ----- -----  ----- -----  0014H 0014H
  +--> LED_CLEAR/LED
  +--> _LED_SET_BLINK/LED
  +--> UPDATE_HHMMSS/SM_CLOCK_MOD_TIME

_INC_AND_WRITE/SM_CLOCK_MOD_TIME              ----- -----  ----- -----  0014H 0014H
  +--> _INC_ONLY/SM_CLOCK_MOD_TIME
  +--> _WRITE_ONLY/SM_CLOCK_MOD_TIME

_WRITE_ONLY/SM_CLOCK_MOD_TIME                 ----- -----  ----- -----  ----- -----
  +--> _CLOCK_SYNC_TO_RTC/CLOCK
  +--> _LED_SET_BLINK/LED

_CLOCK_SYNC_TO_RTC/CLOCK                      ----- -----  ----- -----  0015H 0015H
  +--> _DEBUG_PRINTF/DEBUG
  +--> CLOCK_ENABLE_INTERRUPT/CLOCK
  +--> _RTC_READ_DATA/RTC
  +--> _RTC_TIME_SET_HOUR/RTC
  +--> _RTC_TIME_SET_MIN/RTC
  +--> _RTC_TIME_SET_SEC/RTC
  +--> RTC_TIME_SET_HOUR_12/RTC
  +--> _RTC_DATE_SET_YEAR/RTC
  +--> _RTC_DATE_SET_MONTH/RTC
  +--> _RTC_DATE_SET_DATE/RTC
  +--> _RTC_WRITE_DATA/RTC

_SM_CLOCK_ALARM/SM_CLOCK_ALARM                ----- -----  ----- -----  0011H 0012H
  +--> _DEBUG_PRINTF/DEBUG
  +--> SM_CLOCK_ALARM
  +--> CLOCK_DISPLAY/CLOCK
  +--> _DISPLAY_ALARM/SM_CLOCK_ALARM
  +--> BEEPER_PLAY_MUSIC/BEEPER
  +--> BEEPER_BEEP_BEEP_ALWAYS/BEEPER

SM_CLOCK_ALARM                                ----- -----  ----- -----  ----- -----

_DISPLAY_ALARM/SM_CLOCK_ALARM                 20H.0 20H.0  ----- -----  0013H 0015H
  +--> LED_CLEAR/LED
  +--> _LED_SET_CODE/LED
LX51 LINKER/LOCATER V4.66.87.0                                                        04/18/2018  10:36:57  PAGE 25


  +--> ALARM0_GET_HOUR/ALARM
  +--> ALARM0_GET_MIN/ALARM
  +--> ALARM0_GET_HOUR_12/ALARM
  +--> CLOCK_GET_HOUR/CLOCK
  +--> CLOCK_GET_MIN/CLOCK
  +--> CLOCK_GET_HOUR_12/CLOCK
  +--> _LED_SET_DP/LED
  +--> _LED_CLR_DP/LED

ALARM0_GET_HOUR/ALARM                         ----- -----  ----- -----  ----- -----

ALARM0_GET_MIN/ALARM                          ----- -----  ----- -----  ----- -----

ALARM0_GET_HOUR_12/ALARM                      ----- -----  ----- -----  ----- -----

BEEPER_PLAY_MUSIC/BEEPER                      ----- -----  ----- -----  ----- -----
  +--> _DEBUG_PRINTF/DEBUG
  +--> __BEEPLER_PLAY/BEEPER

__BEEPLER_PLAY/BEEPER                         20H.0 20H.0  ----- -----  0014H 0019H
  +--> BEEPER
  +--> CLOCK_GET_SEC_256/CLOCK
  +--> _BEEPER_STOP_PLAY/BEEPER
  +--> _DELAY_MS/MISC
  +--> _DELAY_10US/MISC

BEEPER                                        ----- -----  ----- -----  ----- -----

_BEEPER_STOP_PLAY/BEEPER                      ----- -----  ----- -----  ----- -----

_SM_CLOCK_POWERSAVE/SM_CLOCK_POWERSAVE        ----- -----  ----- -----  0011H 0012H
  +--> _DEBUG_PRINTF/DEBUG
  +--> POWER_ENTER_POWERSAVE/POWER
  +--> POWER_LEAVE_POWERSAVE/POWER

POWER_ENTER_POWERSAVE/POWER                   ----- -----  ----- -----  ----- -----
  +--> _DEBUG_PRINTF/DEBUG
  +--> LED_ENTER_POWERSAVE/LED
  +--> TIMER_ENTER_POWERSAVE/TIMER
  +--> LT_TIMER_ENTER_POWERSAVE/LT_TIMER
  +--> CLOCK_ENTER_POWERSAVE/CLOCK
  +--> RTC_ENTER_POWERSAVE/RTC
  +--> KEY_ENTER_POWERSAVE/KEY
  +--> ALARM_ENTER_POWERSAVE/ALARM
  +--> BEEPER_ENTER_POWERSAVE/BEEPER
  +--> FUSE_ENTER_POWERSAVE/FUSE
  +--> HG_ENTER_POWERSAVE/HG
  +--> MPU_ENTER_POWERSAVE/MPU
  +--> THERMO_ENTER_POWERSAVE/THERMO
  +--> COM_ENTER_POWERSAVE/COM
  +--> COM_LEAVE_POWERSAVE/COM
  +--> _SCAN_INT_HUB_PROC/INT_HUB

LED_ENTER_POWERSAVE/LED                       ----- -----  ----- -----  ----- -----
  +--> _DEBUG_PRINTF/DEBUG
  +--> LED
  +--> LED_CLEAR/LED

TIMER_ENTER_POWERSAVE/TIMER                   ----- -----  ----- -----  ----- -----
  +--> _DEBUG_PRINTF/DEBUG
  +--> TIMER_CLR/TIMER

TIMER_CLR/TIMER                               ----- -----  ----- -----  ----- -----

LT_TIMER_ENTER_POWERSAVE/LT_TIMER             ----- -----  ----- -----  ----- -----
LX51 LINKER/LOCATER V4.66.87.0                                                        04/18/2018  10:36:57  PAGE 26


  +--> _DEBUG_PRINTF/DEBUG
  +--> RTC_IS_LT_TIMER/RTC
  +--> LT_TIMER_STOP_RAM/LT_TIMER
  +--> LT_TIMER_START_RTC/LT_TIMER

RTC_IS_LT_TIMER/RTC                           ----- -----  ----- -----  ----- -----

LT_TIMER_STOP_RAM/LT_TIMER                    ----- -----  ----- -----  ----- -----
  +--> _DEBUG_PRINTF/DEBUG

LT_TIMER_START_RTC/LT_TIMER                   ----- -----  ----- -----  ----- -----
  +--> _DEBUG_PRINTF/DEBUG
  +--> _RTC_READ_DATA/RTC
  +--> _RTC_ENABLE_ALARM_INT/RTC
  +--> _RTC_CLR_ALARM_INT_FLAG/RTC
  +--> _RTC_WRITE_DATA/RTC

CLOCK_ENTER_POWERSAVE/CLOCK                   ----- -----  ----- -----  ----- -----
  +--> _DEBUG_PRINTF/DEBUG
  +--> CLOCK_ENABLE_INTERRUPT/CLOCK

RTC_ENTER_POWERSAVE/RTC                       ----- -----  ----- -----  ----- -----
  +--> _DEBUG_PRINTF/DEBUG
  +--> _RTC_READ_DATA/RTC
  +--> _RTC_WRITE_DATA/RTC

KEY_ENTER_POWERSAVE/KEY                       ----- -----  ----- -----  ----- -----
  +--> _DEBUG_PRINTF/DEBUG

ALARM_ENTER_POWERSAVE/ALARM                   ----- -----  ----- -----  ----- -----
  +--> _DEBUG_PRINTF/DEBUG

BEEPER_ENTER_POWERSAVE/BEEPER                 ----- -----  ----- -----  ----- -----
  +--> _DEBUG_PRINTF/DEBUG

FUSE_ENTER_POWERSAVE/FUSE                     ----- -----  ----- -----  ----- -----
  +--> _DEBUG_PRINTF/DEBUG

HG_ENTER_POWERSAVE/HG                         ----- -----  ----- -----  ----- -----
  +--> _DEBUG_PRINTF/DEBUG

MPU_ENTER_POWERSAVE/MPU                       ----- -----  ----- -----  ----- -----
  +--> _DEBUG_PRINTF/DEBUG

THERMO_ENTER_POWERSAVE/THERMO                 ----- -----  ----- -----  ----- -----
  +--> _DEBUG_PRINTF/DEBUG

COM_ENTER_POWERSAVE/COM                       ----- -----  ----- -----  ----- -----
  +--> _DEBUG_PRINTF/DEBUG

COM_LEAVE_POWERSAVE/COM                       ----- -----  ----- -----  ----- -----
  +--> _DEBUG_PRINTF/DEBUG

_SCAN_INT_HUB_PROC/INT_HUB                    ----- -----  ----- -----  0013H 0015H
  +--> _DEBUG_PRINTF/DEBUG
  +--> INT_HUB_DUMP/INT_HUB
  +--> SCAN_RTC/RTC
  +--> INT_HUB_GET_STATUS/INT_HUB
  +--> _INT_HUB_DUMP_EXT_STATUS/INT_HUB
  +--> _SCAN_HG/HG
  +--> _SCAN_FUSE/FUSE
  +--> SCAN_THERMO/THERMO
  +--> SCAN_MPU/MPU
  +--> INT_HUB

LX51 LINKER/LOCATER V4.66.87.0                                                        04/18/2018  10:36:57  PAGE 27


INT_HUB_DUMP/INT_HUB                          ----- -----  ----- -----  ----- -----
  +--> _DEBUG_PRINTF/DEBUG

SCAN_RTC/RTC                                  ----- -----  ----- -----  ----- -----
  +--> _DEBUG_PRINTF/DEBUG
  +--> SCAN_ALARM/ALARM
  +--> SCAN_LT_TIMER/LT_TIMER

SCAN_ALARM/ALARM                              20H.0 20H.1  ----- -----  ----- -----
  +--> _RTC_READ_DATA/RTC
  +--> _RTC_TEST_ALARM_INT_FLAG/RTC
  +--> _RTC_CLR_ALARM_INT_FLAG/RTC
  +--> _RTC_WRITE_DATA/RTC
  +--> CLOCK_GET_DAY/CLOCK
  +--> ALARM
  +--> POWER_TEST_FLAG/POWER
  +--> POWER_CLR_FLAG/POWER
  +--> RTC_TIME_GET_MIN/RTC
  +--> RTC_TIME_GET_SEC/RTC

_RTC_TEST_ALARM_INT_FLAG/RTC                  ----- -----  ----- -----  ----- -----

CLOCK_GET_DAY/CLOCK                           ----- -----  ----- -----  ----- -----

POWER_TEST_FLAG/POWER                         ----- -----  ----- -----  ----- -----

POWER_CLR_FLAG/POWER                          ----- -----  ----- -----  ----- -----

SCAN_LT_TIMER/LT_TIMER                        20H.0 20H.0  ----- -----  ----- -----
  +--> _DEBUG_PRINTF/DEBUG
  +--> _RTC_READ_DATA/RTC
  +--> _RTC_TEST_ALARM_INT_FLAG/RTC
  +--> _RTC_CLR_ALARM_INT_FLAG/RTC
  +--> _RTC_WRITE_DATA/RTC
  +--> RTC_DATE_GET_YEAR/RTC
  +--> POWER_TEST_FLAG/POWER
  +--> POWER_CLR_FLAG/POWER
  +--> LT_TIMER

LT_TIMER                                      ----- -----  ----- -----  ----- -----

INT_HUB_GET_STATUS/INT_HUB                    ----- -----  ----- -----  0016H 0018H
  +--> _I2C_GET/I2C
  +--> _DEBUG_PRINTF/DEBUG

_INT_HUB_DUMP_EXT_STATUS/INT_HUB              ----- -----  ----- -----  0016H 0017H
  +--> _DEBUG_PRINTF/DEBUG
  +--> _INT_HUB_TEST_BIT/INT_HUB
  +--> INT_HUB

_INT_HUB_TEST_BIT/INT_HUB                     ----- -----  ----- -----  ----- -----

INT_HUB                                       ----- -----  ----- -----  ----- -----

_SCAN_HG/HG                                   ----- -----  ----- -----  0016H 0018H
  +--> _DEBUG_PRINTF/DEBUG
  +--> __HG_GET_STATE/HG
  +--> HG
  +--> POWER_TEST_FLAG/POWER
  +--> POWER_CLR_FLAG/POWER

__HG_GET_STATE/HG                             ----- -----  ----- -----  ----- -----

HG                                            ----- -----  ----- -----  ----- -----

LX51 LINKER/LOCATER V4.66.87.0                                                        04/18/2018  10:36:57  PAGE 28


_SCAN_FUSE/FUSE                               20H.0 20H.0  ----- -----  0016H 0017H
  +--> _DEBUG_PRINTF/DEBUG
  +--> POWER_TEST_FLAG/POWER
  +--> POWER_CLR_FLAG/POWER

SCAN_THERMO/THERMO                            20H.0 20H.0  ----- -----  0016H 0018H
  +--> THERMO_HI_THRESHOLD_GET/THERMO
  +--> THERMO_LO_THRESHOLD_GET/THERMO
  +--> THERMO_GET_CURRENT/THERMO
  +--> _DEBUG_PRINTF/DEBUG
  +--> THERMO
  +--> POWER_TEST_FLAG/POWER
  +--> POWER_CLR_FLAG/POWER

THERMO_GET_CURRENT/THERMO                     ----- -----  ----- -----  0019H 001BH
  +--> _I2C_GET/I2C
  +--> _I2C_PUT/I2C
  +--> _DELAY_MS/MISC
  +--> THERMO
  +--> _I2C_GETS/I2C
  +--> _THERMO_HEX_TO_TEMP/THERMO

SCAN_MPU/MPU                                  ----- -----  ----- -----  ----- -----
  +--> _DEBUG_PRINTF/DEBUG

POWER_LEAVE_POWERSAVE/POWER                   ----- -----  ----- -----  ----- -----
  +--> COM_LEAVE_POWERSAVE/COM
  +--> THERMO_LEAVE_POWERSAVE/THERMO
  +--> MPU_LEAVE_POWERSAVE/MPU
  +--> HG_LEAVE_POWERSAVE/HG
  +--> FUSE_LEAVE_POWERSAVE/FUSE
  +--> BEEPER_LEAVE_POWERSAVE/BEEPER
  +--> ALARM_LEAVE_POWERSAVE/ALARM
  +--> KEY_LEAVE_POWERSAVE/KEY
  +--> RTC_LEAVE_POWERSAVE/RTC
  +--> CLOCK_LEAVE_POWERSAVE/CLOCK
  +--> LT_TIMER_LEAVE_POWERSAVE/LT_TIMER
  +--> TIMER_LEAVE_POWERSAVE/TIMER
  +--> LED_LEAVE_POWERSAVE/LED
  +--> _DEBUG_PRINTF/DEBUG

THERMO_LEAVE_POWERSAVE/THERMO                 ----- -----  ----- -----  ----- -----
  +--> _DEBUG_PRINTF/DEBUG

MPU_LEAVE_POWERSAVE/MPU                       ----- -----  ----- -----  ----- -----
  +--> _DEBUG_PRINTF/DEBUG

HG_LEAVE_POWERSAVE/HG                         ----- -----  ----- -----  ----- -----
  +--> _DEBUG_PRINTF/DEBUG

FUSE_LEAVE_POWERSAVE/FUSE                     ----- -----  ----- -----  ----- -----
  +--> _DEBUG_PRINTF/DEBUG

BEEPER_LEAVE_POWERSAVE/BEEPER                 ----- -----  ----- -----  ----- -----
  +--> _DEBUG_PRINTF/DEBUG

ALARM_LEAVE_POWERSAVE/ALARM                   ----- -----  ----- -----  ----- -----
  +--> _DEBUG_PRINTF/DEBUG

KEY_LEAVE_POWERSAVE/KEY                       ----- -----  ----- -----  ----- -----
  +--> _DEBUG_PRINTF/DEBUG

RTC_LEAVE_POWERSAVE/RTC                       ----- -----  ----- -----  ----- -----
  +--> _DEBUG_PRINTF/DEBUG
  +--> _RTC_READ_DATA/RTC
LX51 LINKER/LOCATER V4.66.87.0                                                        04/18/2018  10:36:57  PAGE 29


  +--> RTC
  +--> _RTC_WRITE_DATA/RTC

CLOCK_LEAVE_POWERSAVE/CLOCK                   ----- -----  ----- -----  ----- -----
  +--> _DEBUG_PRINTF/DEBUG
  +--> _CLOCK_SYNC_FROM_RTC/CLOCK
  +--> CLOCK_ENABLE_INTERRUPT/CLOCK

LT_TIMER_LEAVE_POWERSAVE/LT_TIMER             ----- -----  ----- -----  ----- -----
  +--> _DEBUG_PRINTF/DEBUG
  +--> RTC_IS_LT_TIMER/RTC
  +--> LT_TIMER_STOP_RTC/LT_TIMER
  +--> LT_TIMER_SYNC_FROM_ROM/LT_TIMER
  +--> LT_TIMER_GET_RELATIVE/LT_TIMER
  +--> LT_TIMER
  +--> LT_TIMER_START_RAM/LT_TIMER

LT_TIMER_STOP_RTC/LT_TIMER                    ----- -----  ----- -----  ----- -----
  +--> _DEBUG_PRINTF/DEBUG
  +--> _RTC_READ_DATA/RTC
  +--> _RTC_ENABLE_ALARM_INT/RTC
  +--> _RTC_CLR_ALARM_INT_FLAG/RTC
  +--> _RTC_WRITE_DATA/RTC

LT_TIMER_SYNC_FROM_ROM/LT_TIMER               ----- -----  ----- -----  ----- -----
  +--> _ROM_READ/ROM

LT_TIMER_GET_RELATIVE/LT_TIMER                20H.0 20H.1  ----- -----  ----- -----
  +--> CLOCK_ENABLE_INTERRUPT/CLOCK
  +--> LT_TIMER_SUB_SEC_MIN/LT_TIMER
  +--> LT_TIMER_SUB_MIN_HOUR/LT_TIMER
  +--> LT_TIMER_SUB_HOUR_DATE/LT_TIMER
  +--> LT_TIMER_SUB_DATE/LT_TIMER
  +--> LT_TIMER
  +--> _DEBUG_PRINTF/DEBUG

LT_TIMER_SUB_SEC_MIN/LT_TIMER                 20H.2 20H.2  ----- -----  ----- -----
  +--> CLOCK_GET_SEC/CLOCK

LT_TIMER_SUB_MIN_HOUR/LT_TIMER                20H.2 20H.3  ----- -----  ----- -----
  +--> CLOCK_GET_MIN/CLOCK
  +--> LT_TIMER

LT_TIMER_SUB_HOUR_DATE/LT_TIMER               20H.2 20H.3  ----- -----  ----- -----
  +--> CLOCK_GET_HOUR/CLOCK
  +--> LT_TIMER

LT_TIMER_SUB_DATE/LT_TIMER                    20H.2 20H.2  ----- -----  0018H 0019H
  +--> CLOCK_GET_YEAR/CLOCK
  +--> _CLOCK_IS_LEAP_YEAR/CLOCK
  +--> LT_TIMER
  +--> CLOCK_GET_MONTH/CLOCK
  +--> CLOCK_GET_DATE/CLOCK

LT_TIMER_START_RAM/LT_TIMER                   ----- -----  ----- -----  ----- -----
  +--> _DEBUG_PRINTF/DEBUG

TIMER_LEAVE_POWERSAVE/TIMER                   ----- -----  ----- -----  ----- -----
  +--> _DEBUG_PRINTF/DEBUG

LED_LEAVE_POWERSAVE/LED                       ----- -----  ----- -----  ----- -----
  +--> _DEBUG_PRINTF/DEBUG
  +--> LED_CLEAR/LED

_SM_CLOCK_TIMER/SM_CLOCK_TIMER                ----- -----  ----- -----  0011H 0013H
LX51 LINKER/LOCATER V4.66.87.0                                                        04/18/2018  10:36:57  PAGE 30


  +--> _DEBUG_PRINTF/DEBUG
  +--> SM_CLOCK_TIMER
  +--> CLOCK_DISPLAY/CLOCK
  +--> _DISPLAY_LOGO/MOD_COMMON
  +--> _DISPLAY_SLOT/SM_CLOCK_TIMER
  +--> _TIMER_SET_MODE/TIMER
  +--> TIMER_START/TIMER
  +--> _TIMER_SAVE/TIMER
  +--> TIMER_STOP/TIMER
  +--> TIMER_CLR/TIMER
  +--> _SHOW_SLOT_TITLE/SM_CLOCK_TIMER
  +--> TIMER_SET_LED_AUTOREFRESH/TIMER

SM_CLOCK_TIMER                                ----- -----  ----- -----  ----- -----

_DISPLAY_SLOT/SM_CLOCK_TIMER                  ----- -----  ----- -----  0014H 0014H
  +--> LED_CLEAR/LED
  +--> _LED_SET_DP/LED
  +--> _TIMER_GET_MIN/TIMER
  +--> _TIMER_GET_SEC/TIMER
  +--> SM_CLOCK_TIMER
  +--> _LED_SET_CODE/LED
  +--> _TIMER_GET_MS10/TIMER

_TIMER_GET_MIN/TIMER                          ----- -----  ----- -----  ----- -----

_TIMER_GET_SEC/TIMER                          ----- -----  ----- -----  ----- -----

_TIMER_GET_MS10/TIMER                         ----- -----  ----- -----  ----- -----
  +--> TIMER

TIMER                                         ----- -----  ----- -----  ----- -----

_TIMER_SET_MODE/TIMER                         ----- -----  ----- -----  ----- -----

TIMER_START/TIMER                             ----- -----  ----- -----  ----- -----
  +--> _DEBUG_PRINTF/DEBUG

_TIMER_SAVE/TIMER                             ----- -----  ----- -----  ----- -----

TIMER_STOP/TIMER                              ----- -----  ----- -----  ----- -----

_SHOW_SLOT_TITLE/SM_CLOCK_TIMER               ----- -----  ----- -----  0014H 0014H
  +--> LED_CLEAR/LED
  +--> _LED_SET_CODE/LED
  +--> SM_CLOCK_TIMER

TIMER_SET_LED_AUTOREFRESH/TIMER               20H.0 20H.0  ----- -----  0014H 0014H

_SM_FUSE_TEST/SM_FUSE_TEST                    ----- -----  ----- -----  0011H 0013H
  +--> SM_FUSE_TEST
  +--> _DEBUG_PRINTF/DEBUG
  +--> CLOCK_DISPLAY/CLOCK
  +--> _DISPLAY_LOGO/MOD_COMMON
  +--> ALARM_SWITCH_OFF/ALARM
  +--> LT_TIMER_SWITCH_ON/LT_TIMER
  +--> RTC_SET_LT_TIMER/RTC
  +--> _DISPLAY_FUSE_STATE/SM_FUSE_TEST
  +--> _ROM_WRITE/ROM
  +--> FUSE_ENABLE/FUSE
  +--> _FUSE_SET_FUSE_BROKE/FUSE
  +--> THERMO_HI_ENABLE/THERMO
  +--> THERMO_LO_ENABLE/THERMO
  +--> THERMO_HI_THRESHOLD_REACH_BOTTOM/THERMO
  +--> THERMO_LO_THRESHOLD_REACH_TOP/THERMO
LX51 LINKER/LOCATER V4.66.87.0                                                        04/18/2018  10:36:57  PAGE 31


  +--> THERMO_HI_THRESHOLD_DEC/THERMO
  +--> THERMO_HI_THRESHOLD_GET/THERMO
  +--> THERMO_LO_THRESHOLD_INC/THERMO
  +--> THERMO_LO_THRESHOLD_GET/THERMO
  +--> THERMO_HI_THRESHOLD_RESET/THERMO
  +--> THERMO_LO_THRESHOLD_RESET/THERMO
  +--> FUSE_SET_TRIPWIRE_BROKE/FUSE
  +--> HG_ENABLE/HG
  +--> HG_GET_STATE/HG
  +--> _TEST_HG_STATE_MASK/SM_FUSE_TEST
  +--> CLOCK_GET_SEC_256/CLOCK
  +--> MPU_ENABLE/MPU
  +--> THERMO_ENABLE/THERMO

SM_FUSE_TEST                                  ----- -----  ----- -----  ----- -----

ALARM_SWITCH_OFF/ALARM                        ----- -----  ----- -----  ----- -----
  +--> _DEBUG_PRINTF/DEBUG
  +--> _RTC_READ_DATA/RTC
  +--> _RTC_ENABLE_ALARM_INT/RTC
  +--> _RTC_WRITE_DATA/RTC

LT_TIMER_SWITCH_ON/LT_TIMER                   ----- -----  ----- -----  ----- -----
  +--> _DEBUG_PRINTF/DEBUG
  +--> LT_TIMER_SYNC_TO_RTC/LT_TIMER

LT_TIMER_SYNC_TO_RTC/LT_TIMER                 ----- -----  ----- -----  ----- -----
  +--> LT_TIMER
  +--> _DEBUG_PRINTF/DEBUG
  +--> _RTC_READ_DATA/RTC
  +--> _RTC_ALARM_SET_MODE/RTC
  +--> _RTC_ALARM_SET_DATE/RTC
  +--> _RTC_ALARM_SET_HOUR/RTC
  +--> _RTC_ALARM_SET_MIN/RTC
  +--> _RTC_ALARM_SET_SEC/RTC
  +--> _RTC_WRITE_DATA/RTC

_RTC_ALARM_SET_DATE/RTC                       ----- -----  ----- -----  ----- -----
  +--> RTC
  +--> __RTC_SET_DATE/RTC

_DISPLAY_FUSE_STATE/SM_FUSE_TEST              ----- -----  ----- -----  0014H 0018H
  +--> SM_FUSE_TEST
  +--> _DEBUG_PRINTF/DEBUG
  +--> LED_CLEAR/LED
  +--> _LED_SET_CODE/LED
  +--> _DISPLAY_ERROR_CODE/SM_FUSE_TEST
  +--> _LED_SET_BLINK/LED

_DISPLAY_ERROR_CODE/SM_FUSE_TEST              ----- -----  ----- -----  0019H 001BH
  +--> SM_FUSE_TEST
  +--> _DEBUG_PRINTF/DEBUG
  +--> LED_CLEAR/LED
  +--> _LED_SET_CODE/LED

FUSE_ENABLE/FUSE                              20H.0 20H.0  ----- -----  ----- -----
  +--> _DEBUG_PRINTF/DEBUG
  +--> FUSE_POWER_ON/FUSE
  +--> FUSE_POWER_OFF/FUSE

FUSE_POWER_ON/FUSE                            ----- -----  ----- -----  ----- -----
  +--> _DEBUG_PRINTF/DEBUG
  +--> _SERIAL_SET_CTL_BIT/SERIAL_HUB
  +--> SERIAL_CTL_OUT/SERIAL_HUB

LX51 LINKER/LOCATER V4.66.87.0                                                        04/18/2018  10:36:57  PAGE 32


_SERIAL_SET_CTL_BIT/SERIAL_HUB                20H.1 20H.1  ----- -----  ----- -----
  +--> SERIAL_HUB

FUSE_POWER_OFF/FUSE                           ----- -----  ----- -----  ----- -----
  +--> _DEBUG_PRINTF/DEBUG
  +--> _SERIAL_SET_CTL_BIT/SERIAL_HUB
  +--> SERIAL_CTL_OUT/SERIAL_HUB

_FUSE_SET_FUSE_BROKE/FUSE                     20H.0 20H.0  ----- -----  0014H 0014H
  +--> _DEBUG_PRINTF/DEBUG
  +--> _SERIAL_SET_CTL_BIT/SERIAL_HUB
  +--> SERIAL_CTL_OUT/SERIAL_HUB

THERMO_HI_ENABLE/THERMO                       20H.0 20H.0  ----- -----  ----- -----
  +--> _DEBUG_PRINTF/DEBUG

THERMO_LO_ENABLE/THERMO                       20H.0 20H.0  ----- -----  ----- -----
  +--> _DEBUG_PRINTF/DEBUG

THERMO_HI_THRESHOLD_REACH_BOTTOM/THERMO       ----- -----  ----- -----  ----- -----
  +--> THERMO_HI_THRESHOLD_GET/THERMO
  +--> THERMO

THERMO_LO_THRESHOLD_REACH_TOP/THERMO          ----- -----  ----- -----  ----- -----
  +--> THERMO_LO_THRESHOLD_GET/THERMO
  +--> THERMO

THERMO_HI_THRESHOLD_DEC/THERMO                ----- -----  ----- -----  ----- -----
  +--> THERMO_HI_THRESHOLD_GET/THERMO
  +--> THERMO
  +--> _THERMO_HI_THRESHOLD_SET/THERMO

THERMO_LO_THRESHOLD_INC/THERMO                ----- -----  ----- -----  ----- -----
  +--> THERMO_LO_THRESHOLD_GET/THERMO
  +--> THERMO
  +--> _THERMO_LO_THRESHOLD_SET/THERMO

FUSE_SET_TRIPWIRE_BROKE/FUSE                  20H.0 20H.0  ----- -----  ----- -----
  +--> _DEBUG_PRINTF/DEBUG
  +--> _SERIAL_SET_CTL_BIT/SERIAL_HUB
  +--> SERIAL_CTL_OUT/SERIAL_HUB

HG_ENABLE/HG                                  20H.0 20H.0  ----- -----  ----- -----
  +--> _DEBUG_PRINTF/DEBUG
  +--> HG_POWER_ON/HG
  +--> HG_POWER_OFF/HG

HG_POWER_ON/HG                                ----- -----  ----- -----  ----- -----
  +--> _DEBUG_PRINTF/DEBUG
  +--> _SERIAL_SET_CTL_BIT/SERIAL_HUB
  +--> SERIAL_CTL_OUT/SERIAL_HUB
  +--> HG_CB_SET_ENABLE/HG
  +--> _DELAY_TASK_REG/DELAY_TASK

HG_CB_SET_ENABLE/HG                           ----- -----  ----- -----  ----- -----
  +--> _DEBUG_PRINTF/DEBUG

_DELAY_TASK_REG/DELAY_TASK                    ----- -----  ----- -----  0018H 001BH
  +--> _DEBUG_PRINTF/DEBUG
  +--> DELAY_TASK

HG_POWER_OFF/HG                               ----- -----  ----- -----  ----- -----
  +--> _DEBUG_PRINTF/DEBUG
  +--> _SERIAL_SET_CTL_BIT/SERIAL_HUB
  +--> SERIAL_CTL_OUT/SERIAL_HUB
LX51 LINKER/LOCATER V4.66.87.0                                                        04/18/2018  10:36:57  PAGE 33



HG_GET_STATE/HG                               ----- -----  ----- -----  ----- -----
  +--> HG
  +--> _DEBUG_PRINTF/DEBUG

_TEST_HG_STATE_MASK/SM_FUSE_TEST              ----- -----  ----- -----  0014H 0015H
  +--> _DEBUG_PRINTF/DEBUG

MPU_ENABLE/MPU                                20H.0 20H.0  ----- -----  ----- -----
  +--> _DEBUG_PRINTF/DEBUG
  +--> MPU_POWER_ON/MPU
  +--> MPU_POWER_OFF/MPU

THERMO_ENABLE/THERMO                          20H.0 20H.0  ----- -----  ----- -----
  +--> THERMO_POWER_ON/THERMO
  +--> THERMO_POWER_OFF/THERMO

_SM_CLOCK_MOD_ALARM/SM_CLOCK_MOD_ALARM        ----- -----  ----- -----  0011H 0013H
  +--> _DEBUG_PRINTF/DEBUG
  +--> SM_CLOCK_MOD_ALARM
  +--> _DISPLAY_LOGO/MOD_COMMON
  +--> _INC_ONLY/SM_CLOCK_MOD_ALARM
  +--> _INC_WRITE/SM_CLOCK_MOD_ALARM
  +--> _WRITE_ONLY/SM_CLOCK_MOD_ALARM
  +--> _TOGGLE_ALARM/SM_CLOCK_MOD_ALARM
  +--> _ENTER_ALARM/SM_CLOCK_MOD_ALARM

SM_CLOCK_MOD_ALARM                            ----- -----  ----- -----  ----- -----

_INC_ONLY/SM_CLOCK_MOD_ALARM                  ----- -----  ----- -----  ----- -----
  +--> _LED_CLR_BLINK/LED
  +--> ALARM0_INC_HOUR/ALARM
  +--> ALARM0_INC_MIN/ALARM
  +--> _UPDATE_ALARM/SM_CLOCK_MOD_ALARM

ALARM0_INC_HOUR/ALARM                         ----- -----  ----- -----  ----- -----

ALARM0_INC_MIN/ALARM                          ----- -----  ----- -----  ----- -----

_UPDATE_ALARM/SM_CLOCK_MOD_ALARM              ----- -----  ----- -----  0016H 0018H
  +--> _LED_SET_CODE/LED
  +--> ALARM0_GET_HOUR/ALARM
  +--> ALARM0_GET_MIN/ALARM
  +--> _LED_SET_DP/LED
  +--> ALARM0_GET_HOUR_12/ALARM
  +--> _LED_CLR_DP/LED
  +--> _DEBUG_PRINTF/DEBUG
  +--> _ALARM0_TEST_ENABLE/ALARM

_ALARM0_TEST_ENABLE/ALARM                     ----- -----  ----- -----  0019H 0019H
  +--> ALARM
  +--> _DEBUG_PRINTF/DEBUG

_INC_WRITE/SM_CLOCK_MOD_ALARM                 ----- -----  ----- -----  0014H 0014H
  +--> _INC_ONLY/SM_CLOCK_MOD_ALARM
  +--> _WRITE_ONLY/SM_CLOCK_MOD_ALARM

_WRITE_ONLY/SM_CLOCK_MOD_ALARM                ----- -----  ----- -----  0015H 0015H
  +--> ALARM0_SYNC_TO_RTC/ALARM
  +--> _LED_SET_BLINK/LED
  +--> ALARM0_GET_HOUR/ALARM
  +--> ALARM0_GET_MIN/ALARM
  +--> ALARM0_GET_DAY_MASK/ALARM
  +--> _ROM_WRITE/ROM

LX51 LINKER/LOCATER V4.66.87.0                                                        04/18/2018  10:36:57  PAGE 34


ALARM0_GET_DAY_MASK/ALARM                     ----- -----  ----- -----  ----- -----

_TOGGLE_ALARM/SM_CLOCK_MOD_ALARM              ----- -----  ----- -----  0014H 0014H
  +--> _ALARM0_TEST_ENABLE/ALARM
  +--> _ALARM0_SET_ENABLE/ALARM
  +--> _UPDATE_ALARM/SM_CLOCK_MOD_ALARM
  +--> _WRITE_ONLY/SM_CLOCK_MOD_ALARM

_ALARM0_SET_ENABLE/ALARM                      20H.0 20H.0  ----- -----  0015H 0015H
  +--> _DEBUG_PRINTF/DEBUG
  +--> ALARM

_ENTER_ALARM/SM_CLOCK_MOD_ALARM               ----- -----  ----- -----  0014H 0015H
  +--> LED_CLEAR/LED
  +--> _LED_SET_BLINK/LED
  +--> _UPDATE_ALARM/SM_CLOCK_MOD_ALARM

_SM_CLOCK_MOD_GLOBAL_FLAG/SM_CLOCK_MOD_G+     ----- -----  ----- -----  0011H 0013H
... LOBAL_FLAG
  +--> _DEBUG_PRINTF/DEBUG
  +--> _DISPLAY_LOGO/MOD_COMMON
  +--> SM_CLOCK_MOD_GLOBAL_FLAG
  +--> _INC_WRITE/SM_CLOCK_MOD_GLOBAL_FLAG
  +--> _DISPLAY_GLOBAL_FLAG/SM_CLOCK_MOD_GLOBAL_FLAG
  +--> BEEPER_PLAY_MUSIC/BEEPER

SM_CLOCK_MOD_GLOBAL_FLAG                      ----- -----  ----- -----  ----- -----

_INC_WRITE/SM_CLOCK_MOD_GLOBAL_FLAG           ----- -----  ----- -----  ----- -----
  +--> POWER_INC_POWERSAVE_TO/POWER
  +--> POWER_GET_POWERSAVE_TO/POWER
  +--> ALARM1_TEST_ENABLE/ALARM
  +--> ALARM1_SET_ENABLE/ALARM
  +--> ALARM1_SYNC_TO_RTC/ALARM
  +--> BEEPER_INC_MUSIC_INDEX/BEEPER
  +--> BEEPER_GET_MUSIC_INDEX/BEEPER
  +--> BEEPER_GET_BEEP_ENABLE/BEEPER
  +--> BEEPER_SET_BEEP_ENABLE/BEEPER
  +--> CLOCK_GET_HOUR_12/CLOCK
  +--> CLOCK_SET_HOUR_12/CLOCK
  +--> _CLOCK_SYNC_TO_RTC/CLOCK
  +--> ALARM0_GET_HOUR_12/ALARM
  +--> ALARM0_SET_HOUR_12/ALARM
  +--> ALARM0_SYNC_TO_RTC/ALARM
  +--> _ROM_WRITE/ROM

POWER_INC_POWERSAVE_TO/POWER                  ----- -----  ----- -----  ----- -----

POWER_GET_POWERSAVE_TO/POWER                  ----- -----  ----- -----  ----- -----

ALARM1_TEST_ENABLE/ALARM                      ----- -----  ----- -----  ----- -----

ALARM1_SET_ENABLE/ALARM                       20H.0 20H.0  ----- -----  ----- -----

BEEPER_INC_MUSIC_INDEX/BEEPER                 ----- -----  ----- -----  ----- -----
  +--> _DEBUG_PRINTF/DEBUG

BEEPER_GET_MUSIC_INDEX/BEEPER                 ----- -----  ----- -----  ----- -----

BEEPER_GET_BEEP_ENABLE/BEEPER                 ----- -----  ----- -----  ----- -----

BEEPER_SET_BEEP_ENABLE/BEEPER                 20H.0 20H.0  ----- -----  ----- -----

CLOCK_SET_HOUR_12/CLOCK                       20H.0 20H.0  ----- -----  ----- -----

LX51 LINKER/LOCATER V4.66.87.0                                                        04/18/2018  10:36:57  PAGE 35


ALARM0_SET_HOUR_12/ALARM                      20H.0 20H.0  ----- -----  ----- -----

_DISPLAY_GLOBAL_FLAG/SM_CLOCK_MOD_GLOBAL+     20H.0 20H.1  ----- -----  0014H 0014H
... _FLAG
  +--> ALARM1_TEST_ENABLE/ALARM
  +--> CLOCK_GET_HOUR_12/CLOCK
  +--> LED_CLEAR/LED
  +--> _DEBUG_PRINTF/DEBUG
  +--> POWER_GET_POWERSAVE_TO_S/POWER
  +--> _LED_SET_CODE/LED
  +--> BEEPER_GET_MUSIC_INDEX/BEEPER
  +--> BEEPER_GET_BEEP_ENABLE/BEEPER

POWER_GET_POWERSAVE_TO_S/POWER                ----- -----  ----- -----  ----- -----

_SM_CLOCK_COUNTER/SM_CLOCK_COUNTER            ----- -----  ----- -----  0011H 0013H
  +--> _DEBUG_PRINTF/DEBUG
  +--> SM_CLOCK_COUNTER
  +--> _DISPLAY_LOGO/MOD_COMMON
  +--> _ENTER_HHMMSS/SM_CLOCK_COUNTER
  +--> TIMER_CLR/TIMER
  +--> _TIMER_SET_MODE/TIMER
  +--> _INC_ONLY/SM_CLOCK_COUNTER
  +--> UPDATE_HHMMSS/SM_CLOCK_COUNTER
  +--> _INC_AND_WRITE/SM_CLOCK_COUNTER
  +--> _WRITE_ONLY/SM_CLOCK_COUNTER
  +--> _LED_CLR_BLINK/LED
  +--> TIMER_STOP/TIMER
  +--> TIMER_SET_LED_AUTOREFRESH/TIMER
  +--> TIMER_START/TIMER
  +--> BEEPER_BEEP_BEEP_ALWAYS/BEEPER

SM_CLOCK_COUNTER                              ----- -----  ----- -----  ----- -----

_ENTER_HHMMSS/SM_CLOCK_COUNTER                ----- -----  ----- -----  0014H 0014H
  +--> LED_CLEAR/LED
  +--> _LED_SET_BLINK/LED
  +--> UPDATE_HHMMSS/SM_CLOCK_COUNTER

UPDATE_HHMMSS/SM_CLOCK_COUNTER                ----- -----  ----- -----  0015H 0017H
  +--> _TIMER_GET_HOUR/TIMER
  +--> _TIMER_GET_MIN/TIMER
  +--> _TIMER_GET_SEC/TIMER
  +--> _LED_SET_DP/LED
  +--> _DEBUG_PRINTF/DEBUG
  +--> SM_CLOCK_COUNTER
  +--> _LED_SET_CODE/LED

_TIMER_GET_HOUR/TIMER                         ----- -----  ----- -----  ----- -----

_INC_ONLY/SM_CLOCK_COUNTER                    ----- -----  ----- -----  ----- -----
  +--> _TIMER_INC_HOUR/TIMER
  +--> _TIMER_INC_MIN/TIMER
  +--> _LED_CLR_BLINK/LED
  +--> _TIMER_INC_SEC/TIMER

_TIMER_INC_HOUR/TIMER                         ----- -----  ----- -----  ----- -----

_TIMER_INC_MIN/TIMER                          ----- -----  ----- -----  ----- -----
  +--> TIMER

_TIMER_INC_SEC/TIMER                          ----- -----  ----- -----  ----- -----
  +--> TIMER

_INC_AND_WRITE/SM_CLOCK_COUNTER               ----- -----  ----- -----  ----- -----
LX51 LINKER/LOCATER V4.66.87.0                                                        04/18/2018  10:36:57  PAGE 36


  +--> _INC_ONLY/SM_CLOCK_COUNTER
  +--> _WRITE_ONLY/SM_CLOCK_COUNTER

_WRITE_ONLY/SM_CLOCK_COUNTER                  ----- -----  ----- -----  ----- -----
  +--> _LED_SET_BLINK/LED

_SM_FUSE_PARAM/SM_FUSE_PARAM                  ----- -----  ----- -----  0011H 0013H
  +--> _DEBUG_PRINTF/DEBUG
  +--> SM_FUSE_PARAM
  +--> _DISPLAY_LOGO/MOD_COMMON
  +--> LT_TIMER_SYNC_FROM_ROM/LT_TIMER
  +--> _ENTER_YYMMDD/SM_FUSE_PARAM
  +--> _INC_AND_WRITE/SM_FUSE_PARAM
  +--> UPDATE_YYMMDD/SM_FUSE_PARAM
  +--> _INC_ONLY/SM_FUSE_PARAM
  +--> _ENTER_HHMMSS/SM_FUSE_PARAM
  +--> UPDATE_HHMMSS/SM_FUSE_PARAM
  +--> _ENTER_ONOFF/SM_FUSE_PARAM
  +--> _UPDATE_ONOFF/SM_FUSE_PARAM
  +--> _UPDATE_THERMO/SM_FUSE_PARAM
  +--> _ENTER_THERMO/SM_FUSE_PARAM
  +--> _ENTER_PASSWORD/SM_FUSE_PARAM
  +--> _UPDATE_PASSWORD/SM_FUSE_PARAM
  +--> _WRITE_ONLY/SM_FUSE_PARAM

SM_FUSE_PARAM                                 ----- -----  ----- -----  ----- -----

_ENTER_YYMMDD/SM_FUSE_PARAM                   ----- -----  ----- -----  0014H 0014H
  +--> LED_CLEAR/LED
  +--> _LED_SET_BLINK/LED
  +--> UPDATE_YYMMDD/SM_FUSE_PARAM

UPDATE_YYMMDD/SM_FUSE_PARAM                   ----- -----  ----- -----  0015H 0017H
  +--> LT_TIMER_GET_YEAR/LT_TIMER
  +--> LT_TIMER_GET_MONTH/LT_TIMER
  +--> LT_TIMER_GET_DATE/LT_TIMER
  +--> _LED_SET_DP/LED
  +--> _DEBUG_PRINTF/DEBUG
  +--> _LED_SET_CODE/LED
  +--> SM_FUSE_PARAM

LT_TIMER_GET_YEAR/LT_TIMER                    ----- -----  ----- -----  ----- -----

LT_TIMER_GET_MONTH/LT_TIMER                   ----- -----  ----- -----  ----- -----

LT_TIMER_GET_DATE/LT_TIMER                    ----- -----  ----- -----  ----- -----

_INC_AND_WRITE/SM_FUSE_PARAM                  ----- -----  ----- -----  0014H 0014H
  +--> _INC_ONLY/SM_FUSE_PARAM
  +--> _WRITE_ONLY/SM_FUSE_PARAM

_INC_ONLY/SM_FUSE_PARAM                       ----- -----  ----- -----  ----- -----
  +--> LT_TIMER_INC_HOUR/LT_TIMER
  +--> LT_TIMER_INC_YEAR/LT_TIMER
  +--> LT_TIMER_INC_MIN/LT_TIMER
  +--> LT_TIMER_INC_MONTH/LT_TIMER
  +--> _LED_CLR_BLINK/LED
  +--> LT_TIMER_INC_SEC/LT_TIMER
  +--> LT_TIMER_INC_DATE/LT_TIMER
  +--> _THERMO_THRESHOLD_INC/THERMO
  +--> _DEBUG_PRINTF/DEBUG

LT_TIMER_INC_HOUR/LT_TIMER                    ----- -----  ----- -----  ----- -----

LT_TIMER_INC_YEAR/LT_TIMER                    ----- -----  ----- -----  ----- -----
LX51 LINKER/LOCATER V4.66.87.0                                                        04/18/2018  10:36:57  PAGE 37



LT_TIMER_INC_MIN/LT_TIMER                     ----- -----  ----- -----  ----- -----

LT_TIMER_INC_MONTH/LT_TIMER                   ----- -----  ----- -----  ----- -----

LT_TIMER_INC_SEC/LT_TIMER                     ----- -----  ----- -----  ----- -----

LT_TIMER_INC_DATE/LT_TIMER                    ----- -----  ----- -----  ----- -----

_THERMO_THRESHOLD_INC/THERMO                  ----- -----  ----- -----  ----- -----
  +--> THERMO

_WRITE_ONLY/SM_FUSE_PARAM                     ----- -----  ----- -----  0015H 0015H
  +--> _LT_TIMER_SYNC_TO_ROM/LT_TIMER
  +--> _LED_SET_BLINK/LED
  +--> _ROM_WRITE/ROM

_LT_TIMER_SYNC_TO_ROM/LT_TIMER                ----- -----  ----- -----  0016H 0016H
  +--> LT_TIMER
  +--> _DEBUG_PRINTF/DEBUG
  +--> _ROM_WRITE/ROM

_ENTER_HHMMSS/SM_FUSE_PARAM                   ----- -----  ----- -----  0014H 0014H
  +--> LED_CLEAR/LED
  +--> _LED_SET_BLINK/LED
  +--> UPDATE_HHMMSS/SM_FUSE_PARAM

UPDATE_HHMMSS/SM_FUSE_PARAM                   ----- -----  ----- -----  0015H 0017H
  +--> LT_TIMER_GET_HOUR/LT_TIMER
  +--> LT_TIMER_GET_MIN/LT_TIMER
  +--> LT_TIMER_GET_SEC/LT_TIMER
  +--> _LED_SET_DP/LED
  +--> CLOCK_GET_HOUR_12/CLOCK
  +--> _LED_CLR_DP/LED
  +--> _DEBUG_PRINTF/DEBUG
  +--> _LED_SET_CODE/LED
  +--> SM_FUSE_PARAM

LT_TIMER_GET_HOUR/LT_TIMER                    ----- -----  ----- -----  ----- -----

LT_TIMER_GET_MIN/LT_TIMER                     ----- -----  ----- -----  ----- -----

LT_TIMER_GET_SEC/LT_TIMER                     ----- -----  ----- -----  ----- -----

_ENTER_ONOFF/SM_FUSE_PARAM                    ----- -----  ----- -----  0014H 0014H
  +--> _ROM_READ/ROM
  +--> _UPDATE_ONOFF/SM_FUSE_PARAM

_UPDATE_ONOFF/SM_FUSE_PARAM                   ----- -----  ----- -----  0015H 0015H
  +--> LED_CLEAR/LED
  +--> _LED_SET_CODE/LED

_UPDATE_THERMO/SM_FUSE_PARAM                  ----- -----  ----- -----  0015H 0015H
  +--> LED_CLEAR/LED
  +--> _LED_SET_CODE/LED

_ENTER_THERMO/SM_FUSE_PARAM                   ----- -----  ----- -----  0014H 0014H
  +--> _ROM_READ/ROM
  +--> _UPDATE_THERMO/SM_FUSE_PARAM

_ENTER_PASSWORD/SM_FUSE_PARAM                 ----- -----  ----- -----  0014H 0014H
  +--> _ROM_READ/ROM
  +--> _UPDATE_PASSWORD/SM_FUSE_PARAM

_UPDATE_PASSWORD/SM_FUSE_PARAM                ----- -----  ----- -----  0015H 0015H
LX51 LINKER/LOCATER V4.66.87.0                                                        04/18/2018  10:36:57  PAGE 38


  +--> LED_CLEAR/LED
  +--> _LED_SET_CODE/LED

_SM_FUSE_MODE/SM_FUSE_MODE                    ----- -----  ----- -----  0011H 0013H
  +--> _DEBUG_PRINTF/DEBUG
  +--> SM_FUSE_MODE
  +--> _DISPLAY_LOGO/MOD_COMMON
  +--> _DISPLAY_MODE/SM_FUSE_MODE

SM_FUSE_MODE                                  ----- -----  ----- -----  ----- -----

_DISPLAY_MODE/SM_FUSE_MODE                    ----- -----  ----- -----  0014H 0014H
  +--> LED_CLEAR/LED
  +--> _LED_SET_CODE/LED

_SM_FUSE_TIMER/SM_FUSE_TIMER                  ----- -----  ----- -----  0011H 0013H
  +--> _DEBUG_PRINTF/DEBUG
  +--> SM_FUSE_TIMER
  +--> _DISPLAY_LOGO/MOD_COMMON
  +--> _DISPLAY_PREARM_STEP/SM_FUSE_TIMER
  +--> _CHECK_AND_SET_TIMER_PARAM/SM_FUSE_TIMER
  +--> ROLLBACK_PARAM/SM_FUSE_TIMER
  +--> LT_TIMER_DISPLAY/LT_TIMER
  +--> LT_TIMER_SWITCH_DISPLAY/LT_TIMER
  +--> DISPLAY_PASSWORD/SM_FUSE_TIMER
  +--> POWER_RESET_POWERSAVE_TO/POWER
  +--> VERIFY_PASSWORD/SM_FUSE_TIMER
  +--> INC_PASSWORD/SM_FUSE_TIMER
  +--> POWER_TEST_POWERSAVE_TO/POWER
  +--> _DISPLAY_TIMER/SM_FUSE_TIMER
  +--> STOP_PERIPHERAL/SM_FUSE_TIMER
  +--> LT_TIMER_RESET/LT_TIMER

SM_FUSE_TIMER                                 ----- -----  ----- -----  ----- -----

_DISPLAY_PREARM_STEP/SM_FUSE_TIMER            ----- -----  ----- -----  0018H 0018H
  +--> LED_CLEAR/LED
  +--> _LED_SET_CODE/LED

_CHECK_AND_SET_TIMER_PARAM/SM_FUSE_TIMER      ----- -----  ----- -----  0014H 0017H
  +--> _DISPLAY_PREARM_STEP/SM_FUSE_TIMER
  +--> SM_FUSE_TIMER
  +--> _DEBUG_PRINTF/DEBUG
  +--> MPU_ENABLE/MPU
  +--> HG_ENABLE/HG
  +--> _ROM_READ/ROM
  +--> THERMO_GET_CURRENT/THERMO
  +--> THERMO_ENABLE/THERMO
  +--> THERMO_HI_ENABLE/THERMO
  +--> THERMO_LO_ENABLE/THERMO
  +--> LT_TIMER_SYNC_FROM_ROM/LT_TIMER
  +--> LT_TIMER_SYNC_TO_RTC/LT_TIMER
  +--> LT_TIMER_GET_RELATIVE/LT_TIMER
  +--> LT_TIMER_START_RAM/LT_TIMER
  +--> FUSE_ENABLE/FUSE
  +--> _DISPLAY_PARAM_ERROR/SM_FUSE_TIMER

_DISPLAY_PARAM_ERROR/SM_FUSE_TIMER            ----- -----  ----- -----  0018H 0019H
  +--> LED_CLEAR/LED
  +--> _LED_SET_CODE/LED
  +--> SM_FUSE_TIMER

ROLLBACK_PARAM/SM_FUSE_TIMER                  ----- -----  ----- -----  ----- -----
  +--> FUSE_ENABLE/FUSE
  +--> STOP_PERIPHERAL/SM_FUSE_TIMER
LX51 LINKER/LOCATER V4.66.87.0                                                        04/18/2018  10:36:57  PAGE 39


  +--> LT_TIMER_RESET/LT_TIMER

STOP_PERIPHERAL/SM_FUSE_TIMER                 ----- -----  ----- -----  ----- -----
  +--> THERMO_ENABLE/THERMO
  +--> MPU_ENABLE/MPU
  +--> HG_ENABLE/HG

LT_TIMER_RESET/LT_TIMER                       ----- -----  ----- -----  ----- -----
  +--> LT_TIMER_STOP_RTC/LT_TIMER
  +--> LT_TIMER_STOP_RAM/LT_TIMER

LT_TIMER_DISPLAY/LT_TIMER                     20H.0 20H.0  ----- -----  ----- -----
  +--> _DEBUG_PRINTF/DEBUG

LT_TIMER_SWITCH_DISPLAY/LT_TIMER              ----- -----  ----- -----  ----- -----
  +--> _DEBUG_PRINTF/DEBUG

DISPLAY_PASSWORD/SM_FUSE_TIMER                ----- -----  ----- -----  ----- -----
  +--> LED_CLEAR/LED
  +--> _LED_SET_CODE/LED

VERIFY_PASSWORD/SM_FUSE_TIMER                 ----- -----  ----- -----  0014H 0014H
  +--> _ROM_READ/ROM
  +--> SM_FUSE_TIMER
  +--> _DEBUG_PRINTF/DEBUG

INC_PASSWORD/SM_FUSE_TIMER                    ----- -----  ----- -----  ----- -----

_DISPLAY_TIMER/SM_FUSE_TIMER                  ----- -----  ----- -----  0014H 0014H
  +--> LED_CLEAR/LED
  +--> _LED_SET_CODE/LED

_SM_FUSE_GRENADE/SM_FUSE_GRENADE              ----- -----  ----- -----  0011H 0013H
  +--> _DEBUG_PRINTF/DEBUG
  +--> _DISPLAY_LOGO/MOD_COMMON
  +--> SM_FUSE_GRENADE
  +--> _DISPLAY_GRENADE/SM_FUSE_GRENADE
  +--> GRENADE_CHECK_SET_PARAM/SM_FUSE_GRENADE
  +--> MPU_ENABLE/MPU
  +--> FUSE_ENABLE/FUSE

SM_FUSE_GRENADE                               ----- -----  ----- -----  ----- -----

_DISPLAY_GRENADE/SM_FUSE_GRENADE              ----- -----  ----- -----  0014H 0014H
  +--> LED_CLEAR/LED
  +--> _LED_SET_CODE/LED
  +--> _LED_SET_BLINK/LED

GRENADE_CHECK_SET_PARAM/SM_FUSE_GRENADE       ----- -----  ----- -----  0014H 0014H
  +--> _ROM_READ/ROM
  +--> _DISPLAY_PARAM_ERROR/MOD_COMMON
  +--> MPU_ENABLE/MPU
  +--> FUSE_ENABLE/FUSE

_DISPLAY_PARAM_ERROR/MOD_COMMON               ----- -----  ----- -----  0015H 0016H
  +--> LED_CLEAR/LED
  +--> _LED_SET_CODE/LED

_SM_FUSE_DETONATE/SM_FUSE_DETONATE            ----- -----  ----- -----  0011H 0012H
  +--> _DEBUG_PRINTF/DEBUG
  +--> DISPLAY_DETONATE/SM_FUSE_DETONATE
  +--> FUSE_TRIGGER/FUSE
  +--> FUSE_ENABLE/FUSE

DISPLAY_DETONATE/SM_FUSE_DETONATE             ----- -----  ----- -----  ----- -----
LX51 LINKER/LOCATER V4.66.87.0                                                        04/18/2018  10:36:57  PAGE 40


  +--> LED_CLEAR/LED
  +--> _LED_SET_CODE/LED
  +--> _LED_SET_BLINK/LED

FUSE_TRIGGER/FUSE                             20H.0 20H.0  ----- -----  ----- -----
  +--> _DEBUG_PRINTF/DEBUG
  +--> _SERIAL_SET_CTL_BIT/SERIAL_HUB
  +--> SERIAL_CTL_OUT/SERIAL_HUB

_SM_FUSE_POWERSAVE/SM_FUSE_POWERSAVE          ----- -----  ----- -----  0011H 0012H
  +--> _DEBUG_PRINTF/DEBUG
  +--> POWER_ENTER_POWERSAVE/POWER
  +--> POWER_LEAVE_POWERSAVE/POWER
  +--> STOP_PERIPHERAL/SM_FUSE_POWERSAVE
  +--> LT_TIMER_RESET/LT_TIMER

STOP_PERIPHERAL/SM_FUSE_POWERSAVE             ----- -----  ----- -----  ----- -----
  +--> THERMO_ENABLE/THERMO
  +--> MPU_ENABLE/MPU
  +--> HG_ENABLE/HG

_SCAN_KEY_PROC/KEY                            ----- -----  ----- -----  ----- -----
  +--> _DELAY_10US/MISC
  +--> CLOCK_GET_SEC_256/CLOCK
  +--> KEY

KEY                                           ----- -----  ----- -----  ----- -----

_SET_PROC/KEY                                 ----- -----  ----- -----  000CH 000CH
  +--> KEY
  +--> _DEBUG_PRINTF/DEBUG
  +--> BEEPER_BEEP/BEEPER
  +--> _RUN_STATE_MACHINE/SM

BEEPER_BEEP/BEEPER                            ----- -----  ----- -----  000DH 000DH
  +--> _DEBUG_PRINTF/DEBUG
  +--> _DELAY_10US/MISC

_MOD_PROC/KEY                                 ----- -----  ----- -----  000CH 000CH
  +--> KEY
  +--> _DEBUG_PRINTF/DEBUG
  +--> BEEPER_BEEP/BEEPER
  +--> _RUN_STATE_MACHINE/SM

_MOD_SET_PROC/KEY                             ----- -----  ----- -----  000CH 000CH
  +--> _DEBUG_PRINTF/DEBUG
  +--> _RUN_STATE_MACHINE/SM

_FUSE_PROC/FUSE                               ----- -----  ----- -----  000CH 000CH
  +--> _DEBUG_PRINTF/DEBUG
  +--> _RUN_STATE_MACHINE/SM

_NULL_PROC/SM                                 ----- -----  ----- -----  ----- -----
  +--> _RUN_STATE_MACHINE/SM

_THERMO_PROC/THERMO                           ----- -----  ----- -----  000CH 000CH
  +--> _DEBUG_PRINTF/DEBUG
  +--> _RUN_STATE_MACHINE/SM

_ALARM_PROC/ALARM                             ----- -----  ----- -----  000CH 000CH
  +--> _DEBUG_PRINTF/DEBUG
  +--> _RUN_STATE_MACHINE/SM

_POWER_PROC/POWER                             ----- -----  ----- -----  000CH 000CH
  +--> _DEBUG_PRINTF/DEBUG
LX51 LINKER/LOCATER V4.66.87.0                                                        04/18/2018  10:36:57  PAGE 41


  +--> _RUN_STATE_MACHINE/SM

SM_INITIALIZE/SM                              ----- -----  ----- -----  ----- -----
  +--> _DEBUG_PRINTF/DEBUG
  +--> LT_TIMER_SWITCH_OFF/LT_TIMER
  +--> ALARM_SWITCH_ON/ALARM
  +--> RTC_SET_LT_TIMER/RTC

RUN_TASK/TASK                                 ----- -----  ----- -----  0000H 0000H
  +--> COM_TRY_GET_KEY/COM
  +--> TASK

COM_TRY_GET_KEY/COM                           ----- -----  ----- -----  ----- -----
  +--> COM

COM                                           ----- -----  ----- -----  ----- -----

TASK                                          ----- -----  ----- -----  ----- -----

RUN_SHELL/SHELL                               ----- -----  ----- -----  0000H 0001H
  +--> PRINTF/PRINTF
  +--> CLOCK_ENTER_SHELL/CLOCK
  +--> LED_SAVE/LED
  +--> LED_CLEAR/LED
  +--> _LED_SET_CODE/LED
  +--> _GETS/GETS
  +--> SHELL
  +--> _CALL_CMD/SHELL
  +--> LED_RESTORE/LED
  +--> CLOCK_LEAVE_SHELL/CLOCK

_CMD_HELP/CMD_HELP                            ----- -----  ----- -----  0008H 0008H
  +--> SHELL_DUMP_CMD/SHELL
  +--> CMD_HELP
  +--> _SHELL_SEARCH_CMD_BY_NAME/SHELL
  +--> PRINTF/PRINTF

SHELL_DUMP_CMD/SHELL                          ----- -----  ----- -----  0009H 0009H
  +--> SHELL
  +--> PRINTF/PRINTF

SHELL                                         ----- -----  ----- -----  ----- -----

CMD_HELP                                      ----- -----  ----- -----  ----- -----

_SHELL_SEARCH_CMD_BY_NAME/SHELL               ----- -----  ----- -----  0009H 000CH
  +--> SHELL

_CMD_DBG/CMD_DBG                              ----- -----  ----- -----  0008H 0008H
  +--> CMD_DBG
  +--> PRINTF/PRINTF
  +--> DEBUG_ONOFF/DEBUG

CMD_DBG                                       ----- -----  ----- -----  ----- -----

DEBUG_ONOFF/DEBUG                             20H.0 20H.0  ----- -----  ----- -----

_CMD_SERIAL/CMD_SERIAL                        ----- -----  ----- -----  0008H 000BH
  +--> SERIAL_DUMP/SERIAL_HUB
  +--> _SERIAL_TEST_CTL_BIT/SERIAL_HUB
  +--> CMD_SERIAL
  +--> PRINTF/PRINTF
  +--> _SERIAL_SET_CTL_BIT/SERIAL_HUB
  +--> SERIAL_CTL_OUT/SERIAL_HUB
  +--> _ATOI/ATOI
LX51 LINKER/LOCATER V4.66.87.0                                                        04/18/2018  10:36:57  PAGE 42



CMD_SERIAL                                    ----- -----  ----- -----  ----- -----

_ATOI/ATOI                                    20H.1 20H.1  ----- -----  000FH 0013H
  +--> _ISSPACE/ISSPACE
  +--> _ISDIGIT/ISDIGIT

_ISSPACE/ISSPACE                              ----- -----  ----- -----  ----- -----

_ISDIGIT/ISDIGIT                              ----- -----  ----- -----  ----- -----

_CMD_INT/CMD_INT                              ----- -----  ----- -----  0008H 0008H
  +--> INT_HUB_DUMP/INT_HUB
  +--> INT_HUB_GET_STATUS/INT_HUB
  +--> _INT_HUB_DUMP_EXT_STATUS/INT_HUB

_CMD_I2C/CMD_I2C                              ----- -----  ----- -----  0008H 0009H
  +--> CMD_I2C
  +--> _I2C_READ/CMD_I2C
  +--> _I2C_WRITE/CMD_I2C

CMD_I2C                                       ----- -----  ----- -----  ----- -----

_I2C_READ/CMD_I2C                             20H.0 20H.0  ----- -----  000AH 000DH
  +--> CMD_I2C
  +--> _ATOI/ATOI
  +--> I2C_INIT/I2C
  +--> _I2C_GET/I2C
  +--> PRINTF/PRINTF

_I2C_WRITE/CMD_I2C                            20H.0 20H.0  ----- -----  000AH 000EH
  +--> CMD_I2C
  +--> _ATOI/ATOI
  +--> PRINTF/PRINTF
  +--> I2C_INIT/I2C
  +--> _I2C_PUT/I2C

_CMD_REBOOT/CMD_REBOOT                        ----- -----  ----- -----  0008H 0009H

_CMD_TASK/CMD_TASK                            ----- -----  ----- -----  0008H 000AH
  +--> TASK_DUMP/TASK
  +--> CMD_TASK
  +--> _ATOI/ATOI

TASK_DUMP/TASK                                ----- -----  ----- -----  000BH 000BH
  +--> TASK
  +--> PRINTF/PRINTF

CMD_TASK                                      ----- -----  ----- -----  ----- -----

_CMD_SM/CMD_SM                                ----- -----  ----- -----  0008H 0009H
  +--> SM_SHOW_CURRENT/SM
  +--> CMD_SM
  +--> SM_DUMP/SM
  +--> SM_DUMP_TABLE/SM
  +--> _SM_SET_TABLE_BY_NAME/SM
  +--> SM_DUMP_STATE/SM
  +--> _SM_SET_STATE_BY_NAME/SM
  +--> SM_DUMP_SUB_STATE/SM
  +--> _SM_SET_SUB_STATE_BY_NAME/SM
  +--> PRINTF/PRINTF

SM_SHOW_CURRENT/SM                            ----- -----  ----- -----  ----- -----
  +--> SM
  +--> PRINTF/PRINTF
LX51 LINKER/LOCATER V4.66.87.0                                                        04/18/2018  10:36:57  PAGE 43



CMD_SM                                        ----- -----  ----- -----  ----- -----

SM_DUMP/SM                                    ----- -----  ----- -----  000AH 000CH
  +--> SM
  +--> PRINTF/PRINTF

SM_DUMP_TABLE/SM                              ----- -----  ----- -----  000AH 000AH
  +--> SM
  +--> PRINTF/PRINTF

_SM_SET_TABLE_BY_NAME/SM                      ----- -----  ----- -----  000AH 000DH
  +--> SM
  +--> PRINTF/PRINTF

SM_DUMP_STATE/SM                              ----- -----  ----- -----  000AH 000AH
  +--> SM
  +--> PRINTF/PRINTF

_SM_SET_STATE_BY_NAME/SM                      ----- -----  ----- -----  000AH 000DH
  +--> SM
  +--> PRINTF/PRINTF
  +--> _SM_SET_STATE/SM
  +--> _SM_SET_SUB_STATE/SM

_SM_SET_STATE/SM                              ----- -----  ----- -----  ----- -----

_SM_SET_SUB_STATE/SM                          ----- -----  ----- -----  ----- -----
  +--> SM

SM_DUMP_SUB_STATE/SM                          ----- -----  ----- -----  000AH 000AH
  +--> SM
  +--> PRINTF/PRINTF

_SM_SET_SUB_STATE_BY_NAME/SM                  ----- -----  ----- -----  000AH 000DH
  +--> SM
  +--> PRINTF/PRINTF
  +--> _SM_SET_SUB_STATE/SM

_CMD_BEEPER/CMD_BEEPER                        ----- -----  ----- -----  0008H 000AH
  +--> CMD_BEEPER
  +--> BEEPER_BEEP/BEEPER
  +--> BEEPER_BEEP_BEEP/BEEPER
  +--> BEEPER_SET_BEEP_ENABLE/BEEPER
  +--> BEEPER_GET_MUSIC_INDEX/BEEPER
  +--> BEEPER_INC_MUSIC_INDEX/BEEPER
  +--> PRINTF/PRINTF
  +--> BEEPER_PLAY_MUSIC/BEEPER

CMD_BEEPER                                    ----- -----  ----- -----  ----- -----

BEEPER_BEEP_BEEP/BEEPER                       ----- -----  ----- -----  000BH 000BH
  +--> _DEBUG_PRINTF/DEBUG
  +--> _DELAY_10US/MISC
  +--> _DELAY_MS/MISC

_CMD_THERMO/CMD_THERMO                        ----- -----  ----- -----  0008H 000AH
  +--> THERMO_GET_CURRENT/THERMO
  +--> CMD_THERMO
  +--> THERMO_ENABLE/THERMO
  +--> THERMO_HI_THRESHOLD_GET/THERMO
  +--> THERMO_LO_THRESHOLD_GET/THERMO
  +--> PRINTF/PRINTF
  +--> THERMO_HI_THRESHOLD_INC/THERMO
  +--> THERMO_HI_THRESHOLD_DEC/THERMO
LX51 LINKER/LOCATER V4.66.87.0                                                        04/18/2018  10:36:57  PAGE 44


  +--> THERMO_HI_THRESHOLD_RESET/THERMO
  +--> _THERMO_HI_THRESHOLD_SET/THERMO
  +--> THERMO_LO_THRESHOLD_INC/THERMO
  +--> THERMO_LO_THRESHOLD_DEC/THERMO
  +--> THERMO_LO_THRESHOLD_RESET/THERMO
  +--> _THERMO_LO_THRESHOLD_SET/THERMO
  +--> _ATOI/ATOI

CMD_THERMO                                    ----- -----  ----- -----  ----- -----

THERMO_HI_THRESHOLD_INC/THERMO                ----- -----  ----- -----  ----- -----
  +--> THERMO_HI_THRESHOLD_GET/THERMO
  +--> THERMO
  +--> _THERMO_HI_THRESHOLD_SET/THERMO

THERMO_LO_THRESHOLD_DEC/THERMO                ----- -----  ----- -----  ----- -----
  +--> THERMO_LO_THRESHOLD_GET/THERMO
  +--> THERMO
  +--> _THERMO_LO_THRESHOLD_SET/THERMO

_CMD_MPU/CMD_MPU                              ----- -----  ----- -----  0008H 0009H
  +--> CMD_MPU
  +--> MPU_ENABLE/MPU
  +--> MPU_READ/CMD_MPU
  +--> COM_TRY_GET_KEY/COM
  +--> MPU_READ_INT_STATUS/MPU
  +--> PRINTF/PRINTF

CMD_MPU                                       ----- -----  ----- -----  ----- -----

MPU_READ/CMD_MPU                              ----- -----  ----- -----  000AH 0013H
  +--> _MPU_READ_ACC/MPU
  +--> CMD_MPU
  +--> PRINTF/PRINTF

_MPU_READ_ACC/MPU                             ----- -----  ----- -----  0014H 001FH
  +--> MPU
  +--> _I2C_GET/I2C

MPU_READ_INT_STATUS/MPU                       ----- -----  ----- -----  000AH 000AH
  +--> _I2C_GET/I2C

_CMD_NULL/SHELL                               ----- -----  ----- -----  ----- -----
  +--> PRINTF/PRINTF

CLOCK_ENTER_SHELL/CLOCK                       ----- -----  ----- -----  ----- -----

LED_SAVE/LED                                  ----- -----  ----- -----  ----- -----

_GETS/GETS                                    ----- -----  ----- -----  0002H 0008H
  +--> GETCHAR/GETCHAR
  +--> _PUTCHAR/COM

GETCHAR/GETCHAR                               ----- -----  ----- -----  ----- -----
  +--> _GETKEY/COM
  +--> _PUTCHAR/COM

_GETKEY/COM                                   ----- -----  ----- -----  ----- -----
  +--> COM

_CALL_CMD/SHELL                               ----- -----  ----- -----  0002H 0007H
  +--> SHELL
  +--> PRINTF/PRINTF
  +--> _SHELL_SEARCH_CMD_BY_NAME/SHELL

LX51 LINKER/LOCATER V4.66.87.0                                                        04/18/2018  10:36:57  PAGE 45


LED_RESTORE/LED                               ----- -----  ----- -----  ----- -----

CLOCK_LEAVE_SHELL/CLOCK                       ----- -----  ----- -----  ----- -----
  +--> CLOCK_ENABLE_INTERRUPT/CLOCK
  +--> _CLOCK_SYNC_FROM_RTC/CLOCK

*** NEW ROOT ********************************

COM_ISR/COM                                   ----- -----  ----- -----  ----- -----

*** NEW ROOT ********************************

INT0_ISR/KEY                                  ----- -----  ----- -----  ----- -----
  +--> POWER_TEST_FLAG/POWER
  +--> POWER_CLR_FLAG/POWER
  +--> KEY
  +--> BEEPER_STOP_MUSIC/BEEPER

BEEPER_STOP_MUSIC/BEEPER                      ----- -----  ----- -----  ----- -----
  +--> _BEEPER_STOP_PLAY/BEEPER

*** NEW ROOT ********************************

BEEPER_ISR/BEEPER                             ----- -----  ----- -----  ----- -----

*** NEW ROOT ********************************

CLOCK0_ISR/CLOCK                              ----- -----  ----- -----  ----- -----
  +--> REFRESH_LED/LED
  +--> CLOCK_INC_MS39/CLOCK
  +--> TIMER_INC_MS39/TIMER

CLOCK_INC_MS39/CLOCK                          21H.3 21H.3  ----- -----  ----- -----
  +--> LT_TIMER_DEC_SEC/LT_TIMER
  +--> CLOCK

LT_TIMER_DEC_SEC/LT_TIMER                     ----- -----  ----- -----  ----- -----
  +--> LT_TIMER

TIMER_INC_MS39/TIMER                          ----- -----  ----- -----  ----- -----
  +--> TIMER

*** NEW ROOT ********************************

INT1_ISR/INT_HUB                              ----- -----  ----- -----  ----- -----
  +--> INT_HUB



PUBLIC SYMBOLS OF MODULE:  Clock (SM)


      VALUE       CLASS    TYPE      PUBLIC SYMBOL NAME
      =================================================
      00000020H.0 BIT      BIT       ?_alarm0_set_enable?BIT
      0200001EH   XDATA    BYTE      ?_debug_printf?BYTE
      00000020H.0 BIT      BIT       ?_fuse_set_fuse_broke?BIT
      02000023H   XDATA    BYTE      ?_I2C_Gets?BYTE
      0200001DH   XDATA    BYTE      ?_I2C_Puts?BYTE
      02000014H   XDATA    BYTE      ?_mpu_read_acc?BYTE
      0200004FH   XDATA    ---       ?_PRINTF?BYTE
      00000020H.0 BIT      BIT       ?_rtc_enable_alarm_int?BIT
      02000016H   XDATA    BYTE      ?_rtc_get_temperature?BYTE
      00000020H.1 BIT      BIT       ?_serial_set_ctl_bit?BIT
      0200004FH   XDATA    ---       ?_SPRINTF?BYTE
LX51 LINKER/LOCATER V4.66.87.0                                                        04/18/2018  10:36:57  PAGE 46


      020000D6H   XDATA    ---       ?_UNGETCHAR?BYTE
      02010049H   XDATA    ---       ?_VPRINTF?BYTE
      00000020H.0 BIT      BIT       ?alarm0_set_hour_12?BIT
      00000020H.0 BIT      BIT       ?alarm1_set_enable?BIT
      00000020H.0 BIT      BIT       ?beeper_set_beep_enable?BIT
      01000212H   CODE     ---       ?C?CASTF
      010007BAH   CODE     ---       ?C?CCASE
      00000025H.3 BIT      ---       ?C?CHARLOADED
      01000578H   CODE     ---       ?C?CLDOPTR
      0100055FH   CODE     ---       ?C?CLDPTR
      00000000H   NUMBER   ---       ?C?CODESEG
      010008DEH   CODE     ---       ?C?COPYP2
      01000A97H   CODE     ---       ?C?CSTOPTR
      010005A5H   CODE     ---       ?C?CSTPTR
      010001DEH   CODE     ---       ?C?FCASTC
      010001D9H   CODE     ---       ?C?FCASTI
      010001D4H   CODE     ---       ?C?FCASTL
      010003DCH   CODE     ---       ?C?FPADD
      010002D0H   CODE     ---       ?C?FPCONVERT
      01000137H   CODE     ---       ?C?FPDIV
      01000249H   CODE     ---       ?C?FPGETOPN2
      0100002EH   CODE     ---       ?C?FPMUL
      0100027EH   CODE     ---       ?C?FPNANRESULT
      01000288H   CODE     ---       ?C?FPOVERFLOW
      01000260H   CODE     ---       ?C?FPRESULT
      01000274H   CODE     ---       ?C?FPRESULT2
      01000293H   CODE     ---       ?C?FPROUND
      010003D8H   CODE     ---       ?C?FPSUB
      01000285H   CODE     ---       ?C?FPUNDERFLOW
      010004FDH   CODE     ---       ?C?FTNPWR
      010007E0H   CODE     ---       ?C?ICALL
      010007E4H   CODE     ---       ?C?ICALL2
      01000654H   CODE     ---       ?C?IILDX
      01000AB9H   CODE     ---       ?C?ILDIX
      0100066AH   CODE     ---       ?C?ILDOPTR
      010005B7H   CODE     ---       ?C?IMUL
      010006A2H   CODE     ---       ?C?ISTPTR
      010006CFH   CODE     ---       ?C?LLDXDATA
      010006C1H   CODE     ---       ?C?LNEG
      010006E7H   CODE     ---       ?C?LSTKXDATA
      010006DBH   CODE     ---       ?C?LSTXDATA
      010007E6H   CODE     ---       ?C?MEMSET
      01000718H   CODE     ---       ?C?OFFX256
      01000729H   CODE     ---       ?C?OFFXADD
      0100075EH   CODE     ---       ?C?PLDCODE
      01000ACFH   CODE     ---       ?C?PLDIDATA
      0100073EH   CODE     ---       ?C?PLDIXDATA
      0100078AH   CODE     ---       ?C?PLDOPTR
      01000AD8H   CODE     ---       ?C?PLDPDATA
      0100076AH   CODE     ---       ?C?PLDPTR
      01000735H   CODE     ---       ?C?PLDXDATA
      01000755H   CODE     ---       ?C?PSTXDATA
      0100053DH   CODE     ---       ?C?SCDIV
      0100061EH   CODE     ---       ?C?SIDIV
      01000A7AH   CODE     ---       ?C?STRCMPP2
      010005C9H   CODE     ---       ?C?UIDIV
      00000000H   NUMBER   ---       ?C?XDATASEG
      01006C4DH   CODE     ---       ?C_START
      01000000H   CODE     NEAR LAB  ?C_STARTUP
      0000001DH   DATA     ---       ?C_XBP
      00000020H.0 BIT      BIT       ?clock_display?BIT
      00000020H.2 BIT      BIT       ?clock_enable_interrupt?BIT
      00000020H.0 BIT      BIT       ?clock_set_hour_12?BIT
      00000020H.0 BIT      BIT       ?debug_onoff?BIT
      00000020H.0 BIT      BIT       ?fuse_enable?BIT
LX51 LINKER/LOCATER V4.66.87.0                                                        04/18/2018  10:36:57  PAGE 47


      00000020H.0 BIT      BIT       ?fuse_set_tripwire_broke?BIT
      00000020H.0 BIT      BIT       ?fuse_trigger?BIT
      00000020H.0 BIT      BIT       ?hg_enable?BIT
      00000020H.2 BIT      BIT       ?I2C_PutAck?BIT
      00000020H.0 BIT      BIT       ?lt_timer_display?BIT
      00000020H.0 BIT      BIT       ?lt_timer_get_relative?BIT
      00000020H.0 BIT      BIT       ?mpu_enable?BIT
      00000020H.0 BIT      BIT       ?rtc_alarm_set_hour_12?BIT
      00000020H.0 BIT      BIT       ?rtc_set_lt_timer?BIT
      00000020H.0 BIT      BIT       ?rtc_time_set_hour_12?BIT
      00000020H.0 BIT      BIT       ?thermo_enable?BIT
      00000020H.0 BIT      BIT       ?thermo_hi_enable?BIT
      00000020H.0 BIT      BIT       ?thermo_lo_enable?BIT
      00000020H.0 BIT      BIT       ?timer_set_led_autorefresh?BIT
      02000014H   XDATA    BYTE      ?timer_set_led_autorefresh?BYTE
      0100633CH   CODE     ---       _alarm0_set_enable
      01007A72H   CODE     ---       _alarm0_test_enable
      01007C0AH   CODE     ---       _alarm_proc
      01003FABH   CODE     ---       _atoi
      01008320H   CODE     ---       _clock_get_mon_date
      01008646H   CODE     ---       _clock_is_leap_year
      01008EF8H   CODE     ---       _clock_switch_display_mode
      01006001H   CODE     ---       _clock_sync_from_rtc
      0100606CH   CODE     ---       _clock_sync_to_rtc
      010037D9H   CODE     ---       _clock_yymmdd_to_day
      01003CE9H   CODE     ---       _cmd_beeper
      01006E47H   CODE     ---       _cmd_dbg
      0100683FH   CODE     ---       _cmd_help
      0100785BH   CODE     ---       _cmd_i2c
      01007494H   CODE     ---       _cmd_int
      010047A7H   CODE     ---       _cmd_mpu
      01007211H   CODE     ---       _cmd_reboot
      01004F4EH   CODE     ---       _cmd_serial
      010035B9H   CODE     ---       _cmd_sm
      010046EBH   CODE     ---       _cmd_task
      010031F7H   CODE     ---       _cmd_thermo
      0100761BH   CODE     ---       _debug_printf
      01008BE5H   CODE     ---       _delay_10us
      01008BF3H   CODE     ---       _delay_ms
      01006CDFH   CODE     ---       _delay_task_reg
      01006893H   CODE     ---       _display_logo
      010060D7H   CODE     ---       _display_param_error
      01008751H   CODE     ---       _fuse_proc
      01007158H   CODE     ---       _fuse_set_fuse_broke
      01008A76H   CODE     ---       _getkey
      01003DD7H   CODE     ---       _gets
      010085EAH   CODE     ---       _I2C_Get
      01005EBAH   CODE     ---       _I2C_Gets
      0100884CH   CODE     ---       _I2C_Put
      010067EAH   CODE     ---       _I2C_Puts
      010081F7H   CODE     ---       _I2C_Write
      01001CDCH   CODE     ---       _int_hub_dump_ext_status
      01007DD8H   CODE     ---       _int_hub_test_bit
      01008BACH   CODE     ---       _isdigit
      010088B0H   CODE     ---       _isspace
      01008601H   CODE     ---       _led_clr_blink
      01008B25H   CODE     ---       _led_clr_dp
      010086F9H   CODE     ---       _led_set_blink
      01006AC8H   CODE     ---       _led_set_code
      01008B34H   CODE     ---       _led_set_dp
      0100673BH   CODE     ---       _lt_timer_sync_to_rom
      01006A28H   CODE     ---       _mod_proc
      01007652H   CODE     ---       _mod_set_proc
      01004DFDH   CODE     ---       _mpu_read_acc
      01008F7CH   CODE     ---       _null_proc
LX51 LINKER/LOCATER V4.66.87.0                                                        04/18/2018  10:36:57  PAGE 48


      010083DFH   CODE     ---       _power_proc
      01001234H   CODE     ---       _PRINTF
      01007A14H   CODE     ---       _putbuf
      01008461H   CODE     ---       _putchar
      0100775AH   CODE     ---       _rom_read
      01007923H   CODE     ---       _rom_write
      010083ABH   CODE     ---       _rtc_alarm_set_date
      010086CDH   CODE     ---       _rtc_alarm_set_day
      010088EAH   CODE     ---       _rtc_alarm_set_hour
      010088FDH   CODE     ---       _rtc_alarm_set_min
      010054BCH   CODE     ---       _rtc_alarm_set_mode
      010082ACH   CODE     ---       _rtc_alarm_set_sec
      010085D3H   CODE     ---       _rtc_clr_alarm_int_flag
      01005094H   CODE     ---       _rtc_date_set_date
      0100896FH   CODE     ---       _rtc_date_set_day
      01008E80H   CODE     ---       _rtc_date_set_month
      01008E78H   CODE     ---       _rtc_date_set_year
      01007F09H   CODE     ---       _rtc_enable_alarm_int
      01005304H   CODE     ---       _rtc_get_temperature
      01006689H   CODE     ---       _rtc_read_data
      010082C9H   CODE     ---       _rtc_test_alarm_int
      010082E6H   CODE     ---       _rtc_test_alarm_int_flag
      01008EBCH   CODE     ---       _rtc_time_set_hour
      01008D8AH   CODE     ---       _rtc_time_set_min
      01008EC2H   CODE     ---       _rtc_time_set_sec
      01006793H   CODE     ---       _rtc_write_data
      01002967H   CODE     ---       _run_state_machine
      01005A00H   CODE     ---       _scan_fuse
      01005D5BH   CODE     ---       _scan_hg
      0100645EH   CODE     ---       _scan_int_hub_proc
      010039F1H   CODE     ---       _scan_key_proc
      010079B4H   CODE     ---       _serial_set_ctl_bit
      01007AFDH   CODE     ---       _serial_test_ctl_bit
      01006A78H   CODE     ---       _set_proc
      01006D28H   CODE     ---       _shell_search_cmd_by_name
      01005E45H   CODE     ---       _sm_clock_alarm
      010025A7H   CODE     ---       _sm_clock_counter
      010038E5H   CODE     ---       _sm_clock_display
      01002791H   CODE     ---       _sm_clock_mod_alarm
      01003AF7H   CODE     ---       _sm_clock_mod_global_flag
      01001F42H   CODE     ---       _sm_clock_mod_time
      010078C0H   CODE     ---       _sm_clock_powersave
      0100348AH   CODE     ---       _sm_clock_timer
      01005901H   CODE     ---       _sm_fuse_detonate
      010043CFH   CODE     ---       _sm_fuse_grenade
      0100542DH   CODE     ---       _sm_fuse_mode
      0100164CH   CODE     ---       _sm_fuse_param
      01006D71H   CODE     ---       _sm_fuse_powersave
      01000AE1H   CODE     ---       _sm_fuse_test
      01001A2DH   CODE     ---       _sm_fuse_timer
      01004301H   CODE     ---       _sm_set_state_by_name
      01005776H   CODE     ---       _sm_set_sub_state_by_name
      01004861H   CODE     ---       _sm_set_table_by_name
      0100122EH   CODE     ---       _SPRINTF
      01006C96H   CODE     ---       _thermo_hi_threshold_set
      01006BB5H   CODE     ---       _thermo_lo_threshold_set
      0100877DH   CODE     ---       _thermo_proc
      01008A65H   CODE     ---       _thermo_threshold_inc
      010088C4H   CODE     ---       _time_proc
      01008493H   CODE     ---       _timer_get_hour
      010084ACH   CODE     ---       _timer_get_min
      01008359H   CODE     ---       _timer_get_ms10
      010084DEH   CODE     ---       _timer_get_sec
      0100833DH   CODE     ---       _timer_inc_hour
      010084C5H   CODE     ---       _timer_inc_min
LX51 LINKER/LOCATER V4.66.87.0                                                        04/18/2018  10:36:57  PAGE 49


      010084F7H   CODE     ---       _timer_inc_sec
      01007F76H   CODE     ---       _timer_save
      01008F10H   CODE     ---       _timer_set_mode
      010076BDH   CODE     ---       _VPRINTF
*SFR* 000000D0H.6 DATA     BIT       AC
*SFR* 000000E0H   DATA     BYTE      ACC
      01008ECEH   CODE     ---       alarm0_get_day_mask
      01008EDAH   CODE     ---       alarm0_get_hour
      01008F82H   CODE     ---       alarm0_get_hour_12
      01008ED4H   CODE     ---       alarm0_get_min
      01008BD7H   CODE     ---       alarm0_inc_hour
      01008BC9H   CODE     ---       alarm0_inc_min
      01000026H   CODE     ---       alarm0_set_hour_12
      010068E5H   CODE     ---       alarm0_sync_to_rtc
      01008F22H   CODE     ---       alarm1_set_enable
      010077F5H   CODE     ---       alarm1_sync_to_rtc
      01008F85H   CODE     ---       alarm1_test_enable
      01006274H   CODE     ---       alarm_dump
      01008DA5H   CODE     ---       alarm_enter_powersave
      01008B43H   CODE     ---       alarm_initialize
      01008DAEH   CODE     ---       alarm_leave_powersave
      01008137H   CODE     ---       alarm_switch_off
      01008B52H   CODE     ---       alarm_switch_on
*SFR* 0000008EH   DATA     BYTE      AUXR
*SFR* 000000A2H   DATA     BYTE      AUXR1
*SFR* 000000F0H   DATA     BYTE      B
      01007CB8H   CODE     ---       beeper_beep
      01006F5AH   CODE     ---       beeper_beep_beep
      0100709CH   CODE     ---       beeper_beep_beep_always
      01008DC0H   CODE     ---       beeper_enter_powersave
      01008F91H   CODE     ---       beeper_get_beep_enable
      01008EF2H   CODE     ---       beeper_get_music_index
      01008EECH   CODE     ---       beeper_get_music_to
      0100862FH   CODE     ---       beeper_inc_music_index
      01008874H   CODE     ---       beeper_inc_music_to
      01006F17H   CODE     ---       beeper_initialize
      01008DC9H   CODE     ---       beeper_leave_powersave
*SFR* 00000090H.0 DATA     BIT       beeper_out
      0100806EH   CODE     ---       beeper_play_music
      01008F27H   CODE     ---       beeper_set_beep_enable
      01008F94H   CODE     ---       beeper_stop_music
*SFR* 000000C8H.1 DATA     BIT       C_T2
      01008F45H   CODE     ---       clock_clr_sec
      01008F2CH   CODE     ---       clock_display
      0100539AH   CODE     ---       clock_dump
      01008DD2H   CODE     ---       clock_enable_interrupt
      01008C0FH   CODE     ---       clock_enter_powersave
      01008F9AH   CODE     ---       clock_enter_shell
      01008EFEH   CODE     ---       clock_get_date
      01008F04H   CODE     ---       clock_get_day
      01008F4FH   CODE     ---       clock_get_hour
      01008F97H   CODE     ---       clock_get_hour_12
      01008F4AH   CODE     ---       clock_get_min
      01008F0AH   CODE     ---       clock_get_month
      01008F36H   CODE     ---       clock_get_ms39
      01008F40H   CODE     ---       clock_get_sec
      01008F3BH   CODE     ---       clock_get_sec_256
      01008F54H   CODE     ---       clock_get_year
      01008157H   CODE     ---       clock_inc_date
      01008CD4H   CODE     ---       clock_inc_hour
      01008CC9H   CODE     ---       clock_inc_min
      0100870FH   CODE     ---       clock_inc_month
      010087D2H   CODE     ---       clock_inc_year
      01007B58H   CODE     ---       clock_initialize
      01008574H   CODE     ---       clock_leave_powersave
LX51 LINKER/LOCATER V4.66.87.0                                                        04/18/2018  10:36:57  PAGE 50


      01008725H   CODE     ---       clock_leave_shell
      01008F31H   CODE     ---       clock_set_hour_12
      0100A191H   CONST    ---       cmds
      01008BBBH   CODE     ---       com_enter_powersave
      01007D60H   CODE     ---       com_initialize
      01000016H   CODE     ---       com_leave_powersave
      010087FCH   CODE     ---       com_try_get_key
      020000C5H   XDATA    BYTE      common_state
*SFR* 000000C8H.0 DATA     BIT       CP_RL2
*SFR* 000000D0H.7 DATA     BIT       CY
      01008FA0H   CODE     ---       debug_initialize
      01008F77H   CODE     ---       debug_onoff
      01006936H   CODE     ---       delay_task_call
      01008E23H   CODE     ---       delay_task_initialize
*SFR* 00000083H   DATA     BYTE      DPH
*SFR* 00000082H   DATA     BYTE      DPL
      0100724EH   CODE     ---       dump_rtc
*SFR* 000000A8H.7 DATA     BIT       EA
*SFR* 000000A8H.6 DATA     BIT       EC
*SFR* 000000A8H.4 DATA     BIT       ES
*SFR* 000000A8H.1 DATA     BIT       ET0
*SFR* 000000A8H.3 DATA     BIT       ET1
*SFR* 000000A8H.5 DATA     BIT       ET2
      0000005AH   IDATA    WORD      ev_bits0
      0000005CH   IDATA    WORD      ev_bits1
*SFR* 000000A8H.0 DATA     BIT       EX0
*SFR* 000000A8H.2 DATA     BIT       EX1
*SFR* 000000C8H.3 DATA     BIT       EXEN2
*SFR* 000000C8H.6 DATA     BIT       EXF2
*SFR* 00000090H.4 DATA     BIT       EXT_INT
*SFR* 000000D0H.5 DATA     BIT       F0
*SFR* 00000098H.7 DATA     BIT       FE
      01007ACFH   CODE     ---       fuse_enable
      01008DE4H   CODE     ---       fuse_enter_powersave
      01008C1DH   CODE     ---       fuse_initialize
      01008DEDH   CODE     ---       fuse_leave_powersave
      01007E72H   CODE     ---       fuse_set_tripwire_broke
      01007B85H   CODE     ---       fuse_trigger
      0100889CH   CODE     ---       GETCHAR
      01007DB0H   CODE     ---       hg_enable
      01008DF6H   CODE     ---       hg_enter_powersave
      010089C9H   CODE     ---       hg_get_state
      010089B7H   CODE     ---       hg_initialize
      01008DFFH   CODE     ---       hg_leave_powersave
      01008A18H   CODE     ---       I2C_Delay
      0100804CH   CODE     ---       I2C_GetAck
      01008D58H   CODE     ---       I2C_Init
      01008981H   CODE     ---       I2C_PutAck
      01007A43H   CODE     ---       I2C_Read
*SFR* 00000090H.7 DATA     BIT       I2C_SCL
*SFR* 00000090H.6 DATA     BIT       I2C_SDA
      01008CBEH   CODE     ---       I2C_Start
      010086E3H   CODE     ---       I2C_Stop
*SFR* 000000A8H   DATA     BYTE      IE
*SFR* 00000088H.1 DATA     BIT       IE0
*SFR* 00000088H.3 DATA     BIT       IE1
*SFR* 000000B0H.2 DATA     BIT       INT0
*SFR* 000000B0H.3 DATA     BIT       INT1
*SFR* 000000B0H.3 DATA     BIT       INT_BIT
      010063FEH   CODE     ---       int_hub_dump
      010062D9H   CODE     ---       int_hub_get_status
      01005F95H   CODE     ---       int_hub_initialize
*SFR* 000000B8H   DATA     BYTE      IP
*SFR* 000000B7H   DATA     BYTE      IPH
*SFR* 000000E3H   DATA     BYTE      ISP_ADDRH
LX51 LINKER/LOCATER V4.66.87.0                                                        04/18/2018  10:36:57  PAGE 51


*SFR* 000000E4H   DATA     BYTE      ISP_ADDRL
*SFR* 000000E5H   DATA     BYTE      ISP_CMD
*SFR* 000000E7H   DATA     BYTE      ISP_CONTR
*SFR* 000000E2H   DATA     BYTE      ISP_DATA
*SFR* 000000E6H   DATA     BYTE      ISP_TRIG
*SFR* 00000088H.0 DATA     BIT       IT0
*SFR* 00000088H.2 DATA     BIT       IT1
      01008D93H   CODE     ---       key_enter_powersave
      0100847AH   CODE     ---       key_initialize
      01008D9CH   CODE     ---       key_leave_powersave
      020000C7H   XDATA    BYTE      last_display_s
      00000042H   IDATA    BYTE      led_blink
      01008A32H   CODE     ---       led_clear
      0100CB22H   CONST    ---       led_code
      00000044H   IDATA    ---       led_data
      01008A43H   CODE     ---       led_enter_powersave
      01007300H   CODE     ---       led_initialize
      010087A8H   CODE     ---       led_leave_powersave
      00000024H.5 BIT      BIT       led_powersave
      01007E4CH   CODE     ---       led_restore
      01007E26H   CODE     ---       led_save
      00000022H.6 BIT      BIT       lpress_lock_day_sec
      00000022H.4 BIT      BIT       lpress_lock_month_min
      00000022H.5 BIT      BIT       lpress_lock_year_hour
      020000C6H   XDATA    BYTE      lpress_start
      010051CFH   CODE     ---       lt_timer_dec_sec
      010083F9H   CODE     ---       lt_timer_display
      010087E7H   CODE     ---       lt_timer_enter_powersave
      01008F1CH   CODE     ---       lt_timer_get_date
      01008F5EH   CODE     ---       lt_timer_get_hour
      01008F63H   CODE     ---       lt_timer_get_min
      01008F16H   CODE     ---       lt_timer_get_month
      0100613FH   CODE     ---       lt_timer_get_relative
      01008F68H   CODE     ---       lt_timer_get_sec
      01008F59H   CODE     ---       lt_timer_get_year
      01008D00H   CODE     ---       lt_timer_inc_date
      01008D0BH   CODE     ---       lt_timer_inc_hour
      01008D16H   CODE     ---       lt_timer_inc_min
      01008CF5H   CODE     ---       lt_timer_inc_month
      01008D21H   CODE     ---       lt_timer_inc_sec
      01008CEAH   CODE     ---       lt_timer_inc_year
      010089DBH   CODE     ---       lt_timer_initialize
      01008006H   CODE     ---       lt_timer_leave_powersave
      01008B61H   CODE     ---       lt_timer_reset
      01008C2BH   CODE     ---       lt_timer_start_ram
      01008235H   CODE     ---       lt_timer_start_rtc
      01008C83H   CODE     ---       lt_timer_stop_ram
      01008253H   CODE     ---       lt_timer_stop_rtc
      0100865DH   CODE     ---       lt_timer_switch_display
      01008177H   CODE     ---       lt_timer_switch_off
      01008C77H   CODE     ---       lt_timer_switch_on
      010075E4H   CODE     ---       lt_timer_sync_from_rom
      0100728AH   CODE     ---       lt_timer_sync_to_rtc
      01006C4DH   CODE     ---       main
*SFR* 000000A0H.6 DATA     BIT       MOD_KEY
      01008216H   CODE     ---       mpu_enable
      01008E2CH   CODE     ---       mpu_enter_powersave
      01008B70H   CODE     ---       mpu_initialize
*SFR* 00000090H.2 DATA     BIT       MPU_INT
      01008E35H   CODE     ---       mpu_leave_powersave
      0100895CH   CODE     ---       mpu_read_int_status
*SFR* 000000D0H.2 DATA     BIT       OV
*SFR* 000000D0H.0 DATA     BIT       P
*SFR* 00000080H   DATA     BYTE      P0
*SFR* 00000080H.0 DATA     BIT       P00
LX51 LINKER/LOCATER V4.66.87.0                                                        04/18/2018  10:36:57  PAGE 52


*SFR* 00000080H.1 DATA     BIT       P01
*SFR* 00000080H.2 DATA     BIT       P02
*SFR* 00000080H.3 DATA     BIT       P03
*SFR* 00000080H.4 DATA     BIT       P04
*SFR* 00000080H.5 DATA     BIT       P05
*SFR* 00000080H.6 DATA     BIT       P06
*SFR* 00000080H.7 DATA     BIT       P07
*SFR* 00000090H   DATA     BYTE      P1
*SFR* 00000090H.0 DATA     BIT       P10
*SFR* 00000090H.1 DATA     BIT       P11
*SFR* 00000090H.2 DATA     BIT       P12
*SFR* 00000090H.3 DATA     BIT       P13
*SFR* 00000090H.4 DATA     BIT       P14
*SFR* 00000090H.5 DATA     BIT       P15
*SFR* 00000090H.6 DATA     BIT       P16
*SFR* 00000090H.7 DATA     BIT       P17
*SFR* 000000A0H   DATA     BYTE      P2
*SFR* 000000A0H.0 DATA     BIT       P20
*SFR* 000000A0H.1 DATA     BIT       P21
*SFR* 000000A0H.2 DATA     BIT       P22
*SFR* 000000A0H.3 DATA     BIT       P23
*SFR* 000000A0H.4 DATA     BIT       P24
*SFR* 000000A0H.5 DATA     BIT       P25
*SFR* 000000A0H.6 DATA     BIT       P26
*SFR* 000000A0H.7 DATA     BIT       P27
*SFR* 000000B0H   DATA     BYTE      P3
*SFR* 000000B0H.0 DATA     BIT       P30
*SFR* 000000B0H.1 DATA     BIT       P31
*SFR* 000000B0H.2 DATA     BIT       P32
*SFR* 000000B0H.3 DATA     BIT       P33
*SFR* 000000B0H.4 DATA     BIT       P34
*SFR* 000000B0H.5 DATA     BIT       P35
*SFR* 000000B0H.6 DATA     BIT       P36
*SFR* 000000B0H.7 DATA     BIT       P37
*SFR* 000000E8H   DATA     BYTE      P4
*SFR* 000000E8H.0 DATA     BIT       P40
*SFR* 000000E8H.1 DATA     BIT       P41
*SFR* 000000E8H.2 DATA     BIT       P42
*SFR* 000000E8H.3 DATA     BIT       P43
*SFR* 000000E8H.4 DATA     BIT       P44
*SFR* 000000E8H.5 DATA     BIT       P45
*SFR* 000000E8H.6 DATA     BIT       P46
*SFR* 00000087H   DATA     BYTE      PCON
*SFR* 000000B0H.6 DATA     BIT       POWER_5V_EN
      01008F8EH   CODE     ---       power_clr_flag
      01006DB9H   CODE     ---       power_enter_powersave
      01008618H   CODE     ---       power_get_powersave_to
      01008EE0H   CODE     ---       power_get_powersave_to_s
      01007F52H   CODE     ---       power_inc_powersave_to
      010078F2H   CODE     ---       power_initialize
      01007954H   CODE     ---       power_leave_powersave
      01008DB7H   CODE     ---       power_reset_powersave_to
      01008F8BH   CODE     ---       power_set_flag
      01008F88H   CODE     ---       power_test_flag
      01007984H   CODE     ---       power_test_powersave_to
      00000024H.6 BIT      BIT       powersave_flag
*SFR* 000000A0H   DATA     BYTE      PPAGE_SFR
*SFR* 000000B8H.4 DATA     BIT       PS
*SFR* 000000D0H   DATA     BYTE      PSW
*SFR* 000000B8H.1 DATA     BIT       PT0
*SFR* 000000B8H.3 DATA     BIT       PT1
*SFR* 000000B8H.5 DATA     BIT       PT2
*SFR* 000000B8H.0 DATA     BIT       PX0
*SFR* 000000B8H.2 DATA     BIT       PX1
*SFR* 00000098H.2 DATA     BIT       RB8
LX51 LINKER/LOCATER V4.66.87.0                                                        04/18/2018  10:36:57  PAGE 53


*SFR* 000000CBH   DATA     BYTE      RCAP2H
*SFR* 000000CAH   DATA     BYTE      RCAP2L
*SFR* 000000C8H.5 DATA     BIT       RCLK
*SFR* 000000B0H.7 DATA     BIT       RD
      010065D6H   CODE     ---       refresh_led
*SFR* 00000098H.4 DATA     BIT       REN
*SFR* 00000098H.0 DATA     BIT       RI
      01007196H   CODE     ---       rom_initialize
      01008E90H   CODE     ---       rom_is_factory_reset
*SFR* 000000B0H.7 DATA     BIT       ROM_RESET
*SFR* 000000D0H.3 DATA     BIT       RS0
*SFR* 000000D0H.4 DATA     BIT       RS1
      01008793H   CODE     ---       rtc_alarm_get_date
      01008810H   CODE     ---       rtc_alarm_get_day
      0100868BH   CODE     ---       rtc_alarm_get_hour
      010086A1H   CODE     ---       rtc_alarm_get_hour_12
      010086B7H   CODE     ---       rtc_alarm_get_min
      01004232H   CODE     ---       rtc_alarm_get_mode
      01008824H   CODE     ---       rtc_alarm_get_sec
      0100828FH   CODE     ---       rtc_alarm_set_hour_12
      01008E88H   CODE     ---       rtc_date_get_date
      01008EC8H   CODE     ---       rtc_date_get_day
      01008C53H   CODE     ---       rtc_date_get_month
      01008C47H   CODE     ---       rtc_date_get_year
      010083C5H   CODE     ---       rtc_enter_powersave
      01002DD7H   CODE     ---       rtc_initialize
*SFR* 00000090H.1 DATA     BIT       RTC_INT
      01008F7FH   CODE     ---       rtc_is_lt_timer
      01008838H   CODE     ---       rtc_leave_powersave
      01000006H   CODE     ---       rtc_set_lt_timer
      01008E58H   CODE     ---       rtc_time_get_hour
      01008E60H   CODE     ---       rtc_time_get_hour_12
      01008E68H   CODE     ---       rtc_time_get_min
      01008E70H   CODE     ---       rtc_time_get_sec
      01008A86H   CODE     ---       rtc_time_set_hour_12
      010030A4H   CODE     ---       run_shell
      01004EA7H   CODE     ---       run_task
*SFR* 000000B0H.0 DATA     BIT       RXD
*SFR* 000000A9H   DATA     BYTE      SADDR
*SFR* 000000B9H   DATA     BYTE      SADEN
      020000A8H   XDATA    BYTE      saved_led_blink
      020000AAH   XDATA    ---       saved_led_data
*SFR* 00000099H   DATA     BYTE      SBUF
      01005CE3H   CODE     ---       scan_alarm
      01006FDDH   CODE     ---       scan_lt_timer
      01008E3EH   CODE     ---       scan_mpu
      010088D7H   CODE     ---       scan_rtc
      010057FDH   CODE     ---       scan_thermo
*SFR* 00000098H   DATA     BYTE      SCON
      00000023H.2 BIT      BIT       sendactive
      00000023H.3 BIT      BIT       sendfull
      01008390H   CODE     ---       serial_ctl_out
      0100218CH   CODE     ---       serial_dump
      010073AEH   CODE     ---       serial_hub_initialize
*SFR* 000000A0H.7 DATA     BIT       SET_KEY
      0200007FH   XDATA    ---       shell_buf
      01007688H   CODE     ---       shell_dump_cmd
*SFR* 00000098H.7 DATA     BIT       SM0
*SFR* 00000098H.6 DATA     BIT       SM1
*SFR* 00000098H.5 DATA     BIT       SM2
      0100CDECH   CONST    ---       sm_clock_alarm_ss_name
      0100C526H   CONST    ---       sm_clock_counter_ss_name
      0100C6E8H   CONST    ---       sm_clock_display_ss_name
      0100BCDEH   CONST    ---       sm_clock_mod_alarm_ss_name
      0100C0FFH   CONST    ---       sm_clock_mod_global_flag_name
LX51 LINKER/LOCATER V4.66.87.0                                                        04/18/2018  10:36:57  PAGE 54


      0100C213H   CONST    ---       sm_clock_mod_time_name
      0100CE43H   CONST    ---       sm_clock_powersave_ss_name
      0100C893H   CONST    ---       sm_clock_timer_ss_name
      01003BF5H   CODE     ---       sm_dump
      010069D8H   CODE     ---       sm_dump_state
      01006630H   CODE     ---       sm_dump_sub_state
      010074CDH   CODE     ---       sm_dump_table
      0100CC1EH   CONST    ---       sm_fuse_detonate_ss_name
      0100C790H   CONST    ---       sm_fuse_grenade_ss_name
      0100CCDDH   CONST    ---       sm_fuse_mode_ss_name
      0100B9DEH   CONST    ---       sm_fuse_param_ss_name
      0100C988H   CONST    ---       sm_fuse_powersave_ss_name
      0100ADEAH   CONST    ---       sm_fuse_test_ss_name
      0100BE5AH   CONST    ---       sm_fuse_timer_ss_name
      01007EE4H   CODE     ---       sm_initialize
      0100705DH   CODE     ---       sm_show_current
*SFR* 00000081H   DATA     BYTE      SP
*SFR* 000000B0H.4 DATA     BIT       T0
*SFR* 000000B0H.5 DATA     BIT       T1
*SFR* 00000090H.0 DATA     BIT       T2
*SFR* 000000C8H   DATA     BYTE      T2CON
*SFR* 00000090H.1 DATA     BIT       T2EX
*SFR* 000000C9H   DATA     BYTE      T2MOD
      01005B76H   CODE     ---       task_dump
      01008860H   CODE     ---       task_initialize
      0100B259H   CONST    ---       task_name
*SFR* 00000098H.3 DATA     BIT       TB8
*SFR* 000000C8H.4 DATA     BIT       TCLK
*SFR* 00000088H   DATA     BYTE      TCON
*SFR* 00000088H.5 DATA     BIT       TF0
*SFR* 00000088H.7 DATA     BIT       TF1
*SFR* 000000C8H.7 DATA     BIT       TF2
*SFR* 0000008CH   DATA     BYTE      TH0
*SFR* 0000008DH   DATA     BYTE      TH1
*SFR* 000000CDH   DATA     BYTE      TH2
      01008D76H   CODE     ---       thermo_enable
      01008E11H   CODE     ---       thermo_enter_powersave
      010071D4H   CODE     ---       thermo_get_current
      01008413H   CODE     ---       thermo_hi_enable
      01008AA6H   CODE     ---       thermo_hi_threshold_dec
      01008529H   CODE     ---       thermo_hi_threshold_get
      01008AB6H   CODE     ---       thermo_hi_threshold_inc
      01008D2CH   CODE     ---       thermo_hi_threshold_reach_bottom
      01008C8FH   CODE     ---       thermo_hi_threshold_reach_top
      01008F6DH   CODE     ---       thermo_hi_threshold_reset
      01008949H   CODE     ---       thermo_initialize
*SFR* 00000090H.3 DATA     BIT       THERMO_INT
      01008E1AH   CODE     ---       thermo_leave_powersave
      0100842DH   CODE     ---       thermo_lo_enable
      01008AC6H   CODE     ---       thermo_lo_threshold_dec
      01008542H   CODE     ---       thermo_lo_threshold_get
      01008AD6H   CODE     ---       thermo_lo_threshold_inc
      01008D37H   CODE     ---       thermo_lo_threshold_reach_bottom
      01008C9BH   CODE     ---       thermo_lo_threshold_reach_top
      01008F72H   CODE     ---       thermo_lo_threshold_reset
*SFR* 00000098H.1 DATA     BIT       TI
      0100858CH   CODE     ---       timer_clr
      01008C5FH   CODE     ---       timer_enter_powersave
      01004086H   CODE     ---       timer_inc_ms39
      01008993H   CODE     ---       timer_initialize
      01008DDBH   CODE     ---       timer_leave_powersave
      01008A96H   CODE     ---       timer_set_led_autorefresh
      0100873BH   CODE     ---       timer_start
      01008F9DH   CODE     ---       timer_stop
*SFR* 0000008AH   DATA     BYTE      TL0
LX51 LINKER/LOCATER V4.66.87.0                                                        04/18/2018  10:36:57  PAGE 55


*SFR* 0000008BH   DATA     BYTE      TL1
*SFR* 000000CCH   DATA     BYTE      TL2
*SFR* 00000089H   DATA     BYTE      TMOD
*SFR* 00000088H.4 DATA     BIT       TR0
*SFR* 00000088H.6 DATA     BIT       TR1
*SFR* 000000C8H.2 DATA     BIT       TR2
*SFR* 000000B0H.1 DATA     BIT       TXD
*SFR* 000000E1H   DATA     BYTE      WDT_CONTR
*SFR* 000000B0H.6 DATA     BIT       WR
*SFR* 000000C0H   DATA     BYTE      XICON



SYMBOL TABLE OF MODULE:  Clock (SM)

      VALUE       REP       CLASS    TYPE      SYMBOL NAME
      ====================================================
      ---         MODULE    ---      ---       SM
      01005776H   PUBLIC    CODE     ---       _sm_set_sub_state_by_name
      01004301H   PUBLIC    CODE     ---       _sm_set_state_by_name
      01004861H   PUBLIC    CODE     ---       _sm_set_table_by_name
      01006630H   PUBLIC    CODE     ---       sm_dump_sub_state
      010069D8H   PUBLIC    CODE     ---       sm_dump_state
      010074CDH   PUBLIC    CODE     ---       sm_dump_table
      01003BF5H   PUBLIC    CODE     ---       sm_dump
      0100705DH   PUBLIC    CODE     ---       sm_show_current
      01007EE4H   PUBLIC    CODE     ---       sm_initialize
      01002967H   PUBLIC    CODE     ---       _run_state_machine
      01008F7CH   PUBLIC    CODE     ---       _null_proc
      010088C4H   PUBLIC    CODE     ---       _time_proc
      01009AB9H   SYMBOL    CONST    ---       sm_group_fuse
      010098AFH   SYMBOL    CONST    ---       sm_trans_fuse_timer
      01009704H   SYMBOL    CONST    ---       sm_trans_fuse_mode
      01009257H   SYMBOL    CONST    ---       sm_trans_clock_mod_time
      010089FFH   SYMBOL    CODE     ---       _sm_set_state
      0100949CH   SYMBOL    CONST    ---       sm_trans_clock_powersave
      010095C9H   SYMBOL    CONST    ---       sm_trans_fuse_test
      010091AFH   SYMBOL    CONST    ---       sm_trans_clock_display
      01009A22H   SYMBOL    CONST    ---       sm_trans_fuse_detonate
      010099EAH   SYMBOL    CONST    ---       sm_trans_fuse_grenade
      01008CB3H   SYMBOL    CODE     ---       _sm_set_sub_state
      01009521H   SYMBOL    CONST    ---       sm_trans_clock_counter
      01009A3EH   SYMBOL    CONST    ---       sm_trans_fuse_powersave
      01009ADBH   SYMBOL    CONST    ---       sm_clock_names
      010094BFH   SYMBOL    CONST    ---       sm_trans_clock_alarm
      0100942CH   SYMBOL    CONST    ---       sm_trans_clock_mod_global_flag
      01009B41H   SYMBOL    CONST    ---       sm_names
      01009AD5H   SYMBOL    CONST    ---       sm_trans_table
      01009A99H   SYMBOL    CONST    ---       sm_group_clock
      010094E2H   SYMBOL    CONST    ---       sm_trans_clock_timer
      020000BFH   SYMBOL    XDATA    BYTE      sm_state
      020000C0H   SYMBOL    XDATA    BYTE      sm_curr_table
      01009B11H   SYMBOL    CONST    ---       sm_fuse_names
      0100934CH   SYMBOL    CONST    ---       sm_trans_clock_mod_alarm
      01009743H   SYMBOL    CONST    ---       sm_trans_fuse_param
      020000C1H   SYMBOL    XDATA    BYTE      sm_new_table

      01002AF9H   BLOCK     CODE     ---       LVL=0
      ---         BLOCKEND  ---      ---       LVL=0

      010088C4H   BLOCK     CODE     ---       LVL=0
      0200000CH   SYMBOL    XDATA    BYTE      ev
      010088C4H   LINE      CODE     ---       #834
      010088C9H   LINE      CODE     ---       #835
      010088C9H   LINE      CODE     ---       #836
LX51 LINKER/LOCATER V4.66.87.0                                                        04/18/2018  10:36:57  PAGE 56


      010088CCH   LINE      CODE     ---       #837
      010088CFH   LINE      CODE     ---       #839
      ---         BLOCKEND  ---      ---       LVL=0

      01008F7CH   BLOCK     CODE     ---       LVL=0
      00000007H   SYMBOL    DATA     BYTE      ev
      01008F7CH   LINE      CODE     ---       #843
      01008F7CH   LINE      CODE     ---       #844
      01008F7CH   LINE      CODE     ---       #845
      ---         BLOCKEND  ---      ---       LVL=0

      01002967H   BLOCK     CODE     ---       LVL=0
      0200000DH   SYMBOL    XDATA    BYTE      ev
      0100296CH   BLOCK     CODE     NEAR LAB  LVL=1
      0200000EH   SYMBOL    XDATA    BYTE      c
      0200000FH   SYMBOL    XDATA    BYTE      newstate
      02000010H   SYMBOL    XDATA    BYTE      index
      ---         BLOCKEND  ---      ---       LVL=1
      01002967H   LINE      CODE     ---       #848
      0100296CH   LINE      CODE     ---       #849
      0100296CH   LINE      CODE     ---       #854
      01002977H   LINE      CODE     ---       #855
      010029AEH   LINE      CODE     ---       #856
      010029F5H   LINE      CODE     ---       #858
      010029F5H   LINE      CODE     ---       #859
      01002A06H   LINE      CODE     ---       #860
      01002A10H   LINE      CODE     ---       #861
      01002AACH   LINE      CODE     ---       #870
      01002ADEH   LINE      CODE     ---       #871
      01002AE6H   LINE      CODE     ---       #872
      01002AEEH   LINE      CODE     ---       #873
      01002AEFH   LINE      CODE     ---       #874
      01002AEFH   LINE      CODE     ---       #875
      01002AF8H   LINE      CODE     ---       #877
      ---         BLOCKEND  ---      ---       LVL=0

      01007EE4H   BLOCK     CODE     ---       LVL=0
      01007EE4H   LINE      CODE     ---       #880
      01007EE4H   LINE      CODE     ---       #881
      01007EE4H   LINE      CODE     ---       #882
      01007EEDH   LINE      CODE     ---       #883
      01007EF2H   LINE      CODE     ---       #884
      01007EF4H   LINE      CODE     ---       #886
      01007EF7H   LINE      CODE     ---       #887
      01007EFAH   LINE      CODE     ---       #888
      01007EFFH   LINE      CODE     ---       #890
      01007F08H   LINE      CODE     ---       #891
      ---         BLOCKEND  ---      ---       LVL=0

      0100705DH   BLOCK     CODE     ---       LVL=0
      0100705DH   LINE      CODE     ---       #893
      0100705DH   LINE      CODE     ---       #894
      0100705DH   LINE      CODE     ---       #895
      ---         BLOCKEND  ---      ---       LVL=0

      01003BF5H   BLOCK     CODE     ---       LVL=0
      01003BF5H   BLOCK     CODE     NEAR LAB  LVL=1
      0200000AH   SYMBOL    XDATA    CHAR      i
      0200000BH   SYMBOL    XDATA    CHAR      j
      0200000CH   SYMBOL    XDATA    CHAR      k
      ---         BLOCKEND  ---      ---       LVL=1
      01003BF5H   LINE      CODE     ---       #902
      01003BF5H   LINE      CODE     ---       #903
      01003BF5H   LINE      CODE     ---       #906
      01003C08H   LINE      CODE     ---       #907
LX51 LINKER/LOCATER V4.66.87.0                                                        04/18/2018  10:36:57  PAGE 57


      01003C27H   LINE      CODE     ---       #908
      01003C47H   LINE      CODE     ---       #909
      01003C82H   LINE      CODE     ---       #910
      01003C8FH   LINE      CODE     ---       #911
      01003CCEH   LINE      CODE     ---       #913
      01003CD6H   LINE      CODE     ---       #914
      01003CDFH   LINE      CODE     ---       #915
      01003CE8H   LINE      CODE     ---       #916
      ---         BLOCKEND  ---      ---       LVL=0

      010074CDH   BLOCK     CODE     ---       LVL=0
      010074CDH   BLOCK     CODE     NEAR LAB  LVL=1
      0200000AH   SYMBOL    XDATA    CHAR      i
      ---         BLOCKEND  ---      ---       LVL=1
      010074CDH   LINE      CODE     ---       #918
      010074CDH   LINE      CODE     ---       #919
      010074CDH   LINE      CODE     ---       #921
      010074DDH   LINE      CODE     ---       #922
      010074FCH   LINE      CODE     ---       #923
      01007504H   LINE      CODE     ---       #924
      ---         BLOCKEND  ---      ---       LVL=0

      010069D8H   BLOCK     CODE     ---       LVL=0
      010069D8H   BLOCK     CODE     NEAR LAB  LVL=1
      0200000AH   SYMBOL    XDATA    CHAR      i
      ---         BLOCKEND  ---      ---       LVL=1
      010069D8H   LINE      CODE     ---       #926
      010069D8H   LINE      CODE     ---       #927
      010069D8H   LINE      CODE     ---       #929
      010069F3H   LINE      CODE     ---       #930
      01006A1FH   LINE      CODE     ---       #931
      01006A27H   LINE      CODE     ---       #932
      ---         BLOCKEND  ---      ---       LVL=0

      01006630H   BLOCK     CODE     ---       LVL=0
      01006630H   BLOCK     CODE     NEAR LAB  LVL=1
      0200000AH   SYMBOL    XDATA    CHAR      i
      ---         BLOCKEND  ---      ---       LVL=1
      01006630H   LINE      CODE     ---       #934
      01006630H   LINE      CODE     ---       #935
      01006630H   LINE      CODE     ---       #937
      0100664EH   LINE      CODE     ---       #938
      01006680H   LINE      CODE     ---       #940
      01006688H   LINE      CODE     ---       #941
      ---         BLOCKEND  ---      ---       LVL=0

      01004861H   BLOCK     CODE     ---       LVL=0
      0200000AH   SYMBOL    XDATA    ---       table_name
      01004867H   BLOCK     CODE     NEAR LAB  LVL=1
      0200000DH   SYMBOL    XDATA    CHAR      i
      ---         BLOCKEND  ---      ---       LVL=1
      01004861H   LINE      CODE     ---       #944
      01004867H   LINE      CODE     ---       #945
      01004867H   LINE      CODE     ---       #947
      01004881H   LINE      CODE     ---       #948
      01004899H   LINE      CODE     ---       #949
      010048B3H   LINE      CODE     ---       #950
      010048D9H   LINE      CODE     ---       #954
      010048FBH   LINE      CODE     ---       #958
      01004907H   LINE      CODE     ---       #959
      0100490CH   LINE      CODE     ---       #960
      0100490EH   LINE      CODE     ---       #961
      0100490EH   LINE      CODE     ---       #962
      01004917H   LINE      CODE     ---       #963
      01004918H   LINE      CODE     ---       #964
LX51 LINKER/LOCATER V4.66.87.0                                                        04/18/2018  10:36:57  PAGE 58


      ---         BLOCKEND  ---      ---       LVL=0

      010089FFH   BLOCK     CODE     ---       LVL=0
      00000007H   SYMBOL    DATA     BYTE      state
      010089FFH   LINE      CODE     ---       #966
      010089FFH   LINE      CODE     ---       #967
      010089FFH   LINE      CODE     ---       #968
      01008A07H   LINE      CODE     ---       #969
      01008A0FH   LINE      CODE     ---       #970
      ---         BLOCKEND  ---      ---       LVL=0

      01008CB3H   BLOCK     CODE     ---       LVL=0
      00000007H   SYMBOL    DATA     BYTE      sub_state
      01008CB3H   LINE      CODE     ---       #972
      01008CB3H   LINE      CODE     ---       #973
      01008CB3H   LINE      CODE     ---       #974
      01008CB8H   LINE      CODE     ---       #975
      01008CBDH   LINE      CODE     ---       #976
      ---         BLOCKEND  ---      ---       LVL=0

      01004301H   BLOCK     CODE     ---       LVL=0
      0200000AH   SYMBOL    XDATA    ---       state_name
      01004307H   BLOCK     CODE     NEAR LAB  LVL=1
      0200000DH   SYMBOL    XDATA    CHAR      i
      ---         BLOCKEND  ---      ---       LVL=1
      01004301H   LINE      CODE     ---       #978
      01004307H   LINE      CODE     ---       #979
      01004307H   LINE      CODE     ---       #981
      01004329H   LINE      CODE     ---       #982
      01004350H   LINE      CODE     ---       #983
      0100437FH   LINE      CODE     ---       #986
      010043B5H   LINE      CODE     ---       #990
      010043BDH   LINE      CODE     ---       #991
      010043C2H   LINE      CODE     ---       #992
      010043C4H   LINE      CODE     ---       #993
      010043C4H   LINE      CODE     ---       #994
      010043CDH   LINE      CODE     ---       #995
      010043CEH   LINE      CODE     ---       #996
      ---         BLOCKEND  ---      ---       LVL=0

      01005776H   BLOCK     CODE     ---       LVL=0
      0200000AH   SYMBOL    XDATA    ---       sub_state_name
      0100577CH   BLOCK     CODE     NEAR LAB  LVL=1
      0200000DH   SYMBOL    XDATA    CHAR      i
      ---         BLOCKEND  ---      ---       LVL=1
      01005776H   LINE      CODE     ---       #998
      0100577CH   LINE      CODE     ---       #999
      0100577CH   LINE      CODE     ---       #1001
      01005792H   LINE      CODE     ---       #1002
      010057B6H   LINE      CODE     ---       #1003
      010057E9H   LINE      CODE     ---       #1007
      010057F1H   LINE      CODE     ---       #1008
      010057F3H   LINE      CODE     ---       #1009
      010057F3H   LINE      CODE     ---       #1010
      010057FBH   LINE      CODE     ---       #1011
      010057FCH   LINE      CODE     ---       #1012
      ---         BLOCKEND  ---      ---       LVL=0

      ---         MODULE    ---      ---       MAIN
      01006C4DH   PUBLIC    CODE     ---       main
      00000080H   SFRSYM    DATA     BYTE      P0
      00000090H   SFRSYM    DATA     BYTE      P1
      000000A0H   SFRSYM    DATA     BYTE      P2
      000000B0H   SFRSYM    DATA     BYTE      P3
      000000C0H   SFRSYM    DATA     BYTE      XICON
LX51 LINKER/LOCATER V4.66.87.0                                                        04/18/2018  10:36:57  PAGE 59


      000000B0H.4 SFRSYM    DATA     BIT       T0
      000000D0H.6 SFRSYM    DATA     BIT       AC
      000000E8H   SFRSYM    DATA     BYTE      P4
      000000B0H.5 SFRSYM    DATA     BIT       T1
      000000E6H   SFRSYM    DATA     BYTE      ISP_TRIG
      00000090H.0 SFRSYM    DATA     BIT       T2
      000000A8H.7 SFRSYM    DATA     BIT       EA
      000000A8H.6 SFRSYM    DATA     BIT       EC
      00000098H.7 SFRSYM    DATA     BIT       FE
      000000A8H   SFRSYM    DATA     BYTE      IE
      000000C8H.6 SFRSYM    DATA     BIT       EXF2
      000000B0H.7 SFRSYM    DATA     BIT       RD
      000000A8H.4 SFRSYM    DATA     BIT       ES
      000000B8H   SFRSYM    DATA     BYTE      IP
      00000098H.0 SFRSYM    DATA     BIT       RI
      000000B0H.2 SFRSYM    DATA     BIT       INT0
      000000D0H.7 SFRSYM    DATA     BIT       CY
      00000098H.1 SFRSYM    DATA     BIT       TI
      000000B0H.3 SFRSYM    DATA     BIT       INT1
      000000CBH   SFRSYM    DATA     BYTE      RCAP2H
      000000E5H   SFRSYM    DATA     BYTE      ISP_CMD
      000000B8H.4 SFRSYM    DATA     BIT       PS
      00000081H   SFRSYM    DATA     BYTE      SP
      00000090H.1 SFRSYM    DATA     BIT       T2EX
      000000D0H.2 SFRSYM    DATA     BIT       OV
      000000CAH   SFRSYM    DATA     BYTE      RCAP2L
      000000C8H.1 SFRSYM    DATA     BIT       C_T2
      000000B0H.6 SFRSYM    DATA     BIT       WR
      000000C8H.5 SFRSYM    DATA     BIT       RCLK
      000000C8H.4 SFRSYM    DATA     BIT       TCLK
      00000080H.0 SFRSYM    DATA     BIT       P00
      00000099H   SFRSYM    DATA     BYTE      SBUF
      00000087H   SFRSYM    DATA     BYTE      PCON
      00000090H.0 SFRSYM    DATA     BIT       P10
      00000080H.1 SFRSYM    DATA     BIT       P01
      000000A0H.0 SFRSYM    DATA     BIT       P20
      00000090H.1 SFRSYM    DATA     BIT       P11
      00000080H.2 SFRSYM    DATA     BIT       P02
      000000E3H   SFRSYM    DATA     BYTE      ISP_ADDRH
      000000B0H.0 SFRSYM    DATA     BIT       P30
      000000A0H.1 SFRSYM    DATA     BIT       P21
      00000090H.2 SFRSYM    DATA     BIT       P12
      00000080H.3 SFRSYM    DATA     BIT       P03
      00000098H   SFRSYM    DATA     BYTE      SCON
      000000B0H.1 SFRSYM    DATA     BIT       P31
      000000A0H.2 SFRSYM    DATA     BIT       P22
      00000090H.3 SFRSYM    DATA     BIT       P13
      00000080H.4 SFRSYM    DATA     BIT       P04
      000000E8H.0 SFRSYM    DATA     BIT       P40
      00000089H   SFRSYM    DATA     BYTE      TMOD
      00000088H   SFRSYM    DATA     BYTE      TCON
      000000B0H.2 SFRSYM    DATA     BIT       P32
      000000A0H.3 SFRSYM    DATA     BIT       P23
      00000090H.4 SFRSYM    DATA     BIT       P14
      00000080H.5 SFRSYM    DATA     BIT       P05
      000000E8H.1 SFRSYM    DATA     BIT       P41
      000000B0H.3 SFRSYM    DATA     BIT       P33
      000000A0H.4 SFRSYM    DATA     BIT       P24
      00000090H.5 SFRSYM    DATA     BIT       P15
      00000080H.6 SFRSYM    DATA     BIT       P06
      000000E4H   SFRSYM    DATA     BYTE      ISP_ADDRL
      000000E8H.2 SFRSYM    DATA     BIT       P42
      000000B0H.4 SFRSYM    DATA     BIT       P34
      000000A0H.5 SFRSYM    DATA     BIT       P25
      00000090H.6 SFRSYM    DATA     BIT       P16
LX51 LINKER/LOCATER V4.66.87.0                                                        04/18/2018  10:36:57  PAGE 60


      00000080H.7 SFRSYM    DATA     BIT       P07
      000000E8H.3 SFRSYM    DATA     BIT       P43
      000000B0H.5 SFRSYM    DATA     BIT       P35
      000000A0H.6 SFRSYM    DATA     BIT       P26
      00000090H.7 SFRSYM    DATA     BIT       P17
      000000E8H.4 SFRSYM    DATA     BIT       P44
      000000B0H.6 SFRSYM    DATA     BIT       P36
      000000A0H.7 SFRSYM    DATA     BIT       P27
      000000E8H.5 SFRSYM    DATA     BIT       P45
      000000B0H.7 SFRSYM    DATA     BIT       P37
      000000E8H.6 SFRSYM    DATA     BIT       P46
      00000088H.1 SFRSYM    DATA     BIT       IE0
      00000088H.3 SFRSYM    DATA     BIT       IE1
      0000008EH   SFRSYM    DATA     BYTE      AUXR
      000000F0H   SFRSYM    DATA     BYTE      B
      000000C8H.0 SFRSYM    DATA     BIT       CP_RL2
      000000E0H   SFRSYM    DATA     BYTE      ACC
      000000A8H.1 SFRSYM    DATA     BIT       ET0
      000000A8H.3 SFRSYM    DATA     BIT       ET1
      00000088H.5 SFRSYM    DATA     BIT       TF0
      000000A8H.5 SFRSYM    DATA     BIT       ET2
      00000088H.7 SFRSYM    DATA     BIT       TF1
      000000C8H.7 SFRSYM    DATA     BIT       TF2
      00000098H.2 SFRSYM    DATA     BIT       RB8
      0000008CH   SFRSYM    DATA     BYTE      TH0
      000000A8H.0 SFRSYM    DATA     BIT       EX0
      00000088H.0 SFRSYM    DATA     BIT       IT0
      0000008DH   SFRSYM    DATA     BYTE      TH1
      00000098H.3 SFRSYM    DATA     BIT       TB8
      000000A8H.2 SFRSYM    DATA     BIT       EX1
      00000088H.2 SFRSYM    DATA     BIT       IT1
      000000CDH   SFRSYM    DATA     BYTE      TH2
      000000D0H.0 SFRSYM    DATA     BIT       P
      00000098H.7 SFRSYM    DATA     BIT       SM0
      0000008AH   SFRSYM    DATA     BYTE      TL0
      00000098H.6 SFRSYM    DATA     BIT       SM1
      0000008BH   SFRSYM    DATA     BYTE      TL1
      00000098H.5 SFRSYM    DATA     BIT       SM2
      000000CCH   SFRSYM    DATA     BYTE      TL2
      000000B8H.1 SFRSYM    DATA     BIT       PT0
      000000B8H.3 SFRSYM    DATA     BIT       PT1
      000000D0H.3 SFRSYM    DATA     BIT       RS0
      000000E7H   SFRSYM    DATA     BYTE      ISP_CONTR
      000000B8H.5 SFRSYM    DATA     BIT       PT2
      00000088H.4 SFRSYM    DATA     BIT       TR0
      000000D0H.4 SFRSYM    DATA     BIT       RS1
      00000088H.6 SFRSYM    DATA     BIT       TR1
      000000C8H.2 SFRSYM    DATA     BIT       TR2
      000000B8H.0 SFRSYM    DATA     BIT       PX0
      000000E1H   SFRSYM    DATA     BYTE      WDT_CONTR
      000000B8H.2 SFRSYM    DATA     BIT       PX1
      00000083H   SFRSYM    DATA     BYTE      DPH
      00000082H   SFRSYM    DATA     BYTE      DPL
      000000B7H   SFRSYM    DATA     BYTE      IPH
      000000C8H.3 SFRSYM    DATA     BIT       EXEN2
      00000098H.4 SFRSYM    DATA     BIT       REN
      000000C9H   SFRSYM    DATA     BYTE      T2MOD
      000000C8H   SFRSYM    DATA     BYTE      T2CON
      000000E2H   SFRSYM    DATA     BYTE      ISP_DATA
      000000B9H   SFRSYM    DATA     BYTE      SADEN
      000000B0H.0 SFRSYM    DATA     BIT       RXD
      000000A9H   SFRSYM    DATA     BYTE      SADDR
      000000B0H.1 SFRSYM    DATA     BIT       TXD
      000000A2H   SFRSYM    DATA     BYTE      AUXR1
      000000D0H.5 SFRSYM    DATA     BIT       F0
LX51 LINKER/LOCATER V4.66.87.0                                                        04/18/2018  10:36:57  PAGE 61


      000000D0H   SFRSYM    DATA     BYTE      PSW
      01007AA1H   SYMBOL    CODE     ---       show_version

      01007AA1H   BLOCK     CODE     ---       LVL=0
      01007AA1H   LINE      CODE     ---       #31
      01007AA1H   LINE      CODE     ---       #32
      01007AA1H   LINE      CODE     ---       #34
      01007AAAH   LINE      CODE     ---       #35
      01007ABDH   LINE      CODE     ---       #36
      01007AC6H   LINE      CODE     ---       #37
      ---         BLOCKEND  ---      ---       LVL=0

      01006C4DH   BLOCK     CODE     ---       LVL=0
      01006C4DH   LINE      CODE     ---       #41
      01006C4DH   LINE      CODE     ---       #42
      01006C4DH   LINE      CODE     ---       #43
      01006C4FH   LINE      CODE     ---       #44
      01006C52H   LINE      CODE     ---       #45
      01006C55H   LINE      CODE     ---       #46
      01006C58H   LINE      CODE     ---       #47
      01006C5BH   LINE      CODE     ---       #48
      01006C5EH   LINE      CODE     ---       #49
      01006C61H   LINE      CODE     ---       #50
      01006C64H   LINE      CODE     ---       #51
      01006C67H   LINE      CODE     ---       #52
      01006C6AH   LINE      CODE     ---       #53
      01006C6DH   LINE      CODE     ---       #54
      01006C70H   LINE      CODE     ---       #55
      01006C73H   LINE      CODE     ---       #56
      01006C76H   LINE      CODE     ---       #57
      01006C79H   LINE      CODE     ---       #58
      01006C7CH   LINE      CODE     ---       #59
      01006C7FH   LINE      CODE     ---       #60
      01006C82H   LINE      CODE     ---       #61
      01006C85H   LINE      CODE     ---       #62
      01006C88H   LINE      CODE     ---       #63
      01006C8BH   LINE      CODE     ---       #64
      01006C8EH   LINE      CODE     ---       #66
      01006C8EH   LINE      CODE     ---       #67
      01006C91H   LINE      CODE     ---       #68
      01006C94H   LINE      CODE     ---       #69
      ---         BLOCKEND  ---      ---       LVL=0

      ---         MODULE    ---      ---       ?C_STARTUP
      01000000H   PUBLIC    CODE     NEAR LAB  ?C_STARTUP
      000000E0H   SFRSYM    DATA     BYTE      ACC
      000000F0H   SFRSYM    DATA     BYTE      B
      00000083H   SFRSYM    DATA     BYTE      DPH
      00000082H   SFRSYM    DATA     BYTE      DPL
      000000A0H   SFRSYM    DATA     BYTE      PPAGE_SFR
      00000081H   SFRSYM    DATA     BYTE      SP
      00000000H   SYMBOL    NUMBER   ---       IBPSTACK
      00000100H   SYMBOL    NUMBER   ---       IBPSTACKTOP
      00000080H   SYMBOL    NUMBER   ---       IDATALEN
      0100811AH   SYMBOL    CODE     NEAR LAB  IDATALOOP
      00000000H   SYMBOL    NUMBER   ---       PBPSTACK
      00000100H   SYMBOL    NUMBER   ---       PBPSTACKTOP
      00000000H   SYMBOL    NUMBER   ---       PDATALEN
      00000000H   SYMBOL    NUMBER   ---       PDATASTART
      00000000H   SYMBOL    NUMBER   ---       PPAGE
      00000000H   SYMBOL    NUMBER   ---       PPAGEENABLE
      01008117H   SYMBOL    CODE     NEAR LAB  STARTUP1
      00000001H   SYMBOL    NUMBER   ---       XBPSTACK
      00010000H   SYMBOL    NUMBER   ---       XBPSTACKTOP
      00000400H   SYMBOL    NUMBER   ---       XDATALEN
LX51 LINKER/LOCATER V4.66.87.0                                                        04/18/2018  10:36:57  PAGE 62


      01008125H   SYMBOL    CODE     NEAR LAB  XDATALOOP
      00000000H   SYMBOL    NUMBER   ---       XDATASTART

      01000000H   BLOCK     CODE     NEAR LAB  LVL=0
      01000000H   LINE      CODE     ---       #126
      ---         BLOCKEND  ---      ---       LVL=0

      01008117H   BLOCK     CODE     NEAR LAB  LVL=0
      01008117H   LINE      CODE     ---       #133
      01008119H   LINE      CODE     ---       #134
      0100811AH   LINE      CODE     ---       #135
      0100811BH   LINE      CODE     ---       #136
      0100811DH   LINE      CODE     ---       #140
      01008120H   LINE      CODE     ---       #141
      01008122H   LINE      CODE     ---       #145
      01008124H   LINE      CODE     ---       #147
      01008125H   LINE      CODE     ---       #148
      01008126H   LINE      CODE     ---       #149
      01008127H   LINE      CODE     ---       #150
      01008129H   LINE      CODE     ---       #151
      0100812BH   LINE      CODE     ---       #176
      0100812EH   LINE      CODE     ---       #177
      01008131H   LINE      CODE     ---       #185
      01008134H   LINE      CODE     ---       #196
      ---         BLOCKEND  ---      ---       LVL=0

      ---         MODULE    ---      ---       COM
      00000023H.3 PUBLIC    BIT      BIT       sendfull
      00000023H.2 PUBLIC    BIT      BIT       sendactive
      01000016H   PUBLIC    CODE     ---       com_leave_powersave
      01008BBBH   PUBLIC    CODE     ---       com_enter_powersave
      010087FCH   PUBLIC    CODE     ---       com_try_get_key
      01008A76H   PUBLIC    CODE     ---       _getkey
      01008461H   PUBLIC    CODE     ---       _putchar
      01007A14H   PUBLIC    CODE     ---       _putbuf
      01007D60H   PUBLIC    CODE     ---       com_initialize
      00000080H   SFRSYM    DATA     BYTE      P0
      00000090H   SFRSYM    DATA     BYTE      P1
      000000A0H   SFRSYM    DATA     BYTE      P2
      000000B0H   SFRSYM    DATA     BYTE      P3
      000000C0H   SFRSYM    DATA     BYTE      XICON
      000000B0H.4 SFRSYM    DATA     BIT       T0
      000000D0H.6 SFRSYM    DATA     BIT       AC
      000000E8H   SFRSYM    DATA     BYTE      P4
      000000B0H.5 SFRSYM    DATA     BIT       T1
      000000E6H   SFRSYM    DATA     BYTE      ISP_TRIG
      00000090H.0 SFRSYM    DATA     BIT       T2
      000000A8H.7 SFRSYM    DATA     BIT       EA
      000000A8H.6 SFRSYM    DATA     BIT       EC
      00000098H.7 SFRSYM    DATA     BIT       FE
      000000A8H   SFRSYM    DATA     BYTE      IE
      000000C8H.6 SFRSYM    DATA     BIT       EXF2
      000000B0H.7 SFRSYM    DATA     BIT       RD
      000000A8H.4 SFRSYM    DATA     BIT       ES
      000000B8H   SFRSYM    DATA     BYTE      IP
      00000098H.0 SFRSYM    DATA     BIT       RI
      000000B0H.2 SFRSYM    DATA     BIT       INT0
      000000D0H.7 SFRSYM    DATA     BIT       CY
      00000098H.1 SFRSYM    DATA     BIT       TI
      000000B0H.3 SFRSYM    DATA     BIT       INT1
      000000CBH   SFRSYM    DATA     BYTE      RCAP2H
      000000E5H   SFRSYM    DATA     BYTE      ISP_CMD
      000000B8H.4 SFRSYM    DATA     BIT       PS
      00000081H   SFRSYM    DATA     BYTE      SP
      00000090H.1 SFRSYM    DATA     BIT       T2EX
LX51 LINKER/LOCATER V4.66.87.0                                                        04/18/2018  10:36:57  PAGE 63


      000000D0H.2 SFRSYM    DATA     BIT       OV
      000000CAH   SFRSYM    DATA     BYTE      RCAP2L
      000000C8H.1 SFRSYM    DATA     BIT       C_T2
      000000B0H.6 SFRSYM    DATA     BIT       WR
      000000C8H.5 SFRSYM    DATA     BIT       RCLK
      000000C8H.4 SFRSYM    DATA     BIT       TCLK
      00000080H.0 SFRSYM    DATA     BIT       P00
      00000099H   SFRSYM    DATA     BYTE      SBUF
      00000087H   SFRSYM    DATA     BYTE      PCON
      00000090H.0 SFRSYM    DATA     BIT       P10
      00000080H.1 SFRSYM    DATA     BIT       P01
      000000A0H.0 SFRSYM    DATA     BIT       P20
      00000090H.1 SFRSYM    DATA     BIT       P11
      00000080H.2 SFRSYM    DATA     BIT       P02
      000000E3H   SFRSYM    DATA     BYTE      ISP_ADDRH
      000000B0H.0 SFRSYM    DATA     BIT       P30
      000000A0H.1 SFRSYM    DATA     BIT       P21
      00000090H.2 SFRSYM    DATA     BIT       P12
      00000080H.3 SFRSYM    DATA     BIT       P03
      00000098H   SFRSYM    DATA     BYTE      SCON
      000000B0H.1 SFRSYM    DATA     BIT       P31
      000000A0H.2 SFRSYM    DATA     BIT       P22
      00000090H.3 SFRSYM    DATA     BIT       P13
      00000080H.4 SFRSYM    DATA     BIT       P04
      000000E8H.0 SFRSYM    DATA     BIT       P40
      00000089H   SFRSYM    DATA     BYTE      TMOD
      00000088H   SFRSYM    DATA     BYTE      TCON
      000000B0H.2 SFRSYM    DATA     BIT       P32
      000000A0H.3 SFRSYM    DATA     BIT       P23
      00000090H.4 SFRSYM    DATA     BIT       P14
      00000080H.5 SFRSYM    DATA     BIT       P05
      000000E8H.1 SFRSYM    DATA     BIT       P41
      000000B0H.3 SFRSYM    DATA     BIT       P33
      000000A0H.4 SFRSYM    DATA     BIT       P24
      00000090H.5 SFRSYM    DATA     BIT       P15
      00000080H.6 SFRSYM    DATA     BIT       P06
      000000E4H   SFRSYM    DATA     BYTE      ISP_ADDRL
      000000E8H.2 SFRSYM    DATA     BIT       P42
      000000B0H.4 SFRSYM    DATA     BIT       P34
      000000A0H.5 SFRSYM    DATA     BIT       P25
      00000090H.6 SFRSYM    DATA     BIT       P16
      00000080H.7 SFRSYM    DATA     BIT       P07
      000000E8H.3 SFRSYM    DATA     BIT       P43
      000000B0H.5 SFRSYM    DATA     BIT       P35
      000000A0H.6 SFRSYM    DATA     BIT       P26
      00000090H.7 SFRSYM    DATA     BIT       P17
      000000E8H.4 SFRSYM    DATA     BIT       P44
      000000B0H.6 SFRSYM    DATA     BIT       P36
      000000A0H.7 SFRSYM    DATA     BIT       P27
      000000E8H.5 SFRSYM    DATA     BIT       P45
      000000B0H.7 SFRSYM    DATA     BIT       P37
      000000E8H.6 SFRSYM    DATA     BIT       P46
      00000088H.1 SFRSYM    DATA     BIT       IE0
      00000088H.3 SFRSYM    DATA     BIT       IE1
      0000008EH   SFRSYM    DATA     BYTE      AUXR
      000000F0H   SFRSYM    DATA     BYTE      B
      000000C8H.0 SFRSYM    DATA     BIT       CP_RL2
      000000E0H   SFRSYM    DATA     BYTE      ACC
      000000A8H.1 SFRSYM    DATA     BIT       ET0
      000000A8H.3 SFRSYM    DATA     BIT       ET1
      00000088H.5 SFRSYM    DATA     BIT       TF0
      000000A8H.5 SFRSYM    DATA     BIT       ET2
      00000088H.7 SFRSYM    DATA     BIT       TF1
      000000C8H.7 SFRSYM    DATA     BIT       TF2
      00000098H.2 SFRSYM    DATA     BIT       RB8
LX51 LINKER/LOCATER V4.66.87.0                                                        04/18/2018  10:36:57  PAGE 64


      0000008CH   SFRSYM    DATA     BYTE      TH0
      000000A8H.0 SFRSYM    DATA     BIT       EX0
      00000088H.0 SFRSYM    DATA     BIT       IT0
      0000008DH   SFRSYM    DATA     BYTE      TH1
      00000098H.3 SFRSYM    DATA     BIT       TB8
      000000A8H.2 SFRSYM    DATA     BIT       EX1
      00000088H.2 SFRSYM    DATA     BIT       IT1
      000000CDH   SFRSYM    DATA     BYTE      TH2
      000000D0H.0 SFRSYM    DATA     BIT       P
      00000098H.7 SFRSYM    DATA     BIT       SM0
      0000008AH   SFRSYM    DATA     BYTE      TL0
      00000098H.6 SFRSYM    DATA     BIT       SM1
      0000008BH   SFRSYM    DATA     BYTE      TL1
      00000098H.5 SFRSYM    DATA     BIT       SM2
      000000CCH   SFRSYM    DATA     BYTE      TL2
      000000B8H.1 SFRSYM    DATA     BIT       PT0
      000000B8H.3 SFRSYM    DATA     BIT       PT1
      000000D0H.3 SFRSYM    DATA     BIT       RS0
      000000E7H   SFRSYM    DATA     BYTE      ISP_CONTR
      000000B8H.5 SFRSYM    DATA     BIT       PT2
      00000088H.4 SFRSYM    DATA     BIT       TR0
      000000D0H.4 SFRSYM    DATA     BIT       RS1
      00000088H.6 SFRSYM    DATA     BIT       TR1
      000000C8H.2 SFRSYM    DATA     BIT       TR2
      000000B8H.0 SFRSYM    DATA     BIT       PX0
      000000E1H   SFRSYM    DATA     BYTE      WDT_CONTR
      000000B8H.2 SFRSYM    DATA     BIT       PX1
      00000083H   SFRSYM    DATA     BYTE      DPH
      00000082H   SFRSYM    DATA     BYTE      DPL
      000000B7H   SFRSYM    DATA     BYTE      IPH
      000000C8H.3 SFRSYM    DATA     BIT       EXEN2
      00000098H.4 SFRSYM    DATA     BIT       REN
      000000C9H   SFRSYM    DATA     BYTE      T2MOD
      000000C8H   SFRSYM    DATA     BYTE      T2CON
      000000E2H   SFRSYM    DATA     BYTE      ISP_DATA
      000000B9H   SFRSYM    DATA     BYTE      SADEN
      000000B0H.0 SFRSYM    DATA     BIT       RXD
      000000A9H   SFRSYM    DATA     BYTE      SADDR
      000000B0H.1 SFRSYM    DATA     BIT       TXD
      000000A2H   SFRSYM    DATA     BYTE      AUXR1
      000000D0H.5 SFRSYM    DATA     BIT       F0
      000000D0H   SFRSYM    DATA     BYTE      PSW
      00000026H   SYMBOL    IDATA    ---       inbuf
      0000002EH   SYMBOL    IDATA    ---       outbuf
      020000BBH   SYMBOL    XDATA    BYTE      istart
      020000BCH   SYMBOL    XDATA    BYTE      ostart
      020000BDH   SYMBOL    XDATA    BYTE      iend
      020000BEH   SYMBOL    XDATA    BYTE      oend
      01005F28H   SYMBOL    CODE     ---       com_isr

      010085BCH   BLOCK     CODE     ---       LVL=0
      ---         BLOCKEND  ---      ---       LVL=0

      01005F28H   BLOCK     CODE     ---       LVL=0
      01005F3AH   BLOCK     CODE     NEAR LAB  LVL=1
      00000017H   SYMBOL    DATA     CHAR      c
      ---         BLOCKEND  ---      ---       LVL=1
      01005F28H   LINE      CODE     ---       #31
      01005F3AH   LINE      CODE     ---       #36
      01005F3DH   LINE      CODE     ---       #37
      01005F3FH   LINE      CODE     ---       #38
      01005F41H   LINE      CODE     ---       #39
      01005F55H   LINE      CODE     ---       #40
      01005F61H   LINE      CODE     ---       #41
      01005F61H   LINE      CODE     ---       #42
LX51 LINKER/LOCATER V4.66.87.0                                                        04/18/2018  10:36:57  PAGE 65


      01005F61H   LINE      CODE     ---       #45
      01005F64H   LINE      CODE     ---       #46
      01005F66H   LINE      CODE     ---       #47
      01005F72H   LINE      CODE     ---       #48
      01005F7FH   LINE      CODE     ---       #49
      01005F81H   LINE      CODE     ---       #50
      01005F83H   LINE      CODE     ---       #51
      01005F83H   LINE      CODE     ---       #52
      01005F85H   LINE      CODE     ---       #53
      01005F85H   LINE      CODE     ---       #54
      01005F85H   LINE      CODE     ---       #55
      ---         BLOCKEND  ---      ---       LVL=0

      01007D60H   BLOCK     CODE     ---       LVL=0
      01007D60H   LINE      CODE     ---       #61
      01007D60H   LINE      CODE     ---       #62
      01007D65H   LINE      CODE     ---       #63
      01007D69H   LINE      CODE     ---       #64
      01007D6DH   LINE      CODE     ---       #65
      01007D71H   LINE      CODE     ---       #66
      01007D73H   LINE      CODE     ---       #67
      01007D75H   LINE      CODE     ---       #69
      01007D78H   LINE      CODE     ---       #71
      01007D7BH   LINE      CODE     ---       #72
      01007D7EH   LINE      CODE     ---       #74
      01007D81H   LINE      CODE     ---       #75
      01007D83H   LINE      CODE     ---       #76
      01007D85H   LINE      CODE     ---       #77
      01007D87H   LINE      CODE     ---       #78
      ---         BLOCKEND  ---      ---       LVL=0

      01007A14H   BLOCK     CODE     ---       LVL=0
      00000007H   SYMBOL    DATA     CHAR      c
      01007A14H   LINE      CODE     ---       #89
      01007A14H   LINE      CODE     ---       #90
      01007A17H   LINE      CODE     ---       #91
      01007A1AH   LINE      CODE     ---       #92
      01007A1CH   LINE      CODE     ---       #93
      01007A1EH   LINE      CODE     ---       #94
      01007A1FH   LINE      CODE     ---       #95
      01007A1FH   LINE      CODE     ---       #96
      01007A21H   LINE      CODE     ---       #97
      01007A30H   LINE      CODE     ---       #98
      01007A3EH   LINE      CODE     ---       #99
      01007A40H   LINE      CODE     ---       #100
      01007A40H   LINE      CODE     ---       #101
      01007A42H   LINE      CODE     ---       #102
      01007A42H   LINE      CODE     ---       #103
      01007A42H   LINE      CODE     ---       #104
      ---         BLOCKEND  ---      ---       LVL=0

      01008461H   BLOCK     CODE     ---       LVL=0
      00000005H   SYMBOL    DATA     CHAR      c
      01008461H   LINE      CODE     ---       #111
      01008463H   LINE      CODE     ---       #112
      01008467H   LINE      CODE     ---       #113
      0100846AH   LINE      CODE     ---       #114
      0100846FH   LINE      CODE     ---       #115
      0100846FH   LINE      CODE     ---       #116
      01008472H   LINE      CODE     ---       #117
      01008477H   LINE      CODE     ---       #118
      01008479H   LINE      CODE     ---       #119
      ---         BLOCKEND  ---      ---       LVL=0

      01008A76H   BLOCK     CODE     ---       LVL=0
LX51 LINKER/LOCATER V4.66.87.0                                                        04/18/2018  10:36:57  PAGE 66


      01008A76H   BLOCK     CODE     NEAR LAB  LVL=1
      00000007H   SYMBOL    DATA     CHAR      c
      ---         BLOCKEND  ---      ---       LVL=1
      01008A76H   LINE      CODE     ---       #126
      01008A76H   LINE      CODE     ---       #128
      01008A7CH   LINE      CODE     ---       #130
      01008A7CH   LINE      CODE     ---       #131
      01008A7EH   LINE      CODE     ---       #132
      01008A82H   LINE      CODE     ---       #133
      01008A85H   LINE      CODE     ---       #134
      01008A85H   LINE      CODE     ---       #135
      ---         BLOCKEND  ---      ---       LVL=0

      010087FCH   BLOCK     CODE     ---       LVL=0
      010087FCH   BLOCK     CODE     NEAR LAB  LVL=1
      00000007H   SYMBOL    DATA     CHAR      c
      ---         BLOCKEND  ---      ---       LVL=1
      010087FCH   LINE      CODE     ---       #137
      010087FCH   LINE      CODE     ---       #138
      010087FCH   LINE      CODE     ---       #140
      01008802H   LINE      CODE     ---       #141
      01008805H   LINE      CODE     ---       #142
      01008805H   LINE      CODE     ---       #143
      01008807H   LINE      CODE     ---       #144
      0100880CH   LINE      CODE     ---       #145
      0100880FH   LINE      CODE     ---       #146
      0100880FH   LINE      CODE     ---       #147
      ---         BLOCKEND  ---      ---       LVL=0

      01008BBBH   BLOCK     CODE     ---       LVL=0
      01008BBBH   LINE      CODE     ---       #149
      01008BBBH   LINE      CODE     ---       #150
      01008BBBH   LINE      CODE     ---       #151
      01008BC4H   LINE      CODE     ---       #152
      01008BC6H   LINE      CODE     ---       #153
      01008BC8H   LINE      CODE     ---       #154
      ---         BLOCKEND  ---      ---       LVL=0

      01000016H   BLOCK     CODE     ---       LVL=0
      01000016H   LINE      CODE     ---       #156
      01000016H   LINE      CODE     ---       #157
      01000016H   LINE      CODE     ---       #158
      01000018H   LINE      CODE     ---       #159
      0100001AH   LINE      CODE     ---       #160
      ---         BLOCKEND  ---      ---       LVL=0

      ---         MODULE    ---      ---       RTC
      01008838H   PUBLIC    CODE     ---       rtc_leave_powersave
      010083C5H   PUBLIC    CODE     ---       rtc_enter_powersave
      010082E6H   PUBLIC    CODE     ---       _rtc_test_alarm_int_flag
      010085D3H   PUBLIC    CODE     ---       _rtc_clr_alarm_int_flag
      010082C9H   PUBLIC    CODE     ---       _rtc_test_alarm_int
      00000020H.0 PUBLIC    BIT      BIT       ?_rtc_enable_alarm_int?BIT
      01007F09H   PUBLIC    CODE     ---       _rtc_enable_alarm_int
      02000016H   PUBLIC    XDATA    BYTE      ?_rtc_get_temperature?BYTE
      01005304H   PUBLIC    CODE     ---       _rtc_get_temperature
      010054BCH   PUBLIC    CODE     ---       _rtc_alarm_set_mode
      01004232H   PUBLIC    CODE     ---       rtc_alarm_get_mode
      010082ACH   PUBLIC    CODE     ---       _rtc_alarm_set_sec
      01008824H   PUBLIC    CODE     ---       rtc_alarm_get_sec
      010083ABH   PUBLIC    CODE     ---       _rtc_alarm_set_date
      01008793H   PUBLIC    CODE     ---       rtc_alarm_get_date
      010086CDH   PUBLIC    CODE     ---       _rtc_alarm_set_day
      01008810H   PUBLIC    CODE     ---       rtc_alarm_get_day
      010088FDH   PUBLIC    CODE     ---       _rtc_alarm_set_min
LX51 LINKER/LOCATER V4.66.87.0                                                        04/18/2018  10:36:57  PAGE 67


      010086B7H   PUBLIC    CODE     ---       rtc_alarm_get_min
      010088EAH   PUBLIC    CODE     ---       _rtc_alarm_set_hour
      00000020H.0 PUBLIC    BIT      BIT       ?rtc_alarm_set_hour_12?BIT
      0100828FH   PUBLIC    CODE     ---       rtc_alarm_set_hour_12
      010086A1H   PUBLIC    CODE     ---       rtc_alarm_get_hour_12
      0100868BH   PUBLIC    CODE     ---       rtc_alarm_get_hour
      0100896FH   PUBLIC    CODE     ---       _rtc_date_set_day
      01008EC8H   PUBLIC    CODE     ---       rtc_date_get_day
      01005094H   PUBLIC    CODE     ---       _rtc_date_set_date
      01008E88H   PUBLIC    CODE     ---       rtc_date_get_date
      01008E80H   PUBLIC    CODE     ---       _rtc_date_set_month
      01008C53H   PUBLIC    CODE     ---       rtc_date_get_month
      01008E78H   PUBLIC    CODE     ---       _rtc_date_set_year
      01008C47H   PUBLIC    CODE     ---       rtc_date_get_year
      01008EC2H   PUBLIC    CODE     ---       _rtc_time_set_sec
      01008E70H   PUBLIC    CODE     ---       rtc_time_get_sec
      01008D8AH   PUBLIC    CODE     ---       _rtc_time_set_min
      01008E68H   PUBLIC    CODE     ---       rtc_time_get_min
      01008E60H   PUBLIC    CODE     ---       rtc_time_get_hour_12
      00000020H.0 PUBLIC    BIT      BIT       ?rtc_time_set_hour_12?BIT
      01008A86H   PUBLIC    CODE     ---       rtc_time_set_hour_12
      01008EBCH   PUBLIC    CODE     ---       _rtc_time_set_hour
      01008E58H   PUBLIC    CODE     ---       rtc_time_get_hour
      01006793H   PUBLIC    CODE     ---       _rtc_write_data
      01006689H   PUBLIC    CODE     ---       _rtc_read_data
      01002DD7H   PUBLIC    CODE     ---       rtc_initialize
      010088D7H   PUBLIC    CODE     ---       scan_rtc
      00000020H.0 PUBLIC    BIT      BIT       ?rtc_set_lt_timer?BIT
      01000006H   PUBLIC    CODE     ---       rtc_set_lt_timer
      01008F7FH   PUBLIC    CODE     ---       rtc_is_lt_timer
      0100724EH   PUBLIC    CODE     ---       dump_rtc
      00000080H   SFRSYM    DATA     BYTE      P0
      00000090H   SFRSYM    DATA     BYTE      P1
      000000A0H   SFRSYM    DATA     BYTE      P2
      000000B0H   SFRSYM    DATA     BYTE      P3
      000000C0H   SFRSYM    DATA     BYTE      XICON
      000000B0H.4 SFRSYM    DATA     BIT       T0
      000000D0H.6 SFRSYM    DATA     BIT       AC
      000000E8H   SFRSYM    DATA     BYTE      P4
      000000B0H.5 SFRSYM    DATA     BIT       T1
      000000E6H   SFRSYM    DATA     BYTE      ISP_TRIG
      00000090H.0 SFRSYM    DATA     BIT       T2
      000000A8H.7 SFRSYM    DATA     BIT       EA
      000000A8H.6 SFRSYM    DATA     BIT       EC
      00000098H.7 SFRSYM    DATA     BIT       FE
      000000A8H   SFRSYM    DATA     BYTE      IE
      000000C8H.6 SFRSYM    DATA     BIT       EXF2
      000000B0H.7 SFRSYM    DATA     BIT       RD
      000000A8H.4 SFRSYM    DATA     BIT       ES
      000000B8H   SFRSYM    DATA     BYTE      IP
      00000098H.0 SFRSYM    DATA     BIT       RI
      000000B0H.2 SFRSYM    DATA     BIT       INT0
      000000D0H.7 SFRSYM    DATA     BIT       CY
      00000098H.1 SFRSYM    DATA     BIT       TI
      000000B0H.3 SFRSYM    DATA     BIT       INT1
      000000CBH   SFRSYM    DATA     BYTE      RCAP2H
      000000E5H   SFRSYM    DATA     BYTE      ISP_CMD
      000000B8H.4 SFRSYM    DATA     BIT       PS
      00000081H   SFRSYM    DATA     BYTE      SP
      00000090H.1 SFRSYM    DATA     BIT       T2EX
      000000D0H.2 SFRSYM    DATA     BIT       OV
      000000CAH   SFRSYM    DATA     BYTE      RCAP2L
      000000C8H.1 SFRSYM    DATA     BIT       C_T2
      000000B0H.6 SFRSYM    DATA     BIT       WR
      000000C8H.5 SFRSYM    DATA     BIT       RCLK
LX51 LINKER/LOCATER V4.66.87.0                                                        04/18/2018  10:36:57  PAGE 68


      000000C8H.4 SFRSYM    DATA     BIT       TCLK
      00000080H.0 SFRSYM    DATA     BIT       P00
      00000099H   SFRSYM    DATA     BYTE      SBUF
      00000087H   SFRSYM    DATA     BYTE      PCON
      00000090H.0 SFRSYM    DATA     BIT       P10
      00000080H.1 SFRSYM    DATA     BIT       P01
      000000A0H.0 SFRSYM    DATA     BIT       P20
      00000090H.1 SFRSYM    DATA     BIT       P11
      00000080H.2 SFRSYM    DATA     BIT       P02
      000000E3H   SFRSYM    DATA     BYTE      ISP_ADDRH
      000000B0H.0 SFRSYM    DATA     BIT       P30
      000000A0H.1 SFRSYM    DATA     BIT       P21
      00000090H.2 SFRSYM    DATA     BIT       P12
      00000080H.3 SFRSYM    DATA     BIT       P03
      00000098H   SFRSYM    DATA     BYTE      SCON
      000000B0H.1 SFRSYM    DATA     BIT       P31
      000000A0H.2 SFRSYM    DATA     BIT       P22
      00000090H.3 SFRSYM    DATA     BIT       P13
      00000080H.4 SFRSYM    DATA     BIT       P04
      000000E8H.0 SFRSYM    DATA     BIT       P40
      00000089H   SFRSYM    DATA     BYTE      TMOD
      00000088H   SFRSYM    DATA     BYTE      TCON
      000000B0H.2 SFRSYM    DATA     BIT       P32
      000000A0H.3 SFRSYM    DATA     BIT       P23
      00000090H.4 SFRSYM    DATA     BIT       P14
      00000080H.5 SFRSYM    DATA     BIT       P05
      000000E8H.1 SFRSYM    DATA     BIT       P41
      000000B0H.3 SFRSYM    DATA     BIT       P33
      000000A0H.4 SFRSYM    DATA     BIT       P24
      00000090H.5 SFRSYM    DATA     BIT       P15
      00000080H.6 SFRSYM    DATA     BIT       P06
      000000E4H   SFRSYM    DATA     BYTE      ISP_ADDRL
      000000E8H.2 SFRSYM    DATA     BIT       P42
      000000B0H.4 SFRSYM    DATA     BIT       P34
      000000A0H.5 SFRSYM    DATA     BIT       P25
      00000090H.6 SFRSYM    DATA     BIT       P16
      00000080H.7 SFRSYM    DATA     BIT       P07
      000000E8H.3 SFRSYM    DATA     BIT       P43
      000000B0H.5 SFRSYM    DATA     BIT       P35
      000000A0H.6 SFRSYM    DATA     BIT       P26
      00000090H.7 SFRSYM    DATA     BIT       P17
      000000E8H.4 SFRSYM    DATA     BIT       P44
      000000B0H.6 SFRSYM    DATA     BIT       P36
      000000A0H.7 SFRSYM    DATA     BIT       P27
      000000E8H.5 SFRSYM    DATA     BIT       P45
      000000B0H.7 SFRSYM    DATA     BIT       P37
      000000E8H.6 SFRSYM    DATA     BIT       P46
      00000088H.1 SFRSYM    DATA     BIT       IE0
      00000088H.3 SFRSYM    DATA     BIT       IE1
      0000008EH   SFRSYM    DATA     BYTE      AUXR
      000000F0H   SFRSYM    DATA     BYTE      B
      000000C8H.0 SFRSYM    DATA     BIT       CP_RL2
      000000E0H   SFRSYM    DATA     BYTE      ACC
      000000A8H.1 SFRSYM    DATA     BIT       ET0
      000000A8H.3 SFRSYM    DATA     BIT       ET1
      00000088H.5 SFRSYM    DATA     BIT       TF0
      000000A8H.5 SFRSYM    DATA     BIT       ET2
      00000088H.7 SFRSYM    DATA     BIT       TF1
      000000C8H.7 SFRSYM    DATA     BIT       TF2
      00000098H.2 SFRSYM    DATA     BIT       RB8
      0000008CH   SFRSYM    DATA     BYTE      TH0
      000000A8H.0 SFRSYM    DATA     BIT       EX0
      00000088H.0 SFRSYM    DATA     BIT       IT0
      0000008DH   SFRSYM    DATA     BYTE      TH1
      00000098H.3 SFRSYM    DATA     BIT       TB8
LX51 LINKER/LOCATER V4.66.87.0                                                        04/18/2018  10:36:57  PAGE 69


      000000A8H.2 SFRSYM    DATA     BIT       EX1
      00000088H.2 SFRSYM    DATA     BIT       IT1
      000000CDH   SFRSYM    DATA     BYTE      TH2
      000000D0H.0 SFRSYM    DATA     BIT       P
      00000098H.7 SFRSYM    DATA     BIT       SM0
      0000008AH   SFRSYM    DATA     BYTE      TL0
      00000098H.6 SFRSYM    DATA     BIT       SM1
      0000008BH   SFRSYM    DATA     BYTE      TL1
      00000098H.5 SFRSYM    DATA     BIT       SM2
      000000CCH   SFRSYM    DATA     BYTE      TL2
      000000B8H.1 SFRSYM    DATA     BIT       PT0
      000000B8H.3 SFRSYM    DATA     BIT       PT1
      000000D0H.3 SFRSYM    DATA     BIT       RS0
      000000E7H   SFRSYM    DATA     BYTE      ISP_CONTR
      000000B8H.5 SFRSYM    DATA     BIT       PT2
      00000088H.4 SFRSYM    DATA     BIT       TR0
      000000D0H.4 SFRSYM    DATA     BIT       RS1
      00000088H.6 SFRSYM    DATA     BIT       TR1
      000000C8H.2 SFRSYM    DATA     BIT       TR2
      000000B8H.0 SFRSYM    DATA     BIT       PX0
      000000E1H   SFRSYM    DATA     BYTE      WDT_CONTR
      000000B8H.2 SFRSYM    DATA     BIT       PX1
      00000083H   SFRSYM    DATA     BYTE      DPH
      00000082H   SFRSYM    DATA     BYTE      DPL
      000000B7H   SFRSYM    DATA     BYTE      IPH
      000000C8H.3 SFRSYM    DATA     BIT       EXEN2
      00000098H.4 SFRSYM    DATA     BIT       REN
      000000C9H   SFRSYM    DATA     BYTE      T2MOD
      000000C8H   SFRSYM    DATA     BYTE      T2CON
      000000E2H   SFRSYM    DATA     BYTE      ISP_DATA
      000000B9H   SFRSYM    DATA     BYTE      SADEN
      000000B0H.0 SFRSYM    DATA     BIT       RXD
      000000A9H   SFRSYM    DATA     BYTE      SADDR
      000000B0H.1 SFRSYM    DATA     BIT       TXD
      000000A2H   SFRSYM    DATA     BYTE      AUXR1
      000000D0H.5 SFRSYM    DATA     BIT       F0
      000000D0H   SFRSYM    DATA     BYTE      PSW
      01008E50H   SYMBOL    CODE     ---       __rtc_get_min_sec
      01007BB2H   SYMBOL    CODE     ---       __rtc_set_min_sec
      00000024H.4 SYMBOL    BIT      BIT       is_lt_timer_mode
      01008EA0H   SYMBOL    CODE     ---       __rtc_get_hour_12
      020000B1H   SYMBOL    XDATA    BYTE      last_read
      01007D88H   SYMBOL    CODE     ---       _rtc_set_hour_12
      020000B2H   SYMBOL    XDATA    ---       rtc_data
      0100000EH   SYMBOL    CODE     ---       __rtc_get_date
      01007BDEH   SYMBOL    CODE     ---       __rtc_set_date
      01007F2EH   SYMBOL    CODE     ---       __rtc_get_hour
      0100711AH   SYMBOL    CODE     ---       __rtc_set_hour

      01004919H   BLOCK     CODE     ---       LVL=0
      ---         BLOCKEND  ---      ---       LVL=0

      0100724EH   BLOCK     CODE     ---       LVL=0
      0100724EH   BLOCK     CODE     NEAR LAB  LVL=1
      02000002H   SYMBOL    XDATA    BYTE      addr
      02000003H   SYMBOL    XDATA    BYTE      c
      ---         BLOCKEND  ---      ---       LVL=1
      0100724EH   LINE      CODE     ---       #29
      0100724EH   LINE      CODE     ---       #30
      0100724EH   LINE      CODE     ---       #34
      0100725DH   LINE      CODE     ---       #35
      01007268H   LINE      CODE     ---       #36
      01007281H   LINE      CODE     ---       #37
      01007289H   LINE      CODE     ---       #38
      ---         BLOCKEND  ---      ---       LVL=0
LX51 LINKER/LOCATER V4.66.87.0                                                        04/18/2018  10:36:57  PAGE 70



      01008F7FH   BLOCK     CODE     ---       LVL=0
      01008F7FH   LINE      CODE     ---       #40
      01008F7FH   LINE      CODE     ---       #41
      01008F7FH   LINE      CODE     ---       #42
      01008F81H   LINE      CODE     ---       #43
      ---         BLOCKEND  ---      ---       LVL=0

      01000006H   BLOCK     CODE     ---       LVL=0
      00000020H.0 SYMBOL    BIT      BIT       enable
      01000006H   LINE      CODE     ---       #45
      01000006H   LINE      CODE     ---       #46
      01000006H   LINE      CODE     ---       #47
      0100000AH   LINE      CODE     ---       #48
      ---         BLOCKEND  ---      ---       LVL=0

      010088D7H   BLOCK     CODE     ---       LVL=0
      010088D7H   LINE      CODE     ---       #50
      010088D7H   LINE      CODE     ---       #51
      010088D7H   LINE      CODE     ---       #52
      010088E0H   LINE      CODE     ---       #54
      010088E3H   LINE      CODE     ---       #55
      010088E6H   LINE      CODE     ---       #56
      010088E6H   LINE      CODE     ---       #57
      010088E9H   LINE      CODE     ---       #58
      010088E9H   LINE      CODE     ---       #59
      ---         BLOCKEND  ---      ---       LVL=0

      01002DD7H   BLOCK     CODE     ---       LVL=0
      01002DD7H   BLOCK     CODE     NEAR LAB  LVL=1
      02000000H   SYMBOL    XDATA    BYTE      count
      02000001H   SYMBOL    XDATA    BYTE      is12
      ---         BLOCKEND  ---      ---       LVL=1
      01002DD7H   LINE      CODE     ---       #61
      01002DD7H   LINE      CODE     ---       #62
      01002DD7H   LINE      CODE     ---       #66
      01002DE0H   LINE      CODE     ---       #68
      01002DE2H   LINE      CODE     ---       #70
      01002DEEH   LINE      CODE     ---       #73
      01002DF8H   LINE      CODE     ---       #75
      01002DFBH   LINE      CODE     ---       #76
      01002E00H   LINE      CODE     ---       #77
      01002E07H   LINE      CODE     ---       #80
      01002E0FH   LINE      CODE     ---       #81
      01002E18H   LINE      CODE     ---       #82
      01002E20H   LINE      CODE     ---       #85
      01002E25H   LINE      CODE     ---       #86
      01002E2AH   LINE      CODE     ---       #87
      01002E2FH   LINE      CODE     ---       #90
      01002E34H   LINE      CODE     ---       #91
      01002E39H   LINE      CODE     ---       #92
      01002E3EH   LINE      CODE     ---       #93
      01002E43H   LINE      CODE     ---       #94
      01002E43H   LINE      CODE     ---       #96
      01002E4AH   LINE      CODE     ---       #97
      01002E4FH   LINE      CODE     ---       #99
      01002E54H   LINE      CODE     ---       #100
      01002E5BH   LINE      CODE     ---       #103
      01002E60H   LINE      CODE     ---       #104
      01002E65H   LINE      CODE     ---       #105
      01002E6AH   LINE      CODE     ---       #108
      01002E6FH   LINE      CODE     ---       #109
      01002E74H   LINE      CODE     ---       #110
      01002E79H   LINE      CODE     ---       #111
      01002E7EH   LINE      CODE     ---       #112
LX51 LINKER/LOCATER V4.66.87.0                                                        04/18/2018  10:36:57  PAGE 71


      01002E7EH   LINE      CODE     ---       #114
      01002E9EH   LINE      CODE     ---       #119
      01002EA5H   LINE      CODE     ---       #120
      01002EAAH   LINE      CODE     ---       #123
      01002EAFH   LINE      CODE     ---       #124
      01002EB6H   LINE      CODE     ---       #125
      01002EBBH   LINE      CODE     ---       #126
      01002EC2H   LINE      CODE     ---       #127
      01002EC7H   LINE      CODE     ---       #128
      01002ECCH   LINE      CODE     ---       #131
      01002ED9H   LINE      CODE     ---       #132
      01002EE0H   LINE      CODE     ---       #133
      01002EE9H   LINE      CODE     ---       #136
      01002EEEH   LINE      CODE     ---       #137
      01002EEEH   LINE      CODE     ---       #138
      01002EF4H   LINE      CODE     ---       #140
      01002EF7H   LINE      CODE     ---       #142
      ---         BLOCKEND  ---      ---       LVL=0

      01006689H   BLOCK     CODE     ---       LVL=0
      00000007H   SYMBOL    DATA     BYTE      type
      01006689H   BLOCK     CODE     NEAR LAB  LVL=1
      02000018H   SYMBOL    XDATA    BYTE      offset
      ---         BLOCKEND  ---      ---       LVL=1
      01006689H   LINE      CODE     ---       #145
      01006689H   LINE      CODE     ---       #146
      01006689H   LINE      CODE     ---       #148
      0100669DH   LINE      CODE     ---       #149
      0100669DH   LINE      CODE     ---       #150
      010066A4H   LINE      CODE     ---       #151
      010066A4H   LINE      CODE     ---       #152
      010066ACH   LINE      CODE     ---       #153
      010066ACH   LINE      CODE     ---       #154
      010066B4H   LINE      CODE     ---       #155
      010066B4H   LINE      CODE     ---       #156
      010066BCH   LINE      CODE     ---       #157
      010066BCH   LINE      CODE     ---       #158
      010066C4H   LINE      CODE     ---       #159
      010066C4H   LINE      CODE     ---       #160
      010066CAH   LINE      CODE     ---       #161
      010066CAH   LINE      CODE     ---       #163
      010066CFH   LINE      CODE     ---       #165
      ---         BLOCKEND  ---      ---       LVL=0

      01006793H   BLOCK     CODE     ---       LVL=0
      00000007H   SYMBOL    DATA     BYTE      type
      01006793H   BLOCK     CODE     NEAR LAB  LVL=1
      02000018H   SYMBOL    XDATA    BYTE      offset
      ---         BLOCKEND  ---      ---       LVL=1
      01006793H   LINE      CODE     ---       #169
      01006793H   LINE      CODE     ---       #170
      01006793H   LINE      CODE     ---       #172
      010067A7H   LINE      CODE     ---       #173
      010067A7H   LINE      CODE     ---       #174
      010067AEH   LINE      CODE     ---       #175
      010067AEH   LINE      CODE     ---       #176
      010067B6H   LINE      CODE     ---       #177
      010067B6H   LINE      CODE     ---       #178
      010067BEH   LINE      CODE     ---       #179
      010067BEH   LINE      CODE     ---       #180
      010067C6H   LINE      CODE     ---       #181
      010067C6H   LINE      CODE     ---       #182
      010067CEH   LINE      CODE     ---       #183
      010067CEH   LINE      CODE     ---       #184
      010067D4H   LINE      CODE     ---       #185
LX51 LINKER/LOCATER V4.66.87.0                                                        04/18/2018  10:36:57  PAGE 72


      010067D4H   LINE      CODE     ---       #186
      010067D7H   LINE      CODE     ---       #187
      ---         BLOCKEND  ---      ---       LVL=0

      01007F2EH   BLOCK     CODE     ---       LVL=0
      00000007H   SYMBOL    DATA     BYTE      hour
      01007F2EH   BLOCK     CODE     NEAR LAB  LVL=1
      00000006H   SYMBOL    DATA     BYTE      ret
      ---         BLOCKEND  ---      ---       LVL=1
      01007F2EH   LINE      CODE     ---       #190
      01007F2EH   LINE      CODE     ---       #191
      01007F2EH   LINE      CODE     ---       #193
      01007F32H   LINE      CODE     ---       #194
      01007F41H   LINE      CODE     ---       #195
      01007F45H   LINE      CODE     ---       #196
      01007F49H   LINE      CODE     ---       #197
      01007F49H   LINE      CODE     ---       #198
      01007F4BH   LINE      CODE     ---       #199
      01007F4FH   LINE      CODE     ---       #200
      01007F4FH   LINE      CODE     ---       #201
      01007F51H   LINE      CODE     ---       #202
      ---         BLOCKEND  ---      ---       LVL=0

      0100711AH   BLOCK     CODE     ---       LVL=0
      00000007H   SYMBOL    DATA     BYTE      hour
      02000019H   SYMBOL    XDATA    ---       dat
      0100711AH   LINE      CODE     ---       #205
      01007120H   LINE      CODE     ---       #206
      01007120H   LINE      CODE     ---       #207
      01007127H   LINE      CODE     ---       #208
      0100712DH   LINE      CODE     ---       #209
      01007133H   LINE      CODE     ---       #210
      01007137H   LINE      CODE     ---       #211
      01007139H   LINE      CODE     ---       #212
      01007141H   LINE      CODE     ---       #213
      01007141H   LINE      CODE     ---       #214
      01007141H   LINE      CODE     ---       #215
      01007141H   LINE      CODE     ---       #216
      01007146H   LINE      CODE     ---       #217
      01007146H   LINE      CODE     ---       #218
      01007148H   LINE      CODE     ---       #220
      01007148H   LINE      CODE     ---       #221
      01007148H   LINE      CODE     ---       #222
      0100714DH   LINE      CODE     ---       #223
      01007157H   LINE      CODE     ---       #224
      01007157H   LINE      CODE     ---       #225
      ---         BLOCKEND  ---      ---       LVL=0

      01007D88H   BLOCK     CODE     ---       LVL=0
      00000020H.1 SYMBOL    BIT      BIT       enable
      02000016H   SYMBOL    XDATA    ---       dat
      01007D88H   BLOCK     CODE     NEAR LAB  LVL=1
      00000007H   SYMBOL    DATA     BYTE      hour
      ---         BLOCKEND  ---      ---       LVL=1
      01007D88H   LINE      CODE     ---       #227
      01007D88H   LINE      CODE     ---       #228
      01007D88H   LINE      CODE     ---       #230
      01007D92H   LINE      CODE     ---       #231
      01007D98H   LINE      CODE     ---       #232
      01007D9DH   LINE      CODE     ---       #233
      01007D9FH   LINE      CODE     ---       #234
      01007DA7H   LINE      CODE     ---       #235
      01007DA7H   LINE      CODE     ---       #236
      ---         BLOCKEND  ---      ---       LVL=0

LX51 LINKER/LOCATER V4.66.87.0                                                        04/18/2018  10:36:57  PAGE 73


      01008EA0H   BLOCK     CODE     ---       LVL=0
      00000007H   SYMBOL    DATA     BYTE      hour
      01008EA0H   LINE      CODE     ---       #239
      01008EA0H   LINE      CODE     ---       #240
      01008EA0H   LINE      CODE     ---       #241
      01008EA6H   LINE      CODE     ---       #242
      ---         BLOCKEND  ---      ---       LVL=0

      01008E50H   BLOCK     CODE     ---       LVL=0
      00000007H   SYMBOL    DATA     BYTE      min
      01008E50H   LINE      CODE     ---       #244
      01008E50H   LINE      CODE     ---       #245
      01008E50H   LINE      CODE     ---       #246
      01008E57H   LINE      CODE     ---       #247
      ---         BLOCKEND  ---      ---       LVL=0

      01007BB2H   BLOCK     CODE     ---       LVL=0
      00000007H   SYMBOL    DATA     BYTE      min
      02000018H   SYMBOL    XDATA    ---       dat
      01007BB2H   LINE      CODE     ---       #249
      01007BB8H   LINE      CODE     ---       #250
      01007BB8H   LINE      CODE     ---       #251
      01007BC0H   LINE      CODE     ---       #252
      01007BC9H   LINE      CODE     ---       #253
      01007BD1H   LINE      CODE     ---       #254
      ---         BLOCKEND  ---      ---       LVL=0

      01008E58H   BLOCK     CODE     ---       LVL=0
      01008E58H   LINE      CODE     ---       #259
      01008E58H   LINE      CODE     ---       #260
      01008E58H   LINE      CODE     ---       #261
      ---         BLOCKEND  ---      ---       LVL=0

      01008EBCH   BLOCK     CODE     ---       LVL=0
      00000007H   SYMBOL    DATA     BYTE      hour
      01008EBCH   LINE      CODE     ---       #266
      01008EBCH   LINE      CODE     ---       #267
      01008EBCH   LINE      CODE     ---       #268
      ---         BLOCKEND  ---      ---       LVL=0

      01008A86H   BLOCK     CODE     ---       LVL=0
      00000020H.0 SYMBOL    BIT      BIT       enable
      01008A86H   LINE      CODE     ---       #271
      01008A86H   LINE      CODE     ---       #272
      01008A86H   LINE      CODE     ---       #273
      ---         BLOCKEND  ---      ---       LVL=0

      01008E60H   BLOCK     CODE     ---       LVL=0
      01008E60H   LINE      CODE     ---       #276
      01008E60H   LINE      CODE     ---       #277
      01008E60H   LINE      CODE     ---       #278
      ---         BLOCKEND  ---      ---       LVL=0

      01008E68H   BLOCK     CODE     ---       LVL=0
      01008E68H   LINE      CODE     ---       #281
      01008E68H   LINE      CODE     ---       #282
      01008E68H   LINE      CODE     ---       #283
      ---         BLOCKEND  ---      ---       LVL=0

      01008D8AH   BLOCK     CODE     ---       LVL=0
      00000007H   SYMBOL    DATA     BYTE      min
      01008D8AH   LINE      CODE     ---       #286
      01008D8AH   LINE      CODE     ---       #287
      01008D8AH   LINE      CODE     ---       #288
      ---         BLOCKEND  ---      ---       LVL=0
LX51 LINKER/LOCATER V4.66.87.0                                                        04/18/2018  10:36:57  PAGE 74



      01008E70H   BLOCK     CODE     ---       LVL=0
      01008E70H   LINE      CODE     ---       #291
      01008E70H   LINE      CODE     ---       #292
      01008E70H   LINE      CODE     ---       #293
      ---         BLOCKEND  ---      ---       LVL=0

      01008EC2H   BLOCK     CODE     ---       LVL=0
      00000007H   SYMBOL    DATA     BYTE      sec
      01008EC2H   LINE      CODE     ---       #296
      01008EC2H   LINE      CODE     ---       #297
      01008EC2H   LINE      CODE     ---       #298
      ---         BLOCKEND  ---      ---       LVL=0

      01008C47H   BLOCK     CODE     ---       LVL=0
      01008C47H   LINE      CODE     ---       #302
      01008C47H   LINE      CODE     ---       #303
      01008C47H   LINE      CODE     ---       #304
      01008C52H   LINE      CODE     ---       #305
      ---         BLOCKEND  ---      ---       LVL=0

      01008E78H   BLOCK     CODE     ---       LVL=0
      00000007H   SYMBOL    DATA     BYTE      year
      01008E78H   LINE      CODE     ---       #307
      01008E78H   LINE      CODE     ---       #308
      01008E78H   LINE      CODE     ---       #309
      01008E7BH   LINE      CODE     ---       #310
      01008E7BH   LINE      CODE     ---       #311
      01008E7BH   LINE      CODE     ---       #312
      01008E7FH   LINE      CODE     ---       #313
      ---         BLOCKEND  ---      ---       LVL=0

      01008C53H   BLOCK     CODE     ---       LVL=0
      01008C53H   LINE      CODE     ---       #315
      01008C53H   LINE      CODE     ---       #316
      01008C53H   LINE      CODE     ---       #317
      01008C5EH   LINE      CODE     ---       #318
      ---         BLOCKEND  ---      ---       LVL=0

      01008E80H   BLOCK     CODE     ---       LVL=0
      00000007H   SYMBOL    DATA     BYTE      month
      01008E80H   LINE      CODE     ---       #320
      01008E80H   LINE      CODE     ---       #321
      01008E80H   LINE      CODE     ---       #322
      01008E83H   LINE      CODE     ---       #323
      01008E83H   LINE      CODE     ---       #324
      01008E83H   LINE      CODE     ---       #325
      01008E87H   LINE      CODE     ---       #326
      ---         BLOCKEND  ---      ---       LVL=0

      0100000EH   BLOCK     CODE     ---       LVL=0
      00000007H   SYMBOL    DATA     BYTE      date
      0100000EH   LINE      CODE     ---       #328
      0100000EH   LINE      CODE     ---       #329
      0100000EH   LINE      CODE     ---       #330
      01000012H   LINE      CODE     ---       #331
      ---         BLOCKEND  ---      ---       LVL=0

      01007BDEH   BLOCK     CODE     ---       LVL=0
      00000007H   SYMBOL    DATA     BYTE      date
      02000018H   SYMBOL    XDATA    ---       dat
      01007BDEH   LINE      CODE     ---       #333
      01007BE4H   LINE      CODE     ---       #334
      01007BE4H   LINE      CODE     ---       #335
      01007BECH   LINE      CODE     ---       #336
LX51 LINKER/LOCATER V4.66.87.0                                                        04/18/2018  10:36:57  PAGE 75


      01007BF5H   LINE      CODE     ---       #337
      01007BFDH   LINE      CODE     ---       #338
      ---         BLOCKEND  ---      ---       LVL=0

      01008E88H   BLOCK     CODE     ---       LVL=0
      01008E88H   LINE      CODE     ---       #341
      01008E88H   LINE      CODE     ---       #342
      01008E88H   LINE      CODE     ---       #343
      ---         BLOCKEND  ---      ---       LVL=0

      01005094H   BLOCK     CODE     ---       LVL=0
      02000016H   SYMBOL    XDATA    BYTE      date
      01005099H   BLOCK     CODE     NEAR LAB  LVL=1
      02000017H   SYMBOL    XDATA    CHAR      mon
      ---         BLOCKEND  ---      ---       LVL=1
      01005094H   LINE      CODE     ---       #347
      01005099H   LINE      CODE     ---       #348
      01005099H   LINE      CODE     ---       #349
      010050A1H   LINE      CODE     ---       #351
      010050AAH   LINE      CODE     ---       #352
      010050D0H   LINE      CODE     ---       #353
      010050D0H   LINE      CODE     ---       #354
      010050DBH   LINE      CODE     ---       #355
      010050DBH   LINE      CODE     ---       #356
      010050E6H   LINE      CODE     ---       #357
      010050F5H   LINE      CODE     ---       #358
      010050FFH   LINE      CODE     ---       #359
      0100510EH   LINE      CODE     ---       #360
      01005119H   LINE      CODE     ---       #361
      01005119H   LINE      CODE     ---       #362
      01005119H   LINE      CODE     ---       #364
      01005122H   LINE      CODE     ---       #365
      01005130H   LINE      CODE     ---       #367
      01005131H   LINE      CODE     ---       #368
      ---         BLOCKEND  ---      ---       LVL=0

      01008EC8H   BLOCK     CODE     ---       LVL=0
      01008EC8H   LINE      CODE     ---       #370
      01008EC8H   LINE      CODE     ---       #371
      01008EC8H   LINE      CODE     ---       #372
      01008ECDH   LINE      CODE     ---       #373
      ---         BLOCKEND  ---      ---       LVL=0

      0100896FH   BLOCK     CODE     ---       LVL=0
      00000007H   SYMBOL    DATA     BYTE      day
      0100896FH   LINE      CODE     ---       #375
      0100896FH   LINE      CODE     ---       #376
      0100896FH   LINE      CODE     ---       #377
      0100897BH   LINE      CODE     ---       #378
      01008980H   LINE      CODE     ---       #379
      01008980H   LINE      CODE     ---       #380
      ---         BLOCKEND  ---      ---       LVL=0

      0100868BH   BLOCK     CODE     ---       LVL=0
      0100868BH   LINE      CODE     ---       #383
      0100868BH   LINE      CODE     ---       #384
      0100868BH   LINE      CODE     ---       #385
      ---         BLOCKEND  ---      ---       LVL=0

      010086A1H   BLOCK     CODE     ---       LVL=0
      010086A1H   LINE      CODE     ---       #388
      010086A1H   LINE      CODE     ---       #389
      010086A1H   LINE      CODE     ---       #390
      ---         BLOCKEND  ---      ---       LVL=0

LX51 LINKER/LOCATER V4.66.87.0                                                        04/18/2018  10:36:57  PAGE 76


      0100828FH   BLOCK     CODE     ---       LVL=0
      00000020H.0 SYMBOL    BIT      BIT       enable
      0100828FH   LINE      CODE     ---       #393
      0100828FH   LINE      CODE     ---       #394
      0100828FH   LINE      CODE     ---       #395
      ---         BLOCKEND  ---      ---       LVL=0

      010088EAH   BLOCK     CODE     ---       LVL=0
      00000007H   SYMBOL    DATA     BYTE      hour
      010088EAH   LINE      CODE     ---       #398
      010088EAH   LINE      CODE     ---       #399
      010088EAH   LINE      CODE     ---       #400
      ---         BLOCKEND  ---      ---       LVL=0

      010086B7H   BLOCK     CODE     ---       LVL=0
      010086B7H   LINE      CODE     ---       #403
      010086B7H   LINE      CODE     ---       #404
      010086B7H   LINE      CODE     ---       #405
      ---         BLOCKEND  ---      ---       LVL=0

      010088FDH   BLOCK     CODE     ---       LVL=0
      00000007H   SYMBOL    DATA     BYTE      min
      010088FDH   LINE      CODE     ---       #408
      010088FDH   LINE      CODE     ---       #409
      010088FDH   LINE      CODE     ---       #410
      ---         BLOCKEND  ---      ---       LVL=0

      01008810H   BLOCK     CODE     ---       LVL=0
      01008810H   LINE      CODE     ---       #413
      01008810H   LINE      CODE     ---       #414
      01008810H   LINE      CODE     ---       #415
      01008823H   LINE      CODE     ---       #416
      ---         BLOCKEND  ---      ---       LVL=0

      010086CDH   BLOCK     CODE     ---       LVL=0
      00000007H   SYMBOL    DATA     BYTE      day
      010086CDH   LINE      CODE     ---       #418
      010086CDH   LINE      CODE     ---       #419
      010086CDH   LINE      CODE     ---       #420
      010086D4H   LINE      CODE     ---       #421
      010086D7H   LINE      CODE     ---       #422
      010086D7H   LINE      CODE     ---       #423
      010086D9H   LINE      CODE     ---       #424
      010086E0H   LINE      CODE     ---       #425
      010086E2H   LINE      CODE     ---       #426
      010086E2H   LINE      CODE     ---       #427
      ---         BLOCKEND  ---      ---       LVL=0

      01008793H   BLOCK     CODE     ---       LVL=0
      01008793H   LINE      CODE     ---       #429
      01008793H   LINE      CODE     ---       #430
      01008793H   LINE      CODE     ---       #431
      010087A7H   LINE      CODE     ---       #433
      ---         BLOCKEND  ---      ---       LVL=0

      010083ABH   BLOCK     CODE     ---       LVL=0
      00000006H   SYMBOL    DATA     BYTE      date
      010083ABH   LINE      CODE     ---       #435
      010083ADH   LINE      CODE     ---       #436
      010083ADH   LINE      CODE     ---       #437
      010083C4H   LINE      CODE     ---       #439
      ---         BLOCKEND  ---      ---       LVL=0

      01008824H   BLOCK     CODE     ---       LVL=0
      01008824H   LINE      CODE     ---       #441
LX51 LINKER/LOCATER V4.66.87.0                                                        04/18/2018  10:36:57  PAGE 77


      01008824H   LINE      CODE     ---       #442
      01008824H   LINE      CODE     ---       #443
      0100882BH   LINE      CODE     ---       #444
      01008835H   LINE      CODE     ---       #445
      01008835H   LINE      CODE     ---       #446
      01008837H   LINE      CODE     ---       #447
      ---         BLOCKEND  ---      ---       LVL=0

      010082ACH   BLOCK     CODE     ---       LVL=0
      00000007H   SYMBOL    DATA     BYTE      sec
      010082ACH   LINE      CODE     ---       #450
      010082ACH   LINE      CODE     ---       #451
      010082ACH   LINE      CODE     ---       #452
      010082B3H   LINE      CODE     ---       #453
      010082B9H   LINE      CODE     ---       #454
      010082C0H   LINE      CODE     ---       #455
      010082C4H   LINE      CODE     ---       #456
      010082C8H   LINE      CODE     ---       #457
      010082C8H   LINE      CODE     ---       #458
      ---         BLOCKEND  ---      ---       LVL=0

      01004232H   BLOCK     CODE     ---       LVL=0
      01004232H   BLOCK     CODE     NEAR LAB  LVL=1
      00000003H   SYMBOL    DATA     BYTE      dy
      00000007H   SYMBOL    DATA     BYTE      a1m1
      00000004H   SYMBOL    DATA     BYTE      a1m2
      00000005H   SYMBOL    DATA     BYTE      a1m3
      00000006H   SYMBOL    DATA     BYTE      a1m4
      ---         BLOCKEND  ---      ---       LVL=1
      01004232H   LINE      CODE     ---       #474
      01004232H   LINE      CODE     ---       #475
      01004232H   LINE      CODE     ---       #477
      0100423AH   LINE      CODE     ---       #478
      0100423FH   LINE      CODE     ---       #479
      01004243H   LINE      CODE     ---       #480
      01004248H   LINE      CODE     ---       #481
      0100424DH   LINE      CODE     ---       #482
      01004251H   LINE      CODE     ---       #483
      0100425DH   LINE      CODE     ---       #484
      01004260H   LINE      CODE     ---       #485
      0100426CH   LINE      CODE     ---       #486
      0100426FH   LINE      CODE     ---       #487
      0100427BH   LINE      CODE     ---       #488
      0100427EH   LINE      CODE     ---       #489
      0100428AH   LINE      CODE     ---       #490
      0100428DH   LINE      CODE     ---       #491
      0100429CH   LINE      CODE     ---       #492
      0100429FH   LINE      CODE     ---       #493
      0100429FH   LINE      CODE     ---       #494
      010042A2H   LINE      CODE     ---       #495
      010042A2H   LINE      CODE     ---       #496
      010042AAH   LINE      CODE     ---       #497
      010042AFH   LINE      CODE     ---       #498
      010042B3H   LINE      CODE     ---       #499
      010042B8H   LINE      CODE     ---       #500
      010042BCH   LINE      CODE     ---       #501
      010042C5H   LINE      CODE     ---       #502
      010042C8H   LINE      CODE     ---       #503
      010042D1H   LINE      CODE     ---       #504
      010042D4H   LINE      CODE     ---       #505
      010042DDH   LINE      CODE     ---       #506
      010042E0H   LINE      CODE     ---       #507
      010042E9H   LINE      CODE     ---       #508
      010042ECH   LINE      CODE     ---       #509
      010042F8H   LINE      CODE     ---       #510
LX51 LINKER/LOCATER V4.66.87.0                                                        04/18/2018  10:36:57  PAGE 78


      010042FBH   LINE      CODE     ---       #511
      010042FBH   LINE      CODE     ---       #512
      010042FEH   LINE      CODE     ---       #513
      010042FEH   LINE      CODE     ---       #514
      010042FEH   LINE      CODE     ---       #515
      01004300H   LINE      CODE     ---       #516
      ---         BLOCKEND  ---      ---       LVL=0

      010054BCH   BLOCK     CODE     ---       LVL=0
      00000005H   SYMBOL    DATA     BYTE      mode
      010054BCH   LINE      CODE     ---       #517
      010054BEH   LINE      CODE     ---       #518
      010054BEH   LINE      CODE     ---       #519
      010054CCH   LINE      CODE     ---       #520
      010054CCH   LINE      CODE     ---       #521
      010054CCH   LINE      CODE     ---       #522
      010054CFH   LINE      CODE     ---       #523
      010054D4H   LINE      CODE     ---       #524
      010054D7H   LINE      CODE     ---       #525
      010054E9H   LINE      CODE     ---       #526
      010054E9H   LINE      CODE     ---       #527
      010054F0H   LINE      CODE     ---       #528
      010054F0H   LINE      CODE     ---       #529
      010054F7H   LINE      CODE     ---       #530
      010054F7H   LINE      CODE     ---       #531
      010054FEH   LINE      CODE     ---       #532
      010054FEH   LINE      CODE     ---       #533
      01005501H   LINE      CODE     ---       #534
      01005501H   LINE      CODE     ---       #535
      01005503H   LINE      CODE     ---       #536
      01005503H   LINE      CODE     ---       #537
      01005506H   LINE      CODE     ---       #538
      01005506H   LINE      CODE     ---       #539
      01005516H   LINE      CODE     ---       #540
      01005516H   LINE      CODE     ---       #541
      01005516H   LINE      CODE     ---       #542
      01005519H   LINE      CODE     ---       #543
      0100551CH   LINE      CODE     ---       #544
      0100552CH   LINE      CODE     ---       #545
      0100552CH   LINE      CODE     ---       #546
      01005533H   LINE      CODE     ---       #547
      01005533H   LINE      CODE     ---       #548
      0100553AH   LINE      CODE     ---       #549
      0100553AH   LINE      CODE     ---       #550
      01005541H   LINE      CODE     ---       #551
      01005541H   LINE      CODE     ---       #552
      01005542H   LINE      CODE     ---       #553
      01005542H   LINE      CODE     ---       #554
      01005549H   LINE      CODE     ---       #555
      01005549H   LINE      CODE     ---       #556
      01005549H   LINE      CODE     ---       #557
      ---         BLOCKEND  ---      ---       LVL=0

      01005304H   BLOCK     CODE     ---       LVL=0
      02000016H   SYMBOL    XDATA    ---       integer
      02000019H   SYMBOL    XDATA    ---       flt
      0100530AH   BLOCK     CODE     NEAR LAB  LVL=1
      0200001CH   SYMBOL    XDATA    FLOAT     ret
      00000020H.1 SYMBOL    BIT      BIT       sign
      ---         BLOCKEND  ---      ---       LVL=1
      01005304H   LINE      CODE     ---       #560
      0100530AH   LINE      CODE     ---       #561
      0100530AH   LINE      CODE     ---       #562
      01005314H   LINE      CODE     ---       #563
      01005320H   LINE      CODE     ---       #566
LX51 LINKER/LOCATER V4.66.87.0                                                        04/18/2018  10:36:57  PAGE 79


      01005323H   LINE      CODE     ---       #567
      01005329H   LINE      CODE     ---       #568
      0100532AH   LINE      CODE     ---       #569
      0100532DH   LINE      CODE     ---       #570
      01005330H   LINE      CODE     ---       #571
      01005333H   LINE      CODE     ---       #572
      01005335H   LINE      CODE     ---       #573
      0100533BH   LINE      CODE     ---       #574
      0100533BH   LINE      CODE     ---       #575
      0100533DH   LINE      CODE     ---       #576
      01005340H   LINE      CODE     ---       #577
      01005343H   LINE      CODE     ---       #578
      01005343H   LINE      CODE     ---       #580
      01005352H   LINE      CODE     ---       #582
      0100535CH   LINE      CODE     ---       #583
      01005364H   LINE      CODE     ---       #584
      01005369H   LINE      CODE     ---       #585
      01005371H   LINE      CODE     ---       #586
      01005379H   LINE      CODE     ---       #587
      0100537EH   LINE      CODE     ---       #588
      01005380H   LINE      CODE     ---       #589
      01005387H   LINE      CODE     ---       #590
      01005387H   LINE      CODE     ---       #592
      01005397H   LINE      CODE     ---       #594
      01005399H   LINE      CODE     ---       #595
      ---         BLOCKEND  ---      ---       LVL=0

      01007F09H   BLOCK     CODE     ---       LVL=0
      00000007H   SYMBOL    DATA     BYTE      index
      00000020H.0 SYMBOL    BIT      BIT       enable
      01007F09H   LINE      CODE     ---       #598
      01007F09H   LINE      CODE     ---       #599
      01007F09H   LINE      CODE     ---       #600
      01007F0CH   LINE      CODE     ---       #601
      01007F13H   LINE      CODE     ---       #602
      01007F17H   LINE      CODE     ---       #604
      01007F1AH   LINE      CODE     ---       #605
      01007F1FH   LINE      CODE     ---       #606
      01007F26H   LINE      CODE     ---       #607
      01007F2AH   LINE      CODE     ---       #609
      01007F2DH   LINE      CODE     ---       #610
      01007F2DH   LINE      CODE     ---       #611
      ---         BLOCKEND  ---      ---       LVL=0

      010082C9H   BLOCK     CODE     ---       LVL=0
      00000007H   SYMBOL    DATA     BYTE      index
      010082C9H   LINE      CODE     ---       #613
      010082C9H   LINE      CODE     ---       #614
      010082C9H   LINE      CODE     ---       #615
      010082CCH   LINE      CODE     ---       #616
      010082D6H   LINE      CODE     ---       #617
      010082DAH   LINE      CODE     ---       #618
      010082E4H   LINE      CODE     ---       #619
      010082E4H   LINE      CODE     ---       #620
      010082E5H   LINE      CODE     ---       #621
      ---         BLOCKEND  ---      ---       LVL=0

      010085D3H   BLOCK     CODE     ---       LVL=0
      00000007H   SYMBOL    DATA     BYTE      index
      010085D3H   LINE      CODE     ---       #623
      010085D3H   LINE      CODE     ---       #624
      010085D3H   LINE      CODE     ---       #625
      010085D6H   LINE      CODE     ---       #626
      010085DDH   LINE      CODE     ---       #627
      010085E2H   LINE      CODE     ---       #628
LX51 LINKER/LOCATER V4.66.87.0                                                        04/18/2018  10:36:57  PAGE 80


      010085E9H   LINE      CODE     ---       #629
      010085E9H   LINE      CODE     ---       #630
      ---         BLOCKEND  ---      ---       LVL=0

      010082E6H   BLOCK     CODE     ---       LVL=0
      00000007H   SYMBOL    DATA     BYTE      index
      010082E6H   LINE      CODE     ---       #632
      010082E6H   LINE      CODE     ---       #633
      010082E6H   LINE      CODE     ---       #634
      010082E9H   LINE      CODE     ---       #635
      010082F3H   LINE      CODE     ---       #636
      010082F7H   LINE      CODE     ---       #637
      01008301H   LINE      CODE     ---       #638
      01008301H   LINE      CODE     ---       #639
      01008302H   LINE      CODE     ---       #640
      ---         BLOCKEND  ---      ---       LVL=0

      010083C5H   BLOCK     CODE     ---       LVL=0
      010083C5H   LINE      CODE     ---       #642
      010083C5H   LINE      CODE     ---       #643
      010083C5H   LINE      CODE     ---       #645
      010083CEH   LINE      CODE     ---       #647
      010083D3H   LINE      CODE     ---       #648
      010083DAH   LINE      CODE     ---       #649
      ---         BLOCKEND  ---      ---       LVL=0

      01008838H   BLOCK     CODE     ---       LVL=0
      01008838H   LINE      CODE     ---       #653
      01008838H   LINE      CODE     ---       #654
      01008838H   LINE      CODE     ---       #655
      01008841H   LINE      CODE     ---       #657
      01008846H   LINE      CODE     ---       #658
      01008846H   LINE      CODE     ---       #659
      ---         BLOCKEND  ---      ---       LVL=0

      ---         MODULE    ---      ---       I2C
      010085EAH   PUBLIC    CODE     ---       _I2C_Get
      02000023H   PUBLIC    XDATA    BYTE      ?_I2C_Gets?BYTE
      01005EBAH   PUBLIC    CODE     ---       _I2C_Gets
      0100884CH   PUBLIC    CODE     ---       _I2C_Put
      0200001DH   PUBLIC    XDATA    BYTE      ?_I2C_Puts?BYTE
      010067EAH   PUBLIC    CODE     ---       _I2C_Puts
      00000020H.2 PUBLIC    BIT      BIT       ?I2C_PutAck?BIT
      01008981H   PUBLIC    CODE     ---       I2C_PutAck
      0100804CH   PUBLIC    CODE     ---       I2C_GetAck
      01007A43H   PUBLIC    CODE     ---       I2C_Read
      010081F7H   PUBLIC    CODE     ---       _I2C_Write
      010086E3H   PUBLIC    CODE     ---       I2C_Stop
      01008CBEH   PUBLIC    CODE     ---       I2C_Start
      01008D58H   PUBLIC    CODE     ---       I2C_Init
      01008A18H   PUBLIC    CODE     ---       I2C_Delay
      00000080H   SFRSYM    DATA     BYTE      P0
      00000090H   SFRSYM    DATA     BYTE      P1
      00000090H.7 SFRSYM    DATA     BIT       I2C_SCL
      000000A0H   SFRSYM    DATA     BYTE      P2
      000000B0H   SFRSYM    DATA     BYTE      P3
      000000C0H   SFRSYM    DATA     BYTE      XICON
      000000B0H.4 SFRSYM    DATA     BIT       T0
      000000D0H.6 SFRSYM    DATA     BIT       AC
      000000E8H   SFRSYM    DATA     BYTE      P4
      000000B0H.5 SFRSYM    DATA     BIT       T1
      000000E6H   SFRSYM    DATA     BYTE      ISP_TRIG
      00000090H.0 SFRSYM    DATA     BIT       T2
      000000A8H.7 SFRSYM    DATA     BIT       EA
      000000A8H.6 SFRSYM    DATA     BIT       EC
LX51 LINKER/LOCATER V4.66.87.0                                                        04/18/2018  10:36:57  PAGE 81


      00000098H.7 SFRSYM    DATA     BIT       FE
      000000A8H   SFRSYM    DATA     BYTE      IE
      000000C8H.6 SFRSYM    DATA     BIT       EXF2
      000000B0H.7 SFRSYM    DATA     BIT       RD
      000000A8H.4 SFRSYM    DATA     BIT       ES
      000000B8H   SFRSYM    DATA     BYTE      IP
      00000098H.0 SFRSYM    DATA     BIT       RI
      000000B0H.2 SFRSYM    DATA     BIT       INT0
      000000D0H.7 SFRSYM    DATA     BIT       CY
      00000098H.1 SFRSYM    DATA     BIT       TI
      000000B0H.3 SFRSYM    DATA     BIT       INT1
      000000CBH   SFRSYM    DATA     BYTE      RCAP2H
      000000E5H   SFRSYM    DATA     BYTE      ISP_CMD
      000000B8H.4 SFRSYM    DATA     BIT       PS
      00000081H   SFRSYM    DATA     BYTE      SP
      00000090H.1 SFRSYM    DATA     BIT       T2EX
      000000D0H.2 SFRSYM    DATA     BIT       OV
      000000CAH   SFRSYM    DATA     BYTE      RCAP2L
      000000C8H.1 SFRSYM    DATA     BIT       C_T2
      000000B0H.6 SFRSYM    DATA     BIT       WR
      000000C8H.5 SFRSYM    DATA     BIT       RCLK
      000000C8H.4 SFRSYM    DATA     BIT       TCLK
      00000080H.0 SFRSYM    DATA     BIT       P00
      00000099H   SFRSYM    DATA     BYTE      SBUF
      00000087H   SFRSYM    DATA     BYTE      PCON
      00000090H.0 SFRSYM    DATA     BIT       P10
      00000080H.1 SFRSYM    DATA     BIT       P01
      000000A0H.0 SFRSYM    DATA     BIT       P20
      00000090H.1 SFRSYM    DATA     BIT       P11
      00000080H.2 SFRSYM    DATA     BIT       P02
      000000E3H   SFRSYM    DATA     BYTE      ISP_ADDRH
      000000B0H.0 SFRSYM    DATA     BIT       P30
      000000A0H.1 SFRSYM    DATA     BIT       P21
      00000090H.2 SFRSYM    DATA     BIT       P12
      00000080H.3 SFRSYM    DATA     BIT       P03
      00000098H   SFRSYM    DATA     BYTE      SCON
      000000B0H.1 SFRSYM    DATA     BIT       P31
      000000A0H.2 SFRSYM    DATA     BIT       P22
      00000090H.3 SFRSYM    DATA     BIT       P13
      00000080H.4 SFRSYM    DATA     BIT       P04
      000000E8H.0 SFRSYM    DATA     BIT       P40
      00000089H   SFRSYM    DATA     BYTE      TMOD
      00000088H   SFRSYM    DATA     BYTE      TCON
      000000B0H.2 SFRSYM    DATA     BIT       P32
      000000A0H.3 SFRSYM    DATA     BIT       P23
      00000090H.4 SFRSYM    DATA     BIT       P14
      00000080H.5 SFRSYM    DATA     BIT       P05
      000000E8H.1 SFRSYM    DATA     BIT       P41
      000000B0H.3 SFRSYM    DATA     BIT       P33
      000000A0H.4 SFRSYM    DATA     BIT       P24
      00000090H.5 SFRSYM    DATA     BIT       P15
      00000080H.6 SFRSYM    DATA     BIT       P06
      000000E4H   SFRSYM    DATA     BYTE      ISP_ADDRL
      000000E8H.2 SFRSYM    DATA     BIT       P42
      000000B0H.4 SFRSYM    DATA     BIT       P34
      000000A0H.5 SFRSYM    DATA     BIT       P25
      00000090H.6 SFRSYM    DATA     BIT       P16
      00000080H.7 SFRSYM    DATA     BIT       P07
      000000E8H.3 SFRSYM    DATA     BIT       P43
      000000B0H.5 SFRSYM    DATA     BIT       P35
      000000A0H.6 SFRSYM    DATA     BIT       P26
      00000090H.7 SFRSYM    DATA     BIT       P17
      000000E8H.4 SFRSYM    DATA     BIT       P44
      000000B0H.6 SFRSYM    DATA     BIT       P36
      000000A0H.7 SFRSYM    DATA     BIT       P27
LX51 LINKER/LOCATER V4.66.87.0                                                        04/18/2018  10:36:57  PAGE 82


      000000E8H.5 SFRSYM    DATA     BIT       P45
      000000B0H.7 SFRSYM    DATA     BIT       P37
      000000E8H.6 SFRSYM    DATA     BIT       P46
      00000088H.1 SFRSYM    DATA     BIT       IE0
      00000088H.3 SFRSYM    DATA     BIT       IE1
      0000008EH   SFRSYM    DATA     BYTE      AUXR
      000000F0H   SFRSYM    DATA     BYTE      B
      000000C8H.0 SFRSYM    DATA     BIT       CP_RL2
      000000E0H   SFRSYM    DATA     BYTE      ACC
      000000A8H.1 SFRSYM    DATA     BIT       ET0
      000000A8H.3 SFRSYM    DATA     BIT       ET1
      00000088H.5 SFRSYM    DATA     BIT       TF0
      000000A8H.5 SFRSYM    DATA     BIT       ET2
      00000088H.7 SFRSYM    DATA     BIT       TF1
      000000C8H.7 SFRSYM    DATA     BIT       TF2
      00000098H.2 SFRSYM    DATA     BIT       RB8
      0000008CH   SFRSYM    DATA     BYTE      TH0
      000000A8H.0 SFRSYM    DATA     BIT       EX0
      00000088H.0 SFRSYM    DATA     BIT       IT0
      0000008DH   SFRSYM    DATA     BYTE      TH1
      00000098H.3 SFRSYM    DATA     BIT       TB8
      000000A8H.2 SFRSYM    DATA     BIT       EX1
      00000088H.2 SFRSYM    DATA     BIT       IT1
      000000CDH   SFRSYM    DATA     BYTE      TH2
      000000D0H.0 SFRSYM    DATA     BIT       P
      00000098H.7 SFRSYM    DATA     BIT       SM0
      0000008AH   SFRSYM    DATA     BYTE      TL0
      00000098H.6 SFRSYM    DATA     BIT       SM1
      0000008BH   SFRSYM    DATA     BYTE      TL1
      00000098H.5 SFRSYM    DATA     BIT       SM2
      000000CCH   SFRSYM    DATA     BYTE      TL2
      000000B8H.1 SFRSYM    DATA     BIT       PT0
      000000B8H.3 SFRSYM    DATA     BIT       PT1
      000000D0H.3 SFRSYM    DATA     BIT       RS0
      000000E7H   SFRSYM    DATA     BYTE      ISP_CONTR
      000000B8H.5 SFRSYM    DATA     BIT       PT2
      00000088H.4 SFRSYM    DATA     BIT       TR0
      000000D0H.4 SFRSYM    DATA     BIT       RS1
      00000088H.6 SFRSYM    DATA     BIT       TR1
      000000C8H.2 SFRSYM    DATA     BIT       TR2
      000000B8H.0 SFRSYM    DATA     BIT       PX0
      000000E1H   SFRSYM    DATA     BYTE      WDT_CONTR
      000000B8H.2 SFRSYM    DATA     BIT       PX1
      00000083H   SFRSYM    DATA     BYTE      DPH
      00000082H   SFRSYM    DATA     BYTE      DPL
      000000B7H   SFRSYM    DATA     BYTE      IPH
      000000C8H.3 SFRSYM    DATA     BIT       EXEN2
      00000098H.4 SFRSYM    DATA     BIT       REN
      000000C9H   SFRSYM    DATA     BYTE      T2MOD
      000000C8H   SFRSYM    DATA     BYTE      T2CON
      000000E2H   SFRSYM    DATA     BYTE      ISP_DATA
      000000B9H   SFRSYM    DATA     BYTE      SADEN
      000000B0H.0 SFRSYM    DATA     BIT       RXD
      000000A9H   SFRSYM    DATA     BYTE      SADDR
      000000B0H.1 SFRSYM    DATA     BIT       TXD
      000000A2H   SFRSYM    DATA     BYTE      AUXR1
      000000D0H.5 SFRSYM    DATA     BIT       F0
      00000090H.6 SFRSYM    DATA     BIT       I2C_SDA
      000000D0H   SFRSYM    DATA     BYTE      PSW

      01008D62H   BLOCK     CODE     ---       LVL=0
      ---         BLOCKEND  ---      ---       LVL=0

      01008A10H   BLOCK     CODE     ---       LVL=0
      ---         BLOCKEND  ---      ---       LVL=0
LX51 LINKER/LOCATER V4.66.87.0                                                        04/18/2018  10:36:57  PAGE 83



      01008A18H   BLOCK     CODE     ---       LVL=0
      00000007H   SYMBOL    DATA     BYTE      c
      01008A18H   BLOCK     CODE     NEAR LAB  LVL=1
      00000007H   SYMBOL    DATA     BYTE      c
      ---         BLOCKEND  ---      ---       LVL=1
      01008A18H   LINE      CODE     ---       #5
      01008A18H   LINE      CODE     ---       #6
      01008A18H   LINE      CODE     ---       #8
      01008A1AH   LINE      CODE     ---       #9
      01008A20H   LINE      CODE     ---       #10
      ---         BLOCKEND  ---      ---       LVL=0

      01008D58H   BLOCK     CODE     ---       LVL=0
      01008D58H   LINE      CODE     ---       #15
      01008D58H   LINE      CODE     ---       #16
      01008D58H   LINE      CODE     ---       #17
      01008D5AH   LINE      CODE     ---       #18
      01008D5DH   LINE      CODE     ---       #19
      01008D5FH   LINE      CODE     ---       #20
      ---         BLOCKEND  ---      ---       LVL=0

      01008CBEH   BLOCK     CODE     ---       LVL=0
      01008CBEH   LINE      CODE     ---       #24
      01008CBEH   LINE      CODE     ---       #25
      01008CBEH   LINE      CODE     ---       #28
      01008CBEH   LINE      CODE     ---       #29
      01008CBEH   LINE      CODE     ---       #30
      01008CBEH   LINE      CODE     ---       #31
      01008CC1H   LINE      CODE     ---       #32
      01008CC3H   LINE      CODE     ---       #33
      01008CC3H   LINE      CODE     ---       #34
      01008CC3H   LINE      CODE     ---       #35
      01008CC3H   LINE      CODE     ---       #36
      01008CC6H   LINE      CODE     ---       #37
      ---         BLOCKEND  ---      ---       LVL=0

      010086E3H   BLOCK     CODE     ---       LVL=0
      010086E3H   BLOCK     CODE     NEAR LAB  LVL=1
      00000004H   SYMBOL    DATA     WORD      t
      ---         BLOCKEND  ---      ---       LVL=1
      010086E3H   LINE      CODE     ---       #40
      010086E3H   LINE      CODE     ---       #41
      010086E3H   LINE      CODE     ---       #42
      010086E7H   LINE      CODE     ---       #44
      010086E9H   LINE      CODE     ---       #45
      010086ECH   LINE      CODE     ---       #47
      010086ECH   LINE      CODE     ---       #48
      010086ECH   LINE      CODE     ---       #49
      010086ECH   LINE      CODE     ---       #50
      010086EFH   LINE      CODE     ---       #54
      010086F8H   LINE      CODE     ---       #55
      ---         BLOCKEND  ---      ---       LVL=0

      010081F7H   BLOCK     CODE     ---       LVL=0
      00000006H   SYMBOL    DATA     BYTE      dat
      010081F9H   BLOCK     CODE     NEAR LAB  LVL=1
      00000005H   SYMBOL    DATA     BYTE      t
      ---         BLOCKEND  ---      ---       LVL=1
      010081F7H   LINE      CODE     ---       #59
      010081F9H   LINE      CODE     ---       #60
      010081F9H   LINE      CODE     ---       #63
      010081FBH   LINE      CODE     ---       #64
      010081FBH   LINE      CODE     ---       #66
      010081FFH   LINE      CODE     ---       #67
LX51 LINKER/LOCATER V4.66.87.0                                                        04/18/2018  10:36:57  PAGE 84


      01008202H   LINE      CODE     ---       #68
      01008204H   LINE      CODE     ---       #69
      01008207H   LINE      CODE     ---       #70
      01008209H   LINE      CODE     ---       #71
      0100820CH   LINE      CODE     ---       #72
      01008210H   LINE      CODE     ---       #73
      01008215H   LINE      CODE     ---       #76
      ---         BLOCKEND  ---      ---       LVL=0

      01007A43H   BLOCK     CODE     ---       LVL=0
      01007A43H   BLOCK     CODE     NEAR LAB  LVL=1
      00000006H   SYMBOL    DATA     BYTE      dat
      00000005H   SYMBOL    DATA     BYTE      t
      00000020H.2 SYMBOL    BIT      BIT       temp
      ---         BLOCKEND  ---      ---       LVL=1
      01007A43H   LINE      CODE     ---       #78
      01007A43H   LINE      CODE     ---       #79
      01007A43H   LINE      CODE     ---       #80
      01007A45H   LINE      CODE     ---       #83
      01007A48H   LINE      CODE     ---       #84
      01007A48H   LINE      CODE     ---       #85
      01007A48H   LINE      CODE     ---       #87
      01007A4BH   LINE      CODE     ---       #89
      01007A4DH   LINE      CODE     ---       #90
      01007A4DH   LINE      CODE     ---       #91
      01007A4FH   LINE      CODE     ---       #92
      01007A52H   LINE      CODE     ---       #93
      01007A54H   LINE      CODE     ---       #94
      01007A57H   LINE      CODE     ---       #95
      01007A5BH   LINE      CODE     ---       #96
      01007A5FH   LINE      CODE     ---       #97
      01007A65H   LINE      CODE     ---       #98
      01007A6AH   LINE      CODE     ---       #100
      01007A6CH   LINE      CODE     ---       #101
      01007A6FH   LINE      CODE     ---       #103
      01007A71H   LINE      CODE     ---       #104
      ---         BLOCKEND  ---      ---       LVL=0

      0100804CH   BLOCK     CODE     ---       LVL=0
      0100804CH   BLOCK     CODE     NEAR LAB  LVL=1
      00000020H.2 SYMBOL    BIT      BIT       ack
      00000006H   SYMBOL    DATA     BYTE      Error_time
      ---         BLOCKEND  ---      ---       LVL=1
      0100804CH   LINE      CODE     ---       #108
      0100804CH   LINE      CODE     ---       #109
      0100804CH   LINE      CODE     ---       #111
      0100804EH   LINE      CODE     ---       #113
      0100804EH   LINE      CODE     ---       #114
      0100804EH   LINE      CODE     ---       #115
      01008051H   LINE      CODE     ---       #116
      01008053H   LINE      CODE     ---       #117
      01008056H   LINE      CODE     ---       #119
      01008056H   LINE      CODE     ---       #120
      0100805AH   LINE      CODE     ---       #121
      0100805CH   LINE      CODE     ---       #122
      0100805CH   LINE      CODE     ---       #123
      0100805CH   LINE      CODE     ---       #124
      0100805EH   LINE      CODE     ---       #125
      01008061H   LINE      CODE     ---       #126
      01008063H   LINE      CODE     ---       #127
      01008063H   LINE      CODE     ---       #128
      01008066H   LINE      CODE     ---       #131
      01008066H   LINE      CODE     ---       #132
      01008066H   LINE      CODE     ---       #133
      01008069H   LINE      CODE     ---       #134
LX51 LINKER/LOCATER V4.66.87.0                                                        04/18/2018  10:36:57  PAGE 85


      0100806CH   LINE      CODE     ---       #135
      0100806DH   LINE      CODE     ---       #136
      ---         BLOCKEND  ---      ---       LVL=0

      01008981H   BLOCK     CODE     ---       LVL=0
      00000020H.2 SYMBOL    BIT      BIT       ack
      01008981H   LINE      CODE     ---       #138
      01008981H   LINE      CODE     ---       #139
      01008981H   LINE      CODE     ---       #141
      01008985H   LINE      CODE     ---       #142
      01008988H   LINE      CODE     ---       #143
      0100898AH   LINE      CODE     ---       #144
      0100898AH   LINE      CODE     ---       #146
      0100898AH   LINE      CODE     ---       #147
      0100898AH   LINE      CODE     ---       #148
      0100898DH   LINE      CODE     ---       #149
      01008990H   LINE      CODE     ---       #150
      ---         BLOCKEND  ---      ---       LVL=0

      010067EAH   BLOCK     CODE     ---       LVL=0
      00000006H   SYMBOL    DATA     BYTE      SlaveAddr
      00000004H   SYMBOL    DATA     BYTE      SubAddr
      0200001FH   SYMBOL    XDATA    BYTE      Size
      02000020H   SYMBOL    XDATA    ---       dat
      010067EAH   LINE      CODE     ---       #219
      010067F3H   LINE      CODE     ---       #220
      010067F3H   LINE      CODE     ---       #222
      010067F7H   LINE      CODE     ---       #224
      010067FBH   LINE      CODE     ---       #226
      010067FEH   LINE      CODE     ---       #228
      01006800H   LINE      CODE     ---       #229
      01006805H   LINE      CODE     ---       #230
      01006805H   LINE      CODE     ---       #231
      01006805H   LINE      CODE     ---       #232
      01006807H   LINE      CODE     ---       #233
      01006807H   LINE      CODE     ---       #235
      01006809H   LINE      CODE     ---       #236
      0100680EH   LINE      CODE     ---       #237
      0100680EH   LINE      CODE     ---       #238
      0100680EH   LINE      CODE     ---       #239
      01006810H   LINE      CODE     ---       #240
      01006810H   LINE      CODE     ---       #243
      01006810H   LINE      CODE     ---       #244
      01006821H   LINE      CODE     ---       #245
      01006826H   LINE      CODE     ---       #246
      01006826H   LINE      CODE     ---       #247
      01006829H   LINE      CODE     ---       #248
      0100682BH   LINE      CODE     ---       #249
      0100682BH   LINE      CODE     ---       #250
      01006833H   LINE      CODE     ---       #252
      01006836H   LINE      CODE     ---       #253
      01006837H   LINE      CODE     ---       #254
      ---         BLOCKEND  ---      ---       LVL=0

      0100884CH   BLOCK     CODE     ---       LVL=0
      00000007H   SYMBOL    DATA     BYTE      SlaveAddr
      00000005H   SYMBOL    DATA     BYTE      SubAddr
      0200001CH   SYMBOL    XDATA    CHAR      dat
      0100884CH   LINE      CODE     ---       #256
      01008851H   LINE      CODE     ---       #257
      01008851H   LINE      CODE     ---       #258
      ---         BLOCKEND  ---      ---       LVL=0

      01005EBAH   BLOCK     CODE     ---       LVL=0
      00000004H   SYMBOL    DATA     BYTE      SlaveAddr
LX51 LINKER/LOCATER V4.66.87.0                                                        04/18/2018  10:36:57  PAGE 86


      00000001H   SYMBOL    DATA     BYTE      SubAddr
      02000025H   SYMBOL    XDATA    BYTE      Size
      02000026H   SYMBOL    XDATA    ---       dat
      01005EBAH   LINE      CODE     ---       #262
      01005EC3H   LINE      CODE     ---       #263
      01005EC3H   LINE      CODE     ---       #264
      01005EC7H   LINE      CODE     ---       #266
      01005ECBH   LINE      CODE     ---       #268
      01005ECEH   LINE      CODE     ---       #270
      01005ED0H   LINE      CODE     ---       #271
      01005ED5H   LINE      CODE     ---       #272
      01005ED5H   LINE      CODE     ---       #273
      01005ED5H   LINE      CODE     ---       #274
      01005ED7H   LINE      CODE     ---       #275
      01005ED7H   LINE      CODE     ---       #277
      01005ED9H   LINE      CODE     ---       #278
      01005EDEH   LINE      CODE     ---       #279
      01005EDEH   LINE      CODE     ---       #280
      01005EDEH   LINE      CODE     ---       #281
      01005EE0H   LINE      CODE     ---       #282
      01005EE0H   LINE      CODE     ---       #284
      01005EE3H   LINE      CODE     ---       #286
      01005EE7H   LINE      CODE     ---       #287
      01005EEBH   LINE      CODE     ---       #288
      01005EF0H   LINE      CODE     ---       #289
      01005EF0H   LINE      CODE     ---       #290
      01005EF3H   LINE      CODE     ---       #291
      01005EF5H   LINE      CODE     ---       #292
      01005EF5H   LINE      CODE     ---       #294
      01005EF5H   LINE      CODE     ---       #295
      01005EF5H   LINE      CODE     ---       #296
      01005F06H   LINE      CODE     ---       #297
      01005F0EH   LINE      CODE     ---       #298
      01005F0EH   LINE      CODE     ---       #299
      01005F13H   LINE      CODE     ---       #300
      01005F15H   LINE      CODE     ---       #301
      01005F15H   LINE      CODE     ---       #302
      01005F1AH   LINE      CODE     ---       #303
      01005F1CH   LINE      CODE     ---       #305
      01005F1FH   LINE      CODE     ---       #306
      01005F20H   LINE      CODE     ---       #307
      ---         BLOCKEND  ---      ---       LVL=0

      010085EAH   BLOCK     CODE     ---       LVL=0
      00000007H   SYMBOL    DATA     BYTE      SlaveAddr
      00000005H   SYMBOL    DATA     BYTE      SubAddr
      02000020H   SYMBOL    XDATA    ---       dat
      010085EAH   LINE      CODE     ---       #309
      010085F0H   LINE      CODE     ---       #310
      010085F0H   LINE      CODE     ---       #311
      ---         BLOCKEND  ---      ---       LVL=0

      ---         MODULE    ---      ---       KEY
      01008D9CH   PUBLIC    CODE     ---       key_leave_powersave
      01008D93H   PUBLIC    CODE     ---       key_enter_powersave
      0100847AH   PUBLIC    CODE     ---       key_initialize
      01007652H   PUBLIC    CODE     ---       _mod_set_proc
      01006A78H   PUBLIC    CODE     ---       _set_proc
      01006A28H   PUBLIC    CODE     ---       _mod_proc
      010039F1H   PUBLIC    CODE     ---       _scan_key_proc
      00000080H   SFRSYM    DATA     BYTE      P0
      00000090H   SFRSYM    DATA     BYTE      P1
      000000A0H   SFRSYM    DATA     BYTE      P2
      000000B0H   SFRSYM    DATA     BYTE      P3
      000000C0H   SFRSYM    DATA     BYTE      XICON
LX51 LINKER/LOCATER V4.66.87.0                                                        04/18/2018  10:36:57  PAGE 87


      000000B0H.4 SFRSYM    DATA     BIT       T0
      000000D0H.6 SFRSYM    DATA     BIT       AC
      000000E8H   SFRSYM    DATA     BYTE      P4
      000000B0H.5 SFRSYM    DATA     BIT       T1
      000000E6H   SFRSYM    DATA     BYTE      ISP_TRIG
      00000090H.0 SFRSYM    DATA     BIT       T2
      000000A8H.7 SFRSYM    DATA     BIT       EA
      000000A8H.6 SFRSYM    DATA     BIT       EC
      00000098H.7 SFRSYM    DATA     BIT       FE
      000000A8H   SFRSYM    DATA     BYTE      IE
      000000C8H.6 SFRSYM    DATA     BIT       EXF2
      000000B0H.7 SFRSYM    DATA     BIT       RD
      000000A8H.4 SFRSYM    DATA     BIT       ES
      000000B8H   SFRSYM    DATA     BYTE      IP
      00000098H.0 SFRSYM    DATA     BIT       RI
      000000B0H.2 SFRSYM    DATA     BIT       INT0
      000000D0H.7 SFRSYM    DATA     BIT       CY
      00000098H.1 SFRSYM    DATA     BIT       TI
      000000B0H.3 SFRSYM    DATA     BIT       INT1
      000000CBH   SFRSYM    DATA     BYTE      RCAP2H
      000000E5H   SFRSYM    DATA     BYTE      ISP_CMD
      000000B8H.4 SFRSYM    DATA     BIT       PS
      00000081H   SFRSYM    DATA     BYTE      SP
      00000090H.1 SFRSYM    DATA     BIT       T2EX
      000000D0H.2 SFRSYM    DATA     BIT       OV
      000000CAH   SFRSYM    DATA     BYTE      RCAP2L
      000000C8H.1 SFRSYM    DATA     BIT       C_T2
      000000B0H.6 SFRSYM    DATA     BIT       WR
      000000A0H.6 SFRSYM    DATA     BIT       MOD_KEY
      000000C8H.5 SFRSYM    DATA     BIT       RCLK
      000000C8H.4 SFRSYM    DATA     BIT       TCLK
      00000080H.0 SFRSYM    DATA     BIT       P00
      00000099H   SFRSYM    DATA     BYTE      SBUF
      00000087H   SFRSYM    DATA     BYTE      PCON
      00000090H.0 SFRSYM    DATA     BIT       P10
      00000080H.1 SFRSYM    DATA     BIT       P01
      000000A0H.0 SFRSYM    DATA     BIT       P20
      00000090H.1 SFRSYM    DATA     BIT       P11
      00000080H.2 SFRSYM    DATA     BIT       P02
      000000E3H   SFRSYM    DATA     BYTE      ISP_ADDRH
      000000B0H.0 SFRSYM    DATA     BIT       P30
      000000A0H.1 SFRSYM    DATA     BIT       P21
      00000090H.2 SFRSYM    DATA     BIT       P12
      00000080H.3 SFRSYM    DATA     BIT       P03
      00000098H   SFRSYM    DATA     BYTE      SCON
      000000B0H.1 SFRSYM    DATA     BIT       P31
      000000A0H.2 SFRSYM    DATA     BIT       P22
      00000090H.3 SFRSYM    DATA     BIT       P13
      00000080H.4 SFRSYM    DATA     BIT       P04
      000000E8H.0 SFRSYM    DATA     BIT       P40
      00000089H   SFRSYM    DATA     BYTE      TMOD
      00000088H   SFRSYM    DATA     BYTE      TCON
      000000B0H.2 SFRSYM    DATA     BIT       P32
      000000A0H.3 SFRSYM    DATA     BIT       P23
      00000090H.4 SFRSYM    DATA     BIT       P14
      00000080H.5 SFRSYM    DATA     BIT       P05
      000000E8H.1 SFRSYM    DATA     BIT       P41
      000000B0H.3 SFRSYM    DATA     BIT       P33
      000000A0H.4 SFRSYM    DATA     BIT       P24
      00000090H.5 SFRSYM    DATA     BIT       P15
      00000080H.6 SFRSYM    DATA     BIT       P06
      000000E4H   SFRSYM    DATA     BYTE      ISP_ADDRL
      000000E8H.2 SFRSYM    DATA     BIT       P42
      000000A0H.7 SFRSYM    DATA     BIT       SET_KEY
      000000B0H.4 SFRSYM    DATA     BIT       P34
LX51 LINKER/LOCATER V4.66.87.0                                                        04/18/2018  10:36:57  PAGE 88


      000000A0H.5 SFRSYM    DATA     BIT       P25
      00000090H.6 SFRSYM    DATA     BIT       P16
      00000080H.7 SFRSYM    DATA     BIT       P07
      000000E8H.3 SFRSYM    DATA     BIT       P43
      000000B0H.5 SFRSYM    DATA     BIT       P35
      000000A0H.6 SFRSYM    DATA     BIT       P26
      00000090H.7 SFRSYM    DATA     BIT       P17
      000000E8H.4 SFRSYM    DATA     BIT       P44
      000000B0H.6 SFRSYM    DATA     BIT       P36
      000000A0H.7 SFRSYM    DATA     BIT       P27
      000000E8H.5 SFRSYM    DATA     BIT       P45
      000000B0H.7 SFRSYM    DATA     BIT       P37
      000000E8H.6 SFRSYM    DATA     BIT       P46
      00000088H.1 SFRSYM    DATA     BIT       IE0
      00000088H.3 SFRSYM    DATA     BIT       IE1
      0000008EH   SFRSYM    DATA     BYTE      AUXR
      000000F0H   SFRSYM    DATA     BYTE      B
      000000C8H.0 SFRSYM    DATA     BIT       CP_RL2
      000000E0H   SFRSYM    DATA     BYTE      ACC
      000000A8H.1 SFRSYM    DATA     BIT       ET0
      000000A8H.3 SFRSYM    DATA     BIT       ET1
      00000088H.5 SFRSYM    DATA     BIT       TF0
      000000A8H.5 SFRSYM    DATA     BIT       ET2
      00000088H.7 SFRSYM    DATA     BIT       TF1
      000000C8H.7 SFRSYM    DATA     BIT       TF2
      00000098H.2 SFRSYM    DATA     BIT       RB8
      0000008CH   SFRSYM    DATA     BYTE      TH0
      000000A8H.0 SFRSYM    DATA     BIT       EX0
      00000088H.0 SFRSYM    DATA     BIT       IT0
      0000008DH   SFRSYM    DATA     BYTE      TH1
      00000098H.3 SFRSYM    DATA     BIT       TB8
      000000A8H.2 SFRSYM    DATA     BIT       EX1
      00000088H.2 SFRSYM    DATA     BIT       IT1
      000000CDH   SFRSYM    DATA     BYTE      TH2
      000000D0H.0 SFRSYM    DATA     BIT       P
      00000098H.7 SFRSYM    DATA     BIT       SM0
      0000008AH   SFRSYM    DATA     BYTE      TL0
      00000098H.6 SFRSYM    DATA     BIT       SM1
      0000008BH   SFRSYM    DATA     BYTE      TL1
      00000098H.5 SFRSYM    DATA     BIT       SM2
      000000CCH   SFRSYM    DATA     BYTE      TL2
      000000B8H.1 SFRSYM    DATA     BIT       PT0
      000000B8H.3 SFRSYM    DATA     BIT       PT1
      000000D0H.3 SFRSYM    DATA     BIT       RS0
      000000E7H   SFRSYM    DATA     BYTE      ISP_CONTR
      000000B8H.5 SFRSYM    DATA     BIT       PT2
      00000088H.4 SFRSYM    DATA     BIT       TR0
      000000D0H.4 SFRSYM    DATA     BIT       RS1
      00000088H.6 SFRSYM    DATA     BIT       TR1
      000000C8H.2 SFRSYM    DATA     BIT       TR2
      000000B8H.0 SFRSYM    DATA     BIT       PX0
      000000E1H   SFRSYM    DATA     BYTE      WDT_CONTR
      000000B8H.2 SFRSYM    DATA     BIT       PX1
      00000083H   SFRSYM    DATA     BYTE      DPH
      00000082H   SFRSYM    DATA     BYTE      DPL
      000000B7H   SFRSYM    DATA     BYTE      IPH
      000000C8H.3 SFRSYM    DATA     BIT       EXEN2
      00000098H.4 SFRSYM    DATA     BIT       REN
      000000C9H   SFRSYM    DATA     BYTE      T2MOD
      000000C8H   SFRSYM    DATA     BYTE      T2CON
      000000E2H   SFRSYM    DATA     BYTE      ISP_DATA
      000000B9H   SFRSYM    DATA     BYTE      SADEN
      000000B0H.0 SFRSYM    DATA     BIT       RXD
      000000A9H   SFRSYM    DATA     BYTE      SADDR
      000000B0H.1 SFRSYM    DATA     BIT       TXD
LX51 LINKER/LOCATER V4.66.87.0                                                        04/18/2018  10:36:57  PAGE 89


      000000A2H   SFRSYM    DATA     BYTE      AUXR1
      000000D0H.5 SFRSYM    DATA     BIT       F0
      000000D0H   SFRSYM    DATA     BYTE      PSW
      020000CBH   SYMBOL    XDATA    BYTE      last_mod_tmr_count
      020000CCH   SYMBOL    XDATA    BYTE      last_set_tmr_count
      0100788EH   SYMBOL    CODE     ---       int0_ISR
      00000023H.4 SYMBOL    BIT      BIT       mod_press
      00000023H.5 SYMBOL    BIT      BIT       set_press

      01008A21H   BLOCK     CODE     ---       LVL=0
      ---         BLOCKEND  ---      ---       LVL=0

      0100788EH   BLOCK     CODE     ---       LVL=0
      0100788EH   LINE      CODE     ---       #26
      010078A0H   LINE      CODE     ---       #28
      010078A2H   LINE      CODE     ---       #29
      010078A7H   LINE      CODE     ---       #30
      010078AAH   LINE      CODE     ---       #31
      010078ADH   LINE      CODE     ---       #32
      010078ADH   LINE      CODE     ---       #33
      010078B0H   LINE      CODE     ---       #35
      ---         BLOCKEND  ---      ---       LVL=0

      010039F1H   BLOCK     CODE     ---       LVL=0
      02000000H   SYMBOL    XDATA    BYTE      ev
      010039F1H   LINE      CODE     ---       #37
      010039F1H   LINE      CODE     ---       #38
      010039F1H   LINE      CODE     ---       #39
      010039F1H   LINE      CODE     ---       #40
      010039F7H   LINE      CODE     ---       #41
      010039FCH   LINE      CODE     ---       #42
      010039FFH   LINE      CODE     ---       #43
      01003A05H   LINE      CODE     ---       #44
      01003A07H   LINE      CODE     ---       #45
      01003A0FH   LINE      CODE     ---       #46
      01003A0FH   LINE      CODE     ---       #47
      01003A17H   LINE      CODE     ---       #48
      01003A1EH   LINE      CODE     ---       #49
      01003A26H   LINE      CODE     ---       #50
      01003A26H   LINE      CODE     ---       #51
      01003A2CH   LINE      CODE     ---       #52
      01003A32H   LINE      CODE     ---       #53
      01003A34H   LINE      CODE     ---       #54
      01003A3BH   LINE      CODE     ---       #55
      01003A41H   LINE      CODE     ---       #56
      01003A44H   LINE      CODE     ---       #57
      01003A4CH   LINE      CODE     ---       #58
      01003A4CH   LINE      CODE     ---       #59
      01003A4CH   LINE      CODE     ---       #60
      01003A4CH   LINE      CODE     ---       #62
      01003A52H   LINE      CODE     ---       #63
      01003A57H   LINE      CODE     ---       #64
      01003A5AH   LINE      CODE     ---       #65
      01003A60H   LINE      CODE     ---       #66
      01003A62H   LINE      CODE     ---       #67
      01003A6AH   LINE      CODE     ---       #68
      01003A6AH   LINE      CODE     ---       #69
      01003A72H   LINE      CODE     ---       #70
      01003A79H   LINE      CODE     ---       #71
      01003A84H   LINE      CODE     ---       #72
      01003A84H   LINE      CODE     ---       #73
      01003A8AH   LINE      CODE     ---       #74
      01003A93H   LINE      CODE     ---       #75
      01003A9AH   LINE      CODE     ---       #76
      01003A9DH   LINE      CODE     ---       #77
LX51 LINKER/LOCATER V4.66.87.0                                                        04/18/2018  10:36:57  PAGE 90


      01003AA0H   LINE      CODE     ---       #78
      01003AA8H   LINE      CODE     ---       #79
      01003AA8H   LINE      CODE     ---       #80
      01003AA8H   LINE      CODE     ---       #81
      01003AAAH   LINE      CODE     ---       #82
      01003AAAH   LINE      CODE     ---       #84
      01003AB6H   LINE      CODE     ---       #85
      01003AB6H   LINE      CODE     ---       #87
      01003AD3H   LINE      CODE     ---       #88
      01003ADCH   LINE      CODE     ---       #89
      01003ADCH   LINE      CODE     ---       #90
      01003ADCH   LINE      CODE     ---       #91
      ---         BLOCKEND  ---      ---       LVL=0

      01006A28H   BLOCK     CODE     ---       LVL=0
      0200000CH   SYMBOL    XDATA    BYTE      ev
      01006A28H   LINE      CODE     ---       #93
      01006A2DH   LINE      CODE     ---       #94
      01006A2DH   LINE      CODE     ---       #95
      01006A37H   LINE      CODE     ---       #97
      01006A49H   LINE      CODE     ---       #98
      01006A49H   LINE      CODE     ---       #99
      01006A52H   LINE      CODE     ---       #100
      01006A55H   LINE      CODE     ---       #101
      01006A57H   LINE      CODE     ---       #102
      01006A57H   LINE      CODE     ---       #103
      01006A5DH   LINE      CODE     ---       #104
      01006A5FH   LINE      CODE     ---       #105
      01006A5FH   LINE      CODE     ---       #106
      01006A65H   LINE      CODE     ---       #107
      01006A67H   LINE      CODE     ---       #108
      01006A67H   LINE      CODE     ---       #109
      01006A70H   LINE      CODE     ---       #110
      01006A70H   LINE      CODE     ---       #111
      01006A70H   LINE      CODE     ---       #113
      ---         BLOCKEND  ---      ---       LVL=0

      01006A78H   BLOCK     CODE     ---       LVL=0
      0200000CH   SYMBOL    XDATA    BYTE      ev
      01006A78H   LINE      CODE     ---       #117
      01006A7DH   LINE      CODE     ---       #118
      01006A7DH   LINE      CODE     ---       #119
      01006A87H   LINE      CODE     ---       #121
      01006A99H   LINE      CODE     ---       #122
      01006A99H   LINE      CODE     ---       #123
      01006AA2H   LINE      CODE     ---       #124
      01006AA5H   LINE      CODE     ---       #125
      01006AA7H   LINE      CODE     ---       #126
      01006AA7H   LINE      CODE     ---       #127
      01006AADH   LINE      CODE     ---       #128
      01006AAFH   LINE      CODE     ---       #129
      01006AAFH   LINE      CODE     ---       #130
      01006AB5H   LINE      CODE     ---       #131
      01006AB7H   LINE      CODE     ---       #132
      01006AB7H   LINE      CODE     ---       #133
      01006AC0H   LINE      CODE     ---       #134
      01006AC0H   LINE      CODE     ---       #135
      01006AC0H   LINE      CODE     ---       #137
      ---         BLOCKEND  ---      ---       LVL=0

      01007652H   BLOCK     CODE     ---       LVL=0
      0200000CH   SYMBOL    XDATA    BYTE      ev
      01007652H   LINE      CODE     ---       #140
      01007657H   LINE      CODE     ---       #141
      01007657H   LINE      CODE     ---       #142
LX51 LINKER/LOCATER V4.66.87.0                                                        04/18/2018  10:36:57  PAGE 91


      01007664H   LINE      CODE     ---       #144
      0100766FH   LINE      CODE     ---       #145
      0100766FH   LINE      CODE     ---       #146
      01007675H   LINE      CODE     ---       #147
      01007677H   LINE      CODE     ---       #148
      01007677H   LINE      CODE     ---       #149
      01007680H   LINE      CODE     ---       #150
      01007680H   LINE      CODE     ---       #151
      01007680H   LINE      CODE     ---       #153
      ---         BLOCKEND  ---      ---       LVL=0

      0100847AH   BLOCK     CODE     ---       LVL=0
      0100847AH   LINE      CODE     ---       #156
      0100847AH   LINE      CODE     ---       #157
      0100847AH   LINE      CODE     ---       #158
      01008483H   LINE      CODE     ---       #160
      01008488H   LINE      CODE     ---       #161
      0100848AH   LINE      CODE     ---       #163
      0100848CH   LINE      CODE     ---       #164
      0100848EH   LINE      CODE     ---       #166
      01008490H   LINE      CODE     ---       #167
      01008492H   LINE      CODE     ---       #168
      ---         BLOCKEND  ---      ---       LVL=0

      01008D93H   BLOCK     CODE     ---       LVL=0
      01008D93H   LINE      CODE     ---       #170
      01008D93H   LINE      CODE     ---       #171
      01008D93H   LINE      CODE     ---       #172
      ---         BLOCKEND  ---      ---       LVL=0

      01008D9CH   BLOCK     CODE     ---       LVL=0
      01008D9CH   LINE      CODE     ---       #175
      01008D9CH   LINE      CODE     ---       #176
      01008D9CH   LINE      CODE     ---       #177
      ---         BLOCKEND  ---      ---       LVL=0

      ---         MODULE    ---      ---       TASK
      0000005CH   PUBLIC    IDATA    WORD      ev_bits1
      0000005AH   PUBLIC    IDATA    WORD      ev_bits0
      0100B259H   PUBLIC    CONST    ---       task_name
      01005B76H   PUBLIC    CODE     ---       task_dump
      01004EA7H   PUBLIC    CODE     ---       run_task
      01008860H   PUBLIC    CODE     ---       task_initialize
      0100B2B3H   SYMBOL    CONST    ---       task_procs

      01008B16H   BLOCK     CODE     ---       LVL=0
      ---         BLOCKEND  ---      ---       LVL=0

      01008860H   BLOCK     CODE     ---       LVL=0
      01008860H   LINE      CODE     ---       #150
      01008860H   LINE      CODE     ---       #151
      01008860H   LINE      CODE     ---       #152
      01008869H   LINE      CODE     ---       #153
      0100886FH   LINE      CODE     ---       #154
      01008873H   LINE      CODE     ---       #155
      ---         BLOCKEND  ---      ---       LVL=0

      01004EA7H   BLOCK     CODE     ---       LVL=0
      01004EA7H   BLOCK     CODE     NEAR LAB  LVL=1
      02000000H   SYMBOL    XDATA    BYTE      c
      ---         BLOCKEND  ---      ---       LVL=1
      01004EA7H   LINE      CODE     ---       #157
      01004EA7H   LINE      CODE     ---       #158
      01004EA7H   LINE      CODE     ---       #161
      01004EB0H   LINE      CODE     ---       #162
LX51 LINKER/LOCATER V4.66.87.0                                                        04/18/2018  10:36:57  PAGE 92


      01004EBEH   LINE      CODE     ---       #163
      01004EF0H   LINE      CODE     ---       #164
      01004F26H   LINE      CODE     ---       #165
      01004F44H   LINE      CODE     ---       #166
      01004F44H   LINE      CODE     ---       #167
      01004F4DH   LINE      CODE     ---       #168
      01004F4DH   LINE      CODE     ---       #170
      ---         BLOCKEND  ---      ---       LVL=0

      01005B76H   BLOCK     CODE     ---       LVL=0
      01005B76H   BLOCK     CODE     NEAR LAB  LVL=1
      0200000BH   SYMBOL    XDATA    BYTE      i
      ---         BLOCKEND  ---      ---       LVL=1
      01005B76H   LINE      CODE     ---       #172
      01005B76H   LINE      CODE     ---       #173
      01005B76H   LINE      CODE     ---       #175
      01005B85H   LINE      CODE     ---       #176
      01005BE7H   LINE      CODE     ---       #177
      01005BEFH   LINE      CODE     ---       #178
      ---         BLOCKEND  ---      ---       LVL=0

      ---         MODULE    ---      ---       LED
      00000024H.5 PUBLIC    BIT      BIT       led_powersave
      00000044H   PUBLIC    IDATA    ---       led_data
      00000042H   PUBLIC    IDATA    BYTE      led_blink
      020000AAH   PUBLIC    XDATA    ---       saved_led_data
      020000A8H   PUBLIC    XDATA    BYTE      saved_led_blink
      0100CB22H   PUBLIC    CONST    ---       led_code
      01007E4CH   PUBLIC    CODE     ---       led_restore
      01007E26H   PUBLIC    CODE     ---       led_save
      010087A8H   PUBLIC    CODE     ---       led_leave_powersave
      01008A43H   PUBLIC    CODE     ---       led_enter_powersave
      01006AC8H   PUBLIC    CODE     ---       _led_set_code
      01008B34H   PUBLIC    CODE     ---       _led_set_dp
      01008B25H   PUBLIC    CODE     ---       _led_clr_dp
      01008601H   PUBLIC    CODE     ---       _led_clr_blink
      010086F9H   PUBLIC    CODE     ---       _led_set_blink
      01008A32H   PUBLIC    CODE     ---       led_clear
      01007300H   PUBLIC    CODE     ---       led_initialize
      010065D6H   PUBLIC    CODE     ---       refresh_led
      00000080H   SFRSYM    DATA     BYTE      P0
      00000090H   SFRSYM    DATA     BYTE      P1
      000000A0H   SFRSYM    DATA     BYTE      P2
      000000B0H   SFRSYM    DATA     BYTE      P3
      000000C0H   SFRSYM    DATA     BYTE      XICON
      000000B0H.4 SFRSYM    DATA     BIT       T0
      000000D0H.6 SFRSYM    DATA     BIT       AC
      000000E8H   SFRSYM    DATA     BYTE      P4
      000000B0H.5 SFRSYM    DATA     BIT       T1
      000000E6H   SFRSYM    DATA     BYTE      ISP_TRIG
      00000090H.0 SFRSYM    DATA     BIT       T2
      000000A8H.7 SFRSYM    DATA     BIT       EA
      000000A8H.6 SFRSYM    DATA     BIT       EC
      00000098H.7 SFRSYM    DATA     BIT       FE
      000000A8H   SFRSYM    DATA     BYTE      IE
      000000C8H.6 SFRSYM    DATA     BIT       EXF2
      000000B0H.7 SFRSYM    DATA     BIT       RD
      000000A8H.4 SFRSYM    DATA     BIT       ES
      000000B8H   SFRSYM    DATA     BYTE      IP
      00000098H.0 SFRSYM    DATA     BIT       RI
      000000B0H.2 SFRSYM    DATA     BIT       INT0
      000000D0H.7 SFRSYM    DATA     BIT       CY
      00000098H.1 SFRSYM    DATA     BIT       TI
      000000B0H.3 SFRSYM    DATA     BIT       INT1
      000000CBH   SFRSYM    DATA     BYTE      RCAP2H
LX51 LINKER/LOCATER V4.66.87.0                                                        04/18/2018  10:36:57  PAGE 93


      000000E5H   SFRSYM    DATA     BYTE      ISP_CMD
      000000B8H.4 SFRSYM    DATA     BIT       PS
      00000081H   SFRSYM    DATA     BYTE      SP
      00000090H.1 SFRSYM    DATA     BIT       T2EX
      000000D0H.2 SFRSYM    DATA     BIT       OV
      000000CAH   SFRSYM    DATA     BYTE      RCAP2L
      000000C8H.1 SFRSYM    DATA     BIT       C_T2
      000000B0H.6 SFRSYM    DATA     BIT       WR
      000000C8H.5 SFRSYM    DATA     BIT       RCLK
      000000C8H.4 SFRSYM    DATA     BIT       TCLK
      00000080H.0 SFRSYM    DATA     BIT       P00
      00000099H   SFRSYM    DATA     BYTE      SBUF
      00000087H   SFRSYM    DATA     BYTE      PCON
      00000090H.0 SFRSYM    DATA     BIT       P10
      00000080H.1 SFRSYM    DATA     BIT       P01
      000000A0H.0 SFRSYM    DATA     BIT       P20
      00000090H.1 SFRSYM    DATA     BIT       P11
      00000080H.2 SFRSYM    DATA     BIT       P02
      000000E3H   SFRSYM    DATA     BYTE      ISP_ADDRH
      000000B0H.0 SFRSYM    DATA     BIT       P30
      000000A0H.1 SFRSYM    DATA     BIT       P21
      00000090H.2 SFRSYM    DATA     BIT       P12
      00000080H.3 SFRSYM    DATA     BIT       P03
      00000098H   SFRSYM    DATA     BYTE      SCON
      000000B0H.1 SFRSYM    DATA     BIT       P31
      000000A0H.2 SFRSYM    DATA     BIT       P22
      00000090H.3 SFRSYM    DATA     BIT       P13
      00000080H.4 SFRSYM    DATA     BIT       P04
      000000E8H.0 SFRSYM    DATA     BIT       P40
      00000089H   SFRSYM    DATA     BYTE      TMOD
      00000088H   SFRSYM    DATA     BYTE      TCON
      000000B0H.2 SFRSYM    DATA     BIT       P32
      000000A0H.3 SFRSYM    DATA     BIT       P23
      00000090H.4 SFRSYM    DATA     BIT       P14
      00000080H.5 SFRSYM    DATA     BIT       P05
      000000E8H.1 SFRSYM    DATA     BIT       P41
      000000B0H.3 SFRSYM    DATA     BIT       P33
      000000A0H.4 SFRSYM    DATA     BIT       P24
      00000090H.5 SFRSYM    DATA     BIT       P15
      00000080H.6 SFRSYM    DATA     BIT       P06
      000000E4H   SFRSYM    DATA     BYTE      ISP_ADDRL
      000000E8H.2 SFRSYM    DATA     BIT       P42
      000000B0H.4 SFRSYM    DATA     BIT       P34
      000000A0H.5 SFRSYM    DATA     BIT       P25
      00000090H.6 SFRSYM    DATA     BIT       P16
      00000080H.7 SFRSYM    DATA     BIT       P07
      000000E8H.3 SFRSYM    DATA     BIT       P43
      000000B0H.5 SFRSYM    DATA     BIT       P35
      000000A0H.6 SFRSYM    DATA     BIT       P26
      00000090H.7 SFRSYM    DATA     BIT       P17
      000000E8H.4 SFRSYM    DATA     BIT       P44
      000000B0H.6 SFRSYM    DATA     BIT       P36
      000000A0H.7 SFRSYM    DATA     BIT       P27
      000000E8H.5 SFRSYM    DATA     BIT       P45
      000000B0H.7 SFRSYM    DATA     BIT       P37
      000000E8H.6 SFRSYM    DATA     BIT       P46
      00000088H.1 SFRSYM    DATA     BIT       IE0
      00000088H.3 SFRSYM    DATA     BIT       IE1
      0000008EH   SFRSYM    DATA     BYTE      AUXR
      000000F0H   SFRSYM    DATA     BYTE      B
      000000C8H.0 SFRSYM    DATA     BIT       CP_RL2
      000000E0H   SFRSYM    DATA     BYTE      ACC
      000000A8H.1 SFRSYM    DATA     BIT       ET0
      000000A8H.3 SFRSYM    DATA     BIT       ET1
      00000088H.5 SFRSYM    DATA     BIT       TF0
LX51 LINKER/LOCATER V4.66.87.0                                                        04/18/2018  10:36:57  PAGE 94


      000000A8H.5 SFRSYM    DATA     BIT       ET2
      00000088H.7 SFRSYM    DATA     BIT       TF1
      000000C8H.7 SFRSYM    DATA     BIT       TF2
      00000098H.2 SFRSYM    DATA     BIT       RB8
      0000008CH   SFRSYM    DATA     BYTE      TH0
      000000A8H.0 SFRSYM    DATA     BIT       EX0
      00000088H.0 SFRSYM    DATA     BIT       IT0
      0000008DH   SFRSYM    DATA     BYTE      TH1
      00000098H.3 SFRSYM    DATA     BIT       TB8
      000000A8H.2 SFRSYM    DATA     BIT       EX1
      00000088H.2 SFRSYM    DATA     BIT       IT1
      000000CDH   SFRSYM    DATA     BYTE      TH2
      000000D0H.0 SFRSYM    DATA     BIT       P
      00000098H.7 SFRSYM    DATA     BIT       SM0
      0000008AH   SFRSYM    DATA     BYTE      TL0
      00000098H.6 SFRSYM    DATA     BIT       SM1
      0000008BH   SFRSYM    DATA     BYTE      TL1
      00000098H.5 SFRSYM    DATA     BIT       SM2
      000000CCH   SFRSYM    DATA     BYTE      TL2
      000000B8H.1 SFRSYM    DATA     BIT       PT0
      000000B8H.3 SFRSYM    DATA     BIT       PT1
      000000D0H.3 SFRSYM    DATA     BIT       RS0
      000000E7H   SFRSYM    DATA     BYTE      ISP_CONTR
      000000B8H.5 SFRSYM    DATA     BIT       PT2
      00000088H.4 SFRSYM    DATA     BIT       TR0
      000000D0H.4 SFRSYM    DATA     BIT       RS1
      00000088H.6 SFRSYM    DATA     BIT       TR1
      000000C8H.2 SFRSYM    DATA     BIT       TR2
      000000B8H.0 SFRSYM    DATA     BIT       PX0
      000000E1H   SFRSYM    DATA     BYTE      WDT_CONTR
      000000B8H.2 SFRSYM    DATA     BIT       PX1
      00000083H   SFRSYM    DATA     BYTE      DPH
      00000082H   SFRSYM    DATA     BYTE      DPL
      000000B7H   SFRSYM    DATA     BYTE      IPH
      000000C8H.3 SFRSYM    DATA     BIT       EXEN2
      00000098H.4 SFRSYM    DATA     BIT       REN
      000000C9H   SFRSYM    DATA     BYTE      T2MOD
      000000C8H   SFRSYM    DATA     BYTE      T2CON
      000000E2H   SFRSYM    DATA     BYTE      ISP_DATA
      000000B9H   SFRSYM    DATA     BYTE      SADEN
      000000B0H.0 SFRSYM    DATA     BIT       RXD
      000000A9H   SFRSYM    DATA     BYTE      SADDR
      000000B0H.1 SFRSYM    DATA     BIT       TXD
      000000A2H   SFRSYM    DATA     BYTE      AUXR1
      000000D0H.5 SFRSYM    DATA     BIT       F0
      000000D0H   SFRSYM    DATA     BYTE      PSW
      020000A9H   SYMBOL    XDATA    BYTE      saved_led_index
      00000043H   SYMBOL    IDATA    BYTE      led_index
      0100CB51H   SYMBOL    CONST    ---       led_scan
      020000B0H   SYMBOL    XDATA    BYTE      saved_scan_loop_cnt
      0000004AH   SYMBOL    IDATA    BYTE      scan_loop_cnt

      01008303H   BLOCK     CODE     ---       LVL=0
      ---         BLOCKEND  ---      ---       LVL=0

      010065D6H   BLOCK     CODE     ---       LVL=0
      010065D6H   LINE      CODE     ---       #94
      010065D6H   LINE      CODE     ---       #95
      010065D6H   LINE      CODE     ---       #96
      010065D9H   LINE      CODE     ---       #98
      010065DCH   LINE      CODE     ---       #100
      010065FAH   LINE      CODE     ---       #101
      01006602H   LINE      CODE     ---       #102
      0100660DH   LINE      CODE     ---       #103
      0100660FH   LINE      CODE     ---       #107
LX51 LINKER/LOCATER V4.66.87.0                                                        04/18/2018  10:36:57  PAGE 95


      01006618H   LINE      CODE     ---       #108
      01006618H   LINE      CODE     ---       #110
      01006621H   LINE      CODE     ---       #112
      01006622H   LINE      CODE     ---       #113
      01006626H   LINE      CODE     ---       #114
      01006628H   LINE      CODE     ---       #115
      0100662FH   LINE      CODE     ---       #116
      0100662FH   LINE      CODE     ---       #117
      ---         BLOCKEND  ---      ---       LVL=0

      01007300H   BLOCK     CODE     ---       LVL=0
      01007300H   BLOCK     CODE     NEAR LAB  LVL=1
      00000004H   SYMBOL    DATA     BYTE      i
      00000002H   SYMBOL    DATA     BYTE      j
      ---         BLOCKEND  ---      ---       LVL=1
      01007300H   LINE      CODE     ---       #120
      01007300H   LINE      CODE     ---       #121
      01007300H   LINE      CODE     ---       #123
      01007309H   LINE      CODE     ---       #125
      0100730BH   LINE      CODE     ---       #126
      0100730BH   LINE      CODE     ---       #127
      0100730BH   LINE      CODE     ---       #128
      0100730BH   LINE      CODE     ---       #129
      0100730BH   LINE      CODE     ---       #131
      0100730BH   LINE      CODE     ---       #132
      0100730EH   LINE      CODE     ---       #134
      01007310H   LINE      CODE     ---       #135
      01007318H   LINE      CODE     ---       #136
      0100731AH   LINE      CODE     ---       #137
      0100731CH   LINE      CODE     ---       #138
      0100731EH   LINE      CODE     ---       #139
      01007320H   LINE      CODE     ---       #140
      01007322H   LINE      CODE     ---       #141
      01007324H   LINE      CODE     ---       #142
      01007327H   LINE      CODE     ---       #143
      0100732CH   LINE      CODE     ---       #144
      01007331H   LINE      CODE     ---       #145
      01007336H   LINE      CODE     ---       #147
      01007336H   LINE      CODE     ---       #148
      01007336H   LINE      CODE     ---       #149
      01007336H   LINE      CODE     ---       #150
      01007336H   LINE      CODE     ---       #152
      01007336H   LINE      CODE     ---       #153
      01007339H   LINE      CODE     ---       #154
      ---         BLOCKEND  ---      ---       LVL=0

      01008A32H   BLOCK     CODE     ---       LVL=0
      01008A32H   LINE      CODE     ---       #156
      01008A32H   LINE      CODE     ---       #157
      01008A32H   LINE      CODE     ---       #158
      01008A36H   LINE      CODE     ---       #159
      ---         BLOCKEND  ---      ---       LVL=0

      010086F9H   BLOCK     CODE     ---       LVL=0
      00000007H   SYMBOL    DATA     BYTE      i
      010086F9H   LINE      CODE     ---       #162
      010086F9H   LINE      CODE     ---       #163
      010086F9H   LINE      CODE     ---       #164
      010086FFH   LINE      CODE     ---       #165
      0100870EH   LINE      CODE     ---       #166
      0100870EH   LINE      CODE     ---       #167
      ---         BLOCKEND  ---      ---       LVL=0

      01008601H   BLOCK     CODE     ---       LVL=0
      00000007H   SYMBOL    DATA     BYTE      i
LX51 LINKER/LOCATER V4.66.87.0                                                        04/18/2018  10:36:57  PAGE 96


      01008601H   LINE      CODE     ---       #169
      01008601H   LINE      CODE     ---       #170
      01008601H   LINE      CODE     ---       #171
      01008607H   LINE      CODE     ---       #172
      01008617H   LINE      CODE     ---       #173
      01008617H   LINE      CODE     ---       #174
      ---         BLOCKEND  ---      ---       LVL=0

      01008B25H   BLOCK     CODE     ---       LVL=0
      00000007H   SYMBOL    DATA     BYTE      i
      01008B25H   LINE      CODE     ---       #176
      01008B25H   LINE      CODE     ---       #177
      01008B25H   LINE      CODE     ---       #178
      01008B2BH   LINE      CODE     ---       #179
      01008B33H   LINE      CODE     ---       #180
      01008B33H   LINE      CODE     ---       #181
      ---         BLOCKEND  ---      ---       LVL=0

      01008B34H   BLOCK     CODE     ---       LVL=0
      00000007H   SYMBOL    DATA     BYTE      i
      01008B34H   LINE      CODE     ---       #183
      01008B34H   LINE      CODE     ---       #184
      01008B34H   LINE      CODE     ---       #185
      01008B3AH   LINE      CODE     ---       #186
      01008B42H   LINE      CODE     ---       #187
      01008B42H   LINE      CODE     ---       #188
      ---         BLOCKEND  ---      ---       LVL=0

      01006AC8H   BLOCK     CODE     ---       LVL=0
      00000007H   SYMBOL    DATA     BYTE      i
      00000005H   SYMBOL    DATA     CHAR      c
      01006AC8H   LINE      CODE     ---       #192
      01006AC8H   LINE      CODE     ---       #193
      01006AC8H   LINE      CODE     ---       #194
      01006ACEH   LINE      CODE     ---       #195
      01006AD6H   LINE      CODE     ---       #196
      01006AD9H   LINE      CODE     ---       #197
      01006AE4H   LINE      CODE     ---       #198
      01006AE5H   LINE      CODE     ---       #199
      01006AF5H   LINE      CODE     ---       #200
      01006B0EH   LINE      CODE     ---       #201
      01006B0FH   LINE      CODE     ---       #202
      01006B17H   LINE      CODE     ---       #203
      01006B17H   LINE      CODE     ---       #204
      01006B17H   LINE      CODE     ---       #205
      ---         BLOCKEND  ---      ---       LVL=0

      01008A43H   BLOCK     CODE     ---       LVL=0
      01008A43H   LINE      CODE     ---       #207
      01008A43H   LINE      CODE     ---       #208
      01008A43H   LINE      CODE     ---       #209
      01008A4CH   LINE      CODE     ---       #211
      01008A4EH   LINE      CODE     ---       #213
      01008A4EH   LINE      CODE     ---       #214
      01008A51H   LINE      CODE     ---       #215
      ---         BLOCKEND  ---      ---       LVL=0

      010087A8H   BLOCK     CODE     ---       LVL=0
      010087A8H   LINE      CODE     ---       #218
      010087A8H   LINE      CODE     ---       #219
      010087A8H   LINE      CODE     ---       #220
      010087B1H   LINE      CODE     ---       #222
      010087B4H   LINE      CODE     ---       #223
      010087B7H   LINE      CODE     ---       #224
      010087BAH   LINE      CODE     ---       #226
LX51 LINKER/LOCATER V4.66.87.0                                                        04/18/2018  10:36:57  PAGE 97


      010087BCH   LINE      CODE     ---       #227
      ---         BLOCKEND  ---      ---       LVL=0

      01007E26H   BLOCK     CODE     ---       LVL=0
      01007E26H   LINE      CODE     ---       #229
      01007E26H   LINE      CODE     ---       #230
      01007E26H   LINE      CODE     ---       #231
      01007E39H   LINE      CODE     ---       #232
      01007E40H   LINE      CODE     ---       #233
      01007E44H   LINE      CODE     ---       #234
      01007E4BH   LINE      CODE     ---       #235
      ---         BLOCKEND  ---      ---       LVL=0

      01007E4CH   BLOCK     CODE     ---       LVL=0
      01007E4CH   LINE      CODE     ---       #237
      01007E4CH   LINE      CODE     ---       #238
      01007E4CH   LINE      CODE     ---       #239
      01007E5FH   LINE      CODE     ---       #240
      01007E66H   LINE      CODE     ---       #241
      01007E6AH   LINE      CODE     ---       #242
      01007E71H   LINE      CODE     ---       #243
      ---         BLOCKEND  ---      ---       LVL=0

      ---         MODULE    ---      ---       ALARM
      010077F5H   PUBLIC    CODE     ---       alarm1_sync_to_rtc
      00000020H.0 PUBLIC    BIT      BIT       ?alarm1_set_enable?BIT
      01008F22H   PUBLIC    CODE     ---       alarm1_set_enable
      01008F85H   PUBLIC    CODE     ---       alarm1_test_enable
      010068E5H   PUBLIC    CODE     ---       alarm0_sync_to_rtc
      01008BD7H   PUBLIC    CODE     ---       alarm0_inc_hour
      01008EDAH   PUBLIC    CODE     ---       alarm0_get_hour
      01008BC9H   PUBLIC    CODE     ---       alarm0_inc_min
      01008ED4H   PUBLIC    CODE     ---       alarm0_get_min
      00000020H.0 PUBLIC    BIT      BIT       ?alarm0_set_hour_12?BIT
      01000026H   PUBLIC    CODE     ---       alarm0_set_hour_12
      01008F82H   PUBLIC    CODE     ---       alarm0_get_hour_12
      01008ECEH   PUBLIC    CODE     ---       alarm0_get_day_mask
      00000020H.0 PUBLIC    BIT      BIT       ?_alarm0_set_enable?BIT
      0100633CH   PUBLIC    CODE     ---       _alarm0_set_enable
      01007A72H   PUBLIC    CODE     ---       _alarm0_test_enable
      01008DAEH   PUBLIC    CODE     ---       alarm_leave_powersave
      01008DA5H   PUBLIC    CODE     ---       alarm_enter_powersave
      01006274H   PUBLIC    CODE     ---       alarm_dump
      01008137H   PUBLIC    CODE     ---       alarm_switch_off
      01008B52H   PUBLIC    CODE     ---       alarm_switch_on
      01008B43H   PUBLIC    CODE     ---       alarm_initialize
      01005CE3H   PUBLIC    CODE     ---       scan_alarm
      01007C0AH   PUBLIC    CODE     ---       _alarm_proc
      00000023H.6 SYMBOL    BIT      BIT       alarm1_enable
      020000C2H   SYMBOL    XDATA    ---       alarm0
      010077C2H   SYMBOL    CODE     ---       alarm_load_rom
      010076F2H   SYMBOL    CODE     ---       alarm_save_rom
      00000023H.7 SYMBOL    BIT      BIT       alarm0_is12

      010087BDH   BLOCK     CODE     ---       LVL=0
      ---         BLOCKEND  ---      ---       LVL=0

      01007C0AH   BLOCK     CODE     ---       LVL=0
      0200000CH   SYMBOL    XDATA    BYTE      ev
      01007C0AH   LINE      CODE     ---       #15
      01007C0FH   LINE      CODE     ---       #16
      01007C0FH   LINE      CODE     ---       #18
      01007C12H   LINE      CODE     ---       #19
      01007C1BH   LINE      CODE     ---       #20
      01007C20H   LINE      CODE     ---       #21
LX51 LINKER/LOCATER V4.66.87.0                                                        04/18/2018  10:36:57  PAGE 98


      01007C20H   LINE      CODE     ---       #23
      01007C27H   LINE      CODE     ---       #24
      01007C30H   LINE      CODE     ---       #25
      01007C35H   LINE      CODE     ---       #26
      01007C35H   LINE      CODE     ---       #27
      ---         BLOCKEND  ---      ---       LVL=0

      01005CE3H   BLOCK     CODE     ---       LVL=0
      01005CE3H   BLOCK     CODE     NEAR LAB  LVL=1
      00000020H.0 SYMBOL    BIT      BIT       alarm0_hit
      00000020H.1 SYMBOL    BIT      BIT       alarm1_hit
      ---         BLOCKEND  ---      ---       LVL=1
      01005CE3H   LINE      CODE     ---       #29
      01005CE3H   LINE      CODE     ---       #30
      01005CE3H   LINE      CODE     ---       #33
      01005CE8H   LINE      CODE     ---       #34
      01005CEFH   LINE      CODE     ---       #35
      01005CF5H   LINE      CODE     ---       #36
      01005CF9H   LINE      CODE     ---       #37
      01005CFDH   LINE      CODE     ---       #38
      01005D02H   LINE      CODE     ---       #40
      01005D05H   LINE      CODE     ---       #41
      01005D1FH   LINE      CODE     ---       #42
      01005D24H   LINE      CODE     ---       #43
      01005D27H   LINE      CODE     ---       #44
      01005D27H   LINE      CODE     ---       #45
      01005D30H   LINE      CODE     ---       #46
      01005D33H   LINE      CODE     ---       #47
      01005D35H   LINE      CODE     ---       #48
      01005D35H   LINE      CODE     ---       #49
      01005D35H   LINE      CODE     ---       #50
      01005D35H   LINE      CODE     ---       #53
      01005D38H   LINE      CODE     ---       #54
      01005D3DH   LINE      CODE     ---       #55
      01005D49H   LINE      CODE     ---       #56
      01005D49H   LINE      CODE     ---       #57
      01005D4EH   LINE      CODE     ---       #58
      01005D51H   LINE      CODE     ---       #59
      01005D51H   LINE      CODE     ---       #60
      01005D5AH   LINE      CODE     ---       #61
      01005D5AH   LINE      CODE     ---       #62
      01005D5AH   LINE      CODE     ---       #63
      ---         BLOCKEND  ---      ---       LVL=0

      010077C2H   BLOCK     CODE     ---       LVL=0
      010077C2H   LINE      CODE     ---       #65
      010077C2H   LINE      CODE     ---       #66
      010077C2H   LINE      CODE     ---       #67
      010077CCH   LINE      CODE     ---       #68
      010077D6H   LINE      CODE     ---       #69
      010077E0H   LINE      CODE     ---       #70
      010077EAH   LINE      CODE     ---       #71
      010077F4H   LINE      CODE     ---       #72
      ---         BLOCKEND  ---      ---       LVL=0

      010076F2H   BLOCK     CODE     ---       LVL=0
      010076F2H   LINE      CODE     ---       #74
      010076F2H   LINE      CODE     ---       #75
      010076F2H   LINE      CODE     ---       #76
      010076FCH   LINE      CODE     ---       #77
      01007706H   LINE      CODE     ---       #78
      01007710H   LINE      CODE     ---       #79
      0100771CH   LINE      CODE     ---       #80
      ---         BLOCKEND  ---      ---       LVL=0

LX51 LINKER/LOCATER V4.66.87.0                                                        04/18/2018  10:36:57  PAGE 99


      01008B43H   BLOCK     CODE     ---       LVL=0
      01008B43H   LINE      CODE     ---       #83
      01008B43H   LINE      CODE     ---       #84
      01008B43H   LINE      CODE     ---       #85
      01008B4CH   LINE      CODE     ---       #87
      01008B4FH   LINE      CODE     ---       #88
      ---         BLOCKEND  ---      ---       LVL=0

      01008B52H   BLOCK     CODE     ---       LVL=0
      01008B52H   LINE      CODE     ---       #91
      01008B52H   LINE      CODE     ---       #92
      01008B52H   LINE      CODE     ---       #93
      01008B5BH   LINE      CODE     ---       #94
      01008B5EH   LINE      CODE     ---       #95
      ---         BLOCKEND  ---      ---       LVL=0

      01008137H   BLOCK     CODE     ---       LVL=0
      01008137H   LINE      CODE     ---       #98
      01008137H   LINE      CODE     ---       #99
      01008137H   LINE      CODE     ---       #100
      01008140H   LINE      CODE     ---       #101
      01008145H   LINE      CODE     ---       #102
      0100814CH   LINE      CODE     ---       #103
      01008152H   LINE      CODE     ---       #104
      ---         BLOCKEND  ---      ---       LVL=0

      01006274H   BLOCK     CODE     ---       LVL=0
      01006274H   LINE      CODE     ---       #107
      01006274H   LINE      CODE     ---       #108
      01006274H   LINE      CODE     ---       #109
      0100627EH   LINE      CODE     ---       #110
      01006288H   LINE      CODE     ---       #111
      01006292H   LINE      CODE     ---       #112
      010062B0H   LINE      CODE     ---       #113
      010062CEH   LINE      CODE     ---       #114
      ---         BLOCKEND  ---      ---       LVL=0

      01008DA5H   BLOCK     CODE     ---       LVL=0
      01008DA5H   LINE      CODE     ---       #116
      01008DA5H   LINE      CODE     ---       #117
      01008DA5H   LINE      CODE     ---       #118
      ---         BLOCKEND  ---      ---       LVL=0

      01008DAEH   BLOCK     CODE     ---       LVL=0
      01008DAEH   LINE      CODE     ---       #121
      01008DAEH   LINE      CODE     ---       #122
      01008DAEH   LINE      CODE     ---       #123
      ---         BLOCKEND  ---      ---       LVL=0

      01007A72H   BLOCK     CODE     ---       LVL=0
      02000019H   SYMBOL    XDATA    BYTE      day
      01007A72H   LINE      CODE     ---       #127
      01007A77H   LINE      CODE     ---       #128
      01007A77H   LINE      CODE     ---       #129
      01007A84H   LINE      CODE     ---       #130
      01007AA0H   LINE      CODE     ---       #131
      ---         BLOCKEND  ---      ---       LVL=0

      0100633CH   BLOCK     CODE     ---       LVL=0
      02000015H   SYMBOL    XDATA    BYTE      day
      00000020H.0 SYMBOL    BIT      BIT       enable
      0100633CH   LINE      CODE     ---       #134
      01006341H   LINE      CODE     ---       #135
      01006341H   LINE      CODE     ---       #136
      01006363H   LINE      CODE     ---       #137
LX51 LINKER/LOCATER V4.66.87.0                                                        04/18/2018  10:36:57  PAGE 100


      01006378H   LINE      CODE     ---       #138
      01006384H   LINE      CODE     ---       #139
      01006387H   LINE      CODE     ---       #140
      01006389H   LINE      CODE     ---       #141
      01006391H   LINE      CODE     ---       #142
      01006391H   LINE      CODE     ---       #143
      ---         BLOCKEND  ---      ---       LVL=0

      01008ECEH   BLOCK     CODE     ---       LVL=0
      01008ECEH   LINE      CODE     ---       #147
      01008ECEH   LINE      CODE     ---       #148
      01008ECEH   LINE      CODE     ---       #149
      01008ED3H   LINE      CODE     ---       #150
      ---         BLOCKEND  ---      ---       LVL=0

      01008F82H   BLOCK     CODE     ---       LVL=0
      01008F82H   LINE      CODE     ---       #152
      01008F82H   LINE      CODE     ---       #153
      01008F82H   LINE      CODE     ---       #154
      01008F84H   LINE      CODE     ---       #155
      ---         BLOCKEND  ---      ---       LVL=0

      01000026H   BLOCK     CODE     ---       LVL=0
      00000020H.0 SYMBOL    BIT      BIT       enable
      01000026H   LINE      CODE     ---       #157
      01000026H   LINE      CODE     ---       #158
      01000026H   LINE      CODE     ---       #159
      0100002AH   LINE      CODE     ---       #160
      ---         BLOCKEND  ---      ---       LVL=0

      01008ED4H   BLOCK     CODE     ---       LVL=0
      01008ED4H   LINE      CODE     ---       #163
      01008ED4H   LINE      CODE     ---       #164
      01008ED4H   LINE      CODE     ---       #165
      01008ED9H   LINE      CODE     ---       #166
      ---         BLOCKEND  ---      ---       LVL=0

      01008BC9H   BLOCK     CODE     ---       LVL=0
      01008BC9H   LINE      CODE     ---       #168
      01008BC9H   LINE      CODE     ---       #169
      01008BC9H   LINE      CODE     ---       #170
      01008BD6H   LINE      CODE     ---       #171
      ---         BLOCKEND  ---      ---       LVL=0

      01008EDAH   BLOCK     CODE     ---       LVL=0
      01008EDAH   LINE      CODE     ---       #173
      01008EDAH   LINE      CODE     ---       #174
      01008EDAH   LINE      CODE     ---       #175
      01008EDFH   LINE      CODE     ---       #176
      ---         BLOCKEND  ---      ---       LVL=0

      01008BD7H   BLOCK     CODE     ---       LVL=0
      01008BD7H   LINE      CODE     ---       #178
      01008BD7H   LINE      CODE     ---       #179
      01008BD7H   LINE      CODE     ---       #180
      01008BE4H   LINE      CODE     ---       #181
      ---         BLOCKEND  ---      ---       LVL=0

      010068E5H   BLOCK     CODE     ---       LVL=0
      010068E5H   LINE      CODE     ---       #183
      010068E5H   LINE      CODE     ---       #184
      010068E5H   LINE      CODE     ---       #185
      010068EEH   LINE      CODE     ---       #186
      010068F3H   LINE      CODE     ---       #187
      010068F8H   LINE      CODE     ---       #188
LX51 LINKER/LOCATER V4.66.87.0                                                        04/18/2018  10:36:57  PAGE 101


      01006900H   LINE      CODE     ---       #189
      01006908H   LINE      CODE     ---       #190
      0100690DH   LINE      CODE     ---       #191
      01006914H   LINE      CODE     ---       #192
      01006919H   LINE      CODE     ---       #194
      0100691EH   LINE      CODE     ---       #195
      0100692DH   LINE      CODE     ---       #196
      01006931H   LINE      CODE     ---       #197
      ---         BLOCKEND  ---      ---       LVL=0

      01008F85H   BLOCK     CODE     ---       LVL=0
      01008F85H   LINE      CODE     ---       #200
      01008F85H   LINE      CODE     ---       #201
      01008F85H   LINE      CODE     ---       #202
      01008F87H   LINE      CODE     ---       #203
      ---         BLOCKEND  ---      ---       LVL=0

      01008F22H   BLOCK     CODE     ---       LVL=0
      00000020H.0 SYMBOL    BIT      BIT       enable
      01008F22H   LINE      CODE     ---       #205
      01008F22H   LINE      CODE     ---       #206
      01008F22H   LINE      CODE     ---       #207
      01008F26H   LINE      CODE     ---       #208
      ---         BLOCKEND  ---      ---       LVL=0

      010077F5H   BLOCK     CODE     ---       LVL=0
      010077F5H   LINE      CODE     ---       #210
      010077F5H   LINE      CODE     ---       #211
      010077F5H   LINE      CODE     ---       #212
      010077FEH   LINE      CODE     ---       #213
      01007803H   LINE      CODE     ---       #214
      01007808H   LINE      CODE     ---       #215
      0100780DH   LINE      CODE     ---       #216
      01007812H   LINE      CODE     ---       #218
      01007817H   LINE      CODE     ---       #219
      01007820H   LINE      CODE     ---       #220
      01007823H   LINE      CODE     ---       #221
      ---         BLOCKEND  ---      ---       LVL=0

      ---         MODULE    ---      ---       POWER
      00000024H.6 PUBLIC    BIT      BIT       powersave_flag
      01008DB7H   PUBLIC    CODE     ---       power_reset_powersave_to
      01008F8EH   PUBLIC    CODE     ---       power_clr_flag
      01008F8BH   PUBLIC    CODE     ---       power_set_flag
      01008F88H   PUBLIC    CODE     ---       power_test_flag
      01007984H   PUBLIC    CODE     ---       power_test_powersave_to
      01007F52H   PUBLIC    CODE     ---       power_inc_powersave_to
      01008618H   PUBLIC    CODE     ---       power_get_powersave_to
      01008EE0H   PUBLIC    CODE     ---       power_get_powersave_to_s
      01007954H   PUBLIC    CODE     ---       power_leave_powersave
      01006DB9H   PUBLIC    CODE     ---       power_enter_powersave
      010083DFH   PUBLIC    CODE     ---       _power_proc
      010078F2H   PUBLIC    CODE     ---       power_initialize
      00000080H   SFRSYM    DATA     BYTE      P0
      00000090H   SFRSYM    DATA     BYTE      P1
      000000A0H   SFRSYM    DATA     BYTE      P2
      000000B0H   SFRSYM    DATA     BYTE      P3
      000000C0H   SFRSYM    DATA     BYTE      XICON
      000000B0H.4 SFRSYM    DATA     BIT       T0
      000000D0H.6 SFRSYM    DATA     BIT       AC
      000000E8H   SFRSYM    DATA     BYTE      P4
      000000B0H.5 SFRSYM    DATA     BIT       T1
      000000E6H   SFRSYM    DATA     BYTE      ISP_TRIG
      00000090H.0 SFRSYM    DATA     BIT       T2
      000000A8H.7 SFRSYM    DATA     BIT       EA
LX51 LINKER/LOCATER V4.66.87.0                                                        04/18/2018  10:36:57  PAGE 102


      000000A8H.6 SFRSYM    DATA     BIT       EC
      00000098H.7 SFRSYM    DATA     BIT       FE
      000000A8H   SFRSYM    DATA     BYTE      IE
      000000C8H.6 SFRSYM    DATA     BIT       EXF2
      000000B0H.7 SFRSYM    DATA     BIT       RD
      000000A8H.4 SFRSYM    DATA     BIT       ES
      000000B8H   SFRSYM    DATA     BYTE      IP
      00000098H.0 SFRSYM    DATA     BIT       RI
      000000B0H.2 SFRSYM    DATA     BIT       INT0
      000000D0H.7 SFRSYM    DATA     BIT       CY
      00000098H.1 SFRSYM    DATA     BIT       TI
      000000B0H.3 SFRSYM    DATA     BIT       INT1
      000000CBH   SFRSYM    DATA     BYTE      RCAP2H
      000000E5H   SFRSYM    DATA     BYTE      ISP_CMD
      000000B8H.4 SFRSYM    DATA     BIT       PS
      00000081H   SFRSYM    DATA     BYTE      SP
      00000090H.1 SFRSYM    DATA     BIT       T2EX
      000000D0H.2 SFRSYM    DATA     BIT       OV
      000000CAH   SFRSYM    DATA     BYTE      RCAP2L
      000000C8H.1 SFRSYM    DATA     BIT       C_T2
      000000B0H.6 SFRSYM    DATA     BIT       WR
      000000C8H.5 SFRSYM    DATA     BIT       RCLK
      000000C8H.4 SFRSYM    DATA     BIT       TCLK
      00000080H.0 SFRSYM    DATA     BIT       P00
      00000099H   SFRSYM    DATA     BYTE      SBUF
      00000087H   SFRSYM    DATA     BYTE      PCON
      00000090H.0 SFRSYM    DATA     BIT       P10
      00000080H.1 SFRSYM    DATA     BIT       P01
      000000A0H.0 SFRSYM    DATA     BIT       P20
      00000090H.1 SFRSYM    DATA     BIT       P11
      00000080H.2 SFRSYM    DATA     BIT       P02
      000000E3H   SFRSYM    DATA     BYTE      ISP_ADDRH
      000000B0H.0 SFRSYM    DATA     BIT       P30
      000000A0H.1 SFRSYM    DATA     BIT       P21
      00000090H.2 SFRSYM    DATA     BIT       P12
      00000080H.3 SFRSYM    DATA     BIT       P03
      00000098H   SFRSYM    DATA     BYTE      SCON
      000000B0H.1 SFRSYM    DATA     BIT       P31
      000000A0H.2 SFRSYM    DATA     BIT       P22
      00000090H.3 SFRSYM    DATA     BIT       P13
      00000080H.4 SFRSYM    DATA     BIT       P04
      000000E8H.0 SFRSYM    DATA     BIT       P40
      00000089H   SFRSYM    DATA     BYTE      TMOD
      00000088H   SFRSYM    DATA     BYTE      TCON
      000000B0H.2 SFRSYM    DATA     BIT       P32
      000000A0H.3 SFRSYM    DATA     BIT       P23
      00000090H.4 SFRSYM    DATA     BIT       P14
      00000080H.5 SFRSYM    DATA     BIT       P05
      000000E8H.1 SFRSYM    DATA     BIT       P41
      000000B0H.3 SFRSYM    DATA     BIT       P33
      000000A0H.4 SFRSYM    DATA     BIT       P24
      00000090H.5 SFRSYM    DATA     BIT       P15
      00000080H.6 SFRSYM    DATA     BIT       P06
      000000E4H   SFRSYM    DATA     BYTE      ISP_ADDRL
      000000E8H.2 SFRSYM    DATA     BIT       P42
      000000B0H.4 SFRSYM    DATA     BIT       P34
      000000A0H.5 SFRSYM    DATA     BIT       P25
      00000090H.6 SFRSYM    DATA     BIT       P16
      00000080H.7 SFRSYM    DATA     BIT       P07
      000000E8H.3 SFRSYM    DATA     BIT       P43
      000000B0H.5 SFRSYM    DATA     BIT       P35
      000000A0H.6 SFRSYM    DATA     BIT       P26
      00000090H.7 SFRSYM    DATA     BIT       P17
      000000E8H.4 SFRSYM    DATA     BIT       P44
      000000B0H.6 SFRSYM    DATA     BIT       P36
LX51 LINKER/LOCATER V4.66.87.0                                                        04/18/2018  10:36:57  PAGE 103


      000000A0H.7 SFRSYM    DATA     BIT       P27
      000000E8H.5 SFRSYM    DATA     BIT       P45
      000000B0H.7 SFRSYM    DATA     BIT       P37
      000000E8H.6 SFRSYM    DATA     BIT       P46
      00000088H.1 SFRSYM    DATA     BIT       IE0
      00000088H.3 SFRSYM    DATA     BIT       IE1
      0000008EH   SFRSYM    DATA     BYTE      AUXR
      000000F0H   SFRSYM    DATA     BYTE      B
      000000C8H.0 SFRSYM    DATA     BIT       CP_RL2
      000000E0H   SFRSYM    DATA     BYTE      ACC
      000000A8H.1 SFRSYM    DATA     BIT       ET0
      000000A8H.3 SFRSYM    DATA     BIT       ET1
      00000088H.5 SFRSYM    DATA     BIT       TF0
      000000A8H.5 SFRSYM    DATA     BIT       ET2
      00000088H.7 SFRSYM    DATA     BIT       TF1
      000000C8H.7 SFRSYM    DATA     BIT       TF2
      00000098H.2 SFRSYM    DATA     BIT       RB8
      0000008CH   SFRSYM    DATA     BYTE      TH0
      000000A8H.0 SFRSYM    DATA     BIT       EX0
      00000088H.0 SFRSYM    DATA     BIT       IT0
      0000008DH   SFRSYM    DATA     BYTE      TH1
      00000098H.3 SFRSYM    DATA     BIT       TB8
      000000A8H.2 SFRSYM    DATA     BIT       EX1
      00000088H.2 SFRSYM    DATA     BIT       IT1
      000000CDH   SFRSYM    DATA     BYTE      TH2
      000000D0H.0 SFRSYM    DATA     BIT       P
      00000098H.7 SFRSYM    DATA     BIT       SM0
      0000008AH   SFRSYM    DATA     BYTE      TL0
      00000098H.6 SFRSYM    DATA     BIT       SM1
      0000008BH   SFRSYM    DATA     BYTE      TL1
      00000098H.5 SFRSYM    DATA     BIT       SM2
      000000CCH   SFRSYM    DATA     BYTE      TL2
      000000B8H.1 SFRSYM    DATA     BIT       PT0
      000000B8H.3 SFRSYM    DATA     BIT       PT1
      000000D0H.3 SFRSYM    DATA     BIT       RS0
      000000E7H   SFRSYM    DATA     BYTE      ISP_CONTR
      000000B8H.5 SFRSYM    DATA     BIT       PT2
      00000088H.4 SFRSYM    DATA     BIT       TR0
      000000D0H.4 SFRSYM    DATA     BIT       RS1
      00000088H.6 SFRSYM    DATA     BIT       TR1
      000000C8H.2 SFRSYM    DATA     BIT       TR2
      000000B8H.0 SFRSYM    DATA     BIT       PX0
      000000E1H   SFRSYM    DATA     BYTE      WDT_CONTR
      000000B8H.2 SFRSYM    DATA     BIT       PX1
      00000083H   SFRSYM    DATA     BYTE      DPH
      00000082H   SFRSYM    DATA     BYTE      DPL
      000000B7H   SFRSYM    DATA     BYTE      IPH
      000000C8H.3 SFRSYM    DATA     BIT       EXEN2
      00000098H.4 SFRSYM    DATA     BIT       REN
      000000C9H   SFRSYM    DATA     BYTE      T2MOD
      000000C8H   SFRSYM    DATA     BYTE      T2CON
      000000E2H   SFRSYM    DATA     BYTE      ISP_DATA
      000000B9H   SFRSYM    DATA     BYTE      SADEN
      000000B0H.0 SFRSYM    DATA     BIT       RXD
      000000A9H   SFRSYM    DATA     BYTE      SADDR
      000000B0H.1 SFRSYM    DATA     BIT       TXD
      000000A2H   SFRSYM    DATA     BYTE      AUXR1
      000000D0H.5 SFRSYM    DATA     BIT       F0
      000000D0H   SFRSYM    DATA     BYTE      PSW
      020000CDH   SYMBOL    XDATA    BYTE      last_ps_s
      020000CEH   SYMBOL    XDATA    BYTE      powersave_to_s

      010078F2H   BLOCK     CODE     ---       LVL=0
      010078F2H   BLOCK     CODE     NEAR LAB  LVL=1
      00000007H   SYMBOL    DATA     BYTE      powersave_to
LX51 LINKER/LOCATER V4.66.87.0                                                        04/18/2018  10:36:57  PAGE 104


      ---         BLOCKEND  ---      ---       LVL=1
      010078F2H   LINE      CODE     ---       #29
      010078F2H   LINE      CODE     ---       #30
      010078F2H   LINE      CODE     ---       #32
      010078FBH   LINE      CODE     ---       #33
      01007900H   LINE      CODE     ---       #34
      0100790BH   LINE      CODE     ---       #35
      01007912H   LINE      CODE     ---       #36
      0100791AH   LINE      CODE     ---       #37
      01007920H   LINE      CODE     ---       #38
      01007920H   LINE      CODE     ---       #39
      01007922H   LINE      CODE     ---       #40
      ---         BLOCKEND  ---      ---       LVL=0

      010083DFH   BLOCK     CODE     ---       LVL=0
      0200000CH   SYMBOL    XDATA    BYTE      ev
      010083DFH   LINE      CODE     ---       #42
      010083E4H   LINE      CODE     ---       #43
      010083E4H   LINE      CODE     ---       #44
      010083F1H   LINE      CODE     ---       #45
      ---         BLOCKEND  ---      ---       LVL=0

      01006DB9H   BLOCK     CODE     ---       LVL=0
      01006DB9H   LINE      CODE     ---       #48
      01006DB9H   LINE      CODE     ---       #49
      01006DB9H   LINE      CODE     ---       #50
      01006DC2H   LINE      CODE     ---       #51
      01006DC4H   LINE      CODE     ---       #52
      01006DC7H   LINE      CODE     ---       #53
      01006DCAH   LINE      CODE     ---       #54
      01006DCDH   LINE      CODE     ---       #55
      01006DD0H   LINE      CODE     ---       #56
      01006DD3H   LINE      CODE     ---       #57
      01006DD6H   LINE      CODE     ---       #58
      01006DD9H   LINE      CODE     ---       #59
      01006DDCH   LINE      CODE     ---       #60
      01006DDFH   LINE      CODE     ---       #61
      01006DE2H   LINE      CODE     ---       #62
      01006DE5H   LINE      CODE     ---       #63
      01006DE8H   LINE      CODE     ---       #64
      01006DEBH   LINE      CODE     ---       #65
      01006DEEH   LINE      CODE     ---       #70
      01006DF1H   LINE      CODE     ---       #72
      01006DF4H   LINE      CODE     ---       #73
      01006DF9H   LINE      CODE     ---       #74
      01006DFCH   LINE      CODE     ---       #75
      01006DFFH   LINE      CODE     ---       #76
      01006DFFH   LINE      CODE     ---       #77
      01006DFFH   LINE      CODE     ---       #78
      01006DFFH   LINE      CODE     ---       #79
      ---         BLOCKEND  ---      ---       LVL=0

      01007954H   BLOCK     CODE     ---       LVL=0
      01007954H   LINE      CODE     ---       #81
      01007954H   LINE      CODE     ---       #82
      01007954H   LINE      CODE     ---       #84
      01007957H   LINE      CODE     ---       #85
      0100795AH   LINE      CODE     ---       #86
      0100795DH   LINE      CODE     ---       #87
      01007960H   LINE      CODE     ---       #88
      01007963H   LINE      CODE     ---       #89
      01007966H   LINE      CODE     ---       #90
      01007969H   LINE      CODE     ---       #91
      0100796CH   LINE      CODE     ---       #92
      0100796FH   LINE      CODE     ---       #93
LX51 LINKER/LOCATER V4.66.87.0                                                        04/18/2018  10:36:57  PAGE 105


      01007972H   LINE      CODE     ---       #94
      01007975H   LINE      CODE     ---       #95
      01007978H   LINE      CODE     ---       #96
      0100797BH   LINE      CODE     ---       #97
      ---         BLOCKEND  ---      ---       LVL=0

      01008EE0H   BLOCK     CODE     ---       LVL=0
      01008EE0H   LINE      CODE     ---       #100
      01008EE0H   LINE      CODE     ---       #101
      01008EE0H   LINE      CODE     ---       #102
      01008EE5H   LINE      CODE     ---       #103
      ---         BLOCKEND  ---      ---       LVL=0

      01008618H   BLOCK     CODE     ---       LVL=0
      01008618H   LINE      CODE     ---       #105
      01008618H   LINE      CODE     ---       #106
      01008618H   LINE      CODE     ---       #107
      01008626H   LINE      CODE     ---       #108
      01008629H   LINE      CODE     ---       #109
      0100862CH   LINE      CODE     ---       #110
      0100862FH   LINE      CODE     ---       #111
      ---         BLOCKEND  ---      ---       LVL=0

      01007F52H   BLOCK     CODE     ---       LVL=0
      01007F52H   LINE      CODE     ---       #115
      01007F52H   LINE      CODE     ---       #116
      01007F52H   LINE      CODE     ---       #117
      01007F62H   LINE      CODE     ---       #118
      01007F62H   LINE      CODE     ---       #119
      01007F69H   LINE      CODE     ---       #120
      01007F69H   LINE      CODE     ---       #121
      01007F70H   LINE      CODE     ---       #122
      01007F70H   LINE      CODE     ---       #123
      01007F75H   LINE      CODE     ---       #124
      01007F75H   LINE      CODE     ---       #125
      ---         BLOCKEND  ---      ---       LVL=0

      01007984H   BLOCK     CODE     ---       LVL=0
      01007984H   LINE      CODE     ---       #127
      01007984H   LINE      CODE     ---       #128
      01007984H   LINE      CODE     ---       #130
      0100799EH   LINE      CODE     ---       #131
      010079A7H   LINE      CODE     ---       #132
      010079B0H   LINE      CODE     ---       #133
      010079B2H   LINE      CODE     ---       #134
      010079B2H   LINE      CODE     ---       #135
      010079B3H   LINE      CODE     ---       #136
      ---         BLOCKEND  ---      ---       LVL=0

      01008F88H   BLOCK     CODE     ---       LVL=0
      01008F88H   LINE      CODE     ---       #138
      01008F88H   LINE      CODE     ---       #139
      01008F88H   LINE      CODE     ---       #140
      01008F8AH   LINE      CODE     ---       #141
      ---         BLOCKEND  ---      ---       LVL=0

      01008F8BH   BLOCK     CODE     ---       LVL=0
      01008F8BH   LINE      CODE     ---       #143
      01008F8BH   LINE      CODE     ---       #144
      01008F8BH   LINE      CODE     ---       #145
      01008F8DH   LINE      CODE     ---       #146
      ---         BLOCKEND  ---      ---       LVL=0

      01008F8EH   BLOCK     CODE     ---       LVL=0
      01008F8EH   LINE      CODE     ---       #148
LX51 LINKER/LOCATER V4.66.87.0                                                        04/18/2018  10:36:57  PAGE 106


      01008F8EH   LINE      CODE     ---       #149
      01008F8EH   LINE      CODE     ---       #150
      01008F90H   LINE      CODE     ---       #151
      ---         BLOCKEND  ---      ---       LVL=0

      01008DB7H   BLOCK     CODE     ---       LVL=0
      01008DB7H   LINE      CODE     ---       #153
      01008DB7H   LINE      CODE     ---       #154
      01008DB7H   LINE      CODE     ---       #155
      01008DBFH   LINE      CODE     ---       #156
      ---         BLOCKEND  ---      ---       LVL=0

      ---         MODULE    ---      ---       MISC
      01008BF3H   PUBLIC    CODE     ---       _delay_ms
      01008BE5H   PUBLIC    CODE     ---       _delay_10us
      01008EE6H   SYMBOL    CODE     ---       internal_delay_10us
      01008D6CH   SYMBOL    CODE     ---       internal_delay_ms

      01008EE6H   BLOCK     CODE     ---       LVL=0
      01008EE6H   BLOCK     CODE     NEAR LAB  LVL=1
      00000007H   SYMBOL    DATA     BYTE      i
      ---         BLOCKEND  ---      ---       LVL=1
      01008EE6H   LINE      CODE     ---       #7
      01008EE6H   LINE      CODE     ---       #8
      01008EE6H   LINE      CODE     ---       #11
      01008EE7H   LINE      CODE     ---       #12
      01008EE9H   LINE      CODE     ---       #13
      01008EEBH   LINE      CODE     ---       #14
      ---         BLOCKEND  ---      ---       LVL=0

      01008D6CH   BLOCK     CODE     ---       LVL=0
      01008D6CH   BLOCK     CODE     NEAR LAB  LVL=1
      00000007H   SYMBOL    DATA     BYTE      i
      00000006H   SYMBOL    DATA     BYTE      j
      ---         BLOCKEND  ---      ---       LVL=1
      01008D6CH   LINE      CODE     ---       #16
      01008D6CH   LINE      CODE     ---       #17
      01008D6CH   LINE      CODE     ---       #20
      01008D6DH   LINE      CODE     ---       #21
      01008D6FH   LINE      CODE     ---       #22
      01008D71H   LINE      CODE     ---       #24
      01008D71H   LINE      CODE     ---       #25
      01008D73H   LINE      CODE     ---       #26
      01008D75H   LINE      CODE     ---       #27
      ---         BLOCKEND  ---      ---       LVL=0

      01008BE5H   BLOCK     CODE     ---       LVL=0
      00000006H   SYMBOL    DATA     BYTE      t
      01008BE5H   LINE      CODE     ---       #53
      01008BE7H   LINE      CODE     ---       #54
      01008BE7H   LINE      CODE     ---       #55
      01008BEDH   LINE      CODE     ---       #56
      01008BF0H   LINE      CODE     ---       #57
      01008BF2H   LINE      CODE     ---       #58
      ---         BLOCKEND  ---      ---       LVL=0

      01008BF3H   BLOCK     CODE     ---       LVL=0
      00000005H   SYMBOL    DATA     BYTE      t
      01008BF3H   LINE      CODE     ---       #60
      01008BF5H   LINE      CODE     ---       #61
      01008BF5H   LINE      CODE     ---       #62
      01008BFBH   LINE      CODE     ---       #63
      01008BFEH   LINE      CODE     ---       #64
      01008C00H   LINE      CODE     ---       #65
      ---         BLOCKEND  ---      ---       LVL=0
LX51 LINKER/LOCATER V4.66.87.0                                                        04/18/2018  10:36:57  PAGE 107



      ---         MODULE    ---      ---       MOD_COMMON
      00000022H.6 PUBLIC    BIT      BIT       lpress_lock_day_sec
      020000C7H   PUBLIC    XDATA    BYTE      last_display_s
      00000022H.5 PUBLIC    BIT      BIT       lpress_lock_year_hour
      00000022H.4 PUBLIC    BIT      BIT       lpress_lock_month_min
      020000C6H   PUBLIC    XDATA    BYTE      lpress_start
      020000C5H   PUBLIC    XDATA    BYTE      common_state
      010060D7H   PUBLIC    CODE     ---       _display_param_error
      01006893H   PUBLIC    CODE     ---       _display_logo

      01006893H   BLOCK     CODE     ---       LVL=0
      02000014H   SYMBOL    XDATA    BYTE      type
      02000015H   SYMBOL    XDATA    BYTE      num
      01006893H   LINE      CODE     ---       #16
      0100689BH   LINE      CODE     ---       #17
      0100689BH   LINE      CODE     ---       #18
      010068ACH   LINE      CODE     ---       #20
      010068AFH   LINE      CODE     ---       #21
      010068B5H   LINE      CODE     ---       #22
      010068B7H   LINE      CODE     ---       #23
      010068B9H   LINE      CODE     ---       #24
      010068C0H   LINE      CODE     ---       #25
      010068C0H   LINE      CODE     ---       #26
      010068D0H   LINE      CODE     ---       #27
      010068E2H   LINE      CODE     ---       #28
      ---         BLOCKEND  ---      ---       LVL=0

      010060D7H   BLOCK     CODE     ---       LVL=0
      02000015H   SYMBOL    XDATA    WORD      err
      010060D7H   LINE      CODE     ---       #31
      010060DFH   LINE      CODE     ---       #32
      010060DFH   LINE      CODE     ---       #33
      010060E2H   LINE      CODE     ---       #34
      010060E9H   LINE      CODE     ---       #35
      010060F0H   LINE      CODE     ---       #36
      010060F2H   LINE      CODE     ---       #37
      010060FBH   LINE      CODE     ---       #38
      01006114H   LINE      CODE     ---       #39
      0100612CH   LINE      CODE     ---       #40
      ---         BLOCKEND  ---      ---       LVL=0

      ---         MODULE    ---      ---       BEEPER
      01008F94H   PUBLIC    CODE     ---       beeper_stop_music
      0100806EH   PUBLIC    CODE     ---       beeper_play_music
      01006F5AH   PUBLIC    CODE     ---       beeper_beep_beep
      0100709CH   PUBLIC    CODE     ---       beeper_beep_beep_always
      01007CB8H   PUBLIC    CODE     ---       beeper_beep
      01008EF2H   PUBLIC    CODE     ---       beeper_get_music_index
      0100862FH   PUBLIC    CODE     ---       beeper_inc_music_index
      01008874H   PUBLIC    CODE     ---       beeper_inc_music_to
      01008EECH   PUBLIC    CODE     ---       beeper_get_music_to
      00000020H.0 PUBLIC    BIT      BIT       ?beeper_set_beep_enable?BIT
      01008F27H   PUBLIC    CODE     ---       beeper_set_beep_enable
      01008F91H   PUBLIC    CODE     ---       beeper_get_beep_enable
      01008DC9H   PUBLIC    CODE     ---       beeper_leave_powersave
      01008DC0H   PUBLIC    CODE     ---       beeper_enter_powersave
      01006F17H   PUBLIC    CODE     ---       beeper_initialize
      00000080H   SFRSYM    DATA     BYTE      P0
      00000090H   SFRSYM    DATA     BYTE      P1
      000000A0H   SFRSYM    DATA     BYTE      P2
      000000B0H   SFRSYM    DATA     BYTE      P3
      000000C0H   SFRSYM    DATA     BYTE      XICON
      000000B0H.4 SFRSYM    DATA     BIT       T0
      000000D0H.6 SFRSYM    DATA     BIT       AC
LX51 LINKER/LOCATER V4.66.87.0                                                        04/18/2018  10:36:57  PAGE 108


      000000E8H   SFRSYM    DATA     BYTE      P4
      000000B0H.5 SFRSYM    DATA     BIT       T1
      000000E6H   SFRSYM    DATA     BYTE      ISP_TRIG
      00000090H.0 SFRSYM    DATA     BIT       T2
      000000A8H.7 SFRSYM    DATA     BIT       EA
      000000A8H.6 SFRSYM    DATA     BIT       EC
      00000098H.7 SFRSYM    DATA     BIT       FE
      000000A8H   SFRSYM    DATA     BYTE      IE
      000000C8H.6 SFRSYM    DATA     BIT       EXF2
      000000B0H.7 SFRSYM    DATA     BIT       RD
      000000A8H.4 SFRSYM    DATA     BIT       ES
      000000B8H   SFRSYM    DATA     BYTE      IP
      00000098H.0 SFRSYM    DATA     BIT       RI
      000000B0H.2 SFRSYM    DATA     BIT       INT0
      000000D0H.7 SFRSYM    DATA     BIT       CY
      00000098H.1 SFRSYM    DATA     BIT       TI
      000000B0H.3 SFRSYM    DATA     BIT       INT1
      000000CBH   SFRSYM    DATA     BYTE      RCAP2H
      000000E5H   SFRSYM    DATA     BYTE      ISP_CMD
      000000B8H.4 SFRSYM    DATA     BIT       PS
      00000081H   SFRSYM    DATA     BYTE      SP
      00000090H.1 SFRSYM    DATA     BIT       T2EX
      000000D0H.2 SFRSYM    DATA     BIT       OV
      000000CAH   SFRSYM    DATA     BYTE      RCAP2L
      000000C8H.1 SFRSYM    DATA     BIT       C_T2
      000000B0H.6 SFRSYM    DATA     BIT       WR
      000000C8H.5 SFRSYM    DATA     BIT       RCLK
      000000C8H.4 SFRSYM    DATA     BIT       TCLK
      00000080H.0 SFRSYM    DATA     BIT       P00
      00000090H.0 SFRSYM    DATA     BIT       beeper_out
      00000099H   SFRSYM    DATA     BYTE      SBUF
      00000087H   SFRSYM    DATA     BYTE      PCON
      00000090H.0 SFRSYM    DATA     BIT       P10
      00000080H.1 SFRSYM    DATA     BIT       P01
      000000A0H.0 SFRSYM    DATA     BIT       P20
      00000090H.1 SFRSYM    DATA     BIT       P11
      00000080H.2 SFRSYM    DATA     BIT       P02
      000000E3H   SFRSYM    DATA     BYTE      ISP_ADDRH
      000000B0H.0 SFRSYM    DATA     BIT       P30
      000000A0H.1 SFRSYM    DATA     BIT       P21
      00000090H.2 SFRSYM    DATA     BIT       P12
      00000080H.3 SFRSYM    DATA     BIT       P03
      00000098H   SFRSYM    DATA     BYTE      SCON
      000000B0H.1 SFRSYM    DATA     BIT       P31
      000000A0H.2 SFRSYM    DATA     BIT       P22
      00000090H.3 SFRSYM    DATA     BIT       P13
      00000080H.4 SFRSYM    DATA     BIT       P04
      000000E8H.0 SFRSYM    DATA     BIT       P40
      00000089H   SFRSYM    DATA     BYTE      TMOD
      00000088H   SFRSYM    DATA     BYTE      TCON
      000000B0H.2 SFRSYM    DATA     BIT       P32
      000000A0H.3 SFRSYM    DATA     BIT       P23
      00000090H.4 SFRSYM    DATA     BIT       P14
      00000080H.5 SFRSYM    DATA     BIT       P05
      000000E8H.1 SFRSYM    DATA     BIT       P41
      000000B0H.3 SFRSYM    DATA     BIT       P33
      000000A0H.4 SFRSYM    DATA     BIT       P24
      00000090H.5 SFRSYM    DATA     BIT       P15
      00000080H.6 SFRSYM    DATA     BIT       P06
      000000E4H   SFRSYM    DATA     BYTE      ISP_ADDRL
      000000E8H.2 SFRSYM    DATA     BIT       P42
      000000B0H.4 SFRSYM    DATA     BIT       P34
      000000A0H.5 SFRSYM    DATA     BIT       P25
      00000090H.6 SFRSYM    DATA     BIT       P16
      00000080H.7 SFRSYM    DATA     BIT       P07
LX51 LINKER/LOCATER V4.66.87.0                                                        04/18/2018  10:36:57  PAGE 109


      000000E8H.3 SFRSYM    DATA     BIT       P43
      000000B0H.5 SFRSYM    DATA     BIT       P35
      000000A0H.6 SFRSYM    DATA     BIT       P26
      00000090H.7 SFRSYM    DATA     BIT       P17
      000000E8H.4 SFRSYM    DATA     BIT       P44
      000000B0H.6 SFRSYM    DATA     BIT       P36
      000000A0H.7 SFRSYM    DATA     BIT       P27
      000000E8H.5 SFRSYM    DATA     BIT       P45
      000000B0H.7 SFRSYM    DATA     BIT       P37
      000000E8H.6 SFRSYM    DATA     BIT       P46
      00000088H.1 SFRSYM    DATA     BIT       IE0
      00000088H.3 SFRSYM    DATA     BIT       IE1
      0000008EH   SFRSYM    DATA     BYTE      AUXR
      000000F0H   SFRSYM    DATA     BYTE      B
      000000C8H.0 SFRSYM    DATA     BIT       CP_RL2
      000000E0H   SFRSYM    DATA     BYTE      ACC
      000000A8H.1 SFRSYM    DATA     BIT       ET0
      000000A8H.3 SFRSYM    DATA     BIT       ET1
      00000088H.5 SFRSYM    DATA     BIT       TF0
      000000A8H.5 SFRSYM    DATA     BIT       ET2
      00000088H.7 SFRSYM    DATA     BIT       TF1
      000000C8H.7 SFRSYM    DATA     BIT       TF2
      00000098H.2 SFRSYM    DATA     BIT       RB8
      0000008CH   SFRSYM    DATA     BYTE      TH0
      000000A8H.0 SFRSYM    DATA     BIT       EX0
      00000088H.0 SFRSYM    DATA     BIT       IT0
      0000008DH   SFRSYM    DATA     BYTE      TH1
      00000098H.3 SFRSYM    DATA     BIT       TB8
      000000A8H.2 SFRSYM    DATA     BIT       EX1
      00000088H.2 SFRSYM    DATA     BIT       IT1
      000000CDH   SFRSYM    DATA     BYTE      TH2
      000000D0H.0 SFRSYM    DATA     BIT       P
      00000098H.7 SFRSYM    DATA     BIT       SM0
      0000008AH   SFRSYM    DATA     BYTE      TL0
      00000098H.6 SFRSYM    DATA     BIT       SM1
      0000008BH   SFRSYM    DATA     BYTE      TL1
      00000098H.5 SFRSYM    DATA     BIT       SM2
      000000CCH   SFRSYM    DATA     BYTE      TL2
      000000B8H.1 SFRSYM    DATA     BIT       PT0
      000000B8H.3 SFRSYM    DATA     BIT       PT1
      000000D0H.3 SFRSYM    DATA     BIT       RS0
      000000E7H   SFRSYM    DATA     BYTE      ISP_CONTR
      000000B8H.5 SFRSYM    DATA     BIT       PT2
      00000088H.4 SFRSYM    DATA     BIT       TR0
      000000D0H.4 SFRSYM    DATA     BIT       RS1
      00000088H.6 SFRSYM    DATA     BIT       TR1
      000000C8H.2 SFRSYM    DATA     BIT       TR2
      000000B8H.0 SFRSYM    DATA     BIT       PX0
      000000E1H   SFRSYM    DATA     BYTE      WDT_CONTR
      000000B8H.2 SFRSYM    DATA     BIT       PX1
      00000083H   SFRSYM    DATA     BYTE      DPH
      00000082H   SFRSYM    DATA     BYTE      DPL
      000000B7H   SFRSYM    DATA     BYTE      IPH
      000000C8H.3 SFRSYM    DATA     BIT       EXEN2
      00000098H.4 SFRSYM    DATA     BIT       REN
      000000C9H   SFRSYM    DATA     BYTE      T2MOD
      000000C8H   SFRSYM    DATA     BYTE      T2CON
      000000E2H   SFRSYM    DATA     BYTE      ISP_DATA
      000000B9H   SFRSYM    DATA     BYTE      SADEN
      000000B0H.0 SFRSYM    DATA     BIT       RXD
      000000A9H   SFRSYM    DATA     BYTE      SADDR
      000000B0H.1 SFRSYM    DATA     BIT       TXD
      000000A2H   SFRSYM    DATA     BYTE      AUXR1
      000000D0H.5 SFRSYM    DATA     BIT       F0
      000000D0H   SFRSYM    DATA     BYTE      PSW
LX51 LINKER/LOCATER V4.66.87.0                                                        04/18/2018  10:36:57  PAGE 110


      0100AB1FH   SYMBOL    CONST    ---       music_table
      01008C01H   SYMBOL    CODE     ---       _beeper_stop_play
      00000024H.0 SYMBOL    BIT      BIT       beeper_stop
      020000C8H   SYMBOL    XDATA    BYTE      pai
      020000C9H   SYMBOL    XDATA    BYTE      beeper_music_to
      0100A887H   SYMBOL    CONST    ---       music_table0
      0100A949H   SYMBOL    CONST    ---       music_table1
      0100AA23H   SYMBOL    CONST    ---       music_table2
      0100AADBH   SYMBOL    CONST    ---       music_table3
      01007B2BH   SYMBOL    CODE     ---       beeper_ISR
      01004FF4H   SYMBOL    CODE     ---       __beepler_play
      00000024H.1 SYMBOL    BIT      BIT       beep_enable
      020000CAH   SYMBOL    XDATA    BYTE      beeper_music_index

      01008375H   BLOCK     CODE     ---       LVL=0
      ---         BLOCKEND  ---      ---       LVL=0

      01007B2BH   BLOCK     CODE     ---       LVL=0
      01007B2BH   LINE      CODE     ---       #115
      01007B3AH   LINE      CODE     ---       #118
      01007B43H   LINE      CODE     ---       #119
      01007B46H   LINE      CODE     ---       #120
      01007B48H   LINE      CODE     ---       #121
      ---         BLOCKEND  ---      ---       LVL=0

      01006F17H   BLOCK     CODE     ---       LVL=0
      01006F17H   LINE      CODE     ---       #124
      01006F17H   LINE      CODE     ---       #125
      01006F17H   LINE      CODE     ---       #126
      01006F20H   LINE      CODE     ---       #133
      01006F23H   LINE      CODE     ---       #137
      01006F26H   LINE      CODE     ---       #138
      01006F29H   LINE      CODE     ---       #139
      01006F2CH   LINE      CODE     ---       #140
      01006F2FH   LINE      CODE     ---       #149
      01006F31H   LINE      CODE     ---       #151
      01006F33H   LINE      CODE     ---       #153
      01006F35H   LINE      CODE     ---       #155
      01006F41H   LINE      CODE     ---       #156
      01006F43H   LINE      CODE     ---       #157
      01006F4DH   LINE      CODE     ---       #158
      01006F57H   LINE      CODE     ---       #159
      01006F59H   LINE      CODE     ---       #160
      ---         BLOCKEND  ---      ---       LVL=0

      01008DC0H   BLOCK     CODE     ---       LVL=0
      01008DC0H   LINE      CODE     ---       #162
      01008DC0H   LINE      CODE     ---       #163
      01008DC0H   LINE      CODE     ---       #164
      ---         BLOCKEND  ---      ---       LVL=0

      01008DC9H   BLOCK     CODE     ---       LVL=0
      01008DC9H   LINE      CODE     ---       #167
      01008DC9H   LINE      CODE     ---       #168
      01008DC9H   LINE      CODE     ---       #169
      ---         BLOCKEND  ---      ---       LVL=0

      01008F91H   BLOCK     CODE     ---       LVL=0
      01008F91H   LINE      CODE     ---       #172
      01008F91H   LINE      CODE     ---       #173
      01008F91H   LINE      CODE     ---       #174
      01008F93H   LINE      CODE     ---       #175
      ---         BLOCKEND  ---      ---       LVL=0

      01008F27H   BLOCK     CODE     ---       LVL=0
LX51 LINKER/LOCATER V4.66.87.0                                                        04/18/2018  10:36:57  PAGE 111


      00000020H.0 SYMBOL    BIT      BIT       enable
      01008F27H   LINE      CODE     ---       #177
      01008F27H   LINE      CODE     ---       #178
      01008F27H   LINE      CODE     ---       #179
      01008F2BH   LINE      CODE     ---       #180
      ---         BLOCKEND  ---      ---       LVL=0

      01008EECH   BLOCK     CODE     ---       LVL=0
      01008EECH   LINE      CODE     ---       #182
      01008EECH   LINE      CODE     ---       #183
      01008EECH   LINE      CODE     ---       #184
      01008EF1H   LINE      CODE     ---       #185
      ---         BLOCKEND  ---      ---       LVL=0

      01008874H   BLOCK     CODE     ---       LVL=0
      01008874H   LINE      CODE     ---       #188
      01008874H   LINE      CODE     ---       #189
      01008874H   LINE      CODE     ---       #190
      01008887H   LINE      CODE     ---       #191
      ---         BLOCKEND  ---      ---       LVL=0

      0100862FH   BLOCK     CODE     ---       LVL=0
      0100862FH   LINE      CODE     ---       #193
      0100862FH   LINE      CODE     ---       #194
      0100862FH   LINE      CODE     ---       #195
      01008638H   LINE      CODE     ---       #196
      ---         BLOCKEND  ---      ---       LVL=0

      01008EF2H   BLOCK     CODE     ---       LVL=0
      01008EF2H   LINE      CODE     ---       #199
      01008EF2H   LINE      CODE     ---       #200
      01008EF2H   LINE      CODE     ---       #201
      01008EF7H   LINE      CODE     ---       #202
      ---         BLOCKEND  ---      ---       LVL=0

      01008C01H   BLOCK     CODE     ---       LVL=0
      01008C01H   LINE      CODE     ---       #204
      01008C01H   LINE      CODE     ---       #205
      01008C01H   LINE      CODE     ---       #206
      01008C03H   LINE      CODE     ---       #207
      01008C05H   LINE      CODE     ---       #208
      01008C0AH   LINE      CODE     ---       #209
      01008C0CH   LINE      CODE     ---       #210
      01008C0EH   LINE      CODE     ---       #211
      ---         BLOCKEND  ---      ---       LVL=0

      01004FF4H   BLOCK     CODE     ---       LVL=0
      02000014H   SYMBOL    XDATA    ---       music
      00000020H.0 SYMBOL    BIT      BIT       once
      01004FFAH   BLOCK     CODE     NEAR LAB  LVL=1
      02000017H   SYMBOL    XDATA    BYTE      cm
      02000018H   SYMBOL    XDATA    BYTE      tune
      02000019H   SYMBOL    XDATA    BYTE      start_s
      ---         BLOCKEND  ---      ---       LVL=1
      01004FF4H   LINE      CODE     ---       #213
      01004FFAH   LINE      CODE     ---       #214
      01004FFAH   LINE      CODE     ---       #219
      01004FFAH   LINE      CODE     ---       #220
      01004FFAH   LINE      CODE     ---       #221
      01004FFDH   LINE      CODE     ---       #222
      01004FFFH   LINE      CODE     ---       #223
      01005005H   LINE      CODE     ---       #225
      01005008H   LINE      CODE     ---       #226
      01005008H   LINE      CODE     ---       #227
      0100501DH   LINE      CODE     ---       #228
LX51 LINKER/LOCATER V4.66.87.0                                                        04/18/2018  10:36:57  PAGE 112


      0100501DH   LINE      CODE     ---       #229
      0100501DH   LINE      CODE     ---       #230
      0100501DH   LINE      CODE     ---       #231
      01005020H   LINE      CODE     ---       #232
      01005023H   LINE      CODE     ---       #233
      01005026H   LINE      CODE     ---       #234
      01005028H   LINE      CODE     ---       #235
      01005028H   LINE      CODE     ---       #237
      0100502DH   LINE      CODE     ---       #238
      0100502DH   LINE      CODE     ---       #239
      0100502FH   LINE      CODE     ---       #240
      0100502FH   LINE      CODE     ---       #241
      0100502FH   LINE      CODE     ---       #242
      0100502FH   LINE      CODE     ---       #243
      01005034H   LINE      CODE     ---       #244
      01005037H   LINE      CODE     ---       #245
      01005037H   LINE      CODE     ---       #246
      01005037H   LINE      CODE     ---       #247
      0100503EH   LINE      CODE     ---       #248
      01005043H   LINE      CODE     ---       #249
      01005045H   LINE      CODE     ---       #250
      01005045H   LINE      CODE     ---       #251
      01005052H   LINE      CODE     ---       #252
      01005059H   LINE      CODE     ---       #253
      0100505BH   LINE      CODE     ---       #254
      0100505DH   LINE      CODE     ---       #255
      0100505FH   LINE      CODE     ---       #256
      01005068H   LINE      CODE     ---       #257
      0100506AH   LINE      CODE     ---       #258
      01005074H   LINE      CODE     ---       #259
      01005076H   LINE      CODE     ---       #260
      01005078H   LINE      CODE     ---       #261
      01005078H   LINE      CODE     ---       #262
      0100507AH   LINE      CODE     ---       #263
      0100507DH   LINE      CODE     ---       #264
      0100507EH   LINE      CODE     ---       #265
      ---         BLOCKEND  ---      ---       LVL=0

      01007CB8H   BLOCK     CODE     ---       LVL=0
      01007CB8H   BLOCK     CODE     NEAR LAB  LVL=1
      0200000DH   SYMBOL    XDATA    BYTE      c
      ---         BLOCKEND  ---      ---       LVL=1
      01007CB8H   LINE      CODE     ---       #267
      01007CB8H   LINE      CODE     ---       #268
      01007CB8H   LINE      CODE     ---       #269
      01007CBEH   LINE      CODE     ---       #270
      01007CC7H   LINE      CODE     ---       #271
      01007CCAH   LINE      CODE     ---       #273
      01007CCCH   LINE      CODE     ---       #274
      01007CD6H   LINE      CODE     ---       #275
      01007CD8H   LINE      CODE     ---       #276
      01007CDDH   LINE      CODE     ---       #277
      01007CDFH   LINE      CODE     ---       #278
      01007CE1H   LINE      CODE     ---       #279
      ---         BLOCKEND  ---      ---       LVL=0

      0100709CH   BLOCK     CODE     ---       LVL=0
      0100709CH   BLOCK     CODE     NEAR LAB  LVL=1
      02000016H   SYMBOL    XDATA    BYTE      c
      ---         BLOCKEND  ---      ---       LVL=1
      0100709CH   LINE      CODE     ---       #281
      0100709CH   LINE      CODE     ---       #282
      0100709CH   LINE      CODE     ---       #283
      010070A2H   LINE      CODE     ---       #284
      010070ABH   LINE      CODE     ---       #285
LX51 LINKER/LOCATER V4.66.87.0                                                        04/18/2018  10:36:57  PAGE 113


      010070ADH   LINE      CODE     ---       #286
      010070B7H   LINE      CODE     ---       #287
      010070B9H   LINE      CODE     ---       #288
      010070BEH   LINE      CODE     ---       #289
      010070C0H   LINE      CODE     ---       #291
      010070C5H   LINE      CODE     ---       #293
      010070CFH   LINE      CODE     ---       #294
      010070D1H   LINE      CODE     ---       #295
      010070D6H   LINE      CODE     ---       #296
      010070D8H   LINE      CODE     ---       #297
      010070DAH   LINE      CODE     ---       #298
      ---         BLOCKEND  ---      ---       LVL=0

      01006F5AH   BLOCK     CODE     ---       LVL=0
      01006F5AH   BLOCK     CODE     NEAR LAB  LVL=1
      0200000BH   SYMBOL    XDATA    BYTE      c
      ---         BLOCKEND  ---      ---       LVL=1
      01006F5AH   LINE      CODE     ---       #300
      01006F5AH   LINE      CODE     ---       #301
      01006F5AH   LINE      CODE     ---       #302
      01006F60H   LINE      CODE     ---       #303
      01006F69H   LINE      CODE     ---       #304
      01006F6CH   LINE      CODE     ---       #306
      01006F6EH   LINE      CODE     ---       #307
      01006F78H   LINE      CODE     ---       #308
      01006F7AH   LINE      CODE     ---       #309
      01006F7FH   LINE      CODE     ---       #310
      01006F81H   LINE      CODE     ---       #312
      01006F86H   LINE      CODE     ---       #314
      01006F90H   LINE      CODE     ---       #315
      01006F92H   LINE      CODE     ---       #316
      01006F97H   LINE      CODE     ---       #317
      01006F99H   LINE      CODE     ---       #318
      01006F9BH   LINE      CODE     ---       #319
      ---         BLOCKEND  ---      ---       LVL=0

      0100806EH   BLOCK     CODE     ---       LVL=0
      0100806EH   LINE      CODE     ---       #321
      0100806EH   LINE      CODE     ---       #322
      0100806EH   LINE      CODE     ---       #324
      01008077H   LINE      CODE     ---       #325
      ---         BLOCKEND  ---      ---       LVL=0

      01008F94H   BLOCK     CODE     ---       LVL=0
      01008F94H   LINE      CODE     ---       #328
      01008F94H   LINE      CODE     ---       #329
      01008F94H   LINE      CODE     ---       #330
      ---         BLOCKEND  ---      ---       LVL=0

      ---         MODULE    ---      ---       CLOCK
      01008725H   PUBLIC    CODE     ---       clock_leave_shell
      01008F9AH   PUBLIC    CODE     ---       clock_enter_shell
      01008574H   PUBLIC    CODE     ---       clock_leave_powersave
      01008C0FH   PUBLIC    CODE     ---       clock_enter_powersave
      01007B58H   PUBLIC    CODE     ---       clock_initialize
      00000020H.2 PUBLIC    BIT      BIT       ?clock_enable_interrupt?BIT
      01008DD2H   PUBLIC    CODE     ---       clock_enable_interrupt
      01008320H   PUBLIC    CODE     ---       _clock_get_mon_date
      01008646H   PUBLIC    CODE     ---       _clock_is_leap_year
      0100606CH   PUBLIC    CODE     ---       _clock_sync_to_rtc
      01006001H   PUBLIC    CODE     ---       _clock_sync_from_rtc
      010087D2H   PUBLIC    CODE     ---       clock_inc_year
      01008F54H   PUBLIC    CODE     ---       clock_get_year
      0100870FH   PUBLIC    CODE     ---       clock_inc_month
      01008F0AH   PUBLIC    CODE     ---       clock_get_month
LX51 LINKER/LOCATER V4.66.87.0                                                        04/18/2018  10:36:57  PAGE 114


      01008F04H   PUBLIC    CODE     ---       clock_get_day
      01008157H   PUBLIC    CODE     ---       clock_inc_date
      01008EFEH   PUBLIC    CODE     ---       clock_get_date
      01008CD4H   PUBLIC    CODE     ---       clock_inc_hour
      01008F4FH   PUBLIC    CODE     ---       clock_get_hour
      01008CC9H   PUBLIC    CODE     ---       clock_inc_min
      01008F4AH   PUBLIC    CODE     ---       clock_get_min
      01008F45H   PUBLIC    CODE     ---       clock_clr_sec
      01008F40H   PUBLIC    CODE     ---       clock_get_sec
      01008F3BH   PUBLIC    CODE     ---       clock_get_sec_256
      01008F36H   PUBLIC    CODE     ---       clock_get_ms39
      00000020H.0 PUBLIC    BIT      BIT       ?clock_set_hour_12?BIT
      01008F31H   PUBLIC    CODE     ---       clock_set_hour_12
      01008F97H   PUBLIC    CODE     ---       clock_get_hour_12
      010037D9H   PUBLIC    CODE     ---       _clock_yymmdd_to_day
      0100539AH   PUBLIC    CODE     ---       clock_dump
      01008EF8H   PUBLIC    CODE     ---       _clock_switch_display_mode
      00000020H.0 PUBLIC    BIT      BIT       ?clock_display?BIT
      01008F2CH   PUBLIC    CODE     ---       clock_display
      00000080H   SFRSYM    DATA     BYTE      P0
      00000090H   SFRSYM    DATA     BYTE      P1
      000000A0H   SFRSYM    DATA     BYTE      P2
      000000B0H   SFRSYM    DATA     BYTE      P3
      000000C0H   SFRSYM    DATA     BYTE      XICON
      000000B0H.4 SFRSYM    DATA     BIT       T0
      000000D0H.6 SFRSYM    DATA     BIT       AC
      000000E8H   SFRSYM    DATA     BYTE      P4
      000000B0H.5 SFRSYM    DATA     BIT       T1
      000000E6H   SFRSYM    DATA     BYTE      ISP_TRIG
      00000090H.0 SFRSYM    DATA     BIT       T2
      000000A8H.7 SFRSYM    DATA     BIT       EA
      000000A8H.6 SFRSYM    DATA     BIT       EC
      00000098H.7 SFRSYM    DATA     BIT       FE
      000000A8H   SFRSYM    DATA     BYTE      IE
      000000C8H.6 SFRSYM    DATA     BIT       EXF2
      000000B0H.7 SFRSYM    DATA     BIT       RD
      000000A8H.4 SFRSYM    DATA     BIT       ES
      000000B8H   SFRSYM    DATA     BYTE      IP
      00000098H.0 SFRSYM    DATA     BIT       RI
      000000B0H.2 SFRSYM    DATA     BIT       INT0
      000000D0H.7 SFRSYM    DATA     BIT       CY
      00000098H.1 SFRSYM    DATA     BIT       TI
      000000B0H.3 SFRSYM    DATA     BIT       INT1
      000000CBH   SFRSYM    DATA     BYTE      RCAP2H
      000000E5H   SFRSYM    DATA     BYTE      ISP_CMD
      000000B8H.4 SFRSYM    DATA     BIT       PS
      00000081H   SFRSYM    DATA     BYTE      SP
      00000090H.1 SFRSYM    DATA     BIT       T2EX
      000000D0H.2 SFRSYM    DATA     BIT       OV
      000000CAH   SFRSYM    DATA     BYTE      RCAP2L
      000000C8H.1 SFRSYM    DATA     BIT       C_T2
      000000B0H.6 SFRSYM    DATA     BIT       WR
      000000C8H.5 SFRSYM    DATA     BIT       RCLK
      000000C8H.4 SFRSYM    DATA     BIT       TCLK
      00000080H.0 SFRSYM    DATA     BIT       P00
      00000099H   SFRSYM    DATA     BYTE      SBUF
      00000087H   SFRSYM    DATA     BYTE      PCON
      00000090H.0 SFRSYM    DATA     BIT       P10
      00000080H.1 SFRSYM    DATA     BIT       P01
      000000A0H.0 SFRSYM    DATA     BIT       P20
      00000090H.1 SFRSYM    DATA     BIT       P11
      00000080H.2 SFRSYM    DATA     BIT       P02
      000000E3H   SFRSYM    DATA     BYTE      ISP_ADDRH
      000000B0H.0 SFRSYM    DATA     BIT       P30
      000000A0H.1 SFRSYM    DATA     BIT       P21
LX51 LINKER/LOCATER V4.66.87.0                                                        04/18/2018  10:36:57  PAGE 115


      00000090H.2 SFRSYM    DATA     BIT       P12
      00000080H.3 SFRSYM    DATA     BIT       P03
      00000098H   SFRSYM    DATA     BYTE      SCON
      000000B0H.1 SFRSYM    DATA     BIT       P31
      000000A0H.2 SFRSYM    DATA     BIT       P22
      00000090H.3 SFRSYM    DATA     BIT       P13
      00000080H.4 SFRSYM    DATA     BIT       P04
      000000E8H.0 SFRSYM    DATA     BIT       P40
      00000089H   SFRSYM    DATA     BYTE      TMOD
      00000088H   SFRSYM    DATA     BYTE      TCON
      000000B0H.2 SFRSYM    DATA     BIT       P32
      000000A0H.3 SFRSYM    DATA     BIT       P23
      00000090H.4 SFRSYM    DATA     BIT       P14
      00000080H.5 SFRSYM    DATA     BIT       P05
      000000E8H.1 SFRSYM    DATA     BIT       P41
      000000B0H.3 SFRSYM    DATA     BIT       P33
      000000A0H.4 SFRSYM    DATA     BIT       P24
      00000090H.5 SFRSYM    DATA     BIT       P15
      00000080H.6 SFRSYM    DATA     BIT       P06
      000000E4H   SFRSYM    DATA     BYTE      ISP_ADDRL
      000000E8H.2 SFRSYM    DATA     BIT       P42
      000000B0H.4 SFRSYM    DATA     BIT       P34
      000000A0H.5 SFRSYM    DATA     BIT       P25
      00000090H.6 SFRSYM    DATA     BIT       P16
      00000080H.7 SFRSYM    DATA     BIT       P07
      000000E8H.3 SFRSYM    DATA     BIT       P43
      000000B0H.5 SFRSYM    DATA     BIT       P35
      000000A0H.6 SFRSYM    DATA     BIT       P26
      00000090H.7 SFRSYM    DATA     BIT       P17
      000000E8H.4 SFRSYM    DATA     BIT       P44
      000000B0H.6 SFRSYM    DATA     BIT       P36
      000000A0H.7 SFRSYM    DATA     BIT       P27
      000000E8H.5 SFRSYM    DATA     BIT       P45
      000000B0H.7 SFRSYM    DATA     BIT       P37
      000000E8H.6 SFRSYM    DATA     BIT       P46
      00000088H.1 SFRSYM    DATA     BIT       IE0
      00000088H.3 SFRSYM    DATA     BIT       IE1
      0000008EH   SFRSYM    DATA     BYTE      AUXR
      000000F0H   SFRSYM    DATA     BYTE      B
      000000C8H.0 SFRSYM    DATA     BIT       CP_RL2
      000000E0H   SFRSYM    DATA     BYTE      ACC
      000000A8H.1 SFRSYM    DATA     BIT       ET0
      000000A8H.3 SFRSYM    DATA     BIT       ET1
      00000088H.5 SFRSYM    DATA     BIT       TF0
      000000A8H.5 SFRSYM    DATA     BIT       ET2
      00000088H.7 SFRSYM    DATA     BIT       TF1
      000000C8H.7 SFRSYM    DATA     BIT       TF2
      00000098H.2 SFRSYM    DATA     BIT       RB8
      0000008CH   SFRSYM    DATA     BYTE      TH0
      000000A8H.0 SFRSYM    DATA     BIT       EX0
      00000088H.0 SFRSYM    DATA     BIT       IT0
      0000008DH   SFRSYM    DATA     BYTE      TH1
      00000098H.3 SFRSYM    DATA     BIT       TB8
      000000A8H.2 SFRSYM    DATA     BIT       EX1
      00000088H.2 SFRSYM    DATA     BIT       IT1
      000000CDH   SFRSYM    DATA     BYTE      TH2
      000000D0H.0 SFRSYM    DATA     BIT       P
      00000098H.7 SFRSYM    DATA     BIT       SM0
      0000008AH   SFRSYM    DATA     BYTE      TL0
      00000098H.6 SFRSYM    DATA     BIT       SM1
      0000008BH   SFRSYM    DATA     BYTE      TL1
      00000098H.5 SFRSYM    DATA     BIT       SM2
      000000CCH   SFRSYM    DATA     BYTE      TL2
      000000B8H.1 SFRSYM    DATA     BIT       PT0
      000000B8H.3 SFRSYM    DATA     BIT       PT1
LX51 LINKER/LOCATER V4.66.87.0                                                        04/18/2018  10:36:57  PAGE 116


      000000D0H.3 SFRSYM    DATA     BIT       RS0
      000000E7H   SFRSYM    DATA     BYTE      ISP_CONTR
      000000B8H.5 SFRSYM    DATA     BIT       PT2
      00000088H.4 SFRSYM    DATA     BIT       TR0
      000000D0H.4 SFRSYM    DATA     BIT       RS1
      00000088H.6 SFRSYM    DATA     BIT       TR1
      000000C8H.2 SFRSYM    DATA     BIT       TR2
      000000B8H.0 SFRSYM    DATA     BIT       PX0
      000000E1H   SFRSYM    DATA     BYTE      WDT_CONTR
      000000B8H.2 SFRSYM    DATA     BIT       PX1
      00000083H   SFRSYM    DATA     BYTE      DPH
      00000082H   SFRSYM    DATA     BYTE      DPL
      000000B7H   SFRSYM    DATA     BYTE      IPH
      000000C8H.3 SFRSYM    DATA     BIT       EXEN2
      00000098H.4 SFRSYM    DATA     BIT       REN
      000000C9H   SFRSYM    DATA     BYTE      T2MOD
      000000C8H   SFRSYM    DATA     BYTE      T2CON
      000000E2H   SFRSYM    DATA     BYTE      ISP_DATA
      000000B9H   SFRSYM    DATA     BYTE      SADEN
      000000B0H.0 SFRSYM    DATA     BIT       RXD
      000000A9H   SFRSYM    DATA     BYTE      SADDR
      000000B0H.1 SFRSYM    DATA     BIT       TXD
      000000A2H   SFRSYM    DATA     BYTE      AUXR1
      000000D0H.5 SFRSYM    DATA     BIT       F0
      000000D0H   SFRSYM    DATA     BYTE      PSW
      020000D1H   SYMBOL    XDATA    BYTE      display_mode
      0100A32AH   SYMBOL    CONST    ---       date_table
      01007505H   SYMBOL    CODE     ---       clock0_ISR
      0000004BH   SYMBOL    IDATA    BYTE      sec_256
      0000004CH   SYMBOL    IDATA    ---       clk
      00000022H.7 SYMBOL    BIT      BIT       display_enable
      00000023H.0 SYMBOL    BIT      BIT       in_shell
      01002F43H   SYMBOL    CODE     ---       clock_inc_ms39
      00000023H.1 SYMBOL    BIT      BIT       clk_is12

      01005BF0H   BLOCK     CODE     ---       LVL=0
      ---         BLOCKEND  ---      ---       LVL=0

      01008F2CH   BLOCK     CODE     ---       LVL=0
      00000020H.0 SYMBOL    BIT      BIT       enable
      01008F2CH   LINE      CODE     ---       #129
      01008F2CH   LINE      CODE     ---       #130
      01008F2CH   LINE      CODE     ---       #131
      01008F30H   LINE      CODE     ---       #132
      ---         BLOCKEND  ---      ---       LVL=0

      01008EF8H   BLOCK     CODE     ---       LVL=0
      00000007H   SYMBOL    DATA     BYTE      mode
      01008EF8H   LINE      CODE     ---       #134
      01008EF8H   LINE      CODE     ---       #135
      01008EF8H   LINE      CODE     ---       #136
      01008EFDH   LINE      CODE     ---       #137
      ---         BLOCKEND  ---      ---       LVL=0

      01002F43H   BLOCK     CODE     ---       LVL=0
      01002F43H   BLOCK     CODE     NEAR LAB  LVL=1
      00000005H   SYMBOL    DATA     BYTE      hour
      00000021H.3 SYMBOL    BIT      BIT       is_pm
      ---         BLOCKEND  ---      ---       LVL=1
      01002F43H   LINE      CODE     ---       #140
      01002F43H   LINE      CODE     ---       #141
      01002F43H   LINE      CODE     ---       #145
      01002F46H   LINE      CODE     ---       #147
      01002F50H   LINE      CODE     ---       #148
      01002F56H   LINE      CODE     ---       #149
LX51 LINKER/LOCATER V4.66.87.0                                                        04/18/2018  10:36:57  PAGE 117


      01002F56H   LINE      CODE     ---       #151
      01002F5BH   LINE      CODE     ---       #152
      01002F61H   LINE      CODE     ---       #153
      01002F61H   LINE      CODE     ---       #155
      01002F66H   LINE      CODE     ---       #156
      01002F70H   LINE      CODE     ---       #157
      01002F73H   LINE      CODE     ---       #158
      01002F76H   LINE      CODE     ---       #159
      01002F7CH   LINE      CODE     ---       #160
      01002F81H   LINE      CODE     ---       #161
      01002F86H   LINE      CODE     ---       #162
      01002F8BH   LINE      CODE     ---       #163
      01002F90H   LINE      CODE     ---       #164
      01002F95H   LINE      CODE     ---       #165
      01002FB1H   LINE      CODE     ---       #166
      01002FBBH   LINE      CODE     ---       #167
      01002FBEH   LINE      CODE     ---       #168
      01002FC9H   LINE      CODE     ---       #169
      01002FCCH   LINE      CODE     ---       #170
      01002FD6H   LINE      CODE     ---       #171
      01002FD6H   LINE      CODE     ---       #172
      01002FD6H   LINE      CODE     ---       #173
      01002FD6H   LINE      CODE     ---       #174
      01002FD6H   LINE      CODE     ---       #175
      01002FD6H   LINE      CODE     ---       #176
      01002FD6H   LINE      CODE     ---       #177
      01002FE2H   LINE      CODE     ---       #178
      01002FE9H   LINE      CODE     ---       #179
      01002FEDH   LINE      CODE     ---       #180
      01002FEFH   LINE      CODE     ---       #181
      01002FF7H   LINE      CODE     ---       #182
      01002FFBH   LINE      CODE     ---       #183
      01002FFDH   LINE      CODE     ---       #184
      01002FFDH   LINE      CODE     ---       #186
      01003004H   LINE      CODE     ---       #187
      01003012H   LINE      CODE     ---       #188
      01003014H   LINE      CODE     ---       #189
      01003021H   LINE      CODE     ---       #190
      01003021H   LINE      CODE     ---       #191
      0100302CH   LINE      CODE     ---       #192
      01003031H   LINE      CODE     ---       #193
      01003037H   LINE      CODE     ---       #194
      0100303CH   LINE      CODE     ---       #195
      01003044H   LINE      CODE     ---       #196
      0100304AH   LINE      CODE     ---       #197
      0100305BH   LINE      CODE     ---       #198
      01003062H   LINE      CODE     ---       #199
      01003069H   LINE      CODE     ---       #200
      01003073H   LINE      CODE     ---       #201
      01003075H   LINE      CODE     ---       #202
      01003075H   LINE      CODE     ---       #203
      01003077H   LINE      CODE     ---       #204
      01003081H   LINE      CODE     ---       #205
      01003087H   LINE      CODE     ---       #206
      0100308DH   LINE      CODE     ---       #207
      01003093H   LINE      CODE     ---       #208
      0100309AH   LINE      CODE     ---       #209
      010030A3H   LINE      CODE     ---       #210
      010030A3H   LINE      CODE     ---       #211
      010030A3H   LINE      CODE     ---       #212
      ---         BLOCKEND  ---      ---       LVL=0

      0100539AH   BLOCK     CODE     ---       LVL=0
      0100539AH   LINE      CODE     ---       #215
      0100539AH   LINE      CODE     ---       #216
LX51 LINKER/LOCATER V4.66.87.0                                                        04/18/2018  10:36:57  PAGE 118


      0100539AH   LINE      CODE     ---       #217
      010053A0H   LINE      CODE     ---       #218
      010053ACH   LINE      CODE     ---       #219
      010053B2H   LINE      CODE     ---       #220
      010053BEH   LINE      CODE     ---       #221
      010053C4H   LINE      CODE     ---       #222
      010053D5H   LINE      CODE     ---       #223
      010053DBH   LINE      CODE     ---       #224
      010053ECH   LINE      CODE     ---       #225
      0100540AH   LINE      CODE     ---       #226
      ---         BLOCKEND  ---      ---       LVL=0

      010037D9H   BLOCK     CODE     ---       LVL=0
      00000004H   SYMBOL    DATA     BYTE      year
      00000005H   SYMBOL    DATA     BYTE      mon
      00000003H   SYMBOL    DATA     BYTE      date
      010037DBH   BLOCK     CODE     NEAR LAB  LVL=1
      02000015H   SYMBOL    XDATA    WORD      d
      02000017H   SYMBOL    XDATA    WORD      m
      02000019H   SYMBOL    XDATA    WORD      y
      0200001BH   SYMBOL    XDATA    WORD      c
      ---         BLOCKEND  ---      ---       LVL=1
      010037D9H   LINE      CODE     ---       #233
      010037DBH   LINE      CODE     ---       #234
      010037DBH   LINE      CODE     ---       #236
      010037E8H   LINE      CODE     ---       #237
      010037F5H   LINE      CODE     ---       #238
      01003801H   LINE      CODE     ---       #240
      0100380AH   LINE      CODE     ---       #241
      01003814H   LINE      CODE     ---       #242
      0100381EH   LINE      CODE     ---       #243
      0100381EH   LINE      CODE     ---       #245
      0100382DH   LINE      CODE     ---       #246
      01003843H   LINE      CODE     ---       #248
      010038BAH   LINE      CODE     ---       #249
      010038D7H   LINE      CODE     ---       #251
      010038DAH   LINE      CODE     ---       #252
      010038DDH   LINE      CODE     ---       #253
      010038DDH   LINE      CODE     ---       #255
      010038E4H   LINE      CODE     ---       #256
      ---         BLOCKEND  ---      ---       LVL=0

      01008F97H   BLOCK     CODE     ---       LVL=0
      01008F97H   LINE      CODE     ---       #258
      01008F97H   LINE      CODE     ---       #259
      01008F97H   LINE      CODE     ---       #260
      01008F99H   LINE      CODE     ---       #261
      ---         BLOCKEND  ---      ---       LVL=0

      01008F31H   BLOCK     CODE     ---       LVL=0
      00000020H.0 SYMBOL    BIT      BIT       enable
      01008F31H   LINE      CODE     ---       #262
      01008F31H   LINE      CODE     ---       #263
      01008F31H   LINE      CODE     ---       #264
      01008F35H   LINE      CODE     ---       #265
      ---         BLOCKEND  ---      ---       LVL=0

      01008F36H   BLOCK     CODE     ---       LVL=0
      01008F36H   LINE      CODE     ---       #267
      01008F36H   LINE      CODE     ---       #268
      01008F36H   LINE      CODE     ---       #269
      01008F3AH   LINE      CODE     ---       #270
      ---         BLOCKEND  ---      ---       LVL=0

      01008F3BH   BLOCK     CODE     ---       LVL=0
LX51 LINKER/LOCATER V4.66.87.0                                                        04/18/2018  10:36:57  PAGE 119


      01008F3BH   LINE      CODE     ---       #272
      01008F3BH   LINE      CODE     ---       #273
      01008F3BH   LINE      CODE     ---       #274
      01008F3FH   LINE      CODE     ---       #275
      ---         BLOCKEND  ---      ---       LVL=0

      01008F40H   BLOCK     CODE     ---       LVL=0
      01008F40H   LINE      CODE     ---       #277
      01008F40H   LINE      CODE     ---       #278
      01008F40H   LINE      CODE     ---       #279
      01008F44H   LINE      CODE     ---       #280
      ---         BLOCKEND  ---      ---       LVL=0

      01008F45H   BLOCK     CODE     ---       LVL=0
      01008F45H   LINE      CODE     ---       #281
      01008F45H   LINE      CODE     ---       #282
      01008F45H   LINE      CODE     ---       #283
      01008F49H   LINE      CODE     ---       #284
      ---         BLOCKEND  ---      ---       LVL=0

      01008F4AH   BLOCK     CODE     ---       LVL=0
      01008F4AH   LINE      CODE     ---       #286
      01008F4AH   LINE      CODE     ---       #287
      01008F4AH   LINE      CODE     ---       #288
      01008F4EH   LINE      CODE     ---       #289
      ---         BLOCKEND  ---      ---       LVL=0

      01008CC9H   BLOCK     CODE     ---       LVL=0
      01008CC9H   LINE      CODE     ---       #290
      01008CC9H   LINE      CODE     ---       #291
      01008CC9H   LINE      CODE     ---       #292
      01008CD3H   LINE      CODE     ---       #293
      ---         BLOCKEND  ---      ---       LVL=0

      01008F4FH   BLOCK     CODE     ---       LVL=0
      01008F4FH   LINE      CODE     ---       #295
      01008F4FH   LINE      CODE     ---       #296
      01008F4FH   LINE      CODE     ---       #297
      01008F53H   LINE      CODE     ---       #298
      ---         BLOCKEND  ---      ---       LVL=0

      01008CD4H   BLOCK     CODE     ---       LVL=0
      01008CD4H   LINE      CODE     ---       #299
      01008CD4H   LINE      CODE     ---       #300
      01008CD4H   LINE      CODE     ---       #301
      01008CDEH   LINE      CODE     ---       #302
      ---         BLOCKEND  ---      ---       LVL=0

      01008EFEH   BLOCK     CODE     ---       LVL=0
      01008EFEH   LINE      CODE     ---       #305
      01008EFEH   LINE      CODE     ---       #306
      01008EFEH   LINE      CODE     ---       #307
      01008F03H   LINE      CODE     ---       #308
      ---         BLOCKEND  ---      ---       LVL=0

      01008157H   BLOCK     CODE     ---       LVL=0
      01008157H   LINE      CODE     ---       #309
      01008157H   LINE      CODE     ---       #310
      01008157H   LINE      CODE     ---       #311
      0100816AH   LINE      CODE     ---       #312
      01008176H   LINE      CODE     ---       #313
      ---         BLOCKEND  ---      ---       LVL=0

      01008F04H   BLOCK     CODE     ---       LVL=0
      01008F04H   LINE      CODE     ---       #315
LX51 LINKER/LOCATER V4.66.87.0                                                        04/18/2018  10:36:57  PAGE 120


      01008F04H   LINE      CODE     ---       #316
      01008F04H   LINE      CODE     ---       #317
      01008F09H   LINE      CODE     ---       #318
      ---         BLOCKEND  ---      ---       LVL=0

      01008F0AH   BLOCK     CODE     ---       LVL=0
      01008F0AH   LINE      CODE     ---       #320
      01008F0AH   LINE      CODE     ---       #321
      01008F0AH   LINE      CODE     ---       #322
      01008F0FH   LINE      CODE     ---       #323
      ---         BLOCKEND  ---      ---       LVL=0

      0100870FH   BLOCK     CODE     ---       LVL=0
      0100870FH   LINE      CODE     ---       #324
      0100870FH   LINE      CODE     ---       #325
      0100870FH   LINE      CODE     ---       #326
      01008719H   LINE      CODE     ---       #327
      01008724H   LINE      CODE     ---       #328
      ---         BLOCKEND  ---      ---       LVL=0

      01008F54H   BLOCK     CODE     ---       LVL=0
      01008F54H   LINE      CODE     ---       #330
      01008F54H   LINE      CODE     ---       #331
      01008F54H   LINE      CODE     ---       #332
      01008F58H   LINE      CODE     ---       #333
      ---         BLOCKEND  ---      ---       LVL=0

      010087D2H   BLOCK     CODE     ---       LVL=0
      010087D2H   LINE      CODE     ---       #334
      010087D2H   LINE      CODE     ---       #335
      010087D2H   LINE      CODE     ---       #336
      010087DCH   LINE      CODE     ---       #337
      010087E6H   LINE      CODE     ---       #338
      ---         BLOCKEND  ---      ---       LVL=0

      01006001H   BLOCK     CODE     ---       LVL=0
      02000013H   SYMBOL    XDATA    BYTE      type
      01006001H   LINE      CODE     ---       #340
      01006006H   LINE      CODE     ---       #341
      01006006H   LINE      CODE     ---       #342
      01006013H   LINE      CODE     ---       #343
      01006018H   LINE      CODE     ---       #344
      0100601EH   LINE      CODE     ---       #345
      01006022H   LINE      CODE     ---       #346
      01006029H   LINE      CODE     ---       #347
      0100602FH   LINE      CODE     ---       #348
      01006035H   LINE      CODE     ---       #349
      01006038H   LINE      CODE     ---       #350
      0100603DH   LINE      CODE     ---       #351
      01006046H   LINE      CODE     ---       #352
      0100604BH   LINE      CODE     ---       #353
      01006052H   LINE      CODE     ---       #354
      01006059H   LINE      CODE     ---       #355
      01006060H   LINE      CODE     ---       #356
      01006067H   LINE      CODE     ---       #357
      01006067H   LINE      CODE     ---       #358
      ---         BLOCKEND  ---      ---       LVL=0

      0100606CH   BLOCK     CODE     ---       LVL=0
      02000015H   SYMBOL    XDATA    BYTE      type
      0100606CH   LINE      CODE     ---       #361
      01006071H   LINE      CODE     ---       #362
      01006071H   LINE      CODE     ---       #363
      0100607EH   LINE      CODE     ---       #364
      01006083H   LINE      CODE     ---       #365
LX51 LINKER/LOCATER V4.66.87.0                                                        04/18/2018  10:36:57  PAGE 121


      01006089H   LINE      CODE     ---       #366
      0100608DH   LINE      CODE     ---       #367
      01006094H   LINE      CODE     ---       #368
      0100609AH   LINE      CODE     ---       #369
      010060A0H   LINE      CODE     ---       #370
      010060A7H   LINE      CODE     ---       #371
      010060A9H   LINE      CODE     ---       #372
      010060B3H   LINE      CODE     ---       #373
      010060B8H   LINE      CODE     ---       #374
      010060BFH   LINE      CODE     ---       #375
      010060C6H   LINE      CODE     ---       #376
      010060CDH   LINE      CODE     ---       #377
      010060D2H   LINE      CODE     ---       #378
      010060D2H   LINE      CODE     ---       #379
      ---         BLOCKEND  ---      ---       LVL=0

      01007505H   BLOCK     CODE     ---       LVL=0
      01007505H   LINE      CODE     ---       #382
      01007519H   LINE      CODE     ---       #384
      0100751CH   LINE      CODE     ---       #386
      0100751FH   LINE      CODE     ---       #387
      01007523H   LINE      CODE     ---       #389
      01007523H   LINE      CODE     ---       #391
      01007526H   LINE      CODE     ---       #392
      01007529H   LINE      CODE     ---       #393
      0100752BH   LINE      CODE     ---       #394
      ---         BLOCKEND  ---      ---       LVL=0

      01008646H   BLOCK     CODE     ---       LVL=0
      00000007H   SYMBOL    DATA     BYTE      year
      01008646H   LINE      CODE     ---       #398
      01008646H   LINE      CODE     ---       #399
      01008646H   LINE      CODE     ---       #400
      0100864EH   LINE      CODE     ---       #401
      0100865CH   LINE      CODE     ---       #402
      ---         BLOCKEND  ---      ---       LVL=0

      01008320H   BLOCK     CODE     ---       LVL=0
      00000007H   SYMBOL    DATA     BYTE      year
      00000005H   SYMBOL    DATA     BYTE      mon
      01008320H   LINE      CODE     ---       #404
      01008320H   LINE      CODE     ---       #405
      01008320H   LINE      CODE     ---       #406
      01008328H   LINE      CODE     ---       #407
      01008330H   LINE      CODE     ---       #408
      0100833CH   LINE      CODE     ---       #409
      ---         BLOCKEND  ---      ---       LVL=0

      01008DD2H   BLOCK     CODE     ---       LVL=0
      00000020H.2 SYMBOL    BIT      BIT       enable
      01008DD2H   LINE      CODE     ---       #411
      01008DD2H   LINE      CODE     ---       #412
      01008DD2H   LINE      CODE     ---       #413
      01008DD6H   LINE      CODE     ---       #414
      01008DDAH   LINE      CODE     ---       #415
      ---         BLOCKEND  ---      ---       LVL=0

      01007B58H   BLOCK     CODE     ---       LVL=0
      01007B58H   LINE      CODE     ---       #417
      01007B58H   LINE      CODE     ---       #418
      01007B58H   LINE      CODE     ---       #419
      01007B61H   LINE      CODE     ---       #420
      01007B66H   LINE      CODE     ---       #421
      01007B6BH   LINE      CODE     ---       #426
      01007B6EH   LINE      CODE     ---       #427
LX51 LINKER/LOCATER V4.66.87.0                                                        04/18/2018  10:36:57  PAGE 122


      01007B71H   LINE      CODE     ---       #428
      01007B74H   LINE      CODE     ---       #429
      01007B76H   LINE      CODE     ---       #430
      01007B7BH   LINE      CODE     ---       #431
      01007B7DH   LINE      CODE     ---       #433
      01007B82H   LINE      CODE     ---       #435
      ---         BLOCKEND  ---      ---       LVL=0

      01008C0FH   BLOCK     CODE     ---       LVL=0
      01008C0FH   LINE      CODE     ---       #439
      01008C0FH   LINE      CODE     ---       #440
      01008C0FH   LINE      CODE     ---       #441
      01008C18H   LINE      CODE     ---       #442
      ---         BLOCKEND  ---      ---       LVL=0

      01008574H   BLOCK     CODE     ---       LVL=0
      01008574H   LINE      CODE     ---       #445
      01008574H   LINE      CODE     ---       #446
      01008574H   LINE      CODE     ---       #447
      0100857DH   LINE      CODE     ---       #448
      01008582H   LINE      CODE     ---       #449
      01008587H   LINE      CODE     ---       #450
      ---         BLOCKEND  ---      ---       LVL=0

      01008F9AH   BLOCK     CODE     ---       LVL=0
      01008F9AH   LINE      CODE     ---       #453
      01008F9AH   LINE      CODE     ---       #454
      01008F9AH   LINE      CODE     ---       #455
      01008F9CH   LINE      CODE     ---       #456
      ---         BLOCKEND  ---      ---       LVL=0

      01008725H   BLOCK     CODE     ---       LVL=0
      01008725H   LINE      CODE     ---       #458
      01008725H   LINE      CODE     ---       #459
      01008725H   LINE      CODE     ---       #460
      01008727H   LINE      CODE     ---       #461
      0100872CH   LINE      CODE     ---       #462
      01008731H   LINE      CODE     ---       #463
      01008736H   LINE      CODE     ---       #464
      ---         BLOCKEND  ---      ---       LVL=0

      ---         MODULE    ---      ---       TIMER
      0100858CH   PUBLIC    CODE     ---       timer_clr
      01008F9DH   PUBLIC    CODE     ---       timer_stop
      01008359H   PUBLIC    CODE     ---       _timer_get_ms10
      010084F7H   PUBLIC    CODE     ---       _timer_inc_sec
      010084DEH   PUBLIC    CODE     ---       _timer_get_sec
      010084C5H   PUBLIC    CODE     ---       _timer_inc_min
      010084ACH   PUBLIC    CODE     ---       _timer_get_min
      0100833DH   PUBLIC    CODE     ---       _timer_inc_hour
      01008493H   PUBLIC    CODE     ---       _timer_get_hour
      01007F76H   PUBLIC    CODE     ---       _timer_save
      0100873BH   PUBLIC    CODE     ---       timer_start
      01008F10H   PUBLIC    CODE     ---       _timer_set_mode
      00000020H.0 PUBLIC    BIT      BIT       ?timer_set_led_autorefresh?BIT
      02000014H   PUBLIC    XDATA    BYTE      ?timer_set_led_autorefresh?BYTE
      01008A96H   PUBLIC    CODE     ---       timer_set_led_autorefresh
      01008DDBH   PUBLIC    CODE     ---       timer_leave_powersave
      01008C5FH   PUBLIC    CODE     ---       timer_enter_powersave
      01008993H   PUBLIC    CODE     ---       timer_initialize
      01004086H   PUBLIC    CODE     ---       timer_inc_ms39
      00000021H.4 SYMBOL    BIT      BIT       tmr_display
      00000021H.5 SYMBOL    BIT      BIT       tmr_countdown_stop
      00000036H   SYMBOL    IDATA    ---       tmr
      020000D2H   SYMBOL    XDATA    BYTE      tmr_mode
LX51 LINKER/LOCATER V4.66.87.0                                                        04/18/2018  10:36:57  PAGE 123


      00000021H.6 SYMBOL    BIT      BIT       tmr_start
      00000021H.7 SYMBOL    BIT      BIT       tmr_disp_mmssms

      010075ADH   BLOCK     CODE     ---       LVL=0
      ---         BLOCKEND  ---      ---       LVL=0

      01004086H   BLOCK     CODE     ---       LVL=0
      01004086H   BLOCK     CODE     NEAR LAB  LVL=1
      00000007H   SYMBOL    DATA     BYTE      ms10
      ---         BLOCKEND  ---      ---       LVL=1
      01004086H   LINE      CODE     ---       #18
      01004086H   LINE      CODE     ---       #19
      01004086H   LINE      CODE     ---       #22
      0100408CH   LINE      CODE     ---       #25
      01004092H   LINE      CODE     ---       #26
      01004095H   LINE      CODE     ---       #27
      01004098H   LINE      CODE     ---       #28
      0100409EH   LINE      CODE     ---       #29
      010040A1H   LINE      CODE     ---       #30
      010040A7H   LINE      CODE     ---       #31
      010040AAH   LINE      CODE     ---       #32
      010040B4H   LINE      CODE     ---       #33
      010040B4H   LINE      CODE     ---       #34
      010040B4H   LINE      CODE     ---       #35
      010040B4H   LINE      CODE     ---       #36
      010040B6H   LINE      CODE     ---       #37
      010040B9H   LINE      CODE     ---       #38
      010040CAH   LINE      CODE     ---       #41
      010040CAH   LINE      CODE     ---       #42
      010040CDH   LINE      CODE     ---       #43
      010040D1H   LINE      CODE     ---       #44
      010040D3H   LINE      CODE     ---       #45
      010040D7H   LINE      CODE     ---       #46
      010040D9H   LINE      CODE     ---       #47
      010040DBH   LINE      CODE     ---       #48
      010040DFH   LINE      CODE     ---       #49
      010040E1H   LINE      CODE     ---       #50
      010040E8H   LINE      CODE     ---       #51
      010040E9H   LINE      CODE     ---       #52
      010040E9H   LINE      CODE     ---       #53
      010040E9H   LINE      CODE     ---       #54
      010040E9H   LINE      CODE     ---       #55
      010040E9H   LINE      CODE     ---       #56
      010040EBH   LINE      CODE     ---       #57
      010040EDH   LINE      CODE     ---       #58
      010040F6H   LINE      CODE     ---       #59
      010040F6H   LINE      CODE     ---       #60
      010040F6H   LINE      CODE     ---       #61
      010040F6H   LINE      CODE     ---       #62
      010040F9H   LINE      CODE     ---       #63
      01004101H   LINE      CODE     ---       #64
      01004104H   LINE      CODE     ---       #65
      01004113H   LINE      CODE     ---       #66
      01004117H   LINE      CODE     ---       #67
      01004123H   LINE      CODE     ---       #68
      01004127H   LINE      CODE     ---       #69
      0100412EH   LINE      CODE     ---       #70
      0100412EH   LINE      CODE     ---       #71
      01004130H   LINE      CODE     ---       #72
      0100413AH   LINE      CODE     ---       #73
      0100413DH   LINE      CODE     ---       #74
      01004144H   LINE      CODE     ---       #75
      01004147H   LINE      CODE     ---       #76
      0100414FH   LINE      CODE     ---       #77
      01004152H   LINE      CODE     ---       #78
LX51 LINKER/LOCATER V4.66.87.0                                                        04/18/2018  10:36:57  PAGE 124


      01004152H   LINE      CODE     ---       #79
      01004158H   LINE      CODE     ---       #80
      0100415EH   LINE      CODE     ---       #81
      0100415EH   LINE      CODE     ---       #82
      ---         BLOCKEND  ---      ---       LVL=0

      01008993H   BLOCK     CODE     ---       LVL=0
      01008993H   LINE      CODE     ---       #85
      01008993H   LINE      CODE     ---       #86
      01008993H   LINE      CODE     ---       #87
      0100899CH   LINE      CODE     ---       #89
      0100899EH   LINE      CODE     ---       #90
      010089A0H   LINE      CODE     ---       #91
      010089A2H   LINE      CODE     ---       #92
      010089A4H   LINE      CODE     ---       #93
      ---         BLOCKEND  ---      ---       LVL=0

      01008C5FH   BLOCK     CODE     ---       LVL=0
      01008C5FH   LINE      CODE     ---       #95
      01008C5FH   LINE      CODE     ---       #96
      01008C5FH   LINE      CODE     ---       #97
      01008C68H   LINE      CODE     ---       #98
      ---         BLOCKEND  ---      ---       LVL=0

      01008DDBH   BLOCK     CODE     ---       LVL=0
      01008DDBH   LINE      CODE     ---       #101
      01008DDBH   LINE      CODE     ---       #102
      01008DDBH   LINE      CODE     ---       #103
      ---         BLOCKEND  ---      ---       LVL=0

      01008A96H   BLOCK     CODE     ---       LVL=0
      00000020H.0 SYMBOL    BIT      BIT       enable
      02000014H   SYMBOL    XDATA    BYTE      mode
      01008A96H   LINE      CODE     ---       #106
      01008A96H   LINE      CODE     ---       #107
      01008A96H   LINE      CODE     ---       #108
      01008A9AH   LINE      CODE     ---       #109
      01008AA0H   LINE      CODE     ---       #110
      01008AA2H   LINE      CODE     ---       #111
      01008AA3H   LINE      CODE     ---       #112
      01008AA5H   LINE      CODE     ---       #113
      01008AA5H   LINE      CODE     ---       #114
      ---         BLOCKEND  ---      ---       LVL=0

      01008F10H   BLOCK     CODE     ---       LVL=0
      00000007H   SYMBOL    DATA     BYTE      mode
      01008F10H   LINE      CODE     ---       #116
      01008F10H   LINE      CODE     ---       #117
      01008F10H   LINE      CODE     ---       #118
      01008F15H   LINE      CODE     ---       #119
      ---         BLOCKEND  ---      ---       LVL=0

      0100873BH   BLOCK     CODE     ---       LVL=0
      0100873BH   LINE      CODE     ---       #121
      0100873BH   LINE      CODE     ---       #122
      0100873BH   LINE      CODE     ---       #123
      0100874CH   LINE      CODE     ---       #124
      0100874EH   LINE      CODE     ---       #125
      01008750H   LINE      CODE     ---       #126
      ---         BLOCKEND  ---      ---       LVL=0

      01007F76H   BLOCK     CODE     ---       LVL=0
      00000007H   SYMBOL    DATA     BYTE      slot
      01007F76H   LINE      CODE     ---       #128
      01007F76H   LINE      CODE     ---       #129
LX51 LINKER/LOCATER V4.66.87.0                                                        04/18/2018  10:36:57  PAGE 125


      01007F76H   LINE      CODE     ---       #130
      01007F81H   LINE      CODE     ---       #131
      01007F99H   LINE      CODE     ---       #132
      01007F99H   LINE      CODE     ---       #133
      ---         BLOCKEND  ---      ---       LVL=0

      01008493H   BLOCK     CODE     ---       LVL=0
      00000007H   SYMBOL    DATA     BYTE      slot
      01008493H   LINE      CODE     ---       #135
      01008493H   LINE      CODE     ---       #136
      01008493H   LINE      CODE     ---       #137
      0100849EH   LINE      CODE     ---       #138
      010084A9H   LINE      CODE     ---       #139
      010084A9H   LINE      CODE     ---       #140
      010084ABH   LINE      CODE     ---       #141
      ---         BLOCKEND  ---      ---       LVL=0

      0100833DH   BLOCK     CODE     ---       LVL=0
      00000007H   SYMBOL    DATA     BYTE      slot
      0100833DH   LINE      CODE     ---       #142
      0100833DH   LINE      CODE     ---       #143
      0100833DH   LINE      CODE     ---       #144
      01008348H   LINE      CODE     ---       #145
      01008358H   LINE      CODE     ---       #146
      01008358H   LINE      CODE     ---       #147
      ---         BLOCKEND  ---      ---       LVL=0

      010084ACH   BLOCK     CODE     ---       LVL=0
      00000007H   SYMBOL    DATA     BYTE      slot
      010084ACH   LINE      CODE     ---       #149
      010084ACH   LINE      CODE     ---       #150
      010084ACH   LINE      CODE     ---       #151
      010084B7H   LINE      CODE     ---       #152
      010084C2H   LINE      CODE     ---       #153
      010084C2H   LINE      CODE     ---       #154
      010084C4H   LINE      CODE     ---       #155
      ---         BLOCKEND  ---      ---       LVL=0

      010084C5H   BLOCK     CODE     ---       LVL=0
      00000007H   SYMBOL    DATA     BYTE      slot
      010084C5H   LINE      CODE     ---       #156
      010084C5H   LINE      CODE     ---       #157
      010084C5H   LINE      CODE     ---       #158
      010084D0H   LINE      CODE     ---       #159
      010084DDH   LINE      CODE     ---       #160
      010084DDH   LINE      CODE     ---       #161
      ---         BLOCKEND  ---      ---       LVL=0

      010084DEH   BLOCK     CODE     ---       LVL=0
      00000007H   SYMBOL    DATA     BYTE      slot
      010084DEH   LINE      CODE     ---       #164
      010084DEH   LINE      CODE     ---       #165
      010084DEH   LINE      CODE     ---       #166
      010084E9H   LINE      CODE     ---       #167
      010084F4H   LINE      CODE     ---       #168
      010084F4H   LINE      CODE     ---       #169
      010084F6H   LINE      CODE     ---       #170
      ---         BLOCKEND  ---      ---       LVL=0

      010084F7H   BLOCK     CODE     ---       LVL=0
      00000007H   SYMBOL    DATA     BYTE      slot
      010084F7H   LINE      CODE     ---       #171
      010084F7H   LINE      CODE     ---       #172
      010084F7H   LINE      CODE     ---       #173
      01008502H   LINE      CODE     ---       #174
LX51 LINKER/LOCATER V4.66.87.0                                                        04/18/2018  10:36:57  PAGE 126


      0100850FH   LINE      CODE     ---       #175
      0100850FH   LINE      CODE     ---       #176
      ---         BLOCKEND  ---      ---       LVL=0

      01008359H   BLOCK     CODE     ---       LVL=0
      00000007H   SYMBOL    DATA     BYTE      slot
      01008359H   LINE      CODE     ---       #178
      01008359H   LINE      CODE     ---       #179
      01008359H   LINE      CODE     ---       #181
      01008364H   LINE      CODE     ---       #182
      01008372H   LINE      CODE     ---       #183
      01008372H   LINE      CODE     ---       #184
      01008374H   LINE      CODE     ---       #185
      ---         BLOCKEND  ---      ---       LVL=0

      01008F9DH   BLOCK     CODE     ---       LVL=0
      01008F9DH   LINE      CODE     ---       #187
      01008F9DH   LINE      CODE     ---       #188
      01008F9DH   LINE      CODE     ---       #189
      01008F9FH   LINE      CODE     ---       #190
      ---         BLOCKEND  ---      ---       LVL=0

      0100858CH   BLOCK     CODE     ---       LVL=0
      0100858CH   LINE      CODE     ---       #192
      0100858CH   LINE      CODE     ---       #193
      0100858CH   LINE      CODE     ---       #194
      0100859BH   LINE      CODE     ---       #196
      0100859DH   LINE      CODE     ---       #197
      0100859FH   LINE      CODE     ---       #198
      010085A1H   LINE      CODE     ---       #199
      010085A3H   LINE      CODE     ---       #200
      ---         BLOCKEND  ---      ---       LVL=0

      ---         MODULE    ---      ---       INT_HUB
      0100645EH   PUBLIC    CODE     ---       _scan_int_hub_proc
      01001CDCH   PUBLIC    CODE     ---       _int_hub_dump_ext_status
      010062D9H   PUBLIC    CODE     ---       int_hub_get_status
      010063FEH   PUBLIC    CODE     ---       int_hub_dump
      01007DD8H   PUBLIC    CODE     ---       _int_hub_test_bit
      01005F95H   PUBLIC    CODE     ---       int_hub_initialize
      00000080H   SFRSYM    DATA     BYTE      P0
      00000090H   SFRSYM    DATA     BYTE      P1
      000000A0H   SFRSYM    DATA     BYTE      P2
      000000B0H   SFRSYM    DATA     BYTE      P3
      000000C0H   SFRSYM    DATA     BYTE      XICON
      000000B0H.4 SFRSYM    DATA     BIT       T0
      000000D0H.6 SFRSYM    DATA     BIT       AC
      000000E8H   SFRSYM    DATA     BYTE      P4
      000000B0H.5 SFRSYM    DATA     BIT       T1
      000000E6H   SFRSYM    DATA     BYTE      ISP_TRIG
      00000090H.0 SFRSYM    DATA     BIT       T2
      000000A8H.7 SFRSYM    DATA     BIT       EA
      000000A8H.6 SFRSYM    DATA     BIT       EC
      00000098H.7 SFRSYM    DATA     BIT       FE
      000000A8H   SFRSYM    DATA     BYTE      IE
      000000C8H.6 SFRSYM    DATA     BIT       EXF2
      000000B0H.7 SFRSYM    DATA     BIT       RD
      000000A8H.4 SFRSYM    DATA     BIT       ES
      000000B8H   SFRSYM    DATA     BYTE      IP
      00000098H.0 SFRSYM    DATA     BIT       RI
      000000B0H.2 SFRSYM    DATA     BIT       INT0
      000000D0H.7 SFRSYM    DATA     BIT       CY
      00000098H.1 SFRSYM    DATA     BIT       TI
      000000B0H.3 SFRSYM    DATA     BIT       INT1
      00000090H.3 SFRSYM    DATA     BIT       THERMO_INT
LX51 LINKER/LOCATER V4.66.87.0                                                        04/18/2018  10:36:57  PAGE 127


      000000CBH   SFRSYM    DATA     BYTE      RCAP2H
      000000E5H   SFRSYM    DATA     BYTE      ISP_CMD
      000000B8H.4 SFRSYM    DATA     BIT       PS
      00000081H   SFRSYM    DATA     BYTE      SP
      00000090H.1 SFRSYM    DATA     BIT       T2EX
      000000D0H.2 SFRSYM    DATA     BIT       OV
      000000CAH   SFRSYM    DATA     BYTE      RCAP2L
      000000C8H.1 SFRSYM    DATA     BIT       C_T2
      000000B0H.6 SFRSYM    DATA     BIT       WR
      000000B0H.3 SFRSYM    DATA     BIT       INT_BIT
      000000C8H.5 SFRSYM    DATA     BIT       RCLK
      000000C8H.4 SFRSYM    DATA     BIT       TCLK
      00000080H.0 SFRSYM    DATA     BIT       P00
      00000099H   SFRSYM    DATA     BYTE      SBUF
      00000087H   SFRSYM    DATA     BYTE      PCON
      00000090H.0 SFRSYM    DATA     BIT       P10
      00000080H.1 SFRSYM    DATA     BIT       P01
      000000A0H.0 SFRSYM    DATA     BIT       P20
      00000090H.1 SFRSYM    DATA     BIT       P11
      00000080H.2 SFRSYM    DATA     BIT       P02
      000000E3H   SFRSYM    DATA     BYTE      ISP_ADDRH
      000000B0H.0 SFRSYM    DATA     BIT       P30
      000000A0H.1 SFRSYM    DATA     BIT       P21
      00000090H.2 SFRSYM    DATA     BIT       P12
      00000080H.3 SFRSYM    DATA     BIT       P03
      00000098H   SFRSYM    DATA     BYTE      SCON
      000000B0H.1 SFRSYM    DATA     BIT       P31
      000000A0H.2 SFRSYM    DATA     BIT       P22
      00000090H.3 SFRSYM    DATA     BIT       P13
      00000080H.4 SFRSYM    DATA     BIT       P04
      000000E8H.0 SFRSYM    DATA     BIT       P40
      00000089H   SFRSYM    DATA     BYTE      TMOD
      00000088H   SFRSYM    DATA     BYTE      TCON
      000000B0H.2 SFRSYM    DATA     BIT       P32
      000000A0H.3 SFRSYM    DATA     BIT       P23
      00000090H.4 SFRSYM    DATA     BIT       P14
      00000080H.5 SFRSYM    DATA     BIT       P05
      000000E8H.1 SFRSYM    DATA     BIT       P41
      00000090H.1 SFRSYM    DATA     BIT       RTC_INT
      000000B0H.3 SFRSYM    DATA     BIT       P33
      000000A0H.4 SFRSYM    DATA     BIT       P24
      00000090H.5 SFRSYM    DATA     BIT       P15
      00000080H.6 SFRSYM    DATA     BIT       P06
      000000E4H   SFRSYM    DATA     BYTE      ISP_ADDRL
      000000E8H.2 SFRSYM    DATA     BIT       P42
      000000B0H.4 SFRSYM    DATA     BIT       P34
      000000A0H.5 SFRSYM    DATA     BIT       P25
      00000090H.6 SFRSYM    DATA     BIT       P16
      00000080H.7 SFRSYM    DATA     BIT       P07
      000000E8H.3 SFRSYM    DATA     BIT       P43
      000000B0H.5 SFRSYM    DATA     BIT       P35
      000000A0H.6 SFRSYM    DATA     BIT       P26
      00000090H.7 SFRSYM    DATA     BIT       P17
      000000E8H.4 SFRSYM    DATA     BIT       P44
      000000B0H.6 SFRSYM    DATA     BIT       P36
      000000A0H.7 SFRSYM    DATA     BIT       P27
      000000E8H.5 SFRSYM    DATA     BIT       P45
      000000B0H.7 SFRSYM    DATA     BIT       P37
      000000E8H.6 SFRSYM    DATA     BIT       P46
      00000090H.4 SFRSYM    DATA     BIT       EXT_INT
      00000088H.1 SFRSYM    DATA     BIT       IE0
      00000090H.2 SFRSYM    DATA     BIT       MPU_INT
      00000088H.3 SFRSYM    DATA     BIT       IE1
      0000008EH   SFRSYM    DATA     BYTE      AUXR
      000000F0H   SFRSYM    DATA     BYTE      B
LX51 LINKER/LOCATER V4.66.87.0                                                        04/18/2018  10:36:57  PAGE 128


      000000C8H.0 SFRSYM    DATA     BIT       CP_RL2
      000000E0H   SFRSYM    DATA     BYTE      ACC
      000000A8H.1 SFRSYM    DATA     BIT       ET0
      000000A8H.3 SFRSYM    DATA     BIT       ET1
      00000088H.5 SFRSYM    DATA     BIT       TF0
      000000A8H.5 SFRSYM    DATA     BIT       ET2
      00000088H.7 SFRSYM    DATA     BIT       TF1
      000000C8H.7 SFRSYM    DATA     BIT       TF2
      00000098H.2 SFRSYM    DATA     BIT       RB8
      0000008CH   SFRSYM    DATA     BYTE      TH0
      000000A8H.0 SFRSYM    DATA     BIT       EX0
      00000088H.0 SFRSYM    DATA     BIT       IT0
      0000008DH   SFRSYM    DATA     BYTE      TH1
      00000098H.3 SFRSYM    DATA     BIT       TB8
      000000A8H.2 SFRSYM    DATA     BIT       EX1
      00000088H.2 SFRSYM    DATA     BIT       IT1
      000000CDH   SFRSYM    DATA     BYTE      TH2
      000000D0H.0 SFRSYM    DATA     BIT       P
      00000098H.7 SFRSYM    DATA     BIT       SM0
      0000008AH   SFRSYM    DATA     BYTE      TL0
      00000098H.6 SFRSYM    DATA     BIT       SM1
      0000008BH   SFRSYM    DATA     BYTE      TL1
      00000098H.5 SFRSYM    DATA     BIT       SM2
      000000CCH   SFRSYM    DATA     BYTE      TL2
      000000B8H.1 SFRSYM    DATA     BIT       PT0
      000000B8H.3 SFRSYM    DATA     BIT       PT1
      000000D0H.3 SFRSYM    DATA     BIT       RS0
      000000E7H   SFRSYM    DATA     BYTE      ISP_CONTR
      000000B8H.5 SFRSYM    DATA     BIT       PT2
      00000088H.4 SFRSYM    DATA     BIT       TR0
      000000D0H.4 SFRSYM    DATA     BIT       RS1
      00000088H.6 SFRSYM    DATA     BIT       TR1
      000000C8H.2 SFRSYM    DATA     BIT       TR2
      000000B8H.0 SFRSYM    DATA     BIT       PX0
      000000E1H   SFRSYM    DATA     BYTE      WDT_CONTR
      000000B8H.2 SFRSYM    DATA     BIT       PX1
      00000083H   SFRSYM    DATA     BYTE      DPH
      00000082H   SFRSYM    DATA     BYTE      DPL
      000000B7H   SFRSYM    DATA     BYTE      IPH
      000000C8H.3 SFRSYM    DATA     BIT       EXEN2
      00000098H.4 SFRSYM    DATA     BIT       REN
      000000C9H   SFRSYM    DATA     BYTE      T2MOD
      000000C8H   SFRSYM    DATA     BYTE      T2CON
      000000E2H   SFRSYM    DATA     BYTE      ISP_DATA
      000000B9H   SFRSYM    DATA     BYTE      SADEN
      000000B0H.0 SFRSYM    DATA     BIT       RXD
      000000A9H   SFRSYM    DATA     BYTE      SADDR
      000000B0H.1 SFRSYM    DATA     BIT       TXD
      000000A2H   SFRSYM    DATA     BYTE      AUXR1
      000000D0H.5 SFRSYM    DATA     BIT       F0
      000000D0H   SFRSYM    DATA     BYTE      PSW
      01008A54H   SYMBOL    CODE     ---       int1_ISR

      01008910H   BLOCK     CODE     ---       LVL=0
      ---         BLOCKEND  ---      ---       LVL=0

      01008A54H   BLOCK     CODE     ---       LVL=0
      01008A54H   LINE      CODE     ---       #29
      01008A5BH   LINE      CODE     ---       #31
      01008A5DH   LINE      CODE     ---       #32
      01008A60H   LINE      CODE     ---       #33
      ---         BLOCKEND  ---      ---       LVL=0

      01005F95H   BLOCK     CODE     ---       LVL=0
      01005F95H   BLOCK     CODE     NEAR LAB  LVL=1
LX51 LINKER/LOCATER V4.66.87.0                                                        04/18/2018  10:36:57  PAGE 129


      02000000H   SYMBOL    XDATA    BYTE      val
      ---         BLOCKEND  ---      ---       LVL=1
      01005F95H   LINE      CODE     ---       #35
      01005F95H   LINE      CODE     ---       #36
      01005F95H   LINE      CODE     ---       #38
      01005F9EH   LINE      CODE     ---       #40
      01005FA7H   LINE      CODE     ---       #42
      01005FA9H   LINE      CODE     ---       #46
      01005FB3H   LINE      CODE     ---       #47
      01005FBAH   LINE      CODE     ---       #50
      01005FC3H   LINE      CODE     ---       #52
      01005FC5H   LINE      CODE     ---       #55
      01005FCFH   LINE      CODE     ---       #56
      01005FD6H   LINE      CODE     ---       #58
      01005FD8H   LINE      CODE     ---       #59
      01005FDAH   LINE      CODE     ---       #60
      01005FDCH   LINE      CODE     ---       #61
      01005FDEH   LINE      CODE     ---       #62
      01005FE0H   LINE      CODE     ---       #64
      01005FE2H   LINE      CODE     ---       #65
      01005FE4H   LINE      CODE     ---       #66
      ---         BLOCKEND  ---      ---       LVL=0

      01007DD8H   BLOCK     CODE     ---       LVL=0
      00000007H   SYMBOL    DATA     BYTE      index
      00000004H   SYMBOL    DATA     WORD      status
      01007DD8H   LINE      CODE     ---       #69
      01007DD8H   LINE      CODE     ---       #70
      01007DD8H   LINE      CODE     ---       #71
      01007DDEH   LINE      CODE     ---       #72
      01007DDFH   LINE      CODE     ---       #74
      01007DFEH   LINE      CODE     ---       #75
      ---         BLOCKEND  ---      ---       LVL=0

      010063FEH   BLOCK     CODE     ---       LVL=0
      010063FEH   LINE      CODE     ---       #77
      010063FEH   LINE      CODE     ---       #78
      010063FEH   LINE      CODE     ---       #80
      01006407H   LINE      CODE     ---       #81
      01006414H   LINE      CODE     ---       #82
      01006422H   LINE      CODE     ---       #83
      01006430H   LINE      CODE     ---       #84
      0100643EH   LINE      CODE     ---       #85
      01006448H   LINE      CODE     ---       #86
      ---         BLOCKEND  ---      ---       LVL=0

      010062D9H   BLOCK     CODE     ---       LVL=0
      010062D9H   BLOCK     CODE     NEAR LAB  LVL=1
      02000016H   SYMBOL    XDATA    WORD      status
      02000018H   SYMBOL    XDATA    BYTE      val
      ---         BLOCKEND  ---      ---       LVL=1
      010062D9H   LINE      CODE     ---       #88
      010062D9H   LINE      CODE     ---       #89
      010062D9H   LINE      CODE     ---       #90
      010062E0H   LINE      CODE     ---       #93
      010062EDH   LINE      CODE     ---       #94
      010062F1H   LINE      CODE     ---       #95
      010062F9H   LINE      CODE     ---       #97
      01006302H   LINE      CODE     ---       #98
      0100630FH   LINE      CODE     ---       #99
      01006313H   LINE      CODE     ---       #100
      01006325H   LINE      CODE     ---       #102
      01006325H   LINE      CODE     ---       #103
      ---         BLOCKEND  ---      ---       LVL=0

LX51 LINKER/LOCATER V4.66.87.0                                                        04/18/2018  10:36:57  PAGE 130


      01001CDCH   BLOCK     CODE     ---       LVL=0
      02000016H   SYMBOL    XDATA    WORD      status
      01001CDCH   LINE      CODE     ---       #105
      01001CE4H   LINE      CODE     ---       #106
      01001CE4H   LINE      CODE     ---       #107
      01001CEDH   LINE      CODE     ---       #108
      01001D0EH   LINE      CODE     ---       #109
      01001D26H   LINE      CODE     ---       #110
      01001D3EH   LINE      CODE     ---       #111
      01001D56H   LINE      CODE     ---       #112
      01001D6EH   LINE      CODE     ---       #113
      01001D86H   LINE      CODE     ---       #114
      01001D9EH   LINE      CODE     ---       #115
      01001DB6H   LINE      CODE     ---       #116
      01001DCEH   LINE      CODE     ---       #117
      01001DE6H   LINE      CODE     ---       #118
      01001DFEH   LINE      CODE     ---       #119
      01001E16H   LINE      CODE     ---       #120
      01001E2EH   LINE      CODE     ---       #121
      01001E46H   LINE      CODE     ---       #122
      01001E61H   LINE      CODE     ---       #123
      01001E81H   LINE      CODE     ---       #124
      01001E8AH   LINE      CODE     ---       #125
      ---         BLOCKEND  ---      ---       LVL=0

      0100645EH   BLOCK     CODE     ---       LVL=0
      02000013H   SYMBOL    XDATA    BYTE      ev
      01006463H   BLOCK     CODE     NEAR LAB  LVL=1
      02000014H   SYMBOL    XDATA    WORD      status
      ---         BLOCKEND  ---      ---       LVL=1
      0100645EH   LINE      CODE     ---       #127
      01006463H   LINE      CODE     ---       #128
      01006463H   LINE      CODE     ---       #129
      01006468H   LINE      CODE     ---       #130
      01006471H   LINE      CODE     ---       #132
      01006471H   LINE      CODE     ---       #134
      01006474H   LINE      CODE     ---       #136
      01006477H   LINE      CODE     ---       #137
      0100647AH   LINE      CODE     ---       #138
      0100647AH   LINE      CODE     ---       #141
      0100647DH   LINE      CODE     ---       #149
      01006488H   LINE      CODE     ---       #150
      0100648BH   LINE      CODE     ---       #151
      01006496H   LINE      CODE     ---       #152
      010064A1H   LINE      CODE     ---       #153
      010064A1H   LINE      CODE     ---       #156
      010064A4H   LINE      CODE     ---       #157
      010064A7H   LINE      CODE     ---       #158
      010064A7H   LINE      CODE     ---       #160
      010064AAH   LINE      CODE     ---       #161
      010064ADH   LINE      CODE     ---       #162
      010064ADH   LINE      CODE     ---       #164
      010064B9H   LINE      CODE     ---       #165
      010064BCH   LINE      CODE     ---       #166
      010064BCH   LINE      CODE     ---       #168
      ---         BLOCKEND  ---      ---       LVL=0

      ---         MODULE    ---      ---       FUSE
      00000020H.0 PUBLIC    BIT      BIT       ?fuse_enable?BIT
      01007ACFH   PUBLIC    CODE     ---       fuse_enable
      00000020H.0 PUBLIC    BIT      BIT       ?fuse_set_tripwire_broke?BIT
      01007E72H   PUBLIC    CODE     ---       fuse_set_tripwire_broke
      00000020H.0 PUBLIC    BIT      BIT       ?_fuse_set_fuse_broke?BIT
      01007158H   PUBLIC    CODE     ---       _fuse_set_fuse_broke
      01008751H   PUBLIC    CODE     ---       _fuse_proc
LX51 LINKER/LOCATER V4.66.87.0                                                        04/18/2018  10:36:57  PAGE 131


      01005A00H   PUBLIC    CODE     ---       _scan_fuse
      01008DEDH   PUBLIC    CODE     ---       fuse_leave_powersave
      01008DE4H   PUBLIC    CODE     ---       fuse_enter_powersave
      00000020H.0 PUBLIC    BIT      BIT       ?fuse_trigger?BIT
      01007B85H   PUBLIC    CODE     ---       fuse_trigger
      01008C1DH   PUBLIC    CODE     ---       fuse_initialize
      00000080H   SFRSYM    DATA     BYTE      P0
      00000090H   SFRSYM    DATA     BYTE      P1
      000000A0H   SFRSYM    DATA     BYTE      P2
      000000B0H   SFRSYM    DATA     BYTE      P3
      000000C0H   SFRSYM    DATA     BYTE      XICON
      000000B0H.4 SFRSYM    DATA     BIT       T0
      000000D0H.6 SFRSYM    DATA     BIT       AC
      000000E8H   SFRSYM    DATA     BYTE      P4
      000000B0H.5 SFRSYM    DATA     BIT       T1
      000000E6H   SFRSYM    DATA     BYTE      ISP_TRIG
      00000090H.0 SFRSYM    DATA     BIT       T2
      000000A8H.7 SFRSYM    DATA     BIT       EA
      000000A8H.6 SFRSYM    DATA     BIT       EC
      00000098H.7 SFRSYM    DATA     BIT       FE
      000000A8H   SFRSYM    DATA     BYTE      IE
      000000C8H.6 SFRSYM    DATA     BIT       EXF2
      000000B0H.7 SFRSYM    DATA     BIT       RD
      000000A8H.4 SFRSYM    DATA     BIT       ES
      000000B8H   SFRSYM    DATA     BYTE      IP
      00000098H.0 SFRSYM    DATA     BIT       RI
      000000B0H.2 SFRSYM    DATA     BIT       INT0
      000000D0H.7 SFRSYM    DATA     BIT       CY
      00000098H.1 SFRSYM    DATA     BIT       TI
      000000B0H.3 SFRSYM    DATA     BIT       INT1
      000000CBH   SFRSYM    DATA     BYTE      RCAP2H
      000000E5H   SFRSYM    DATA     BYTE      ISP_CMD
      000000B8H.4 SFRSYM    DATA     BIT       PS
      00000081H   SFRSYM    DATA     BYTE      SP
      00000090H.1 SFRSYM    DATA     BIT       T2EX
      000000D0H.2 SFRSYM    DATA     BIT       OV
      000000CAH   SFRSYM    DATA     BYTE      RCAP2L
      000000C8H.1 SFRSYM    DATA     BIT       C_T2
      000000B0H.6 SFRSYM    DATA     BIT       WR
      000000C8H.5 SFRSYM    DATA     BIT       RCLK
      000000C8H.4 SFRSYM    DATA     BIT       TCLK
      00000080H.0 SFRSYM    DATA     BIT       P00
      00000099H   SFRSYM    DATA     BYTE      SBUF
      00000087H   SFRSYM    DATA     BYTE      PCON
      00000090H.0 SFRSYM    DATA     BIT       P10
      00000080H.1 SFRSYM    DATA     BIT       P01
      000000A0H.0 SFRSYM    DATA     BIT       P20
      00000090H.1 SFRSYM    DATA     BIT       P11
      00000080H.2 SFRSYM    DATA     BIT       P02
      000000E3H   SFRSYM    DATA     BYTE      ISP_ADDRH
      000000B0H.0 SFRSYM    DATA     BIT       P30
      000000A0H.1 SFRSYM    DATA     BIT       P21
      00000090H.2 SFRSYM    DATA     BIT       P12
      00000080H.3 SFRSYM    DATA     BIT       P03
      00000098H   SFRSYM    DATA     BYTE      SCON
      000000B0H.1 SFRSYM    DATA     BIT       P31
      000000A0H.2 SFRSYM    DATA     BIT       P22
      00000090H.3 SFRSYM    DATA     BIT       P13
      00000080H.4 SFRSYM    DATA     BIT       P04
      000000E8H.0 SFRSYM    DATA     BIT       P40
      00000089H   SFRSYM    DATA     BYTE      TMOD
      00000088H   SFRSYM    DATA     BYTE      TCON
      000000B0H.2 SFRSYM    DATA     BIT       P32
      000000A0H.3 SFRSYM    DATA     BIT       P23
      00000090H.4 SFRSYM    DATA     BIT       P14
LX51 LINKER/LOCATER V4.66.87.0                                                        04/18/2018  10:36:57  PAGE 132


      00000080H.5 SFRSYM    DATA     BIT       P05
      000000E8H.1 SFRSYM    DATA     BIT       P41
      000000B0H.3 SFRSYM    DATA     BIT       P33
      000000A0H.4 SFRSYM    DATA     BIT       P24
      00000090H.5 SFRSYM    DATA     BIT       P15
      00000080H.6 SFRSYM    DATA     BIT       P06
      000000E4H   SFRSYM    DATA     BYTE      ISP_ADDRL
      000000E8H.2 SFRSYM    DATA     BIT       P42
      000000B0H.4 SFRSYM    DATA     BIT       P34
      000000A0H.5 SFRSYM    DATA     BIT       P25
      00000090H.6 SFRSYM    DATA     BIT       P16
      00000080H.7 SFRSYM    DATA     BIT       P07
      000000E8H.3 SFRSYM    DATA     BIT       P43
      000000B0H.5 SFRSYM    DATA     BIT       P35
      000000A0H.6 SFRSYM    DATA     BIT       P26
      00000090H.7 SFRSYM    DATA     BIT       P17
      000000E8H.4 SFRSYM    DATA     BIT       P44
      000000B0H.6 SFRSYM    DATA     BIT       P36
      000000A0H.7 SFRSYM    DATA     BIT       P27
      000000E8H.5 SFRSYM    DATA     BIT       P45
      000000B0H.7 SFRSYM    DATA     BIT       P37
      000000E8H.6 SFRSYM    DATA     BIT       P46
      00000088H.1 SFRSYM    DATA     BIT       IE0
      00000088H.3 SFRSYM    DATA     BIT       IE1
      0000008EH   SFRSYM    DATA     BYTE      AUXR
      000000F0H   SFRSYM    DATA     BYTE      B
      000000C8H.0 SFRSYM    DATA     BIT       CP_RL2
      000000E0H   SFRSYM    DATA     BYTE      ACC
      000000A8H.1 SFRSYM    DATA     BIT       ET0
      000000A8H.3 SFRSYM    DATA     BIT       ET1
      00000088H.5 SFRSYM    DATA     BIT       TF0
      000000A8H.5 SFRSYM    DATA     BIT       ET2
      00000088H.7 SFRSYM    DATA     BIT       TF1
      000000C8H.7 SFRSYM    DATA     BIT       TF2
      00000098H.2 SFRSYM    DATA     BIT       RB8
      0000008CH   SFRSYM    DATA     BYTE      TH0
      000000A8H.0 SFRSYM    DATA     BIT       EX0
      00000088H.0 SFRSYM    DATA     BIT       IT0
      0000008DH   SFRSYM    DATA     BYTE      TH1
      00000098H.3 SFRSYM    DATA     BIT       TB8
      000000A8H.2 SFRSYM    DATA     BIT       EX1
      00000088H.2 SFRSYM    DATA     BIT       IT1
      000000CDH   SFRSYM    DATA     BYTE      TH2
      000000D0H.0 SFRSYM    DATA     BIT       P
      00000098H.7 SFRSYM    DATA     BIT       SM0
      0000008AH   SFRSYM    DATA     BYTE      TL0
      00000098H.6 SFRSYM    DATA     BIT       SM1
      0000008BH   SFRSYM    DATA     BYTE      TL1
      00000098H.5 SFRSYM    DATA     BIT       SM2
      000000CCH   SFRSYM    DATA     BYTE      TL2
      000000B8H.1 SFRSYM    DATA     BIT       PT0
      000000B8H.3 SFRSYM    DATA     BIT       PT1
      000000D0H.3 SFRSYM    DATA     BIT       RS0
      000000E7H   SFRSYM    DATA     BYTE      ISP_CONTR
      000000B8H.5 SFRSYM    DATA     BIT       PT2
      00000088H.4 SFRSYM    DATA     BIT       TR0
      000000D0H.4 SFRSYM    DATA     BIT       RS1
      00000088H.6 SFRSYM    DATA     BIT       TR1
      000000C8H.2 SFRSYM    DATA     BIT       TR2
      000000B8H.0 SFRSYM    DATA     BIT       PX0
      000000E1H   SFRSYM    DATA     BYTE      WDT_CONTR
      000000B8H.2 SFRSYM    DATA     BIT       PX1
      00000083H   SFRSYM    DATA     BYTE      DPH
      00000082H   SFRSYM    DATA     BYTE      DPL
      000000B7H   SFRSYM    DATA     BYTE      IPH
LX51 LINKER/LOCATER V4.66.87.0                                                        04/18/2018  10:36:57  PAGE 133


      000000C8H.3 SFRSYM    DATA     BIT       EXEN2
      00000098H.4 SFRSYM    DATA     BIT       REN
      000000C9H   SFRSYM    DATA     BYTE      T2MOD
      000000C8H   SFRSYM    DATA     BYTE      T2CON
      000000E2H   SFRSYM    DATA     BYTE      ISP_DATA
      000000B9H   SFRSYM    DATA     BYTE      SADEN
      000000B0H.6 SFRSYM    DATA     BIT       POWER_5V_EN
      000000B0H.0 SFRSYM    DATA     BIT       RXD
      000000A9H   SFRSYM    DATA     BYTE      SADDR
      000000B0H.1 SFRSYM    DATA     BIT       TXD
      000000A2H   SFRSYM    DATA     BYTE      AUXR1
      000000D0H.5 SFRSYM    DATA     BIT       F0
      000000D0H   SFRSYM    DATA     BYTE      PSW
      01008923H   SYMBOL    CODE     ---       fuse_power_on
      01008936H   SYMBOL    CODE     ---       fuse_power_off
      00000024H.7 SYMBOL    BIT      BIT       fuse_enabled

      01008923H   BLOCK     CODE     ---       LVL=0
      01008923H   LINE      CODE     ---       #19
      01008923H   LINE      CODE     ---       #20
      01008923H   LINE      CODE     ---       #21
      0100892CH   LINE      CODE     ---       #23
      01008933H   LINE      CODE     ---       #24
      ---         BLOCKEND  ---      ---       LVL=0

      01008936H   BLOCK     CODE     ---       LVL=0
      01008936H   LINE      CODE     ---       #27
      01008936H   LINE      CODE     ---       #28
      01008936H   LINE      CODE     ---       #29
      0100893FH   LINE      CODE     ---       #30
      01008946H   LINE      CODE     ---       #31
      ---         BLOCKEND  ---      ---       LVL=0

      01008C1DH   BLOCK     CODE     ---       LVL=0
      01008C1DH   LINE      CODE     ---       #34
      01008C1DH   LINE      CODE     ---       #35
      01008C1DH   LINE      CODE     ---       #36
      01008C26H   LINE      CODE     ---       #37
      01008C28H   LINE      CODE     ---       #39
      01008C2AH   LINE      CODE     ---       #40
      ---         BLOCKEND  ---      ---       LVL=0

      01007B85H   BLOCK     CODE     ---       LVL=0
      00000020H.0 SYMBOL    BIT      BIT       enable
      01007B85H   LINE      CODE     ---       #43
      01007B85H   LINE      CODE     ---       #44
      01007B85H   LINE      CODE     ---       #45
      01007B9AH   LINE      CODE     ---       #47
      01007B9FH   LINE      CODE     ---       #50
      01007BA6H   LINE      CODE     ---       #51
      01007BAFH   LINE      CODE     ---       #52
      ---         BLOCKEND  ---      ---       LVL=0

      01008DE4H   BLOCK     CODE     ---       LVL=0
      01008DE4H   LINE      CODE     ---       #55
      01008DE4H   LINE      CODE     ---       #56
      01008DE4H   LINE      CODE     ---       #57
      ---         BLOCKEND  ---      ---       LVL=0

      01008DEDH   BLOCK     CODE     ---       LVL=0
      01008DEDH   LINE      CODE     ---       #60
      01008DEDH   LINE      CODE     ---       #61
      01008DEDH   LINE      CODE     ---       #62
      ---         BLOCKEND  ---      ---       LVL=0

LX51 LINKER/LOCATER V4.66.87.0                                                        04/18/2018  10:36:57  PAGE 134


      01005A00H   BLOCK     CODE     ---       LVL=0
      02000016H   SYMBOL    XDATA    WORD      status
      01005A08H   BLOCK     CODE     NEAR LAB  LVL=1
      00000020H.0 SYMBOL    BIT      BIT       has_event
      ---         BLOCKEND  ---      ---       LVL=1
      01005A00H   LINE      CODE     ---       #65
      01005A08H   LINE      CODE     ---       #66
      01005A08H   LINE      CODE     ---       #67
      01005A0AH   LINE      CODE     ---       #68
      01005A1BH   LINE      CODE     ---       #70
      01005A22H   LINE      CODE     ---       #71
      01005A2BH   LINE      CODE     ---       #72
      01005A2EH   LINE      CODE     ---       #73
      01005A37H   LINE      CODE     ---       #74
      01005A39H   LINE      CODE     ---       #75
      01005A39H   LINE      CODE     ---       #77
      01005A40H   LINE      CODE     ---       #78
      01005A49H   LINE      CODE     ---       #79
      01005A4CH   LINE      CODE     ---       #80
      01005A55H   LINE      CODE     ---       #81
      01005A57H   LINE      CODE     ---       #82
      01005A57H   LINE      CODE     ---       #84
      01005A5EH   LINE      CODE     ---       #85
      01005A67H   LINE      CODE     ---       #86
      01005A6AH   LINE      CODE     ---       #87
      01005A70H   LINE      CODE     ---       #88
      01005A72H   LINE      CODE     ---       #89
      01005A72H   LINE      CODE     ---       #91
      01005A7AH   LINE      CODE     ---       #92
      01005A7DH   LINE      CODE     ---       #93
      01005A7DH   LINE      CODE     ---       #94
      ---         BLOCKEND  ---      ---       LVL=0

      01008751H   BLOCK     CODE     ---       LVL=0
      0200000CH   SYMBOL    XDATA    BYTE      ev
      01008751H   LINE      CODE     ---       #96
      01008756H   LINE      CODE     ---       #97
      01008756H   LINE      CODE     ---       #98
      0100875FH   LINE      CODE     ---       #99
      ---         BLOCKEND  ---      ---       LVL=0

      01007158H   BLOCK     CODE     ---       LVL=0
      02000014H   SYMBOL    XDATA    BYTE      index
      00000020H.0 SYMBOL    BIT      BIT       enable
      01007158H   LINE      CODE     ---       #103
      0100715DH   LINE      CODE     ---       #104
      0100715DH   LINE      CODE     ---       #105
      01007176H   LINE      CODE     ---       #107
      01007179H   LINE      CODE     ---       #109
      0100717FH   LINE      CODE     ---       #110
      01007188H   LINE      CODE     ---       #112
      01007192H   LINE      CODE     ---       #114
      01007195H   LINE      CODE     ---       #115
      ---         BLOCKEND  ---      ---       LVL=0

      01007E72H   BLOCK     CODE     ---       LVL=0
      00000020H.0 SYMBOL    BIT      BIT       broke
      01007E72H   LINE      CODE     ---       #117
      01007E72H   LINE      CODE     ---       #118
      01007E72H   LINE      CODE     ---       #119
      01007E87H   LINE      CODE     ---       #120
      01007E8AH   LINE      CODE     ---       #121
      01007E94H   LINE      CODE     ---       #122
      01007E97H   LINE      CODE     ---       #123
      ---         BLOCKEND  ---      ---       LVL=0
LX51 LINKER/LOCATER V4.66.87.0                                                        04/18/2018  10:36:57  PAGE 135



      01007ACFH   BLOCK     CODE     ---       LVL=0
      00000020H.0 SYMBOL    BIT      BIT       enable
      01007ACFH   LINE      CODE     ---       #125
      01007ACFH   LINE      CODE     ---       #126
      01007ACFH   LINE      CODE     ---       #127
      01007AE4H   LINE      CODE     ---       #129
      01007AEAH   LINE      CODE     ---       #130
      01007AEFH   LINE      CODE     ---       #131
      01007AF5H   LINE      CODE     ---       #132
      01007AF8H   LINE      CODE     ---       #134
      01007AFCH   LINE      CODE     ---       #135
      ---         BLOCKEND  ---      ---       LVL=0

      ---         MODULE    ---      ---       HG
      010089C9H   PUBLIC    CODE     ---       hg_get_state
      00000020H.0 PUBLIC    BIT      BIT       ?hg_enable?BIT
      01007DB0H   PUBLIC    CODE     ---       hg_enable
      01005D5BH   PUBLIC    CODE     ---       _scan_hg
      01008DFFH   PUBLIC    CODE     ---       hg_leave_powersave
      01008DF6H   PUBLIC    CODE     ---       hg_enter_powersave
      010089B7H   PUBLIC    CODE     ---       hg_initialize
      00000025H.0 SYMBOL    BIT      BIT       hg_enabled
      01007F9AH   SYMBOL    CODE     ---       hg_power_on
      020000D3H   SYMBOL    XDATA    BYTE      hg_state
      010089A5H   SYMBOL    CODE     ---       __hg_get_state
      01008C6BH   SYMBOL    CODE     ---       hg_cb_set_enable
      01008767H   SYMBOL    CODE     ---       hg_power_off

      01008CDFH   BLOCK     CODE     ---       LVL=0
      ---         BLOCKEND  ---      ---       LVL=0

      01008C6BH   BLOCK     CODE     ---       LVL=0
      01008C6BH   LINE      CODE     ---       #14
      01008C6BH   LINE      CODE     ---       #15
      01008C6BH   LINE      CODE     ---       #16
      01008C74H   LINE      CODE     ---       #17
      01008C76H   LINE      CODE     ---       #18
      ---         BLOCKEND  ---      ---       LVL=0

      01007F9AH   BLOCK     CODE     ---       LVL=0
      01007F9AH   LINE      CODE     ---       #21
      01007F9AH   LINE      CODE     ---       #22
      01007F9AH   LINE      CODE     ---       #23
      01007FA3H   LINE      CODE     ---       #25
      01007FAAH   LINE      CODE     ---       #26
      01007FADH   LINE      CODE     ---       #28
      01007FB3H   LINE      CODE     ---       #30
      ---         BLOCKEND  ---      ---       LVL=0

      01008767H   BLOCK     CODE     ---       LVL=0
      01008767H   LINE      CODE     ---       #35
      01008767H   LINE      CODE     ---       #36
      01008767H   LINE      CODE     ---       #37
      01008770H   LINE      CODE     ---       #39
      01008777H   LINE      CODE     ---       #40
      0100877AH   LINE      CODE     ---       #42
      0100877CH   LINE      CODE     ---       #43
      ---         BLOCKEND  ---      ---       LVL=0

      010089A5H   BLOCK     CODE     ---       LVL=0
      00000006H   SYMBOL    DATA     WORD      status
      010089A5H   LINE      CODE     ---       #45
      010089A5H   LINE      CODE     ---       #46
      010089A5H   LINE      CODE     ---       #47
LX51 LINKER/LOCATER V4.66.87.0                                                        04/18/2018  10:36:57  PAGE 136


      010089B6H   LINE      CODE     ---       #48
      ---         BLOCKEND  ---      ---       LVL=0

      010089B7H   BLOCK     CODE     ---       LVL=0
      010089B7H   LINE      CODE     ---       #50
      010089B7H   LINE      CODE     ---       #51
      010089B7H   LINE      CODE     ---       #52
      010089C0H   LINE      CODE     ---       #53
      010089C2H   LINE      CODE     ---       #54
      010089C8H   LINE      CODE     ---       #55
      ---         BLOCKEND  ---      ---       LVL=0

      01008DF6H   BLOCK     CODE     ---       LVL=0
      01008DF6H   LINE      CODE     ---       #57
      01008DF6H   LINE      CODE     ---       #58
      01008DF6H   LINE      CODE     ---       #59
      ---         BLOCKEND  ---      ---       LVL=0

      01008DFFH   BLOCK     CODE     ---       LVL=0
      01008DFFH   LINE      CODE     ---       #62
      01008DFFH   LINE      CODE     ---       #63
      01008DFFH   LINE      CODE     ---       #64
      ---         BLOCKEND  ---      ---       LVL=0

      01005D5BH   BLOCK     CODE     ---       LVL=0
      02000016H   SYMBOL    XDATA    WORD      status
      01005D63H   BLOCK     CODE     NEAR LAB  LVL=1
      02000018H   SYMBOL    XDATA    BYTE      hg_new_state
      ---         BLOCKEND  ---      ---       LVL=1
      01005D5BH   LINE      CODE     ---       #67
      01005D63H   LINE      CODE     ---       #68
      01005D63H   LINE      CODE     ---       #70
      01005D74H   LINE      CODE     ---       #72
      01005D82H   LINE      CODE     ---       #74
      01005D8FH   LINE      CODE     ---       #76
      01005D9BH   LINE      CODE     ---       #77
      01005D9EH   LINE      CODE     ---       #78
      01005DA7H   LINE      CODE     ---       #79
      01005DADH   LINE      CODE     ---       #80
      01005DADH   LINE      CODE     ---       #81
      01005DB2H   LINE      CODE     ---       #82
      01005DB5H   LINE      CODE     ---       #83
      01005DB5H   LINE      CODE     ---       #85
      01005DC7H   LINE      CODE     ---       #86
      01005DCFH   LINE      CODE     ---       #87
      01005DCFH   LINE      CODE     ---       #89
      ---         BLOCKEND  ---      ---       LVL=0

      01007DB0H   BLOCK     CODE     ---       LVL=0
      00000020H.0 SYMBOL    BIT      BIT       enable
      01007DB0H   LINE      CODE     ---       #92
      01007DB0H   LINE      CODE     ---       #93
      01007DB0H   LINE      CODE     ---       #94
      01007DC5H   LINE      CODE     ---       #95
      01007DCBH   LINE      CODE     ---       #96
      01007DCEH   LINE      CODE     ---       #97
      01007DD4H   LINE      CODE     ---       #98
      01007DD7H   LINE      CODE     ---       #99
      01007DD7H   LINE      CODE     ---       #100
      ---         BLOCKEND  ---      ---       LVL=0

      010089C9H   BLOCK     CODE     ---       LVL=0
      010089C9H   LINE      CODE     ---       #102
      010089C9H   LINE      CODE     ---       #103
      010089C9H   LINE      CODE     ---       #104
LX51 LINKER/LOCATER V4.66.87.0                                                        04/18/2018  10:36:57  PAGE 137


      010089D5H   LINE      CODE     ---       #105
      010089DAH   LINE      CODE     ---       #106
      ---         BLOCKEND  ---      ---       LVL=0

      ---         MODULE    ---      ---       LT_TIMER
      0100728AH   PUBLIC    CODE     ---       lt_timer_sync_to_rtc
      00000020H.0 PUBLIC    BIT      BIT       ?lt_timer_get_relative?BIT
      0100613FH   PUBLIC    CODE     ---       lt_timer_get_relative
      0100673BH   PUBLIC    CODE     ---       _lt_timer_sync_to_rom
      010075E4H   PUBLIC    CODE     ---       lt_timer_sync_from_rom
      010051CFH   PUBLIC    CODE     ---       lt_timer_dec_sec
      01008B61H   PUBLIC    CODE     ---       lt_timer_reset
      00000020H.0 PUBLIC    BIT      BIT       ?lt_timer_display?BIT
      010083F9H   PUBLIC    CODE     ---       lt_timer_display
      0100865DH   PUBLIC    CODE     ---       lt_timer_switch_display
      01008C83H   PUBLIC    CODE     ---       lt_timer_stop_ram
      01008C2BH   PUBLIC    CODE     ---       lt_timer_start_ram
      01008253H   PUBLIC    CODE     ---       lt_timer_stop_rtc
      01008235H   PUBLIC    CODE     ---       lt_timer_start_rtc
      01008F1CH   PUBLIC    CODE     ---       lt_timer_get_date
      01008F68H   PUBLIC    CODE     ---       lt_timer_get_sec
      01008F63H   PUBLIC    CODE     ---       lt_timer_get_min
      01008F5EH   PUBLIC    CODE     ---       lt_timer_get_hour
      01008F16H   PUBLIC    CODE     ---       lt_timer_get_month
      01008F59H   PUBLIC    CODE     ---       lt_timer_get_year
      01008D21H   PUBLIC    CODE     ---       lt_timer_inc_sec
      01008D16H   PUBLIC    CODE     ---       lt_timer_inc_min
      01008D0BH   PUBLIC    CODE     ---       lt_timer_inc_hour
      01008D00H   PUBLIC    CODE     ---       lt_timer_inc_date
      01008CF5H   PUBLIC    CODE     ---       lt_timer_inc_month
      01008CEAH   PUBLIC    CODE     ---       lt_timer_inc_year
      01006FDDH   PUBLIC    CODE     ---       scan_lt_timer
      01008177H   PUBLIC    CODE     ---       lt_timer_switch_off
      01008C77H   PUBLIC    CODE     ---       lt_timer_switch_on
      01008006H   PUBLIC    CODE     ---       lt_timer_leave_powersave
      010087E7H   PUBLIC    CODE     ---       lt_timer_enter_powersave
      010089DBH   PUBLIC    CODE     ---       lt_timer_initialize
      0100462CH   SYMBOL    CODE     ---       lt_timer_sub_date
      00000022H.0 SYMBOL    BIT      BIT       lt_tmr_start
      0100B4FCH   SYMBOL    CONST    ---       leap_month
      01007374H   SYMBOL    CODE     ---       lt_timer_sub_hour_date
      00000022H.1 SYMBOL    BIT      BIT       lt_tmr_disp_day
      00000054H   SYMBOL    IDATA    ---       ltm
      01008271H   SYMBOL    CODE     ---       lt_timer_sub_sec_min
      0100733AH   SYMBOL    CODE     ---       lt_timer_sub_min_hour
      00000022H.2 SYMBOL    BIT      BIT       lt_tmr_display
      00000022H.3 SYMBOL    BIT      BIT       lt_tmr_stopped

      01005DD0H   BLOCK     CODE     ---       LVL=0
      ---         BLOCKEND  ---      ---       LVL=0

      010089DBH   BLOCK     CODE     ---       LVL=0
      010089DBH   LINE      CODE     ---       #21
      010089DBH   LINE      CODE     ---       #22
      010089DBH   LINE      CODE     ---       #23
      010089E4H   LINE      CODE     ---       #24
      010089E6H   LINE      CODE     ---       #25
      010089E8H   LINE      CODE     ---       #26
      010089EAH   LINE      CODE     ---       #27
      010089ECH   LINE      CODE     ---       #28
      ---         BLOCKEND  ---      ---       LVL=0

      010087E7H   BLOCK     CODE     ---       LVL=0
      010087E7H   LINE      CODE     ---       #30
      010087E7H   LINE      CODE     ---       #31
LX51 LINKER/LOCATER V4.66.87.0                                                        04/18/2018  10:36:57  PAGE 138


      010087E7H   LINE      CODE     ---       #32
      010087F0H   LINE      CODE     ---       #33
      010087F5H   LINE      CODE     ---       #34
      010087F8H   LINE      CODE     ---       #35
      010087FBH   LINE      CODE     ---       #36
      010087FBH   LINE      CODE     ---       #37
      ---         BLOCKEND  ---      ---       LVL=0

      01008006H   BLOCK     CODE     ---       LVL=0
      01008006H   LINE      CODE     ---       #39
      01008006H   LINE      CODE     ---       #40
      01008006H   LINE      CODE     ---       #41
      0100800FH   LINE      CODE     ---       #42
      01008014H   LINE      CODE     ---       #43
      01008017H   LINE      CODE     ---       #44
      0100801AH   LINE      CODE     ---       #45
      01008021H   LINE      CODE     ---       #46
      01008021H   LINE      CODE     ---       #47
      01008024H   LINE      CODE     ---       #48
      01008025H   LINE      CODE     ---       #49
      01008028H   LINE      CODE     ---       #50
      01008028H   LINE      CODE     ---       #51
      01008028H   LINE      CODE     ---       #52
      ---         BLOCKEND  ---      ---       LVL=0

      01008C77H   BLOCK     CODE     ---       LVL=0
      01008C77H   LINE      CODE     ---       #54
      01008C77H   LINE      CODE     ---       #55
      01008C77H   LINE      CODE     ---       #56
      01008C80H   LINE      CODE     ---       #57
      ---         BLOCKEND  ---      ---       LVL=0

      01008177H   BLOCK     CODE     ---       LVL=0
      01008177H   LINE      CODE     ---       #60
      01008177H   LINE      CODE     ---       #61
      01008177H   LINE      CODE     ---       #62
      01008180H   LINE      CODE     ---       #63
      01008185H   LINE      CODE     ---       #64
      0100818CH   LINE      CODE     ---       #65
      01008192H   LINE      CODE     ---       #66
      ---         BLOCKEND  ---      ---       LVL=0

      01006FDDH   BLOCK     CODE     ---       LVL=0
      01006FDDH   BLOCK     CODE     NEAR LAB  LVL=1
      00000020H.0 SYMBOL    BIT      BIT       alarm0_hit
      ---         BLOCKEND  ---      ---       LVL=1
      01006FDDH   LINE      CODE     ---       #69
      01006FDDH   LINE      CODE     ---       #70
      01006FDDH   LINE      CODE     ---       #73
      01006FE6H   LINE      CODE     ---       #75
      01006FEBH   LINE      CODE     ---       #76
      01006FF2H   LINE      CODE     ---       #77
      01006FF6H   LINE      CODE     ---       #78
      01006FFBH   LINE      CODE     ---       #80
      01006FFEH   LINE      CODE     ---       #81
      01007003H   LINE      CODE     ---       #83
      01007008H   LINE      CODE     ---       #84
      01007011H   LINE      CODE     ---       #85
      01007016H   LINE      CODE     ---       #86
      01007019H   LINE      CODE     ---       #87
      01007019H   LINE      CODE     ---       #88
      0100701CH   LINE      CODE     ---       #89
      0100701CH   LINE      CODE     ---       #90
      0100701CH   LINE      CODE     ---       #91
      ---         BLOCKEND  ---      ---       LVL=0
LX51 LINKER/LOCATER V4.66.87.0                                                        04/18/2018  10:36:57  PAGE 139



      01008CEAH   BLOCK     CODE     ---       LVL=0
      01008CEAH   LINE      CODE     ---       #93
      01008CEAH   LINE      CODE     ---       #94
      01008CEAH   LINE      CODE     ---       #95
      01008CF4H   LINE      CODE     ---       #96
      ---         BLOCKEND  ---      ---       LVL=0

      01008CF5H   BLOCK     CODE     ---       LVL=0
      01008CF5H   LINE      CODE     ---       #98
      01008CF5H   LINE      CODE     ---       #99
      01008CF5H   LINE      CODE     ---       #100
      01008CFFH   LINE      CODE     ---       #101
      ---         BLOCKEND  ---      ---       LVL=0

      01008D00H   BLOCK     CODE     ---       LVL=0
      01008D00H   LINE      CODE     ---       #103
      01008D00H   LINE      CODE     ---       #104
      01008D00H   LINE      CODE     ---       #105
      01008D0AH   LINE      CODE     ---       #106
      ---         BLOCKEND  ---      ---       LVL=0

      01008D0BH   BLOCK     CODE     ---       LVL=0
      01008D0BH   LINE      CODE     ---       #108
      01008D0BH   LINE      CODE     ---       #109
      01008D0BH   LINE      CODE     ---       #110
      01008D15H   LINE      CODE     ---       #111
      ---         BLOCKEND  ---      ---       LVL=0

      01008D16H   BLOCK     CODE     ---       LVL=0
      01008D16H   LINE      CODE     ---       #113
      01008D16H   LINE      CODE     ---       #114
      01008D16H   LINE      CODE     ---       #115
      01008D20H   LINE      CODE     ---       #116
      ---         BLOCKEND  ---      ---       LVL=0

      01008D21H   BLOCK     CODE     ---       LVL=0
      01008D21H   LINE      CODE     ---       #118
      01008D21H   LINE      CODE     ---       #119
      01008D21H   LINE      CODE     ---       #120
      01008D2BH   LINE      CODE     ---       #121
      ---         BLOCKEND  ---      ---       LVL=0

      01008F59H   BLOCK     CODE     ---       LVL=0
      01008F59H   LINE      CODE     ---       #123
      01008F59H   LINE      CODE     ---       #124
      01008F59H   LINE      CODE     ---       #125
      01008F5DH   LINE      CODE     ---       #126
      ---         BLOCKEND  ---      ---       LVL=0

      01008F16H   BLOCK     CODE     ---       LVL=0
      01008F16H   LINE      CODE     ---       #128
      01008F16H   LINE      CODE     ---       #129
      01008F16H   LINE      CODE     ---       #130
      01008F1BH   LINE      CODE     ---       #131
      ---         BLOCKEND  ---      ---       LVL=0

      01008F5EH   BLOCK     CODE     ---       LVL=0
      01008F5EH   LINE      CODE     ---       #133
      01008F5EH   LINE      CODE     ---       #134
      01008F5EH   LINE      CODE     ---       #135
      01008F62H   LINE      CODE     ---       #136
      ---         BLOCKEND  ---      ---       LVL=0

      01008F63H   BLOCK     CODE     ---       LVL=0
LX51 LINKER/LOCATER V4.66.87.0                                                        04/18/2018  10:36:57  PAGE 140


      01008F63H   LINE      CODE     ---       #138
      01008F63H   LINE      CODE     ---       #139
      01008F63H   LINE      CODE     ---       #140
      01008F67H   LINE      CODE     ---       #141
      ---         BLOCKEND  ---      ---       LVL=0

      01008F68H   BLOCK     CODE     ---       LVL=0
      01008F68H   LINE      CODE     ---       #143
      01008F68H   LINE      CODE     ---       #144
      01008F68H   LINE      CODE     ---       #145
      01008F6CH   LINE      CODE     ---       #146
      ---         BLOCKEND  ---      ---       LVL=0

      01008F1CH   BLOCK     CODE     ---       LVL=0
      01008F1CH   LINE      CODE     ---       #148
      01008F1CH   LINE      CODE     ---       #149
      01008F1CH   LINE      CODE     ---       #150
      01008F21H   LINE      CODE     ---       #151
      ---         BLOCKEND  ---      ---       LVL=0

      01008235H   BLOCK     CODE     ---       LVL=0
      01008235H   LINE      CODE     ---       #153
      01008235H   LINE      CODE     ---       #154
      01008235H   LINE      CODE     ---       #155
      0100823EH   LINE      CODE     ---       #156
      01008243H   LINE      CODE     ---       #157
      0100824AH   LINE      CODE     ---       #158
      0100824EH   LINE      CODE     ---       #159
      ---         BLOCKEND  ---      ---       LVL=0

      01008253H   BLOCK     CODE     ---       LVL=0
      01008253H   LINE      CODE     ---       #162
      01008253H   LINE      CODE     ---       #163
      01008253H   LINE      CODE     ---       #164
      0100825CH   LINE      CODE     ---       #165
      01008261H   LINE      CODE     ---       #166
      01008268H   LINE      CODE     ---       #167
      0100826CH   LINE      CODE     ---       #168
      ---         BLOCKEND  ---      ---       LVL=0

      01008C2BH   BLOCK     CODE     ---       LVL=0
      01008C2BH   LINE      CODE     ---       #171
      01008C2BH   LINE      CODE     ---       #172
      01008C2BH   LINE      CODE     ---       #173
      01008C34H   LINE      CODE     ---       #174
      01008C36H   LINE      CODE     ---       #175
      01008C38H   LINE      CODE     ---       #176
      ---         BLOCKEND  ---      ---       LVL=0

      01008C83H   BLOCK     CODE     ---       LVL=0
      01008C83H   LINE      CODE     ---       #178
      01008C83H   LINE      CODE     ---       #179
      01008C83H   LINE      CODE     ---       #180
      01008C8CH   LINE      CODE     ---       #181
      01008C8EH   LINE      CODE     ---       #182
      ---         BLOCKEND  ---      ---       LVL=0

      0100865DH   BLOCK     CODE     ---       LVL=0
      0100865DH   LINE      CODE     ---       #184
      0100865DH   LINE      CODE     ---       #185
      0100865DH   LINE      CODE     ---       #186
      0100865FH   LINE      CODE     ---       #187
      ---         BLOCKEND  ---      ---       LVL=0

      010083F9H   BLOCK     CODE     ---       LVL=0
LX51 LINKER/LOCATER V4.66.87.0                                                        04/18/2018  10:36:57  PAGE 141


      00000020H.0 SYMBOL    BIT      BIT       enable
      010083F9H   LINE      CODE     ---       #190
      010083F9H   LINE      CODE     ---       #191
      010083F9H   LINE      CODE     ---       #192
      0100840EH   LINE      CODE     ---       #193
      01008412H   LINE      CODE     ---       #194
      ---         BLOCKEND  ---      ---       LVL=0

      01008B61H   BLOCK     CODE     ---       LVL=0
      01008B61H   LINE      CODE     ---       #196
      01008B61H   LINE      CODE     ---       #197
      01008B61H   LINE      CODE     ---       #198
      01008B64H   LINE      CODE     ---       #199
      01008B67H   LINE      CODE     ---       #200
      01008B69H   LINE      CODE     ---       #201
      01008B6BH   LINE      CODE     ---       #202
      01008B6DH   LINE      CODE     ---       #203
      01008B6FH   LINE      CODE     ---       #204
      ---         BLOCKEND  ---      ---       LVL=0

      01008271H   BLOCK     CODE     ---       LVL=0
      01008271H   BLOCK     CODE     NEAR LAB  LVL=1
      00000020H.2 SYMBOL    BIT      BIT       borrow_min
      ---         BLOCKEND  ---      ---       LVL=1
      01008271H   LINE      CODE     ---       #208
      01008271H   LINE      CODE     ---       #209
      01008271H   LINE      CODE     ---       #211
      01008273H   LINE      CODE     ---       #213
      0100827DH   LINE      CODE     ---       #215
      01008281H   LINE      CODE     ---       #216
      01008283H   LINE      CODE     ---       #217
      01008283H   LINE      CODE     ---       #219
      0100828CH   LINE      CODE     ---       #221
      0100828EH   LINE      CODE     ---       #222
      ---         BLOCKEND  ---      ---       LVL=0

      0100733AH   BLOCK     CODE     ---       LVL=0
      00000020H.2 SYMBOL    BIT      BIT       borrow_min
      0100733AH   BLOCK     CODE     NEAR LAB  LVL=1
      00000020H.3 SYMBOL    BIT      BIT       borrow_hour
      ---         BLOCKEND  ---      ---       LVL=1
      0100733AH   LINE      CODE     ---       #226
      0100733AH   LINE      CODE     ---       #227
      0100733AH   LINE      CODE     ---       #229
      0100733CH   LINE      CODE     ---       #231
      01007353H   LINE      CODE     ---       #233
      01007359H   LINE      CODE     ---       #234
      0100735BH   LINE      CODE     ---       #235
      0100735BH   LINE      CODE     ---       #237
      01007364H   LINE      CODE     ---       #238
      01007371H   LINE      CODE     ---       #240
      01007373H   LINE      CODE     ---       #241
      ---         BLOCKEND  ---      ---       LVL=0

      01007374H   BLOCK     CODE     ---       LVL=0
      00000020H.2 SYMBOL    BIT      BIT       borrow_hour
      01007374H   BLOCK     CODE     NEAR LAB  LVL=1
      00000020H.3 SYMBOL    BIT      BIT       borrow_date
      ---         BLOCKEND  ---      ---       LVL=1
      01007374H   LINE      CODE     ---       #244
      01007374H   LINE      CODE     ---       #245
      01007374H   LINE      CODE     ---       #247
      01007376H   LINE      CODE     ---       #249
      0100738DH   LINE      CODE     ---       #251
      01007393H   LINE      CODE     ---       #252
LX51 LINKER/LOCATER V4.66.87.0                                                        04/18/2018  10:36:57  PAGE 142


      01007395H   LINE      CODE     ---       #253
      01007395H   LINE      CODE     ---       #255
      0100739EH   LINE      CODE     ---       #256
      010073ABH   LINE      CODE     ---       #258
      010073ADH   LINE      CODE     ---       #259
      ---         BLOCKEND  ---      ---       LVL=0

      0100462CH   BLOCK     CODE     ---       LVL=0
      00000020H.2 SYMBOL    BIT      BIT       borrow_date
      0100462CH   BLOCK     CODE     NEAR LAB  LVL=1
      00000006H   SYMBOL    DATA     BYTE      i
      00000005H   SYMBOL    DATA     BYTE      j
      02000018H   SYMBOL    XDATA    INT       day
      ---         BLOCKEND  ---      ---       LVL=1
      0100462CH   LINE      CODE     ---       #263
      0100462CH   LINE      CODE     ---       #264
      0100462CH   LINE      CODE     ---       #268
      01004633H   LINE      CODE     ---       #271
      01004641H   LINE      CODE     ---       #272
      01004657H   LINE      CODE     ---       #274
      01004664H   LINE      CODE     ---       #276
      0100466FH   LINE      CODE     ---       #277
      01004679H   LINE      CODE     ---       #279
      01004686H   LINE      CODE     ---       #280
      0100469AH   LINE      CODE     ---       #282
      010046BEH   LINE      CODE     ---       #284
      010046C1H   LINE      CODE     ---       #285
      010046CBH   LINE      CODE     ---       #287
      010046DBH   LINE      CODE     ---       #288
      010046DFH   LINE      CODE     ---       #289
      010046E1H   LINE      CODE     ---       #290
      010046E3H   LINE      CODE     ---       #291
      010046E5H   LINE      CODE     ---       #292
      010046E6H   LINE      CODE     ---       #293
      010046EAH   LINE      CODE     ---       #294
      010046EAH   LINE      CODE     ---       #295
      ---         BLOCKEND  ---      ---       LVL=0

      010051CFH   BLOCK     CODE     ---       LVL=0
      010051CFH   LINE      CODE     ---       #364
      010051CFH   LINE      CODE     ---       #365
      010051CFH   LINE      CODE     ---       #366
      010051D5H   LINE      CODE     ---       #369
      010051D8H   LINE      CODE     ---       #370
      010051E5H   LINE      CODE     ---       #372
      010051E5H   LINE      CODE     ---       #373
      010051E8H   LINE      CODE     ---       #374
      010051ECH   LINE      CODE     ---       #375
      010051EEH   LINE      CODE     ---       #376
      010051F0H   LINE      CODE     ---       #377
      010051F4H   LINE      CODE     ---       #378
      010051F6H   LINE      CODE     ---       #379
      010051F8H   LINE      CODE     ---       #380
      010051FCH   LINE      CODE     ---       #381
      010051FEH   LINE      CODE     ---       #382
      01005205H   LINE      CODE     ---       #383
      01005206H   LINE      CODE     ---       #384
      01005206H   LINE      CODE     ---       #385
      01005206H   LINE      CODE     ---       #386
      01005206H   LINE      CODE     ---       #387
      01005206H   LINE      CODE     ---       #388
      01005208H   LINE      CODE     ---       #389
      01005208H   LINE      CODE     ---       #390
      0100520BH   LINE      CODE     ---       #391
      0100520BH   LINE      CODE     ---       #392
LX51 LINKER/LOCATER V4.66.87.0                                                        04/18/2018  10:36:57  PAGE 143


      0100520BH   LINE      CODE     ---       #394
      01005211H   LINE      CODE     ---       #395
      01005214H   LINE      CODE     ---       #396
      0100521EH   LINE      CODE     ---       #397
      01005224H   LINE      CODE     ---       #398
      0100522AH   LINE      CODE     ---       #399
      01005230H   LINE      CODE     ---       #400
      01005239H   LINE      CODE     ---       #401
      01005240H   LINE      CODE     ---       #402
      01005241H   LINE      CODE     ---       #403
      01005248H   LINE      CODE     ---       #404
      0100524DH   LINE      CODE     ---       #405
      01005252H   LINE      CODE     ---       #406
      01005257H   LINE      CODE     ---       #407
      0100525CH   LINE      CODE     ---       #408
      01005261H   LINE      CODE     ---       #409
      01005264H   LINE      CODE     ---       #410
      0100526AH   LINE      CODE     ---       #411
      0100526AH   LINE      CODE     ---       #412
      0100526AH   LINE      CODE     ---       #413
      ---         BLOCKEND  ---      ---       LVL=0

      010075E4H   BLOCK     CODE     ---       LVL=0
      010075E4H   LINE      CODE     ---       #418
      010075E4H   LINE      CODE     ---       #419
      010075E4H   LINE      CODE     ---       #420
      010075EDH   LINE      CODE     ---       #421
      010075F6H   LINE      CODE     ---       #422
      010075FFH   LINE      CODE     ---       #423
      01007608H   LINE      CODE     ---       #424
      01007611H   LINE      CODE     ---       #425
      0100761AH   LINE      CODE     ---       #426
      ---         BLOCKEND  ---      ---       LVL=0

      0100673BH   BLOCK     CODE     ---       LVL=0
      02000016H   SYMBOL    XDATA    BYTE      type
      0100673BH   LINE      CODE     ---       #429
      01006740H   LINE      CODE     ---       #430
      01006740H   LINE      CODE     ---       #431
      0100674AH   LINE      CODE     ---       #432
      01006761H   LINE      CODE     ---       #433
      01006761H   LINE      CODE     ---       #434
      01006767H   LINE      CODE     ---       #435
      01006769H   LINE      CODE     ---       #436
      01006769H   LINE      CODE     ---       #437
      0100676FH   LINE      CODE     ---       #438
      01006771H   LINE      CODE     ---       #439
      01006771H   LINE      CODE     ---       #440
      01006777H   LINE      CODE     ---       #441
      01006779H   LINE      CODE     ---       #442
      01006779H   LINE      CODE     ---       #443
      0100677FH   LINE      CODE     ---       #444
      01006781H   LINE      CODE     ---       #445
      01006781H   LINE      CODE     ---       #446
      01006787H   LINE      CODE     ---       #447
      01006789H   LINE      CODE     ---       #448
      01006789H   LINE      CODE     ---       #449
      01006792H   LINE      CODE     ---       #450
      01006792H   LINE      CODE     ---       #452
      01006792H   LINE      CODE     ---       #453
      ---         BLOCKEND  ---      ---       LVL=0

      0100613FH   BLOCK     CODE     ---       LVL=0
      00000020H.0 SYMBOL    BIT      BIT       too_close_check
      0100613FH   BLOCK     CODE     NEAR LAB  LVL=1
LX51 LINKER/LOCATER V4.66.87.0                                                        04/18/2018  10:36:57  PAGE 144


      00000020H.1 SYMBOL    BIT      BIT       borrow
      ---         BLOCKEND  ---      ---       LVL=1
      0100613FH   LINE      CODE     ---       #455
      0100613FH   LINE      CODE     ---       #456
      0100613FH   LINE      CODE     ---       #460
      01006144H   LINE      CODE     ---       #461
      01006149H   LINE      CODE     ---       #462
      01006152H   LINE      CODE     ---       #463
      0100615BH   LINE      CODE     ---       #464
      01006162H   LINE      CODE     ---       #465
      01006167H   LINE      CODE     ---       #467
      01006176H   LINE      CODE     ---       #471
      01006183H   LINE      CODE     ---       #472
      01006187H   LINE      CODE     ---       #473
      0100618DH   LINE      CODE     ---       #474
      0100618FH   LINE      CODE     ---       #475
      0100619AH   LINE      CODE     ---       #476
      010061A3H   LINE      CODE     ---       #477
      010061A5H   LINE      CODE     ---       #478
      010061A5H   LINE      CODE     ---       #479
      010061A5H   LINE      CODE     ---       #481
      010061A6H   LINE      CODE     ---       #482
      ---         BLOCKEND  ---      ---       LVL=0

      0100728AH   BLOCK     CODE     ---       LVL=0
      0100728AH   LINE      CODE     ---       #485
      0100728AH   LINE      CODE     ---       #486
      0100728AH   LINE      CODE     ---       #487
      0100729CH   LINE      CODE     ---       #490
      010072A1H   LINE      CODE     ---       #491
      010072A6H   LINE      CODE     ---       #492
      010072AEH   LINE      CODE     ---       #493
      010072B4H   LINE      CODE     ---       #494
      010072BAH   LINE      CODE     ---       #495
      010072C0H   LINE      CODE     ---       #496
      ---         BLOCKEND  ---      ---       LVL=0

      ---         MODULE    ---      ---       SERIAL_HUB
      010073AEH   PUBLIC    CODE     ---       serial_hub_initialize
      01007AFDH   PUBLIC    CODE     ---       _serial_test_ctl_bit
      00000020H.1 PUBLIC    BIT      BIT       ?_serial_set_ctl_bit?BIT
      010079B4H   PUBLIC    CODE     ---       _serial_set_ctl_bit
      01008390H   PUBLIC    CODE     ---       serial_ctl_out
      0100218CH   PUBLIC    CODE     ---       serial_dump
      00000080H   SFRSYM    DATA     BYTE      P0
      00000090H   SFRSYM    DATA     BYTE      P1
      000000A0H   SFRSYM    DATA     BYTE      P2
      000000B0H   SFRSYM    DATA     BYTE      P3
      000000C0H   SFRSYM    DATA     BYTE      XICON
      000000B0H.4 SFRSYM    DATA     BIT       T0
      000000D0H.6 SFRSYM    DATA     BIT       AC
      000000E8H   SFRSYM    DATA     BYTE      P4
      000000B0H.5 SFRSYM    DATA     BIT       T1
      000000E6H   SFRSYM    DATA     BYTE      ISP_TRIG
      00000090H.0 SFRSYM    DATA     BIT       T2
      000000A8H.7 SFRSYM    DATA     BIT       EA
      000000A8H.6 SFRSYM    DATA     BIT       EC
      00000098H.7 SFRSYM    DATA     BIT       FE
      000000A8H   SFRSYM    DATA     BYTE      IE
      000000C8H.6 SFRSYM    DATA     BIT       EXF2
      000000B0H.7 SFRSYM    DATA     BIT       RD
      000000A8H.4 SFRSYM    DATA     BIT       ES
      000000B8H   SFRSYM    DATA     BYTE      IP
      00000098H.0 SFRSYM    DATA     BIT       RI
      000000B0H.2 SFRSYM    DATA     BIT       INT0
LX51 LINKER/LOCATER V4.66.87.0                                                        04/18/2018  10:36:57  PAGE 145


      000000D0H.7 SFRSYM    DATA     BIT       CY
      00000098H.1 SFRSYM    DATA     BIT       TI
      000000B0H.3 SFRSYM    DATA     BIT       INT1
      000000CBH   SFRSYM    DATA     BYTE      RCAP2H
      000000E5H   SFRSYM    DATA     BYTE      ISP_CMD
      000000B8H.4 SFRSYM    DATA     BIT       PS
      00000081H   SFRSYM    DATA     BYTE      SP
      00000090H.1 SFRSYM    DATA     BIT       T2EX
      000000D0H.2 SFRSYM    DATA     BIT       OV
      000000CAH   SFRSYM    DATA     BYTE      RCAP2L
      000000C8H.1 SFRSYM    DATA     BIT       C_T2
      000000B0H.6 SFRSYM    DATA     BIT       WR
      000000C8H.5 SFRSYM    DATA     BIT       RCLK
      000000C8H.4 SFRSYM    DATA     BIT       TCLK
      00000080H.0 SFRSYM    DATA     BIT       P00
      00000099H   SFRSYM    DATA     BYTE      SBUF
      00000087H   SFRSYM    DATA     BYTE      PCON
      00000090H.0 SFRSYM    DATA     BIT       P10
      00000080H.1 SFRSYM    DATA     BIT       P01
      000000A0H.0 SFRSYM    DATA     BIT       P20
      00000090H.1 SFRSYM    DATA     BIT       P11
      00000080H.2 SFRSYM    DATA     BIT       P02
      000000E3H   SFRSYM    DATA     BYTE      ISP_ADDRH
      000000B0H.0 SFRSYM    DATA     BIT       P30
      000000A0H.1 SFRSYM    DATA     BIT       P21
      00000090H.2 SFRSYM    DATA     BIT       P12
      00000080H.3 SFRSYM    DATA     BIT       P03
      00000098H   SFRSYM    DATA     BYTE      SCON
      000000B0H.1 SFRSYM    DATA     BIT       P31
      000000A0H.2 SFRSYM    DATA     BIT       P22
      00000090H.3 SFRSYM    DATA     BIT       P13
      00000080H.4 SFRSYM    DATA     BIT       P04
      000000E8H.0 SFRSYM    DATA     BIT       P40
      00000089H   SFRSYM    DATA     BYTE      TMOD
      00000088H   SFRSYM    DATA     BYTE      TCON
      000000B0H.2 SFRSYM    DATA     BIT       P32
      000000A0H.3 SFRSYM    DATA     BIT       P23
      00000090H.4 SFRSYM    DATA     BIT       P14
      00000080H.5 SFRSYM    DATA     BIT       P05
      000000E8H.1 SFRSYM    DATA     BIT       P41
      000000B0H.3 SFRSYM    DATA     BIT       P33
      000000A0H.4 SFRSYM    DATA     BIT       P24
      00000090H.5 SFRSYM    DATA     BIT       P15
      00000080H.6 SFRSYM    DATA     BIT       P06
      000000E4H   SFRSYM    DATA     BYTE      ISP_ADDRL
      000000E8H.2 SFRSYM    DATA     BIT       P42
      000000B0H.4 SFRSYM    DATA     BIT       P34
      000000A0H.5 SFRSYM    DATA     BIT       P25
      00000090H.6 SFRSYM    DATA     BIT       P16
      00000080H.7 SFRSYM    DATA     BIT       P07
      000000E8H.3 SFRSYM    DATA     BIT       P43
      000000B0H.5 SFRSYM    DATA     BIT       P35
      000000A0H.6 SFRSYM    DATA     BIT       P26
      00000090H.7 SFRSYM    DATA     BIT       P17
      000000E8H.4 SFRSYM    DATA     BIT       P44
      000000B0H.6 SFRSYM    DATA     BIT       P36
      000000A0H.7 SFRSYM    DATA     BIT       P27
      000000E8H.5 SFRSYM    DATA     BIT       P45
      000000B0H.7 SFRSYM    DATA     BIT       P37
      000000E8H.6 SFRSYM    DATA     BIT       P46
      00000088H.1 SFRSYM    DATA     BIT       IE0
      00000088H.3 SFRSYM    DATA     BIT       IE1
      0000008EH   SFRSYM    DATA     BYTE      AUXR
      000000F0H   SFRSYM    DATA     BYTE      B
      000000C8H.0 SFRSYM    DATA     BIT       CP_RL2
LX51 LINKER/LOCATER V4.66.87.0                                                        04/18/2018  10:36:57  PAGE 146


      000000E0H   SFRSYM    DATA     BYTE      ACC
      000000A8H.1 SFRSYM    DATA     BIT       ET0
      000000A8H.3 SFRSYM    DATA     BIT       ET1
      00000088H.5 SFRSYM    DATA     BIT       TF0
      000000A8H.5 SFRSYM    DATA     BIT       ET2
      00000088H.7 SFRSYM    DATA     BIT       TF1
      000000C8H.7 SFRSYM    DATA     BIT       TF2
      00000098H.2 SFRSYM    DATA     BIT       RB8
      0000008CH   SFRSYM    DATA     BYTE      TH0
      000000A8H.0 SFRSYM    DATA     BIT       EX0
      00000088H.0 SFRSYM    DATA     BIT       IT0
      0000008DH   SFRSYM    DATA     BYTE      TH1
      00000098H.3 SFRSYM    DATA     BIT       TB8
      000000A8H.2 SFRSYM    DATA     BIT       EX1
      00000088H.2 SFRSYM    DATA     BIT       IT1
      000000CDH   SFRSYM    DATA     BYTE      TH2
      000000D0H.0 SFRSYM    DATA     BIT       P
      00000098H.7 SFRSYM    DATA     BIT       SM0
      0000008AH   SFRSYM    DATA     BYTE      TL0
      00000098H.6 SFRSYM    DATA     BIT       SM1
      0000008BH   SFRSYM    DATA     BYTE      TL1
      00000098H.5 SFRSYM    DATA     BIT       SM2
      000000CCH   SFRSYM    DATA     BYTE      TL2
      000000B8H.1 SFRSYM    DATA     BIT       PT0
      000000B8H.3 SFRSYM    DATA     BIT       PT1
      000000D0H.3 SFRSYM    DATA     BIT       RS0
      000000E7H   SFRSYM    DATA     BYTE      ISP_CONTR
      000000B8H.5 SFRSYM    DATA     BIT       PT2
      00000088H.4 SFRSYM    DATA     BIT       TR0
      000000D0H.4 SFRSYM    DATA     BIT       RS1
      00000088H.6 SFRSYM    DATA     BIT       TR1
      000000C8H.2 SFRSYM    DATA     BIT       TR2
      000000B8H.0 SFRSYM    DATA     BIT       PX0
      000000E1H   SFRSYM    DATA     BYTE      WDT_CONTR
      000000B8H.2 SFRSYM    DATA     BIT       PX1
      00000083H   SFRSYM    DATA     BYTE      DPH
      00000082H   SFRSYM    DATA     BYTE      DPL
      000000B7H   SFRSYM    DATA     BYTE      IPH
      000000C8H.3 SFRSYM    DATA     BIT       EXEN2
      00000098H.4 SFRSYM    DATA     BIT       REN
      000000C9H   SFRSYM    DATA     BYTE      T2MOD
      000000C8H   SFRSYM    DATA     BYTE      T2CON
      000000E2H   SFRSYM    DATA     BYTE      ISP_DATA
      000000B9H   SFRSYM    DATA     BYTE      SADEN
      000000B0H.0 SFRSYM    DATA     BIT       RXD
      000000A9H   SFRSYM    DATA     BYTE      SADDR
      000000B0H.1 SFRSYM    DATA     BIT       TXD
      000000A2H   SFRSYM    DATA     BYTE      AUXR1
      000000D0H.5 SFRSYM    DATA     BIT       F0
      000000D0H   SFRSYM    DATA     BYTE      PSW
      020000CFH   SYMBOL    XDATA    ---       ctl_buffer

      01008510H   BLOCK     CODE     ---       LVL=0
      ---         BLOCKEND  ---      ---       LVL=0

      0100218CH   BLOCK     CODE     ---       LVL=0
      0100218CH   LINE      CODE     ---       #15
      0100218CH   LINE      CODE     ---       #16
      0100218CH   LINE      CODE     ---       #17
      01002195H   LINE      CODE     ---       #18
      010021AEH   LINE      CODE     ---       #19
      010021C6H   LINE      CODE     ---       #20
      010021DEH   LINE      CODE     ---       #21
      010021F6H   LINE      CODE     ---       #22
      0100220EH   LINE      CODE     ---       #23
LX51 LINKER/LOCATER V4.66.87.0                                                        04/18/2018  10:36:57  PAGE 147


      01002226H   LINE      CODE     ---       #24
      0100223EH   LINE      CODE     ---       #25
      01002256H   LINE      CODE     ---       #26
      0100226EH   LINE      CODE     ---       #27
      01002286H   LINE      CODE     ---       #28
      0100229EH   LINE      CODE     ---       #29
      010022B6H   LINE      CODE     ---       #30
      010022CEH   LINE      CODE     ---       #31
      010022E6H   LINE      CODE     ---       #32
      010022FEH   LINE      CODE     ---       #33
      01002316H   LINE      CODE     ---       #34
      01002332H   LINE      CODE     ---       #35
      0100233BH   LINE      CODE     ---       #36
      ---         BLOCKEND  ---      ---       LVL=0

      01008390H   BLOCK     CODE     ---       LVL=0
      01008390H   LINE      CODE     ---       #38
      01008390H   LINE      CODE     ---       #39
      01008390H   LINE      CODE     ---       #40
      0100839CH   LINE      CODE     ---       #41
      010083A8H   LINE      CODE     ---       #43
      ---         BLOCKEND  ---      ---       LVL=0

      010079B4H   BLOCK     CODE     ---       LVL=0
      00000007H   SYMBOL    DATA     BYTE      index
      00000020H.1 SYMBOL    BIT      BIT       what
      010079B4H   LINE      CODE     ---       #46
      010079B4H   LINE      CODE     ---       #47
      010079B4H   LINE      CODE     ---       #48
      010079BAH   LINE      CODE     ---       #51
      010079DAH   LINE      CODE     ---       #52
      010079DDH   LINE      CODE     ---       #53
      010079E3H   LINE      CODE     ---       #54
      ---         BLOCKEND  ---      ---       LVL=0

      01007AFDH   BLOCK     CODE     ---       LVL=0
      00000007H   SYMBOL    DATA     BYTE      index
      01007AFDH   LINE      CODE     ---       #56
      01007AFDH   LINE      CODE     ---       #57
      01007AFDH   LINE      CODE     ---       #58
      01007B03H   LINE      CODE     ---       #59
      01007B04H   LINE      CODE     ---       #61
      01007B2AH   LINE      CODE     ---       #62
      ---         BLOCKEND  ---      ---       LVL=0

      010073AEH   BLOCK     CODE     ---       LVL=0
      010073AEH   LINE      CODE     ---       #65
      010073AEH   LINE      CODE     ---       #66
      010073AEH   LINE      CODE     ---       #67
      010073B7H   LINE      CODE     ---       #69
      010073C1H   LINE      CODE     ---       #72
      010073CAH   LINE      CODE     ---       #75
      010073D3H   LINE      CODE     ---       #78
      010073DCH   LINE      CODE     ---       #81
      010073E5H   LINE      CODE     ---       #83
      ---         BLOCKEND  ---      ---       LVL=0

      ---         MODULE    ---      ---       THERMO
      01008E1AH   PUBLIC    CODE     ---       thermo_leave_powersave
      01008E11H   PUBLIC    CODE     ---       thermo_enter_powersave
      00000020H.0 PUBLIC    BIT      BIT       ?thermo_lo_enable?BIT
      0100842DH   PUBLIC    CODE     ---       thermo_lo_enable
      00000020H.0 PUBLIC    BIT      BIT       ?thermo_hi_enable?BIT
      01008413H   PUBLIC    CODE     ---       thermo_hi_enable
      0100877DH   PUBLIC    CODE     ---       _thermo_proc
LX51 LINKER/LOCATER V4.66.87.0                                                        04/18/2018  10:36:57  PAGE 148


      00000020H.0 PUBLIC    BIT      BIT       ?thermo_enable?BIT
      01008D76H   PUBLIC    CODE     ---       thermo_enable
      01008C9BH   PUBLIC    CODE     ---       thermo_lo_threshold_reach_top
      01008D37H   PUBLIC    CODE     ---       thermo_lo_threshold_reach_bottom
      01008C8FH   PUBLIC    CODE     ---       thermo_hi_threshold_reach_top
      01008D2CH   PUBLIC    CODE     ---       thermo_hi_threshold_reach_bottom
      01008F72H   PUBLIC    CODE     ---       thermo_lo_threshold_reset
      01008F6DH   PUBLIC    CODE     ---       thermo_hi_threshold_reset
      01008A65H   PUBLIC    CODE     ---       _thermo_threshold_inc
      01008AD6H   PUBLIC    CODE     ---       thermo_lo_threshold_inc
      01008AC6H   PUBLIC    CODE     ---       thermo_lo_threshold_dec
      01008AB6H   PUBLIC    CODE     ---       thermo_hi_threshold_inc
      01008AA6H   PUBLIC    CODE     ---       thermo_hi_threshold_dec
      010071D4H   PUBLIC    CODE     ---       thermo_get_current
      01006BB5H   PUBLIC    CODE     ---       _thermo_lo_threshold_set
      01006C96H   PUBLIC    CODE     ---       _thermo_hi_threshold_set
      01008542H   PUBLIC    CODE     ---       thermo_lo_threshold_get
      01008529H   PUBLIC    CODE     ---       thermo_hi_threshold_get
      010057FDH   PUBLIC    CODE     ---       scan_thermo
      01008949H   PUBLIC    CODE     ---       thermo_initialize
      00000024H.2 SYMBOL    BIT      BIT       thermo_lo_enabled
      01007FBEH   SYMBOL    CODE     ---       _thermo_hex_to_temp
      01006ED3H   SYMBOL    CODE     ---       _thermo_temp_to_hex
      01008E08H   SYMBOL    CODE     ---       thermo_power_off
      010066E2H   SYMBOL    CODE     ---       thermo_power_on
      00000024H.3 SYMBOL    BIT      BIT       thermo_hi_enabled

      01007726H   BLOCK     CODE     ---       LVL=0
      ---         BLOCKEND  ---      ---       LVL=0

      01008E08H   BLOCK     CODE     ---       LVL=0
      01008E08H   BLOCK     CODE     NEAR LAB  LVL=1
      00000007H   SYMBOL    DATA     BYTE      val
      ---         BLOCKEND  ---      ---       LVL=1
      01008E08H   LINE      CODE     ---       #212
      01008E08H   LINE      CODE     ---       #213
      01008E08H   LINE      CODE     ---       #218
      01008E08H   LINE      CODE     ---       #219
      ---         BLOCKEND  ---      ---       LVL=0

      010066E2H   BLOCK     CODE     ---       LVL=0
      010066E2H   BLOCK     CODE     NEAR LAB  LVL=1
      02000018H   SYMBOL    XDATA    BYTE      val
      ---         BLOCKEND  ---      ---       LVL=1
      010066E2H   LINE      CODE     ---       #222
      010066E2H   LINE      CODE     ---       #223
      010066E2H   LINE      CODE     ---       #227
      010066EFH   LINE      CODE     ---       #230
      010066F9H   LINE      CODE     ---       #231
      010066FCH   LINE      CODE     ---       #232
      01006706H   LINE      CODE     ---       #235
      01006709H   LINE      CODE     ---       #236
      0100670CH   LINE      CODE     ---       #237
      0100670FH   LINE      CODE     ---       #245
      01006715H   LINE      CODE     ---       #246
      0100671EH   LINE      CODE     ---       #247
      ---         BLOCKEND  ---      ---       LVL=0

      01008949H   BLOCK     CODE     ---       LVL=0
      01008949H   BLOCK     CODE     NEAR LAB  LVL=1
      02000000H   SYMBOL    XDATA    BYTE      val
      ---         BLOCKEND  ---      ---       LVL=1
      01008949H   LINE      CODE     ---       #250
      01008949H   LINE      CODE     ---       #251
      01008949H   LINE      CODE     ---       #253
LX51 LINKER/LOCATER V4.66.87.0                                                        04/18/2018  10:36:57  PAGE 149


      01008952H   LINE      CODE     ---       #255
      01008956H   LINE      CODE     ---       #257
      01008959H   LINE      CODE     ---       #259
      ---         BLOCKEND  ---      ---       LVL=0

      010057FDH   BLOCK     CODE     ---       LVL=0
      010057FDH   BLOCK     CODE     NEAR LAB  LVL=1
      02000016H   SYMBOL    XDATA    CHAR      hi
      02000017H   SYMBOL    XDATA    CHAR      lo
      02000018H   SYMBOL    XDATA    CHAR      current
      00000020H.0 SYMBOL    BIT      BIT       has_event
      ---         BLOCKEND  ---      ---       LVL=1
      010057FDH   LINE      CODE     ---       #262
      010057FDH   LINE      CODE     ---       #263
      010057FDH   LINE      CODE     ---       #265
      010057FFH   LINE      CODE     ---       #268
      01005807H   LINE      CODE     ---       #269
      0100580FH   LINE      CODE     ---       #270
      01005817H   LINE      CODE     ---       #271
      01005833H   LINE      CODE     ---       #273
      01005844H   LINE      CODE     ---       #274
      0100584DH   LINE      CODE     ---       #275
      01005852H   LINE      CODE     ---       #276
      01005852H   LINE      CODE     ---       #277
      01005863H   LINE      CODE     ---       #278
      0100586CH   LINE      CODE     ---       #279
      01005872H   LINE      CODE     ---       #280
      01005874H   LINE      CODE     ---       #281
      01005874H   LINE      CODE     ---       #283
      0100587CH   LINE      CODE     ---       #284
      0100587FH   LINE      CODE     ---       #285
      0100587FH   LINE      CODE     ---       #286
      ---         BLOCKEND  ---      ---       LVL=0

      01006ED3H   BLOCK     CODE     ---       LVL=0
      00000005H   SYMBOL    DATA     CHAR      temp
      01006ED5H   BLOCK     CODE     NEAR LAB  LVL=1
      0200001CH   SYMBOL    XDATA    WORD      ret
      ---         BLOCKEND  ---      ---       LVL=1
      01006ED3H   LINE      CODE     ---       #287
      01006ED5H   LINE      CODE     ---       #288
      01006ED5H   LINE      CODE     ---       #289
      01006EE0H   LINE      CODE     ---       #290
      01006EE8H   LINE      CODE     ---       #291
      01006EF1H   LINE      CODE     ---       #292
      01006F0EH   LINE      CODE     ---       #293
      01006F16H   LINE      CODE     ---       #294
      ---         BLOCKEND  ---      ---       LVL=0

      01007FBEH   BLOCK     CODE     ---       LVL=0
      00000004H   SYMBOL    DATA     WORD      val
      01007FC2H   BLOCK     CODE     NEAR LAB  LVL=1
      0200001CH   SYMBOL    XDATA    CHAR      temp
      ---         BLOCKEND  ---      ---       LVL=1
      01007FBEH   LINE      CODE     ---       #296
      01007FC2H   LINE      CODE     ---       #297
      01007FC2H   LINE      CODE     ---       #300
      01007FC7H   LINE      CODE     ---       #301
      01007FDCH   LINE      CODE     ---       #302
      01007FE1H   LINE      CODE     ---       #303
      ---         BLOCKEND  ---      ---       LVL=0

      01008529H   BLOCK     CODE     ---       LVL=0
      01008529H   BLOCK     CODE     NEAR LAB  LVL=1
      02000019H   SYMBOL    XDATA    WORD      val
LX51 LINKER/LOCATER V4.66.87.0                                                        04/18/2018  10:36:57  PAGE 150


      ---         BLOCKEND  ---      ---       LVL=1
      01008529H   LINE      CODE     ---       #305
      01008529H   LINE      CODE     ---       #306
      01008529H   LINE      CODE     ---       #308
      01008537H   LINE      CODE     ---       #309
      ---         BLOCKEND  ---      ---       LVL=0

      01008542H   BLOCK     CODE     ---       LVL=0
      01008542H   BLOCK     CODE     NEAR LAB  LVL=1
      02000019H   SYMBOL    XDATA    WORD      val
      ---         BLOCKEND  ---      ---       LVL=1
      01008542H   LINE      CODE     ---       #312
      01008542H   LINE      CODE     ---       #313
      01008542H   LINE      CODE     ---       #315
      01008550H   LINE      CODE     ---       #316
      ---         BLOCKEND  ---      ---       LVL=0

      01006C96H   BLOCK     CODE     ---       LVL=0
      02000019H   SYMBOL    XDATA    CHAR      temp
      01006C9BH   BLOCK     CODE     NEAR LAB  LVL=1
      0200001AH   SYMBOL    XDATA    WORD      val
      ---         BLOCKEND  ---      ---       LVL=1
      01006C96H   LINE      CODE     ---       #320
      01006C9BH   LINE      CODE     ---       #321
      01006C9BH   LINE      CODE     ---       #323
      01006CA5H   LINE      CODE     ---       #325
      01006CB0H   LINE      CODE     ---       #326
      01006CB3H   LINE      CODE     ---       #328
      01006CBEH   LINE      CODE     ---       #329
      01006CC1H   LINE      CODE     ---       #331
      01006CD1H   LINE      CODE     ---       #332
      ---         BLOCKEND  ---      ---       LVL=0

      01006BB5H   BLOCK     CODE     ---       LVL=0
      02000019H   SYMBOL    XDATA    CHAR      temp
      01006BBAH   BLOCK     CODE     NEAR LAB  LVL=1
      0200001AH   SYMBOL    XDATA    WORD      val
      ---         BLOCKEND  ---      ---       LVL=1
      01006BB5H   LINE      CODE     ---       #335
      01006BBAH   LINE      CODE     ---       #336
      01006BBAH   LINE      CODE     ---       #338
      01006BC7H   LINE      CODE     ---       #340
      01006BD2H   LINE      CODE     ---       #341
      01006BD5H   LINE      CODE     ---       #343
      01006BE0H   LINE      CODE     ---       #344
      01006BE3H   LINE      CODE     ---       #346
      01006BF3H   LINE      CODE     ---       #347
      ---         BLOCKEND  ---      ---       LVL=0

      010071D4H   BLOCK     CODE     ---       LVL=0
      010071D4H   BLOCK     CODE     NEAR LAB  LVL=1
      02000019H   SYMBOL    XDATA    WORD      val
      0200001BH   SYMBOL    XDATA    BYTE      val1
      ---         BLOCKEND  ---      ---       LVL=1
      010071D4H   LINE      CODE     ---       #350
      010071D4H   LINE      CODE     ---       #351
      010071D4H   LINE      CODE     ---       #356
      010071E1H   LINE      CODE     ---       #357
      010071E8H   LINE      CODE     ---       #358
      010071F1H   LINE      CODE     ---       #360
      010071F6H   LINE      CODE     ---       #362
      01007206H   LINE      CODE     ---       #364
      ---         BLOCKEND  ---      ---       LVL=0

      01008AA6H   BLOCK     CODE     ---       LVL=0
LX51 LINKER/LOCATER V4.66.87.0                                                        04/18/2018  10:36:57  PAGE 151


      01008AA6H   BLOCK     CODE     NEAR LAB  LVL=1
      00000007H   SYMBOL    DATA     CHAR      val
      ---         BLOCKEND  ---      ---       LVL=1
      01008AA6H   LINE      CODE     ---       #369
      01008AA6H   LINE      CODE     ---       #370
      01008AA6H   LINE      CODE     ---       #372
      01008AA9H   LINE      CODE     ---       #373
      01008AAEH   LINE      CODE     ---       #374
      01008AB2H   LINE      CODE     ---       #375
      01008AB5H   LINE      CODE     ---       #376
      01008AB5H   LINE      CODE     ---       #377
      ---         BLOCKEND  ---      ---       LVL=0

      01008AB6H   BLOCK     CODE     ---       LVL=0
      01008AB6H   BLOCK     CODE     NEAR LAB  LVL=1
      00000007H   SYMBOL    DATA     CHAR      val
      ---         BLOCKEND  ---      ---       LVL=1
      01008AB6H   LINE      CODE     ---       #379
      01008AB6H   LINE      CODE     ---       #380
      01008AB6H   LINE      CODE     ---       #382
      01008AB9H   LINE      CODE     ---       #383
      01008ABEH   LINE      CODE     ---       #384
      01008AC2H   LINE      CODE     ---       #385
      01008AC5H   LINE      CODE     ---       #386
      01008AC5H   LINE      CODE     ---       #387
      ---         BLOCKEND  ---      ---       LVL=0

      01008AC6H   BLOCK     CODE     ---       LVL=0
      01008AC6H   BLOCK     CODE     NEAR LAB  LVL=1
      00000007H   SYMBOL    DATA     CHAR      val
      ---         BLOCKEND  ---      ---       LVL=1
      01008AC6H   LINE      CODE     ---       #389
      01008AC6H   LINE      CODE     ---       #390
      01008AC6H   LINE      CODE     ---       #392
      01008AC9H   LINE      CODE     ---       #393
      01008ACEH   LINE      CODE     ---       #394
      01008AD2H   LINE      CODE     ---       #395
      01008AD5H   LINE      CODE     ---       #396
      01008AD5H   LINE      CODE     ---       #397
      ---         BLOCKEND  ---      ---       LVL=0

      01008AD6H   BLOCK     CODE     ---       LVL=0
      01008AD6H   BLOCK     CODE     NEAR LAB  LVL=1
      00000007H   SYMBOL    DATA     CHAR      val
      ---         BLOCKEND  ---      ---       LVL=1
      01008AD6H   LINE      CODE     ---       #399
      01008AD6H   LINE      CODE     ---       #400
      01008AD6H   LINE      CODE     ---       #402
      01008AD9H   LINE      CODE     ---       #403
      01008ADEH   LINE      CODE     ---       #404
      01008AE2H   LINE      CODE     ---       #405
      01008AE5H   LINE      CODE     ---       #406
      01008AE5H   LINE      CODE     ---       #407
      ---         BLOCKEND  ---      ---       LVL=0

      01008A65H   BLOCK     CODE     ---       LVL=0
      00000007H   SYMBOL    DATA     BYTE      thres
      01008A65H   BLOCK     CODE     NEAR LAB  LVL=1
      00000007H   SYMBOL    DATA     CHAR      value
      ---         BLOCKEND  ---      ---       LVL=1
      01008A65H   LINE      CODE     ---       #409
      01008A65H   LINE      CODE     ---       #410
      01008A65H   LINE      CODE     ---       #412
      01008A69H   LINE      CODE     ---       #413
      01008A69H   LINE      CODE     ---       #414
LX51 LINKER/LOCATER V4.66.87.0                                                        04/18/2018  10:36:57  PAGE 152


      01008A6EH   LINE      CODE     ---       #415
      01008A6FH   LINE      CODE     ---       #416
      01008A70H   LINE      CODE     ---       #417
      01008A70H   LINE      CODE     ---       #418
      01008A73H   LINE      CODE     ---       #419
      01008A73H   LINE      CODE     ---       #420
      01008A73H   LINE      CODE     ---       #421
      01008A75H   LINE      CODE     ---       #422
      01008A75H   LINE      CODE     ---       #423
      ---         BLOCKEND  ---      ---       LVL=0

      01008F6DH   BLOCK     CODE     ---       LVL=0
      01008F6DH   LINE      CODE     ---       #425
      01008F6DH   LINE      CODE     ---       #426
      01008F6DH   LINE      CODE     ---       #427
      ---         BLOCKEND  ---      ---       LVL=0

      01008F72H   BLOCK     CODE     ---       LVL=0
      01008F72H   LINE      CODE     ---       #430
      01008F72H   LINE      CODE     ---       #431
      01008F72H   LINE      CODE     ---       #433
      ---         BLOCKEND  ---      ---       LVL=0

      01008D2CH   BLOCK     CODE     ---       LVL=0
      01008D2CH   LINE      CODE     ---       #436
      01008D2CH   LINE      CODE     ---       #437
      01008D2CH   LINE      CODE     ---       #438
      01008D36H   LINE      CODE     ---       #439
      ---         BLOCKEND  ---      ---       LVL=0

      01008C8FH   BLOCK     CODE     ---       LVL=0
      01008C8FH   LINE      CODE     ---       #441
      01008C8FH   LINE      CODE     ---       #442
      01008C8FH   LINE      CODE     ---       #443
      01008C9AH   LINE      CODE     ---       #444
      ---         BLOCKEND  ---      ---       LVL=0

      01008D37H   BLOCK     CODE     ---       LVL=0
      01008D37H   LINE      CODE     ---       #446
      01008D37H   LINE      CODE     ---       #447
      01008D37H   LINE      CODE     ---       #448
      01008D41H   LINE      CODE     ---       #449
      ---         BLOCKEND  ---      ---       LVL=0

      01008C9BH   BLOCK     CODE     ---       LVL=0
      01008C9BH   LINE      CODE     ---       #451
      01008C9BH   LINE      CODE     ---       #452
      01008C9BH   LINE      CODE     ---       #453
      01008CA6H   LINE      CODE     ---       #454
      ---         BLOCKEND  ---      ---       LVL=0

      01008D76H   BLOCK     CODE     ---       LVL=0
      00000020H.0 SYMBOL    BIT      BIT       enable
      01008D76H   LINE      CODE     ---       #456
      01008D76H   LINE      CODE     ---       #457
      01008D76H   LINE      CODE     ---       #458
      01008D79H   LINE      CODE     ---       #459
      01008D7CH   LINE      CODE     ---       #460
      01008D7CH   LINE      CODE     ---       #461
      01008D7FH   LINE      CODE     ---       #462
      01008D7FH   LINE      CODE     ---       #463
      ---         BLOCKEND  ---      ---       LVL=0

      0100877DH   BLOCK     CODE     ---       LVL=0
      0200000CH   SYMBOL    XDATA    BYTE      ev
LX51 LINKER/LOCATER V4.66.87.0                                                        04/18/2018  10:36:57  PAGE 153


      0100877DH   LINE      CODE     ---       #465
      01008782H   LINE      CODE     ---       #466
      01008782H   LINE      CODE     ---       #467
      0100878BH   LINE      CODE     ---       #468
      ---         BLOCKEND  ---      ---       LVL=0

      01008413H   BLOCK     CODE     ---       LVL=0
      00000020H.0 SYMBOL    BIT      BIT       enable
      01008413H   LINE      CODE     ---       #471
      01008413H   LINE      CODE     ---       #472
      01008413H   LINE      CODE     ---       #473
      01008428H   LINE      CODE     ---       #475
      0100842CH   LINE      CODE     ---       #476
      ---         BLOCKEND  ---      ---       LVL=0

      0100842DH   BLOCK     CODE     ---       LVL=0
      00000020H.0 SYMBOL    BIT      BIT       enable
      0100842DH   LINE      CODE     ---       #478
      0100842DH   LINE      CODE     ---       #479
      0100842DH   LINE      CODE     ---       #480
      01008442H   LINE      CODE     ---       #482
      01008446H   LINE      CODE     ---       #483
      ---         BLOCKEND  ---      ---       LVL=0

      01008E11H   BLOCK     CODE     ---       LVL=0
      01008E11H   LINE      CODE     ---       #485
      01008E11H   LINE      CODE     ---       #486
      01008E11H   LINE      CODE     ---       #487
      ---         BLOCKEND  ---      ---       LVL=0

      01008E1AH   BLOCK     CODE     ---       LVL=0
      01008E1AH   LINE      CODE     ---       #490
      01008E1AH   LINE      CODE     ---       #491
      01008E1AH   LINE      CODE     ---       #492
      ---         BLOCKEND  ---      ---       LVL=0

      ---         MODULE    ---      ---       ROM
      01007196H   PUBLIC    CODE     ---       rom_initialize
      01008E90H   PUBLIC    CODE     ---       rom_is_factory_reset
      01007923H   PUBLIC    CODE     ---       _rom_write
      0100775AH   PUBLIC    CODE     ---       _rom_read
      00000080H   SFRSYM    DATA     BYTE      P0
      00000090H   SFRSYM    DATA     BYTE      P1
      000000A0H   SFRSYM    DATA     BYTE      P2
      000000B0H   SFRSYM    DATA     BYTE      P3
      000000C0H   SFRSYM    DATA     BYTE      XICON
      000000B0H.4 SFRSYM    DATA     BIT       T0
      000000D0H.6 SFRSYM    DATA     BIT       AC
      000000E8H   SFRSYM    DATA     BYTE      P4
      000000B0H.5 SFRSYM    DATA     BIT       T1
      000000E6H   SFRSYM    DATA     BYTE      ISP_TRIG
      00000090H.0 SFRSYM    DATA     BIT       T2
      000000A8H.7 SFRSYM    DATA     BIT       EA
      000000A8H.6 SFRSYM    DATA     BIT       EC
      00000098H.7 SFRSYM    DATA     BIT       FE
      000000A8H   SFRSYM    DATA     BYTE      IE
      000000C8H.6 SFRSYM    DATA     BIT       EXF2
      000000B0H.7 SFRSYM    DATA     BIT       RD
      000000A8H.4 SFRSYM    DATA     BIT       ES
      000000B8H   SFRSYM    DATA     BYTE      IP
      00000098H.0 SFRSYM    DATA     BIT       RI
      000000B0H.2 SFRSYM    DATA     BIT       INT0
      000000D0H.7 SFRSYM    DATA     BIT       CY
      00000098H.1 SFRSYM    DATA     BIT       TI
      000000B0H.3 SFRSYM    DATA     BIT       INT1
LX51 LINKER/LOCATER V4.66.87.0                                                        04/18/2018  10:36:57  PAGE 154


      000000CBH   SFRSYM    DATA     BYTE      RCAP2H
      000000E5H   SFRSYM    DATA     BYTE      ISP_CMD
      000000B8H.4 SFRSYM    DATA     BIT       PS
      00000081H   SFRSYM    DATA     BYTE      SP
      00000090H.1 SFRSYM    DATA     BIT       T2EX
      000000D0H.2 SFRSYM    DATA     BIT       OV
      000000CAH   SFRSYM    DATA     BYTE      RCAP2L
      000000C8H.1 SFRSYM    DATA     BIT       C_T2
      000000B0H.6 SFRSYM    DATA     BIT       WR
      000000C8H.5 SFRSYM    DATA     BIT       RCLK
      000000C8H.4 SFRSYM    DATA     BIT       TCLK
      00000080H.0 SFRSYM    DATA     BIT       P00
      00000099H   SFRSYM    DATA     BYTE      SBUF
      00000087H   SFRSYM    DATA     BYTE      PCON
      00000090H.0 SFRSYM    DATA     BIT       P10
      00000080H.1 SFRSYM    DATA     BIT       P01
      000000A0H.0 SFRSYM    DATA     BIT       P20
      00000090H.1 SFRSYM    DATA     BIT       P11
      00000080H.2 SFRSYM    DATA     BIT       P02
      000000E3H   SFRSYM    DATA     BYTE      ISP_ADDRH
      000000B0H.0 SFRSYM    DATA     BIT       P30
      000000A0H.1 SFRSYM    DATA     BIT       P21
      00000090H.2 SFRSYM    DATA     BIT       P12
      00000080H.3 SFRSYM    DATA     BIT       P03
      00000098H   SFRSYM    DATA     BYTE      SCON
      000000B0H.1 SFRSYM    DATA     BIT       P31
      000000A0H.2 SFRSYM    DATA     BIT       P22
      00000090H.3 SFRSYM    DATA     BIT       P13
      00000080H.4 SFRSYM    DATA     BIT       P04
      000000E8H.0 SFRSYM    DATA     BIT       P40
      00000089H   SFRSYM    DATA     BYTE      TMOD
      00000088H   SFRSYM    DATA     BYTE      TCON
      000000B0H.2 SFRSYM    DATA     BIT       P32
      000000A0H.3 SFRSYM    DATA     BIT       P23
      00000090H.4 SFRSYM    DATA     BIT       P14
      00000080H.5 SFRSYM    DATA     BIT       P05
      000000E8H.1 SFRSYM    DATA     BIT       P41
      000000B0H.3 SFRSYM    DATA     BIT       P33
      000000A0H.4 SFRSYM    DATA     BIT       P24
      00000090H.5 SFRSYM    DATA     BIT       P15
      00000080H.6 SFRSYM    DATA     BIT       P06
      000000E4H   SFRSYM    DATA     BYTE      ISP_ADDRL
      000000E8H.2 SFRSYM    DATA     BIT       P42
      000000B0H.4 SFRSYM    DATA     BIT       P34
      000000A0H.5 SFRSYM    DATA     BIT       P25
      00000090H.6 SFRSYM    DATA     BIT       P16
      00000080H.7 SFRSYM    DATA     BIT       P07
      000000E8H.3 SFRSYM    DATA     BIT       P43
      000000B0H.5 SFRSYM    DATA     BIT       P35
      000000A0H.6 SFRSYM    DATA     BIT       P26
      00000090H.7 SFRSYM    DATA     BIT       P17
      000000E8H.4 SFRSYM    DATA     BIT       P44
      000000B0H.6 SFRSYM    DATA     BIT       P36
      000000A0H.7 SFRSYM    DATA     BIT       P27
      000000E8H.5 SFRSYM    DATA     BIT       P45
      000000B0H.7 SFRSYM    DATA     BIT       P37
      000000E8H.6 SFRSYM    DATA     BIT       P46
      00000088H.1 SFRSYM    DATA     BIT       IE0
      00000088H.3 SFRSYM    DATA     BIT       IE1
      0000008EH   SFRSYM    DATA     BYTE      AUXR
      000000F0H   SFRSYM    DATA     BYTE      B
      000000C8H.0 SFRSYM    DATA     BIT       CP_RL2
      000000E0H   SFRSYM    DATA     BYTE      ACC
      000000A8H.1 SFRSYM    DATA     BIT       ET0
      000000A8H.3 SFRSYM    DATA     BIT       ET1
LX51 LINKER/LOCATER V4.66.87.0                                                        04/18/2018  10:36:57  PAGE 155


      00000088H.5 SFRSYM    DATA     BIT       TF0
      000000A8H.5 SFRSYM    DATA     BIT       ET2
      00000088H.7 SFRSYM    DATA     BIT       TF1
      000000C8H.7 SFRSYM    DATA     BIT       TF2
      00000098H.2 SFRSYM    DATA     BIT       RB8
      0000008CH   SFRSYM    DATA     BYTE      TH0
      000000A8H.0 SFRSYM    DATA     BIT       EX0
      00000088H.0 SFRSYM    DATA     BIT       IT0
      0000008DH   SFRSYM    DATA     BYTE      TH1
      00000098H.3 SFRSYM    DATA     BIT       TB8
      000000A8H.2 SFRSYM    DATA     BIT       EX1
      00000088H.2 SFRSYM    DATA     BIT       IT1
      000000CDH   SFRSYM    DATA     BYTE      TH2
      000000D0H.0 SFRSYM    DATA     BIT       P
      00000098H.7 SFRSYM    DATA     BIT       SM0
      0000008AH   SFRSYM    DATA     BYTE      TL0
      00000098H.6 SFRSYM    DATA     BIT       SM1
      0000008BH   SFRSYM    DATA     BYTE      TL1
      00000098H.5 SFRSYM    DATA     BIT       SM2
      000000CCH   SFRSYM    DATA     BYTE      TL2
      000000B0H.7 SFRSYM    DATA     BIT       ROM_RESET
      000000B8H.1 SFRSYM    DATA     BIT       PT0
      000000B8H.3 SFRSYM    DATA     BIT       PT1
      000000D0H.3 SFRSYM    DATA     BIT       RS0
      000000E7H   SFRSYM    DATA     BYTE      ISP_CONTR
      000000B8H.5 SFRSYM    DATA     BIT       PT2
      00000088H.4 SFRSYM    DATA     BIT       TR0
      000000D0H.4 SFRSYM    DATA     BIT       RS1
      00000088H.6 SFRSYM    DATA     BIT       TR1
      000000C8H.2 SFRSYM    DATA     BIT       TR2
      000000B8H.0 SFRSYM    DATA     BIT       PX0
      000000E1H   SFRSYM    DATA     BYTE      WDT_CONTR
      000000B8H.2 SFRSYM    DATA     BIT       PX1
      00000083H   SFRSYM    DATA     BYTE      DPH
      00000082H   SFRSYM    DATA     BYTE      DPL
      000000B7H   SFRSYM    DATA     BYTE      IPH
      000000C8H.3 SFRSYM    DATA     BIT       EXEN2
      00000098H.4 SFRSYM    DATA     BIT       REN
      000000C9H   SFRSYM    DATA     BYTE      T2MOD
      000000C8H   SFRSYM    DATA     BYTE      T2CON
      000000E2H   SFRSYM    DATA     BYTE      ISP_DATA
      000000B9H   SFRSYM    DATA     BYTE      SADEN
      000000B0H.0 SFRSYM    DATA     BIT       RXD
      000000A9H   SFRSYM    DATA     BYTE      SADDR
      000000B0H.1 SFRSYM    DATA     BIT       TXD
      000000A2H   SFRSYM    DATA     BYTE      AUXR1
      000000D0H.5 SFRSYM    DATA     BIT       F0
      000000D0H   SFRSYM    DATA     BYTE      PSW
      01003EC4H   SYMBOL    CODE     ---       rom_reset
      01005132H   SYMBOL    CODE     ---       rom_dump

      0100775AH   BLOCK     CODE     ---       LVL=0
      02000018H   SYMBOL    XDATA    BYTE      addr
      0100775FH   BLOCK     CODE     NEAR LAB  LVL=1
      02000019H   SYMBOL    XDATA    BYTE      dat
      ---         BLOCKEND  ---      ---       LVL=1
      0100775AH   LINE      CODE     ---       #11
      0100775FH   LINE      CODE     ---       #12
      0100775FH   LINE      CODE     ---       #14
      01007762H   LINE      CODE     ---       #15
      0100776FH   LINE      CODE     ---       #16
      01007788H   LINE      CODE     ---       #17
      0100778DH   LINE      CODE     ---       #18
      ---         BLOCKEND  ---      ---       LVL=0

LX51 LINKER/LOCATER V4.66.87.0                                                        04/18/2018  10:36:57  PAGE 156


      01007923H   BLOCK     CODE     ---       LVL=0
      02000017H   SYMBOL    XDATA    BYTE      addr
      02000018H   SYMBOL    XDATA    BYTE      val
      01007923H   LINE      CODE     ---       #20
      0100792BH   LINE      CODE     ---       #21
      0100792BH   LINE      CODE     ---       #22
      0100792EH   LINE      CODE     ---       #23
      0100793BH   LINE      CODE     ---       #24
      ---         BLOCKEND  ---      ---       LVL=0

      01005132H   BLOCK     CODE     ---       LVL=0
      01005132H   LINE      CODE     ---       #27
      01005132H   LINE      CODE     ---       #28
      01005132H   LINE      CODE     ---       #29
      01005137H   LINE      CODE     ---       #30
      0100513CH   LINE      CODE     ---       #31
      01005141H   LINE      CODE     ---       #32
      01005146H   LINE      CODE     ---       #33
      0100514BH   LINE      CODE     ---       #35
      01005150H   LINE      CODE     ---       #36
      01005155H   LINE      CODE     ---       #37
      0100515AH   LINE      CODE     ---       #40
      0100515FH   LINE      CODE     ---       #42
      01005164H   LINE      CODE     ---       #43
      01005169H   LINE      CODE     ---       #44
      0100516EH   LINE      CODE     ---       #45
      01005173H   LINE      CODE     ---       #46
      01005178H   LINE      CODE     ---       #48
      01005178H   LINE      CODE     ---       #49
      01005178H   LINE      CODE     ---       #50
      0100517BH   LINE      CODE     ---       #51
      0100517BH   LINE      CODE     ---       #52
      0100517BH   LINE      CODE     ---       #53
      0100517EH   LINE      CODE     ---       #55
      01005183H   LINE      CODE     ---       #56
      01005188H   LINE      CODE     ---       #57
      0100518DH   LINE      CODE     ---       #58
      01005192H   LINE      CODE     ---       #59
      01005197H   LINE      CODE     ---       #60
      0100519CH   LINE      CODE     ---       #62
      010051A1H   LINE      CODE     ---       #63
      010051A6H   LINE      CODE     ---       #64
      010051ABH   LINE      CODE     ---       #65
      010051B0H   LINE      CODE     ---       #66
      010051B5H   LINE      CODE     ---       #67
      010051BAH   LINE      CODE     ---       #68
      010051BFH   LINE      CODE     ---       #69
      ---         BLOCKEND  ---      ---       LVL=0

      01003EC4H   BLOCK     CODE     ---       LVL=0
      01003EC4H   LINE      CODE     ---       #71
      01003EC4H   LINE      CODE     ---       #72
      01003EC4H   LINE      CODE     ---       #73
      01003ECBH   LINE      CODE     ---       #74
      01003ED2H   LINE      CODE     ---       #75
      01003ED9H   LINE      CODE     ---       #76
      01003EDBH   LINE      CODE     ---       #77
      01003EE3H   LINE      CODE     ---       #79
      01003EEAH   LINE      CODE     ---       #80
      01003EF1H   LINE      CODE     ---       #81
      01003EF8H   LINE      CODE     ---       #84
      01003EFAH   LINE      CODE     ---       #86
      01003F02H   LINE      CODE     ---       #87
      01003F09H   LINE      CODE     ---       #88
      01003F10H   LINE      CODE     ---       #89
LX51 LINKER/LOCATER V4.66.87.0                                                        04/18/2018  10:36:57  PAGE 157


      01003F17H   LINE      CODE     ---       #90
      01003F1EH   LINE      CODE     ---       #92
      01003F25H   LINE      CODE     ---       #93
      01003F2CH   LINE      CODE     ---       #94
      01003F33H   LINE      CODE     ---       #95
      01003F3AH   LINE      CODE     ---       #96
      01003F41H   LINE      CODE     ---       #97
      01003F48H   LINE      CODE     ---       #99
      01003F4FH   LINE      CODE     ---       #100
      01003F56H   LINE      CODE     ---       #101
      01003F5DH   LINE      CODE     ---       #102
      01003F64H   LINE      CODE     ---       #103
      01003F6BH   LINE      CODE     ---       #104
      01003F72H   LINE      CODE     ---       #106
      01003F74H   LINE      CODE     ---       #107
      01003F7CH   LINE      CODE     ---       #108
      01003F7EH   LINE      CODE     ---       #109
      01003F86H   LINE      CODE     ---       #110
      01003F8DH   LINE      CODE     ---       #111
      01003F94H   LINE      CODE     ---       #112
      01003F9BH   LINE      CODE     ---       #113
      ---         BLOCKEND  ---      ---       LVL=0

      01008E90H   BLOCK     CODE     ---       LVL=0
      01008E90H   LINE      CODE     ---       #115
      01008E90H   LINE      CODE     ---       #116
      01008E90H   LINE      CODE     ---       #117
      01008E97H   LINE      CODE     ---       #118
      ---         BLOCKEND  ---      ---       LVL=0

      01007196H   BLOCK     CODE     ---       LVL=0
      01007196H   LINE      CODE     ---       #120
      01007196H   LINE      CODE     ---       #121
      01007196H   LINE      CODE     ---       #122
      010071C0H   LINE      CODE     ---       #123
      010071C5H   LINE      CODE     ---       #124
      010071CEH   LINE      CODE     ---       #125
      010071D1H   LINE      CODE     ---       #126
      010071D1H   LINE      CODE     ---       #128
      ---         BLOCKEND  ---      ---       LVL=0

      ---         MODULE    ---      ---       DELAY_TASK
      01006936H   PUBLIC    CODE     ---       delay_task_call
      01006CDFH   PUBLIC    CODE     ---       _delay_task_reg
      01008E23H   PUBLIC    CODE     ---       delay_task_initialize
      020000B6H   SYMBOL    XDATA    ---       delay_tasks
      020000B9H   SYMBOL    XDATA    ---       task

      01008197H   BLOCK     CODE     ---       LVL=0
      ---         BLOCKEND  ---      ---       LVL=0

      01008E23H   BLOCK     CODE     ---       LVL=0
      01008E23H   LINE      CODE     ---       #9
      01008E23H   LINE      CODE     ---       #10
      01008E23H   LINE      CODE     ---       #11
      ---         BLOCKEND  ---      ---       LVL=0

      01006CDFH   BLOCK     CODE     ---       LVL=0
      02000018H   SYMBOL    XDATA    BYTE      index
      02000019H   SYMBOL    XDATA    ---       task
      0200001BH   SYMBOL    XDATA    BYTE      delay_sec
      01006CDFH   LINE      CODE     ---       #14
      01006CF2H   LINE      CODE     ---       #15
      01006CF2H   LINE      CODE     ---       #16
      01006D03H   LINE      CODE     ---       #17
LX51 LINKER/LOCATER V4.66.87.0                                                        04/18/2018  10:36:57  PAGE 158


      01006D0DH   LINE      CODE     ---       #19
      01006D0DH   LINE      CODE     ---       #21
      01006D1CH   LINE      CODE     ---       #22
      01006D27H   LINE      CODE     ---       #23
      ---         BLOCKEND  ---      ---       LVL=0

      01006936H   BLOCK     CODE     ---       LVL=0
      01006936H   BLOCK     CODE     NEAR LAB  LVL=1
      0200000DH   SYMBOL    XDATA    BYTE      i
      ---         BLOCKEND  ---      ---       LVL=1
      01006936H   LINE      CODE     ---       #26
      01006936H   LINE      CODE     ---       #27
      01006936H   LINE      CODE     ---       #30
      01006945H   LINE      CODE     ---       #31
      0100695CH   LINE      CODE     ---       #32
      0100696AH   LINE      CODE     ---       #33
      01006977H   LINE      CODE     ---       #34
      0100697EH   LINE      CODE     ---       #35
      0100697EH   LINE      CODE     ---       #36
      01006986H   LINE      CODE     ---       #37
      ---         BLOCKEND  ---      ---       LVL=0

      ---         MODULE    ---      ---       SHELL
      0200007FH   PUBLIC    XDATA    ---       shell_buf
      0100A191H   PUBLIC    CONST    ---       cmds
      010030A4H   PUBLIC    CODE     ---       run_shell
      01007688H   PUBLIC    CODE     ---       shell_dump_cmd
      01006D28H   PUBLIC    CODE     ---       _shell_search_cmd_by_name
      01005A7EH   SYMBOL    CODE     ---       _call_cmd
      01008CA7H   SYMBOL    CODE     ---       _cmd_null

      01006B67H   BLOCK     CODE     ---       LVL=0
      ---         BLOCKEND  ---      ---       LVL=0

      01008CA7H   BLOCK     CODE     ---       LVL=0
      02000000H   SYMBOL    XDATA    CHAR      arg1
      02000001H   SYMBOL    XDATA    CHAR      arg2
      01008CA7H   LINE      CODE     ---       #26
      01008CA7H   LINE      CODE     ---       #27
      01008CA7H   LINE      CODE     ---       #28
      01008CA7H   LINE      CODE     ---       #29
      01008CA7H   LINE      CODE     ---       #30
      01008CB0H   LINE      CODE     ---       #31
      01008CB2H   LINE      CODE     ---       #32
      ---         BLOCKEND  ---      ---       LVL=0

      01006D28H   BLOCK     CODE     ---       LVL=0
      02000009H   SYMBOL    XDATA    ---       cmd
      01006D2EH   BLOCK     CODE     NEAR LAB  LVL=1
      0200000CH   SYMBOL    XDATA    CHAR      i
      ---         BLOCKEND  ---      ---       LVL=1
      01006D28H   LINE      CODE     ---       #83
      01006D2EH   LINE      CODE     ---       #84
      01006D2EH   LINE      CODE     ---       #86
      01006D3FH   LINE      CODE     ---       #87
      01006D60H   LINE      CODE     ---       #88
      01006D66H   LINE      CODE     ---       #89
      01006D66H   LINE      CODE     ---       #90
      01006D6EH   LINE      CODE     ---       #91
      01006D70H   LINE      CODE     ---       #92
      ---         BLOCKEND  ---      ---       LVL=0

      01005A7EH   BLOCK     CODE     ---       LVL=0
      02000002H   SYMBOL    XDATA    ---       buf
      02000005H   SYMBOL    XDATA    CHAR      arg1
LX51 LINKER/LOCATER V4.66.87.0                                                        04/18/2018  10:36:57  PAGE 159


      02000006H   SYMBOL    XDATA    CHAR      arg2
      01005A89H   BLOCK     CODE     NEAR LAB  LVL=1
      02000007H   SYMBOL    XDATA    CHAR      i
      ---         BLOCKEND  ---      ---       LVL=1
      01005A7EH   LINE      CODE     ---       #94
      01005A89H   LINE      CODE     ---       #95
      01005A89H   LINE      CODE     ---       #97
      01005A95H   LINE      CODE     ---       #98
      01005AA3H   LINE      CODE     ---       #99
      01005AA6H   LINE      CODE     ---       #100
      01005ACEH   LINE      CODE     ---       #101
      01005AEBH   LINE      CODE     ---       #102
      01005AEBH   LINE      CODE     ---       #103
      01005AEDH   LINE      CODE     ---       #104
      01005AF9H   LINE      CODE     ---       #105
      01005AF9H   LINE      CODE     ---       #106
      ---         BLOCKEND  ---      ---       LVL=0

      01007688H   BLOCK     CODE     ---       LVL=0
      01007688H   BLOCK     CODE     NEAR LAB  LVL=1
      02000009H   SYMBOL    XDATA    CHAR      i
      ---         BLOCKEND  ---      ---       LVL=1
      01007688H   LINE      CODE     ---       #108
      01007688H   LINE      CODE     ---       #109
      01007688H   LINE      CODE     ---       #111
      01007699H   LINE      CODE     ---       #112
      010076B4H   LINE      CODE     ---       #113
      010076BCH   LINE      CODE     ---       #114
      ---         BLOCKEND  ---      ---       LVL=0

      010030A4H   BLOCK     CODE     ---       LVL=0
      010030A4H   BLOCK     CODE     NEAR LAB  LVL=1
      02000000H   SYMBOL    XDATA    CHAR      arg1_pos
      02000001H   SYMBOL    XDATA    CHAR      arg2_pos
      ---         BLOCKEND  ---      ---       LVL=1
      010030A4H   LINE      CODE     ---       #116
      010030A4H   LINE      CODE     ---       #117
      010030A4H   LINE      CODE     ---       #120
      010030A7H   LINE      CODE     ---       #121
      010030B0H   LINE      CODE     ---       #122
      010030B3H   LINE      CODE     ---       #125
      010030B6H   LINE      CODE     ---       #126
      010030B9H   LINE      CODE     ---       #127
      010030BCH   LINE      CODE     ---       #128
      010030C3H   LINE      CODE     ---       #129
      010030CAH   LINE      CODE     ---       #130
      010030D1H   LINE      CODE     ---       #131
      010030D8H   LINE      CODE     ---       #132
      010030DDH   LINE      CODE     ---       #133
      010030DDH   LINE      CODE     ---       #134
      010030E6H   LINE      CODE     ---       #136
      010030F3H   LINE      CODE     ---       #138
      010030F8H   LINE      CODE     ---       #140
      01003101H   LINE      CODE     ---       #141
      01003101H   LINE      CODE     ---       #143
      01003106H   LINE      CODE     ---       #144
      01003108H   LINE      CODE     ---       #146
      0100311DH   LINE      CODE     ---       #148
      01003128H   LINE      CODE     ---       #149
      01003128H   LINE      CODE     ---       #150
      0100312AH   LINE      CODE     ---       #151
      0100312AH   LINE      CODE     ---       #153
      01003136H   LINE      CODE     ---       #154
      0100313BH   LINE      CODE     ---       #155
      01003141H   LINE      CODE     ---       #156
LX51 LINKER/LOCATER V4.66.87.0                                                        04/18/2018  10:36:57  PAGE 160


      01003143H   LINE      CODE     ---       #158
      0100314EH   LINE      CODE     ---       #159
      0100315AH   LINE      CODE     ---       #160
      0100315CH   LINE      CODE     ---       #161
      0100315CH   LINE      CODE     ---       #163
      01003162H   LINE      CODE     ---       #165
      0100317AH   LINE      CODE     ---       #167
      01003185H   LINE      CODE     ---       #168
      0100318DH   LINE      CODE     ---       #169
      0100318FH   LINE      CODE     ---       #170
      0100318FH   LINE      CODE     ---       #172
      0100319EH   LINE      CODE     ---       #173
      010031A3H   LINE      CODE     ---       #174
      010031A9H   LINE      CODE     ---       #175
      010031ABH   LINE      CODE     ---       #177
      010031B9H   LINE      CODE     ---       #178
      010031C1H   LINE      CODE     ---       #179
      010031C3H   LINE      CODE     ---       #180
      010031C3H   LINE      CODE     ---       #182
      010031CFH   LINE      CODE     ---       #184
      010031E4H   LINE      CODE     ---       #186
      010031E7H   LINE      CODE     ---       #187
      010031EAH   LINE      CODE     ---       #188
      010031EDH   LINE      CODE     ---       #189
      ---         BLOCKEND  ---      ---       LVL=0

      ---         MODULE    ---      ---       DEBUG
      0200001EH   PUBLIC    XDATA    BYTE      ?_debug_printf?BYTE
      0100761BH   PUBLIC    CODE     ---       _debug_printf
      00000020H.0 PUBLIC    BIT      BIT       ?debug_onoff?BIT
      01008F77H   PUBLIC    CODE     ---       debug_onoff
      01008FA0H   PUBLIC    CODE     ---       debug_initialize
      00000025H.1 SYMBOL    BIT      BIT       debug_is_on

      01008FA0H   BLOCK     CODE     ---       LVL=0
      01008FA0H   LINE      CODE     ---       #7
      01008FA0H   LINE      CODE     ---       #8
      01008FA0H   LINE      CODE     ---       #9
      01008FA2H   LINE      CODE     ---       #10
      ---         BLOCKEND  ---      ---       LVL=0

      01008F77H   BLOCK     CODE     ---       LVL=0
      00000020H.0 SYMBOL    BIT      BIT       enable
      01008F77H   LINE      CODE     ---       #12
      01008F77H   LINE      CODE     ---       #13
      01008F77H   LINE      CODE     ---       #14
      01008F7BH   LINE      CODE     ---       #15
      ---         BLOCKEND  ---      ---       LVL=0

      0100761BH   BLOCK     CODE     ---       LVL=0
      0200001EH   SYMBOL    XDATA    ---       fmt
      01007621H   BLOCK     CODE     NEAR LAB  LVL=1
      02000021H   SYMBOL    XDATA    ---       ellipsis_40
      02000049H   SYMBOL    XDATA    ---       arg_ptr
      ---         BLOCKEND  ---      ---       LVL=1
      0100761BH   LINE      CODE     ---       #17
      01007621H   LINE      CODE     ---       #18
      01007621H   LINE      CODE     ---       #21
      01007624H   LINE      CODE     ---       #22
      01007630H   LINE      CODE     ---       #23
      01007645H   LINE      CODE     ---       #24
      01007651H   LINE      CODE     ---       #25
      01007651H   LINE      CODE     ---       #26
      ---         BLOCKEND  ---      ---       LVL=0

LX51 LINKER/LOCATER V4.66.87.0                                                        04/18/2018  10:36:57  PAGE 161


      ---         MODULE    ---      ---       MPU
      02000014H   PUBLIC    XDATA    BYTE      ?_mpu_read_acc?BYTE
      01004DFDH   PUBLIC    CODE     ---       _mpu_read_acc
      00000020H.0 PUBLIC    BIT      BIT       ?mpu_enable?BIT
      01008216H   PUBLIC    CODE     ---       mpu_enable
      01008E3EH   PUBLIC    CODE     ---       scan_mpu
      01008E35H   PUBLIC    CODE     ---       mpu_leave_powersave
      01008E2CH   PUBLIC    CODE     ---       mpu_enter_powersave
      01008B70H   PUBLIC    CODE     ---       mpu_initialize
      0100895CH   PUBLIC    CODE     ---       mpu_read_int_status
      01006E00H   SYMBOL    CODE     ---       mpu_power_off
      00000025H.2 SYMBOL    BIT      BIT       mpu_enabled
      0100415FH   SYMBOL    CODE     ---       mpu_power_on

      01007E98H   BLOCK     CODE     ---       LVL=0
      ---         BLOCKEND  ---      ---       LVL=0

      0100895CH   BLOCK     CODE     ---       LVL=0
      0100895CH   BLOCK     CODE     NEAR LAB  LVL=1
      0200000AH   SYMBOL    XDATA    BYTE      val
      ---         BLOCKEND  ---      ---       LVL=1
      0100895CH   LINE      CODE     ---       #117
      0100895CH   LINE      CODE     ---       #118
      0100895CH   LINE      CODE     ---       #121
      01008969H   LINE      CODE     ---       #123
      0100896EH   LINE      CODE     ---       #124
      ---         BLOCKEND  ---      ---       LVL=0

      0100415FH   BLOCK     CODE     ---       LVL=0
      0100415FH   BLOCK     CODE     NEAR LAB  LVL=1
      02000018H   SYMBOL    XDATA    ---       val
      ---         BLOCKEND  ---      ---       LVL=1
      0100415FH   LINE      CODE     ---       #126
      0100415FH   LINE      CODE     ---       #127
      0100415FH   LINE      CODE     ---       #130
      01004168H   LINE      CODE     ---       #133
      0100416AH   LINE      CODE     ---       #134
      0100416DH   LINE      CODE     ---       #135
      01004170H   LINE      CODE     ---       #138
      01004170H   LINE      CODE     ---       #139
      0100417AH   LINE      CODE     ---       #140
      0100417FH   LINE      CODE     ---       #143
      01004180H   LINE      CODE     ---       #144
      01004183H   LINE      CODE     ---       #145
      01004186H   LINE      CODE     ---       #148
      0100418BH   LINE      CODE     ---       #149
      01004195H   LINE      CODE     ---       #152
      01004195H   LINE      CODE     ---       #153
      0100419FH   LINE      CODE     ---       #156
      0100419FH   LINE      CODE     ---       #157
      010041A4H   LINE      CODE     ---       #160
      010041A9H   LINE      CODE     ---       #161
      010041AEH   LINE      CODE     ---       #164
      010041B3H   LINE      CODE     ---       #165
      010041B8H   LINE      CODE     ---       #168
      010041BEH   LINE      CODE     ---       #169
      010041C4H   LINE      CODE     ---       #172
      010041CAH   LINE      CODE     ---       #173
      010041D0H   LINE      CODE     ---       #185
      010041D5H   LINE      CODE     ---       #186
      010041DAH   LINE      CODE     ---       #189
      010041DFH   LINE      CODE     ---       #190
      010041E9H   LINE      CODE     ---       #201
      010041EEH   LINE      CODE     ---       #202
      010041F8H   LINE      CODE     ---       #203
LX51 LINKER/LOCATER V4.66.87.0                                                        04/18/2018  10:36:57  PAGE 162


      010041FDH   LINE      CODE     ---       #204
      01004207H   LINE      CODE     ---       #206
      01004209H   LINE      CODE     ---       #207
      ---         BLOCKEND  ---      ---       LVL=0

      01006E00H   BLOCK     CODE     ---       LVL=0
      01006E00H   BLOCK     CODE     NEAR LAB  LVL=1
      02000018H   SYMBOL    XDATA    ---       val
      ---         BLOCKEND  ---      ---       LVL=1
      01006E00H   LINE      CODE     ---       #209
      01006E00H   LINE      CODE     ---       #210
      01006E00H   LINE      CODE     ---       #212
      01006E09H   LINE      CODE     ---       #221
      01006E0BH   LINE      CODE     ---       #222
      01006E18H   LINE      CODE     ---       #223
      01006E1AH   LINE      CODE     ---       #224
      01006E27H   LINE      CODE     ---       #227
      01006E28H   LINE      CODE     ---       #228
      01006E35H   LINE      CODE     ---       #229
      01006E3AH   LINE      CODE     ---       #232
      01006E44H   LINE      CODE     ---       #234
      01006E46H   LINE      CODE     ---       #235
      ---         BLOCKEND  ---      ---       LVL=0

      01008B70H   BLOCK     CODE     ---       LVL=0
      01008B70H   LINE      CODE     ---       #236
      01008B70H   LINE      CODE     ---       #237
      01008B70H   LINE      CODE     ---       #239
      01008B79H   LINE      CODE     ---       #240
      01008B7CH   LINE      CODE     ---       #241
      ---         BLOCKEND  ---      ---       LVL=0

      01008E2CH   BLOCK     CODE     ---       LVL=0
      01008E2CH   LINE      CODE     ---       #244
      01008E2CH   LINE      CODE     ---       #245
      01008E2CH   LINE      CODE     ---       #246
      ---         BLOCKEND  ---      ---       LVL=0

      01008E35H   BLOCK     CODE     ---       LVL=0
      01008E35H   LINE      CODE     ---       #249
      01008E35H   LINE      CODE     ---       #250
      01008E35H   LINE      CODE     ---       #251
      ---         BLOCKEND  ---      ---       LVL=0

      01008E3EH   BLOCK     CODE     ---       LVL=0
      01008E3EH   LINE      CODE     ---       #254
      01008E3EH   LINE      CODE     ---       #255
      01008E3EH   LINE      CODE     ---       #256
      ---         BLOCKEND  ---      ---       LVL=0

      01008216H   BLOCK     CODE     ---       LVL=0
      00000020H.0 SYMBOL    BIT      BIT       enable
      01008216H   LINE      CODE     ---       #259
      01008216H   LINE      CODE     ---       #260
      01008216H   LINE      CODE     ---       #261
      0100822BH   LINE      CODE     ---       #262
      0100822EH   LINE      CODE     ---       #263
      01008231H   LINE      CODE     ---       #265
      01008234H   LINE      CODE     ---       #266
      ---         BLOCKEND  ---      ---       LVL=0

      01004DFDH   BLOCK     CODE     ---       LVL=0
      02000014H   SYMBOL    XDATA    ---       x
      02000017H   SYMBOL    XDATA    ---       y
      0200001AH   SYMBOL    XDATA    ---       z
LX51 LINKER/LOCATER V4.66.87.0                                                        04/18/2018  10:36:57  PAGE 163


      01004E03H   BLOCK     CODE     NEAR LAB  LVL=1
      0200001DH   SYMBOL    XDATA    BYTE      val
      0200001EH   SYMBOL    XDATA    INT       tmp
      ---         BLOCKEND  ---      ---       LVL=1
      01004DFDH   LINE      CODE     ---       #268
      01004E03H   LINE      CODE     ---       #269
      01004E03H   LINE      CODE     ---       #273
      01004E06H   LINE      CODE     ---       #276
      01004E08H   LINE      CODE     ---       #277
      01004E0BH   LINE      CODE     ---       #278
      01004E0DH   LINE      CODE     ---       #279
      01004E0DH   LINE      CODE     ---       #280
      01004E10H   LINE      CODE     ---       #281
      01004E16H   LINE      CODE     ---       #283
      01004E18H   LINE      CODE     ---       #284
      01004E1BH   LINE      CODE     ---       #285
      01004E1DH   LINE      CODE     ---       #286
      01004E1DH   LINE      CODE     ---       #287
      01004E20H   LINE      CODE     ---       #288
      01004E26H   LINE      CODE     ---       #290
      01004E2BH   LINE      CODE     ---       #291
      01004E36H   LINE      CODE     ---       #292
      01004E3BH   LINE      CODE     ---       #293
      01004E49H   LINE      CODE     ---       #294
      01004E56H   LINE      CODE     ---       #295
      01004E5CH   LINE      CODE     ---       #296
      ---         BLOCKEND  ---      ---       LVL=0

      ---         MODULE    ---      ---       SM_CLOCK_TIMER
      0100C893H   PUBLIC    CONST    ---       sm_clock_timer_ss_name
      0100348AH   PUBLIC    CODE     ---       _sm_clock_timer
      01005981H   SYMBOL    CODE     ---       _display_slot
      01007422H   SYMBOL    CODE     ---       _show_slot_title

      010089EDH   BLOCK     CODE     ---       LVL=0
      ---         BLOCKEND  ---      ---       LVL=0

      01007422H   BLOCK     CODE     ---       LVL=0
      02000014H   SYMBOL    XDATA    BYTE      slot
      01007422H   LINE      CODE     ---       #20
      01007427H   LINE      CODE     ---       #21
      01007427H   LINE      CODE     ---       #22
      0100742AH   LINE      CODE     ---       #23
      01007431H   LINE      CODE     ---       #24
      01007438H   LINE      CODE     ---       #25
      0100743FH   LINE      CODE     ---       #26
      0100744FH   LINE      CODE     ---       #27
      ---         BLOCKEND  ---      ---       LVL=0

      01005981H   BLOCK     CODE     ---       LVL=0
      02000014H   SYMBOL    XDATA    BYTE      slot
      01005981H   LINE      CODE     ---       #30
      01005986H   LINE      CODE     ---       #31
      01005986H   LINE      CODE     ---       #32
      01005989H   LINE      CODE     ---       #34
      0100598EH   LINE      CODE     ---       #35
      01005992H   LINE      CODE     ---       #36
      01005996H   LINE      CODE     ---       #37
      0100599AH   LINE      CODE     ---       #38
      010059A5H   LINE      CODE     ---       #39
      010059AEH   LINE      CODE     ---       #40
      010059B7H   LINE      CODE     ---       #41
      010059C5H   LINE      CODE     ---       #42
      010059D0H   LINE      CODE     ---       #43
      010059DEH   LINE      CODE     ---       #44
LX51 LINKER/LOCATER V4.66.87.0                                                        04/18/2018  10:36:57  PAGE 164


      ---         BLOCKEND  ---      ---       LVL=0

      0100348AH   BLOCK     CODE     ---       LVL=0
      02000011H   SYMBOL    XDATA    BYTE      from
      02000012H   SYMBOL    XDATA    BYTE      to
      02000013H   SYMBOL    XDATA    BYTE      ev
      0100348AH   LINE      CODE     ---       #46
      01003496H   LINE      CODE     ---       #47
      01003496H   LINE      CODE     ---       #48
      010034AAH   LINE      CODE     ---       #51
      010034B4H   LINE      CODE     ---       #52
      010034B9H   LINE      CODE     ---       #53
      010034C0H   LINE      CODE     ---       #55
      010034C0H   LINE      CODE     ---       #58
      010034D5H   LINE      CODE     ---       #60
      010034D5H   LINE      CODE     ---       #61
      010034DAH   LINE      CODE     ---       #62
      010034DFH   LINE      CODE     ---       #63
      010034E1H   LINE      CODE     ---       #65
      010034E1H   LINE      CODE     ---       #68
      010034EDH   LINE      CODE     ---       #69
      010034F0H   LINE      CODE     ---       #70
      010034F3H   LINE      CODE     ---       #71
      010034F5H   LINE      CODE     ---       #73
      010034F5H   LINE      CODE     ---       #76
      01003501H   LINE      CODE     ---       #77
      0100350DH   LINE      CODE     ---       #78
      01003510H   LINE      CODE     ---       #79
      01003510H   LINE      CODE     ---       #80
      01003512H   LINE      CODE     ---       #82
      01003512H   LINE      CODE     ---       #84
      0100351EH   LINE      CODE     ---       #85
      01003527H   LINE      CODE     ---       #86
      0100352AH   LINE      CODE     ---       #87
      01003532H   LINE      CODE     ---       #88
      01003538H   LINE      CODE     ---       #89
      01003539H   LINE      CODE     ---       #91
      01003539H   LINE      CODE     ---       #94
      01003545H   LINE      CODE     ---       #95
      01003548H   LINE      CODE     ---       #96
      0100354BH   LINE      CODE     ---       #97
      01003550H   LINE      CODE     ---       #98
      01003557H   LINE      CODE     ---       #100
      01003557H   LINE      CODE     ---       #103
      01003563H   LINE      CODE     ---       #104
      01003566H   LINE      CODE     ---       #105
      0100356BH   LINE      CODE     ---       #107
      0100356BH   LINE      CODE     ---       #110
      01003577H   LINE      CODE     ---       #111
      0100357FH   LINE      CODE     ---       #113
      0100357FH   LINE      CODE     ---       #115
      0100358BH   LINE      CODE     ---       #116
      01003593H   LINE      CODE     ---       #117
      010035A0H   LINE      CODE     ---       #119
      010035A0H   LINE      CODE     ---       #121
      ---         BLOCKEND  ---      ---       LVL=0

      ---         MODULE    ---      ---       SM_CLOCK_COUNTER
      0100C526H   PUBLIC    CONST    ---       sm_clock_counter_ss_name
      010025A7H   PUBLIC    CODE     ---       _sm_clock_counter
      01007CE2H   SYMBOL    CODE     ---       _enter_hhmmss
      01007C36H   SYMBOL    CODE     ---       _write_only
      01008D80H   SYMBOL    CODE     ---       _inc_and_write
      01006E8EH   SYMBOL    CODE     ---       _inc_only
      0100526BH   SYMBOL    CODE     ---       update_hhmmss
LX51 LINKER/LOCATER V4.66.87.0                                                        04/18/2018  10:36:57  PAGE 165



      01007DFFH   BLOCK     CODE     ---       LVL=0
      ---         BLOCKEND  ---      ---       LVL=0

      01006E8EH   BLOCK     CODE     ---       LVL=0
      00000007H   SYMBOL    DATA     BYTE      what
      01006E8EH   LINE      CODE     ---       #21
      01006E8EH   LINE      CODE     ---       #22
      01006E8EH   LINE      CODE     ---       #23
      01006E99H   LINE      CODE     ---       #24
      01006E99H   LINE      CODE     ---       #25
      01006E9CH   LINE      CODE     ---       #26
      01006E9EH   LINE      CODE     ---       #27
      01006EA0H   LINE      CODE     ---       #28
      01006EA3H   LINE      CODE     ---       #29
      01006EA3H   LINE      CODE     ---       #30
      01006EA8H   LINE      CODE     ---       #31
      01006EA8H   LINE      CODE     ---       #32
      01006EA8H   LINE      CODE     ---       #33
      01006EABH   LINE      CODE     ---       #34
      01006EADH   LINE      CODE     ---       #35
      01006EAFH   LINE      CODE     ---       #36
      01006EB2H   LINE      CODE     ---       #37
      01006EB2H   LINE      CODE     ---       #38
      01006EB7H   LINE      CODE     ---       #39
      01006EB7H   LINE      CODE     ---       #40
      01006EB7H   LINE      CODE     ---       #41
      01006EBAH   LINE      CODE     ---       #42
      01006EBCH   LINE      CODE     ---       #43
      01006EC1H   LINE      CODE     ---       #44
      01006EC5H   LINE      CODE     ---       #45
      01006EC5H   LINE      CODE     ---       #46
      01006ECAH   LINE      CODE     ---       #47
      01006ECAH   LINE      CODE     ---       #48
      01006ECAH   LINE      CODE     ---       #49
      ---         BLOCKEND  ---      ---       LVL=0

      01007C36H   BLOCK     CODE     ---       LVL=0
      00000007H   SYMBOL    DATA     BYTE      what
      01007C36H   LINE      CODE     ---       #51
      01007C36H   LINE      CODE     ---       #52
      01007C36H   LINE      CODE     ---       #53
      01007C41H   LINE      CODE     ---       #54
      01007C41H   LINE      CODE     ---       #55
      01007C44H   LINE      CODE     ---       #56
      01007C46H   LINE      CODE     ---       #57
      01007C48H   LINE      CODE     ---       #58
      01007C48H   LINE      CODE     ---       #59
      01007C48H   LINE      CODE     ---       #60
      01007C4AH   LINE      CODE     ---       #61
      01007C4AH   LINE      CODE     ---       #62
      01007C4DH   LINE      CODE     ---       #63
      01007C4FH   LINE      CODE     ---       #64
      01007C51H   LINE      CODE     ---       #65
      01007C51H   LINE      CODE     ---       #66
      01007C51H   LINE      CODE     ---       #67
      01007C53H   LINE      CODE     ---       #68
      01007C53H   LINE      CODE     ---       #69
      01007C56H   LINE      CODE     ---       #70
      01007C58H   LINE      CODE     ---       #71
      01007C5DH   LINE      CODE     ---       #72
      01007C61H   LINE      CODE     ---       #73
      01007C61H   LINE      CODE     ---       #74
      01007C61H   LINE      CODE     ---       #75
      01007C61H   LINE      CODE     ---       #76
LX51 LINKER/LOCATER V4.66.87.0                                                        04/18/2018  10:36:57  PAGE 166


      ---         BLOCKEND  ---      ---       LVL=0

      01008D80H   BLOCK     CODE     ---       LVL=0
      00000006H   SYMBOL    DATA     BYTE      what
      01008D80H   LINE      CODE     ---       #78
      01008D82H   LINE      CODE     ---       #79
      01008D82H   LINE      CODE     ---       #80
      01008D85H   LINE      CODE     ---       #81
      ---         BLOCKEND  ---      ---       LVL=0

      0100526BH   BLOCK     CODE     ---       LVL=0
      0100526BH   BLOCK     CODE     NEAR LAB  LVL=1
      02000015H   SYMBOL    XDATA    BYTE      hour
      02000016H   SYMBOL    XDATA    BYTE      min
      02000017H   SYMBOL    XDATA    BYTE      sec
      ---         BLOCKEND  ---      ---       LVL=1
      0100526BH   LINE      CODE     ---       #84
      0100526BH   LINE      CODE     ---       #85
      0100526BH   LINE      CODE     ---       #88
      01005275H   LINE      CODE     ---       #89
      0100527DH   LINE      CODE     ---       #90
      01005285H   LINE      CODE     ---       #93
      0100528AH   LINE      CODE     ---       #94
      0100528EH   LINE      CODE     ---       #95
      01005292H   LINE      CODE     ---       #96
      01005296H   LINE      CODE     ---       #98
      010052B7H   LINE      CODE     ---       #100
      010052BFH   LINE      CODE     ---       #101
      010052CAH   LINE      CODE     ---       #102
      010052D2H   LINE      CODE     ---       #103
      010052DDH   LINE      CODE     ---       #104
      010052EDH   LINE      CODE     ---       #105
      010052F8H   LINE      CODE     ---       #107
      ---         BLOCKEND  ---      ---       LVL=0

      01007CE2H   BLOCK     CODE     ---       LVL=0
      02000014H   SYMBOL    XDATA    BYTE      what
      01007CE2H   LINE      CODE     ---       #109
      01007CE7H   LINE      CODE     ---       #110
      01007CE7H   LINE      CODE     ---       #111
      01007CEAH   LINE      CODE     ---       #112
      01007CF8H   LINE      CODE     ---       #113
      01007CF8H   LINE      CODE     ---       #114
      01007CFAH   LINE      CODE     ---       #115
      01007CFAH   LINE      CODE     ---       #116
      01007CFCH   LINE      CODE     ---       #117
      01007CFCH   LINE      CODE     ---       #118
      01007CFEH   LINE      CODE     ---       #119
      01007CFEH   LINE      CODE     ---       #120
      01007D00H   LINE      CODE     ---       #121
      01007D00H   LINE      CODE     ---       #122
      01007D05H   LINE      CODE     ---       #123
      01007D09H   LINE      CODE     ---       #124
      01007D09H   LINE      CODE     ---       #125
      01007D09H   LINE      CODE     ---       #126
      ---         BLOCKEND  ---      ---       LVL=0

      010025A7H   BLOCK     CODE     ---       LVL=0
      02000011H   SYMBOL    XDATA    BYTE      from
      02000012H   SYMBOL    XDATA    BYTE      to
      02000013H   SYMBOL    XDATA    BYTE      ev
      010025A7H   LINE      CODE     ---       #129
      010025B3H   LINE      CODE     ---       #130
      010025B3H   LINE      CODE     ---       #132
      010025C7H   LINE      CODE     ---       #135
LX51 LINKER/LOCATER V4.66.87.0                                                        04/18/2018  10:36:57  PAGE 167


      010025D1H   LINE      CODE     ---       #136
      010025D8H   LINE      CODE     ---       #138
      010025D8H   LINE      CODE     ---       #141
      010025EDH   LINE      CODE     ---       #143
      010025EDH   LINE      CODE     ---       #144
      010025F2H   LINE      CODE     ---       #145
      010025F5H   LINE      CODE     ---       #146
      010025FAH   LINE      CODE     ---       #147
      010025FDH   LINE      CODE     ---       #149
      010025FDH   LINE      CODE     ---       #152
      01002608H   LINE      CODE     ---       #153
      0100260BH   LINE      CODE     ---       #155
      0100260BH   LINE      CODE     ---       #158
      01002617H   LINE      CODE     ---       #159
      0100261CH   LINE      CODE     ---       #161
      0100261CH   LINE      CODE     ---       #164
      01002629H   LINE      CODE     ---       #165
      0100262EH   LINE      CODE     ---       #166
      01002632H   LINE      CODE     ---       #167
      01002632H   LINE      CODE     ---       #168
      01002632H   LINE      CODE     ---       #169
      0100263CH   LINE      CODE     ---       #171
      0100263CH   LINE      CODE     ---       #174
      01002646H   LINE      CODE     ---       #175
      01002648H   LINE      CODE     ---       #176
      0100264BH   LINE      CODE     ---       #178
      0100264BH   LINE      CODE     ---       #181
      01002656H   LINE      CODE     ---       #182
      01002658H   LINE      CODE     ---       #184
      01002658H   LINE      CODE     ---       #187
      01002664H   LINE      CODE     ---       #188
      01002669H   LINE      CODE     ---       #190
      01002669H   LINE      CODE     ---       #193
      01002675H   LINE      CODE     ---       #194
      01002679H   LINE      CODE     ---       #196
      01002679H   LINE      CODE     ---       #199
      01002686H   LINE      CODE     ---       #200
      0100268BH   LINE      CODE     ---       #201
      01002690H   LINE      CODE     ---       #202
      01002690H   LINE      CODE     ---       #203
      01002690H   LINE      CODE     ---       #204
      0100269AH   LINE      CODE     ---       #206
      0100269AH   LINE      CODE     ---       #209
      010026A4H   LINE      CODE     ---       #210
      010026A6H   LINE      CODE     ---       #211
      010026A8H   LINE      CODE     ---       #213
      010026A8H   LINE      CODE     ---       #216
      010026B3H   LINE      CODE     ---       #217
      010026B6H   LINE      CODE     ---       #219
      010026B6H   LINE      CODE     ---       #222
      010026C2H   LINE      CODE     ---       #223
      010026C7H   LINE      CODE     ---       #225
      010026C7H   LINE      CODE     ---       #228
      010026D3H   LINE      CODE     ---       #229
      010026D8H   LINE      CODE     ---       #231
      010026D8H   LINE      CODE     ---       #234
      010026E5H   LINE      CODE     ---       #235
      010026EAH   LINE      CODE     ---       #236
      010026EFH   LINE      CODE     ---       #237
      010026EFH   LINE      CODE     ---       #238
      010026EFH   LINE      CODE     ---       #239
      010026F9H   LINE      CODE     ---       #241
      010026F9H   LINE      CODE     ---       #244
      01002703H   LINE      CODE     ---       #245
      01002708H   LINE      CODE     ---       #246
LX51 LINKER/LOCATER V4.66.87.0                                                        04/18/2018  10:36:57  PAGE 168


      0100270EH   LINE      CODE     ---       #248
      0100270EH   LINE      CODE     ---       #251
      0100271AH   LINE      CODE     ---       #252
      0100271DH   LINE      CODE     ---       #253
      01002722H   LINE      CODE     ---       #254
      01002726H   LINE      CODE     ---       #255
      01002728H   LINE      CODE     ---       #257
      01002728H   LINE      CODE     ---       #260
      01002734H   LINE      CODE     ---       #261
      01002737H   LINE      CODE     ---       #262
      01002741H   LINE      CODE     ---       #264
      01002741H   LINE      CODE     ---       #267
      0100274BH   LINE      CODE     ---       #268
      0100274EH   LINE      CODE     ---       #269
      01002751H   LINE      CODE     ---       #271
      01002751H   LINE      CODE     ---       #274
      0100275DH   LINE      CODE     ---       #275
      0100275DH   LINE      CODE     ---       #276
      01002760H   LINE      CODE     ---       #277
      01002763H   LINE      CODE     ---       #279
      01002763H   LINE      CODE     ---       #283
      0100276FH   LINE      CODE     ---       #284
      0100276FH   LINE      CODE     ---       #285
      01002772H   LINE      CODE     ---       #286
      01002777H   LINE      CODE     ---       #288
      01002777H   LINE      CODE     ---       #289
      ---         BLOCKEND  ---      ---       LVL=0

      ---         MODULE    ---      ---       SM_CLOCK_DISPLAY
      0100C6E8H   PUBLIC    CONST    ---       sm_clock_display_ss_name
      010038E5H   PUBLIC    CODE     ---       _sm_clock_display
      01005662H   SYMBOL    CODE     ---       display_temp
      01008E47H   SYMBOL    CODE     ---       reset_auto_switch
      010081B7H   SYMBOL    CODE     ---       test_autoswitch

      0100855BH   BLOCK     CODE     ---       LVL=0
      ---         BLOCKEND  ---      ---       LVL=0

      01005662H   BLOCK     CODE     ---       LVL=0
      01005662H   BLOCK     CODE     NEAR LAB  LVL=1
      02000014H   SYMBOL    XDATA    BYTE      inti
      02000015H   SYMBOL    XDATA    BYTE      flt
      00000020H.0 SYMBOL    BIT      BIT       sign
      ---         BLOCKEND  ---      ---       LVL=1
      01005662H   LINE      CODE     ---       #25
      01005662H   LINE      CODE     ---       #26
      01005662H   LINE      CODE     ---       #30
      01005667H   LINE      CODE     ---       #31
      0100567BH   LINE      CODE     ---       #33
      010056A0H   LINE      CODE     ---       #35
      010056A3H   LINE      CODE     ---       #37
      010056A8H   LINE      CODE     ---       #39
      010056AFH   LINE      CODE     ---       #40
      010056BBH   LINE      CODE     ---       #41
      010056C3H   LINE      CODE     ---       #42
      010056CEH   LINE      CODE     ---       #43
      010056D6H   LINE      CODE     ---       #44
      010056E1H   LINE      CODE     ---       #45
      ---         BLOCKEND  ---      ---       LVL=0

      01008E47H   BLOCK     CODE     ---       LVL=0
      01008E47H   LINE      CODE     ---       #47
      01008E47H   LINE      CODE     ---       #48
      01008E47H   LINE      CODE     ---       #49
      01008E4FH   LINE      CODE     ---       #50
LX51 LINKER/LOCATER V4.66.87.0                                                        04/18/2018  10:36:57  PAGE 169


      ---         BLOCKEND  ---      ---       LVL=0

      010081B7H   BLOCK     CODE     ---       LVL=0
      010081B7H   LINE      CODE     ---       #53
      010081B7H   LINE      CODE     ---       #54
      010081B7H   LINE      CODE     ---       #55
      010081C7H   LINE      CODE     ---       #56
      010081D0H   LINE      CODE     ---       #57
      010081D6H   LINE      CODE     ---       #58
      010081D6H   LINE      CODE     ---       #59
      ---         BLOCKEND  ---      ---       LVL=0

      010038E5H   BLOCK     CODE     ---       LVL=0
      02000011H   SYMBOL    XDATA    BYTE      from
      02000012H   SYMBOL    XDATA    BYTE      to
      02000013H   SYMBOL    XDATA    BYTE      ev
      010038E5H   LINE      CODE     ---       #61
      010038F1H   LINE      CODE     ---       #62
      010038F1H   LINE      CODE     ---       #64
      01003905H   LINE      CODE     ---       #67
      0100390FH   LINE      CODE     ---       #68
      01003912H   LINE      CODE     ---       #69
      01003915H   LINE      CODE     ---       #70
      0100391AH   LINE      CODE     ---       #71
      01003920H   LINE      CODE     ---       #73
      01003920H   LINE      CODE     ---       #76
      01003932H   LINE      CODE     ---       #78
      01003932H   LINE      CODE     ---       #79
      01003935H   LINE      CODE     ---       #80
      01003935H   LINE      CODE     ---       #81
      01003935H   LINE      CODE     ---       #82
      01003937H   LINE      CODE     ---       #84
      01003937H   LINE      CODE     ---       #87
      01003949H   LINE      CODE     ---       #88
      01003949H   LINE      CODE     ---       #89
      0100394EH   LINE      CODE     ---       #90
      01003953H   LINE      CODE     ---       #91
      01003956H   LINE      CODE     ---       #93
      01003956H   LINE      CODE     ---       #96
      01003967H   LINE      CODE     ---       #98
      01003967H   LINE      CODE     ---       #99
      0100396AH   LINE      CODE     ---       #101
      0100396AH   LINE      CODE     ---       #104
      01003976H   LINE      CODE     ---       #106
      0100397BH   LINE      CODE     ---       #107
      0100397EH   LINE      CODE     ---       #108
      01003980H   LINE      CODE     ---       #110
      01003980H   LINE      CODE     ---       #113
      01003994H   LINE      CODE     ---       #115
      01003994H   LINE      CODE     ---       #116
      01003996H   LINE      CODE     ---       #118
      01003996H   LINE      CODE     ---       #121
      010039A2H   LINE      CODE     ---       #123
      010039A7H   LINE      CODE     ---       #124
      010039AAH   LINE      CODE     ---       #125
      010039ACH   LINE      CODE     ---       #127
      010039ACH   LINE      CODE     ---       #130
      010039BDH   LINE      CODE     ---       #132
      010039BDH   LINE      CODE     ---       #133
      010039BFH   LINE      CODE     ---       #135
      010039BFH   LINE      CODE     ---       #138
      010039CBH   LINE      CODE     ---       #139
      010039D0H   LINE      CODE     ---       #140
      010039D3H   LINE      CODE     ---       #141
      010039D6H   LINE      CODE     ---       #142
LX51 LINKER/LOCATER V4.66.87.0                                                        04/18/2018  10:36:57  PAGE 170


      010039D9H   LINE      CODE     ---       #144
      010039D9H   LINE      CODE     ---       #147
      010039EDH   LINE      CODE     ---       #149
      010039EDH   LINE      CODE     ---       #150
      010039F0H   LINE      CODE     ---       #152
      010039F0H   LINE      CODE     ---       #154
      ---         BLOCKEND  ---      ---       LVL=0

      ---         MODULE    ---      ---       SM_CLOCK_POWERSAVE
      0100CE43H   PUBLIC    CONST    ---       sm_clock_powersave_ss_name
      010078C0H   PUBLIC    CODE     ---       _sm_clock_powersave

      010078C0H   BLOCK     CODE     ---       LVL=0
      00000007H   SYMBOL    DATA     BYTE      from
      02000011H   SYMBOL    XDATA    BYTE      to
      02000012H   SYMBOL    XDATA    BYTE      ev
      010078C0H   LINE      CODE     ---       #17
      010078C9H   LINE      CODE     ---       #18
      010078C9H   LINE      CODE     ---       #19
      010078DDH   LINE      CODE     ---       #22
      010078EBH   LINE      CODE     ---       #24
      010078EEH   LINE      CODE     ---       #25
      010078F1H   LINE      CODE     ---       #27
      010078F1H   LINE      CODE     ---       #29
      ---         BLOCKEND  ---      ---       LVL=0

      ---         MODULE    ---      ---       SM_CLOCK_MOD_ALARM
      0100BCDEH   PUBLIC    CONST    ---       sm_clock_mod_alarm_ss_name
      01002791H   PUBLIC    CODE     ---       _sm_clock_mod_alarm
      010073E8H   SYMBOL    CODE     ---       _enter_alarm
      01008AE6H   SYMBOL    CODE     ---       _inc_write
      01006C01H   SYMBOL    CODE     ---       _write_only
      0100778EH   SYMBOL    CODE     ---       _inc_only
      01008090H   SYMBOL    CODE     ---       _toggle_alarm
      010036CCH   SYMBOL    CODE     ---       _update_alarm

      01007FE2H   BLOCK     CODE     ---       LVL=0
      ---         BLOCKEND  ---      ---       LVL=0

      010036CCH   BLOCK     CODE     ---       LVL=0
      00000004H   SYMBOL    DATA     BYTE      what
      02000016H   SYMBOL    XDATA    BYTE      day
      010036D3H   BLOCK     CODE     NEAR LAB  LVL=1
      02000017H   SYMBOL    XDATA    BYTE      hour
      02000018H   SYMBOL    XDATA    BYTE      min
      ---         BLOCKEND  ---      ---       LVL=1
      010036CCH   LINE      CODE     ---       #24
      010036D3H   LINE      CODE     ---       #25
      010036D3H   LINE      CODE     ---       #28
      010036DAH   LINE      CODE     ---       #29
      010036E1H   LINE      CODE     ---       #31
      010036EBH   LINE      CODE     ---       #33
      010036F3H   LINE      CODE     ---       #34
      010036FBH   LINE      CODE     ---       #35
      01003700H   LINE      CODE     ---       #36
      01003704H   LINE      CODE     ---       #39
      01003711H   LINE      CODE     ---       #40
      01003715H   LINE      CODE     ---       #41
      01003719H   LINE      CODE     ---       #42
      0100371BH   LINE      CODE     ---       #43
      01003720H   LINE      CODE     ---       #44
      01003720H   LINE      CODE     ---       #46
      01003739H   LINE      CODE     ---       #48
      01003743H   LINE      CODE     ---       #49
      01003746H   LINE      CODE     ---       #50
LX51 LINKER/LOCATER V4.66.87.0                                                        04/18/2018  10:36:57  PAGE 171


      01003748H   LINE      CODE     ---       #51
      0100374FH   LINE      CODE     ---       #52
      0100374FH   LINE      CODE     ---       #53
      0100375BH   LINE      CODE     ---       #54
      01003760H   LINE      CODE     ---       #55
      01003768H   LINE      CODE     ---       #57
      0100376AH   LINE      CODE     ---       #58
      0100378FH   LINE      CODE     ---       #59
      0100379BH   LINE      CODE     ---       #60
      010037A5H   LINE      CODE     ---       #61
      010037ACH   LINE      CODE     ---       #62
      010037B3H   LINE      CODE     ---       #63
      010037B4H   LINE      CODE     ---       #64
      010037B6H   LINE      CODE     ---       #65
      010037BDH   LINE      CODE     ---       #66
      010037C4H   LINE      CODE     ---       #67
      010037C9H   LINE      CODE     ---       #68
      010037C9H   LINE      CODE     ---       #69
      010037C9H   LINE      CODE     ---       #70
      ---         BLOCKEND  ---      ---       LVL=0

      010073E8H   BLOCK     CODE     ---       LVL=0
      02000014H   SYMBOL    XDATA    BYTE      what
      02000015H   SYMBOL    XDATA    BYTE      day
      010073E8H   LINE      CODE     ---       #74
      010073F0H   LINE      CODE     ---       #75
      010073F0H   LINE      CODE     ---       #76
      010073F3H   LINE      CODE     ---       #77
      01007402H   LINE      CODE     ---       #78
      01007402H   LINE      CODE     ---       #79
      01007404H   LINE      CODE     ---       #80
      01007404H   LINE      CODE     ---       #81
      01007406H   LINE      CODE     ---       #82
      01007406H   LINE      CODE     ---       #83
      01007408H   LINE      CODE     ---       #84
      01007408H   LINE      CODE     ---       #85
      0100740AH   LINE      CODE     ---       #86
      0100740AH   LINE      CODE     ---       #87
      0100740FH   LINE      CODE     ---       #88
      01007413H   LINE      CODE     ---       #89
      01007417H   LINE      CODE     ---       #90
      01007417H   LINE      CODE     ---       #91
      01007417H   LINE      CODE     ---       #92
      ---         BLOCKEND  ---      ---       LVL=0

      01006C01H   BLOCK     CODE     ---       LVL=0
      02000015H   SYMBOL    XDATA    BYTE      what
      01006C01H   LINE      CODE     ---       #96
      01006C06H   LINE      CODE     ---       #97
      01006C06H   LINE      CODE     ---       #98
      01006C09H   LINE      CODE     ---       #99
      01006C18H   LINE      CODE     ---       #100
      01006C18H   LINE      CODE     ---       #101
      01006C1BH   LINE      CODE     ---       #102
      01006C1DH   LINE      CODE     ---       #103
      01006C22H   LINE      CODE     ---       #104
      01006C26H   LINE      CODE     ---       #105
      01006C26H   LINE      CODE     ---       #106
      01006C29H   LINE      CODE     ---       #107
      01006C2BH   LINE      CODE     ---       #108
      01006C2BH   LINE      CODE     ---       #109
      01006C2EH   LINE      CODE     ---       #110
      01006C30H   LINE      CODE     ---       #111
      01006C35H   LINE      CODE     ---       #112
      01006C39H   LINE      CODE     ---       #113
LX51 LINKER/LOCATER V4.66.87.0                                                        04/18/2018  10:36:57  PAGE 172


      01006C39H   LINE      CODE     ---       #114
      01006C40H   LINE      CODE     ---       #115
      01006C42H   LINE      CODE     ---       #116
      01006C42H   LINE      CODE     ---       #117
      01006C4CH   LINE      CODE     ---       #118
      01006C4CH   LINE      CODE     ---       #119
      01006C4CH   LINE      CODE     ---       #120
      ---         BLOCKEND  ---      ---       LVL=0

      01008090H   BLOCK     CODE     ---       LVL=0
      02000014H   SYMBOL    XDATA    BYTE      day
      01008090H   LINE      CODE     ---       #122
      01008095H   LINE      CODE     ---       #123
      01008095H   LINE      CODE     ---       #124
      010080A3H   LINE      CODE     ---       #125
      010080ADH   LINE      CODE     ---       #126
      ---         BLOCKEND  ---      ---       LVL=0

      0100778EH   BLOCK     CODE     ---       LVL=0
      00000006H   SYMBOL    DATA     BYTE      what
      0100778EH   LINE      CODE     ---       #129
      01007790H   LINE      CODE     ---       #130
      01007790H   LINE      CODE     ---       #131
      01007797H   LINE      CODE     ---       #132
      01007797H   LINE      CODE     ---       #133
      0100779AH   LINE      CODE     ---       #134
      0100779CH   LINE      CODE     ---       #135
      010077A1H   LINE      CODE     ---       #136
      010077A5H   LINE      CODE     ---       #137
      010077A5H   LINE      CODE     ---       #138
      010077A8H   LINE      CODE     ---       #139
      010077AAH   LINE      CODE     ---       #140
      010077AAH   LINE      CODE     ---       #141
      010077ADH   LINE      CODE     ---       #142
      010077AFH   LINE      CODE     ---       #143
      010077B4H   LINE      CODE     ---       #144
      010077B8H   LINE      CODE     ---       #145
      010077B8H   LINE      CODE     ---       #146
      010077BBH   LINE      CODE     ---       #147
      010077BBH   LINE      CODE     ---       #148
      010077BBH   LINE      CODE     ---       #149
      ---         BLOCKEND  ---      ---       LVL=0

      01008AE6H   BLOCK     CODE     ---       LVL=0
      02000014H   SYMBOL    XDATA    BYTE      what
      01008AE6H   LINE      CODE     ---       #152
      01008AEBH   LINE      CODE     ---       #153
      01008AEBH   LINE      CODE     ---       #154
      01008AEEH   LINE      CODE     ---       #155
      ---         BLOCKEND  ---      ---       LVL=0

      01002791H   BLOCK     CODE     ---       LVL=0
      02000011H   SYMBOL    XDATA    BYTE      from
      02000012H   SYMBOL    XDATA    BYTE      to
      02000013H   SYMBOL    XDATA    BYTE      ev
      01002791H   LINE      CODE     ---       #159
      0100279DH   LINE      CODE     ---       #160
      0100279DH   LINE      CODE     ---       #161
      010027B1H   LINE      CODE     ---       #164
      010027BBH   LINE      CODE     ---       #165
      010027C2H   LINE      CODE     ---       #167
      010027C2H   LINE      CODE     ---       #170
      010027D7H   LINE      CODE     ---       #172
      010027D7H   LINE      CODE     ---       #173
      010027DAH   LINE      CODE     ---       #175
LX51 LINKER/LOCATER V4.66.87.0                                                        04/18/2018  10:36:57  PAGE 173


      010027DAH   LINE      CODE     ---       #178
      010027E5H   LINE      CODE     ---       #179
      010027E9H   LINE      CODE     ---       #181
      010027E9H   LINE      CODE     ---       #184
      010027F5H   LINE      CODE     ---       #185
      010027FAH   LINE      CODE     ---       #186
      010027FEH   LINE      CODE     ---       #187
      010027FEH   LINE      CODE     ---       #188
      010027FEH   LINE      CODE     ---       #189
      01002808H   LINE      CODE     ---       #191
      01002808H   LINE      CODE     ---       #194
      01002813H   LINE      CODE     ---       #195
      01002815H   LINE      CODE     ---       #196
      01002817H   LINE      CODE     ---       #198
      01002817H   LINE      CODE     ---       #201
      01002822H   LINE      CODE     ---       #202
      01002829H   LINE      CODE     ---       #204
      01002829H   LINE      CODE     ---       #208
      01002834H   LINE      CODE     ---       #209
      01002839H   LINE      CODE     ---       #211
      01002839H   LINE      CODE     ---       #214
      01002845H   LINE      CODE     ---       #215
      0100284AH   LINE      CODE     ---       #216
      0100284FH   LINE      CODE     ---       #217
      0100284FH   LINE      CODE     ---       #218
      0100284FH   LINE      CODE     ---       #219
      01002859H   LINE      CODE     ---       #221
      01002859H   LINE      CODE     ---       #224
      01002864H   LINE      CODE     ---       #225
      01002869H   LINE      CODE     ---       #226
      0100286FH   LINE      CODE     ---       #228
      0100286FH   LINE      CODE     ---       #232
      0100287AH   LINE      CODE     ---       #233
      01002881H   LINE      CODE     ---       #235
      01002881H   LINE      CODE     ---       #238
      0100288CH   LINE      CODE     ---       #239
      01002891H   LINE      CODE     ---       #241
      01002891H   LINE      CODE     ---       #244
      0100289CH   LINE      CODE     ---       #245
      010028A3H   LINE      CODE     ---       #247
      010028A3H   LINE      CODE     ---       #250
      010028AEH   LINE      CODE     ---       #251
      010028B3H   LINE      CODE     ---       #253
      010028B3H   LINE      CODE     ---       #256
      010028BEH   LINE      CODE     ---       #257
      010028C5H   LINE      CODE     ---       #259
      010028C5H   LINE      CODE     ---       #262
      010028D0H   LINE      CODE     ---       #263
      010028D4H   LINE      CODE     ---       #265
      010028D4H   LINE      CODE     ---       #268
      010028DFH   LINE      CODE     ---       #269
      010028E5H   LINE      CODE     ---       #271
      010028E5H   LINE      CODE     ---       #274
      010028F0H   LINE      CODE     ---       #275
      010028F4H   LINE      CODE     ---       #277
      010028F4H   LINE      CODE     ---       #280
      010028FFH   LINE      CODE     ---       #281
      01002905H   LINE      CODE     ---       #283
      01002905H   LINE      CODE     ---       #286
      01002910H   LINE      CODE     ---       #287
      01002914H   LINE      CODE     ---       #289
      01002914H   LINE      CODE     ---       #292
      0100291FH   LINE      CODE     ---       #293
      01002925H   LINE      CODE     ---       #295
      01002925H   LINE      CODE     ---       #298
LX51 LINKER/LOCATER V4.66.87.0                                                        04/18/2018  10:36:57  PAGE 174


      01002930H   LINE      CODE     ---       #299
      01002934H   LINE      CODE     ---       #301
      01002934H   LINE      CODE     ---       #304
      0100293FH   LINE      CODE     ---       #305
      01002945H   LINE      CODE     ---       #307
      01002945H   LINE      CODE     ---       #309
      01002950H   LINE      CODE     ---       #310
      01002955H   LINE      CODE     ---       #312
      01002955H   LINE      CODE     ---       #315
      01002960H   LINE      CODE     ---       #316
      01002966H   LINE      CODE     ---       #318
      01002966H   LINE      CODE     ---       #319
      ---         BLOCKEND  ---      ---       LVL=0

      ---         MODULE    ---      ---       SM_CLOCK_ALARM
      0100CDECH   PUBLIC    CONST    ---       sm_clock_alarm_ss_name
      01005E45H   PUBLIC    CODE     ---       _sm_clock_alarm
      0100449DH   SYMBOL    CODE     ---       _display_alarm

      01008EA7H   BLOCK     CODE     ---       LVL=0
      ---         BLOCKEND  ---      ---       LVL=0

      0100449DH   BLOCK     CODE     ---       LVL=0
      02000013H   SYMBOL    XDATA    BYTE      what
      010044A2H   BLOCK     CODE     NEAR LAB  LVL=1
      02000014H   SYMBOL    XDATA    BYTE      hour
      02000015H   SYMBOL    XDATA    BYTE      min
      00000020H.0 SYMBOL    BIT      BIT       is12
      ---         BLOCKEND  ---      ---       LVL=1
      0100449DH   LINE      CODE     ---       #19
      010044A2H   LINE      CODE     ---       #20
      010044A2H   LINE      CODE     ---       #23
      010044A5H   LINE      CODE     ---       #24
      010044B3H   LINE      CODE     ---       #25
      010044B3H   LINE      CODE     ---       #26
      010044B3H   LINE      CODE     ---       #27
      010044B6H   LINE      CODE     ---       #28
      010044BDH   LINE      CODE     ---       #29
      010044BFH   LINE      CODE     ---       #30
      010044C1H   LINE      CODE     ---       #31
      010044C8H   LINE      CODE     ---       #32
      010044CFH   LINE      CODE     ---       #33
      010044CFH   LINE      CODE     ---       #34
      010044D5H   LINE      CODE     ---       #35
      010044DDH   LINE      CODE     ---       #36
      010044E5H   LINE      CODE     ---       #37
      010044EAH   LINE      CODE     ---       #38
      010044ECH   LINE      CODE     ---       #39
      010044F4H   LINE      CODE     ---       #40
      010044FAH   LINE      CODE     ---       #41
      010044FFH   LINE      CODE     ---       #42
      010044FFH   LINE      CODE     ---       #43
      01004504H   LINE      CODE     ---       #44
      01004508H   LINE      CODE     ---       #45
      01004514H   LINE      CODE     ---       #46
      01004518H   LINE      CODE     ---       #47
      0100451CH   LINE      CODE     ---       #48
      0100451EH   LINE      CODE     ---       #49
      01004523H   LINE      CODE     ---       #50
      01004523H   LINE      CODE     ---       #51
      0100452DH   LINE      CODE     ---       #52
      01004530H   LINE      CODE     ---       #53
      01004532H   LINE      CODE     ---       #54
      01004539H   LINE      CODE     ---       #55
      01004539H   LINE      CODE     ---       #56
LX51 LINKER/LOCATER V4.66.87.0                                                        04/18/2018  10:36:57  PAGE 175


      01004545H   LINE      CODE     ---       #57
      0100454AH   LINE      CODE     ---       #58
      01004557H   LINE      CODE     ---       #59
      01004557H   LINE      CODE     ---       #60
      01004557H   LINE      CODE     ---       #61
      ---         BLOCKEND  ---      ---       LVL=0

      01005E45H   BLOCK     CODE     ---       LVL=0
      00000007H   SYMBOL    DATA     BYTE      from
      02000011H   SYMBOL    XDATA    BYTE      to
      02000012H   SYMBOL    XDATA    BYTE      ev
      01005E45H   LINE      CODE     ---       #63
      01005E4EH   LINE      CODE     ---       #64
      01005E4EH   LINE      CODE     ---       #65
      01005E62H   LINE      CODE     ---       #68
      01005E6CH   LINE      CODE     ---       #69
      01005E71H   LINE      CODE     ---       #70
      01005E76H   LINE      CODE     ---       #71
      01005E7BH   LINE      CODE     ---       #73
      01005E7DH   LINE      CODE     ---       #74
      01005E7DH   LINE      CODE     ---       #76
      01005E7DH   LINE      CODE     ---       #79
      01005E89H   LINE      CODE     ---       #80
      01005E8EH   LINE      CODE     ---       #81
      01005E93H   LINE      CODE     ---       #82
      01005E96H   LINE      CODE     ---       #83
      01005E9CH   LINE      CODE     ---       #85
      01005E9CH   LINE      CODE     ---       #87
      01005EA8H   LINE      CODE     ---       #88
      01005EB3H   LINE      CODE     ---       #89
      01005EB9H   LINE      CODE     ---       #90
      01005EB9H   LINE      CODE     ---       #92
      01005EB9H   LINE      CODE     ---       #93
      ---         BLOCKEND  ---      ---       LVL=0

      ---         MODULE    ---      ---       SM_CLOCK_MOD_GLOBAL_FLAG
      0100C0FFH   PUBLIC    CONST    ---       sm_clock_mod_global_flag_name
      01003AF7H   PUBLIC    CODE     ---       _sm_clock_mod_global_flag
      01005880H   SYMBOL    CODE     ---       _inc_write
      01003343H   SYMBOL    CODE     ---       _display_global_flag

      01008E98H   BLOCK     CODE     ---       LVL=0
      ---         BLOCKEND  ---      ---       LVL=0

      01003343H   BLOCK     CODE     ---       LVL=0
      02000014H   SYMBOL    XDATA    BYTE      what
      01003348H   BLOCK     CODE     NEAR LAB  LVL=1
      00000020H.0 SYMBOL    BIT      BIT       baoshi
      00000020H.1 SYMBOL    BIT      BIT       is_24
      ---         BLOCKEND  ---      ---       LVL=1
      01003343H   LINE      CODE     ---       #22
      01003348H   LINE      CODE     ---       #23
      01003348H   LINE      CODE     ---       #26
      0100334DH   LINE      CODE     ---       #28
      01003353H   LINE      CODE     ---       #30
      01003356H   LINE      CODE     ---       #32
      01003367H   LINE      CODE     ---       #34
      01003384H   LINE      CODE     ---       #35
      01003384H   LINE      CODE     ---       #36
      01003386H   LINE      CODE     ---       #37
      01003389H   LINE      CODE     ---       #38
      0100338FH   LINE      CODE     ---       #39
      0100338FH   LINE      CODE     ---       #40
      01003392H   LINE      CODE     ---       #41
      01003392H   LINE      CODE     ---       #42
LX51 LINKER/LOCATER V4.66.87.0                                                        04/18/2018  10:36:57  PAGE 176


      01003395H   LINE      CODE     ---       #43
      010033A5H   LINE      CODE     ---       #44
      010033B2H   LINE      CODE     ---       #45
      010033B2H   LINE      CODE     ---       #46
      010033B4H   LINE      CODE     ---       #47
      010033B4H   LINE      CODE     ---       #48
      010033B6H   LINE      CODE     ---       #49
      010033B9H   LINE      CODE     ---       #50
      010033BCH   LINE      CODE     ---       #51
      010033BCH   LINE      CODE     ---       #52
      010033BCH   LINE      CODE     ---       #53
      010033BFH   LINE      CODE     ---       #54
      010033C1H   LINE      CODE     ---       #55
      010033C1H   LINE      CODE     ---       #56
      010033C4H   LINE      CODE     ---       #57
      010033C4H   LINE      CODE     ---       #58
      010033C4H   LINE      CODE     ---       #59
      010033C6H   LINE      CODE     ---       #60
      010033C6H   LINE      CODE     ---       #61
      010033CDH   LINE      CODE     ---       #62
      010033D4H   LINE      CODE     ---       #63
      010033DBH   LINE      CODE     ---       #64
      010033E2H   LINE      CODE     ---       #65
      010033E9H   LINE      CODE     ---       #66
      010033FAH   LINE      CODE     ---       #67
      01003401H   LINE      CODE     ---       #68
      01003403H   LINE      CODE     ---       #69
      01003403H   LINE      CODE     ---       #70
      0100340AH   LINE      CODE     ---       #71
      0100340CH   LINE      CODE     ---       #72
      0100340FH   LINE      CODE     ---       #73
      01003414H   LINE      CODE     ---       #74
      01003414H   LINE      CODE     ---       #75
      01003414H   LINE      CODE     ---       #76
      01003417H   LINE      CODE     ---       #77
      01003419H   LINE      CODE     ---       #78
      01003420H   LINE      CODE     ---       #79
      01003427H   LINE      CODE     ---       #80
      01003427H   LINE      CODE     ---       #81
      01003427H   LINE      CODE     ---       #82
      01003429H   LINE      CODE     ---       #83
      01003429H   LINE      CODE     ---       #84
      01003430H   LINE      CODE     ---       #85
      01003432H   LINE      CODE     ---       #86
      01003435H   LINE      CODE     ---       #87
      01003438H   LINE      CODE     ---       #88
      0100343FH   LINE      CODE     ---       #89
      01003441H   LINE      CODE     ---       #90
      01003443H   LINE      CODE     ---       #91
      0100344AH   LINE      CODE     ---       #92
      01003450H   LINE      CODE     ---       #93
      01003450H   LINE      CODE     ---       #94
      01003450H   LINE      CODE     ---       #95
      01003450H   LINE      CODE     ---       #96
      ---         BLOCKEND  ---      ---       LVL=0

      01005880H   BLOCK     CODE     ---       LVL=0
      00000007H   SYMBOL    DATA     BYTE      what
      01005880H   LINE      CODE     ---       #98
      01005880H   LINE      CODE     ---       #99
      01005880H   LINE      CODE     ---       #100
      01005891H   LINE      CODE     ---       #101
      01005891H   LINE      CODE     ---       #102
      01005894H   LINE      CODE     ---       #103
      0100589BH   LINE      CODE     ---       #104
LX51 LINKER/LOCATER V4.66.87.0                                                        04/18/2018  10:36:57  PAGE 177


      0100589DH   LINE      CODE     ---       #105
      0100589DH   LINE      CODE     ---       #106
      010058A6H   LINE      CODE     ---       #107
      010058A9H   LINE      CODE     ---       #108
      010058B4H   LINE      CODE     ---       #109
      010058B6H   LINE      CODE     ---       #110
      010058B6H   LINE      CODE     ---       #111
      010058B9H   LINE      CODE     ---       #112
      010058C0H   LINE      CODE     ---       #113
      010058C2H   LINE      CODE     ---       #114
      010058C2H   LINE      CODE     ---       #115
      010058CBH   LINE      CODE     ---       #116
      010058D6H   LINE      CODE     ---       #117
      010058D8H   LINE      CODE     ---       #118
      010058D8H   LINE      CODE     ---       #119
      010058E1H   LINE      CODE     ---       #120
      010058E6H   LINE      CODE     ---       #121
      010058EFH   LINE      CODE     ---       #122
      010058F2H   LINE      CODE     ---       #123
      01005900H   LINE      CODE     ---       #124
      01005900H   LINE      CODE     ---       #125
      01005900H   LINE      CODE     ---       #126
      ---         BLOCKEND  ---      ---       LVL=0

      01003AF7H   BLOCK     CODE     ---       LVL=0
      02000011H   SYMBOL    XDATA    BYTE      from
      02000012H   SYMBOL    XDATA    BYTE      to
      02000013H   SYMBOL    XDATA    BYTE      ev
      01003AF7H   LINE      CODE     ---       #129
      01003B03H   LINE      CODE     ---       #130
      01003B03H   LINE      CODE     ---       #131
      01003B17H   LINE      CODE     ---       #134
      01003B24H   LINE      CODE     ---       #135
      01003B2BH   LINE      CODE     ---       #137
      01003B2BH   LINE      CODE     ---       #140
      01003B40H   LINE      CODE     ---       #142
      01003B40H   LINE      CODE     ---       #143
      01003B43H   LINE      CODE     ---       #145
      01003B43H   LINE      CODE     ---       #148
      01003B4EH   LINE      CODE     ---       #149
      01003B53H   LINE      CODE     ---       #150
      01003B56H   LINE      CODE     ---       #152
      01003B56H   LINE      CODE     ---       #155
      01003B61H   LINE      CODE     ---       #156
      01003B63H   LINE      CODE     ---       #158
      01003B63H   LINE      CODE     ---       #161
      01003B6EH   LINE      CODE     ---       #162
      01003B73H   LINE      CODE     ---       #163
      01003B77H   LINE      CODE     ---       #165
      01003B77H   LINE      CODE     ---       #168
      01003B82H   LINE      CODE     ---       #169
      01003B86H   LINE      CODE     ---       #171
      01003B86H   LINE      CODE     ---       #174
      01003B91H   LINE      CODE     ---       #175
      01003B96H   LINE      CODE     ---       #176
      01003B9BH   LINE      CODE     ---       #177
      01003B9EH   LINE      CODE     ---       #179
      01003B9EH   LINE      CODE     ---       #182
      01003BA9H   LINE      CODE     ---       #183
      01003BADH   LINE      CODE     ---       #185
      01003BADH   LINE      CODE     ---       #188
      01003BB8H   LINE      CODE     ---       #189
      01003BBDH   LINE      CODE     ---       #190
      01003BC1H   LINE      CODE     ---       #192
      01003BC1H   LINE      CODE     ---       #195
LX51 LINKER/LOCATER V4.66.87.0                                                        04/18/2018  10:36:57  PAGE 178


      01003BCCH   LINE      CODE     ---       #196
      01003BD0H   LINE      CODE     ---       #198
      01003BD0H   LINE      CODE     ---       #201
      01003BDBH   LINE      CODE     ---       #202
      01003BE0H   LINE      CODE     ---       #203
      01003BE4H   LINE      CODE     ---       #205
      01003BE4H   LINE      CODE     ---       #208
      01003BEFH   LINE      CODE     ---       #209
      01003BF4H   LINE      CODE     ---       #211
      01003BF4H   LINE      CODE     ---       #212
      ---         BLOCKEND  ---      ---       LVL=0

      ---         MODULE    ---      ---       SM_CLOCK_MOD_TIME
      0100C213H   PUBLIC    CONST    ---       sm_clock_mod_time_name
      01001F42H   PUBLIC    CODE     ---       _sm_clock_mod_time
      0100554AH   SYMBOL    CODE     ---       update_yymmdd
      01007D0CH   SYMBOL    CODE     ---       _enter_hhmmss
      01007C62H   SYMBOL    CODE     ---       _enter_yymmdd
      010061A7H   SYMBOL    CODE     ---       _write_only
      01008AF6H   SYMBOL    CODE     ---       _inc_and_write
      0100651CH   SYMBOL    CODE     ---       _inc_only
      01004C9FH   SYMBOL    CODE     ---       update_hhmmss

      0100753DH   BLOCK     CODE     ---       LVL=0
      ---         BLOCKEND  ---      ---       LVL=0

      0100651CH   BLOCK     CODE     ---       LVL=0
      00000001H   SYMBOL    DATA     BYTE      what
      0100651CH   LINE      CODE     ---       #21
      0100651EH   LINE      CODE     ---       #22
      0100651EH   LINE      CODE     ---       #23
      01006532H   LINE      CODE     ---       #24
      01006532H   LINE      CODE     ---       #25
      01006532H   LINE      CODE     ---       #26
      01006535H   LINE      CODE     ---       #27
      01006537H   LINE      CODE     ---       #28
      01006539H   LINE      CODE     ---       #29
      0100653CH   LINE      CODE     ---       #30
      0100653CH   LINE      CODE     ---       #31
      0100653FH   LINE      CODE     ---       #32
      01006542H   LINE      CODE     ---       #33
      01006542H   LINE      CODE     ---       #34
      01006545H   LINE      CODE     ---       #35
      01006545H   LINE      CODE     ---       #36
      01006545H   LINE      CODE     ---       #37
      01006545H   LINE      CODE     ---       #38
      01006545H   LINE      CODE     ---       #39
      01006548H   LINE      CODE     ---       #40
      0100654AH   LINE      CODE     ---       #41
      0100654CH   LINE      CODE     ---       #42
      0100654FH   LINE      CODE     ---       #43
      0100654FH   LINE      CODE     ---       #44
      01006553H   LINE      CODE     ---       #45
      01006556H   LINE      CODE     ---       #46
      01006556H   LINE      CODE     ---       #47
      01006559H   LINE      CODE     ---       #48
      01006559H   LINE      CODE     ---       #49
      01006559H   LINE      CODE     ---       #50
      01006559H   LINE      CODE     ---       #51
      01006559H   LINE      CODE     ---       #52
      0100655CH   LINE      CODE     ---       #53
      0100655EH   LINE      CODE     ---       #54
      01006563H   LINE      CODE     ---       #55
      01006567H   LINE      CODE     ---       #56
      01006567H   LINE      CODE     ---       #57
LX51 LINKER/LOCATER V4.66.87.0                                                        04/18/2018  10:36:57  PAGE 179


      0100656BH   LINE      CODE     ---       #58
      0100656EH   LINE      CODE     ---       #59
      0100656EH   LINE      CODE     ---       #60
      01006571H   LINE      CODE     ---       #61
      01006571H   LINE      CODE     ---       #62
      01006571H   LINE      CODE     ---       #63
      01006571H   LINE      CODE     ---       #64
      ---         BLOCKEND  ---      ---       LVL=0

      010061A7H   BLOCK     CODE     ---       LVL=0
      00000007H   SYMBOL    DATA     BYTE      what
      010061A7H   LINE      CODE     ---       #66
      010061A7H   LINE      CODE     ---       #67
      010061A7H   LINE      CODE     ---       #68
      010061BBH   LINE      CODE     ---       #69
      010061BBH   LINE      CODE     ---       #70
      010061BEH   LINE      CODE     ---       #71
      010061C0H   LINE      CODE     ---       #72
      010061C0H   LINE      CODE     ---       #73
      010061C0H   LINE      CODE     ---       #74
      010061C0H   LINE      CODE     ---       #75
      010061C0H   LINE      CODE     ---       #76
      010061C2H   LINE      CODE     ---       #77
      010061C2H   LINE      CODE     ---       #78
      010061C5H   LINE      CODE     ---       #79
      010061CAH   LINE      CODE     ---       #80
      010061CCH   LINE      CODE     ---       #81
      010061CEH   LINE      CODE     ---       #82
      010061CEH   LINE      CODE     ---       #83
      010061CEH   LINE      CODE     ---       #84
      010061D0H   LINE      CODE     ---       #85
      010061D0H   LINE      CODE     ---       #86
      010061D3H   LINE      CODE     ---       #87
      010061D8H   LINE      CODE     ---       #88
      010061DAH   LINE      CODE     ---       #89
      010061DCH   LINE      CODE     ---       #90
      010061DCH   LINE      CODE     ---       #91
      010061DCH   LINE      CODE     ---       #92
      010061DEH   LINE      CODE     ---       #93
      010061DEH   LINE      CODE     ---       #94
      010061E1H   LINE      CODE     ---       #95
      010061E6H   LINE      CODE     ---       #96
      010061E8H   LINE      CODE     ---       #97
      010061EAH   LINE      CODE     ---       #98
      010061EAH   LINE      CODE     ---       #99
      010061EAH   LINE      CODE     ---       #100
      010061ECH   LINE      CODE     ---       #101
      010061ECH   LINE      CODE     ---       #102
      010061EFH   LINE      CODE     ---       #103
      010061F4H   LINE      CODE     ---       #104
      010061F6H   LINE      CODE     ---       #105
      010061F8H   LINE      CODE     ---       #106
      010061F8H   LINE      CODE     ---       #107
      010061F8H   LINE      CODE     ---       #108
      010061FAH   LINE      CODE     ---       #109
      010061FAH   LINE      CODE     ---       #110
      010061FDH   LINE      CODE     ---       #111
      01006202H   LINE      CODE     ---       #112
      01006204H   LINE      CODE     ---       #113
      01006209H   LINE      CODE     ---       #114
      0100620DH   LINE      CODE     ---       #115
      0100620DH   LINE      CODE     ---       #116
      0100620DH   LINE      CODE     ---       #117
      0100620DH   LINE      CODE     ---       #119
      ---         BLOCKEND  ---      ---       LVL=0
LX51 LINKER/LOCATER V4.66.87.0                                                        04/18/2018  10:36:57  PAGE 180



      01008AF6H   BLOCK     CODE     ---       LVL=0
      02000014H   SYMBOL    XDATA    BYTE      what
      01008AF6H   LINE      CODE     ---       #121
      01008AFBH   LINE      CODE     ---       #122
      01008AFBH   LINE      CODE     ---       #123
      01008AFEH   LINE      CODE     ---       #124
      ---         BLOCKEND  ---      ---       LVL=0

      01004C9FH   BLOCK     CODE     ---       LVL=0
      01004C9FH   BLOCK     CODE     NEAR LAB  LVL=1
      02000015H   SYMBOL    XDATA    BYTE      hour
      02000016H   SYMBOL    XDATA    BYTE      min
      02000017H   SYMBOL    XDATA    BYTE      sec
      ---         BLOCKEND  ---      ---       LVL=1
      01004C9FH   LINE      CODE     ---       #127
      01004C9FH   LINE      CODE     ---       #128
      01004C9FH   LINE      CODE     ---       #131
      01004CA7H   LINE      CODE     ---       #132
      01004CADH   LINE      CODE     ---       #133
      01004CB3H   LINE      CODE     ---       #136
      01004CB8H   LINE      CODE     ---       #137
      01004CBCH   LINE      CODE     ---       #138
      01004CC0H   LINE      CODE     ---       #139
      01004CC4H   LINE      CODE     ---       #142
      01004CD1H   LINE      CODE     ---       #143
      01004CD5H   LINE      CODE     ---       #144
      01004CD9H   LINE      CODE     ---       #145
      01004CDBH   LINE      CODE     ---       #146
      01004CE0H   LINE      CODE     ---       #147
      01004CE0H   LINE      CODE     ---       #150
      01004D01H   LINE      CODE     ---       #152
      01004D0BH   LINE      CODE     ---       #153
      01004D0EH   LINE      CODE     ---       #154
      01004D10H   LINE      CODE     ---       #155
      01004D17H   LINE      CODE     ---       #156
      01004D17H   LINE      CODE     ---       #157
      01004D22H   LINE      CODE     ---       #158
      01004D2DH   LINE      CODE     ---       #159
      01004D38H   LINE      CODE     ---       #160
      01004D43H   LINE      CODE     ---       #161
      ---         BLOCKEND  ---      ---       LVL=0

      0100554AH   BLOCK     CODE     ---       LVL=0
      0100554AH   BLOCK     CODE     NEAR LAB  LVL=1
      02000015H   SYMBOL    XDATA    BYTE      year
      02000016H   SYMBOL    XDATA    BYTE      mon
      02000017H   SYMBOL    XDATA    BYTE      date
      ---         BLOCKEND  ---      ---       LVL=1
      0100554AH   LINE      CODE     ---       #164
      0100554AH   LINE      CODE     ---       #165
      0100554AH   LINE      CODE     ---       #169
      01005552H   LINE      CODE     ---       #170
      01005558H   LINE      CODE     ---       #171
      0100555EH   LINE      CODE     ---       #173
      01005563H   LINE      CODE     ---       #174
      01005568H   LINE      CODE     ---       #176
      01005589H   LINE      CODE     ---       #178
      01005593H   LINE      CODE     ---       #179
      01005596H   LINE      CODE     ---       #180
      01005598H   LINE      CODE     ---       #181
      0100559FH   LINE      CODE     ---       #182
      0100559FH   LINE      CODE     ---       #183
      010055AAH   LINE      CODE     ---       #184
      010055B5H   LINE      CODE     ---       #185
LX51 LINKER/LOCATER V4.66.87.0                                                        04/18/2018  10:36:57  PAGE 181


      010055C0H   LINE      CODE     ---       #186
      010055CBH   LINE      CODE     ---       #187
      ---         BLOCKEND  ---      ---       LVL=0

      01007D0CH   BLOCK     CODE     ---       LVL=0
      02000014H   SYMBOL    XDATA    BYTE      what
      01007D0CH   LINE      CODE     ---       #190
      01007D11H   LINE      CODE     ---       #191
      01007D11H   LINE      CODE     ---       #192
      01007D14H   LINE      CODE     ---       #193
      01007D22H   LINE      CODE     ---       #194
      01007D22H   LINE      CODE     ---       #195
      01007D24H   LINE      CODE     ---       #196
      01007D24H   LINE      CODE     ---       #197
      01007D26H   LINE      CODE     ---       #198
      01007D26H   LINE      CODE     ---       #199
      01007D28H   LINE      CODE     ---       #200
      01007D28H   LINE      CODE     ---       #201
      01007D2AH   LINE      CODE     ---       #202
      01007D2AH   LINE      CODE     ---       #203
      01007D2FH   LINE      CODE     ---       #204
      01007D33H   LINE      CODE     ---       #205
      01007D33H   LINE      CODE     ---       #206
      01007D33H   LINE      CODE     ---       #207
      ---         BLOCKEND  ---      ---       LVL=0

      01007C62H   BLOCK     CODE     ---       LVL=0
      02000014H   SYMBOL    XDATA    BYTE      what
      01007C62H   LINE      CODE     ---       #211
      01007C67H   LINE      CODE     ---       #212
      01007C67H   LINE      CODE     ---       #213
      01007C6AH   LINE      CODE     ---       #214
      01007C79H   LINE      CODE     ---       #215
      01007C79H   LINE      CODE     ---       #216
      01007C7BH   LINE      CODE     ---       #217
      01007C7BH   LINE      CODE     ---       #218
      01007C7DH   LINE      CODE     ---       #219
      01007C7DH   LINE      CODE     ---       #220
      01007C7FH   LINE      CODE     ---       #221
      01007C7FH   LINE      CODE     ---       #222
      01007C81H   LINE      CODE     ---       #223
      01007C81H   LINE      CODE     ---       #224
      01007C86H   LINE      CODE     ---       #225
      01007C8AH   LINE      CODE     ---       #226
      01007C8AH   LINE      CODE     ---       #227
      01007C8AH   LINE      CODE     ---       #228
      ---         BLOCKEND  ---      ---       LVL=0

      01001F42H   BLOCK     CODE     ---       LVL=0
      02000011H   SYMBOL    XDATA    BYTE      from
      02000012H   SYMBOL    XDATA    BYTE      to
      02000013H   SYMBOL    XDATA    BYTE      ev
      01001F42H   LINE      CODE     ---       #232
      01001F4EH   LINE      CODE     ---       #233
      01001F4EH   LINE      CODE     ---       #234
      01001F62H   LINE      CODE     ---       #237
      01001F6CH   LINE      CODE     ---       #238
      01001F71H   LINE      CODE     ---       #239
      01001F78H   LINE      CODE     ---       #241
      01001F78H   LINE      CODE     ---       #244
      01001F8DH   LINE      CODE     ---       #246
      01001F8DH   LINE      CODE     ---       #247
      01001F90H   LINE      CODE     ---       #249
      01001F90H   LINE      CODE     ---       #252
      01001F9BH   LINE      CODE     ---       #253
LX51 LINKER/LOCATER V4.66.87.0                                                        04/18/2018  10:36:57  PAGE 182


      01001FA0H   LINE      CODE     ---       #255
      01001FA0H   LINE      CODE     ---       #258
      01001FABH   LINE      CODE     ---       #259
      01001FB0H   LINE      CODE     ---       #261
      01001FB0H   LINE      CODE     ---       #264
      01001FBCH   LINE      CODE     ---       #265
      01001FC1H   LINE      CODE     ---       #266
      01001FC5H   LINE      CODE     ---       #267
      01001FC5H   LINE      CODE     ---       #268
      01001FC5H   LINE      CODE     ---       #269
      01001FCFH   LINE      CODE     ---       #271
      01001FCFH   LINE      CODE     ---       #274
      01001FDAH   LINE      CODE     ---       #275
      01001FDCH   LINE      CODE     ---       #276
      01001FDFH   LINE      CODE     ---       #278
      01001FDFH   LINE      CODE     ---       #281
      01001FE9H   LINE      CODE     ---       #282
      01001FECH   LINE      CODE     ---       #284
      01001FECH   LINE      CODE     ---       #287
      01001FF7H   LINE      CODE     ---       #288
      01001FFCH   LINE      CODE     ---       #290
      01001FFCH   LINE      CODE     ---       #293
      01002007H   LINE      CODE     ---       #294
      0100200CH   LINE      CODE     ---       #296
      0100200CH   LINE      CODE     ---       #299
      01002018H   LINE      CODE     ---       #300
      0100201DH   LINE      CODE     ---       #301
      01002022H   LINE      CODE     ---       #302
      01002022H   LINE      CODE     ---       #303
      01002022H   LINE      CODE     ---       #304
      0100202CH   LINE      CODE     ---       #306
      0100202CH   LINE      CODE     ---       #309
      01002037H   LINE      CODE     ---       #310
      01002039H   LINE      CODE     ---       #311
      0100203CH   LINE      CODE     ---       #313
      0100203CH   LINE      CODE     ---       #316
      01002046H   LINE      CODE     ---       #317
      01002048H   LINE      CODE     ---       #319
      01002048H   LINE      CODE     ---       #322
      01002053H   LINE      CODE     ---       #323
      01002058H   LINE      CODE     ---       #325
      01002058H   LINE      CODE     ---       #328
      01002063H   LINE      CODE     ---       #329
      01002068H   LINE      CODE     ---       #331
      01002068H   LINE      CODE     ---       #334
      01002072H   LINE      CODE     ---       #335
      01002075H   LINE      CODE     ---       #337
      01002075H   LINE      CODE     ---       #340
      01002080H   LINE      CODE     ---       #341
      01002084H   LINE      CODE     ---       #343
      01002084H   LINE      CODE     ---       #346
      0100208FH   LINE      CODE     ---       #347
      01002094H   LINE      CODE     ---       #349
      01002094H   LINE      CODE     ---       #352
      010020A0H   LINE      CODE     ---       #353
      010020A5H   LINE      CODE     ---       #354
      010020AAH   LINE      CODE     ---       #355
      010020AAH   LINE      CODE     ---       #356
      010020AAH   LINE      CODE     ---       #357
      010020B4H   LINE      CODE     ---       #359
      010020B4H   LINE      CODE     ---       #362
      010020BFH   LINE      CODE     ---       #363
      010020C1H   LINE      CODE     ---       #364
      010020C4H   LINE      CODE     ---       #366
      010020C4H   LINE      CODE     ---       #369
LX51 LINKER/LOCATER V4.66.87.0                                                        04/18/2018  10:36:57  PAGE 183


      010020CEH   LINE      CODE     ---       #370
      010020D1H   LINE      CODE     ---       #372
      010020D1H   LINE      CODE     ---       #375
      010020DCH   LINE      CODE     ---       #376
      010020E1H   LINE      CODE     ---       #378
      010020E1H   LINE      CODE     ---       #381
      010020ECH   LINE      CODE     ---       #382
      010020F0H   LINE      CODE     ---       #384
      010020F0H   LINE      CODE     ---       #387
      010020FCH   LINE      CODE     ---       #388
      01002101H   LINE      CODE     ---       #389
      01002106H   LINE      CODE     ---       #390
      01002106H   LINE      CODE     ---       #391
      01002106H   LINE      CODE     ---       #392
      01002110H   LINE      CODE     ---       #394
      01002110H   LINE      CODE     ---       #397
      0100211BH   LINE      CODE     ---       #398
      0100211DH   LINE      CODE     ---       #399
      0100211FH   LINE      CODE     ---       #401
      0100211FH   LINE      CODE     ---       #404
      01002129H   LINE      CODE     ---       #405
      0100212BH   LINE      CODE     ---       #407
      0100212BH   LINE      CODE     ---       #410
      01002136H   LINE      CODE     ---       #411
      0100213BH   LINE      CODE     ---       #413
      0100213BH   LINE      CODE     ---       #416
      01002146H   LINE      CODE     ---       #417
      0100214BH   LINE      CODE     ---       #419
      0100214BH   LINE      CODE     ---       #422
      01002157H   LINE      CODE     ---       #423
      0100215CH   LINE      CODE     ---       #424
      01002161H   LINE      CODE     ---       #425
      01002161H   LINE      CODE     ---       #426
      01002161H   LINE      CODE     ---       #427
      01002168H   LINE      CODE     ---       #429
      01002168H   LINE      CODE     ---       #432
      01002173H   LINE      CODE     ---       #433
      01002178H   LINE      CODE     ---       #434
      0100217EH   LINE      CODE     ---       #436
      0100217EH   LINE      CODE     ---       #439
      01002188H   LINE      CODE     ---       #440
      0100218BH   LINE      CODE     ---       #442
      0100218BH   LINE      CODE     ---       #444
      ---         BLOCKEND  ---      ---       LVL=0

      ---         MODULE    ---      ---       SM_FUSE_MODE
      0100CCDDH   PUBLIC    CONST    ---       sm_fuse_mode_ss_name
      0100542DH   PUBLIC    CODE     ---       _sm_fuse_mode
      01007828H   SYMBOL    CODE     ---       _display_mode

      01008EAEH   BLOCK     CODE     ---       LVL=0
      ---         BLOCKEND  ---      ---       LVL=0

      01007828H   BLOCK     CODE     ---       LVL=0
      02000014H   SYMBOL    XDATA    BYTE      mode
      01007828H   LINE      CODE     ---       #17
      0100782DH   LINE      CODE     ---       #18
      0100782DH   LINE      CODE     ---       #19
      01007830H   LINE      CODE     ---       #20
      01007837H   LINE      CODE     ---       #21
      0100783EH   LINE      CODE     ---       #22
      01007845H   LINE      CODE     ---       #23
      0100784FH   LINE      CODE     ---       #24
      0100784FH   LINE      CODE     ---       #25
      01007851H   LINE      CODE     ---       #26
LX51 LINKER/LOCATER V4.66.87.0                                                        04/18/2018  10:36:57  PAGE 184


      01007853H   LINE      CODE     ---       #27
      01007853H   LINE      CODE     ---       #28
      0100785AH   LINE      CODE     ---       #29
      0100785AH   LINE      CODE     ---       #30
      0100785AH   LINE      CODE     ---       #31
      ---         BLOCKEND  ---      ---       LVL=0

      0100542DH   BLOCK     CODE     ---       LVL=0
      02000011H   SYMBOL    XDATA    BYTE      from
      02000012H   SYMBOL    XDATA    BYTE      to
      02000013H   SYMBOL    XDATA    BYTE      ev
      0100542DH   LINE      CODE     ---       #34
      01005439H   LINE      CODE     ---       #35
      01005439H   LINE      CODE     ---       #36
      0100544DH   LINE      CODE     ---       #39
      01005457H   LINE      CODE     ---       #40
      0100545EH   LINE      CODE     ---       #42
      0100545EH   LINE      CODE     ---       #45
      0100546EH   LINE      CODE     ---       #46
      0100546EH   LINE      CODE     ---       #47
      01005470H   LINE      CODE     ---       #49
      01005470H   LINE      CODE     ---       #52
      01005482H   LINE      CODE     ---       #53
      01005486H   LINE      CODE     ---       #55
      01005486H   LINE      CODE     ---       #58
      01005492H   LINE      CODE     ---       #59
      01005494H   LINE      CODE     ---       #61
      01005494H   LINE      CODE     ---       #64
      010054A4H   LINE      CODE     ---       #65
      010054A9H   LINE      CODE     ---       #67
      010054A9H   LINE      CODE     ---       #70
      010054B5H   LINE      CODE     ---       #71
      010054BBH   LINE      CODE     ---       #73
      010054BBH   LINE      CODE     ---       #74
      ---         BLOCKEND  ---      ---       LVL=0

      ---         MODULE    ---      ---       SM_FUSE_TEST
      0100ADEAH   PUBLIC    CONST    ---       sm_fuse_test_ss_name
      01000AE1H   PUBLIC    CODE     ---       _sm_fuse_test
      01004A87H   SYMBOL    CODE     ---       _display_error_code
      010049D0H   SYMBOL    CODE     ---       _test_hg_state_mask
      010023BBH   SYMBOL    CODE     ---       _display_fuse_state
      020000D4H   SYMBOL    XDATA    BYTE      hg_state_mask

      01006F9CH   BLOCK     CODE     ---       LVL=0
      ---         BLOCKEND  ---      ---       LVL=0

      010049D0H   BLOCK     CODE     ---       LVL=0
      02000014H   SYMBOL    XDATA    BYTE      state
      010049D5H   BLOCK     CODE     NEAR LAB  LVL=1
      02000015H   SYMBOL    XDATA    CHAR      val
      ---         BLOCKEND  ---      ---       LVL=1
      010049D0H   LINE      CODE     ---       #37
      010049D5H   LINE      CODE     ---       #38
      010049D5H   LINE      CODE     ---       #39
      010049E1H   LINE      CODE     ---       #41
      010049FAH   LINE      CODE     ---       #43
      01004A02H   LINE      CODE     ---       #44
      01004A0DH   LINE      CODE     ---       #46
      01004A15H   LINE      CODE     ---       #47
      01004A1DH   LINE      CODE     ---       #48
      01004A24H   LINE      CODE     ---       #49
      01004A26H   LINE      CODE     ---       #50
      01004A2DH   LINE      CODE     ---       #51
      01004A2DH   LINE      CODE     ---       #52
LX51 LINKER/LOCATER V4.66.87.0                                                        04/18/2018  10:36:57  PAGE 185


      01004A2DH   LINE      CODE     ---       #54
      01004A31H   LINE      CODE     ---       #55
      01004A39H   LINE      CODE     ---       #56
      01004A40H   LINE      CODE     ---       #57
      01004A42H   LINE      CODE     ---       #58
      01004A49H   LINE      CODE     ---       #59
      01004A49H   LINE      CODE     ---       #60
      01004A49H   LINE      CODE     ---       #62
      01004A50H   LINE      CODE     ---       #63
      01004A58H   LINE      CODE     ---       #64
      01004A5FH   LINE      CODE     ---       #65
      01004A61H   LINE      CODE     ---       #66
      01004A68H   LINE      CODE     ---       #67
      01004A68H   LINE      CODE     ---       #68
      01004A68H   LINE      CODE     ---       #70
      01004A6FH   LINE      CODE     ---       #71
      01004A77H   LINE      CODE     ---       #72
      01004A7EH   LINE      CODE     ---       #73
      01004A7FH   LINE      CODE     ---       #74
      01004A86H   LINE      CODE     ---       #75
      01004A86H   LINE      CODE     ---       #76
      01004A86H   LINE      CODE     ---       #77
      ---         BLOCKEND  ---      ---       LVL=0

      01004A87H   BLOCK     CODE     ---       LVL=0
      02000019H   SYMBOL    XDATA    BYTE      phase
      0200001AH   SYMBOL    XDATA    INT       err
      01004A87H   LINE      CODE     ---       #115
      01004A92H   LINE      CODE     ---       #116
      01004A92H   LINE      CODE     ---       #117
      01004AA1H   LINE      CODE     ---       #118
      01004AA4H   LINE      CODE     ---       #119
      01004AAEH   LINE      CODE     ---       #120
      01004AB5H   LINE      CODE     ---       #121
      01004AC1H   LINE      CODE     ---       #122
      01004AC5H   LINE      CODE     ---       #123
      01004ACEH   LINE      CODE     ---       #124
      01004AE7H   LINE      CODE     ---       #125
      01004AF7H   LINE      CODE     ---       #126
      01004AF9H   LINE      CODE     ---       #127
      01004B00H   LINE      CODE     ---       #128
      01004B07H   LINE      CODE     ---       #129
      01004B0EH   LINE      CODE     ---       #130
      01004B13H   LINE      CODE     ---       #131
      01004B1AH   LINE      CODE     ---       #132
      01004B26H   LINE      CODE     ---       #133
      01004B26H   LINE      CODE     ---       #134
      ---         BLOCKEND  ---      ---       LVL=0

      010023BBH   BLOCK     CODE     ---       LVL=0
      02000014H   SYMBOL    XDATA    BYTE      phase
      02000015H   SYMBOL    XDATA    BYTE      state
      02000016H   SYMBOL    XDATA    CHAR      value
      010023C1H   BLOCK     CODE     NEAR LAB  LVL=1
      02000017H   SYMBOL    XDATA    INT       err
      ---         BLOCKEND  ---      ---       LVL=1
      010023BBH   LINE      CODE     ---       #136
      010023C1H   LINE      CODE     ---       #137
      010023C1H   LINE      CODE     ---       #138
      010023C7H   LINE      CODE     ---       #140
      010023D7H   LINE      CODE     ---       #142
      010023DAH   LINE      CODE     ---       #144
      0100241BH   LINE      CODE     ---       #145
      0100241BH   LINE      CODE     ---       #146
      0100241BH   LINE      CODE     ---       #147
LX51 LINKER/LOCATER V4.66.87.0                                                        04/18/2018  10:36:57  PAGE 186


      0100241EH   LINE      CODE     ---       #148
      01002420H   LINE      CODE     ---       #149
      01002420H   LINE      CODE     ---       #150
      01002422H   LINE      CODE     ---       #151
      01002422H   LINE      CODE     ---       #152
      01002422H   LINE      CODE     ---       #153
      01002425H   LINE      CODE     ---       #154
      01002427H   LINE      CODE     ---       #155
      01002427H   LINE      CODE     ---       #156
      01002429H   LINE      CODE     ---       #157
      01002429H   LINE      CODE     ---       #158
      01002429H   LINE      CODE     ---       #159
      0100242CH   LINE      CODE     ---       #160
      0100242EH   LINE      CODE     ---       #161
      01002431H   LINE      CODE     ---       #162
      01002442H   LINE      CODE     ---       #163
      0100244DH   LINE      CODE     ---       #164
      0100244FH   LINE      CODE     ---       #165
      01002455H   LINE      CODE     ---       #166
      01002455H   LINE      CODE     ---       #167
      01002463H   LINE      CODE     ---       #168
      01002473H   LINE      CODE     ---       #169
      01002473H   LINE      CODE     ---       #170
      01002475H   LINE      CODE     ---       #171
      01002475H   LINE      CODE     ---       #172
      01002475H   LINE      CODE     ---       #173
      01002478H   LINE      CODE     ---       #174
      0100247AH   LINE      CODE     ---       #175
      0100247DH   LINE      CODE     ---       #176
      01002480H   LINE      CODE     ---       #177
      01002480H   LINE      CODE     ---       #178
      01002487H   LINE      CODE     ---       #179
      01002493H   LINE      CODE     ---       #180
      010024A4H   LINE      CODE     ---       #181
      010024B4H   LINE      CODE     ---       #182
      010024BFH   LINE      CODE     ---       #183
      010024C9H   LINE      CODE     ---       #184
      010024D8H   LINE      CODE     ---       #185
      010024DAH   LINE      CODE     ---       #187
      010024DAH   LINE      CODE     ---       #188
      010024DFH   LINE      CODE     ---       #189
      010024E1H   LINE      CODE     ---       #190
      010024E1H   LINE      CODE     ---       #191
      010024E7H   LINE      CODE     ---       #192
      010024E9H   LINE      CODE     ---       #193
      010024E9H   LINE      CODE     ---       #194
      010024EFH   LINE      CODE     ---       #195
      010024F1H   LINE      CODE     ---       #196
      010024F1H   LINE      CODE     ---       #197
      010024F7H   LINE      CODE     ---       #198
      010024F9H   LINE      CODE     ---       #200
      010024F9H   LINE      CODE     ---       #201
      010024FFH   LINE      CODE     ---       #202
      01002501H   LINE      CODE     ---       #203
      01002501H   LINE      CODE     ---       #204
      01002507H   LINE      CODE     ---       #205
      01002509H   LINE      CODE     ---       #207
      01002509H   LINE      CODE     ---       #208
      0100250FH   LINE      CODE     ---       #209
      01002511H   LINE      CODE     ---       #210
      01002511H   LINE      CODE     ---       #211
      01002517H   LINE      CODE     ---       #212
      01002519H   LINE      CODE     ---       #213
      01002519H   LINE      CODE     ---       #214
      0100251FH   LINE      CODE     ---       #215
LX51 LINKER/LOCATER V4.66.87.0                                                        04/18/2018  10:36:57  PAGE 187


      01002521H   LINE      CODE     ---       #216
      01002521H   LINE      CODE     ---       #217
      01002527H   LINE      CODE     ---       #218
      01002529H   LINE      CODE     ---       #220
      01002529H   LINE      CODE     ---       #221
      01002533H   LINE      CODE     ---       #222
      01002535H   LINE      CODE     ---       #224
      01002535H   LINE      CODE     ---       #225
      0100253FH   LINE      CODE     ---       #226
      01002541H   LINE      CODE     ---       #227
      01002541H   LINE      CODE     ---       #228
      01002548H   LINE      CODE     ---       #229
      01002548H   LINE      CODE     ---       #230
      01002548H   LINE      CODE     ---       #232
      01002557H   LINE      CODE     ---       #233
      0100255FH   LINE      CODE     ---       #234
      0100255FH   LINE      CODE     ---       #236
      ---         BLOCKEND  ---      ---       LVL=0

      01000AE1H   BLOCK     CODE     ---       LVL=0
      02000011H   SYMBOL    XDATA    BYTE      from
      02000012H   SYMBOL    XDATA    BYTE      to
      02000013H   SYMBOL    XDATA    BYTE      ev
      01000AE1H   LINE      CODE     ---       #239
      01000AE7H   LINE      CODE     ---       #240
      01000AE7H   LINE      CODE     ---       #241
      01000AF6H   LINE      CODE     ---       #244
      01000B0CH   LINE      CODE     ---       #245
      01000B11H   LINE      CODE     ---       #246
      01000B18H   LINE      CODE     ---       #247
      01000B1BH   LINE      CODE     ---       #248
      01000B1EH   LINE      CODE     ---       #249
      01000B23H   LINE      CODE     ---       #250
      01000B28H   LINE      CODE     ---       #251
      01000B2CH   LINE      CODE     ---       #252
      01000B30H   LINE      CODE     ---       #253
      01000B34H   LINE      CODE     ---       #254
      01000B3FH   LINE      CODE     ---       #255
      01000B49H   LINE      CODE     ---       #256
      01000B49H   LINE      CODE     ---       #258
      01000B49H   LINE      CODE     ---       #261
      01000B5EH   LINE      CODE     ---       #263
      01000B5EH   LINE      CODE     ---       #264
      01000B65H   LINE      CODE     ---       #265
      01000B6DH   LINE      CODE     ---       #267
      01000B6DH   LINE      CODE     ---       #270
      01000B7FH   LINE      CODE     ---       #271
      01000B81H   LINE      CODE     ---       #272
      01000B8BH   LINE      CODE     ---       #274
      01000B8BH   LINE      CODE     ---       #277
      01000BA6H   LINE      CODE     ---       #280
      01000BA6H   LINE      CODE     ---       #281
      01000BADH   LINE      CODE     ---       #282
      01000BB5H   LINE      CODE     ---       #283
      01000BBEH   LINE      CODE     ---       #284
      01000BC2H   LINE      CODE     ---       #285
      01000BC4H   LINE      CODE     ---       #286
      01000BC8H   LINE      CODE     ---       #287
      01000BD2H   LINE      CODE     ---       #288
      01000BD9H   LINE      CODE     ---       #289
      01000BD9H   LINE      CODE     ---       #290
      01000BDEH   LINE      CODE     ---       #291
      01000BE3H   LINE      CODE     ---       #292
      01000BE6H   LINE      CODE     ---       #294
      01000BE6H   LINE      CODE     ---       #297
LX51 LINKER/LOCATER V4.66.87.0                                                        04/18/2018  10:36:57  PAGE 188


      01000C12H   LINE      CODE     ---       #299
      01000C12H   LINE      CODE     ---       #300
      01000C1CH   LINE      CODE     ---       #301
      01000C26H   LINE      CODE     ---       #302
      01000C2FH   LINE      CODE     ---       #303
      01000C36H   LINE      CODE     ---       #304
      01000C3DH   LINE      CODE     ---       #305
      01000C42H   LINE      CODE     ---       #306
      01000C44H   LINE      CODE     ---       #307
      01000C4BH   LINE      CODE     ---       #308
      01000C52H   LINE      CODE     ---       #309
      01000C5BH   LINE      CODE     ---       #310
      01000C5BH   LINE      CODE     ---       #311
      01000C5BH   LINE      CODE     ---       #312
      01000C60H   LINE      CODE     ---       #313
      01000C60H   LINE      CODE     ---       #314
      01000C76H   LINE      CODE     ---       #316
      01000C76H   LINE      CODE     ---       #317
      01000C7AH   LINE      CODE     ---       #318
      01000C7FH   LINE      CODE     ---       #319
      01000C7FH   LINE      CODE     ---       #320
      01000C81H   LINE      CODE     ---       #321
      01000C8AH   LINE      CODE     ---       #322
      01000C93H   LINE      CODE     ---       #323
      01000C93H   LINE      CODE     ---       #324
      01000C93H   LINE      CODE     ---       #325
      01000C93H   LINE      CODE     ---       #326
      01000CA0H   LINE      CODE     ---       #327
      01000CAAH   LINE      CODE     ---       #328
      01000CB3H   LINE      CODE     ---       #329
      01000CBAH   LINE      CODE     ---       #330
      01000CBEH   LINE      CODE     ---       #331
      01000CBEH   LINE      CODE     ---       #332
      01000CC0H   LINE      CODE     ---       #333
      01000CC7H   LINE      CODE     ---       #334
      01000CCEH   LINE      CODE     ---       #335
      01000CD6H   LINE      CODE     ---       #336
      01000CD6H   LINE      CODE     ---       #337
      01000CD6H   LINE      CODE     ---       #338
      01000CD6H   LINE      CODE     ---       #339
      01000CD6H   LINE      CODE     ---       #340
      01000CEBH   LINE      CODE     ---       #342
      01000CEBH   LINE      CODE     ---       #343
      01000CF2H   LINE      CODE     ---       #344
      01000CF9H   LINE      CODE     ---       #345
      01000D00H   LINE      CODE     ---       #346
      01000D07H   LINE      CODE     ---       #347
      01000D0CH   LINE      CODE     ---       #348
      01000D0EH   LINE      CODE     ---       #349
      01000D15H   LINE      CODE     ---       #350
      01000D1CH   LINE      CODE     ---       #351
      01000D23H   LINE      CODE     ---       #352
      01000D2CH   LINE      CODE     ---       #353
      01000D2CH   LINE      CODE     ---       #354
      01000D31H   LINE      CODE     ---       #355
      01000D36H   LINE      CODE     ---       #356
      01000D36H   LINE      CODE     ---       #357
      01000D36H   LINE      CODE     ---       #361
      01000D51H   LINE      CODE     ---       #362
      01000D51H   LINE      CODE     ---       #363
      01000D58H   LINE      CODE     ---       #364
      01000D5BH   LINE      CODE     ---       #365
      01000D5EH   LINE      CODE     ---       #366
      01000D61H   LINE      CODE     ---       #367
      01000D64H   LINE      CODE     ---       #369
LX51 LINKER/LOCATER V4.66.87.0                                                        04/18/2018  10:36:57  PAGE 189


      01000D64H   LINE      CODE     ---       #372
      01000D7FH   LINE      CODE     ---       #373
      01000D7FH   LINE      CODE     ---       #374
      01000D80H   LINE      CODE     ---       #375
      01000D80H   LINE      CODE     ---       #376
      01000D87H   LINE      CODE     ---       #377
      01000D89H   LINE      CODE     ---       #378
      01000D8CH   LINE      CODE     ---       #379
      01000D91H   LINE      CODE     ---       #380
      01000D95H   LINE      CODE     ---       #381
      01000D98H   LINE      CODE     ---       #382
      01000D9AH   LINE      CODE     ---       #383
      01000D9DH   LINE      CODE     ---       #384
      01000DA2H   LINE      CODE     ---       #385
      01000DA6H   LINE      CODE     ---       #386
      01000DA9H   LINE      CODE     ---       #388
      01000DA9H   LINE      CODE     ---       #390
      01000DBEH   LINE      CODE     ---       #391
      01000DBEH   LINE      CODE     ---       #393
      01000DCAH   LINE      CODE     ---       #394
      01000DCFH   LINE      CODE     ---       #395
      01000DCFH   LINE      CODE     ---       #396
      01000DD6H   LINE      CODE     ---       #397
      01000DDAH   LINE      CODE     ---       #398
      01000DDDH   LINE      CODE     ---       #399
      01000DE1H   LINE      CODE     ---       #400
      01000DE4H   LINE      CODE     ---       #403
      01000DECH   LINE      CODE     ---       #404
      01000DF8H   LINE      CODE     ---       #405
      01000DFDH   LINE      CODE     ---       #406
      01000DFDH   LINE      CODE     ---       #407
      01000DFDH   LINE      CODE     ---       #408
      01000DFDH   LINE      CODE     ---       #409
      01000E02H   LINE      CODE     ---       #410
      01000E11H   LINE      CODE     ---       #411
      01000E16H   LINE      CODE     ---       #412
      01000E16H   LINE      CODE     ---       #413
      01000E16H   LINE      CODE     ---       #414
      01000E16H   LINE      CODE     ---       #415
      01000E1BH   LINE      CODE     ---       #416
      01000E25H   LINE      CODE     ---       #417
      01000E28H   LINE      CODE     ---       #418
      01000E2FH   LINE      CODE     ---       #419
      01000E31H   LINE      CODE     ---       #420
      01000E34H   LINE      CODE     ---       #421
      01000E3BH   LINE      CODE     ---       #422
      01000E3BH   LINE      CODE     ---       #423
      01000E3DH   LINE      CODE     ---       #425
      01000E3DH   LINE      CODE     ---       #427
      01000E58H   LINE      CODE     ---       #428
      01000E58H   LINE      CODE     ---       #429
      01000E5DH   LINE      CODE     ---       #430
      01000E5DH   LINE      CODE     ---       #431
      01000E64H   LINE      CODE     ---       #432
      01000E64H   LINE      CODE     ---       #433
      01000E64H   LINE      CODE     ---       #434
      01000E64H   LINE      CODE     ---       #435
      01000E69H   LINE      CODE     ---       #436
      01000E6BH   LINE      CODE     ---       #437
      01000E6BH   LINE      CODE     ---       #438
      01000E6BH   LINE      CODE     ---       #439
      01000E6BH   LINE      CODE     ---       #440
      01000E70H   LINE      CODE     ---       #441
      01000E70H   LINE      CODE     ---       #442
      01000E7AH   LINE      CODE     ---       #443
LX51 LINKER/LOCATER V4.66.87.0                                                        04/18/2018  10:36:57  PAGE 190


      01000E7AH   LINE      CODE     ---       #444
      01000E83H   LINE      CODE     ---       #445
      01000E88H   LINE      CODE     ---       #446
      01000E8BH   LINE      CODE     ---       #447
      01000E90H   LINE      CODE     ---       #448
      01000E96H   LINE      CODE     ---       #449
      01000E99H   LINE      CODE     ---       #450
      01000E9EH   LINE      CODE     ---       #451
      01000EA1H   LINE      CODE     ---       #452
      01000EA6H   LINE      CODE     ---       #453
      01000EACH   LINE      CODE     ---       #454
      01000EACH   LINE      CODE     ---       #455
      01000EAFH   LINE      CODE     ---       #457
      01000EAFH   LINE      CODE     ---       #461
      01000EC1H   LINE      CODE     ---       #462
      01000EC8H   LINE      CODE     ---       #464
      01000EC8H   LINE      CODE     ---       #467
      01000EDBH   LINE      CODE     ---       #468
      01000EDCH   LINE      CODE     ---       #469
      01000EE1H   LINE      CODE     ---       #470
      01000EE8H   LINE      CODE     ---       #471
      01000EEDH   LINE      CODE     ---       #472
      01000EF6H   LINE      CODE     ---       #474
      01000EF6H   LINE      CODE     ---       #477
      01000F03H   LINE      CODE     ---       #479
      01000F0FH   LINE      CODE     ---       #480
      01000F0FH   LINE      CODE     ---       #481
      01000F14H   LINE      CODE     ---       #482
      01000F19H   LINE      CODE     ---       #483
      01000F1FH   LINE      CODE     ---       #485
      01000F34H   LINE      CODE     ---       #486
      01000F34H   LINE      CODE     ---       #487
      01000F34H   LINE      CODE     ---       #488
      01000F3AH   LINE      CODE     ---       #489
      01000F40H   LINE      CODE     ---       #490
      01000F43H   LINE      CODE     ---       #492
      01000F43H   LINE      CODE     ---       #494
      01000F50H   LINE      CODE     ---       #495
      01000F57H   LINE      CODE     ---       #496
      01000F5BH   LINE      CODE     ---       #497
      01000F64H   LINE      CODE     ---       #498
      01000F6BH   LINE      CODE     ---       #499
      01000F74H   LINE      CODE     ---       #500
      01000F74H   LINE      CODE     ---       #501
      01000F74H   LINE      CODE     ---       #502
      01000F74H   LINE      CODE     ---       #503
      01000F7AH   LINE      CODE     ---       #505
      01000F7AH   LINE      CODE     ---       #508
      01000F8CH   LINE      CODE     ---       #509
      01000F93H   LINE      CODE     ---       #511
      01000F93H   LINE      CODE     ---       #513
      01000FA6H   LINE      CODE     ---       #514
      01000FA8H   LINE      CODE     ---       #515
      01000FA8H   LINE      CODE     ---       #516
      01000FADH   LINE      CODE     ---       #517
      01000FB2H   LINE      CODE     ---       #518
      01000FB7H   LINE      CODE     ---       #519
      01000FBFH   LINE      CODE     ---       #520
      01000FC5H   LINE      CODE     ---       #522
      01000FC5H   LINE      CODE     ---       #524
      01000FD7H   LINE      CODE     ---       #525
      01000FDDH   LINE      CODE     ---       #526
      01000FE3H   LINE      CODE     ---       #527
      01000FEEH   LINE      CODE     ---       #528
      01000FF5H   LINE      CODE     ---       #529
LX51 LINKER/LOCATER V4.66.87.0                                                        04/18/2018  10:36:57  PAGE 191


      01000FFAH   LINE      CODE     ---       #530
      01000FFEH   LINE      CODE     ---       #531
      01000FFEH   LINE      CODE     ---       #532
      01001000H   LINE      CODE     ---       #534
      01001000H   LINE      CODE     ---       #536
      0100100DH   LINE      CODE     ---       #537
      01001032H   LINE      CODE     ---       #538
      01001044H   LINE      CODE     ---       #539
      01001049H   LINE      CODE     ---       #540
      0100104FH   LINE      CODE     ---       #541
      0100104FH   LINE      CODE     ---       #542
      01001052H   LINE      CODE     ---       #544
      01001052H   LINE      CODE     ---       #548
      01001064H   LINE      CODE     ---       #549
      0100106AH   LINE      CODE     ---       #551
      0100106AH   LINE      CODE     ---       #553
      0100107DH   LINE      CODE     ---       #554
      0100107FH   LINE      CODE     ---       #555
      0100107FH   LINE      CODE     ---       #556
      01001084H   LINE      CODE     ---       #557
      01001089H   LINE      CODE     ---       #558
      01001092H   LINE      CODE     ---       #560
      01001092H   LINE      CODE     ---       #562
      010010A5H   LINE      CODE     ---       #563
      010010A7H   LINE      CODE     ---       #564
      010010ACH   LINE      CODE     ---       #565
      010010AEH   LINE      CODE     ---       #567
      010010AEH   LINE      CODE     ---       #569
      010010C1H   LINE      CODE     ---       #570
      010010C3H   LINE      CODE     ---       #571
      010010C8H   LINE      CODE     ---       #572
      010010CEH   LINE      CODE     ---       #574
      010010CEH   LINE      CODE     ---       #576
      010010E1H   LINE      CODE     ---       #577
      010010E7H   LINE      CODE     ---       #578
      010010E9H   LINE      CODE     ---       #580
      010010E9H   LINE      CODE     ---       #582
      010010F6H   LINE      CODE     ---       #583
      01001106H   LINE      CODE     ---       #584
      0100110DH   LINE      CODE     ---       #585
      01001112H   LINE      CODE     ---       #586
      0100111BH   LINE      CODE     ---       #587
      01001120H   LINE      CODE     ---       #588
      01001120H   LINE      CODE     ---       #590
      01001120H   LINE      CODE     ---       #591
      ---         BLOCKEND  ---      ---       LVL=0

      ---         MODULE    ---      ---       SM_FUSE_PARAM
      0100B9DEH   PUBLIC    CONST    ---       sm_fuse_param_ss_name
      0100164CH   PUBLIC    CODE     ---       _sm_fuse_param
      010055D6H   SYMBOL    CODE     ---       update_yymmdd
      0100701DH   SYMBOL    CODE     ---       _update_onoff
      010080B2H   SYMBOL    CODE     ---       _enter_thermo
      01007D36H   SYMBOL    CODE     ---       _enter_hhmmss
      01007C8DH   SYMBOL    CODE     ---       _enter_yymmdd
      010080D4H   SYMBOL    CODE     ---       _enter_onoff
      01004BEDH   SYMBOL    CODE     ---       _write_only
      01008B06H   SYMBOL    CODE     ---       _inc_and_write
      0100745BH   SYMBOL    CODE     ---       _update_password
      01004B3AH   SYMBOL    CODE     ---       _inc_only
      01008447H   SYMBOL    CODE     ---       _enter_password
      01005AFAH   SYMBOL    CODE     ---       _update_thermo
      01004D4EH   SYMBOL    CODE     ---       update_hhmmss

      01007575H   BLOCK     CODE     ---       LVL=0
LX51 LINKER/LOCATER V4.66.87.0                                                        04/18/2018  10:36:57  PAGE 192


      ---         BLOCKEND  ---      ---       LVL=0

      01004B3AH   BLOCK     CODE     ---       LVL=0
      00000006H   SYMBOL    DATA     BYTE      what
      01004B3AH   LINE      CODE     ---       #27
      01004B3CH   LINE      CODE     ---       #28
      01004B3CH   LINE      CODE     ---       #30
      01004B48H   LINE      CODE     ---       #31
      01004B56H   LINE      CODE     ---       #33
      01004B56H   LINE      CODE     ---       #35
      01004B7CH   LINE      CODE     ---       #36
      01004B7CH   LINE      CODE     ---       #37
      01004B7CH   LINE      CODE     ---       #38
      01004B7FH   LINE      CODE     ---       #39
      01004B81H   LINE      CODE     ---       #40
      01004B83H   LINE      CODE     ---       #41
      01004B86H   LINE      CODE     ---       #42
      01004B86H   LINE      CODE     ---       #43
      01004B89H   LINE      CODE     ---       #44
      01004B8CH   LINE      CODE     ---       #45
      01004B8CH   LINE      CODE     ---       #46
      01004B8FH   LINE      CODE     ---       #47
      01004B8FH   LINE      CODE     ---       #48
      01004B8FH   LINE      CODE     ---       #49
      01004B8FH   LINE      CODE     ---       #50
      01004B8FH   LINE      CODE     ---       #51
      01004B92H   LINE      CODE     ---       #52
      01004B94H   LINE      CODE     ---       #53
      01004B96H   LINE      CODE     ---       #54
      01004B99H   LINE      CODE     ---       #55
      01004B99H   LINE      CODE     ---       #56
      01004B9DH   LINE      CODE     ---       #57
      01004BA0H   LINE      CODE     ---       #58
      01004BA0H   LINE      CODE     ---       #59
      01004BA3H   LINE      CODE     ---       #60
      01004BA3H   LINE      CODE     ---       #61
      01004BA3H   LINE      CODE     ---       #62
      01004BA3H   LINE      CODE     ---       #63
      01004BA3H   LINE      CODE     ---       #64
      01004BA6H   LINE      CODE     ---       #65
      01004BA8H   LINE      CODE     ---       #66
      01004BADH   LINE      CODE     ---       #67
      01004BB1H   LINE      CODE     ---       #68
      01004BB1H   LINE      CODE     ---       #69
      01004BB5H   LINE      CODE     ---       #70
      01004BB8H   LINE      CODE     ---       #71
      01004BB8H   LINE      CODE     ---       #72
      01004BBBH   LINE      CODE     ---       #73
      01004BBBH   LINE      CODE     ---       #74
      01004BBBH   LINE      CODE     ---       #75
      01004BBBH   LINE      CODE     ---       #76
      01004BBBH   LINE      CODE     ---       #77
      01004BCAH   LINE      CODE     ---       #78
      01004BCBH   LINE      CODE     ---       #79
      01004BCBH   LINE      CODE     ---       #80
      01004BCBH   LINE      CODE     ---       #81
      01004BD5H   LINE      CODE     ---       #82
      01004BE4H   LINE      CODE     ---       #83
      01004BE4H   LINE      CODE     ---       #84
      01004BE4H   LINE      CODE     ---       #85
      ---         BLOCKEND  ---      ---       LVL=0

      01004BEDH   BLOCK     CODE     ---       LVL=0
      02000015H   SYMBOL    XDATA    BYTE      what
      01004BF2H   BLOCK     CODE     NEAR LAB  LVL=1
LX51 LINKER/LOCATER V4.66.87.0                                                        04/18/2018  10:36:57  PAGE 193


      00000007H   SYMBOL    DATA     BYTE      i
      ---         BLOCKEND  ---      ---       LVL=1
      01004BEDH   LINE      CODE     ---       #87
      01004BF2H   LINE      CODE     ---       #88
      01004BF2H   LINE      CODE     ---       #91
      01004BFEH   LINE      CODE     ---       #92
      01004C01H   LINE      CODE     ---       #93
      01004C0CH   LINE      CODE     ---       #95
      01004C0CH   LINE      CODE     ---       #97
      01004C35H   LINE      CODE     ---       #98
      01004C35H   LINE      CODE     ---       #99
      01004C38H   LINE      CODE     ---       #100
      01004C3AH   LINE      CODE     ---       #101
      01004C3AH   LINE      CODE     ---       #102
      01004C3AH   LINE      CODE     ---       #103
      01004C3AH   LINE      CODE     ---       #104
      01004C3AH   LINE      CODE     ---       #105
      01004C3CH   LINE      CODE     ---       #106
      01004C3CH   LINE      CODE     ---       #107
      01004C3FH   LINE      CODE     ---       #108
      01004C41H   LINE      CODE     ---       #109
      01004C41H   LINE      CODE     ---       #110
      01004C41H   LINE      CODE     ---       #111
      01004C41H   LINE      CODE     ---       #112
      01004C41H   LINE      CODE     ---       #113
      01004C43H   LINE      CODE     ---       #114
      01004C43H   LINE      CODE     ---       #115
      01004C46H   LINE      CODE     ---       #116
      01004C48H   LINE      CODE     ---       #117
      01004C48H   LINE      CODE     ---       #118
      01004C48H   LINE      CODE     ---       #119
      01004C48H   LINE      CODE     ---       #120
      01004C48H   LINE      CODE     ---       #121
      01004C4AH   LINE      CODE     ---       #122
      01004C4AH   LINE      CODE     ---       #123
      01004C4DH   LINE      CODE     ---       #124
      01004C52H   LINE      CODE     ---       #125
      01004C54H   LINE      CODE     ---       #126
      01004C56H   LINE      CODE     ---       #127
      01004C56H   LINE      CODE     ---       #128
      01004C56H   LINE      CODE     ---       #129
      01004C58H   LINE      CODE     ---       #130
      01004C58H   LINE      CODE     ---       #131
      01004C5BH   LINE      CODE     ---       #132
      01004C60H   LINE      CODE     ---       #133
      01004C62H   LINE      CODE     ---       #134
      01004C64H   LINE      CODE     ---       #135
      01004C64H   LINE      CODE     ---       #136
      01004C64H   LINE      CODE     ---       #137
      01004C66H   LINE      CODE     ---       #138
      01004C66H   LINE      CODE     ---       #139
      01004C69H   LINE      CODE     ---       #140
      01004C6EH   LINE      CODE     ---       #141
      01004C70H   LINE      CODE     ---       #142
      01004C75H   LINE      CODE     ---       #143
      01004C79H   LINE      CODE     ---       #144
      01004C79H   LINE      CODE     ---       #145
      01004C79H   LINE      CODE     ---       #146
      01004C79H   LINE      CODE     ---       #147
      01004C80H   LINE      CODE     ---       #148
      01004C82H   LINE      CODE     ---       #149
      01004C82H   LINE      CODE     ---       #150
      01004C89H   LINE      CODE     ---       #151
      01004C8BH   LINE      CODE     ---       #152
      01004C8BH   LINE      CODE     ---       #153
LX51 LINKER/LOCATER V4.66.87.0                                                        04/18/2018  10:36:57  PAGE 194


      01004C92H   LINE      CODE     ---       #154
      01004C94H   LINE      CODE     ---       #155
      01004C94H   LINE      CODE     ---       #156
      01004C9EH   LINE      CODE     ---       #157
      01004C9EH   LINE      CODE     ---       #158
      01004C9EH   LINE      CODE     ---       #160
      ---         BLOCKEND  ---      ---       LVL=0

      01008B06H   BLOCK     CODE     ---       LVL=0
      02000014H   SYMBOL    XDATA    BYTE      what
      01008B06H   LINE      CODE     ---       #162
      01008B0BH   LINE      CODE     ---       #163
      01008B0BH   LINE      CODE     ---       #164
      01008B0EH   LINE      CODE     ---       #165
      ---         BLOCKEND  ---      ---       LVL=0

      01004D4EH   BLOCK     CODE     ---       LVL=0
      01004D4EH   BLOCK     CODE     NEAR LAB  LVL=1
      02000015H   SYMBOL    XDATA    BYTE      hour
      02000016H   SYMBOL    XDATA    BYTE      min
      02000017H   SYMBOL    XDATA    BYTE      sec
      ---         BLOCKEND  ---      ---       LVL=1
      01004D4EH   LINE      CODE     ---       #168
      01004D4EH   LINE      CODE     ---       #169
      01004D4EH   LINE      CODE     ---       #172
      01004D56H   LINE      CODE     ---       #173
      01004D5CH   LINE      CODE     ---       #174
      01004D62H   LINE      CODE     ---       #177
      01004D67H   LINE      CODE     ---       #178
      01004D6BH   LINE      CODE     ---       #179
      01004D6FH   LINE      CODE     ---       #180
      01004D73H   LINE      CODE     ---       #183
      01004D80H   LINE      CODE     ---       #184
      01004D84H   LINE      CODE     ---       #185
      01004D88H   LINE      CODE     ---       #186
      01004D8AH   LINE      CODE     ---       #187
      01004D8FH   LINE      CODE     ---       #188
      01004D8FH   LINE      CODE     ---       #191
      01004DB0H   LINE      CODE     ---       #193
      01004DBAH   LINE      CODE     ---       #194
      01004DBDH   LINE      CODE     ---       #195
      01004DBFH   LINE      CODE     ---       #196
      01004DC6H   LINE      CODE     ---       #197
      01004DC6H   LINE      CODE     ---       #198
      01004DD1H   LINE      CODE     ---       #199
      01004DDCH   LINE      CODE     ---       #200
      01004DE7H   LINE      CODE     ---       #201
      01004DF2H   LINE      CODE     ---       #202
      ---         BLOCKEND  ---      ---       LVL=0

      010055D6H   BLOCK     CODE     ---       LVL=0
      010055D6H   BLOCK     CODE     NEAR LAB  LVL=1
      02000015H   SYMBOL    XDATA    BYTE      year
      02000016H   SYMBOL    XDATA    BYTE      mon
      02000017H   SYMBOL    XDATA    BYTE      date
      ---         BLOCKEND  ---      ---       LVL=1
      010055D6H   LINE      CODE     ---       #205
      010055D6H   LINE      CODE     ---       #206
      010055D6H   LINE      CODE     ---       #209
      010055DEH   LINE      CODE     ---       #210
      010055E4H   LINE      CODE     ---       #211
      010055EAH   LINE      CODE     ---       #213
      010055EFH   LINE      CODE     ---       #214
      010055F4H   LINE      CODE     ---       #216
      01005615H   LINE      CODE     ---       #218
LX51 LINKER/LOCATER V4.66.87.0                                                        04/18/2018  10:36:57  PAGE 195


      0100561FH   LINE      CODE     ---       #219
      01005622H   LINE      CODE     ---       #220
      01005624H   LINE      CODE     ---       #221
      0100562BH   LINE      CODE     ---       #222
      0100562BH   LINE      CODE     ---       #223
      01005636H   LINE      CODE     ---       #224
      01005641H   LINE      CODE     ---       #225
      0100564CH   LINE      CODE     ---       #226
      01005657H   LINE      CODE     ---       #227
      ---         BLOCKEND  ---      ---       LVL=0

      01007D36H   BLOCK     CODE     ---       LVL=0
      02000014H   SYMBOL    XDATA    BYTE      what
      01007D36H   LINE      CODE     ---       #230
      01007D3BH   LINE      CODE     ---       #231
      01007D3BH   LINE      CODE     ---       #232
      01007D3EH   LINE      CODE     ---       #233
      01007D4CH   LINE      CODE     ---       #234
      01007D4CH   LINE      CODE     ---       #235
      01007D4EH   LINE      CODE     ---       #236
      01007D4EH   LINE      CODE     ---       #237
      01007D50H   LINE      CODE     ---       #238
      01007D50H   LINE      CODE     ---       #239
      01007D52H   LINE      CODE     ---       #240
      01007D52H   LINE      CODE     ---       #241
      01007D54H   LINE      CODE     ---       #242
      01007D54H   LINE      CODE     ---       #243
      01007D59H   LINE      CODE     ---       #244
      01007D5DH   LINE      CODE     ---       #245
      01007D5DH   LINE      CODE     ---       #246
      01007D5DH   LINE      CODE     ---       #247
      ---         BLOCKEND  ---      ---       LVL=0

      01007C8DH   BLOCK     CODE     ---       LVL=0
      02000014H   SYMBOL    XDATA    BYTE      what
      01007C8DH   LINE      CODE     ---       #251
      01007C92H   LINE      CODE     ---       #252
      01007C92H   LINE      CODE     ---       #253
      01007C95H   LINE      CODE     ---       #254
      01007CA4H   LINE      CODE     ---       #255
      01007CA4H   LINE      CODE     ---       #256
      01007CA6H   LINE      CODE     ---       #257
      01007CA6H   LINE      CODE     ---       #258
      01007CA8H   LINE      CODE     ---       #259
      01007CA8H   LINE      CODE     ---       #260
      01007CAAH   LINE      CODE     ---       #261
      01007CAAH   LINE      CODE     ---       #262
      01007CACH   LINE      CODE     ---       #263
      01007CACH   LINE      CODE     ---       #264
      01007CB1H   LINE      CODE     ---       #265
      01007CB5H   LINE      CODE     ---       #266
      01007CB5H   LINE      CODE     ---       #267
      01007CB5H   LINE      CODE     ---       #268
      ---         BLOCKEND  ---      ---       LVL=0

      01005AFAH   BLOCK     CODE     ---       LVL=0
      02000015H   SYMBOL    XDATA    BYTE      what
      01005AFFH   BLOCK     CODE     NEAR LAB  LVL=1
      00000004H   SYMBOL    DATA     CHAR      value
      ---         BLOCKEND  ---      ---       LVL=1
      01005AFAH   LINE      CODE     ---       #271
      01005AFFH   LINE      CODE     ---       #272
      01005AFFH   LINE      CODE     ---       #274
      01005B02H   LINE      CODE     ---       #275
      01005B0DH   LINE      CODE     ---       #276
LX51 LINKER/LOCATER V4.66.87.0                                                        04/18/2018  10:36:57  PAGE 196


      01005B0DH   LINE      CODE     ---       #277
      01005B14H   LINE      CODE     ---       #278
      01005B15H   LINE      CODE     ---       #279
      01005B17H   LINE      CODE     ---       #280
      01005B17H   LINE      CODE     ---       #281
      01005B1EH   LINE      CODE     ---       #282
      01005B25H   LINE      CODE     ---       #283
      01005B25H   LINE      CODE     ---       #284
      01005B25H   LINE      CODE     ---       #285
      01005B2DH   LINE      CODE     ---       #286
      01005B2FH   LINE      CODE     ---       #287
      01005B37H   LINE      CODE     ---       #288
      01005B3EH   LINE      CODE     ---       #289
      01005B42H   LINE      CODE     ---       #290
      01005B42H   LINE      CODE     ---       #291
      01005B51H   LINE      CODE     ---       #292
      01005B60H   LINE      CODE     ---       #293
      01005B62H   LINE      CODE     ---       #294
      01005B69H   LINE      CODE     ---       #295
      01005B70H   LINE      CODE     ---       #296
      01005B75H   LINE      CODE     ---       #297
      01005B75H   LINE      CODE     ---       #298
      ---         BLOCKEND  ---      ---       LVL=0

      010080B2H   BLOCK     CODE     ---       LVL=0
      02000014H   SYMBOL    XDATA    BYTE      what
      010080B2H   LINE      CODE     ---       #300
      010080B7H   LINE      CODE     ---       #301
      010080B7H   LINE      CODE     ---       #302
      010080BEH   LINE      CODE     ---       #303
      010080BEH   LINE      CODE     ---       #304
      010080C0H   LINE      CODE     ---       #305
      010080C2H   LINE      CODE     ---       #306
      010080C2H   LINE      CODE     ---       #307
      010080CCH   LINE      CODE     ---       #308
      010080CCH   LINE      CODE     ---       #309
      010080CCH   LINE      CODE     ---       #310
      ---         BLOCKEND  ---      ---       LVL=0

      0100701DH   BLOCK     CODE     ---       LVL=0
      02000015H   SYMBOL    XDATA    BYTE      what
      0100701DH   LINE      CODE     ---       #313
      01007022H   LINE      CODE     ---       #314
      01007022H   LINE      CODE     ---       #315
      01007025H   LINE      CODE     ---       #316
      01007030H   LINE      CODE     ---       #317
      01007030H   LINE      CODE     ---       #318
      01007032H   LINE      CODE     ---       #319
      01007034H   LINE      CODE     ---       #320
      01007034H   LINE      CODE     ---       #321
      0100703BH   LINE      CODE     ---       #322
      0100703BH   LINE      CODE     ---       #323
      0100703BH   LINE      CODE     ---       #325
      01007043H   LINE      CODE     ---       #326
      01007048H   LINE      CODE     ---       #327
      01007049H   LINE      CODE     ---       #328
      0100704BH   LINE      CODE     ---       #329
      01007050H   LINE      CODE     ---       #330
      01007057H   LINE      CODE     ---       #331
      0100705CH   LINE      CODE     ---       #332
      0100705CH   LINE      CODE     ---       #333
      ---         BLOCKEND  ---      ---       LVL=0

      010080D4H   BLOCK     CODE     ---       LVL=0
      02000014H   SYMBOL    XDATA    BYTE      what
LX51 LINKER/LOCATER V4.66.87.0                                                        04/18/2018  10:36:57  PAGE 197


      010080D4H   LINE      CODE     ---       #335
      010080D9H   LINE      CODE     ---       #336
      010080D9H   LINE      CODE     ---       #337
      010080E0H   LINE      CODE     ---       #338
      010080E0H   LINE      CODE     ---       #339
      010080E2H   LINE      CODE     ---       #340
      010080E4H   LINE      CODE     ---       #341
      010080E4H   LINE      CODE     ---       #342
      010080EEH   LINE      CODE     ---       #343
      010080EEH   LINE      CODE     ---       #344
      010080EEH   LINE      CODE     ---       #345
      ---         BLOCKEND  ---      ---       LVL=0

      0100745BH   BLOCK     CODE     ---       LVL=0
      00000007H   SYMBOL    DATA     BYTE      index
      0100745BH   BLOCK     CODE     NEAR LAB  LVL=1
      02000015H   SYMBOL    XDATA    BYTE      i
      ---         BLOCKEND  ---      ---       LVL=1
      0100745BH   LINE      CODE     ---       #348
      0100745BH   LINE      CODE     ---       #349
      0100745BH   LINE      CODE     ---       #351
      01007462H   LINE      CODE     ---       #352
      01007465H   LINE      CODE     ---       #353
      0100746CH   LINE      CODE     ---       #354
      01007471H   LINE      CODE     ---       #355
      01007476H   LINE      CODE     ---       #356
      0100747BH   LINE      CODE     ---       #357
      01007480H   LINE      CODE     ---       #358
      01007485H   LINE      CODE     ---       #359
      ---         BLOCKEND  ---      ---       LVL=0

      01008447H   BLOCK     CODE     ---       LVL=0
      02000014H   SYMBOL    XDATA    BYTE      index
      0100844CH   BLOCK     CODE     NEAR LAB  LVL=1
      00000007H   SYMBOL    DATA     BYTE      i
      ---         BLOCKEND  ---      ---       LVL=1
      01008447H   LINE      CODE     ---       #362
      0100844CH   LINE      CODE     ---       #363
      0100844CH   LINE      CODE     ---       #365
      0100844EH   LINE      CODE     ---       #366
      01008459H   LINE      CODE     ---       #367
      ---         BLOCKEND  ---      ---       LVL=0

      0100164CH   BLOCK     CODE     ---       LVL=0
      02000011H   SYMBOL    XDATA    BYTE      from
      02000012H   SYMBOL    XDATA    BYTE      to
      02000013H   SYMBOL    XDATA    BYTE      ev
      0100164CH   LINE      CODE     ---       #370
      01001658H   LINE      CODE     ---       #371
      01001658H   LINE      CODE     ---       #372
      0100166CH   LINE      CODE     ---       #374
      01001676H   LINE      CODE     ---       #375
      0100167DH   LINE      CODE     ---       #377
      0100167DH   LINE      CODE     ---       #380
      0100169DH   LINE      CODE     ---       #382
      0100169DH   LINE      CODE     ---       #383
      010016A0H   LINE      CODE     ---       #384
      010016A6H   LINE      CODE     ---       #385
      010016ABH   LINE      CODE     ---       #387
      010016ABH   LINE      CODE     ---       #390
      010016B7H   LINE      CODE     ---       #391
      010016B9H   LINE      CODE     ---       #392
      010016BCH   LINE      CODE     ---       #394
      010016BCH   LINE      CODE     ---       #396
      010016C8H   LINE      CODE     ---       #397
LX51 LINKER/LOCATER V4.66.87.0                                                        04/18/2018  10:36:57  PAGE 198


      010016CDH   LINE      CODE     ---       #398
      010016CFH   LINE      CODE     ---       #399
      010016D2H   LINE      CODE     ---       #400
      010016D2H   LINE      CODE     ---       #401
      010016D2H   LINE      CODE     ---       #402
      010016DCH   LINE      CODE     ---       #404
      010016DCH   LINE      CODE     ---       #406
      010016E8H   LINE      CODE     ---       #407
      010016EAH   LINE      CODE     ---       #408
      010016EDH   LINE      CODE     ---       #410
      010016EDH   LINE      CODE     ---       #413
      010016F9H   LINE      CODE     ---       #414
      010016FDH   LINE      CODE     ---       #416
      010016FDH   LINE      CODE     ---       #418
      01001709H   LINE      CODE     ---       #419
      0100170BH   LINE      CODE     ---       #420
      0100170DH   LINE      CODE     ---       #422
      0100170DH   LINE      CODE     ---       #424
      01001719H   LINE      CODE     ---       #425
      0100171EH   LINE      CODE     ---       #426
      01001720H   LINE      CODE     ---       #427
      01001723H   LINE      CODE     ---       #428
      01001723H   LINE      CODE     ---       #429
      01001723H   LINE      CODE     ---       #430
      0100172DH   LINE      CODE     ---       #432
      0100172DH   LINE      CODE     ---       #434
      01001739H   LINE      CODE     ---       #435
      0100173BH   LINE      CODE     ---       #436
      0100173EH   LINE      CODE     ---       #438
      0100173EH   LINE      CODE     ---       #441
      0100174AH   LINE      CODE     ---       #442
      0100174FH   LINE      CODE     ---       #444
      0100174FH   LINE      CODE     ---       #446
      0100175BH   LINE      CODE     ---       #447
      01001760H   LINE      CODE     ---       #448
      01001763H   LINE      CODE     ---       #450
      01001763H   LINE      CODE     ---       #452
      0100176FH   LINE      CODE     ---       #453
      01001774H   LINE      CODE     ---       #454
      01001779H   LINE      CODE     ---       #455
      0100177CH   LINE      CODE     ---       #456
      0100177CH   LINE      CODE     ---       #457
      0100177CH   LINE      CODE     ---       #458
      01001786H   LINE      CODE     ---       #460
      01001786H   LINE      CODE     ---       #462
      01001792H   LINE      CODE     ---       #463
      01001794H   LINE      CODE     ---       #464
      01001797H   LINE      CODE     ---       #466
      01001797H   LINE      CODE     ---       #469
      010017A3H   LINE      CODE     ---       #470
      010017A8H   LINE      CODE     ---       #472
      010017A8H   LINE      CODE     ---       #474
      010017B4H   LINE      CODE     ---       #475
      010017B6H   LINE      CODE     ---       #476
      010017B9H   LINE      CODE     ---       #478
      010017B9H   LINE      CODE     ---       #480
      010017C5H   LINE      CODE     ---       #481
      010017CAH   LINE      CODE     ---       #482
      010017CBH   LINE      CODE     ---       #483
      010017CEH   LINE      CODE     ---       #484
      010017CEH   LINE      CODE     ---       #485
      010017CEH   LINE      CODE     ---       #486
      010017D8H   LINE      CODE     ---       #488
      010017D8H   LINE      CODE     ---       #490
      010017E4H   LINE      CODE     ---       #491
LX51 LINKER/LOCATER V4.66.87.0                                                        04/18/2018  10:36:57  PAGE 199


      010017E6H   LINE      CODE     ---       #492
      010017E9H   LINE      CODE     ---       #494
      010017E9H   LINE      CODE     ---       #497
      010017F5H   LINE      CODE     ---       #498
      010017F9H   LINE      CODE     ---       #500
      010017F9H   LINE      CODE     ---       #502
      01001805H   LINE      CODE     ---       #503
      01001807H   LINE      CODE     ---       #504
      01001809H   LINE      CODE     ---       #506
      01001809H   LINE      CODE     ---       #508
      01001815H   LINE      CODE     ---       #509
      0100181AH   LINE      CODE     ---       #510
      0100181CH   LINE      CODE     ---       #511
      0100181FH   LINE      CODE     ---       #512
      0100181FH   LINE      CODE     ---       #513
      0100181FH   LINE      CODE     ---       #514
      01001829H   LINE      CODE     ---       #516
      01001829H   LINE      CODE     ---       #518
      01001835H   LINE      CODE     ---       #519
      01001837H   LINE      CODE     ---       #520
      0100183AH   LINE      CODE     ---       #522
      0100183AH   LINE      CODE     ---       #525
      01001846H   LINE      CODE     ---       #526
      0100184BH   LINE      CODE     ---       #528
      0100184BH   LINE      CODE     ---       #530
      01001857H   LINE      CODE     ---       #531
      0100185CH   LINE      CODE     ---       #532
      0100185FH   LINE      CODE     ---       #534
      0100185FH   LINE      CODE     ---       #536
      0100186BH   LINE      CODE     ---       #537
      01001870H   LINE      CODE     ---       #538
      01001875H   LINE      CODE     ---       #539
      01001878H   LINE      CODE     ---       #540
      01001878H   LINE      CODE     ---       #541
      01001878H   LINE      CODE     ---       #542
      01001882H   LINE      CODE     ---       #544
      01001882H   LINE      CODE     ---       #546
      0100188EH   LINE      CODE     ---       #547
      01001890H   LINE      CODE     ---       #548
      01001893H   LINE      CODE     ---       #550
      01001893H   LINE      CODE     ---       #553
      0100189FH   LINE      CODE     ---       #554
      010018A3H   LINE      CODE     ---       #556
      010018A3H   LINE      CODE     ---       #558
      010018AFH   LINE      CODE     ---       #559
      010018B4H   LINE      CODE     ---       #560
      010018B8H   LINE      CODE     ---       #562
      010018B8H   LINE      CODE     ---       #565
      010018C4H   LINE      CODE     ---       #566
      010018C9H   LINE      CODE     ---       #568
      010018C9H   LINE      CODE     ---       #570
      010018D5H   LINE      CODE     ---       #571
      010018DAH   LINE      CODE     ---       #572
      010018DFH   LINE      CODE     ---       #574
      010018DFH   LINE      CODE     ---       #577
      010018EBH   LINE      CODE     ---       #578
      010018EFH   LINE      CODE     ---       #580
      010018EFH   LINE      CODE     ---       #582
      010018FBH   LINE      CODE     ---       #583
      01001900H   LINE      CODE     ---       #584
      01001904H   LINE      CODE     ---       #586
      01001904H   LINE      CODE     ---       #587
      01001911H   LINE      CODE     ---       #588
      01001916H   LINE      CODE     ---       #589
      0100191BH   LINE      CODE     ---       #590
LX51 LINKER/LOCATER V4.66.87.0                                                        04/18/2018  10:36:57  PAGE 200


      01001920H   LINE      CODE     ---       #591
      01001920H   LINE      CODE     ---       #592
      01001920H   LINE      CODE     ---       #593
      0100192AH   LINE      CODE     ---       #595
      0100192AH   LINE      CODE     ---       #597
      01001936H   LINE      CODE     ---       #598
      01001938H   LINE      CODE     ---       #599
      0100193BH   LINE      CODE     ---       #601
      0100193BH   LINE      CODE     ---       #604
      01001947H   LINE      CODE     ---       #605
      0100194CH   LINE      CODE     ---       #607
      0100194CH   LINE      CODE     ---       #609
      01001958H   LINE      CODE     ---       #610
      0100195DH   LINE      CODE     ---       #611
      01001962H   LINE      CODE     ---       #613
      01001962H   LINE      CODE     ---       #614
      0100196FH   LINE      CODE     ---       #615
      01001974H   LINE      CODE     ---       #616
      01001979H   LINE      CODE     ---       #617
      0100197EH   LINE      CODE     ---       #618
      0100197EH   LINE      CODE     ---       #619
      0100197EH   LINE      CODE     ---       #620
      01001988H   LINE      CODE     ---       #622
      01001988H   LINE      CODE     ---       #624
      01001994H   LINE      CODE     ---       #625
      01001996H   LINE      CODE     ---       #626
      01001998H   LINE      CODE     ---       #628
      01001998H   LINE      CODE     ---       #631
      010019A5H   LINE      CODE     ---       #632
      010019AFH   LINE      CODE     ---       #633
      010019B8H   LINE      CODE     ---       #634
      010019BBH   LINE      CODE     ---       #635
      010019BDH   LINE      CODE     ---       #636
      010019C4H   LINE      CODE     ---       #638
      010019C4H   LINE      CODE     ---       #639
      010019C4H   LINE      CODE     ---       #640
      010019CAH   LINE      CODE     ---       #642
      010019CAH   LINE      CODE     ---       #644
      010019D6H   LINE      CODE     ---       #645
      010019DCH   LINE      CODE     ---       #646
      010019E2H   LINE      CODE     ---       #648
      010019E2H   LINE      CODE     ---       #649
      010019EFH   LINE      CODE     ---       #650
      010019F4H   LINE      CODE     ---       #651
      010019FAH   LINE      CODE     ---       #652
      01001A00H   LINE      CODE     ---       #653
      01001A00H   LINE      CODE     ---       #654
      01001A00H   LINE      CODE     ---       #655
      01001A07H   LINE      CODE     ---       #657
      01001A07H   LINE      CODE     ---       #659
      01001A13H   LINE      CODE     ---       #660
      01001A19H   LINE      CODE     ---       #661
      01001A1EH   LINE      CODE     ---       #663
      01001A1EH   LINE      CODE     ---       #664
      ---         BLOCKEND  ---      ---       LVL=0

      ---         MODULE    ---      ---       SM_FUSE_TIMER
      0100BE5AH   PUBLIC    CONST    ---       sm_fuse_timer_ss_name
      01001A2DH   PUBLIC    CODE     ---       _sm_fuse_timer
      010070DBH   SYMBOL    CODE     ---       _display_timer
      01006B18H   SYMBOL    CODE     ---       _display_prearm_step
      01008C39H   SYMBOL    CODE     ---       inc_password
      01002C68H   SYMBOL    CODE     ---       _check_and_set_timer_param
      01008D42H   SYMBOL    CODE     ---       rollback_param
      010079E4H   SYMBOL    CODE     ---       display_password
LX51 LINKER/LOCATER V4.66.87.0                                                        04/18/2018  10:36:57  PAGE 201


      01008B7FH   SYMBOL    CODE     ---       stop_peripheral
      01005C6AH   SYMBOL    CODE     ---       verify_password
      010064BDH   SYMBOL    CODE     ---       _display_param_error

      01008029H   BLOCK     CODE     ---       LVL=0
      ---         BLOCKEND  ---      ---       LVL=0

      010064BDH   BLOCK     CODE     ---       LVL=0
      02000018H   SYMBOL    XDATA    WORD      err
      010064BDH   LINE      CODE     ---       #31
      010064C5H   LINE      CODE     ---       #32
      010064C5H   LINE      CODE     ---       #33
      010064C8H   LINE      CODE     ---       #34
      010064CFH   LINE      CODE     ---       #35
      010064D6H   LINE      CODE     ---       #36
      010064DBH   LINE      CODE     ---       #37
      010064E9H   LINE      CODE     ---       #38
      0100650EH   LINE      CODE     ---       #39
      ---         BLOCKEND  ---      ---       LVL=0

      010070DBH   BLOCK     CODE     ---       LVL=0
      02000014H   SYMBOL    XDATA    BYTE      state
      010070DBH   LINE      CODE     ---       #62
      010070E0H   LINE      CODE     ---       #63
      010070E0H   LINE      CODE     ---       #64
      010070E3H   LINE      CODE     ---       #65
      010070EAH   LINE      CODE     ---       #66
      010070F1H   LINE      CODE     ---       #67
      010070F8H   LINE      CODE     ---       #68
      010070FFH   LINE      CODE     ---       #69
      01007109H   LINE      CODE     ---       #70
      01007109H   LINE      CODE     ---       #71
      0100710BH   LINE      CODE     ---       #72
      0100710BH   LINE      CODE     ---       #73
      0100710DH   LINE      CODE     ---       #74
      0100710DH   LINE      CODE     ---       #75
      01007114H   LINE      CODE     ---       #76
      01007119H   LINE      CODE     ---       #77
      01007119H   LINE      CODE     ---       #78
      01007119H   LINE      CODE     ---       #79
      ---         BLOCKEND  ---      ---       LVL=0

      01008B7FH   BLOCK     CODE     ---       LVL=0
      01008B7FH   LINE      CODE     ---       #81
      01008B7FH   LINE      CODE     ---       #82
      01008B7FH   LINE      CODE     ---       #83
      01008B84H   LINE      CODE     ---       #84
      01008B89H   LINE      CODE     ---       #85
      ---         BLOCKEND  ---      ---       LVL=0

      01008D42H   BLOCK     CODE     ---       LVL=0
      01008D42H   LINE      CODE     ---       #88
      01008D42H   LINE      CODE     ---       #89
      01008D42H   LINE      CODE     ---       #90
      01008D47H   LINE      CODE     ---       #91
      01008D4AH   LINE      CODE     ---       #92
      ---         BLOCKEND  ---      ---       LVL=0

      01006B18H   BLOCK     CODE     ---       LVL=0
      02000018H   SYMBOL    XDATA    BYTE      step
      01006B18H   LINE      CODE     ---       #95
      01006B1DH   LINE      CODE     ---       #96
      01006B1DH   LINE      CODE     ---       #97
      01006B20H   LINE      CODE     ---       #98
      01006B27H   LINE      CODE     ---       #99
LX51 LINKER/LOCATER V4.66.87.0                                                        04/18/2018  10:36:57  PAGE 202


      01006B2EH   LINE      CODE     ---       #100
      01006B35H   LINE      CODE     ---       #101
      01006B39H   LINE      CODE     ---       #103
      01006B42H   LINE      CODE     ---       #104
      01006B4EH   LINE      CODE     ---       #105
      ---         BLOCKEND  ---      ---       LVL=0

      01002C68H   BLOCK     CODE     ---       LVL=0
      02000014H   SYMBOL    XDATA    BYTE      step
      01002C6DH   BLOCK     CODE     NEAR LAB  LVL=1
      02000015H   SYMBOL    XDATA    BYTE      val
      02000016H   SYMBOL    XDATA    BYTE      thermo_hi
      02000017H   SYMBOL    XDATA    BYTE      thermo_lo
      01002DC3H   SYMBOL    CODE     VOID      err
      ---         BLOCKEND  ---      ---       LVL=1
      01002C68H   LINE      CODE     ---       #107
      01002C6DH   LINE      CODE     ---       #108
      01002C6DH   LINE      CODE     ---       #111
      01002C70H   LINE      CODE     ---       #112
      01002C7DH   LINE      CODE     ---       #114
      01002C9AH   LINE      CODE     ---       #115
      01002C9AH   LINE      CODE     ---       #117
      01002C9FH   LINE      CODE     ---       #118
      01002CA4H   LINE      CODE     ---       #119
      01002CA9H   LINE      CODE     ---       #120
      01002CABH   LINE      CODE     ---       #121
      01002CADH   LINE      CODE     ---       #122
      01002CB0H   LINE      CODE     ---       #123
      01002CB0H   LINE      CODE     ---       #124
      01002CB5H   LINE      CODE     ---       #125
      01002CB5H   LINE      CODE     ---       #126
      01002CB8H   LINE      CODE     ---       #127
      01002CB8H   LINE      CODE     ---       #129
      01002CBDH   LINE      CODE     ---       #130
      01002CC2H   LINE      CODE     ---       #131
      01002CC7H   LINE      CODE     ---       #132
      01002CC9H   LINE      CODE     ---       #133
      01002CCBH   LINE      CODE     ---       #134
      01002CCEH   LINE      CODE     ---       #135
      01002CCEH   LINE      CODE     ---       #136
      01002CD3H   LINE      CODE     ---       #137
      01002CD3H   LINE      CODE     ---       #138
      01002CD6H   LINE      CODE     ---       #139
      01002CD6H   LINE      CODE     ---       #140
      01002CE0H   LINE      CODE     ---       #141
      01002CEAH   LINE      CODE     ---       #142
      01002CF9H   LINE      CODE     ---       #143
      01002D01H   LINE      CODE     ---       #144
      01002D09H   LINE      CODE     ---       #145
      01002D0BH   LINE      CODE     ---       #146
      01002D0EH   LINE      CODE     ---       #147
      01002D0EH   LINE      CODE     ---       #148
      01002D1BH   LINE      CODE     ---       #149
      01002D1DH   LINE      CODE     ---       #150
      01002D20H   LINE      CODE     ---       #151
      01002D20H   LINE      CODE     ---       #153
      01002D2EH   LINE      CODE     ---       #154
      01002D33H   LINE      CODE     ---       #155
      01002D35H   LINE      CODE     ---       #156
      01002D38H   LINE      CODE     ---       #157
      01002D38H   LINE      CODE     ---       #158
      01002D38H   LINE      CODE     ---       #159
      01002D3DH   LINE      CODE     ---       #160
      01002D44H   LINE      CODE     ---       #161
      01002D4EH   LINE      CODE     ---       #162
LX51 LINKER/LOCATER V4.66.87.0                                                        04/18/2018  10:36:57  PAGE 203


      01002D50H   LINE      CODE     ---       #163
      01002D52H   LINE      CODE     ---       #164
      01002D54H   LINE      CODE     ---       #165
      01002D54H   LINE      CODE     ---       #166
      01002D59H   LINE      CODE     ---       #167
      01002D59H   LINE      CODE     ---       #169
      01002D60H   LINE      CODE     ---       #170
      01002D6AH   LINE      CODE     ---       #171
      01002D6CH   LINE      CODE     ---       #172
      01002D6EH   LINE      CODE     ---       #173
      01002D70H   LINE      CODE     ---       #174
      01002D70H   LINE      CODE     ---       #175
      01002D75H   LINE      CODE     ---       #176
      01002D75H   LINE      CODE     ---       #177
      01002D75H   LINE      CODE     ---       #178
      01002D77H   LINE      CODE     ---       #179
      01002D77H   LINE      CODE     ---       #181
      01002D7AH   LINE      CODE     ---       #182
      01002D7DH   LINE      CODE     ---       #183
      01002D84H   LINE      CODE     ---       #184
      01002D86H   LINE      CODE     ---       #185
      01002D88H   LINE      CODE     ---       #186
      01002D88H   LINE      CODE     ---       #187
      01002D8BH   LINE      CODE     ---       #188
      01002D8BH   LINE      CODE     ---       #189
      01002D8DH   LINE      CODE     ---       #190
      01002D8DH   LINE      CODE     ---       #191
      01002DA5H   LINE      CODE     ---       #193
      01002DA5H   LINE      CODE     ---       #194
      01002DAAH   LINE      CODE     ---       #195
      01002DB4H   LINE      CODE     ---       #196
      01002DB6H   LINE      CODE     ---       #197
      01002DB8H   LINE      CODE     ---       #198
      01002DB8H   LINE      CODE     ---       #199
      01002DBFH   LINE      CODE     ---       #200
      01002DC1H   LINE      CODE     ---       #201
      01002DC1H   LINE      CODE     ---       #202
      01002DC1H   LINE      CODE     ---       #203
      01002DC1H   LINE      CODE     ---       #204
      01002DC1H   LINE      CODE     ---       #205
      01002DC1H   LINE      CODE     ---       #206
      01002DC1H   LINE      CODE     ---       #207
      01002DC1H   LINE      CODE     ---       #209
      01002DC3H   LINE      CODE     ---       #210
      01002DC3H   LINE      CODE     ---       #211
      01002DC4H   LINE      CODE     ---       #212
      ---         BLOCKEND  ---      ---       LVL=0

      01005C6AH   BLOCK     CODE     ---       LVL=0
      01005C6AH   BLOCK     CODE     NEAR LAB  LVL=1
      02000014H   SYMBOL    XDATA    BYTE      res
      ---         BLOCKEND  ---      ---       LVL=1
      01005C6AH   LINE      CODE     ---       #214
      01005C6AH   LINE      CODE     ---       #215
      01005C6AH   LINE      CODE     ---       #218
      01005C7AH   LINE      CODE     ---       #220
      01005C96H   LINE      CODE     ---       #222
      01005C9EH   LINE      CODE     ---       #223
      01005CAEH   LINE      CODE     ---       #224
      01005CC3H   LINE      CODE     ---       #225
      01005CC5H   LINE      CODE     ---       #226
      01005CE2H   LINE      CODE     ---       #227
      01005CE2H   LINE      CODE     ---       #229
      ---         BLOCKEND  ---      ---       LVL=0

LX51 LINKER/LOCATER V4.66.87.0                                                        04/18/2018  10:36:57  PAGE 204


      010079E4H   BLOCK     CODE     ---       LVL=0
      010079E4H   BLOCK     CODE     NEAR LAB  LVL=1
      00000004H   SYMBOL    DATA     BYTE      i
      ---         BLOCKEND  ---      ---       LVL=1
      010079E4H   LINE      CODE     ---       #231
      010079E4H   LINE      CODE     ---       #232
      010079E4H   LINE      CODE     ---       #234
      010079E7H   LINE      CODE     ---       #235
      010079E9H   LINE      CODE     ---       #236
      010079F3H   LINE      CODE     ---       #237
      010079F7H   LINE      CODE     ---       #238
      010079FDH   LINE      CODE     ---       #239
      01007A05H   LINE      CODE     ---       #240
      01007A07H   LINE      CODE     ---       #241
      01007A0EH   LINE      CODE     ---       #242
      01007A0EH   LINE      CODE     ---       #243
      01007A13H   LINE      CODE     ---       #244
      ---         BLOCKEND  ---      ---       LVL=0

      01008C39H   BLOCK     CODE     ---       LVL=0
      01008C39H   LINE      CODE     ---       #246
      01008C39H   LINE      CODE     ---       #247
      01008C39H   LINE      CODE     ---       #248
      01008C46H   LINE      CODE     ---       #249
      ---         BLOCKEND  ---      ---       LVL=0

      01001A2DH   BLOCK     CODE     ---       LVL=0
      02000011H   SYMBOL    XDATA    BYTE      from
      02000012H   SYMBOL    XDATA    BYTE      to
      02000013H   SYMBOL    XDATA    BYTE      ev
      01001A2DH   LINE      CODE     ---       #251
      01001A39H   LINE      CODE     ---       #252
      01001A39H   LINE      CODE     ---       #253
      01001A4DH   LINE      CODE     ---       #256
      01001A52H   LINE      CODE     ---       #257
      01001A59H   LINE      CODE     ---       #258
      01001A5FH   LINE      CODE     ---       #260
      01001A5FH   LINE      CODE     ---       #263
      01001A71H   LINE      CODE     ---       #264
      01001A71H   LINE      CODE     ---       #265
      01001A79H   LINE      CODE     ---       #267
      01001A79H   LINE      CODE     ---       #270
      01001A8EH   LINE      CODE     ---       #271
      01001A8EH   LINE      CODE     ---       #272
      01001AA2H   LINE      CODE     ---       #273
      01001AA7H   LINE      CODE     ---       #274
      01001AA7H   LINE      CODE     ---       #275
      01001AA7H   LINE      CODE     ---       #276
      01001AA7H   LINE      CODE     ---       #277
      01001AA9H   LINE      CODE     ---       #278
      01001AAFH   LINE      CODE     ---       #279
      01001AB8H   LINE      CODE     ---       #280
      01001ABDH   LINE      CODE     ---       #281
      01001ABDH   LINE      CODE     ---       #282
      01001ABDH   LINE      CODE     ---       #283
      01001AC0H   LINE      CODE     ---       #285
      01001AC0H   LINE      CODE     ---       #288
      01001AFAH   LINE      CODE     ---       #294
      01001AFAH   LINE      CODE     ---       #295
      01001AFDH   LINE      CODE     ---       #296
      01001B03H   LINE      CODE     ---       #297
      01001B06H   LINE      CODE     ---       #299
      01001B06H   LINE      CODE     ---       #302
      01001B1AH   LINE      CODE     ---       #303
      01001B1AH   LINE      CODE     ---       #304
LX51 LINKER/LOCATER V4.66.87.0                                                        04/18/2018  10:36:57  PAGE 205


      01001B1FH   LINE      CODE     ---       #305
      01001B24H   LINE      CODE     ---       #306
      01001B28H   LINE      CODE     ---       #307
      01001B2CH   LINE      CODE     ---       #308
      01001B2EH   LINE      CODE     ---       #310
      01001B2EH   LINE      CODE     ---       #313
      01001B3AH   LINE      CODE     ---       #314
      01001B3DH   LINE      CODE     ---       #315
      01001B3FH   LINE      CODE     ---       #317
      01001B3FH   LINE      CODE     ---       #319
      01001B4BH   LINE      CODE     ---       #320
      01001B4DH   LINE      CODE     ---       #322
      01001B4DH   LINE      CODE     ---       #325
      01001B61H   LINE      CODE     ---       #327
      01001B61H   LINE      CODE     ---       #328
      01001B67H   LINE      CODE     ---       #329
      01001B6CH   LINE      CODE     ---       #330
      01001B73H   LINE      CODE     ---       #331
      01001B78H   LINE      CODE     ---       #332
      01001B7BH   LINE      CODE     ---       #333
      01001B7DH   LINE      CODE     ---       #335
      01001B7DH   LINE      CODE     ---       #338
      01001B97H   LINE      CODE     ---       #340
      01001B97H   LINE      CODE     ---       #341
      01001B9CH   LINE      CODE     ---       #342
      01001B9FH   LINE      CODE     ---       #344
      01001B9FH   LINE      CODE     ---       #347
      01001BB8H   LINE      CODE     ---       #349
      01001BB8H   LINE      CODE     ---       #350
      01001BBBH   LINE      CODE     ---       #351
      01001BC4H   LINE      CODE     ---       #352
      01001BC7H   LINE      CODE     ---       #353
      01001BCCH   LINE      CODE     ---       #354
      01001BD2H   LINE      CODE     ---       #355
      01001BD5H   LINE      CODE     ---       #356
      01001BD5H   LINE      CODE     ---       #360
      01001BD8H   LINE      CODE     ---       #361
      01001BE2H   LINE      CODE     ---       #362
      01001BEBH   LINE      CODE     ---       #363
      01001BEBH   LINE      CODE     ---       #364
      01001BF8H   LINE      CODE     ---       #365
      01001C01H   LINE      CODE     ---       #366
      01001C06H   LINE      CODE     ---       #367
      01001C08H   LINE      CODE     ---       #368
      01001C0FH   LINE      CODE     ---       #369
      01001C1FH   LINE      CODE     ---       #370
      01001C28H   LINE      CODE     ---       #371
      01001C28H   LINE      CODE     ---       #372
      01001C29H   LINE      CODE     ---       #374
      01001C29H   LINE      CODE     ---       #377
      01001C3EH   LINE      CODE     ---       #379
      01001C3EH   LINE      CODE     ---       #380
      01001C41H   LINE      CODE     ---       #381
      01001C44H   LINE      CODE     ---       #382
      01001C47H   LINE      CODE     ---       #383
      01001C47H   LINE      CODE     ---       #386
      01001C5BH   LINE      CODE     ---       #387
      01001C5BH   LINE      CODE     ---       #388
      01001C5EH   LINE      CODE     ---       #390
      01001C5EH   LINE      CODE     ---       #393
      01001C72H   LINE      CODE     ---       #394
      01001C72H   LINE      CODE     ---       #395
      01001C77H   LINE      CODE     ---       #396
      01001C7AH   LINE      CODE     ---       #397
      01001C7CH   LINE      CODE     ---       #399
LX51 LINKER/LOCATER V4.66.87.0                                                        04/18/2018  10:36:57  PAGE 206


      01001C7CH   LINE      CODE     ---       #402
      01001CCAH   LINE      CODE     ---       #409
      01001CCAH   LINE      CODE     ---       #410
      01001CCFH   LINE      CODE     ---       #411
      01001CD2H   LINE      CODE     ---       #412
      01001CD5H   LINE      CODE     ---       #413
      01001CDBH   LINE      CODE     ---       #415
      01001CDBH   LINE      CODE     ---       #417
      ---         BLOCKEND  ---      ---       LVL=0

      ---         MODULE    ---      ---       SM_FUSE_GRENADE
      0100C790H   PUBLIC    CONST    ---       sm_fuse_grenade_ss_name
      010043CFH   PUBLIC    CODE     ---       _sm_fuse_grenade
      0100657AH   SYMBOL    CODE     ---       _display_grenade
      01006987H   SYMBOL    CODE     ---       grenade_check_set_param

      01008EB5H   BLOCK     CODE     ---       LVL=0
      ---         BLOCKEND  ---      ---       LVL=0

      01006987H   BLOCK     CODE     ---       LVL=0
      01006987H   BLOCK     CODE     NEAR LAB  LVL=1
      02000014H   SYMBOL    XDATA    BYTE      val
      ---         BLOCKEND  ---      ---       LVL=1
      01006987H   LINE      CODE     ---       #19
      01006987H   LINE      CODE     ---       #20
      01006987H   LINE      CODE     ---       #23
      01006991H   LINE      CODE     ---       #24
      01006993H   LINE      CODE     ---       #25
      01006995H   LINE      CODE     ---       #26
      01006997H   LINE      CODE     ---       #27
      01006997H   LINE      CODE     ---       #30
      010069A1H   LINE      CODE     ---       #31
      010069A3H   LINE      CODE     ---       #32
      010069AAH   LINE      CODE     ---       #33
      010069ACH   LINE      CODE     ---       #34
      010069ACH   LINE      CODE     ---       #36
      010069B1H   LINE      CODE     ---       #38
      010069C1H   LINE      CODE     ---       #40
      010069C1H   LINE      CODE     ---       #41
      010069C6H   LINE      CODE     ---       #42
      010069C8H   LINE      CODE     ---       #43
      010069CFH   LINE      CODE     ---       #44
      010069D4H   LINE      CODE     ---       #45
      010069D6H   LINE      CODE     ---       #46
      010069D6H   LINE      CODE     ---       #47
      010069D7H   LINE      CODE     ---       #48
      ---         BLOCKEND  ---      ---       LVL=0

      0100657AH   BLOCK     CODE     ---       LVL=0
      02000014H   SYMBOL    XDATA    BYTE      state
      0100657AH   LINE      CODE     ---       #59
      0100657FH   LINE      CODE     ---       #60
      0100657FH   LINE      CODE     ---       #61
      01006582H   LINE      CODE     ---       #62
      01006589H   LINE      CODE     ---       #63
      01006590H   LINE      CODE     ---       #64
      01006597H   LINE      CODE     ---       #65
      0100659EH   LINE      CODE     ---       #66
      010065AFH   LINE      CODE     ---       #67
      010065AFH   LINE      CODE     ---       #68
      010065B1H   LINE      CODE     ---       #69
      010065B4H   LINE      CODE     ---       #70
      010065B9H   LINE      CODE     ---       #71
      010065BDH   LINE      CODE     ---       #72
      010065BDH   LINE      CODE     ---       #73
LX51 LINKER/LOCATER V4.66.87.0                                                        04/18/2018  10:36:57  PAGE 207


      010065BDH   LINE      CODE     ---       #74
      010065BFH   LINE      CODE     ---       #75
      010065BFH   LINE      CODE     ---       #76
      010065C1H   LINE      CODE     ---       #77
      010065C1H   LINE      CODE     ---       #78
      010065C3H   LINE      CODE     ---       #79
      010065C3H   LINE      CODE     ---       #80
      010065C5H   LINE      CODE     ---       #81
      010065C5H   LINE      CODE     ---       #82
      010065C7H   LINE      CODE     ---       #83
      010065CAH   LINE      CODE     ---       #84
      010065CAH   LINE      CODE     ---       #85
      010065CAH   LINE      CODE     ---       #86
      ---         BLOCKEND  ---      ---       LVL=0

      010043CFH   BLOCK     CODE     ---       LVL=0
      02000011H   SYMBOL    XDATA    BYTE      from
      02000012H   SYMBOL    XDATA    BYTE      to
      02000013H   SYMBOL    XDATA    BYTE      ev
      010043CFH   LINE      CODE     ---       #88
      010043DBH   LINE      CODE     ---       #89
      010043DBH   LINE      CODE     ---       #90
      010043EFH   LINE      CODE     ---       #93
      010043F7H   LINE      CODE     ---       #94
      010043FEH   LINE      CODE     ---       #96
      010043FEH   LINE      CODE     ---       #99
      01004410H   LINE      CODE     ---       #100
      01004410H   LINE      CODE     ---       #101
      01004415H   LINE      CODE     ---       #102
      0100441DH   LINE      CODE     ---       #103
      0100441DH   LINE      CODE     ---       #104
      0100441FH   LINE      CODE     ---       #106
      0100441FH   LINE      CODE     ---       #109
      01004433H   LINE      CODE     ---       #110
      01004433H   LINE      CODE     ---       #112
      01004438H   LINE      CODE     ---       #113
      0100443DH   LINE      CODE     ---       #114
      01004442H   LINE      CODE     ---       #115
      01004444H   LINE      CODE     ---       #117
      01004444H   LINE      CODE     ---       #120
      01004458H   LINE      CODE     ---       #121
      01004458H   LINE      CODE     ---       #122
      0100445DH   LINE      CODE     ---       #124
      0100445DH   LINE      CODE     ---       #127
      01004471H   LINE      CODE     ---       #128
      01004471H   LINE      CODE     ---       #129
      01004476H   LINE      CODE     ---       #130
      01004478H   LINE      CODE     ---       #132
      01004478H   LINE      CODE     ---       #135
      0100448CH   LINE      CODE     ---       #136
      0100448CH   LINE      CODE     ---       #137
      01004491H   LINE      CODE     ---       #139
      01004496H   LINE      CODE     ---       #140
      0100449CH   LINE      CODE     ---       #142
      0100449CH   LINE      CODE     ---       #143
      ---         BLOCKEND  ---      ---       LVL=0

      ---         MODULE    ---      ---       SM_FUSE_DETONATE
      0100CC1EH   PUBLIC    CONST    ---       sm_fuse_detonate_ss_name
      01005901H   PUBLIC    CODE     ---       _sm_fuse_detonate
      01008674H   SYMBOL    CODE     ---       display_detonate

      01008674H   BLOCK     CODE     ---       LVL=0
      01008674H   BLOCK     CODE     NEAR LAB  LVL=1
      00000004H   SYMBOL    DATA     BYTE      i
LX51 LINKER/LOCATER V4.66.87.0                                                        04/18/2018  10:36:57  PAGE 208


      ---         BLOCKEND  ---      ---       LVL=1
      01008674H   LINE      CODE     ---       #17
      01008674H   LINE      CODE     ---       #18
      01008674H   LINE      CODE     ---       #20
      01008677H   LINE      CODE     ---       #21
      01008679H   LINE      CODE     ---       #22
      01008680H   LINE      CODE     ---       #23
      01008685H   LINE      CODE     ---       #24
      0100868AH   LINE      CODE     ---       #25
      ---         BLOCKEND  ---      ---       LVL=0

      01005901H   BLOCK     CODE     ---       LVL=0
      00000007H   SYMBOL    DATA     BYTE      from
      02000011H   SYMBOL    XDATA    BYTE      to
      02000012H   SYMBOL    XDATA    BYTE      ev
      01005901H   LINE      CODE     ---       #27
      0100590AH   LINE      CODE     ---       #28
      0100590AH   LINE      CODE     ---       #29
      0100591EH   LINE      CODE     ---       #32
      0100592CH   LINE      CODE     ---       #33
      0100592FH   LINE      CODE     ---       #34
      01005934H   LINE      CODE     ---       #35
      0100593AH   LINE      CODE     ---       #37
      0100593AH   LINE      CODE     ---       #40
      01005950H   LINE      CODE     ---       #41
      01005956H   LINE      CODE     ---       #42
      01005967H   LINE      CODE     ---       #43
      01005970H   LINE      CODE     ---       #44
      01005975H   LINE      CODE     ---       #45
      0100597AH   LINE      CODE     ---       #46
      01005980H   LINE      CODE     ---       #47
      01005980H   LINE      CODE     ---       #49
      01005980H   LINE      CODE     ---       #52
      ---         BLOCKEND  ---      ---       LVL=0

      ---         MODULE    ---      ---       SM_FUSE_POWERSAVE
      0100C988H   PUBLIC    CONST    ---       sm_fuse_powersave_ss_name
      01006D71H   PUBLIC    CODE     ---       _sm_fuse_powersave
      01008B8EH   SYMBOL    CODE     ---       stop_peripheral

      01008B8EH   BLOCK     CODE     ---       LVL=0
      01008B8EH   LINE      CODE     ---       #18
      01008B8EH   LINE      CODE     ---       #19
      01008B8EH   LINE      CODE     ---       #20
      01008B93H   LINE      CODE     ---       #21
      01008B98H   LINE      CODE     ---       #22
      ---         BLOCKEND  ---      ---       LVL=0

      01006D71H   BLOCK     CODE     ---       LVL=0
      00000007H   SYMBOL    DATA     BYTE      from
      02000011H   SYMBOL    XDATA    BYTE      to
      02000012H   SYMBOL    XDATA    BYTE      ev
      01006D71H   LINE      CODE     ---       #25
      01006D7AH   LINE      CODE     ---       #26
      01006D7AH   LINE      CODE     ---       #27
      01006D8EH   LINE      CODE     ---       #29
      01006D9CH   LINE      CODE     ---       #31
      01006D9FH   LINE      CODE     ---       #32
      01006DA2H   LINE      CODE     ---       #34
      01006DA2H   LINE      CODE     ---       #36
      01006DACH   LINE      CODE     ---       #37
      01006DAFH   LINE      CODE     ---       #38
      01006DB2H   LINE      CODE     ---       #39
      01006DB8H   LINE      CODE     ---       #40
      01006DB8H   LINE      CODE     ---       #41
LX51 LINKER/LOCATER V4.66.87.0                                                        04/18/2018  10:36:57  PAGE 209


      ---         BLOCKEND  ---      ---       LVL=0

      ---         MODULE    ---      ---       CMD_HELP
      0100683FH   PUBLIC    CODE     ---       _cmd_help

      01008888H   BLOCK     CODE     ---       LVL=0
      ---         BLOCKEND  ---      ---       LVL=0

      0100683FH   BLOCK     CODE     ---       LVL=0
      02000008H   SYMBOL    XDATA    CHAR      arg1
      02000009H   SYMBOL    XDATA    CHAR      arg2
      01006844H   BLOCK     CODE     NEAR LAB  LVL=1
      00000007H   SYMBOL    DATA     CHAR      i
      ---         BLOCKEND  ---      ---       LVL=1
      0100683FH   LINE      CODE     ---       #6
      01006844H   LINE      CODE     ---       #7
      01006844H   LINE      CODE     ---       #10
      01006844H   LINE      CODE     ---       #12
      01006846H   LINE      CODE     ---       #13
      01006849H   LINE      CODE     ---       #14
      0100684BH   LINE      CODE     ---       #15
      01006851H   LINE      CODE     ---       #16
      01006855H   LINE      CODE     ---       #17
      0100687CH   LINE      CODE     ---       #18
      0100687EH   LINE      CODE     ---       #19
      01006890H   LINE      CODE     ---       #20
      01006890H   LINE      CODE     ---       #21
      01006890H   LINE      CODE     ---       #22
      01006892H   LINE      CODE     ---       #23
      ---         BLOCKEND  ---      ---       LVL=0

      ---         MODULE    ---      ---       CMD_SERIAL
      01004F4EH   PUBLIC    CODE     ---       _cmd_serial

      01008D4DH   BLOCK     CODE     ---       LVL=0
      ---         BLOCKEND  ---      ---       LVL=0

      01004F4EH   BLOCK     CODE     ---       LVL=0
      02000008H   SYMBOL    XDATA    CHAR      arg1
      02000009H   SYMBOL    XDATA    CHAR      arg2
      01004F58H   BLOCK     CODE     NEAR LAB  LVL=1
      0200000AH   SYMBOL    XDATA    CHAR      index
      0200000BH   SYMBOL    XDATA    CHAR      val
      ---         BLOCKEND  ---      ---       LVL=1
      01004F4EH   LINE      CODE     ---       #8
      01004F58H   LINE      CODE     ---       #9
      01004F58H   LINE      CODE     ---       #12
      01004F5AH   LINE      CODE     ---       #13
      01004F5DH   LINE      CODE     ---       #14
      01004F5FH   LINE      CODE     ---       #15
      01004F6AH   LINE      CODE     ---       #16
      01004F70H   LINE      CODE     ---       #17
      01004F8BH   LINE      CODE     ---       #18
      01004F8DH   LINE      CODE     ---       #19
      01004FA0H   LINE      CODE     ---       #20
      01004FCCH   LINE      CODE     ---       #21
      01004FDAH   LINE      CODE     ---       #22
      01004FDDH   LINE      CODE     ---       #23
      01004FDDH   LINE      CODE     ---       #24
      01004FDDH   LINE      CODE     ---       #25
      01004FDFH   LINE      CODE     ---       #26
      ---         BLOCKEND  ---      ---       LVL=0

      ---         MODULE    ---      ---       CMD_INT
      01007494H   PUBLIC    CODE     ---       _cmd_int
LX51 LINKER/LOCATER V4.66.87.0                                                        04/18/2018  10:36:57  PAGE 210



      01007494H   BLOCK     CODE     ---       LVL=0
      02000008H   SYMBOL    XDATA    CHAR      arg1
      02000009H   SYMBOL    XDATA    CHAR      arg2
      01007499H   BLOCK     CODE     NEAR LAB  LVL=1
      00000006H   SYMBOL    DATA     WORD      status
      ---         BLOCKEND  ---      ---       LVL=1
      01007494H   LINE      CODE     ---       #7
      01007499H   LINE      CODE     ---       #8
      01007499H   LINE      CODE     ---       #11
      01007499H   LINE      CODE     ---       #13
      0100749BH   LINE      CODE     ---       #14
      0100749EH   LINE      CODE     ---       #15
      010074BFH   LINE      CODE     ---       #16
      010074C2H   LINE      CODE     ---       #17
      010074C5H   LINE      CODE     ---       #18
      010074C7H   LINE      CODE     ---       #19
      010074CAH   LINE      CODE     ---       #20
      010074CAH   LINE      CODE     ---       #22
      010074CCH   LINE      CODE     ---       #23
      ---         BLOCKEND  ---      ---       LVL=0

      ---         MODULE    ---      ---       CMD_I2C
      0100785BH   PUBLIC    CODE     ---       _cmd_i2c
      01004567H   SYMBOL    CODE     ---       _i2c_write
      020000D5H   SYMBOL    XDATA    BYTE      write_addr
      010056EDH   SYMBOL    CODE     ---       _i2c_read

      010080F6H   BLOCK     CODE     ---       LVL=0
      ---         BLOCKEND  ---      ---       LVL=0

      010056EDH   BLOCK     CODE     ---       LVL=0
      00000007H   SYMBOL    DATA     CHAR      arg1
      0200000AH   SYMBOL    XDATA    CHAR      arg2
      010056F2H   BLOCK     CODE     NEAR LAB  LVL=1
      0200000BH   SYMBOL    XDATA    BYTE      addr
      0200000CH   SYMBOL    XDATA    BYTE      cmd
      0200000DH   SYMBOL    XDATA    BYTE      val
      00000020H.0 SYMBOL    BIT      BIT       ret
      ---         BLOCKEND  ---      ---       LVL=1
      010056EDH   LINE      CODE     ---       #10
      010056F2H   LINE      CODE     ---       #11
      010056F2H   LINE      CODE     ---       #15
      010056F8H   LINE      CODE     ---       #16
      010056FBH   LINE      CODE     ---       #18
      01005707H   LINE      CODE     ---       #19
      01005715H   LINE      CODE     ---       #21
      01005724H   LINE      CODE     ---       #22
      01005727H   LINE      CODE     ---       #24
      0100572AH   LINE      CODE     ---       #25
      0100573DH   LINE      CODE     ---       #27
      01005773H   LINE      CODE     ---       #29
      01005775H   LINE      CODE     ---       #30
      ---         BLOCKEND  ---      ---       LVL=0

      01004567H   BLOCK     CODE     ---       LVL=0
      0200000AH   SYMBOL    XDATA    CHAR      arg1
      0200000BH   SYMBOL    XDATA    CHAR      arg2
      01004571H   BLOCK     CODE     NEAR LAB  LVL=1
      0200000CH   SYMBOL    XDATA    BYTE      addr
      0200000DH   SYMBOL    XDATA    BYTE      cmd
      0200000EH   SYMBOL    XDATA    BYTE      val
      00000020H.0 SYMBOL    BIT      BIT       ret
      ---         BLOCKEND  ---      ---       LVL=1
      01004567H   LINE      CODE     ---       #32
LX51 LINKER/LOCATER V4.66.87.0                                                        04/18/2018  10:36:57  PAGE 211


      01004571H   LINE      CODE     ---       #33
      01004571H   LINE      CODE     ---       #37
      01004573H   LINE      CODE     ---       #38
      01004576H   LINE      CODE     ---       #41
      0100457CH   LINE      CODE     ---       #42
      01004587H   LINE      CODE     ---       #43
      0100458CH   LINE      CODE     ---       #44
      0100458FH   LINE      CODE     ---       #45
      0100458FH   LINE      CODE     ---       #46
      010045A8H   LINE      CODE     ---       #47
      010045B0H   LINE      CODE     ---       #48
      010045B3H   LINE      CODE     ---       #49
      010045B3H   LINE      CODE     ---       #50
      010045B3H   LINE      CODE     ---       #53
      010045BEH   LINE      CODE     ---       #54
      010045CCH   LINE      CODE     ---       #56
      010045DBH   LINE      CODE     ---       #57
      010045DEH   LINE      CODE     ---       #59
      010045E1H   LINE      CODE     ---       #60
      010045F3H   LINE      CODE     ---       #61
      01004629H   LINE      CODE     ---       #63
      0100462BH   LINE      CODE     ---       #64
      ---         BLOCKEND  ---      ---       LVL=0

      0100785BH   BLOCK     CODE     ---       LVL=0
      02000008H   SYMBOL    XDATA    CHAR      arg1
      02000009H   SYMBOL    XDATA    CHAR      arg2
      0100785BH   LINE      CODE     ---       #66
      01007863H   LINE      CODE     ---       #67
      01007863H   LINE      CODE     ---       #68
      0100786CH   LINE      CODE     ---       #69
      01007877H   LINE      CODE     ---       #70
      01007880H   LINE      CODE     ---       #71
      0100788BH   LINE      CODE     ---       #72
      0100788BH   LINE      CODE     ---       #73
      0100788DH   LINE      CODE     ---       #74
      ---         BLOCKEND  ---      ---       LVL=0

      ---         MODULE    ---      ---       CMD_DBG
      01006E47H   PUBLIC    CODE     ---       _cmd_dbg

      010085A4H   BLOCK     CODE     ---       LVL=0
      ---         BLOCKEND  ---      ---       LVL=0

      01006E47H   BLOCK     CODE     ---       LVL=0
      02000008H   SYMBOL    XDATA    CHAR      arg1
      02000009H   SYMBOL    XDATA    CHAR      arg2
      01006E47H   LINE      CODE     ---       #8
      01006E4CH   LINE      CODE     ---       #9
      01006E4CH   LINE      CODE     ---       #11
      01006E4CH   LINE      CODE     ---       #13
      01006E4EH   LINE      CODE     ---       #14
      01006E51H   LINE      CODE     ---       #16
      01006E5EH   LINE      CODE     ---       #17
      01006E67H   LINE      CODE     ---       #18
      01006E69H   LINE      CODE     ---       #19
      01006E78H   LINE      CODE     ---       #20
      01006E81H   LINE      CODE     ---       #21
      01006E86H   LINE      CODE     ---       #22
      01006E88H   LINE      CODE     ---       #23
      01006E8BH   LINE      CODE     ---       #24
      01006E8BH   LINE      CODE     ---       #26
      01006E8DH   LINE      CODE     ---       #27
      ---         BLOCKEND  ---      ---       LVL=0

LX51 LINKER/LOCATER V4.66.87.0                                                        04/18/2018  10:36:57  PAGE 212


      ---         MODULE    ---      ---       CMD_REBOOT
      01007211H   PUBLIC    CODE     ---       _cmd_reboot
      00000080H   SFRSYM    DATA     BYTE      P0
      00000090H   SFRSYM    DATA     BYTE      P1
      000000A0H   SFRSYM    DATA     BYTE      P2
      000000B0H   SFRSYM    DATA     BYTE      P3
      000000C0H   SFRSYM    DATA     BYTE      XICON
      000000B0H.4 SFRSYM    DATA     BIT       T0
      000000D0H.6 SFRSYM    DATA     BIT       AC
      000000E8H   SFRSYM    DATA     BYTE      P4
      000000B0H.5 SFRSYM    DATA     BIT       T1
      000000E6H   SFRSYM    DATA     BYTE      ISP_TRIG
      00000090H.0 SFRSYM    DATA     BIT       T2
      000000A8H.7 SFRSYM    DATA     BIT       EA
      000000A8H.6 SFRSYM    DATA     BIT       EC
      00000098H.7 SFRSYM    DATA     BIT       FE
      000000A8H   SFRSYM    DATA     BYTE      IE
      000000C8H.6 SFRSYM    DATA     BIT       EXF2
      000000B0H.7 SFRSYM    DATA     BIT       RD
      000000A8H.4 SFRSYM    DATA     BIT       ES
      000000B8H   SFRSYM    DATA     BYTE      IP
      00000098H.0 SFRSYM    DATA     BIT       RI
      000000B0H.2 SFRSYM    DATA     BIT       INT0
      000000D0H.7 SFRSYM    DATA     BIT       CY
      00000098H.1 SFRSYM    DATA     BIT       TI
      000000B0H.3 SFRSYM    DATA     BIT       INT1
      000000CBH   SFRSYM    DATA     BYTE      RCAP2H
      000000E5H   SFRSYM    DATA     BYTE      ISP_CMD
      000000B8H.4 SFRSYM    DATA     BIT       PS
      00000081H   SFRSYM    DATA     BYTE      SP
      00000090H.1 SFRSYM    DATA     BIT       T2EX
      000000D0H.2 SFRSYM    DATA     BIT       OV
      000000CAH   SFRSYM    DATA     BYTE      RCAP2L
      000000C8H.1 SFRSYM    DATA     BIT       C_T2
      000000B0H.6 SFRSYM    DATA     BIT       WR
      000000C8H.5 SFRSYM    DATA     BIT       RCLK
      000000C8H.4 SFRSYM    DATA     BIT       TCLK
      00000080H.0 SFRSYM    DATA     BIT       P00
      00000099H   SFRSYM    DATA     BYTE      SBUF
      00000087H   SFRSYM    DATA     BYTE      PCON
      00000090H.0 SFRSYM    DATA     BIT       P10
      00000080H.1 SFRSYM    DATA     BIT       P01
      000000A0H.0 SFRSYM    DATA     BIT       P20
      00000090H.1 SFRSYM    DATA     BIT       P11
      00000080H.2 SFRSYM    DATA     BIT       P02
      000000E3H   SFRSYM    DATA     BYTE      ISP_ADDRH
      000000B0H.0 SFRSYM    DATA     BIT       P30
      000000A0H.1 SFRSYM    DATA     BIT       P21
      00000090H.2 SFRSYM    DATA     BIT       P12
      00000080H.3 SFRSYM    DATA     BIT       P03
      00000098H   SFRSYM    DATA     BYTE      SCON
      000000B0H.1 SFRSYM    DATA     BIT       P31
      000000A0H.2 SFRSYM    DATA     BIT       P22
      00000090H.3 SFRSYM    DATA     BIT       P13
      00000080H.4 SFRSYM    DATA     BIT       P04
      000000E8H.0 SFRSYM    DATA     BIT       P40
      00000089H   SFRSYM    DATA     BYTE      TMOD
      00000088H   SFRSYM    DATA     BYTE      TCON
      000000B0H.2 SFRSYM    DATA     BIT       P32
      000000A0H.3 SFRSYM    DATA     BIT       P23
      00000090H.4 SFRSYM    DATA     BIT       P14
      00000080H.5 SFRSYM    DATA     BIT       P05
      000000E8H.1 SFRSYM    DATA     BIT       P41
      000000B0H.3 SFRSYM    DATA     BIT       P33
      000000A0H.4 SFRSYM    DATA     BIT       P24
LX51 LINKER/LOCATER V4.66.87.0                                                        04/18/2018  10:36:57  PAGE 213


      00000090H.5 SFRSYM    DATA     BIT       P15
      00000080H.6 SFRSYM    DATA     BIT       P06
      000000E4H   SFRSYM    DATA     BYTE      ISP_ADDRL
      000000E8H.2 SFRSYM    DATA     BIT       P42
      000000B0H.4 SFRSYM    DATA     BIT       P34
      000000A0H.5 SFRSYM    DATA     BIT       P25
      00000090H.6 SFRSYM    DATA     BIT       P16
      00000080H.7 SFRSYM    DATA     BIT       P07
      000000E8H.3 SFRSYM    DATA     BIT       P43
      000000B0H.5 SFRSYM    DATA     BIT       P35
      000000A0H.6 SFRSYM    DATA     BIT       P26
      00000090H.7 SFRSYM    DATA     BIT       P17
      000000E8H.4 SFRSYM    DATA     BIT       P44
      000000B0H.6 SFRSYM    DATA     BIT       P36
      000000A0H.7 SFRSYM    DATA     BIT       P27
      000000E8H.5 SFRSYM    DATA     BIT       P45
      000000B0H.7 SFRSYM    DATA     BIT       P37
      000000E8H.6 SFRSYM    DATA     BIT       P46
      00000088H.1 SFRSYM    DATA     BIT       IE0
      00000088H.3 SFRSYM    DATA     BIT       IE1
      0000008EH   SFRSYM    DATA     BYTE      AUXR
      000000F0H   SFRSYM    DATA     BYTE      B
      000000C8H.0 SFRSYM    DATA     BIT       CP_RL2
      000000E0H   SFRSYM    DATA     BYTE      ACC
      000000A8H.1 SFRSYM    DATA     BIT       ET0
      000000A8H.3 SFRSYM    DATA     BIT       ET1
      00000088H.5 SFRSYM    DATA     BIT       TF0
      000000A8H.5 SFRSYM    DATA     BIT       ET2
      00000088H.7 SFRSYM    DATA     BIT       TF1
      000000C8H.7 SFRSYM    DATA     BIT       TF2
      00000098H.2 SFRSYM    DATA     BIT       RB8
      0000008CH   SFRSYM    DATA     BYTE      TH0
      000000A8H.0 SFRSYM    DATA     BIT       EX0
      00000088H.0 SFRSYM    DATA     BIT       IT0
      0000008DH   SFRSYM    DATA     BYTE      TH1
      00000098H.3 SFRSYM    DATA     BIT       TB8
      000000A8H.2 SFRSYM    DATA     BIT       EX1
      00000088H.2 SFRSYM    DATA     BIT       IT1
      000000CDH   SFRSYM    DATA     BYTE      TH2
      000000D0H.0 SFRSYM    DATA     BIT       P
      00000098H.7 SFRSYM    DATA     BIT       SM0
      0000008AH   SFRSYM    DATA     BYTE      TL0
      00000098H.6 SFRSYM    DATA     BIT       SM1
      0000008BH   SFRSYM    DATA     BYTE      TL1
      00000098H.5 SFRSYM    DATA     BIT       SM2
      000000CCH   SFRSYM    DATA     BYTE      TL2
      000000B8H.1 SFRSYM    DATA     BIT       PT0
      000000B8H.3 SFRSYM    DATA     BIT       PT1
      000000D0H.3 SFRSYM    DATA     BIT       RS0
      000000E7H   SFRSYM    DATA     BYTE      ISP_CONTR
      000000B8H.5 SFRSYM    DATA     BIT       PT2
      00000088H.4 SFRSYM    DATA     BIT       TR0
      000000D0H.4 SFRSYM    DATA     BIT       RS1
      00000088H.6 SFRSYM    DATA     BIT       TR1
      000000C8H.2 SFRSYM    DATA     BIT       TR2
      000000B8H.0 SFRSYM    DATA     BIT       PX0
      000000E1H   SFRSYM    DATA     BYTE      WDT_CONTR
      000000B8H.2 SFRSYM    DATA     BIT       PX1
      00000083H   SFRSYM    DATA     BYTE      DPH
      00000082H   SFRSYM    DATA     BYTE      DPL
      000000B7H   SFRSYM    DATA     BYTE      IPH
      000000C8H.3 SFRSYM    DATA     BIT       EXEN2
      00000098H.4 SFRSYM    DATA     BIT       REN
      000000C9H   SFRSYM    DATA     BYTE      T2MOD
      000000C8H   SFRSYM    DATA     BYTE      T2CON
LX51 LINKER/LOCATER V4.66.87.0                                                        04/18/2018  10:36:57  PAGE 214


      000000E2H   SFRSYM    DATA     BYTE      ISP_DATA
      000000B9H   SFRSYM    DATA     BYTE      SADEN
      000000B0H.0 SFRSYM    DATA     BIT       RXD
      000000A9H   SFRSYM    DATA     BYTE      SADDR
      000000B0H.1 SFRSYM    DATA     BIT       TXD
      000000A2H   SFRSYM    DATA     BYTE      AUXR1
      000000D0H.5 SFRSYM    DATA     BIT       F0
      000000D0H   SFRSYM    DATA     BYTE      PSW

      01007211H   BLOCK     CODE     ---       LVL=0
      00000007H   SYMBOL    DATA     CHAR      arg1
      02000009H   SYMBOL    XDATA    CHAR      arg2
      01007211H   BLOCK     CODE     NEAR LAB  LVL=1
      02000008H   SYMBOL    XDATA    ---       fuck
      ---         BLOCKEND  ---      ---       LVL=1
      01007211H   LINE      CODE     ---       #9
      01007211H   LINE      CODE     ---       #10
      01007211H   LINE      CODE     ---       #13
      01007211H   LINE      CODE     ---       #15
      01007214H   LINE      CODE     ---       #20
      01007223H   LINE      CODE     ---       #21
      01007226H   LINE      CODE     ---       #23
      01007229H   LINE      CODE     ---       #24
      01007246H   LINE      CODE     ---       #29
      01007249H   LINE      CODE     ---       #30
      0100724BH   LINE      CODE     ---       #32
      0100724BH   LINE      CODE     ---       #33
      0100724DH   LINE      CODE     ---       #34
      ---         BLOCKEND  ---      ---       LVL=0

      ---         MODULE    ---      ---       CMD_TASK
      010046EBH   PUBLIC    CODE     ---       _cmd_task

      01008B9DH   BLOCK     CODE     ---       LVL=0
      ---         BLOCKEND  ---      ---       LVL=0

      010046EBH   BLOCK     CODE     ---       LVL=0
      02000008H   SYMBOL    XDATA    CHAR      arg1
      02000009H   SYMBOL    XDATA    CHAR      arg2
      010046F5H   BLOCK     CODE     NEAR LAB  LVL=1
      0200000AH   SYMBOL    XDATA    BYTE      tsk
      00000007H   SYMBOL    DATA     BYTE      val
      ---         BLOCKEND  ---      ---       LVL=1
      010046EBH   LINE      CODE     ---       #6
      010046F5H   LINE      CODE     ---       #7
      010046F5H   LINE      CODE     ---       #11
      010046F7H   LINE      CODE     ---       #12
      010046FAH   LINE      CODE     ---       #13
      010046FDH   LINE      CODE     ---       #14
      01004706H   LINE      CODE     ---       #15
      0100470EH   LINE      CODE     ---       #16
      01004711H   LINE      CODE     ---       #18
      0100471BH   LINE      CODE     ---       #19
      0100471EH   LINE      CODE     ---       #21
      01004721H   LINE      CODE     ---       #22
      01004752H   LINE      CODE     ---       #23
      01004754H   LINE      CODE     ---       #24
      0100478AH   LINE      CODE     ---       #25
      0100478AH   LINE      CODE     ---       #26
      0100478DH   LINE      CODE     ---       #27
      0100478DH   LINE      CODE     ---       #29
      0100478FH   LINE      CODE     ---       #30
      ---         BLOCKEND  ---      ---       LVL=0

      ---         MODULE    ---      ---       CMD_SM
LX51 LINKER/LOCATER V4.66.87.0                                                        04/18/2018  10:36:57  PAGE 215


      010035B9H   PUBLIC    CODE     ---       _cmd_sm

      010072C5H   BLOCK     CODE     ---       LVL=0
      ---         BLOCKEND  ---      ---       LVL=0

      010035B9H   BLOCK     CODE     ---       LVL=0
      02000008H   SYMBOL    XDATA    CHAR      arg1
      02000009H   SYMBOL    XDATA    CHAR      arg2
      010035B9H   LINE      CODE     ---       #8
      010035C3H   LINE      CODE     ---       #9
      010035C3H   LINE      CODE     ---       #10
      010035C5H   LINE      CODE     ---       #11
      010035C8H   LINE      CODE     ---       #12
      010035CBH   LINE      CODE     ---       #13
      010035D9H   LINE      CODE     ---       #14
      010035DCH   LINE      CODE     ---       #15
      010035F3H   LINE      CODE     ---       #16
      010035F6H   LINE      CODE     ---       #17
      0100360EH   LINE      CODE     ---       #18
      0100361CH   LINE      CODE     ---       #19
      01003629H   LINE      CODE     ---       #20
      01003629H   LINE      CODE     ---       #21
      01003640H   LINE      CODE     ---       #22
      01003643H   LINE      CODE     ---       #23
      0100365BH   LINE      CODE     ---       #24
      01003666H   LINE      CODE     ---       #25
      01003673H   LINE      CODE     ---       #26
      01003673H   LINE      CODE     ---       #27
      01003689H   LINE      CODE     ---       #28
      0100368CH   LINE      CODE     ---       #29
      010036A9H   LINE      CODE     ---       #30
      010036B4H   LINE      CODE     ---       #31
      010036C4H   LINE      CODE     ---       #32
      010036C4H   LINE      CODE     ---       #33
      010036C6H   LINE      CODE     ---       #34
      010036C9H   LINE      CODE     ---       #35
      010036C9H   LINE      CODE     ---       #36
      010036C9H   LINE      CODE     ---       #37
      010036CBH   LINE      CODE     ---       #38
      ---         BLOCKEND  ---      ---       LVL=0

      ---         MODULE    ---      ---       CMD_BEEPER
      01003CE9H   PUBLIC    CODE     ---       _cmd_beeper

      01007EBEH   BLOCK     CODE     ---       LVL=0
      ---         BLOCKEND  ---      ---       LVL=0

      01003CE9H   BLOCK     CODE     ---       LVL=0
      02000008H   SYMBOL    XDATA    CHAR      arg1
      02000009H   SYMBOL    XDATA    CHAR      arg2
      01003CF3H   BLOCK     CODE     NEAR LAB  LVL=1
      0200000AH   SYMBOL    XDATA    CHAR      index
      ---         BLOCKEND  ---      ---       LVL=1
      01003CE9H   LINE      CODE     ---       #8
      01003CF3H   LINE      CODE     ---       #9
      01003CF3H   LINE      CODE     ---       #11
      01003D0AH   LINE      CODE     ---       #12
      01003D0DH   LINE      CODE     ---       #13
      01003D24H   LINE      CODE     ---       #14
      01003D27H   LINE      CODE     ---       #15
      01003D3EH   LINE      CODE     ---       #16
      01003D43H   LINE      CODE     ---       #17
      01003D49H   LINE      CODE     ---       #18
      01003D62H   LINE      CODE     ---       #19
      01003D67H   LINE      CODE     ---       #20
LX51 LINKER/LOCATER V4.66.87.0                                                        04/18/2018  10:36:57  PAGE 216


      01003D6DH   LINE      CODE     ---       #21
      01003D86H   LINE      CODE     ---       #22
      01003D8EH   LINE      CODE     ---       #23
      01003D91H   LINE      CODE     ---       #24
      01003DAAH   LINE      CODE     ---       #25
      01003DC3H   LINE      CODE     ---       #26
      01003DCCH   LINE      CODE     ---       #27
      01003DCFH   LINE      CODE     ---       #28
      01003DD1H   LINE      CODE     ---       #29
      01003DD4H   LINE      CODE     ---       #30
      01003DD4H   LINE      CODE     ---       #31
      01003DD6H   LINE      CODE     ---       #32
      ---         BLOCKEND  ---      ---       LVL=0

      ---         MODULE    ---      ---       CMD_THERMO
      010031F7H   PUBLIC    CODE     ---       _cmd_thermo

      010081D7H   BLOCK     CODE     ---       LVL=0
      ---         BLOCKEND  ---      ---       LVL=0

      010031F7H   BLOCK     CODE     ---       LVL=0
      02000008H   SYMBOL    XDATA    CHAR      arg1
      02000009H   SYMBOL    XDATA    CHAR      arg2
      01003201H   BLOCK     CODE     NEAR LAB  LVL=1
      0200000AH   SYMBOL    XDATA    CHAR      val
      ---         BLOCKEND  ---      ---       LVL=1
      010031F7H   LINE      CODE     ---       #8
      01003201H   LINE      CODE     ---       #9
      01003201H   LINE      CODE     ---       #11
      01003203H   LINE      CODE     ---       #12
      01003206H   LINE      CODE     ---       #13
      0100320DH   LINE      CODE     ---       #14
      01003215H   LINE      CODE     ---       #15
      01003222H   LINE      CODE     ---       #16
      01003224H   LINE      CODE     ---       #17
      01003233H   LINE      CODE     ---       #18
      01003238H   LINE      CODE     ---       #19
      01003248H   LINE      CODE     ---       #20
      0100324BH   LINE      CODE     ---       #21
      01003252H   LINE      CODE     ---       #22
      01003261H   LINE      CODE     ---       #23
      01003264H   LINE      CODE     ---       #24
      01003272H   LINE      CODE     ---       #25
      01003275H   LINE      CODE     ---       #26
      01003278H   LINE      CODE     ---       #27
      01003278H   LINE      CODE     ---       #28
      01003278H   LINE      CODE     ---       #29
      01003285H   LINE      CODE     ---       #30
      01003295H   LINE      CODE     ---       #31
      01003298H   LINE      CODE     ---       #32
      010032ABH   LINE      CODE     ---       #33
      010032AEH   LINE      CODE     ---       #34
      010032C0H   LINE      CODE     ---       #35
      010032C3H   LINE      CODE     ---       #36
      010032C5H   LINE      CODE     ---       #37
      010032C8H   LINE      CODE     ---       #38
      010032CBH   LINE      CODE     ---       #39
      010032CBH   LINE      CODE     ---       #40
      010032DAH   LINE      CODE     ---       #41
      010032EAH   LINE      CODE     ---       #42
      010032EDH   LINE      CODE     ---       #43
      010032FFH   LINE      CODE     ---       #44
      01003302H   LINE      CODE     ---       #45
      01003314H   LINE      CODE     ---       #46
      01003317H   LINE      CODE     ---       #47
LX51 LINKER/LOCATER V4.66.87.0                                                        04/18/2018  10:36:57  PAGE 217


      01003319H   LINE      CODE     ---       #48
      0100331CH   LINE      CODE     ---       #49
      0100331FH   LINE      CODE     ---       #50
      0100331FH   LINE      CODE     ---       #51
      01003321H   LINE      CODE     ---       #52
      01003324H   LINE      CODE     ---       #53
      01003324H   LINE      CODE     ---       #54
      01003324H   LINE      CODE     ---       #55
      01003326H   LINE      CODE     ---       #56
      ---         BLOCKEND  ---      ---       LVL=0

      ---         MODULE    ---      ---       CMD_MPU
      010047A7H   PUBLIC    CODE     ---       _cmd_mpu
      0100639DH   SYMBOL    CODE     ---       mpu_read

      0100620EH   BLOCK     CODE     ---       LVL=0
      ---         BLOCKEND  ---      ---       LVL=0

      0100639DH   BLOCK     CODE     ---       LVL=0
      0100639DH   BLOCK     CODE     NEAR LAB  LVL=1
      0200000AH   SYMBOL    XDATA    INT       x
      0200000CH   SYMBOL    XDATA    INT       y
      0200000EH   SYMBOL    XDATA    INT       z
      02000010H   SYMBOL    XDATA    FLOAT     res
      ---         BLOCKEND  ---      ---       LVL=1
      0100639DH   LINE      CODE     ---       #9
      0100639DH   LINE      CODE     ---       #10
      0100639DH   LINE      CODE     ---       #13
      010063BAH   LINE      CODE     ---       #14
      010063BDH   LINE      CODE     ---       #15
      010063C0H   LINE      CODE     ---       #16
      010063D0H   LINE      CODE     ---       #17
      010063D3H   LINE      CODE     ---       #18
      010063D6H   LINE      CODE     ---       #19
      010063E6H   LINE      CODE     ---       #20
      010063E9H   LINE      CODE     ---       #21
      010063ECH   LINE      CODE     ---       #22
      ---         BLOCKEND  ---      ---       LVL=0

      010047A7H   BLOCK     CODE     ---       LVL=0
      02000008H   SYMBOL    XDATA    CHAR      arg1
      02000009H   SYMBOL    XDATA    CHAR      arg2
      010047A7H   LINE      CODE     ---       #25
      010047B1H   LINE      CODE     ---       #26
      010047B1H   LINE      CODE     ---       #28
      010047C8H   LINE      CODE     ---       #29
      010047CAH   LINE      CODE     ---       #30
      010047E0H   LINE      CODE     ---       #31
      010047E5H   LINE      CODE     ---       #32
      010047FBH   LINE      CODE     ---       #33
      010047FEH   LINE      CODE     ---       #34
      01004817H   LINE      CODE     ---       #35
      01004817H   LINE      CODE     ---       #36
      0100481DH   LINE      CODE     ---       #37
      0100481DH   LINE      CODE     ---       #38
      01004823H   LINE      CODE     ---       #39
      01004826H   LINE      CODE     ---       #40
      01004829H   LINE      CODE     ---       #41
      01004831H   LINE      CODE     ---       #42
      01004831H   LINE      CODE     ---       #43
      01004831H   LINE      CODE     ---       #44
      01004848H   LINE      CODE     ---       #45
      01004859H   LINE      CODE     ---       #46
      0100485BH   LINE      CODE     ---       #47
      0100485EH   LINE      CODE     ---       #48
LX51 LINKER/LOCATER V4.66.87.0                                                        04/18/2018  10:36:57  PAGE 218


      0100485EH   LINE      CODE     ---       #49
      01004860H   LINE      CODE     ---       #50
      ---         BLOCKEND  ---      ---       LVL=0

      ---         MODULE    ---      ---       ?C?FPMUL
      0100002EH   PUBLIC    CODE     ---       ?C?FPMUL

      ---         MODULE    ---      ---       ?C?FPDIV
      01000137H   PUBLIC    CODE     ---       ?C?FPDIV

      ---         MODULE    ---      ---       ?C?FCAST
      010001DEH   PUBLIC    CODE     ---       ?C?FCASTC
      010001D9H   PUBLIC    CODE     ---       ?C?FCASTI
      010001D4H   PUBLIC    CODE     ---       ?C?FCASTL

      ---         MODULE    ---      ---       ?C?CASTF
      01000212H   PUBLIC    CODE     ---       ?C?CASTF

      ---         MODULE    ---      ---       PRINTF
      0200004FH   PUBLIC    XDATA    ---       ?_PRINTF?BYTE
      0200004FH   PUBLIC    XDATA    ---       ?_SPRINTF?BYTE
      01001234H   PUBLIC    CODE     ---       _PRINTF
      0100122EH   PUBLIC    CODE     ---       _SPRINTF

      ---         MODULE    ---      ---       VPRINTF
      02010049H   PUBLIC    XDATA    ---       ?_VPRINTF?BYTE
      010076BDH   PUBLIC    CODE     ---       _VPRINTF

      ---         MODULE    ---      ---       ?C?FPGETOPN
      01000249H   PUBLIC    CODE     ---       ?C?FPGETOPN2
      0100027EH   PUBLIC    CODE     ---       ?C?FPNANRESULT
      01000288H   PUBLIC    CODE     ---       ?C?FPOVERFLOW
      01000260H   PUBLIC    CODE     ---       ?C?FPRESULT
      01000274H   PUBLIC    CODE     ---       ?C?FPRESULT2
      01000285H   PUBLIC    CODE     ---       ?C?FPUNDERFLOW

      ---         MODULE    ---      ---       ?C?FPROUND
      01000293H   PUBLIC    CODE     ---       ?C?FPROUND

      ---         MODULE    ---      ---       ?C?FPCONVERT
      010002D0H   PUBLIC    CODE     ---       ?C?FPCONVERT

      ---         MODULE    ---      ---       ?C?FPADD
      010003DCH   PUBLIC    CODE     ---       ?C?FPADD
      010003D8H   PUBLIC    CODE     ---       ?C?FPSUB

      ---         MODULE    ---      ---       ?C?FTNPWR
      010004FDH   PUBLIC    CODE     ---       ?C?FTNPWR

      ---         MODULE    ---      ---       ?C?SCDIV
      0100053DH   PUBLIC    CODE     ---       ?C?SCDIV

      ---         MODULE    ---      ---       ?C?CLDPTR
      0100055FH   PUBLIC    CODE     ---       ?C?CLDPTR

      ---         MODULE    ---      ---       ?C?CLDOPTR
      01000578H   PUBLIC    CODE     ---       ?C?CLDOPTR

      ---         MODULE    ---      ---       ?C?CSTPTR
      010005A5H   PUBLIC    CODE     ---       ?C?CSTPTR

      ---         MODULE    ---      ---       ?C?IMUL
      010005B7H   PUBLIC    CODE     ---       ?C?IMUL

      ---         MODULE    ---      ---       ?C?UIDIV
LX51 LINKER/LOCATER V4.66.87.0                                                        04/18/2018  10:36:57  PAGE 219


      010005C9H   PUBLIC    CODE     ---       ?C?UIDIV

      ---         MODULE    ---      ---       ?C?SIDIV
      0100061EH   PUBLIC    CODE     ---       ?C?SIDIV

      ---         MODULE    ---      ---       ?C?IILDX
      01000654H   PUBLIC    CODE     ---       ?C?IILDX

      ---         MODULE    ---      ---       ?C?ILDOPTR
      0100066AH   PUBLIC    CODE     ---       ?C?ILDOPTR

      ---         MODULE    ---      ---       ?C?ISTPTR
      010006A2H   PUBLIC    CODE     ---       ?C?ISTPTR

      ---         MODULE    ---      ---       ?C?LNEG
      010006C1H   PUBLIC    CODE     ---       ?C?LNEG

      ---         MODULE    ---      ---       ?C?LLDXDATA
      010006CFH   PUBLIC    CODE     ---       ?C?LLDXDATA

      ---         MODULE    ---      ---       ?C?LSTXDATA
      010006DBH   PUBLIC    CODE     ---       ?C?LSTXDATA

      ---         MODULE    ---      ---       ?C?LSTKXDATA
      010006E7H   PUBLIC    CODE     ---       ?C?LSTKXDATA

      ---         MODULE    ---      ---       ?C?OFFX256
      01000718H   PUBLIC    CODE     ---       ?C?OFFX256

      ---         MODULE    ---      ---       ?C?OFFXADD
      01000729H   PUBLIC    CODE     ---       ?C?OFFXADD

      ---         MODULE    ---      ---       ?C?PLDXDATA
      01000735H   PUBLIC    CODE     ---       ?C?PLDXDATA

      ---         MODULE    ---      ---       ?C?PLDIXDATA
      0100073EH   PUBLIC    CODE     ---       ?C?PLDIXDATA

      ---         MODULE    ---      ---       ?C?PSTXDATA
      01000755H   PUBLIC    CODE     ---       ?C?PSTXDATA

      ---         MODULE    ---      ---       ?C?PLDCODE
      0100075EH   PUBLIC    CODE     ---       ?C?PLDCODE

      ---         MODULE    ---      ---       ?C?PLDPTR
      0100076AH   PUBLIC    CODE     ---       ?C?PLDPTR

      ---         MODULE    ---      ---       ?C?PLDOPTR
      0100078AH   PUBLIC    CODE     ---       ?C?PLDOPTR

      ---         MODULE    ---      ---       ?C?CCASE
      010007BAH   PUBLIC    CODE     ---       ?C?CCASE

      ---         MODULE    ---      ---       ?C?ICALL
      010007E0H   PUBLIC    CODE     ---       ?C?ICALL
      010007E4H   PUBLIC    CODE     ---       ?C?ICALL2

      ---         MODULE    ---      ---       ?C_XBP
      0000001DH   PUBLIC    DATA     ---       ?C_XBP

      ---         MODULE    ---      ---       GETS
      01003DD7H   PUBLIC    CODE     ---       _GETS

      ---         MODULE    ---      ---       ATOI
      01003FABH   PUBLIC    CODE     ---       _ATOI
LX51 LINKER/LOCATER V4.66.87.0                                                        04/18/2018  10:36:57  PAGE 220



      ---         MODULE    ---      ---       ?C?MEMSET
      010007E6H   PUBLIC    CODE     ---       ?C?MEMSET

      ---         MODULE    ---      ---       ?C?COPYP2
      010008DEH   PUBLIC    CODE     ---       ?C?COPYP2

      ---         MODULE    ---      ---       ?C?STRCMPP2
      01000A7AH   PUBLIC    CODE     ---       ?C?STRCMPP2

      ---         MODULE    ---      ---       ?C?CSTOPTR
      01000A97H   PUBLIC    CODE     ---       ?C?CSTOPTR

      ---         MODULE    ---      ---       ?C?ILDIX
      01000AB9H   PUBLIC    CODE     ---       ?C?ILDIX

      ---         MODULE    ---      ---       ?C?PLDIDATA
      01000ACFH   PUBLIC    CODE     ---       ?C?PLDIDATA

      ---         MODULE    ---      ---       ?C?PLDPDATA
      01000AD8H   PUBLIC    CODE     ---       ?C?PLDPDATA

      ---         MODULE    ---      ---       GETCHAR
      00000025H.3 PUBLIC    BIT      ---       ?C?CHARLOADED
      020000D6H   PUBLIC    XDATA    ---       ?_UNGETCHAR?BYTE
      0100889CH   PUBLIC    CODE     ---       GETCHAR

      ---         MODULE    ---      ---       ISDIGIT
      01008BACH   PUBLIC    CODE     ---       _ISDIGIT

      ---         MODULE    ---      ---       ISSPACE
      010088B0H   PUBLIC    CODE     ---       _ISSPACE



FUNCTION REGISTER MASKS


FUNCTION . . . . . . . . . . . . . . REG MASK
==============================================

_clock_get_mon_date. . . . . . . . . @0x1e000ca0
_clock_is_leap_year. . . . . . . . . @0x1e000c80
_clock_switch_display_mode . . . . . @0x0e000800
_clock_yymmdd_to_day . . . . . . . . @0x1e000cfd
_delay_10us. . . . . . . . . . . . . @0x080008c0
_delay_ms. . . . . . . . . . . . . . @0x080008e0
_getkey. . . . . . . . . . . . . . . @0x1e000881
_I2C_Write . . . . . . . . . . . . . @0x180008e0
_int_hub_test_bit. . . . . . . . . . @0x180008c1
_isdigit . . . . . . . . . . . . . . @0x18000800
_isspace . . . . . . . . . . . . . . @0x18000800
_led_clr_blink . . . . . . . . . . . @0x18000801
_led_clr_dp. . . . . . . . . . . . . @0x18000801
_led_set_blink . . . . . . . . . . . @0x18000801
_led_set_code. . . . . . . . . . . . @0x1e0008c3
_led_set_dp. . . . . . . . . . . . . @0x18000801
_putbuf. . . . . . . . . . . . . . . @0x1e0008c1
_putchar . . . . . . . . . . . . . . @0x1e0008e1
_rtc_alarm_set_date. . . . . . . . . @0x1e000cce
_rtc_alarm_set_day . . . . . . . . . @0x1e000800
_rtc_alarm_set_hour. . . . . . . . . @0x1e000cce
_rtc_alarm_set_min . . . . . . . . . @0x1e000cce
_rtc_alarm_set_mode. . . . . . . . . @0x1e000820
_rtc_alarm_set_sec . . . . . . . . . @0x1e000c40
LX51 LINKER/LOCATER V4.66.87.0                                                        04/18/2018  10:36:57  PAGE 221


_rtc_clr_alarm_int_flag. . . . . . . @0x1e000800
_rtc_date_set_day. . . . . . . . . . @0x1e000800
_rtc_date_set_month. . . . . . . . . @0x1e000cc0
_rtc_date_set_year . . . . . . . . . @0x1e000cc0
_rtc_enable_alarm_int. . . . . . . . @0x1e000800
_rtc_test_alarm_int. . . . . . . . . @0x1e000800
_rtc_test_alarm_int_flag . . . . . . @0x1e000800
_rtc_time_set_hour . . . . . . . . . @0x1e000cce
_rtc_time_set_min. . . . . . . . . . @0x1e000cce
_rtc_time_set_sec. . . . . . . . . . @0x1e000cce
_scan_key_proc . . . . . . . . . . . @0x1e0008c1
_serial_set_ctl_bit. . . . . . . . . @0x1e000861
_serial_test_ctl_bit . . . . . . . . @0x1e0008f1
_thermo_threshold_inc. . . . . . . . @0x18000880
_timer_get_hour. . . . . . . . . . . @0x18000881
_timer_get_min . . . . . . . . . . . @0x18000881
_timer_get_sec . . . . . . . . . . . @0x18000881
_timer_inc_hour. . . . . . . . . . . @0x18000c01
_timer_inc_min . . . . . . . . . . . @0x18000c01
_timer_inc_sec . . . . . . . . . . . @0x18000c01
_timer_set_mode. . . . . . . . . . . @0x0e000800
alarm0_get_day_mask. . . . . . . . . @0x0e000880
alarm0_get_hour. . . . . . . . . . . @0x0e000880
alarm0_get_hour_12 . . . . . . . . . @0x18000000
alarm0_get_min . . . . . . . . . . . @0x0e000880
alarm0_inc_hour. . . . . . . . . . . @0x1e000c00
alarm0_inc_min . . . . . . . . . . . @0x1e000c00
alarm0_set_hour_12 . . . . . . . . . @0x18000000
alarm1_set_enable. . . . . . . . . . @0x18000000
alarm1_test_enable . . . . . . . . . @0x18000000
beeper_get_beep_enable . . . . . . . @0x18000000
beeper_get_music_index . . . . . . . @0x0e000880
beeper_get_music_to. . . . . . . . . @0x0e000880
beeper_inc_music_to. . . . . . . . . @0x1e000cf1
beeper_set_beep_enable . . . . . . . @0x18000000
beeper_stop_music. . . . . . . . . . @0x0e000800
clock_clr_sec. . . . . . . . . . . . @0x08000801
clock_display. . . . . . . . . . . . @0x18000000
clock_enable_interrupt . . . . . . . @0x18000000
clock_enter_shell. . . . . . . . . . @0x80000000
clock_get_date . . . . . . . . . . . @0x08000881
clock_get_day. . . . . . . . . . . . @0x08000881
clock_get_hour . . . . . . . . . . . @0x08000881
clock_get_hour_12. . . . . . . . . . @0x18000000
clock_get_min. . . . . . . . . . . . @0x08000881
clock_get_month. . . . . . . . . . . @0x08000881
clock_get_ms39 . . . . . . . . . . . @0x08000881
clock_get_sec. . . . . . . . . . . . @0x08000881
clock_get_sec_256. . . . . . . . . . @0x08000881
clock_get_year . . . . . . . . . . . @0x08000881
clock_inc_hour . . . . . . . . . . . @0x18000c01
clock_inc_min. . . . . . . . . . . . @0x18000c01
clock_inc_month. . . . . . . . . . . @0x1e000cfd
clock_inc_year . . . . . . . . . . . @0x1e000cfd
clock_set_hour_12. . . . . . . . . . @0x18000000
com_initialize . . . . . . . . . . . @0x0e000800
com_try_get_key. . . . . . . . . . . @0x1e000881
debug_initialize . . . . . . . . . . @0x80000000
debug_onoff. . . . . . . . . . . . . @0x18000000
I2C_Delay. . . . . . . . . . . . . . @0x18000880
I2C_GetAck . . . . . . . . . . . . . @0x180008c0
I2C_Init . . . . . . . . . . . . . . @0x18000880
I2C_PutAck . . . . . . . . . . . . . @0x18000880
I2C_Read . . . . . . . . . . . . . . @0x180008e0
I2C_Start. . . . . . . . . . . . . . @0x18000880
LX51 LINKER/LOCATER V4.66.87.0                                                        04/18/2018  10:36:57  PAGE 222


I2C_Stop . . . . . . . . . . . . . . @0x180008b0
lt_timer_dec_sec . . . . . . . . . . @0x1e000c81
lt_timer_get_date. . . . . . . . . . @0x08000881
lt_timer_get_hour. . . . . . . . . . @0x08000881
lt_timer_get_min . . . . . . . . . . @0x08000881
lt_timer_get_month . . . . . . . . . @0x08000881
lt_timer_get_sec . . . . . . . . . . @0x08000881
lt_timer_get_year. . . . . . . . . . @0x08000881
lt_timer_inc_date. . . . . . . . . . @0x18000c01
lt_timer_inc_hour. . . . . . . . . . @0x18000c01
lt_timer_inc_min . . . . . . . . . . @0x18000c01
lt_timer_inc_month . . . . . . . . . @0x18000c01
lt_timer_inc_sec . . . . . . . . . . @0x18000c01
lt_timer_inc_year. . . . . . . . . . @0x18000c01
power_clr_flag . . . . . . . . . . . @0x80000000
power_get_powersave_to . . . . . . . @0x1e000880
power_get_powersave_to_s . . . . . . @0x0e000880
power_inc_powersave_to . . . . . . . @0x1e000800
power_reset_powersave_to . . . . . . @0x0e000881
power_set_flag . . . . . . . . . . . @0x80000000
power_test_flag. . . . . . . . . . . @0x18000000
refresh_led. . . . . . . . . . . . . @0x1e0008e9
rom_is_factory_reset . . . . . . . . @0x18000000
rtc_alarm_get_date . . . . . . . . . @0x1e000cc0
rtc_alarm_get_day. . . . . . . . . . @0x1e000880
rtc_alarm_get_hour . . . . . . . . . @0x1e000ce0
rtc_alarm_get_hour_12. . . . . . . . @0x1e000880
rtc_alarm_get_min. . . . . . . . . . @0x1e000cc0
rtc_alarm_get_mode . . . . . . . . . @0x0e0008fa
rtc_alarm_get_sec. . . . . . . . . . @0x1e000cc0
rtc_alarm_set_hour_12. . . . . . . . @0x1e000cee
rtc_date_get_date. . . . . . . . . . @0x1e000cc0
rtc_date_get_day . . . . . . . . . . @0x0e000880
rtc_date_get_month . . . . . . . . . @0x1e000cc0
rtc_date_get_year. . . . . . . . . . @0x1e000cc0
rtc_is_lt_timer. . . . . . . . . . . @0x18000000
rtc_set_lt_timer . . . . . . . . . . @0x18000000
rtc_time_get_hour. . . . . . . . . . @0x1e000ce0
rtc_time_get_hour_12 . . . . . . . . @0x1e000880
rtc_time_get_min . . . . . . . . . . @0x1e000cc0
rtc_time_get_sec . . . . . . . . . . @0x1e000cc0
rtc_time_set_hour_12 . . . . . . . . @0x1e000cee
timer_set_led_autorefresh. . . . . . @0x1e000800
timer_stop . . . . . . . . . . . . . @0x80000000



*** WARNING L13: RECURSIVE CALL TO FUNCTION
    CALLED:  ?CO?TASK
    CALLER:  _RUN_STATE_MACHINE/SM

*** WARNING L13: RECURSIVE CALL TO FUNCTION
    CALLED:  ?CO?SHELL
    CALLER:  SHELL

*** WARNING L13: RECURSIVE CALL TO FUNCTION
    CALLED:  ?CO?SHELL
    CALLER:  SHELL_DUMP_CMD/SHELL

*** WARNING L13: RECURSIVE CALL TO FUNCTION
    CALLED:  ?CO?SHELL
    CALLER:  _CMD_HELP/CMD_HELP

*** WARNING L57: UNCALLED FUNCTION, IGNORED FOR OVERLAY PROCESS
    NAME:    RTC_ALARM_GET_HOUR/RTC
LX51 LINKER/LOCATER V4.66.87.0                                                        04/18/2018  10:36:57  PAGE 223



*** WARNING L57: UNCALLED FUNCTION, IGNORED FOR OVERLAY PROCESS
    NAME:    RTC_ALARM_GET_HOUR_12/RTC

*** WARNING L57: UNCALLED FUNCTION, IGNORED FOR OVERLAY PROCESS
    NAME:    RTC_ALARM_GET_MIN/RTC

*** WARNING L57: UNCALLED FUNCTION, IGNORED FOR OVERLAY PROCESS
    NAME:    RTC_ALARM_GET_DAY/RTC

*** WARNING L57: UNCALLED FUNCTION, IGNORED FOR OVERLAY PROCESS
    NAME:    _RTC_ALARM_SET_DAY/RTC

*** WARNING L57: UNCALLED FUNCTION, IGNORED FOR OVERLAY PROCESS
    NAME:    RTC_ALARM_GET_DATE/RTC

*** WARNING L57: UNCALLED FUNCTION, IGNORED FOR OVERLAY PROCESS
    NAME:    RTC_ALARM_GET_SEC/RTC

*** WARNING L57: UNCALLED FUNCTION, IGNORED FOR OVERLAY PROCESS
    NAME:    RTC_ALARM_GET_MODE/RTC

*** WARNING L57: UNCALLED FUNCTION, IGNORED FOR OVERLAY PROCESS
    NAME:    _RTC_TEST_ALARM_INT/RTC

*** WARNING L16: UNCALLED SEGMENT, IGNORED FOR OVERLAY PROCESS
    NAME:    ALARM_SAVE_ROM/ALARM

*** WARNING L57: UNCALLED FUNCTION, IGNORED FOR OVERLAY PROCESS
    NAME:    POWER_SET_FLAG/POWER

*** WARNING L57: UNCALLED FUNCTION, IGNORED FOR OVERLAY PROCESS
    NAME:    BEEPER_GET_MUSIC_TO/BEEPER

*** WARNING L57: UNCALLED FUNCTION, IGNORED FOR OVERLAY PROCESS
    NAME:    BEEPER_INC_MUSIC_TO/BEEPER

*** WARNING L57: UNCALLED FUNCTION, IGNORED FOR OVERLAY PROCESS
    NAME:    CLOCK_GET_MS39/CLOCK

*** WARNING L57: UNCALLED FUNCTION, IGNORED FOR OVERLAY PROCESS
    NAME:    THERMO_HI_THRESHOLD_REACH_TOP/THERMO

*** WARNING L57: UNCALLED FUNCTION, IGNORED FOR OVERLAY PROCESS
    NAME:    THERMO_LO_THRESHOLD_REACH_BOTTOM/THERMO

*** WARNING L57: UNCALLED FUNCTION, IGNORED FOR OVERLAY PROCESS
    NAME:    DELAY_TASK_INITIALIZE/DELAY_TASK

Program Size: data=93.4 xdata=215 const=16348 code=36771
LX51 RUN COMPLETE.  21 WARNING(S),  0 ERROR(S)
