LX51 LINKER/LOCATER V4.66.87.0                                                          06/02/2018  22:09:22  PAGE 1


LX51 LINKER/LOCATER V4.66.87.0, INVOKED BY:
C:\KEIL\C51\BIN\LX51.EXE sm.obj, main.obj, STARTUP.obj, com.obj, rtc.obj, i2c.obj, key.obj, task.obj, led.obj, alarm.obj
>> , power.obj, misc.obj, mod_common.obj, beeper.obj, clock.obj, timer.obj, int_hub.obj, fuse.obj, hg.obj, lt_timer.obj,
>>  serial_hub.obj, thermo.obj, rom.obj, delay_task.obj, shell.obj, debug.obj, mpu.obj, sm_clock_timer.obj, sm_clock_cou
>> nter.obj, sm_clock_display.obj, sm_clock_powersave.obj, sm_clock_mod_alarm.obj, sm_clock_alarm.obj, sm_clock_mod_time
>> .obj, sm_power_pack_display.obj, sm_power_pack_powersave.obj, sm_fuse_test.obj, sm_fuse_param.obj, sm_fuse_timer.obj,
>>  sm_fuse_detonate.obj, sm_fuse_powersave.obj, sm_global_flag_mod.obj, cmd_help.obj, cmd_serial.obj, cmd_int.obj, cmd_
>> i2c.obj, cmd_dbg.obj, cmd_reboot.obj, cmd_task.obj, cmd_sm.obj, cmd_beeper.obj, cmd_thermo.obj, cmd_mpu.obj TO Clock 
>> REGFILE (.\Clock.ORC) CLASSES (XDATA (X:0X0-X:0X3FF), HDATA (X:0X0-X:0X3FF), ECODE (C:0X0-C:0XFFFF), HCONST (C:0X0-C:
>> 0XFFFF))




PROGRAM RECURSIONS REMOVED FROM CALL TREE
=========================================
+--> ?CO?TASK
|  | _TIME_PROC/SM
<--+ _RUN_STATE_MACHINE/SM


+--> ?CO?SHELL
|  | _CMD_HELP/CMD_HELP
|  | SHELL_DUMP_CMD/SHELL
<--+ SHELL


+--> ?CO?SHELL
|  | _CMD_HELP/CMD_HELP
<--+ SHELL_DUMP_CMD/SHELL


+--> ?CO?SHELL
<--+ _CMD_HELP/CMD_HELP



CPU MODE:     8051 MODE
MEMORY MODEL: LARGE WITH FLOATING POINT ARITHMETIC


INPUT MODULES INCLUDED:
  sm.obj (SM)
         COMMENT TYPE 0: C51 V9.57.0.0
  main.obj (MAIN)
         COMMENT TYPE 0: C51 V9.57.0.0
  STARTUP.obj (?C_STARTUP)
         COMMENT TYPE 0: AX51 V3.15.3.0
  com.obj (COM)
         COMMENT TYPE 0: C51 V9.57.0.0
  rtc.obj (RTC)
         COMMENT TYPE 0: C51 V9.57.0.0
  i2c.obj (I2C)
         COMMENT TYPE 0: C51 V9.57.0.0
  key.obj (KEY)
         COMMENT TYPE 0: C51 V9.57.0.0
  task.obj (TASK)
         COMMENT TYPE 0: C51 V9.57.0.0
  led.obj (LED)
         COMMENT TYPE 0: C51 V9.57.0.0
  alarm.obj (ALARM)
         COMMENT TYPE 0: C51 V9.57.0.0
  power.obj (POWER)
         COMMENT TYPE 0: C51 V9.57.0.0
  misc.obj (MISC)
         COMMENT TYPE 0: C51 V9.57.0.0
LX51 LINKER/LOCATER V4.66.87.0                                                        06/02/2018  22:09:22  PAGE 2


  mod_common.obj (MOD_COMMON)
         COMMENT TYPE 0: C51 V9.57.0.0
  beeper.obj (BEEPER)
         COMMENT TYPE 0: C51 V9.57.0.0
  clock.obj (CLOCK)
         COMMENT TYPE 0: C51 V9.57.0.0
  timer.obj (TIMER)
         COMMENT TYPE 0: C51 V9.57.0.0
  int_hub.obj (INT_HUB)
         COMMENT TYPE 0: C51 V9.57.0.0
  fuse.obj (FUSE)
         COMMENT TYPE 0: C51 V9.57.0.0
  hg.obj (HG)
         COMMENT TYPE 0: C51 V9.57.0.0
  lt_timer.obj (LT_TIMER)
         COMMENT TYPE 0: C51 V9.57.0.0
  serial_hub.obj (SERIAL_HUB)
         COMMENT TYPE 0: C51 V9.57.0.0
  thermo.obj (THERMO)
         COMMENT TYPE 0: C51 V9.57.0.0
  rom.obj (ROM)
         COMMENT TYPE 0: C51 V9.57.0.0
  delay_task.obj (DELAY_TASK)
         COMMENT TYPE 0: C51 V9.57.0.0
  shell.obj (SHELL)
         COMMENT TYPE 0: C51 V9.57.0.0
  debug.obj (DEBUG)
         COMMENT TYPE 0: C51 V9.57.0.0
  mpu.obj (MPU)
         COMMENT TYPE 0: C51 V9.57.0.0
  sm_clock_timer.obj (SM_CLOCK_TIMER)
         COMMENT TYPE 0: C51 V9.57.0.0
  sm_clock_counter.obj (SM_CLOCK_COUNTER)
         COMMENT TYPE 0: C51 V9.57.0.0
  sm_clock_display.obj (SM_CLOCK_DISPLAY)
         COMMENT TYPE 0: C51 V9.57.0.0
  sm_clock_powersave.obj (SM_CLOCK_POWERSAVE)
         COMMENT TYPE 0: C51 V9.57.0.0
  sm_clock_mod_alarm.obj (SM_CLOCK_MOD_ALARM)
         COMMENT TYPE 0: C51 V9.57.0.0
  sm_clock_alarm.obj (SM_CLOCK_ALARM)
         COMMENT TYPE 0: C51 V9.57.0.0
  sm_clock_mod_time.obj (SM_CLOCK_MOD_TIME)
         COMMENT TYPE 0: C51 V9.57.0.0
  sm_power_pack_display.obj (SM_POWER_PACK_DISPLAY)
         COMMENT TYPE 0: C51 V9.57.0.0
  sm_power_pack_powersave.obj (SM_POWER_PACK_POWERSAVE)
         COMMENT TYPE 0: C51 V9.57.0.0
  sm_fuse_test.obj (SM_FUSE_TEST)
         COMMENT TYPE 0: C51 V9.57.0.0
  sm_fuse_param.obj (SM_FUSE_PARAM)
         COMMENT TYPE 0: C51 V9.57.0.0
  sm_fuse_timer.obj (SM_FUSE_TIMER)
         COMMENT TYPE 0: C51 V9.57.0.0
  sm_fuse_detonate.obj (SM_FUSE_DETONATE)
         COMMENT TYPE 0: C51 V9.57.0.0
  sm_fuse_powersave.obj (SM_FUSE_POWERSAVE)
         COMMENT TYPE 0: C51 V9.57.0.0
  sm_global_flag_mod.obj (SM_GLOBAL_FLAG_MOD)
         COMMENT TYPE 0: C51 V9.57.0.0
  cmd_help.obj (CMD_HELP)
         COMMENT TYPE 0: C51 V9.57.0.0
  cmd_serial.obj (CMD_SERIAL)
         COMMENT TYPE 0: C51 V9.57.0.0
  cmd_int.obj (CMD_INT)
LX51 LINKER/LOCATER V4.66.87.0                                                        06/02/2018  22:09:22  PAGE 3


         COMMENT TYPE 0: C51 V9.57.0.0
  cmd_i2c.obj (CMD_I2C)
         COMMENT TYPE 0: C51 V9.57.0.0
  cmd_dbg.obj (CMD_DBG)
         COMMENT TYPE 0: C51 V9.57.0.0
  cmd_reboot.obj (CMD_REBOOT)
         COMMENT TYPE 0: C51 V9.57.0.0
  cmd_task.obj (CMD_TASK)
         COMMENT TYPE 0: C51 V9.57.0.0
  cmd_sm.obj (CMD_SM)
         COMMENT TYPE 0: C51 V9.57.0.0
  cmd_beeper.obj (CMD_BEEPER)
         COMMENT TYPE 0: C51 V9.57.0.0
  cmd_thermo.obj (CMD_THERMO)
         COMMENT TYPE 0: C51 V9.57.0.0
  cmd_mpu.obj (CMD_MPU)
         COMMENT TYPE 0: C51 V9.57.0.0
  C:\KEIL\C51\LIB\C51FPL.LIB (?C?FPMUL)
         COMMENT TYPE 1: A51 / ASM51 Assembler
  C:\KEIL\C51\LIB\C51FPL.LIB (?C?FPDIV)
         COMMENT TYPE 1: A51 / ASM51 Assembler
  C:\KEIL\C51\LIB\C51FPL.LIB (?C?FCAST)
         COMMENT TYPE 1: A51 / ASM51 Assembler
  C:\KEIL\C51\LIB\C51FPL.LIB (?C?CASTF)
         COMMENT TYPE 1: A51 / ASM51 Assembler
  C:\KEIL\C51\LIB\C51FPL.LIB (PRINTF)
         COMMENT TYPE 1: A51 / ASM51 Assembler
  C:\KEIL\C51\LIB\C51FPL.LIB (VPRINTF)
         COMMENT TYPE 1: A51 / ASM51 Assembler
  C:\KEIL\C51\LIB\C51FPL.LIB (?C?FPGETOPN)
         COMMENT TYPE 1: A51 / ASM51 Assembler
  C:\KEIL\C51\LIB\C51FPL.LIB (?C?FPROUND)
         COMMENT TYPE 1: A51 / ASM51 Assembler
  C:\KEIL\C51\LIB\C51FPL.LIB (?C?FPCONVERT)
         COMMENT TYPE 1: A51 / ASM51 Assembler
  C:\KEIL\C51\LIB\C51FPL.LIB (?C?FPADD)
         COMMENT TYPE 1: A51 / ASM51 Assembler
  C:\KEIL\C51\LIB\C51FPL.LIB (?C?FTNPWR)
         COMMENT TYPE 1: A51 / ASM51 Assembler
  C:\KEIL\C51\LIB\C51L.LIB (?C?SCDIV)
         COMMENT TYPE 1: A51 / ASM51 Assembler
  C:\KEIL\C51\LIB\C51L.LIB (?C?CLDPTR)
         COMMENT TYPE 1: A51 / ASM51 Assembler
  C:\KEIL\C51\LIB\C51L.LIB (?C?CLDOPTR)
         COMMENT TYPE 1: A51 / ASM51 Assembler
  C:\KEIL\C51\LIB\C51L.LIB (?C?CSTPTR)
         COMMENT TYPE 1: A51 / ASM51 Assembler
  C:\KEIL\C51\LIB\C51L.LIB (?C?IMUL)
         COMMENT TYPE 1: A51 / ASM51 Assembler
  C:\KEIL\C51\LIB\C51L.LIB (?C?UIDIV)
         COMMENT TYPE 1: A51 / ASM51 Assembler
  C:\KEIL\C51\LIB\C51L.LIB (?C?IILDX)
         COMMENT TYPE 1: A51 / ASM51 Assembler
  C:\KEIL\C51\LIB\C51L.LIB (?C?ILDOPTR)
         COMMENT TYPE 1: A51 / ASM51 Assembler
  C:\KEIL\C51\LIB\C51L.LIB (?C?LADD)
         COMMENT TYPE 1: A51 / ASM51 Assembler
  C:\KEIL\C51\LIB\C51L.LIB (?C?LSUB)
         COMMENT TYPE 1: A51 / ASM51 Assembler
  C:\KEIL\C51\LIB\C51L.LIB (?C?LNEG)
         COMMENT TYPE 1: A51 / ASM51 Assembler
  C:\KEIL\C51\LIB\C51L.LIB (?C?SLCMP)
         COMMENT TYPE 1: A51 / ASM51 Assembler
  C:\KEIL\C51\LIB\C51L.LIB (?C?LLDXDATA)
         COMMENT TYPE 1: A51 / ASM51 Assembler
LX51 LINKER/LOCATER V4.66.87.0                                                        06/02/2018  22:09:22  PAGE 4


  C:\KEIL\C51\LIB\C51L.LIB (?C?LLDXDATA0)
         COMMENT TYPE 1: A51 / ASM51 Assembler
  C:\KEIL\C51\LIB\C51L.LIB (?C?LSTXDATA)
         COMMENT TYPE 1: A51 / ASM51 Assembler
  C:\KEIL\C51\LIB\C51L.LIB (?C?LSTKXDATA)
         COMMENT TYPE 1: A51 / ASM51 Assembler
  C:\KEIL\C51\LIB\C51L.LIB (?C?OFFX256)
         COMMENT TYPE 1: A51 / ASM51 Assembler
  C:\KEIL\C51\LIB\C51L.LIB (?C?OFFXADD)
         COMMENT TYPE 1: A51 / ASM51 Assembler
  C:\KEIL\C51\LIB\C51L.LIB (?C?PLDXDATA)
         COMMENT TYPE 1: A51 / ASM51 Assembler
  C:\KEIL\C51\LIB\C51L.LIB (?C?PLDIXDATA)
         COMMENT TYPE 1: A51 / ASM51 Assembler
  C:\KEIL\C51\LIB\C51L.LIB (?C?PSTXDATA)
         COMMENT TYPE 1: A51 / ASM51 Assembler
  C:\KEIL\C51\LIB\C51L.LIB (?C?PLDCODE)
         COMMENT TYPE 1: A51 / ASM51 Assembler
  C:\KEIL\C51\LIB\C51L.LIB (?C?PLDPTR)
         COMMENT TYPE 1: A51 / ASM51 Assembler
  C:\KEIL\C51\LIB\C51L.LIB (?C?PLDOPTR)
         COMMENT TYPE 1: A51 / ASM51 Assembler
  C:\KEIL\C51\LIB\C51L.LIB (?C?CCASE)
         COMMENT TYPE 1: A51 / ASM51 Assembler
  C:\KEIL\C51\LIB\C51L.LIB (?C?ICALL)
         COMMENT TYPE 1: A51 / ASM51 Assembler
  C:\KEIL\C51\LIB\C51L.LIB (?C_XBP)
         COMMENT TYPE 1: A51 / ASM51 Assembler
  C:\KEIL\C51\LIB\C51L.LIB (GETS)
         COMMENT TYPE 1: C51 Compiler
  C:\KEIL\C51\LIB\C51L.LIB (ATOI)
         COMMENT TYPE 1: C51 Compiler
  C:\KEIL\C51\LIB\C51L.LIB (?C?MEMSET)
         COMMENT TYPE 1: A51 / ASM51 Assembler
  C:\KEIL\C51\LIB\C51L.LIB (?C?COPYP2)
         COMMENT TYPE 1: A51 / ASM51 Assembler
  C:\KEIL\C51\LIB\C51L.LIB (?C?STRCMPP2)
         COMMENT TYPE 1: A51 / ASM51 Assembler
  C:\KEIL\C51\LIB\C51L.LIB (?C?CSTOPTR)
         COMMENT TYPE 1: A51 / ASM51 Assembler
  C:\KEIL\C51\LIB\C51L.LIB (?C?ILDIX)
         COMMENT TYPE 1: A51 / ASM51 Assembler
  C:\KEIL\C51\LIB\C51L.LIB (?C?PLDIDATA)
         COMMENT TYPE 1: A51 / ASM51 Assembler
  C:\KEIL\C51\LIB\C51L.LIB (?C?PLDPDATA)
         COMMENT TYPE 1: A51 / ASM51 Assembler
  C:\KEIL\C51\LIB\C51L.LIB (GETCHAR)
         COMMENT TYPE 1: A51 / ASM51 Assembler
  C:\KEIL\C51\LIB\C51L.LIB (ISDIGIT)
         COMMENT TYPE 1: C51 Compiler
  C:\KEIL\C51\LIB\C51L.LIB (ISSPACE)
         COMMENT TYPE 1: C51 Compiler


ACTIVE MEMORY CLASSES OF MODULE:  Clock (SM)

BASE        START       END         USED      MEMORY CLASS
==========================================================
X:000000H   X:000000H   X:0003FFH   0000EDH   XDATA
X:000000H   X:000000H   X:0003FFH             HDATA
C:000000H   C:000000H   C:00FFFFH             ECODE
B00:0000H   C:000000H   C:00FFFFH             HCONST
C:000000H   C:000000H   C:00FFFFH   008DA3H   CODE
C:000000H   C:000000H   C:00FFFFH   0047BAH   CONST
I:000000H   I:000000H   I:0000FFH   00002DH   IDATA
LX51 LINKER/LOCATER V4.66.87.0                                                        06/02/2018  22:09:22  PAGE 5


I:000020H.0 I:000020H.0 I:00002FH.7 000005H.6 BIT
I:000000H   I:000000H   I:00007FH   00001FH   DATA


MEMORY MAP OF MODULE:  Clock (SM)


START     STOP      LENGTH    ALIGN  RELOC    MEMORY CLASS   SEGMENT NAME
=========================================================================

* * * * * * * * * * *   D A T A   M E M O R Y   * * * * * * * * * * * * *
000000H   000007H   000008H   ---    AT..     DATA           "REG BANK 0"
000008H   00000FH   000008H   ---    AT..     DATA           "REG BANK 1"
000010H   000017H   000008H   ---    AT..     DATA           "REG BANK 2"
000018H   00001CH   000005H   BYTE   UNIT     DATA           _DATA_GROUP_
00001DH   00001EH   000002H   BYTE   UNIT     DATA           ?C?LIB_DATA
00001FH.0 00001FH.7 000001H.0 ---    ---      **GAP**
000020H.0 000021H.3 000001H.4 BIT    UNIT     BIT            _BIT_GROUP_
000021H.4 000022H.0 000000H.5 BIT    UNIT     BIT            ?BI?LT_TIMER
000022H.1 000022H.4 000000H.4 BIT    UNIT     BIT            ?BI?TIMER
000022H.5 000022H.7 000000H.3 BIT    UNIT     BIT            ?BI?MOD_COMMON
000023H.0 000023H.2 000000H.3 BIT    UNIT     BIT            ?BI?CLOCK
000023H.3 000023H.4 000000H.2 BIT    UNIT     BIT            ?BI?COM
000023H.5 000023H.6 000000H.2 BIT    UNIT     BIT            ?BI?KEY
000023H.7 000024H.0 000000H.2 BIT    UNIT     BIT            ?BI?ALARM
000024H.1 000024H.2 000000H.2 BIT    UNIT     BIT            ?BI?BEEPER
000024H.3 000024H.3 000000H.1 BIT    UNIT     BIT            ?BI?RTC_SET_EOSC?RTC
000024H.4 000024H.4 000000H.1 BIT    UNIT     BIT            ?BI?RTC_SET_BBSQW?RTC
000024H.5 000024H.5 000000H.1 BIT    UNIT     BIT            ?BI?RTC_SET_CONV?RTC
000024H.6 000024H.6 000000H.1 BIT    UNIT     BIT            ?BI?RTC_SET_OSF?RTC
000024H.7 000024H.7 000000H.1 BIT    UNIT     BIT            ?BI?RTC
000025H.0 000025H.0 000000H.1 BIT    UNIT     BIT            ?BI?LED
000025H.1 000025H.1 000000H.1 BIT    UNIT     BIT            ?BI?POWER
000025H.2 000025H.2 000000H.1 BIT    UNIT     BIT            ?BI?FUSE
000025H.3 000025H.3 000000H.1 BIT    UNIT     BIT            ?BI?HG
000025H.4 000025H.4 000000H.1 BIT    UNIT     BIT            ?BI?DEBUG
000025H.5 000025H.5 000000H.1 BIT    UNIT     BIT            ?BI?GETCHAR
000025H.6 000025H   000000H.2 ---    ---      **GAP**
000026H   000035H   000010H   BYTE   UNIT     IDATA          ?ID?COM
000036H   00003EH   000009H   BYTE   UNIT     IDATA          ?ID?LED
00003FH   000047H   000009H   BYTE   UNIT     IDATA          ?ID?CLOCK
000048H   00004DH   000006H   BYTE   UNIT     IDATA          ?ID?LT_TIMER
00004EH   000051H   000004H   BYTE   UNIT     IDATA          ?ID?TASK
000052H   000052H   000001H   BYTE   UNIT     IDATA          ?STACK

* * * * * * * * * * *   C O D E   M E M O R Y   * * * * * * * * * * * * *
000000H   000002H   000003H   ---    OFFS..   CODE           ?CO?STARTUP?3
000003H   000005H   000003H   BYTE   OFFS..   CODE           ?KEY?00003
000006H   00000AH   000005H   BYTE   UNIT     CODE           ?PR?RTC_SET_LT_TIMER?RTC
00000BH   00000DH   000003H   BYTE   OFFS..   CODE           ?CLOCK?0000B
00000EH   000012H   000005H   BYTE   UNIT     CODE           ?PR?__RTC_GET_DATE?RTC
000013H   000015H   000003H   BYTE   OFFS..   CODE           ?INT_HUB?00013
000016H   000022H   00000DH   BYTE   UNIT     CODE           ?PR?COM_LEAVE_POWERSAVE?COM
000023H   000025H   000003H   BYTE   OFFS..   CODE           ?COM?00023
000026H   00002AH   000005H   BYTE   UNIT     CODE           ?PR?ALARM0_SET_HOUR_12?ALARM
00002BH   00002DH   000003H   BYTE   OFFS..   CODE           ?BEEPER?0002B
00002EH   000AC8H   000A9BH   BYTE   UNIT     CODE           ?C?LIB_CODE
000AC9H   000F4BH   000483H   BYTE   UNIT     CODE           ?PR?PRINTF?PRINTF
000F4CH   0011B1H   000266H   BYTE   UNIT     CODE           ?PR?_INT_HUB_DUMP_EXT_STATUS?INT_HUB
0011B2H   0013FBH   00024AH   BYTE   UNIT     CODE           ?PR?RTC_DUMP?RTC
0013FCH   00162AH   00022FH   BYTE   UNIT     CODE           ?PR?SERIAL_DUMP?SERIAL_HUB
00162BH   001836H   00020CH   BYTE   UNIT     CODE           ?PR?_DISPLAY_TEST?SM_FUSE_TEST
001837H   0019FEH   0001C8H   BYTE   UNIT     CODE           ?PR?_SM_FUSE_TEST_HG_MPU?SM_FUSE_TEST
0019FFH   001BADH   0001AFH   BYTE   UNIT     CODE           ?PR?_SM_FUSE_TEST_THERMO?SM_FUSE_TEST
001BAEH   001D47H   00019AH   BYTE   UNIT     CODE           ?PR?_UPDATE_ALARM?SM_CLOCK_MOD_ALARM
LX51 LINKER/LOCATER V4.66.87.0                                                        06/02/2018  22:09:22  PAGE 6


001D48H   001ED9H   000192H   BYTE   UNIT     CODE           ?PR?_RUN_STATE_MACHINE?SM
001EDAH   00204DH   000174H   BYTE   UNIT     CODE           ?PR?_UPDATE_TIME?SM_FUSE_PARAM
00204EH   0021BCH   00016FH   BYTE   UNIT     CODE           ?PR?SM
0021BDH   002329H   00016DH   BYTE   UNIT     CODE           ?PR?CLOCK_INC_MS39?CLOCK
00232AH   002492H   000169H   BYTE   UNIT     CODE           ?PR?_SM_FUSE_TEST_SUBMOD0?SM_FUSE_TEST
002493H   0025E5H   000153H   BYTE   UNIT     CODE           ?PR?RUN_SHELL?SHELL
0025E6H   002731H   00014CH   BYTE   UNIT     CODE           ?PR?_CMD_THERMO?CMD_THERMO
002732H   002844H   000113H   BYTE   UNIT     CODE           ?PR?_CMD_SM?CMD_SM
002845H   002955H   000111H   BYTE   UNIT     CODE           ?PR?LT_TIMER_SUB_DATE?LT_TIMER
002956H   002A61H   00010CH   BYTE   UNIT     CODE           ?PR?_CLOCK_YYMMDD_TO_DAY?CLOCK
002A62H   002B67H   000106H   BYTE   UNIT     CODE           ?PR?_SCAN_KEY_PROC?KEY
002B68H   002C6DH   000106H   BYTE   UNIT     CODE           ?PR?_SM_FUSE_TIMER_SUBMOD0?SM_FUSE_TIMER
002C6EH   002D6FH   000102H   BYTE   UNIT     CODE           ?PR?_DISPLAY_GLOBAL_FLAG?SM_GLOBAL_FLAG_MOD
002D70H   002E6CH   0000FDH   BYTE   UNIT     CODE           ?PR?TIMER_INC_MS39?TIMER
002E6DH   002F60H   0000F4H   BYTE   UNIT     CODE           ?PR?SM_DUMP?SM
002F61H   003051H   0000F1H   BYTE   UNIT     CODE           ?PR?RTC_INITIALIZE?RTC
003052H   003141H   0000F0H   BYTE   UNIT     CODE           ?PR?__BEEPLER_PLAY?BEEPER
003142H   00322FH   0000EEH   BYTE   UNIT     CODE           ?PR?_CMD_BEEPER?CMD_BEEPER
003230H   00331CH   0000EDH   BYTE   UNIT     CODE           ?PR?_GETS?GETS
00331DH   0033FAH   0000DEH   BYTE   UNIT     CODE           ?PR?_DISPLAY_ALARM?SM_CLOCK_ALARM
0033FBH   0034D5H   0000DBH   BYTE   UNIT     CODE           ?PR?_ATOI?ATOI
0034D6H   0035A3H   0000CEH   BYTE   UNIT     CODE           ?PR?_SM_SET_STATE_BY_NAME?SM
0035A4H   003670H   0000CDH   BYTE   UNIT     CODE           ?PR?MPU_POWER_ON?MPU
003671H   00373CH   0000CCH   BYTE   UNIT     CODE           ?PR?RTC_ALARM_GET_MODE?RTC
00373DH   003803H   0000C7H   BYTE   UNIT     CODE           ?PR?_CHECK_AND_SET?SM_FUSE_TIMER
003804H   0038CAH   0000C7H   BYTE   UNIT     CODE           ?PR?_SM_FUSE_TIMER_SUBMOD2?SM_FUSE_TIMER
0038CBH   00398FH   0000C5H   BYTE   UNIT     CODE           ?PR?RTC
003990H   003A54H   0000C5H   BYTE   UNIT     CODE           ?PR?_I2C_WRITE?CMD_I2C
003A55H   003B16H   0000C2H   BYTE   UNIT     CODE           ?PR?UPDATE_HHMMSS?SM_CLOCK_MOD_TIME
003B17H   003BD2H   0000BCH   BYTE   UNIT     CODE           ?PR?_UPDATE_SET?SM_FUSE_TEST
003BD3H   003C8EH   0000BCH   BYTE   UNIT     CODE           ?PR?_CMD_TASK?CMD_TASK
003C8FH   003D48H   0000BAH   BYTE   UNIT     CODE           ?PR?_SM_CLOCK_MOD_TIME?SM_CLOCK_MOD_TIME
003D49H   003E00H   0000B8H   BYTE   UNIT     CODE           ?PR?_SM_SET_TABLE_BY_NAME?SM
003E01H   003EAFH   0000AFH   BYTE   UNIT     CODE           ?PR?ROM_RESET?ROM
003EB0H   003F56H   0000A7H   BYTE   UNIT     CODE           ?PR?RUN_TASK?TASK
003F57H   003FFCH   0000A6H   BYTE   UNIT     CODE           ?PR?_CMD_SERIAL?CMD_SERIAL
003FFDH   0040A1H   0000A5H   BYTE   UNIT     CODE           ?PR?_DISPLAY_PREARM?SM_FUSE_TIMER
0040A2H   00413FH   00009EH   BYTE   UNIT     CODE           ?PR?_RTC_DATE_SET_DATE?RTC
004140H   0041DCH   00009DH   BYTE   UNIT     CODE           ?PR?UPDATE_HHMMSS?SM_CLOCK_COUNTER
0041DDH   004278H   00009CH   BYTE   UNIT     CODE           ?PR?LT_TIMER_DEC_SEC?LT_TIMER
004279H   004312H   00009AH   BYTE   UNIT     CODE           ?PR?_INC_ONLY?SM_CLOCK_MOD_TIME
004313H   0043A8H   000096H   BYTE   UNIT     CODE           ?PR?_RTC_GET_TEMPERATURE?RTC
0043A9H   00443BH   000093H   BYTE   UNIT     CODE           ?PR?CLOCK_DUMP?CLOCK
00443CH   0044CDH   000092H   BYTE   UNIT     CODE           ?PR?_SM_CLOCK_COUNTER_SUBMOD0?SM_CLOCK_COUNTER
0044CEH   00455DH   000090H   BYTE   UNIT     CODE           ?PR?_ENTER_SET?SM_FUSE_TEST
00455EH   0045EDH   000090H   BYTE   UNIT     CODE           ?PR?_SM_FUSE_PARAM_SUBMOD6?SM_FUSE_PARAM
0045EEH   00467BH   00008EH   BYTE   UNIT     CODE           ?PR?LT_TIMER
00467CH   004708H   00008DH   BYTE   UNIT     CODE           ?PR?SCAN_THERMO?THERMO
004709H   004794H   00008CH   BYTE   UNIT     CODE           ?PR?UPDATE_YYMMDD?SM_CLOCK_MOD_TIME
004795H   00481FH   00008BH   BYTE   UNIT     CODE           ?PR?_RTC_ALARM_SET_MODE?RTC
004820H   0048AAH   00008BH   BYTE   UNIT     CODE           ?PR?DISPLAY_TEMP?SM_CLOCK_DISPLAY
0048ABH   004933H   000089H   BYTE   UNIT     CODE           ?PR?_I2C_READ?CMD_I2C
004934H   0049BAH   000087H   BYTE   UNIT     CODE           ?PR?_SM_SET_SUB_STATE_BY_NAME?SM
0049BBH   004A3EH   000084H   BYTE   UNIT     CODE           ?PR?LT_TIMER_GET_RELATIVE?LT_TIMER
004A3FH   004AC1H   000083H   BYTE   UNIT     CODE           ?PR?SM_FUSE_TEST
004AC2H   004B40H   00007FH   BYTE   UNIT     CODE           ?PR?_DISPLAY_SLOT?SM_CLOCK_TIMER
004B41H   004BBEH   00007EH   BYTE   UNIT     CODE           ?PR?_SCAN_FUSE?FUSE
004BBFH   004C3BH   00007DH   BYTE   UNIT     CODE           ?PR?ROM_DUMP?ROM
004C3CH   004CB7H   00007CH   BYTE   UNIT     CODE           ?PR?_CALL_CMD?SHELL
004CB8H   004D32H   00007BH   BYTE   UNIT     CODE           ?PR?_WRITE_ONLY?SM_FUSE_PARAM
004D33H   004DACH   00007AH   BYTE   UNIT     CODE           ?PR?TASK_DUMP?TASK
004DADH   004E26H   00007AH   BYTE   UNIT     CODE           ?PR?CLOCK
004E27H   004E9EH   000078H   BYTE   UNIT     CODE           ?PR?SCAN_ALARM?ALARM
004E9FH   004F16H   000078H   BYTE   UNIT     CODE           ?PR?_INC_ONLY?SM_FUSE_PARAM
004F17H   004F8EH   000078H   BYTE   UNIT     CODE           ?PR?_CMD_MPU?CMD_MPU
LX51 LINKER/LOCATER V4.66.87.0                                                        06/02/2018  22:09:22  PAGE 7


004F8FH   005003H   000075H   BYTE   UNIT     CODE           ?PR?_SCAN_HG?HG
005004H   005078H   000075H   BYTE   UNIT     CODE           ?PR?_SM_CLOCK_ALARM?SM_CLOCK_ALARM
005079H   0050E9H   000071H   BYTE   UNIT     CODE           ?PR?_SM_CLOCK_TIMER_SUBMOD1?SM_CLOCK_TIMER
0050EAH   00515AH   000071H   BYTE   UNIT     CODE           ?PR?VERIFY_PASSWORD?SM_FUSE_TIMER
00515BH   0051CBH   000071H   BYTE   UNIT     CODE           ?PR?_INC_WRITE?SM_GLOBAL_FLAG_MOD
0051CCH   005239H   00006EH   BYTE   UNIT     CODE           ?PR?_I2C_GETS?I2C
00523AH   0052A6H   00006DH   BYTE   UNIT     CODE           ?PR?COM_ISR?COM
0052A7H   005312H   00006CH   BYTE   UNIT     CODE           ?PR?INT_HUB_INITIALIZE?INT_HUB
005313H   00537DH   00006BH   BYTE   UNIT     CODE           ?PR?_CLOCK_SYNC_TO_RTC?CLOCK
00537EH   0053E8H   00006BH   BYTE   UNIT     CODE           ?PR?_SM_FUSE_PARAM_SET_TIME?SM_FUSE_PARAM
0053E9H   005452H   00006AH   BYTE   UNIT     CODE           ?PR?TIMER
005453H   0054B9H   000067H   BYTE   UNIT     CODE           ?PR?_WRITE_ONLY?SM_CLOCK_MOD_TIME
0054BAH   00551EH   000065H   BYTE   UNIT     CODE           ?PR?ALARM_DUMP?ALARM
00551FH   005583H   000065H   BYTE   UNIT     CODE           ?PR?_DISPLAY_LOGO?MOD_COMMON
005584H   0055E6H   000063H   BYTE   UNIT     CODE           ?PR?INT_HUB_GET_STATUS?INT_HUB
0055E7H   005647H   000061H   BYTE   UNIT     CODE           ?PR?_ALARM0_SET_ENABLE?ALARM
005648H   0056A8H   000061H   BYTE   UNIT     CODE           ?PR?_CLOCK_SYNC_FROM_RTC?CLOCK
0056A9H   005708H   000060H   BYTE   UNIT     CODE           ?PR?INT_HUB_DUMP?INT_HUB
005709H   005768H   000060H   BYTE   UNIT     CODE           ?PR?_SM_CLOCK_MOD_ALARM_SUBMOD0?SM_CLOCK_MOD_ALARM
005769H   0057C8H   000060H   BYTE   UNIT     CODE           ?PR?_INC_ONLY?SM_FUSE_TEST
0057C9H   005828H   000060H   BYTE   UNIT     CODE           ?PR?_SM_FUSE_DETONATE_SUBMOD0?SM_FUSE_DETONATE
005829H   005887H   00005FH   BYTE   UNIT     CODE           ?PR?_SCAN_INT_HUB_PROC?INT_HUB
005888H   0058E6H   00005FH   BYTE   UNIT     CODE           ?PR?_SM_CLOCK_COUNTER_SUBMOD2?SM_CLOCK_COUNTER
0058E7H   005942H   00005CH   BYTE   UNIT     CODE           ?PR?_SM_CLOCK_TIMER_SUBMOD2?SM_CLOCK_TIMER
005943H   00599EH   00005CH   BYTE   UNIT     CODE           ?PR?_SM_CLOCK_COUNTER_SUBMOD1?SM_CLOCK_COUNTER
00599FH   0059FAH   00005CH   BYTE   UNIT     CODE           ?PR?_SM_CLOCK_MOD_ALARM_SUBMOD1?SM_CLOCK_MOD_ALARM
0059FBH   005A56H   00005CH   BYTE   UNIT     CODE           ?PR?_SM_FUSE_SET?SM_FUSE_TEST
005A57H   005AB0H   00005AH   BYTE   UNIT     CODE           ?PR?REFRESH_LED?LED
005AB1H   005B0AH   00005AH   BYTE   UNIT     CODE           ?PR?THERMO
005B0BH   005B63H   000059H   BYTE   UNIT     CODE           ?PR?SM_DUMP_SUB_STATE?SM
005B64H   005BBCH   000059H   BYTE   UNIT     CODE           ?PR?_RTC_READ_DATA?RTC
005BBDH   005C15H   000059H   BYTE   UNIT     CODE           ?PR?_THERMO_LO_THRESHOLD_SET?THERMO
005C16H   005C6EH   000059H   BYTE   UNIT     CODE           ?PR?_WRITE_ONLY?SM_FUSE_TEST
005C6FH   005CC6H   000058H   BYTE   UNIT     CODE           ?PR?_LT_TIMER_SAVE_TO_ROM?LT_TIMER
005CC7H   005D1DH   000057H   BYTE   UNIT     CODE           ?PR?_RTC_WRITE_DATA?RTC
005D1EH   005D74H   000057H   BYTE   UNIT     CODE           ?PR?_SM_CLOCK_MOD_ALARM_SUBMOD2?SM_CLOCK_MOD_ALARM
005D75H   005DCBH   000057H   BYTE   UNIT     CODE           ?PR?_SM_FUSE_TIMER_SUBMOD1?SM_FUSE_TIMER
005DCCH   005E21H   000056H   BYTE   UNIT     CODE           ?PR?_THERMO_HI_THRESHOLD_SET?THERMO
005E22H   005E76H   000055H   BYTE   UNIT     CODE           ?PR?_I2C_PUTS?I2C
005E77H   005ECBH   000055H   BYTE   UNIT     CODE           ?PR?DISPLAY_POWER_VOLUME?SM_POWER_PACK_DISPLAY
005ECCH   005F1FH   000054H   BYTE   UNIT     CODE           ?PR?_CMD_HELP?CMD_HELP
005F20H   005F72H   000053H   BYTE   UNIT     CODE           ?PR?_SM_POWER_PACK_DISPLAY_SUBMOD0?SM_POWER_PACK_DISPLAY
005F73H   005FC5H   000053H   BYTE   UNIT     CODE           ?PR?_UPDATE_HG_MASK?SM_FUSE_TEST
005FC6H   006016H   000051H   BYTE   UNIT     CODE           ?PR?ALARM0_SYNC_TO_RTC?ALARM
006017H   006067H   000051H   BYTE   UNIT     CODE           ?PR?DELAY_TASK_CALL?DELAY_TASK
006068H   0060B7H   000050H   BYTE   UNIT     CODE           ?PR?SM_DUMP_STATE?SM
0060B8H   006107H   000050H   BYTE   UNIT     CODE           ?PR?_MOD_PROC?KEY
006108H   006157H   000050H   BYTE   UNIT     CODE           ?PR?_SET_PROC?KEY
006158H   0061A7H   000050H   BYTE   UNIT     CODE           ?PR?_LED_SET_CODE?LED
0061A8H   0061F6H   00004FH   BYTE   UNIT     CODE           ?PR?THERMO_GET_CURRENT?THERMO
0061F7H   006244H   00004EH   BYTE   UNIT     CODE           ?PR?SHELL
006245H   006290H   00004CH   BYTE   UNIT     CODE           ?PR?MAIN?MAIN
006291H   0062DCH   00004CH   BYTE   UNIT     CODE           ?PR?POWER_ENTER_POWERSAVE?POWER
0062DDH   006328H   00004CH   BYTE   UNIT     CODE           ?PR?_WRITE_ONLY?SM_CLOCK_MOD_ALARM
006329H   006372H   00004AH   BYTE   UNIT     CODE           ?PR?SCAN_LT_TIMER?LT_TIMER
006373H   0063BBH   000049H   BYTE   UNIT     CODE           ?PR?_DELAY_TASK_REG?DELAY_TASK
0063BCH   006404H   000049H   BYTE   UNIT     CODE           ?PR?_SHELL_SEARCH_CMD_BY_NAME?SHELL
006405H   00644DH   000049H   BYTE   UNIT     CODE           ?PR?_SM_CLOCK_DISPLAY_SUBMOD0?SM_CLOCK_DISPLAY
00644EH   006496H   000049H   BYTE   UNIT     CODE           ?PR?_SM_FUSE_PARAM_SUBMOD0?SM_FUSE_PARAM
006497H   0064DEH   000048H   BYTE   UNIT     CODE           ?PR?_SM_CLOCK_TIMER_SUBMOD0?SM_CLOCK_TIMER
0064DFH   006525H   000047H   BYTE   UNIT     CODE           ?PR?_CMD_DBG?CMD_DBG
006526H   00656AH   000045H   BYTE   UNIT     CODE           ?PR?RTC_DUMP_RAW?RTC
00656BH   0065AFH   000045H   BYTE   UNIT     CODE           ?PR?_INC_ONLY?SM_CLOCK_COUNTER
0065B0H   0065F3H   000044H   BYTE   UNIT     CODE           ?PR?_THERMO_TEMP_TO_HEX?THERMO
0065F4H   006637H   000044H   BYTE   UNIT     CODE           ?PR?MPU_POWER_OFF?MPU
LX51 LINKER/LOCATER V4.66.87.0                                                        06/02/2018  22:09:22  PAGE 8


006638H   00667AH   000043H   BYTE   UNIT     CODE           ?PR?BEEPER_INITIALIZE?BEEPER
00667BH   0066BCH   000042H   BYTE   UNIT     CODE           ?PR?BEEPER_BEEP_BEEP?BEEPER
0066BDH   0066FEH   000042H   BYTE   UNIT     CODE           ?PR?LT_TIMER_SYNC_TO_RTC?LT_TIMER
0066FFH   00673FH   000041H   BYTE   UNIT     CODE           ?PR?LT_TIMER_LOAD_FROM_ROM?LT_TIMER
006740H   006780H   000041H   BYTE   UNIT     CODE           ?PR?_THERMO_THRESHOLD_INC?THERMO
006781H   0067C0H   000040H   BYTE   UNIT     CODE           ?PR?_SM_CLOCK_COUNTER_SUBMOD3?SM_CLOCK_COUNTER
0067C1H   0067FFH   00003FH   BYTE   UNIT     CODE           ?PR?SM_SHOW_CURRENT?SM
006800H   00683EH   00003FH   BYTE   UNIT     CODE           ?PR?ALARM1_SYNC_TO_RTC?ALARM
00683FH   00687DH   00003FH   BYTE   UNIT     CODE           ?PR?BEEPER_BEEP_BEEP_ALWAYS?BEEPER
00687EH   0068BBH   00003EH   BYTE   UNIT     CODE           ?PR?__RTC_SET_HOUR?RTC
0068BCH   0068F9H   00003EH   BYTE   UNIT     CODE           ?PR?_FUSE_SET_FUSE_BROKE?FUSE
0068FAH   006937H   00003EH   BYTE   UNIT     CODE           ?PR?ROM_INITIALIZE?ROM
006938H   006974H   00003DH   BYTE   UNIT     CODE           ?PR?_DISPLAY_TIMER?SM_FUSE_TIMER
006975H   0069B1H   00003DH   BYTE   UNIT     CODE           ?PR?_CMD_REBOOT?CMD_REBOOT
0069B2H   0069EDH   00003CH   BYTE   UNIT     CODE           ?PR?_SM_FUSE_TEST_INIT?SM_FUSE_TEST
0069EEH   006A28H   00003BH   BYTE   UNIT     CODE           ?PR?_MPU_THRESHOLD_SET?MPU
006A29H   006A63H   00003BH   BYTE   UNIT     CODE           ?PR?CMD_SM
006A64H   006A9DH   00003AH   BYTE   UNIT     CODE           ?PR?LED_INITIALIZE?LED
006A9EH   006AD7H   00003AH   BYTE   UNIT     CODE           ?PR?LT_TIMER_SUB_MIN_HOUR?LT_TIMER
006AD8H   006B11H   00003AH   BYTE   UNIT     CODE           ?PR?LT_TIMER_SUB_HOUR_DATE?LT_TIMER
006B12H   006B4BH   00003AH   BYTE   UNIT     CODE           ?PR?SERIAL_HUB_INITIALIZE?SERIAL_HUB
006B4CH   006B85H   00003AH   BYTE   UNIT     CODE           ?PR?_ENTER_ALARM?SM_CLOCK_MOD_ALARM
006B86H   006BBEH   000039H   BYTE   UNIT     CODE           ?PR?_SHOW_SLOT_TITLE?SM_CLOCK_TIMER
006BBFH   006BF7H   000039H   BYTE   UNIT     CODE           ?PR?_UPDATE_PASSWORD?SM_FUSE_PARAM
006BF8H   006C30H   000039H   BYTE   UNIT     CODE           ?PR?_CMD_INT?CMD_INT
006C31H   006C68H   000038H   BYTE   UNIT     CODE           ?PR?SM_DUMP_TABLE?SM
006C69H   006CA0H   000038H   BYTE   UNIT     CODE           ?PR?CLOCK0_ISR?CLOCK
006CA1H   006CD8H   000038H   BYTE   UNIT     CODE           ?PR?_ENTER_TIME?SM_FUSE_PARAM
006CD9H   006D0FH   000037H   BYTE   UNIT     CODE           ?PR?_DEBUG_PRINTF?DEBUG
006D10H   006D45H   000036H   BYTE   UNIT     CODE           ?PR?_MOD_SET_PROC?KEY
006D46H   006D7BH   000036H   BYTE   UNIT     CODE           ?PR?FUSE_TRIGGER?FUSE
006D7CH   006DB0H   000035H   BYTE   UNIT     CODE           ?PR?THERMO_LOAD_CONFIG?THERMO
006DB1H   006DE5H   000035H   BYTE   UNIT     CODE           ?PR?SHELL_DUMP_CMD?SHELL
006DE6H   006E1AH   000035H   BYTE   UNIT     CODE           ?PR?_VPRINTF?VPRINTF
006E1BH   006E4EH   000034H   BYTE   UNIT     CODE           ?PR?ALARM_SAVE_ROM?ALARM
006E4FH   006E82H   000034H   BYTE   UNIT     CODE           ?PR?_ROM_READ?ROM
006E83H   006EB6H   000034H   BYTE   UNIT     CODE           ?PR?_INC_ONLY?SM_CLOCK_MOD_ALARM
006EB7H   006EE9H   000033H   BYTE   UNIT     CODE           ?PR?ALARM_LOAD_ROM?ALARM
006EEAH   006F1CH   000033H   BYTE   UNIT     CODE           ?PR?POWER_INITIALIZE?POWER
006F1DH   006F4FH   000033H   BYTE   UNIT     CODE           ?PR?_CMD_I2C?CMD_I2C
006F50H   006F81H   000032H   BYTE   UNIT     CODE           ?PR?INT0_ISR?KEY
006F82H   006FB3H   000032H   BYTE   UNIT     CODE           ?PR?_SM_CLOCK_POWERSAVE?SM_CLOCK_POWERSAVE
006FB4H   006FE4H   000031H   BYTE   UNIT     CODE           ?PR?_ROM_WRITE?ROM
006FE5H   007014H   000030H   BYTE   UNIT     CODE           ?PR?POWER_LEAVE_POWERSAVE?POWER
007015H   007044H   000030H   BYTE   UNIT     CODE           ?PR?POWER_TEST_POWERSAVE_TO?POWER
007045H   007074H   000030H   BYTE   UNIT     CODE           ?PR?_SERIAL_SET_CTL_BIT?SERIAL_HUB
007075H   0070A4H   000030H   BYTE   UNIT     CODE           ?PR?ROLL_BACK?SM_FUSE_TIMER
0070A5H   0070D4H   000030H   BYTE   UNIT     CODE           ?PR?DISPLAY_PASSWORD?SM_FUSE_TIMER
0070D5H   007103H   00002FH   BYTE   UNIT     CODE           ?PR?_PUTBUF?COM
007104H   007132H   00002FH   BYTE   UNIT     CODE           ?PR?I2C_READ?I2C
007133H   007161H   00002FH   BYTE   UNIT     CODE           ?PR?_ALARM0_TEST_ENABLE?ALARM
007162H   007190H   00002FH   BYTE   UNIT     CODE           ?PR?SCAN_MPU?MPU
007191H   0071BEH   00002EH   BYTE   UNIT     CODE           ?PR?SHOW_VERSION?MAIN
0071BFH   0071ECH   00002EH   BYTE   UNIT     CODE           ?PR?_SERIAL_TEST_CTL_BIT?SERIAL_HUB
0071EDH   00721AH   00002EH   BYTE   UNIT     CODE           ?PR?SM_FUSE_TIMER
00721BH   007247H   00002DH   BYTE   UNIT     CODE           ?PR?BEEPER_ISR?BEEPER
007248H   007274H   00002DH   BYTE   UNIT     CODE           ?PR?CLOCK_INITIALIZE?CLOCK
007275H   0072A1H   00002DH   BYTE   UNIT     CODE           ?PR?_SM_CLOCK_DISPLAY_SUBMOD1?SM_CLOCK_DISPLAY
0072A2H   0072CDH   00002CH   BYTE   UNIT     CODE           ?PR?__RTC_SET_MIN_SEC?RTC
0072CEH   0072F9H   00002CH   BYTE   UNIT     CODE           ?PR?__RTC_SET_DATE?RTC
0072FAH   007325H   00002CH   BYTE   UNIT     CODE           ?PR?_ALARM_PROC?ALARM
007326H   007351H   00002CH   BYTE   UNIT     CODE           ?PR?_WRITE_ONLY?SM_CLOCK_COUNTER
007352H   00737DH   00002CH   BYTE   UNIT     CODE           ?PR?_SM_CLOCK_MOD_TIME_SUBMOD0?SM_CLOCK_MOD_TIME
00737EH   0073A8H   00002BH   BYTE   UNIT     CODE           ?PR?_SM_CLOCK_MOD_ALARM_SUBMOD3?SM_CLOCK_MOD_ALARM
0073A9H   0073D3H   00002BH   BYTE   UNIT     CODE           ?PR?_SM_CLOCK_MOD_ALARM_SUBMOD4?SM_CLOCK_MOD_ALARM
LX51 LINKER/LOCATER V4.66.87.0                                                        06/02/2018  22:09:22  PAGE 9


0073D4H   0073FEH   00002BH   BYTE   UNIT     CODE           ?PR?_ENTER_YYMMDD?SM_CLOCK_MOD_TIME
0073FFH   007428H   00002AH   BYTE   UNIT     CODE           ?PR?BEEPER_BEEP?BEEPER
007429H   007452H   00002AH   BYTE   UNIT     CODE           ?PR?_TIMER_SAVE?TIMER
007453H   00747CH   00002AH   BYTE   UNIT     CODE           ?PR?_ENTER_HHMMSS?SM_CLOCK_COUNTER
00747DH   0074A6H   00002AH   BYTE   UNIT     CODE           ?PR?SM_CLOCK_COUNTER
0074A7H   0074D0H   00002AH   BYTE   UNIT     CODE           ?PR?_ENTER_HHMMSS?SM_CLOCK_MOD_TIME
0074D1H   0074FAH   00002AH   BYTE   UNIT     CODE           ?PR?_SM_GLOBAL_FLAG_MOD?SM_GLOBAL_FLAG_MOD
0074FBH   007523H   000029H   BYTE   UNIT     CODE           ?PR?_SM_CLOCK_DISPLAY_SUBMOD3?SM_CLOCK_DISPLAY
007524H   00754BH   000028H   BYTE   UNIT     CODE           ?PR?COM_INITIALIZE?COM
00754CH   007573H   000028H   BYTE   UNIT     CODE           ?PR?_RTC_SET_HOUR_12?RTC
007574H   00759BH   000028H   BYTE   UNIT     CODE           ?PR?FUSE_ENABLE?FUSE
00759CH   0075C3H   000028H   BYTE   UNIT     CODE           ?PR?HG_ENABLE?HG
0075C4H   0075EAH   000027H   BYTE   UNIT     CODE           ?PR?_INT_HUB_TEST_BIT?INT_HUB
0075EBH   007611H   000027H   BYTE   UNIT     CODE           ?PR?FUSE_POWER_ON?FUSE
007612H   007638H   000027H   BYTE   UNIT     CODE           ?PR?FUSE_POWER_OFF?FUSE
007639H   00765FH   000027H   BYTE   UNIT     CODE           ?PR?_SM_FUSE_TIMER_SUBMOD3?SM_FUSE_TIMER
007660H   007685H   000026H   BYTE   UNIT     CODE           ?PR?LED_SAVE?LED
007686H   0076ABH   000026H   BYTE   UNIT     CODE           ?PR?LED_RESTORE?LED
0076ACH   0076D1H   000026H   BYTE   UNIT     CODE           ?PR?FUSE_SET_TRIPWIRE_BROKE?FUSE
0076D2H   0076F7H   000026H   BYTE   UNIT     CODE           ?PR?_SM_CLOCK_COUNTER_SUBMOD5?SM_CLOCK_COUNTER
0076F8H   00771DH   000026H   BYTE   UNIT     CODE           ?PR?CMD_BEEPER
00771EH   007742H   000025H   BYTE   UNIT     CODE           ?PR?SM_INITIALIZE?SM
007743H   007767H   000025H   BYTE   UNIT     CODE           ?PR?_RTC_ENABLE_ALARM_INT?RTC
007768H   00778BH   000024H   BYTE   UNIT     CODE           ?PR?__RTC_GET_HOUR?RTC
00778CH   0077AFH   000024H   BYTE   UNIT     CODE           ?PR?POWER_INC_POWERSAVE_TO?POWER
0077B0H   0077D3H   000024H   BYTE   UNIT     CODE           ?PR?LT_TIMER_LEAVE_POWERSAVE?LT_TIMER
0077D4H   0077F7H   000024H   BYTE   UNIT     CODE           ?PR?_THERMO_HEX_TO_TEMP?THERMO
0077F8H   00781BH   000024H   BYTE   UNIT     CODE           ?PR?MPU_READ_INT_STATUS?MPU
00781CH   00783FH   000024H   BYTE   UNIT     CODE           ?PR?_SM_CLOCK_DISPLAY_INIT?SM_CLOCK_DISPLAY
007840H   007863H   000024H   BYTE   UNIT     CODE           ?PR?_SM_CLOCK_DISPLAY_SUBMOD2?SM_CLOCK_DISPLAY
007864H   007887H   000024H   BYTE   UNIT     CODE           ?PR?_SM_FUSE_PARAM_INIT?SM_FUSE_PARAM
007888H   0078AAH   000023H   BYTE   UNIT     CODE           ?PR?ALARM_SWITCH_OFF?ALARM
0078ABH   0078CDH   000023H   BYTE   UNIT     CODE           ?PR?LT_TIMER_SWITCH_OFF?LT_TIMER
0078CEH   0078F0H   000023H   BYTE   UNIT     CODE           ?PR?THERMO_LO_THRESHOLD_GET?THERMO
0078F1H   007913H   000023H   BYTE   UNIT     CODE           ?PR?_SM_CLOCK_COUNTER_SUBMOD4?SM_CLOCK_COUNTER
007914H   007936H   000023H   BYTE   UNIT     CODE           ?PR?SM_CLOCK_MOD_TIME
007937H   007958H   000022H   BYTE   UNIT     CODE           ?PR?I2C_GETACK?I2C
007959H   00797AH   000022H   BYTE   UNIT     CODE           ?PR?BEEPER_PLAY_MUSIC?BEEPER
00797BH   00799CH   000022H   BYTE   UNIT     CODE           ?PR?_TIMER_GET_MS10?TIMER
00799DH   0079BEH   000022H   BYTE   UNIT     CODE           ?PR?_TOGGLE_ALARM?SM_CLOCK_MOD_ALARM
0079BFH   0079E0H   000022H   BYTE   UNIT     CODE           ?PR?_INC_WRITE?SM_FUSE_TEST
0079E1H   007A01H   000021H   BYTE   UNIT     CODE           ?PR?THERMO_POWER_OFF?THERMO
007A02H   007A22H   000021H   BYTE   UNIT     CODE           ?PR?THERMO_POWER_ON?THERMO
007A23H   007A43H   000021H   BYTE   UNIT     CODE           ?PR?THERMO_HI_THRESHOLD_GET?THERMO
007A44H   007A64H   000021H   BYTE   UNIT     CODE           ?PR?SM_CLOCK_TIMER
007A65H   007A85H   000021H   BYTE   UNIT     CODE           ?PR?TOGGLE_ALARM_BS?SM_CLOCK_MOD_ALARM
007A86H   007AA6H   000021H   BYTE   UNIT     CODE           ?PR?CMD_I2C
007AA7H   007AC6H   000020H   BYTE   UNIT     CODE           ?C_C51STARTUP
007AC7H   007AE6H   000020H   BYTE   UNIT     CODE           ?PR?CLOCK_INC_DATE?CLOCK
007AE7H   007B06H   000020H   BYTE   UNIT     CODE           ?PR?DELAY_TASK
007B07H   007B26H   000020H   BYTE   UNIT     CODE           ?PR?MPU_LOAD_CONFIG?MPU
007B27H   007B46H   000020H   BYTE   UNIT     CODE           ?PR?TEST_AUTOSWITCH?SM_CLOCK_DISPLAY
007B47H   007B66H   000020H   BYTE   UNIT     CODE           ?PR?SM_CLOCK_DISPLAY
007B67H   007B86H   000020H   BYTE   UNIT     CODE           ?PR?CMD_THERMO
007B87H   007BA5H   00001FH   BYTE   UNIT     CODE           ?PR?_I2C_WRITE?I2C
007BA6H   007BC4H   00001FH   BYTE   UNIT     CODE           ?PR?MPU_ENABLE?MPU
007BC5H   007BE3H   00001FH   BYTE   UNIT     CODE           ?PR?_SM_FUSE_POWERSAVE_SUBMOD0?SM_FUSE_POWERSAVE
007BE4H   007C01H   00001EH   BYTE   UNIT     CODE           ?PR?LT_TIMER_START_RTC?LT_TIMER
007C02H   007C1FH   00001EH   BYTE   UNIT     CODE           ?PR?LT_TIMER_STOP_RTC?LT_TIMER
007C20H   007C3DH   00001EH   BYTE   UNIT     CODE           ?PR?LT_TIMER_SUB_SEC_MIN?LT_TIMER
007C3EH   007C5AH   00001DH   BYTE   UNIT     CODE           ?PR?RTC_ALARM_SET_HOUR_12?RTC
007C5BH   007C77H   00001DH   BYTE   UNIT     CODE           ?PR?_RTC_TEST_ALARM_INT?RTC
007C78H   007C94H   00001DH   BYTE   UNIT     CODE           ?PR?_RTC_TEST_ALARM_INT_FLAG?RTC
007C95H   007CB1H   00001DH   BYTE   UNIT     CODE           ?PR?LED
007CB2H   007CCEH   00001DH   BYTE   UNIT     CODE           ?PR?_CLOCK_GET_MON_DATE?CLOCK
LX51 LINKER/LOCATER V4.66.87.0                                                        06/02/2018  22:09:22  PAGE 10


007CCFH   007CEBH   00001DH   BYTE   UNIT     CODE           ?PR?_SM_POWER_PACK_POWERSAVE_SUBMOD0?SM_POWER_PACK_POWERSA
                                                             -VE
007CECH   007D08H   00001DH   BYTE   UNIT     CODE           ?PR?_SM_FUSE_TIMER_INIT?SM_FUSE_TIMER
007D09H   007D24H   00001CH   BYTE   UNIT     CODE           ?PR?_TIMER_INC_HOUR?TIMER
007D25H   007D40H   00001CH   BYTE   UNIT     CODE           ?PR?_SM_CLOCK_MOD_TIME_SUBMOD2?SM_CLOCK_MOD_TIME
007D41H   007D5CH   00001CH   BYTE   UNIT     CODE           ?PR?_SM_CLOCK_MOD_TIME_SUBMOD3?SM_CLOCK_MOD_TIME
007D5DH   007D78H   00001CH   BYTE   UNIT     CODE           ?PR?_SM_CLOCK_MOD_TIME_SUBMOD4?SM_CLOCK_MOD_TIME
007D79H   007D94H   00001CH   BYTE   UNIT     CODE           ?PR?_SM_CLOCK_MOD_TIME_SUBMOD5?SM_CLOCK_MOD_TIME
007D95H   007DB0H   00001CH   BYTE   UNIT     CODE           ?PR?_SM_FUSE_TEST_SUBMOD1?SM_FUSE_TEST
007DB1H   007DCCH   00001CH   BYTE   UNIT     CODE           ?PR?_SM_FUSE_TEST_SUBMOD2?SM_FUSE_TEST
007DCDH   007DE8H   00001CH   BYTE   UNIT     CODE           ?PR?_SM_FUSE_TEST_SUBMOD3?SM_FUSE_TEST
007DE9H   007E04H   00001CH   BYTE   UNIT     CODE           ?PR?_SM_FUSE_TEST_SUBMOD4?SM_FUSE_TEST
007E05H   007E20H   00001CH   BYTE   UNIT     CODE           ?PR?_SM_FUSE_TEST_SUBMOD5?SM_FUSE_TEST
007E21H   007E3CH   00001CH   BYTE   UNIT     CODE           ?PR?_SM_FUSE_TEST_SUBMOD6?SM_FUSE_TEST
007E3DH   007E58H   00001CH   BYTE   UNIT     CODE           ?PR?_SM_FUSE_TEST_SUBMOD7?SM_FUSE_TEST
007E59H   007E74H   00001CH   BYTE   UNIT     CODE           ?PR?_SM_FUSE_TEST_SUBMOD8?SM_FUSE_TEST
007E75H   007E90H   00001CH   BYTE   UNIT     CODE           ?PR?_SM_FUSE_PARAM_SUBMOD1?SM_FUSE_PARAM
007E91H   007EACH   00001CH   BYTE   UNIT     CODE           ?PR?_SM_FUSE_PARAM_SUBMOD2?SM_FUSE_PARAM
007EADH   007EC8H   00001CH   BYTE   UNIT     CODE           ?PR?_SM_FUSE_PARAM_SUBMOD3?SM_FUSE_PARAM
007EC9H   007EE4H   00001CH   BYTE   UNIT     CODE           ?PR?_SM_FUSE_PARAM_SUBMOD4?SM_FUSE_PARAM
007EE5H   007F00H   00001CH   BYTE   UNIT     CODE           ?PR?_SM_FUSE_PARAM_SUBMOD5?SM_FUSE_PARAM
007F01H   007F1CH   00001CH   BYTE   UNIT     CODE           ?PR?_SM_FUSE_TIMER_SUBMOD4?SM_FUSE_TIMER
007F1DH   007F38H   00001CH   BYTE   UNIT     CODE           ?PR?_SM_GLOBAL_FLAG_MOD_SUBMOD2?SM_GLOBAL_FLAG_MOD
007F39H   007F54H   00001CH   BYTE   UNIT     CODE           ?PR?_SM_GLOBAL_FLAG_MOD_SUBMOD3?SM_GLOBAL_FLAG_MOD
007F55H   007F6FH   00001BH   BYTE   UNIT     CODE           ?PR?POWER_5V_ENABLE?POWER
007F70H   007F8AH   00001BH   BYTE   UNIT     CODE           ?PR?BEEPER_INC_MUSIC_TO?BEEPER
007F8BH   007FA5H   00001BH   BYTE   UNIT     CODE           ?PR?BEEPER
007FA6H   007FC0H   00001BH   BYTE   UNIT     CODE           ?PR?HG_POWER_ON?HG
007FC1H   007FDBH   00001BH   BYTE   UNIT     CODE           ?PR?SERIAL_CTL_OUT?SERIAL_HUB
007FDCH   007FF6H   00001BH   BYTE   UNIT     CODE           ?PR?_SM_POWER_PACK_DISPLAY_INIT?SM_POWER_PACK_DISPLAY
007FF7H   008010H   00001AH   BYTE   UNIT     CODE           ?PR?_RTC_ALARM_SET_DATE?RTC
008011H   00802AH   00001AH   BYTE   UNIT     CODE           ?PR?_POWER_PROC?POWER
00802BH   008044H   00001AH   BYTE   UNIT     CODE           ?PR?_FUSE_PROC?FUSE
008045H   00805EH   00001AH   BYTE   UNIT     CODE           ?PR?LT_TIMER_DISPLAY?LT_TIMER
00805FH   008078H   00001AH   BYTE   UNIT     CODE           ?PR?_SM_CLOCK_TIMER_INIT?SM_CLOCK_TIMER
008079H   008092H   00001AH   BYTE   UNIT     CODE           ?PR?_SM_CLOCK_MOD_TIME_INIT?SM_CLOCK_MOD_TIME
008093H   0080ACH   00001AH   BYTE   UNIT     CODE           ?PR?_ENTER_PASSWORD?SM_FUSE_PARAM
0080ADH   0080C6H   00001AH   BYTE   UNIT     CODE           ?PR?SM_GLOBAL_FLAG_MOD
0080C7H   0080DFH   000019H   BYTE   UNIT     CODE           ?PR?_PUTCHAR?COM
0080E0H   0080F8H   000019H   BYTE   UNIT     CODE           ?PR?KEY_INITIALIZE?KEY
0080F9H   008111H   000019H   BYTE   UNIT     CODE           ?PR?SERIAL_HUB
008112H   00812AH   000019H   BYTE   UNIT     CODE           ?PR?_SM_CLOCK_MOD_TIME_SUBMOD1?SM_CLOCK_MOD_TIME
00812BH   008143H   000019H   BYTE   UNIT     CODE           ?PR?_SM_GLOBAL_FLAG_MOD_SUBMOD0?SM_GLOBAL_FLAG_MOD
008144H   00815CH   000019H   BYTE   UNIT     CODE           ?PR?_SM_GLOBAL_FLAG_MOD_SUBMOD1?SM_GLOBAL_FLAG_MOD
00815DH   008174H   000018H   BYTE   UNIT     CODE           ?PR?RTC_ENTER_POWERSAVE?RTC
008175H   00818CH   000018H   BYTE   UNIT     CODE           ?PR?RTC_LEAVE_POWERSAVE?RTC
00818DH   0081A4H   000018H   BYTE   UNIT     CODE           ?PR?ALARM_SWITCH_ON?ALARM
0081A5H   0081BCH   000018H   BYTE   UNIT     CODE           ?PR?CLOCK_LEAVE_POWERSAVE?CLOCK
0081BDH   0081D4H   000018H   BYTE   UNIT     CODE           ?PR?_TIMER_INC_MIN?TIMER
0081D5H   0081ECH   000018H   BYTE   UNIT     CODE           ?PR?_TIMER_INC_SEC?TIMER
0081EDH   008204H   000018H   BYTE   UNIT     CODE           ?PR?TIMER_CLR?TIMER
008205H   00821CH   000018H   BYTE   UNIT     CODE           ?PR?_SM_GLOBAL_FLAG_MOD_INIT?SM_GLOBAL_FLAG_MOD
00821DH   008234H   000018H   BYTE   UNIT     CODE           ?PR?CMD_DBG
008235H   00824BH   000017H   BYTE   UNIT     CODE           ?PR?COM
00824CH   008262H   000017H   BYTE   UNIT     CODE           ?PR?_RTC_CLR_ALARM_INT_FLAG?RTC
008263H   008279H   000017H   BYTE   UNIT     CODE           ?PR?_I2C_GET?I2C
00827AH   008290H   000017H   BYTE   UNIT     CODE           ?PR?_LED_CLR_BLINK?LED
008291H   0082A7H   000017H   BYTE   UNIT     CODE           ?PR?POWER_GET_POWERSAVE_TO?POWER
0082A8H   0082BEH   000017H   BYTE   UNIT     CODE           ?PR?BEEPER_INC_MUSIC_INDEX?BEEPER
0082BFH   0082D5H   000017H   BYTE   UNIT     CODE           ?PR?_CLOCK_IS_LEAP_YEAR?CLOCK
0082D6H   0082ECH   000017H   BYTE   UNIT     CODE           ?PR?LT_TIMER_SWITCH_DISPLAY?LT_TIMER
0082EDH   008303H   000017H   BYTE   UNIT     CODE           ?PR?SM_FUSE_PARAM
008304H   00831AH   000017H   BYTE   UNIT     CODE           ?PR?DISPLAY_DETONATE?SM_FUSE_DETONATE
00831BH   008330H   000016H   BYTE   UNIT     CODE           ?PR?RTC_ALARM_GET_HOUR?RTC
008331H   008346H   000016H   BYTE   UNIT     CODE           ?PR?RTC_ALARM_GET_HOUR_12?RTC
LX51 LINKER/LOCATER V4.66.87.0                                                        06/02/2018  22:09:22  PAGE 11


008347H   00835CH   000016H   BYTE   UNIT     CODE           ?PR?RTC_ALARM_GET_MIN?RTC
00835DH   008372H   000016H   BYTE   UNIT     CODE           ?PR?_RTC_ALARM_SET_DAY?RTC
008373H   008388H   000016H   BYTE   UNIT     CODE           ?PR?_RTC_ALARM_SET_SEC?RTC
008389H   00839EH   000016H   BYTE   UNIT     CODE           ?PR?I2C_STOP?I2C
00839FH   0083B4H   000016H   BYTE   UNIT     CODE           ?PR?_LED_SET_BLINK?LED
0083B5H   0083CAH   000016H   BYTE   UNIT     CODE           ?PR?CLOCK_INC_MONTH?CLOCK
0083CBH   0083E0H   000016H   BYTE   UNIT     CODE           ?PR?CLOCK_LEAVE_SHELL?CLOCK
0083E1H   0083F6H   000016H   BYTE   UNIT     CODE           ?PR?TIMER_START?TIMER
0083F7H   00840CH   000016H   BYTE   UNIT     CODE           ?PR?_THERMO_PROC?THERMO
00840DH   008422H   000016H   BYTE   UNIT     CODE           ?PR?CMD_MPU
008423H   008437H   000015H   BYTE   UNIT     CODE           ?PR?RTC_ALARM_GET_DATE?RTC
008438H   00844CH   000015H   BYTE   UNIT     CODE           ?PR?LED_LEAVE_POWERSAVE?LED
00844DH   008461H   000015H   BYTE   UNIT     CODE           ?PR?ALARM
008462H   008476H   000015H   BYTE   UNIT     CODE           ?PR?CLOCK_INC_YEAR?CLOCK
008477H   00848BH   000015H   BYTE   UNIT     CODE           ?PR?LT_TIMER_ENTER_POWERSAVE?LT_TIMER
00848CH   0084A0H   000015H   BYTE   UNIT     CODE           ?PR?LT_TIMER_SWITCH_ON?LT_TIMER
0084A1H   0084B5H   000015H   BYTE   UNIT     CODE           ?PR?_SM_CLOCK_COUNTER_INIT?SM_CLOCK_COUNTER
0084B6H   0084C9H   000014H   BYTE   UNIT     CODE           ?PR?COM_TRY_GET_KEY?COM
0084CAH   0084DDH   000014H   BYTE   UNIT     CODE           ?PR?RTC_ALARM_GET_DAY?RTC
0084DEH   0084F1H   000014H   BYTE   UNIT     CODE           ?PR?RTC_ALARM_GET_SEC?RTC
0084F2H   008505H   000014H   BYTE   UNIT     CODE           ?PR?RTC_ALARM_GET_MOD_STR?RTC
008506H   008519H   000014H   BYTE   UNIT     CODE           ?PR?RTC_GET_SQUARE_RATE_STR?RTC
00851AH   00852DH   000014H   BYTE   UNIT     CODE           ?PR?_I2C_PUT?I2C
00852EH   008541H   000014H   BYTE   UNIT     CODE           ?PR?TASK_INITIALIZE?TASK
008542H   008555H   000014H   BYTE   UNIT     CODE           ?PR?_TIMER_GET_HOUR?TIMER
008556H   008569H   000014H   BYTE   UNIT     CODE           ?PR?_TIMER_GET_MIN?TIMER
00856AH   00857DH   000014H   BYTE   UNIT     CODE           ?PR?_TIMER_GET_SEC?TIMER
00857EH   008591H   000014H   BYTE   UNIT     CODE           ?PR?LT_TIMER_INITIALIZE?LT_TIMER
008592H   0085A5H   000014H   BYTE   UNIT     CODE           ?PR?MPU
0085A6H   0085B9H   000014H   BYTE   UNIT     CODE           ?PR?TOGGLE_ALARM_MUSIC?SM_CLOCK_MOD_ALARM
0085BAH   0085CDH   000014H   BYTE   UNIT     CODE           ?PR?_SM_FUSE_POWERSAVE_SUBMOD1?SM_FUSE_POWERSAVE
0085CEH   0085E1H   000014H   BYTE   UNIT     CODE           ?PR?CMD_HELP
0085E2H   0085F5H   000014H   BYTE   UNIT     CODE           ?PR?GETCHAR?GETCHAR
0085F6H   008609H   000014H   BYTE   UNIT     CODE           ?PR?_ISSPACE?ISSPACE
00860AH   00861CH   000013H   BYTE   UNIT     CODE           ?PR?_TIME_PROC?SM
00861DH   00862FH   000013H   BYTE   UNIT     CODE           ?PR?SCAN_RTC?RTC
008630H   008642H   000013H   BYTE   UNIT     CODE           ?PR?_RTC_ALARM_SET_HOUR?RTC
008643H   008655H   000013H   BYTE   UNIT     CODE           ?PR?_RTC_ALARM_SET_MIN?RTC
008656H   008668H   000013H   BYTE   UNIT     CODE           ?PR?INT_HUB
008669H   00867BH   000013H   BYTE   UNIT     CODE           ?PR?LT_TIMER_INC_DATE?LT_TIMER
00867CH   00868EH   000013H   BYTE   UNIT     CODE           ?PR?MPU_THRESHOLD_GET?MPU
00868FH   0086A0H   000012H   BYTE   UNIT     CODE           ?PR?_RTC_DATE_SET_DAY?RTC
0086A1H   0086B2H   000012H   BYTE   UNIT     CODE           ?PR?I2C_PUTACK?I2C
0086B3H   0086C4H   000012H   BYTE   UNIT     CODE           ?PR?TIMER_INITIALIZE?TIMER
0086C5H   0086D6H   000012H   BYTE   UNIT     CODE           ?PR?__HG_GET_STATE?HG
0086D7H   0086E8H   000012H   BYTE   UNIT     CODE           ?PR?HG_GET_STATE?HG
0086E9H   0086FAH   000012H   BYTE   UNIT     CODE           ?PR?THERMO_HI_THRESHOLD_DEC?THERMO
0086FBH   00870CH   000012H   BYTE   UNIT     CODE           ?PR?THERMO_HI_THRESHOLD_INC?THERMO
00870DH   00871EH   000012H   BYTE   UNIT     CODE           ?PR?THERMO_LO_THRESHOLD_DEC?THERMO
00871FH   008730H   000012H   BYTE   UNIT     CODE           ?PR?THERMO_LO_THRESHOLD_INC?THERMO
008731H   008742H   000012H   BYTE   UNIT     CODE           ?PR?_MPU_THRESHOLD_INC?MPU
008743H   008754H   000012H   BYTE   UNIT     CODE           ?PR?SM_CLOCK_MOD_ALARM
008755H   008766H   000012H   BYTE   UNIT     CODE           ?PR?ROLL_BACK?SM_FUSE_POWERSAVE
008767H   008777H   000011H   BYTE   UNIT     CODE           ?PR?_SM_SET_STATE?SM
008778H   008788H   000011H   BYTE   UNIT     CODE           ?PR?_RTC_SET_SQUARE_RATE?RTC
008789H   008799H   000011H   BYTE   UNIT     CODE           ?PR?I2C_DELAY?I2C
00879AH   0087AAH   000011H   BYTE   UNIT     CODE           ?PR?KEY
0087ABH   0087BBH   000011H   BYTE   UNIT     CODE           ?PR?LED_CLEAR?LED
0087BCH   0087CCH   000011H   BYTE   UNIT     CODE           ?PR?LED_ENTER_POWERSAVE?LED
0087CDH   0087DDH   000011H   BYTE   UNIT     CODE           ?PR?INT1_ISR?INT_HUB
0087DEH   0087EDH   000010H   BYTE   UNIT     CODE           ?PR?_GETKEY?COM
0087EEH   0087FDH   000010H   BYTE   UNIT     CODE           ?PR?RTC_TIME_SET_HOUR_12?RTC
0087FEH   00880DH   000010H   BYTE   UNIT     CODE           ?PR?TIMER_SET_LED_AUTOREFRESH?TIMER
00880EH   00881DH   000010H   BYTE   UNIT     CODE           ?PR?_INC_WRITE?SM_CLOCK_MOD_ALARM
00881EH   00882DH   000010H   BYTE   UNIT     CODE           ?PR?_INC_AND_WRITE?SM_CLOCK_MOD_TIME
LX51 LINKER/LOCATER V4.66.87.0                                                        06/02/2018  22:09:22  PAGE 12


00882EH   00883DH   000010H   BYTE   UNIT     CODE           ?PR?SM_FUSE_POWERSAVE
00883EH   00884CH   00000FH   BYTE   UNIT     CODE           ?PR?RTC_SET_EOSC?RTC
00884DH   00885BH   00000FH   BYTE   UNIT     CODE           ?PR?RTC_SET_BBSQW?RTC
00885CH   00886AH   00000FH   BYTE   UNIT     CODE           ?PR?RTC_SET_CONV?RTC
00886BH   008879H   00000FH   BYTE   UNIT     CODE           ?PR?RTC_SET_INTCN?RTC
00887AH   008888H   00000FH   BYTE   UNIT     CODE           ?PR?RTC_SET_OSF?RTC
008889H   008897H   00000FH   BYTE   UNIT     CODE           ?PR?RTC_SET_EN32KHZ?RTC
008898H   0088A6H   00000FH   BYTE   UNIT     CODE           ?PR?TASK
0088A7H   0088B5H   00000FH   BYTE   UNIT     CODE           ?PR?_LED_CLR_DP?LED
0088B6H   0088C4H   00000FH   BYTE   UNIT     CODE           ?PR?_LED_SET_DP?LED
0088C5H   0088D3H   00000FH   BYTE   UNIT     CODE           ?PR?LT_TIMER_RESET?LT_TIMER
0088D4H   0088E2H   00000FH   BYTE   UNIT     CODE           ?PR?MPU_INITIALIZE?MPU
0088E3H   0088F1H   00000FH   BYTE   UNIT     CODE           ?PR?_SM_CLOCK_MOD_ALARM_INIT?SM_CLOCK_MOD_ALARM
0088F2H   008900H   00000FH   BYTE   UNIT     CODE           ?PR?_SM_FUSE_DETONATE_INIT?SM_FUSE_DETONATE
008901H   00890FH   00000FH   BYTE   UNIT     CODE           ?PR?CMD_TASK
008910H   00891EH   00000FH   BYTE   UNIT     CODE           ?PR?_ISDIGIT?ISDIGIT
00891FH   00892CH   00000EH   BYTE   UNIT     CODE           ?PR?COM_ENTER_POWERSAVE?COM
00892DH   00893AH   00000EH   BYTE   UNIT     CODE           ?PR?ALARM0_INC_MIN?ALARM
00893BH   008948H   00000EH   BYTE   UNIT     CODE           ?PR?ALARM0_INC_HOUR?ALARM
008949H   008956H   00000EH   BYTE   UNIT     CODE           ?PR?_DELAY_10US?MISC
008957H   008964H   00000EH   BYTE   UNIT     CODE           ?PR?_DELAY_MS?MISC
008965H   008972H   00000EH   BYTE   UNIT     CODE           ?PR?_BEEPER_STOP_PLAY?BEEPER
008973H   008980H   00000EH   BYTE   UNIT     CODE           ?PR?CLOCK_ENTER_POWERSAVE?CLOCK
008981H   00898EH   00000EH   BYTE   UNIT     CODE           ?PR?LT_TIMER_START_RAM?LT_TIMER
00898FH   00899CH   00000EH   BYTE   UNIT     CODE           ?PR?SM_POWER_PACK_DISPLAY
00899DH   0089AAH   00000EH   BYTE   UNIT     CODE           ?PR?SM_POWER_PACK_POWERSAVE
0089ABH   0089B8H   00000EH   BYTE   UNIT     CODE           ?PR?INC_PASSWORD?SM_FUSE_TIMER
0089B9H   0089C6H   00000EH   BYTE   UNIT     CODE           ?PR?SM_FUSE_DETONATE
0089C7H   0089D3H   00000DH   BYTE   UNIT     CODE           ?PR?RTC_GET_SQUARE_RATE?RTC
0089D4H   0089E0H   00000DH   BYTE   UNIT     CODE           ?PR?HG_POWER_OFF?HG
0089E1H   0089ECH   00000CH   BYTE   UNIT     CODE           ?PR?RTC_DATE_GET_YEAR?RTC
0089EDH   0089F8H   00000CH   BYTE   UNIT     CODE           ?PR?RTC_DATE_GET_MONTH?RTC
0089F9H   008A04H   00000CH   BYTE   UNIT     CODE           ?PR?TIMER_ENTER_POWERSAVE?TIMER
008A05H   008A10H   00000CH   BYTE   UNIT     CODE           ?PR?FUSE_INITIALIZE?FUSE
008A11H   008A1CH   00000CH   BYTE   UNIT     CODE           ?PR?HG_CB_SET_ENABLE?HG
008A1DH   008A28H   00000CH   BYTE   UNIT     CODE           ?PR?HG_INITIALIZE?HG
008A29H   008A34H   00000CH   BYTE   UNIT     CODE           ?PR?LT_TIMER_STOP_RAM?LT_TIMER
008A35H   008A40H   00000CH   BYTE   UNIT     CODE           ?PR?THERMO_INITIALIZE?THERMO
008A41H   008A4CH   00000CH   BYTE   UNIT     CODE           ?PR?THERMO_HI_THRESHOLD_REACH_TOP?THERMO
008A4DH   008A58H   00000CH   BYTE   UNIT     CODE           ?PR?THERMO_LO_THRESHOLD_REACH_TOP?THERMO
008A59H   008A64H   00000CH   BYTE   UNIT     CODE           ?PR?_CMD_NULL?SHELL
008A65H   008A70H   00000CH   BYTE   UNIT     CODE           ?PR?_SM_POWER_PACK_POWERSAVE_INIT?SM_POWER_PACK_POWERSAVE
008A71H   008A7BH   00000BH   BYTE   UNIT     CODE           ?PR?_SM_SET_SUB_STATE?SM
008A7CH   008A86H   00000BH   BYTE   UNIT     CODE           ?PR?I2C_START?I2C
008A87H   008A91H   00000BH   BYTE   UNIT     CODE           ?PR?CLOCK_INC_MIN?CLOCK
008A92H   008A9CH   00000BH   BYTE   UNIT     CODE           ?PR?CLOCK_INC_HOUR?CLOCK
008A9DH   008AA7H   00000BH   BYTE   UNIT     CODE           ?PR?HG
008AA8H   008AB2H   00000BH   BYTE   UNIT     CODE           ?PR?LT_TIMER_INC_YEAR?LT_TIMER
008AB3H   008ABDH   00000BH   BYTE   UNIT     CODE           ?PR?LT_TIMER_INC_MONTH?LT_TIMER
008ABEH   008AC8H   00000BH   BYTE   UNIT     CODE           ?PR?LT_TIMER_INC_HOUR?LT_TIMER
008AC9H   008AD3H   00000BH   BYTE   UNIT     CODE           ?PR?LT_TIMER_INC_MIN?LT_TIMER
008AD4H   008ADEH   00000BH   BYTE   UNIT     CODE           ?PR?LT_TIMER_INC_SEC?LT_TIMER
008ADFH   008AE9H   00000BH   BYTE   UNIT     CODE           ?PR?THERMO_HI_THRESHOLD_REACH_BOTTOM?THERMO
008AEAH   008AF4H   00000BH   BYTE   UNIT     CODE           ?PR?THERMO_LO_THRESHOLD_REACH_BOTTOM?THERMO
008AF5H   008AFFH   00000BH   BYTE   UNIT     CODE           ?PR?CMD_SERIAL
008B00H   008B09H   00000AH   BYTE   UNIT     CODE           ?PR?RTC_TEST_EOSC?RTC
008B0AH   008B13H   00000AH   BYTE   UNIT     CODE           ?PR?RTC_TEST_BBSQW?RTC
008B14H   008B1DH   00000AH   BYTE   UNIT     CODE           ?PR?RTC_TEST_CONV?RTC
008B1EH   008B27H   00000AH   BYTE   UNIT     CODE           ?PR?RTC_TEST_INTCN?RTC
008B28H   008B31H   00000AH   BYTE   UNIT     CODE           ?PR?RTC_TEST_OSF?RTC
008B32H   008B3BH   00000AH   BYTE   UNIT     CODE           ?PR?RTC_TEST_EN32KHZ?RTC
008B3CH   008B45H   00000AH   BYTE   UNIT     CODE           ?PR?RTC_TEST_BSY?RTC
008B46H   008B4FH   00000AH   BYTE   UNIT     CODE           ?PR?I2C_INIT?I2C
008B50H   008B59H   00000AH   BYTE   UNIT     CODE           ?PR?I2C
008B5AH   008B63H   00000AH   BYTE   UNIT     CODE           ?PR?INTERNAL_DELAY_MS?MISC
LX51 LINKER/LOCATER V4.66.87.0                                                        06/02/2018  22:09:22  PAGE 13


008B64H   008B6DH   00000AH   BYTE   UNIT     CODE           ?PR?THERMO_ENABLE?THERMO
008B6EH   008B77H   00000AH   BYTE   UNIT     CODE           ?PR?_INC_AND_WRITE?SM_CLOCK_COUNTER
008B78H   008B81H   00000AH   BYTE   UNIT     CODE           ?PR?_INC_AND_WRITE?SM_FUSE_PARAM
008B82H   008B8BH   00000AH   BYTE   UNIT     CODE           ?PR?_SM_FUSE_POWERSAVE_INIT?SM_FUSE_POWERSAVE
008B8CH   008B94H   000009H   BYTE   UNIT     CODE           ?PR?_RTC_TIME_SET_MIN?RTC
008B95H   008B9DH   000009H   BYTE   UNIT     CODE           ?PR?KEY_ENTER_POWERSAVE?KEY
008B9EH   008BA6H   000009H   BYTE   UNIT     CODE           ?PR?KEY_LEAVE_POWERSAVE?KEY
008BA7H   008BAFH   000009H   BYTE   UNIT     CODE           ?PR?ALARM_INITIALIZE?ALARM
008BB0H   008BB8H   000009H   BYTE   UNIT     CODE           ?PR?ALARM_ENTER_POWERSAVE?ALARM
008BB9H   008BC1H   000009H   BYTE   UNIT     CODE           ?PR?ALARM_LEAVE_POWERSAVE?ALARM
008BC2H   008BCAH   000009H   BYTE   UNIT     CODE           ?PR?POWER_RESET_POWERSAVE_TO?POWER
008BCBH   008BD3H   000009H   BYTE   UNIT     CODE           ?PR?BEEPER_ENTER_POWERSAVE?BEEPER
008BD4H   008BDCH   000009H   BYTE   UNIT     CODE           ?PR?BEEPER_LEAVE_POWERSAVE?BEEPER
008BDDH   008BE5H   000009H   BYTE   UNIT     CODE           ?PR?CLOCK_ENABLE_INTERRUPT?CLOCK
008BE6H   008BEEH   000009H   BYTE   UNIT     CODE           ?PR?TIMER_LEAVE_POWERSAVE?TIMER
008BEFH   008BF7H   000009H   BYTE   UNIT     CODE           ?PR?FUSE_ENTER_POWERSAVE?FUSE
008BF8H   008C00H   000009H   BYTE   UNIT     CODE           ?PR?FUSE_LEAVE_POWERSAVE?FUSE
008C01H   008C09H   000009H   BYTE   UNIT     CODE           ?PR?HG_ENTER_POWERSAVE?HG
008C0AH   008C12H   000009H   BYTE   UNIT     CODE           ?PR?HG_LEAVE_POWERSAVE?HG
008C13H   008C1BH   000009H   BYTE   UNIT     CODE           ?PR?THERMO_ENTER_POWERSAVE?THERMO
008C1CH   008C24H   000009H   BYTE   UNIT     CODE           ?PR?THERMO_LEAVE_POWERSAVE?THERMO
008C25H   008C2DH   000009H   BYTE   UNIT     CODE           ?PR?DELAY_TASK_INITIALIZE?DELAY_TASK
008C2EH   008C36H   000009H   BYTE   UNIT     CODE           ?PR?MPU_ENTER_POWERSAVE?MPU
008C37H   008C3FH   000009H   BYTE   UNIT     CODE           ?PR?MPU_LEAVE_POWERSAVE?MPU
008C40H   008C48H   000009H   BYTE   UNIT     CODE           ?PR?RESET_AUTO_SWITCH?SM_CLOCK_DISPLAY
008C49H   008C50H   000008H   BYTE   UNIT     CODE           ?PR?__RTC_GET_MIN_SEC?RTC
008C51H   008C58H   000008H   BYTE   UNIT     CODE           ?PR?RTC_TIME_GET_HOUR?RTC
008C59H   008C60H   000008H   BYTE   UNIT     CODE           ?PR?RTC_TIME_GET_HOUR_12?RTC
008C61H   008C68H   000008H   BYTE   UNIT     CODE           ?PR?RTC_TIME_GET_MIN?RTC
008C69H   008C70H   000008H   BYTE   UNIT     CODE           ?PR?RTC_TIME_GET_SEC?RTC
008C71H   008C78H   000008H   BYTE   UNIT     CODE           ?PR?_RTC_DATE_SET_YEAR?RTC
008C79H   008C80H   000008H   BYTE   UNIT     CODE           ?PR?_RTC_DATE_SET_MONTH?RTC
008C81H   008C88H   000008H   BYTE   UNIT     CODE           ?PR?RTC_DATE_GET_DATE?RTC
008C89H   008C90H   000008H   BYTE   UNIT     CODE           ?PR?THERMO_HI_THRESHOLD_RESET?THERMO
008C91H   008C98H   000008H   BYTE   UNIT     CODE           ?PR?THERMO_LO_THRESHOLD_RESET?THERMO
008C99H   008CA0H   000008H   BYTE   UNIT     CODE           ?PR?ROM_IS_FACTORY_RESET?ROM
008CA1H   008CA8H   000008H   BYTE   UNIT     CODE           ?PR?MPU_THRESHOLD_RESET?MPU
008CA9H   008CAFH   000007H   BYTE   UNIT     CODE           ?PR?__RTC_GET_HOUR_12?RTC
008CB0H   008CB6H   000007H   BYTE   UNIT     CODE           ?PR?SM_CLOCK_ALARM
008CB7H   008CBCH   000006H   BYTE   UNIT     CODE           ?PR?_RTC_TIME_SET_HOUR?RTC
008CBDH   008CC2H   000006H   BYTE   UNIT     CODE           ?PR?_RTC_TIME_SET_SEC?RTC
008CC3H   008CC8H   000006H   BYTE   UNIT     CODE           ?PR?RTC_DATE_GET_DAY?RTC
008CC9H   008CCEH   000006H   BYTE   UNIT     CODE           ?PR?ALARM0_GET_DAY_MASK?ALARM
008CCFH   008CD4H   000006H   BYTE   UNIT     CODE           ?PR?ALARM0_GET_MIN?ALARM
008CD5H   008CDAH   000006H   BYTE   UNIT     CODE           ?PR?ALARM0_GET_HOUR?ALARM
008CDBH   008CE0H   000006H   BYTE   UNIT     CODE           ?PR?POWER_GET_POWERSAVE_TO_S?POWER
008CE1H   008CE6H   000006H   BYTE   UNIT     CODE           ?PR?INTERNAL_DELAY_10US?MISC
008CE7H   008CECH   000006H   BYTE   UNIT     CODE           ?PR?BEEPER_GET_MUSIC_TO?BEEPER
008CEDH   008CF2H   000006H   BYTE   UNIT     CODE           ?PR?BEEPER_GET_MUSIC_INDEX?BEEPER
008CF3H   008CF8H   000006H   BYTE   UNIT     CODE           ?PR?_CLOCK_SWITCH_DISPLAY_MODE?CLOCK
008CF9H   008CFEH   000006H   BYTE   UNIT     CODE           ?PR?CLOCK_GET_DATE?CLOCK
008CFFH   008D04H   000006H   BYTE   UNIT     CODE           ?PR?CLOCK_GET_DAY?CLOCK
008D05H   008D0AH   000006H   BYTE   UNIT     CODE           ?PR?CLOCK_GET_MONTH?CLOCK
008D0BH   008D10H   000006H   BYTE   UNIT     CODE           ?PR?_TIMER_SET_MODE?TIMER
008D11H   008D16H   000006H   BYTE   UNIT     CODE           ?PR?LT_TIMER_GET_MONTH?LT_TIMER
008D17H   008D1CH   000006H   BYTE   UNIT     CODE           ?PR?LT_TIMER_GET_DATE?LT_TIMER
008D1DH   008D21H   000005H   BYTE   UNIT     CODE           ?PR?ALARM1_SET_ENABLE?ALARM
008D22H   008D26H   000005H   BYTE   UNIT     CODE           ?PR?BEEPER_SET_BEEP_ENABLE?BEEPER
008D27H   008D2BH   000005H   BYTE   UNIT     CODE           ?PR?CLOCK_DISPLAY?CLOCK
008D2CH   008D30H   000005H   BYTE   UNIT     CODE           ?PR?CLOCK_SET_HOUR_12?CLOCK
008D31H   008D35H   000005H   BYTE   UNIT     CODE           ?PR?CLOCK_GET_MS39?CLOCK
008D36H   008D3AH   000005H   BYTE   UNIT     CODE           ?PR?CLOCK_GET_SEC_256?CLOCK
008D3BH   008D3FH   000005H   BYTE   UNIT     CODE           ?PR?CLOCK_GET_SEC?CLOCK
008D40H   008D44H   000005H   BYTE   UNIT     CODE           ?PR?CLOCK_CLR_SEC?CLOCK
008D45H   008D49H   000005H   BYTE   UNIT     CODE           ?PR?CLOCK_GET_MIN?CLOCK
LX51 LINKER/LOCATER V4.66.87.0                                                        06/02/2018  22:09:22  PAGE 14


008D4AH   008D4EH   000005H   BYTE   UNIT     CODE           ?PR?CLOCK_GET_HOUR?CLOCK
008D4FH   008D53H   000005H   BYTE   UNIT     CODE           ?PR?CLOCK_GET_YEAR?CLOCK
008D54H   008D58H   000005H   BYTE   UNIT     CODE           ?PR?LT_TIMER_SET_HOUR_12?LT_TIMER
008D59H   008D5DH   000005H   BYTE   UNIT     CODE           ?PR?LT_TIMER_GET_YEAR?LT_TIMER
008D5EH   008D62H   000005H   BYTE   UNIT     CODE           ?PR?LT_TIMER_GET_HOUR?LT_TIMER
008D63H   008D67H   000005H   BYTE   UNIT     CODE           ?PR?LT_TIMER_GET_MIN?LT_TIMER
008D68H   008D6CH   000005H   BYTE   UNIT     CODE           ?PR?LT_TIMER_GET_SEC?LT_TIMER
008D6DH   008D71H   000005H   BYTE   UNIT     CODE           ?PR?DEBUG_ONOFF?DEBUG
008D72H   008D75H   000004H   BYTE   UNIT     CODE           ?PR?POWER_5V_GET_ENABLE?POWER
008D76H   008D78H   000003H   BYTE   UNIT     CODE           ?PR?_NULL_PROC?SM
008D79H   008D7BH   000003H   BYTE   UNIT     CODE           ?PR?RTC_IS_LT_TIMER?RTC
008D7CH   008D7EH   000003H   BYTE   UNIT     CODE           ?PR?ALARM0_GET_HOUR_12?ALARM
008D7FH   008D81H   000003H   BYTE   UNIT     CODE           ?PR?ALARM1_TEST_ENABLE?ALARM
008D82H   008D84H   000003H   BYTE   UNIT     CODE           ?PR?POWER_TEST_FLAG?POWER
008D85H   008D87H   000003H   BYTE   UNIT     CODE           ?PR?POWER_SET_FLAG?POWER
008D88H   008D8AH   000003H   BYTE   UNIT     CODE           ?PR?POWER_CLR_FLAG?POWER
008D8BH   008D8DH   000003H   BYTE   UNIT     CODE           ?PR?POWER_GET_VOLUME?POWER
008D8EH   008D90H   000003H   BYTE   UNIT     CODE           ?PR?BEEPER_GET_BEEP_ENABLE?BEEPER
008D91H   008D93H   000003H   BYTE   UNIT     CODE           ?PR?BEEPER_STOP_MUSIC?BEEPER
008D94H   008D96H   000003H   BYTE   UNIT     CODE           ?PR?CLOCK_GET_HOUR_12?CLOCK
008D97H   008D99H   000003H   BYTE   UNIT     CODE           ?PR?CLOCK_ENTER_SHELL?CLOCK
008D9AH   008D9CH   000003H   BYTE   UNIT     CODE           ?PR?TIMER_STOP?TIMER
008D9DH   008D9FH   000003H   BYTE   UNIT     CODE           ?PR?LT_TIMER_GET_HOUR_12?LT_TIMER
008DA0H   008DA2H   000003H   BYTE   UNIT     CODE           ?PR?DEBUG_INITIALIZE?DEBUG
008DA3H   009809H   000A67H   BYTE   UNIT     CONST          ?CO?SM
00980AH   009EB0H   0006A7H   BYTE   UNIT     CONST          ?CO?SHELL
009EB1H   00A46AH   0005BAH   BYTE   UNIT     CONST          ?CO?CLOCK
00A46BH   00A8BAH   000450H   BYTE   UNIT     CONST          ?CO?RTC
00A8BBH   00AC48H   00038EH   BYTE   UNIT     CONST          ?CO?BEEPER
00AC49H   00AF94H   00034CH   BYTE   UNIT     CONST          ?CO?SM_FUSE_TEST
00AF95H   00B22CH   000298H   BYTE   UNIT     CONST          ?CO?INT_HUB
00B22DH   00B479H   00024DH   BYTE   UNIT     CONST          ?CO?LT_TIMER
00B47AH   00B6AAH   000231H   BYTE   UNIT     CONST          ?CO?TASK
00B6ABH   00B8D0H   000226H   BYTE   UNIT     CONST          ?CO?SM_FUSE_TIMER
00B8D1H   00BAD6H   000206H   BYTE   UNIT     CONST          ?CO?SM_CLOCK_MOD_TIME
00BAD7H   00BCCCH   0001F6H   BYTE   UNIT     CONST          ?CO?SM_FUSE_PARAM
00BCCDH   00BEB3H   0001E7H   BYTE   UNIT     CONST          ?CO?SM_CLOCK_COUNTER
00BEB4H   00C08DH   0001DAH   BYTE   UNIT     CONST          ?CO?SERIAL_HUB
00C08EH   00C254H   0001C7H   BYTE   UNIT     CONST          ?CO?SM_CLOCK_MOD_ALARM
00C255H   00C3F6H   0001A2H   BYTE   UNIT     CONST          ?CO?THERMO
00C3F7H   00C577H   000181H   BYTE   UNIT     CONST          ?CO?KEY
00C578H   00C6F0H   000179H   BYTE   UNIT     CONST          ?CO?SM_GLOBAL_FLAG_MOD
00C6F1H   00C861H   000171H   BYTE   UNIT     CONST          ?CO?ALARM
00C862H   00C9ADH   00014CH   BYTE   UNIT     CONST          ?CO?SM_CLOCK_DISPLAY
00C9AEH   00CA9DH   0000F0H   BYTE   UNIT     CONST          ?CO?SM_CLOCK_TIMER
00CA9EH   00CB8AH   0000EDH   BYTE   UNIT     CONST          ?CO?FUSE
00CB8BH   00CC68H   0000DEH   BYTE   UNIT     CONST          ?CO?HG
00CC69H   00CD3AH   0000D2H   BYTE   UNIT     CONST          ?CO?MPU
00CD3BH   00CE02H   0000C8H   BYTE   UNIT     CONST          ?CO?SM_FUSE_POWERSAVE
00CE03H   00CE9DH   00009BH   BYTE   UNIT     CONST          ?CO?SM_POWER_PACK_POWERSAVE
00CE9EH   00CF30H   000093H   BYTE   UNIT     CONST          ?CO?SM_POWER_PACK_DISPLAY
00CF31H   00CFB2H   000082H   BYTE   UNIT     CONST          ?CO?POWER
00CFB3H   00D033H   000081H   BYTE   UNIT     CONST          ?CO?MAIN
00D034H   00D0B3H   000080H   BYTE   UNIT     CONST          ?CO?SM_FUSE_DETONATE
00D0B4H   00D130H   00007DH   BYTE   UNIT     CONST          ?CO?CMD_I2C
00D131H   00D1ACH   00007CH   BYTE   UNIT     CONST          ?CO?ROM
00D1ADH   00D21FH   000073H   BYTE   UNIT     CONST          ?CO?CMD_BEEPER
00D220H   00D28EH   00006FH   BYTE   UNIT     CONST          ?CO?LED
00D28FH   00D2F0H   000062H   BYTE   UNIT     CONST          ?CO?CMD_THERMO
00D2F1H   00D34AH   00005AH   BYTE   UNIT     CONST          ?CO?DELAY_TASK
00D34BH   00D3A3H   000059H   BYTE   UNIT     CONST          ?CO?TIMER
00D3A4H   00D3FCH   000059H   BYTE   UNIT     CONST          ?CO?SM_CLOCK_ALARM
00D3FDH   00D453H   000057H   BYTE   UNIT     CONST          ?CO?SM_CLOCK_POWERSAVE
00D454H   00D498H   000045H   BYTE   UNIT     CONST          ?CO?CMD_SM
00D499H   00D4C2H   00002AH   BYTE   UNIT     CONST          ?CO?COM
LX51 LINKER/LOCATER V4.66.87.0                                                        06/02/2018  22:09:22  PAGE 15


00D4C3H   00D4E7H   000025H   BYTE   UNIT     CONST          ?CO?CMD_MPU
00D4E8H   00D505H   00001EH   BYTE   UNIT     CONST          ?CO?CMD_SERIAL
00D506H   00D522H   00001DH   BYTE   UNIT     CONST          ?CO?CMD_HELP
00D523H   00D53EH   00001CH   BYTE   UNIT     CONST          ?CO?CMD_DBG
00D53FH   00D554H   000016H   BYTE   UNIT     CONST          ?CO?MOD_COMMON
00D555H   00D558H   000004H   BYTE   UNIT     CONST          ?CO?CMD_INT
00D559H   00D55CH   000004H   BYTE   UNIT     CONST          ?CO?CMD_REBOOT

* * * * * * * * * * *  X D A T A   M E M O R Y  * * * * * * * * * * * * *
000000H   00007EH   00007FH   BYTE   UNIT     XDATA          _XDATA_GROUP_
00007FH   0000A7H   000029H   BYTE   UNIT     XDATA          ?XD?SHELL
0000A8H   0000BCH   000015H   BYTE   UNIT     XDATA          ?XD?TIMER
0000BDH   0000C5H   000009H   BYTE   UNIT     XDATA          ?XD?LED
0000C6H   0000CAH   000005H   BYTE   UNIT     XDATA          ?XD?RTC
0000CBH   0000CFH   000005H   BYTE   UNIT     XDATA          ?XD?DELAY_TASK
0000D0H   0000D3H   000004H   BYTE   UNIT     XDATA          ?XD?COM
0000D4H   0000D6H   000003H   BYTE   UNIT     XDATA          ?XD?SM
0000D7H   0000D9H   000003H   BYTE   UNIT     XDATA          ?XD?ALARM
0000DAH   0000DCH   000003H   BYTE   UNIT     XDATA          ?XD?MOD_COMMON
0000DDH   0000DFH   000003H   BYTE   UNIT     XDATA          ?XD?BEEPER
0000E0H   0000E1H   000002H   BYTE   UNIT     XDATA          ?XD?KEY
0000E2H   0000E3H   000002H   BYTE   UNIT     XDATA          ?XD?POWER
0000E4H   0000E5H   000002H   BYTE   UNIT     XDATA          ?XD?SERIAL_HUB
0000E6H   0000E7H   000002H   BYTE   UNIT     XDATA          ?XD?THERMO
0000E8H   0000E8H   000001H   BYTE   UNIT     XDATA          ?XD?CLOCK
0000E9H   0000E9H   000001H   BYTE   UNIT     XDATA          ?XD?HG
0000EAH   0000EAH   000001H   BYTE   UNIT     XDATA          ?XD?MPU
0000EBH   0000EBH   000001H   BYTE   UNIT     XDATA          ?XD?CMD_I2C
0000ECH   0000ECH   000001H   BYTE   UNIT     XDATA          ?XD?GETCHAR



OVERLAY MAP OF MODULE:   Clock (SM)


FUNCTION/MODULE                                BIT_GROUP   DATA_GROUP   XDATA_GROUP
--> CALLED FUNCTION/MODULE                    START  STOP  START  STOP  START  STOP
===================================================================================
?C_C51STARTUP                                 ----- -----  ----- -----  ----- -----
  +--> MAIN/MAIN

MAIN/MAIN                                     ----- -----  ----- -----  ----- -----
  +--> DEBUG_INITIALIZE/DEBUG
  +--> COM_INITIALIZE/COM
  +--> SHOW_VERSION/MAIN
  +--> ROM_INITIALIZE/ROM
  +--> SERIAL_HUB_INITIALIZE/SERIAL_HUB
  +--> RTC_INITIALIZE/RTC
  +--> CLOCK_INITIALIZE/CLOCK
  +--> KEY_INITIALIZE/KEY
  +--> LED_INITIALIZE/LED
  +--> POWER_INITIALIZE/POWER
  +--> ALARM_INITIALIZE/ALARM
  +--> LT_TIMER_INITIALIZE/LT_TIMER
  +--> TIMER_INITIALIZE/TIMER
  +--> BEEPER_INITIALIZE/BEEPER
  +--> THERMO_INITIALIZE/THERMO
  +--> FUSE_INITIALIZE/FUSE
  +--> MPU_INITIALIZE/MPU
  +--> HG_INITIALIZE/HG
  +--> INT_HUB_INITIALIZE/INT_HUB
  +--> TASK_INITIALIZE/TASK
  +--> SM_INITIALIZE/SM
  +--> DELAY_TASK_INITIALIZE/DELAY_TASK
  +--> RUN_TASK/TASK
LX51 LINKER/LOCATER V4.66.87.0                                                        06/02/2018  22:09:22  PAGE 16


  +--> RUN_SHELL/SHELL

DEBUG_INITIALIZE/DEBUG                        ----- -----  ----- -----  ----- -----

COM_INITIALIZE/COM                            ----- -----  ----- -----  ----- -----

SHOW_VERSION/MAIN                             ----- -----  ----- -----  ----- -----
  +--> _DEBUG_PRINTF/DEBUG

_DEBUG_PRINTF/DEBUG                           ----- -----  ----- -----  001EH 004BH
  +--> _VPRINTF/VPRINTF

_VPRINTF/VPRINTF                              ----- -----  ----- -----  004CH 004EH
  +--> PRINTF/PRINTF

PRINTF/PRINTF                                 20H.2 21H.2  0018H 001CH  004FH 007EH
  +--> _PUTCHAR/COM

_PUTCHAR/COM                                  ----- -----  ----- -----  ----- -----
  +--> _PUTBUF/COM

_PUTBUF/COM                                   ----- -----  ----- -----  ----- -----

ROM_INITIALIZE/ROM                            ----- -----  ----- -----  ----- -----
  +--> _DEBUG_PRINTF/DEBUG
  +--> ROM_IS_FACTORY_RESET/ROM
  +--> ROM_RESET/ROM
  +--> ROM_DUMP/ROM

ROM_IS_FACTORY_RESET/ROM                      ----- -----  ----- -----  ----- -----

ROM_RESET/ROM                                 ----- -----  ----- -----  ----- -----
  +--> _ROM_WRITE/ROM

_ROM_WRITE/ROM                                ----- -----  ----- -----  0017H 0018H
  +--> I2C_INIT/I2C
  +--> _I2C_PUT/I2C
  +--> _DEBUG_PRINTF/DEBUG

I2C_INIT/I2C                                  ----- -----  ----- -----  ----- -----
  +--> I2C_DELAY/I2C

I2C_DELAY/I2C                                 ----- -----  ----- -----  ----- -----

_I2C_PUT/I2C                                  ----- -----  ----- -----  001DH 001DH
  +--> _I2C_PUTS/I2C

_I2C_PUTS/I2C                                 ----- -----  ----- -----  001EH 0023H
  +--> I2C_START/I2C
  +--> _I2C_WRITE/I2C
  +--> I2C_GETACK/I2C
  +--> I2C_STOP/I2C

I2C_START/I2C                                 ----- -----  ----- -----  ----- -----
  +--> I2C
  +--> I2C_DELAY/I2C

I2C                                           ----- -----  ----- -----  ----- -----
  +--> I2C_DELAY/I2C

_I2C_WRITE/I2C                                ----- -----  ----- -----  ----- -----
  +--> I2C_DELAY/I2C

I2C_GETACK/I2C                                20H.2 20H.2  ----- -----  ----- -----
  +--> I2C
LX51 LINKER/LOCATER V4.66.87.0                                                        06/02/2018  22:09:22  PAGE 17


  +--> I2C_DELAY/I2C

I2C_STOP/I2C                                  ----- -----  ----- -----  ----- -----
  +--> I2C_DELAY/I2C
  +--> I2C

ROM_DUMP/ROM                                  ----- -----  ----- -----  ----- -----
  +--> _ROM_READ/ROM

_ROM_READ/ROM                                 ----- -----  ----- -----  0016H 0017H
  +--> I2C_INIT/I2C
  +--> _I2C_GET/I2C
  +--> _DEBUG_PRINTF/DEBUG

_I2C_GET/I2C                                  ----- -----  ----- -----  001DH 001FH
  +--> _I2C_GETS/I2C

_I2C_GETS/I2C                                 ----- -----  ----- -----  0020H 0025H
  +--> I2C_START/I2C
  +--> _I2C_WRITE/I2C
  +--> I2C_GETACK/I2C
  +--> I2C_STOP/I2C
  +--> I2C_READ/I2C
  +--> I2C_PUTACK/I2C

I2C_READ/I2C                                  20H.2 20H.2  ----- -----  ----- -----
  +--> I2C_DELAY/I2C
  +--> I2C

I2C_PUTACK/I2C                                20H.2 20H.2  ----- -----  ----- -----
  +--> I2C_DELAY/I2C

SERIAL_HUB_INITIALIZE/SERIAL_HUB              ----- -----  ----- -----  ----- -----
  +--> _DEBUG_PRINTF/DEBUG
  +--> _I2C_PUT/I2C
  +--> SERIAL_CTL_OUT/SERIAL_HUB

SERIAL_CTL_OUT/SERIAL_HUB                     ----- -----  ----- -----  ----- -----
  +--> _I2C_PUT/I2C
  +--> SERIAL_DUMP/SERIAL_HUB

SERIAL_DUMP/SERIAL_HUB                        ----- -----  ----- -----  ----- -----
  +--> _DEBUG_PRINTF/DEBUG
  +--> _SERIAL_TEST_CTL_BIT/SERIAL_HUB
  +--> SERIAL_HUB

_SERIAL_TEST_CTL_BIT/SERIAL_HUB               ----- -----  ----- -----  ----- -----
  +--> SERIAL_HUB

SERIAL_HUB                                    ----- -----  ----- -----  ----- -----

RTC_INITIALIZE/RTC                            ----- -----  ----- -----  0000H 0001H
  +--> _DEBUG_PRINTF/DEBUG
  +--> RTC_DUMP_RAW/RTC
  +--> RTC_DUMP/RTC
  +--> RTC
  +--> _ROM_READ/ROM
  +--> I2C_INIT/I2C
  +--> _RTC_READ_DATA/RTC
  +--> RTC_TIME_GET_HOUR/RTC
  +--> RTC_TIME_SET_HOUR_12/RTC
  +--> _RTC_TIME_SET_HOUR/RTC
  +--> ROM_IS_FACTORY_RESET/ROM
  +--> _RTC_WRITE_DATA/RTC
  +--> RTC_DATE_GET_YEAR/RTC
LX51 LINKER/LOCATER V4.66.87.0                                                        06/02/2018  22:09:22  PAGE 18


  +--> RTC_DATE_GET_MONTH/RTC
  +--> RTC_DATE_GET_DATE/RTC
  +--> _CLOCK_YYMMDD_TO_DAY/CLOCK
  +--> _RTC_DATE_SET_DAY/RTC
  +--> _RTC_ENABLE_ALARM_INT/RTC
  +--> _RTC_CLR_ALARM_INT_FLAG/RTC
  +--> RTC_SET_INTCN/RTC
  +--> RTC_SET_EN32KHZ/RTC
  +--> _RTC_TIME_SET_MIN/RTC
  +--> _RTC_TIME_SET_SEC/RTC
  +--> _RTC_DATE_SET_YEAR/RTC
  +--> _RTC_DATE_SET_MONTH/RTC
  +--> _RTC_DATE_SET_DATE/RTC

RTC_DUMP_RAW/RTC                              ----- -----  ----- -----  0002H 0003H
  +--> _DEBUG_PRINTF/DEBUG
  +--> _I2C_GET/I2C

RTC_DUMP/RTC                                  ----- -----  ----- -----  ----- -----
  +--> _RTC_READ_DATA/RTC
  +--> RTC_DATE_GET_YEAR/RTC
  +--> RTC_DATE_GET_MONTH/RTC
  +--> RTC_DATE_GET_DATE/RTC
  +--> RTC_DATE_GET_DAY/RTC
  +--> _DEBUG_PRINTF/DEBUG
  +--> RTC_TIME_GET_HOUR/RTC
  +--> RTC_TIME_GET_MIN/RTC
  +--> RTC_TIME_GET_SEC/RTC
  +--> RTC_TIME_GET_HOUR_12/RTC
  +--> RTC_ALARM_GET_SEC/RTC
  +--> RTC
  +--> RTC_ALARM_GET_HOUR_12/RTC
  +--> _RTC_TEST_ALARM_INT/RTC
  +--> _RTC_TEST_ALARM_INT_FLAG/RTC
  +--> RTC_TEST_EOSC/RTC
  +--> RTC_TEST_BBSQW/RTC
  +--> RTC_TEST_CONV/RTC
  +--> RTC_GET_SQUARE_RATE_STR/RTC
  +--> RTC_TEST_INTCN/RTC
  +--> RTC_TEST_OSF/RTC
  +--> RTC_TEST_EN32KHZ/RTC
  +--> RTC_TEST_BSY/RTC
  +--> RTC_ALARM_GET_DAY/RTC
  +--> RTC_ALARM_GET_DATE/RTC
  +--> RTC_ALARM_GET_HOUR/RTC
  +--> RTC_ALARM_GET_MIN/RTC
  +--> RTC_ALARM_GET_MOD_STR/RTC

_RTC_READ_DATA/RTC                            ----- -----  ----- -----  0017H 0017H
  +--> RTC
  +--> _I2C_GETS/I2C

RTC                                           ----- -----  ----- -----  ----- -----

RTC_DATE_GET_YEAR/RTC                         ----- -----  ----- -----  ----- -----
  +--> RTC

RTC_DATE_GET_MONTH/RTC                        ----- -----  ----- -----  ----- -----
  +--> RTC

RTC_DATE_GET_DATE/RTC                         ----- -----  ----- -----  ----- -----
  +--> __RTC_GET_DATE/RTC

__RTC_GET_DATE/RTC                            ----- -----  ----- -----  ----- -----
  +--> RTC
LX51 LINKER/LOCATER V4.66.87.0                                                        06/02/2018  22:09:22  PAGE 19



RTC_DATE_GET_DAY/RTC                          ----- -----  ----- -----  ----- -----

RTC_TIME_GET_HOUR/RTC                         ----- -----  ----- -----  ----- -----
  +--> __RTC_GET_HOUR/RTC

__RTC_GET_HOUR/RTC                            ----- -----  ----- -----  ----- -----
  +--> RTC

RTC_TIME_GET_MIN/RTC                          ----- -----  ----- -----  ----- -----
  +--> __RTC_GET_MIN_SEC/RTC

__RTC_GET_MIN_SEC/RTC                         ----- -----  ----- -----  ----- -----
  +--> RTC

RTC_TIME_GET_SEC/RTC                          ----- -----  ----- -----  ----- -----
  +--> __RTC_GET_MIN_SEC/RTC

RTC_TIME_GET_HOUR_12/RTC                      ----- -----  ----- -----  ----- -----
  +--> __RTC_GET_HOUR_12/RTC

__RTC_GET_HOUR_12/RTC                         ----- -----  ----- -----  ----- -----

RTC_ALARM_GET_SEC/RTC                         ----- -----  ----- -----  ----- -----
  +--> RTC

RTC_ALARM_GET_HOUR_12/RTC                     ----- -----  ----- -----  ----- -----
  +--> __RTC_GET_HOUR_12/RTC

_RTC_TEST_ALARM_INT/RTC                       ----- -----  ----- -----  ----- -----

_RTC_TEST_ALARM_INT_FLAG/RTC                  ----- -----  ----- -----  ----- -----

RTC_TEST_EOSC/RTC                             ----- -----  ----- -----  ----- -----

RTC_TEST_BBSQW/RTC                            ----- -----  ----- -----  ----- -----

RTC_TEST_CONV/RTC                             ----- -----  ----- -----  ----- -----

RTC_GET_SQUARE_RATE_STR/RTC                   ----- -----  ----- -----  ----- -----
  +--> RTC_GET_SQUARE_RATE/RTC

RTC_GET_SQUARE_RATE/RTC                       ----- -----  ----- -----  ----- -----

RTC_TEST_INTCN/RTC                            ----- -----  ----- -----  ----- -----

RTC_TEST_OSF/RTC                              ----- -----  ----- -----  ----- -----

RTC_TEST_EN32KHZ/RTC                          ----- -----  ----- -----  ----- -----

RTC_TEST_BSY/RTC                              ----- -----  ----- -----  ----- -----

RTC_ALARM_GET_DAY/RTC                         ----- -----  ----- -----  ----- -----

RTC_ALARM_GET_DATE/RTC                        ----- -----  ----- -----  ----- -----
  +--> __RTC_GET_DATE/RTC

RTC_ALARM_GET_HOUR/RTC                        ----- -----  ----- -----  ----- -----
  +--> __RTC_GET_HOUR/RTC

RTC_ALARM_GET_MIN/RTC                         ----- -----  ----- -----  ----- -----
  +--> __RTC_GET_MIN_SEC/RTC

RTC_ALARM_GET_MOD_STR/RTC                     ----- -----  ----- -----  ----- -----
  +--> RTC_ALARM_GET_MODE/RTC
LX51 LINKER/LOCATER V4.66.87.0                                                        06/02/2018  22:09:22  PAGE 20



RTC_ALARM_GET_MODE/RTC                        ----- -----  ----- -----  ----- -----
  +--> RTC

RTC_TIME_SET_HOUR_12/RTC                      20H.1 20H.1  ----- -----  ----- -----
  +--> RTC
  +--> _RTC_SET_HOUR_12/RTC

_RTC_SET_HOUR_12/RTC                          20H.2 20H.2  ----- -----  0017H 0019H
  +--> RTC
  +--> __RTC_GET_HOUR/RTC
  +--> __RTC_SET_HOUR/RTC

__RTC_SET_HOUR/RTC                            ----- -----  ----- -----  001AH 001CH
  +--> RTC

_RTC_TIME_SET_HOUR/RTC                        ----- -----  ----- -----  ----- -----
  +--> RTC
  +--> __RTC_SET_HOUR/RTC

_RTC_WRITE_DATA/RTC                           ----- -----  ----- -----  0017H 0017H
  +--> I2C_INIT/I2C
  +--> RTC
  +--> _I2C_PUTS/I2C

_CLOCK_YYMMDD_TO_DAY/CLOCK                    ----- -----  ----- -----  0017H 001EH
  +--> CLOCK

CLOCK                                         ----- -----  ----- -----  ----- -----

_RTC_DATE_SET_DAY/RTC                         ----- -----  ----- -----  ----- -----

_RTC_ENABLE_ALARM_INT/RTC                     20H.1 20H.1  ----- -----  ----- -----

_RTC_CLR_ALARM_INT_FLAG/RTC                   ----- -----  ----- -----  ----- -----

RTC_SET_INTCN/RTC                             20H.0 20H.0  ----- -----  ----- -----

RTC_SET_EN32KHZ/RTC                           20H.0 20H.0  ----- -----  ----- -----

_RTC_TIME_SET_MIN/RTC                         ----- -----  ----- -----  ----- -----
  +--> __RTC_SET_MIN_SEC/RTC

__RTC_SET_MIN_SEC/RTC                         ----- -----  ----- -----  0017H 0019H
  +--> RTC

_RTC_TIME_SET_SEC/RTC                         ----- -----  ----- -----  ----- -----
  +--> RTC
  +--> __RTC_SET_MIN_SEC/RTC

_RTC_DATE_SET_YEAR/RTC                        ----- -----  ----- -----  ----- -----
  +--> RTC

_RTC_DATE_SET_MONTH/RTC                       ----- -----  ----- -----  ----- -----
  +--> RTC

_RTC_DATE_SET_DATE/RTC                        ----- -----  ----- -----  0017H 0018H
  +--> RTC_DATE_GET_MONTH/RTC
  +--> _DEBUG_PRINTF/DEBUG
  +--> RTC_DATE_GET_YEAR/RTC
  +--> _CLOCK_IS_LEAP_YEAR/CLOCK
  +--> __RTC_SET_DATE/RTC

_CLOCK_IS_LEAP_YEAR/CLOCK                     ----- -----  ----- -----  ----- -----
  +--> CLOCK
LX51 LINKER/LOCATER V4.66.87.0                                                        06/02/2018  22:09:22  PAGE 21



__RTC_SET_DATE/RTC                            ----- -----  ----- -----  0019H 001BH
  +--> RTC

CLOCK_INITIALIZE/CLOCK                        ----- -----  ----- -----  ----- -----
  +--> _DEBUG_PRINTF/DEBUG
  +--> _CLOCK_SYNC_FROM_RTC/CLOCK
  +--> CLOCK_ENABLE_INTERRUPT/CLOCK
  +--> CLOCK_DUMP/CLOCK

_CLOCK_SYNC_FROM_RTC/CLOCK                    ----- -----  ----- -----  0013H 0013H
  +--> _DEBUG_PRINTF/DEBUG
  +--> _RTC_READ_DATA/RTC
  +--> RTC_TIME_GET_HOUR/RTC
  +--> RTC_TIME_GET_MIN/RTC
  +--> RTC_TIME_GET_SEC/RTC
  +--> RTC_TIME_GET_HOUR_12/RTC
  +--> RTC_DATE_GET_YEAR/RTC
  +--> RTC_DATE_GET_MONTH/RTC
  +--> RTC_DATE_GET_DATE/RTC
  +--> RTC_DATE_GET_DAY/RTC

CLOCK_ENABLE_INTERRUPT/CLOCK                  20H.2 20H.2  ----- -----  ----- -----

CLOCK_DUMP/CLOCK                              ----- -----  ----- -----  ----- -----
  +--> _DEBUG_PRINTF/DEBUG

KEY_INITIALIZE/KEY                            ----- -----  ----- -----  ----- -----
  +--> _DEBUG_PRINTF/DEBUG

LED_INITIALIZE/LED                            ----- -----  ----- -----  ----- -----
  +--> _DEBUG_PRINTF/DEBUG
  +--> LED
  +--> REFRESH_LED/LED
  +--> _DELAY_MS/MISC

LED                                           ----- -----  ----- -----  ----- -----

REFRESH_LED/LED                               ----- -----  ----- -----  ----- -----

_DELAY_MS/MISC                                ----- -----  ----- -----  ----- -----
  +--> INTERNAL_DELAY_MS/MISC

INTERNAL_DELAY_MS/MISC                        ----- -----  ----- -----  ----- -----

POWER_INITIALIZE/POWER                        ----- -----  ----- -----  ----- -----
  +--> _DEBUG_PRINTF/DEBUG
  +--> _ROM_READ/ROM

ALARM_INITIALIZE/ALARM                        ----- -----  ----- -----  ----- -----
  +--> _DEBUG_PRINTF/DEBUG

LT_TIMER_INITIALIZE/LT_TIMER                  ----- -----  ----- -----  ----- -----
  +--> _DEBUG_PRINTF/DEBUG

TIMER_INITIALIZE/TIMER                        ----- -----  ----- -----  ----- -----
  +--> _DEBUG_PRINTF/DEBUG

BEEPER_INITIALIZE/BEEPER                      ----- -----  ----- -----  ----- -----
  +--> _DEBUG_PRINTF/DEBUG
  +--> _ROM_READ/ROM

THERMO_INITIALIZE/THERMO                      ----- -----  ----- -----  ----- -----
  +--> _DEBUG_PRINTF/DEBUG
  +--> THERMO_POWER_OFF/THERMO
LX51 LINKER/LOCATER V4.66.87.0                                                        06/02/2018  22:09:22  PAGE 22



THERMO_POWER_OFF/THERMO                       ----- -----  ----- -----  0015H 0015H
  +--> THERMO_LOAD_CONFIG/THERMO
  +--> _I2C_GET/I2C
  +--> THERMO_LO_THRESHOLD_RESET/THERMO
  +--> THERMO_HI_THRESHOLD_RESET/THERMO
  +--> THERMO
  +--> _I2C_PUT/I2C

THERMO_LOAD_CONFIG/THERMO                     ----- -----  ----- -----  ----- -----
  +--> _DEBUG_PRINTF/DEBUG
  +--> _ROM_READ/ROM
  +--> THERMO

THERMO                                        ----- -----  ----- -----  ----- -----

THERMO_LO_THRESHOLD_RESET/THERMO              ----- -----  ----- -----  ----- -----
  +--> _THERMO_LO_THRESHOLD_SET/THERMO

_THERMO_LO_THRESHOLD_SET/THERMO               ----- -----  ----- -----  0016H 0018H
  +--> _DEBUG_PRINTF/DEBUG
  +--> _THERMO_TEMP_TO_HEX/THERMO
  +--> THERMO
  +--> _I2C_PUTS/I2C

_THERMO_TEMP_TO_HEX/THERMO                    ----- -----  ----- -----  0019H 001AH
  +--> _DEBUG_PRINTF/DEBUG

THERMO_HI_THRESHOLD_RESET/THERMO              ----- -----  ----- -----  ----- -----
  +--> _THERMO_HI_THRESHOLD_SET/THERMO

_THERMO_HI_THRESHOLD_SET/THERMO               ----- -----  ----- -----  0016H 0018H
  +--> THERMO
  +--> _DEBUG_PRINTF/DEBUG
  +--> _THERMO_TEMP_TO_HEX/THERMO
  +--> _I2C_PUTS/I2C

FUSE_INITIALIZE/FUSE                          ----- -----  ----- -----  ----- -----
  +--> _DEBUG_PRINTF/DEBUG
  +--> FUSE_POWER_OFF/FUSE

FUSE_POWER_OFF/FUSE                           ----- -----  ----- -----  ----- -----
  +--> _SERIAL_SET_CTL_BIT/SERIAL_HUB
  +--> SERIAL_CTL_OUT/SERIAL_HUB

_SERIAL_SET_CTL_BIT/SERIAL_HUB                20H.2 20H.2  ----- -----  ----- -----
  +--> SERIAL_HUB

MPU_INITIALIZE/MPU                            ----- -----  ----- -----  ----- -----
  +--> _DEBUG_PRINTF/DEBUG
  +--> MPU_POWER_ON/MPU
  +--> MPU_POWER_OFF/MPU

MPU_POWER_ON/MPU                              ----- -----  ----- -----  0015H 0015H
  +--> _DEBUG_PRINTF/DEBUG
  +--> MPU_LOAD_CONFIG/MPU
  +--> _DELAY_MS/MISC
  +--> MPU
  +--> _I2C_PUT/I2C
  +--> MPU_THRESHOLD_RESET/MPU
  +--> _I2C_GET/I2C

MPU_LOAD_CONFIG/MPU                           ----- -----  ----- -----  ----- -----
  +--> _DEBUG_PRINTF/DEBUG
  +--> _ROM_READ/ROM
LX51 LINKER/LOCATER V4.66.87.0                                                        06/02/2018  22:09:22  PAGE 23



MPU                                           ----- -----  ----- -----  ----- -----

MPU_THRESHOLD_RESET/MPU                       ----- -----  ----- -----  ----- -----
  +--> _MPU_THRESHOLD_SET/MPU

_MPU_THRESHOLD_SET/MPU                        ----- -----  ----- -----  0016H 0016H
  +--> _DEBUG_PRINTF/DEBUG
  +--> _I2C_PUT/I2C

MPU_POWER_OFF/MPU                             ----- -----  ----- -----  0015H 0015H
  +--> _DEBUG_PRINTF/DEBUG
  +--> _I2C_PUT/I2C
  +--> _DELAY_MS/MISC
  +--> MPU
  +--> _I2C_GET/I2C

HG_INITIALIZE/HG                              ----- -----  ----- -----  ----- -----
  +--> _DEBUG_PRINTF/DEBUG
  +--> HG_POWER_OFF/HG

HG_POWER_OFF/HG                               ----- -----  ----- -----  ----- -----
  +--> _SERIAL_SET_CTL_BIT/SERIAL_HUB
  +--> SERIAL_CTL_OUT/SERIAL_HUB

INT_HUB_INITIALIZE/INT_HUB                    ----- -----  ----- -----  0000H 0000H
  +--> _DEBUG_PRINTF/DEBUG
  +--> _I2C_PUT/I2C
  +--> _I2C_GET/I2C

TASK_INITIALIZE/TASK                          ----- -----  ----- -----  ----- -----
  +--> _DEBUG_PRINTF/DEBUG

_TIME_PROC/SM                                 ----- -----  ----- -----  000CH 000CH
  +--> DELAY_TASK_CALL/DELAY_TASK
  +--> _RUN_STATE_MACHINE/SM

DELAY_TASK_CALL/DELAY_TASK                    ----- -----  ----- -----  000DH 000DH
  +--> DELAY_TASK
  +--> _DEBUG_PRINTF/DEBUG

DELAY_TASK                                    ----- -----  ----- -----  ----- -----

_RUN_STATE_MACHINE/SM                         ----- -----  ----- -----  000DH 0010H
  +--> SM
  +--> _DEBUG_PRINTF/DEBUG

SM                                            ----- -----  ----- -----  ----- -----

_SM_CLOCK_DISPLAY_SUBMOD0/SM_CLOCK_DISPL+     ----- -----  ----- -----  0011H 0012H
... AY
  +--> SM_CLOCK_DISPLAY
  +--> _DEBUG_PRINTF/DEBUG
  +--> LED_CLEAR/LED
  +--> CLOCK_DISPLAY/CLOCK
  +--> _CLOCK_SWITCH_DISPLAY_MODE/CLOCK
  +--> POWER_RESET_POWERSAVE_TO/POWER
  +--> POWER_TEST_POWERSAVE_TO/POWER

SM_CLOCK_DISPLAY                              ----- -----  ----- -----  ----- -----

LED_CLEAR/LED                                 ----- -----  ----- -----  ----- -----

CLOCK_DISPLAY/CLOCK                           20H.0 20H.0  ----- -----  ----- -----

LX51 LINKER/LOCATER V4.66.87.0                                                        06/02/2018  22:09:22  PAGE 24


_CLOCK_SWITCH_DISPLAY_MODE/CLOCK              ----- -----  ----- -----  ----- -----

POWER_RESET_POWERSAVE_TO/POWER                ----- -----  ----- -----  ----- -----
  +--> CLOCK_GET_SEC_256/CLOCK

CLOCK_GET_SEC_256/CLOCK                       ----- -----  ----- -----  ----- -----

POWER_TEST_POWERSAVE_TO/POWER                 ----- -----  ----- -----  ----- -----
  +--> CLOCK_GET_SEC_256/CLOCK
  +--> _DEBUG_PRINTF/DEBUG

_SM_CLOCK_DISPLAY_SUBMOD1/SM_CLOCK_DISPL+     ----- -----  ----- -----  0011H 0011H
... AY
  +--> SM_CLOCK_DISPLAY
  +--> _DEBUG_PRINTF/DEBUG
  +--> _CLOCK_SWITCH_DISPLAY_MODE/CLOCK
  +--> RESET_AUTO_SWITCH/SM_CLOCK_DISPLAY
  +--> POWER_RESET_POWERSAVE_TO/POWER
  +--> TEST_AUTOSWITCH/SM_CLOCK_DISPLAY

RESET_AUTO_SWITCH/SM_CLOCK_DISPLAY            ----- -----  ----- -----  ----- -----
  +--> CLOCK_GET_SEC_256/CLOCK

TEST_AUTOSWITCH/SM_CLOCK_DISPLAY              ----- -----  ----- -----  ----- -----
  +--> CLOCK_GET_SEC_256/CLOCK
  +--> _DEBUG_PRINTF/DEBUG

_SM_CLOCK_MOD_TIME_INIT/SM_CLOCK_MOD_TIM+     ----- -----  ----- -----  ----- -----
... E
  +--> SM_CLOCK_MOD_TIME
  +--> _DEBUG_PRINTF/DEBUG
  +--> CLOCK_DISPLAY/CLOCK
  +--> _DISPLAY_LOGO/MOD_COMMON

SM_CLOCK_MOD_TIME                             ----- -----  ----- -----  ----- -----

_DISPLAY_LOGO/MOD_COMMON                      ----- -----  ----- -----  0012H 0013H
  +--> _DEBUG_PRINTF/DEBUG
  +--> LED_CLEAR/LED
  +--> _LED_SET_CODE/LED
  +--> BEEPER_BEEP_BEEP_ALWAYS/BEEPER

_LED_SET_CODE/LED                             ----- -----  ----- -----  ----- -----

BEEPER_BEEP_BEEP_ALWAYS/BEEPER                ----- -----  ----- -----  0014H 0014H
  +--> _DEBUG_PRINTF/DEBUG
  +--> _DELAY_10US/MISC
  +--> _DELAY_MS/MISC

_DELAY_10US/MISC                              ----- -----  ----- -----  ----- -----
  +--> INTERNAL_DELAY_10US/MISC

INTERNAL_DELAY_10US/MISC                      ----- -----  ----- -----  ----- -----

_SM_CLOCK_ALARM/SM_CLOCK_ALARM                ----- -----  ----- -----  0011H 0012H
  +--> _DEBUG_PRINTF/DEBUG
  +--> SM_CLOCK_ALARM
  +--> CLOCK_DISPLAY/CLOCK
  +--> _DISPLAY_ALARM/SM_CLOCK_ALARM
  +--> BEEPER_PLAY_MUSIC/BEEPER
  +--> BEEPER_BEEP_BEEP_ALWAYS/BEEPER

SM_CLOCK_ALARM                                ----- -----  ----- -----  ----- -----

_DISPLAY_ALARM/SM_CLOCK_ALARM                 20H.0 20H.0  ----- -----  0013H 0015H
LX51 LINKER/LOCATER V4.66.87.0                                                        06/02/2018  22:09:22  PAGE 25


  +--> LED_CLEAR/LED
  +--> _LED_SET_CODE/LED
  +--> ALARM0_GET_HOUR/ALARM
  +--> ALARM0_GET_MIN/ALARM
  +--> ALARM0_GET_HOUR_12/ALARM
  +--> CLOCK_GET_HOUR/CLOCK
  +--> CLOCK_GET_MIN/CLOCK
  +--> CLOCK_GET_HOUR_12/CLOCK
  +--> _LED_SET_DP/LED
  +--> _LED_CLR_DP/LED

ALARM0_GET_HOUR/ALARM                         ----- -----  ----- -----  ----- -----

ALARM0_GET_MIN/ALARM                          ----- -----  ----- -----  ----- -----

ALARM0_GET_HOUR_12/ALARM                      ----- -----  ----- -----  ----- -----

CLOCK_GET_HOUR/CLOCK                          ----- -----  ----- -----  ----- -----

CLOCK_GET_MIN/CLOCK                           ----- -----  ----- -----  ----- -----

CLOCK_GET_HOUR_12/CLOCK                       ----- -----  ----- -----  ----- -----

_LED_SET_DP/LED                               ----- -----  ----- -----  ----- -----

_LED_CLR_DP/LED                               ----- -----  ----- -----  ----- -----

BEEPER_PLAY_MUSIC/BEEPER                      ----- -----  ----- -----  ----- -----
  +--> _DEBUG_PRINTF/DEBUG
  +--> __BEEPLER_PLAY/BEEPER

__BEEPLER_PLAY/BEEPER                         20H.0 20H.0  ----- -----  0013H 0018H
  +--> BEEPER
  +--> CLOCK_GET_SEC_256/CLOCK
  +--> _DEBUG_PRINTF/DEBUG
  +--> _BEEPER_STOP_PLAY/BEEPER
  +--> _DELAY_MS/MISC
  +--> _DELAY_10US/MISC

BEEPER                                        ----- -----  ----- -----  ----- -----

_BEEPER_STOP_PLAY/BEEPER                      ----- -----  ----- -----  ----- -----

_SM_CLOCK_POWERSAVE/SM_CLOCK_POWERSAVE        ----- -----  ----- -----  0011H 0012H
  +--> _DEBUG_PRINTF/DEBUG
  +--> POWER_ENTER_POWERSAVE/POWER
  +--> POWER_LEAVE_POWERSAVE/POWER

POWER_ENTER_POWERSAVE/POWER                   ----- -----  ----- -----  ----- -----
  +--> _DEBUG_PRINTF/DEBUG
  +--> POWER_SET_FLAG/POWER
  +--> LED_ENTER_POWERSAVE/LED
  +--> TIMER_ENTER_POWERSAVE/TIMER
  +--> LT_TIMER_ENTER_POWERSAVE/LT_TIMER
  +--> CLOCK_ENTER_POWERSAVE/CLOCK
  +--> RTC_ENTER_POWERSAVE/RTC
  +--> KEY_ENTER_POWERSAVE/KEY
  +--> ALARM_ENTER_POWERSAVE/ALARM
  +--> BEEPER_ENTER_POWERSAVE/BEEPER
  +--> FUSE_ENTER_POWERSAVE/FUSE
  +--> HG_ENTER_POWERSAVE/HG
  +--> MPU_ENTER_POWERSAVE/MPU
  +--> THERMO_ENTER_POWERSAVE/THERMO
  +--> COM_ENTER_POWERSAVE/COM
  +--> POWER_TEST_FLAG/POWER
LX51 LINKER/LOCATER V4.66.87.0                                                        06/02/2018  22:09:22  PAGE 26


  +--> COM_LEAVE_POWERSAVE/COM
  +--> _SCAN_INT_HUB_PROC/INT_HUB

POWER_SET_FLAG/POWER                          ----- -----  ----- -----  ----- -----

LED_ENTER_POWERSAVE/LED                       ----- -----  ----- -----  ----- -----
  +--> _DEBUG_PRINTF/DEBUG
  +--> LED
  +--> LED_CLEAR/LED

TIMER_ENTER_POWERSAVE/TIMER                   ----- -----  ----- -----  ----- -----
  +--> _DEBUG_PRINTF/DEBUG
  +--> TIMER_CLR/TIMER

TIMER_CLR/TIMER                               ----- -----  ----- -----  ----- -----

LT_TIMER_ENTER_POWERSAVE/LT_TIMER             ----- -----  ----- -----  ----- -----
  +--> _DEBUG_PRINTF/DEBUG
  +--> RTC_IS_LT_TIMER/RTC
  +--> LT_TIMER_STOP_RAM/LT_TIMER
  +--> LT_TIMER_START_RTC/LT_TIMER

RTC_IS_LT_TIMER/RTC                           ----- -----  ----- -----  ----- -----

LT_TIMER_STOP_RAM/LT_TIMER                    ----- -----  ----- -----  ----- -----
  +--> _DEBUG_PRINTF/DEBUG

LT_TIMER_START_RTC/LT_TIMER                   ----- -----  ----- -----  ----- -----
  +--> _DEBUG_PRINTF/DEBUG
  +--> _RTC_READ_DATA/RTC
  +--> _RTC_ENABLE_ALARM_INT/RTC
  +--> _RTC_CLR_ALARM_INT_FLAG/RTC
  +--> _RTC_WRITE_DATA/RTC

CLOCK_ENTER_POWERSAVE/CLOCK                   ----- -----  ----- -----  ----- -----
  +--> _DEBUG_PRINTF/DEBUG
  +--> CLOCK_ENABLE_INTERRUPT/CLOCK

RTC_ENTER_POWERSAVE/RTC                       ----- -----  ----- -----  ----- -----
  +--> _DEBUG_PRINTF/DEBUG
  +--> _RTC_READ_DATA/RTC
  +--> RTC_SET_EN32KHZ/RTC
  +--> _RTC_WRITE_DATA/RTC

KEY_ENTER_POWERSAVE/KEY                       ----- -----  ----- -----  ----- -----
  +--> _DEBUG_PRINTF/DEBUG

ALARM_ENTER_POWERSAVE/ALARM                   ----- -----  ----- -----  ----- -----
  +--> _DEBUG_PRINTF/DEBUG

BEEPER_ENTER_POWERSAVE/BEEPER                 ----- -----  ----- -----  ----- -----
  +--> _DEBUG_PRINTF/DEBUG

FUSE_ENTER_POWERSAVE/FUSE                     ----- -----  ----- -----  ----- -----
  +--> _DEBUG_PRINTF/DEBUG

HG_ENTER_POWERSAVE/HG                         ----- -----  ----- -----  ----- -----
  +--> _DEBUG_PRINTF/DEBUG

MPU_ENTER_POWERSAVE/MPU                       ----- -----  ----- -----  ----- -----
  +--> _DEBUG_PRINTF/DEBUG

THERMO_ENTER_POWERSAVE/THERMO                 ----- -----  ----- -----  ----- -----
  +--> _DEBUG_PRINTF/DEBUG

LX51 LINKER/LOCATER V4.66.87.0                                                        06/02/2018  22:09:22  PAGE 27


COM_ENTER_POWERSAVE/COM                       ----- -----  ----- -----  ----- -----
  +--> _DEBUG_PRINTF/DEBUG

POWER_TEST_FLAG/POWER                         ----- -----  ----- -----  ----- -----

COM_LEAVE_POWERSAVE/COM                       ----- -----  ----- -----  ----- -----
  +--> _DEBUG_PRINTF/DEBUG

_SCAN_INT_HUB_PROC/INT_HUB                    ----- -----  ----- -----  0013H 0015H
  +--> _DEBUG_PRINTF/DEBUG
  +--> INT_HUB_DUMP/INT_HUB
  +--> SCAN_RTC/RTC
  +--> INT_HUB_GET_STATUS/INT_HUB
  +--> _INT_HUB_DUMP_EXT_STATUS/INT_HUB
  +--> _SCAN_HG/HG
  +--> _SCAN_FUSE/FUSE
  +--> SCAN_THERMO/THERMO
  +--> SCAN_MPU/MPU
  +--> INT_HUB

INT_HUB_DUMP/INT_HUB                          ----- -----  ----- -----  ----- -----
  +--> _DEBUG_PRINTF/DEBUG

SCAN_RTC/RTC                                  ----- -----  ----- -----  ----- -----
  +--> _DEBUG_PRINTF/DEBUG
  +--> SCAN_ALARM/ALARM
  +--> SCAN_LT_TIMER/LT_TIMER

SCAN_ALARM/ALARM                              20H.0 20H.1  ----- -----  ----- -----
  +--> _RTC_READ_DATA/RTC
  +--> _RTC_TEST_ALARM_INT_FLAG/RTC
  +--> _RTC_CLR_ALARM_INT_FLAG/RTC
  +--> _RTC_WRITE_DATA/RTC
  +--> CLOCK_GET_DAY/CLOCK
  +--> ALARM
  +--> POWER_TEST_FLAG/POWER
  +--> POWER_CLR_FLAG/POWER
  +--> RTC_TIME_GET_MIN/RTC
  +--> RTC_TIME_GET_SEC/RTC

CLOCK_GET_DAY/CLOCK                           ----- -----  ----- -----  ----- -----

ALARM                                         ----- -----  ----- -----  ----- -----

POWER_CLR_FLAG/POWER                          ----- -----  ----- -----  ----- -----

SCAN_LT_TIMER/LT_TIMER                        20H.0 20H.0  ----- -----  ----- -----
  +--> _DEBUG_PRINTF/DEBUG
  +--> _RTC_READ_DATA/RTC
  +--> _RTC_TEST_ALARM_INT_FLAG/RTC
  +--> _RTC_CLR_ALARM_INT_FLAG/RTC
  +--> _RTC_WRITE_DATA/RTC
  +--> LT_TIMER_GET_YEAR/LT_TIMER
  +--> RTC_DATE_GET_YEAR/RTC
  +--> LT_TIMER_GET_MONTH/LT_TIMER
  +--> RTC_DATE_GET_MONTH/RTC
  +--> POWER_TEST_FLAG/POWER
  +--> POWER_CLR_FLAG/POWER
  +--> LT_TIMER

LT_TIMER_GET_YEAR/LT_TIMER                    ----- -----  ----- -----  ----- -----

LT_TIMER_GET_MONTH/LT_TIMER                   ----- -----  ----- -----  ----- -----

LT_TIMER                                      ----- -----  ----- -----  ----- -----
LX51 LINKER/LOCATER V4.66.87.0                                                        06/02/2018  22:09:22  PAGE 28



INT_HUB_GET_STATUS/INT_HUB                    ----- -----  ----- -----  0016H 0018H
  +--> _I2C_GET/I2C
  +--> _DEBUG_PRINTF/DEBUG

_INT_HUB_DUMP_EXT_STATUS/INT_HUB              ----- -----  ----- -----  0016H 0017H
  +--> _DEBUG_PRINTF/DEBUG
  +--> _INT_HUB_TEST_BIT/INT_HUB
  +--> INT_HUB

_INT_HUB_TEST_BIT/INT_HUB                     ----- -----  ----- -----  ----- -----

INT_HUB                                       ----- -----  ----- -----  ----- -----

_SCAN_HG/HG                                   ----- -----  ----- -----  0016H 0018H
  +--> _DEBUG_PRINTF/DEBUG
  +--> __HG_GET_STATE/HG
  +--> HG
  +--> POWER_TEST_FLAG/POWER
  +--> POWER_CLR_FLAG/POWER

__HG_GET_STATE/HG                             ----- -----  ----- -----  ----- -----

HG                                            ----- -----  ----- -----  ----- -----

_SCAN_FUSE/FUSE                               20H.0 20H.0  ----- -----  0016H 0017H
  +--> _DEBUG_PRINTF/DEBUG
  +--> POWER_TEST_FLAG/POWER
  +--> POWER_CLR_FLAG/POWER

SCAN_THERMO/THERMO                            20H.0 20H.0  ----- -----  0016H 0019H
  +--> THERMO_HI_THRESHOLD_GET/THERMO
  +--> THERMO_LO_THRESHOLD_GET/THERMO
  +--> THERMO_GET_CURRENT/THERMO
  +--> _DEBUG_PRINTF/DEBUG
  +--> THERMO
  +--> POWER_TEST_FLAG/POWER
  +--> POWER_CLR_FLAG/POWER

THERMO_HI_THRESHOLD_GET/THERMO                ----- -----  ----- -----  001AH 001BH
  +--> THERMO
  +--> _I2C_GETS/I2C
  +--> _THERMO_HEX_TO_TEMP/THERMO

_THERMO_HEX_TO_TEMP/THERMO                    ----- -----  ----- -----  001DH 001DH
  +--> THERMO
  +--> _DEBUG_PRINTF/DEBUG

THERMO_LO_THRESHOLD_GET/THERMO                ----- -----  ----- -----  001AH 001BH
  +--> THERMO
  +--> _I2C_GETS/I2C
  +--> _THERMO_HEX_TO_TEMP/THERMO

THERMO_GET_CURRENT/THERMO                     ----- -----  ----- -----  001AH 001CH
  +--> _I2C_GET/I2C
  +--> THERMO
  +--> _I2C_PUT/I2C
  +--> _DELAY_MS/MISC
  +--> _I2C_GETS/I2C
  +--> _DEBUG_PRINTF/DEBUG
  +--> _THERMO_HEX_TO_TEMP/THERMO

SCAN_MPU/MPU                                  20H.0 20H.0  ----- -----  ----- -----
  +--> _DEBUG_PRINTF/DEBUG
  +--> MPU_READ_INT_STATUS/MPU
LX51 LINKER/LOCATER V4.66.87.0                                                        06/02/2018  22:09:22  PAGE 29


  +--> POWER_TEST_FLAG/POWER
  +--> POWER_CLR_FLAG/POWER

MPU_READ_INT_STATUS/MPU                       ----- -----  ----- -----  0016H 0016H
  +--> _I2C_GET/I2C
  +--> _DEBUG_PRINTF/DEBUG

POWER_LEAVE_POWERSAVE/POWER                   ----- -----  ----- -----  ----- -----
  +--> COM_LEAVE_POWERSAVE/COM
  +--> THERMO_LEAVE_POWERSAVE/THERMO
  +--> MPU_LEAVE_POWERSAVE/MPU
  +--> HG_LEAVE_POWERSAVE/HG
  +--> FUSE_LEAVE_POWERSAVE/FUSE
  +--> BEEPER_LEAVE_POWERSAVE/BEEPER
  +--> ALARM_LEAVE_POWERSAVE/ALARM
  +--> KEY_LEAVE_POWERSAVE/KEY
  +--> RTC_LEAVE_POWERSAVE/RTC
  +--> CLOCK_LEAVE_POWERSAVE/CLOCK
  +--> LT_TIMER_LEAVE_POWERSAVE/LT_TIMER
  +--> TIMER_LEAVE_POWERSAVE/TIMER
  +--> LED_LEAVE_POWERSAVE/LED
  +--> _DEBUG_PRINTF/DEBUG

THERMO_LEAVE_POWERSAVE/THERMO                 ----- -----  ----- -----  ----- -----
  +--> _DEBUG_PRINTF/DEBUG

MPU_LEAVE_POWERSAVE/MPU                       ----- -----  ----- -----  ----- -----
  +--> _DEBUG_PRINTF/DEBUG

HG_LEAVE_POWERSAVE/HG                         ----- -----  ----- -----  ----- -----
  +--> _DEBUG_PRINTF/DEBUG

FUSE_LEAVE_POWERSAVE/FUSE                     ----- -----  ----- -----  ----- -----
  +--> _DEBUG_PRINTF/DEBUG

BEEPER_LEAVE_POWERSAVE/BEEPER                 ----- -----  ----- -----  ----- -----
  +--> _DEBUG_PRINTF/DEBUG

ALARM_LEAVE_POWERSAVE/ALARM                   ----- -----  ----- -----  ----- -----
  +--> _DEBUG_PRINTF/DEBUG

KEY_LEAVE_POWERSAVE/KEY                       ----- -----  ----- -----  ----- -----
  +--> _DEBUG_PRINTF/DEBUG

RTC_LEAVE_POWERSAVE/RTC                       ----- -----  ----- -----  ----- -----
  +--> _DEBUG_PRINTF/DEBUG
  +--> _RTC_READ_DATA/RTC
  +--> RTC_SET_EN32KHZ/RTC
  +--> _RTC_WRITE_DATA/RTC

CLOCK_LEAVE_POWERSAVE/CLOCK                   ----- -----  ----- -----  ----- -----
  +--> _DEBUG_PRINTF/DEBUG
  +--> _CLOCK_SYNC_FROM_RTC/CLOCK
  +--> CLOCK_ENABLE_INTERRUPT/CLOCK

LT_TIMER_LEAVE_POWERSAVE/LT_TIMER             ----- -----  ----- -----  ----- -----
  +--> _DEBUG_PRINTF/DEBUG
  +--> RTC_IS_LT_TIMER/RTC
  +--> LT_TIMER_STOP_RTC/LT_TIMER
  +--> LT_TIMER_LOAD_FROM_ROM/LT_TIMER
  +--> LT_TIMER_GET_RELATIVE/LT_TIMER
  +--> LT_TIMER
  +--> LT_TIMER_START_RAM/LT_TIMER

LT_TIMER_STOP_RTC/LT_TIMER                    ----- -----  ----- -----  ----- -----
LX51 LINKER/LOCATER V4.66.87.0                                                        06/02/2018  22:09:22  PAGE 30


  +--> _DEBUG_PRINTF/DEBUG
  +--> _RTC_READ_DATA/RTC
  +--> _RTC_ENABLE_ALARM_INT/RTC
  +--> _RTC_CLR_ALARM_INT_FLAG/RTC
  +--> _RTC_WRITE_DATA/RTC

LT_TIMER_LOAD_FROM_ROM/LT_TIMER               ----- -----  ----- -----  ----- -----
  +--> _ROM_READ/ROM

LT_TIMER_GET_RELATIVE/LT_TIMER                20H.0 20H.1  ----- -----  ----- -----
  +--> CLOCK_ENABLE_INTERRUPT/CLOCK
  +--> LT_TIMER_SUB_SEC_MIN/LT_TIMER
  +--> LT_TIMER_SUB_MIN_HOUR/LT_TIMER
  +--> LT_TIMER_SUB_HOUR_DATE/LT_TIMER
  +--> LT_TIMER_SUB_DATE/LT_TIMER
  +--> LT_TIMER
  +--> _DEBUG_PRINTF/DEBUG

LT_TIMER_SUB_SEC_MIN/LT_TIMER                 20H.2 20H.2  ----- -----  ----- -----
  +--> CLOCK_GET_SEC/CLOCK

CLOCK_GET_SEC/CLOCK                           ----- -----  ----- -----  ----- -----

LT_TIMER_SUB_MIN_HOUR/LT_TIMER                20H.2 20H.3  ----- -----  ----- -----
  +--> CLOCK_GET_MIN/CLOCK
  +--> LT_TIMER

LT_TIMER_SUB_HOUR_DATE/LT_TIMER               20H.2 20H.3  ----- -----  ----- -----
  +--> CLOCK_GET_HOUR/CLOCK
  +--> LT_TIMER

LT_TIMER_SUB_DATE/LT_TIMER                    20H.2 20H.2  ----- -----  0015H 001AH
  +--> CLOCK_GET_YEAR/CLOCK
  +--> LT_TIMER
  +--> _CLOCK_IS_LEAP_YEAR/CLOCK
  +--> CLOCK_GET_MONTH/CLOCK
  +--> CLOCK_GET_DATE/CLOCK

CLOCK_GET_YEAR/CLOCK                          ----- -----  ----- -----  ----- -----

CLOCK_GET_MONTH/CLOCK                         ----- -----  ----- -----  ----- -----

CLOCK_GET_DATE/CLOCK                          ----- -----  ----- -----  ----- -----

LT_TIMER_START_RAM/LT_TIMER                   ----- -----  ----- -----  ----- -----
  +--> _DEBUG_PRINTF/DEBUG

TIMER_LEAVE_POWERSAVE/TIMER                   ----- -----  ----- -----  ----- -----
  +--> _DEBUG_PRINTF/DEBUG

LED_LEAVE_POWERSAVE/LED                       ----- -----  ----- -----  ----- -----
  +--> _DEBUG_PRINTF/DEBUG
  +--> LED_CLEAR/LED

_SM_CLOCK_TIMER_INIT/SM_CLOCK_TIMER           ----- -----  ----- -----  ----- -----
  +--> SM_CLOCK_TIMER
  +--> _DEBUG_PRINTF/DEBUG
  +--> CLOCK_DISPLAY/CLOCK
  +--> _DISPLAY_LOGO/MOD_COMMON

SM_CLOCK_TIMER                                ----- -----  ----- -----  ----- -----

_SM_POWER_PACK_DISPLAY_INIT/SM_POWER_PAC+     ----- -----  ----- -----  ----- -----
... K_DISPLAY
  +--> SM_POWER_PACK_DISPLAY
LX51 LINKER/LOCATER V4.66.87.0                                                        06/02/2018  22:09:22  PAGE 31


  +--> _DEBUG_PRINTF/DEBUG
  +--> CLOCK_DISPLAY/CLOCK
  +--> ALARM_SWITCH_OFF/ALARM
  +--> _DISPLAY_LOGO/MOD_COMMON

SM_POWER_PACK_DISPLAY                         ----- -----  ----- -----  ----- -----

ALARM_SWITCH_OFF/ALARM                        ----- -----  ----- -----  ----- -----
  +--> _DEBUG_PRINTF/DEBUG
  +--> _RTC_READ_DATA/RTC
  +--> _RTC_ENABLE_ALARM_INT/RTC
  +--> _RTC_WRITE_DATA/RTC
  +--> RTC_DUMP/RTC

_SM_CLOCK_DISPLAY_SUBMOD2/SM_CLOCK_DISPL+     ----- -----  ----- -----  0011H 0011H
... AY
  +--> SM_CLOCK_DISPLAY
  +--> _DEBUG_PRINTF/DEBUG
  +--> _CLOCK_SWITCH_DISPLAY_MODE/CLOCK
  +--> RESET_AUTO_SWITCH/SM_CLOCK_DISPLAY
  +--> POWER_RESET_POWERSAVE_TO/POWER
  +--> TEST_AUTOSWITCH/SM_CLOCK_DISPLAY

_SM_CLOCK_DISPLAY_SUBMOD3/SM_CLOCK_DISPL+     ----- -----  ----- -----  0011H 0011H
... AY
  +--> SM_CLOCK_DISPLAY
  +--> _DEBUG_PRINTF/DEBUG
  +--> CLOCK_DISPLAY/CLOCK
  +--> DISPLAY_TEMP/SM_CLOCK_DISPLAY
  +--> RESET_AUTO_SWITCH/SM_CLOCK_DISPLAY
  +--> POWER_RESET_POWERSAVE_TO/POWER
  +--> TEST_AUTOSWITCH/SM_CLOCK_DISPLAY

DISPLAY_TEMP/SM_CLOCK_DISPLAY                 20H.0 20H.0  ----- -----  0012H 0013H
  +--> _RTC_READ_DATA/RTC
  +--> _RTC_GET_TEMPERATURE/RTC
  +--> _DEBUG_PRINTF/DEBUG
  +--> LED_CLEAR/LED
  +--> _LED_SET_DP/LED
  +--> _LED_SET_CODE/LED
  +--> SM_CLOCK_DISPLAY

_RTC_GET_TEMPERATURE/RTC                      20H.1 20H.1  ----- -----  0014H 001DH
  +--> RTC

_SM_CLOCK_MOD_TIME_SUBMOD0/SM_CLOCK_MOD_+     ----- -----  ----- -----  0011H 0012H
... TIME
  +--> SM_CLOCK_MOD_TIME
  +--> _DEBUG_PRINTF/DEBUG
  +--> _SM_CLOCK_MOD_TIME/SM_CLOCK_MOD_TIME

_SM_CLOCK_MOD_TIME/SM_CLOCK_MOD_TIME          ----- -----  ----- -----  0013H 0014H
  +--> _ENTER_HHMMSS/SM_CLOCK_MOD_TIME
  +--> _ENTER_YYMMDD/SM_CLOCK_MOD_TIME
  +--> _INC_AND_WRITE/SM_CLOCK_MOD_TIME
  +--> _INC_ONLY/SM_CLOCK_MOD_TIME
  +--> _WRITE_ONLY/SM_CLOCK_MOD_TIME
  +--> UPDATE_HHMMSS/SM_CLOCK_MOD_TIME
  +--> UPDATE_YYMMDD/SM_CLOCK_MOD_TIME

_ENTER_HHMMSS/SM_CLOCK_MOD_TIME               ----- -----  ----- -----  0015H 0015H
  +--> LED_CLEAR/LED
  +--> _LED_SET_BLINK/LED
  +--> UPDATE_HHMMSS/SM_CLOCK_MOD_TIME

LX51 LINKER/LOCATER V4.66.87.0                                                        06/02/2018  22:09:22  PAGE 32


_LED_SET_BLINK/LED                            ----- -----  ----- -----  ----- -----

UPDATE_HHMMSS/SM_CLOCK_MOD_TIME               ----- -----  ----- -----  0017H 0019H
  +--> CLOCK_GET_HOUR/CLOCK
  +--> CLOCK_GET_MIN/CLOCK
  +--> CLOCK_GET_SEC/CLOCK
  +--> _LED_SET_DP/LED
  +--> CLOCK_GET_HOUR_12/CLOCK
  +--> _LED_CLR_DP/LED
  +--> _DEBUG_PRINTF/DEBUG
  +--> _LED_SET_CODE/LED
  +--> SM_CLOCK_MOD_TIME

_ENTER_YYMMDD/SM_CLOCK_MOD_TIME               ----- -----  ----- -----  0015H 0015H
  +--> LED_CLEAR/LED
  +--> _LED_SET_BLINK/LED
  +--> UPDATE_YYMMDD/SM_CLOCK_MOD_TIME

UPDATE_YYMMDD/SM_CLOCK_MOD_TIME               ----- -----  ----- -----  0017H 0019H
  +--> CLOCK_GET_YEAR/CLOCK
  +--> CLOCK_GET_MONTH/CLOCK
  +--> CLOCK_GET_DATE/CLOCK
  +--> _LED_SET_DP/LED
  +--> _DEBUG_PRINTF/DEBUG
  +--> _LED_SET_CODE/LED
  +--> SM_CLOCK_MOD_TIME

_INC_AND_WRITE/SM_CLOCK_MOD_TIME              ----- -----  ----- -----  0015H 0015H
  +--> _INC_ONLY/SM_CLOCK_MOD_TIME
  +--> _WRITE_ONLY/SM_CLOCK_MOD_TIME

_INC_ONLY/SM_CLOCK_MOD_TIME                   ----- -----  ----- -----  0016H 0016H
  +--> CLOCK_INC_HOUR/CLOCK
  +--> CLOCK_INC_YEAR/CLOCK
  +--> CLOCK_INC_MIN/CLOCK
  +--> CLOCK_INC_MONTH/CLOCK
  +--> _LED_CLR_BLINK/LED
  +--> CLOCK_CLR_SEC/CLOCK
  +--> CLOCK_INC_DATE/CLOCK
  +--> UPDATE_HHMMSS/SM_CLOCK_MOD_TIME
  +--> UPDATE_YYMMDD/SM_CLOCK_MOD_TIME

CLOCK_INC_HOUR/CLOCK                          ----- -----  ----- -----  ----- -----

CLOCK_INC_YEAR/CLOCK                          ----- -----  ----- -----  ----- -----
  +--> CLOCK
  +--> _CLOCK_YYMMDD_TO_DAY/CLOCK

CLOCK_INC_MIN/CLOCK                           ----- -----  ----- -----  ----- -----

CLOCK_INC_MONTH/CLOCK                         ----- -----  ----- -----  ----- -----
  +--> CLOCK
  +--> _CLOCK_YYMMDD_TO_DAY/CLOCK

_LED_CLR_BLINK/LED                            ----- -----  ----- -----  ----- -----

CLOCK_CLR_SEC/CLOCK                           ----- -----  ----- -----  ----- -----

CLOCK_INC_DATE/CLOCK                          ----- -----  ----- -----  ----- -----
  +--> _CLOCK_GET_MON_DATE/CLOCK
  +--> CLOCK
  +--> _CLOCK_YYMMDD_TO_DAY/CLOCK

_CLOCK_GET_MON_DATE/CLOCK                     ----- -----  ----- -----  ----- -----
  +--> CLOCK
LX51 LINKER/LOCATER V4.66.87.0                                                        06/02/2018  22:09:22  PAGE 33



_WRITE_ONLY/SM_CLOCK_MOD_TIME                 ----- -----  ----- -----  ----- -----
  +--> _CLOCK_SYNC_TO_RTC/CLOCK
  +--> _LED_SET_BLINK/LED

_CLOCK_SYNC_TO_RTC/CLOCK                      ----- -----  ----- -----  0016H 0016H
  +--> _DEBUG_PRINTF/DEBUG
  +--> CLOCK_ENABLE_INTERRUPT/CLOCK
  +--> _RTC_READ_DATA/RTC
  +--> RTC_TIME_SET_HOUR_12/RTC
  +--> _RTC_TIME_SET_HOUR/RTC
  +--> _RTC_TIME_SET_MIN/RTC
  +--> _RTC_TIME_SET_SEC/RTC
  +--> _RTC_DATE_SET_YEAR/RTC
  +--> _RTC_DATE_SET_MONTH/RTC
  +--> _RTC_DATE_SET_DATE/RTC
  +--> _RTC_WRITE_DATA/RTC

_SM_CLOCK_MOD_TIME_SUBMOD1/SM_CLOCK_MOD_+     ----- -----  ----- -----  0011H 0011H
... TIME
  +--> SM_CLOCK_MOD_TIME
  +--> _DEBUG_PRINTF/DEBUG
  +--> _SM_CLOCK_MOD_TIME/SM_CLOCK_MOD_TIME

_SM_CLOCK_MOD_ALARM_INIT/SM_CLOCK_MOD_AL+     ----- -----  ----- -----  ----- -----
... ARM
  +--> SM_CLOCK_MOD_ALARM
  +--> _DEBUG_PRINTF/DEBUG
  +--> _DISPLAY_LOGO/MOD_COMMON

SM_CLOCK_MOD_ALARM                            ----- -----  ----- -----  ----- -----

_SM_CLOCK_MOD_TIME_SUBMOD2/SM_CLOCK_MOD_+     ----- -----  ----- -----  0011H 0011H
... TIME
  +--> SM_CLOCK_MOD_TIME
  +--> _DEBUG_PRINTF/DEBUG
  +--> _SM_CLOCK_MOD_TIME/SM_CLOCK_MOD_TIME

_SM_CLOCK_MOD_TIME_SUBMOD3/SM_CLOCK_MOD_+     ----- -----  ----- -----  0011H 0011H
... TIME
  +--> SM_CLOCK_MOD_TIME
  +--> _DEBUG_PRINTF/DEBUG
  +--> _SM_CLOCK_MOD_TIME/SM_CLOCK_MOD_TIME

_SM_CLOCK_MOD_TIME_SUBMOD4/SM_CLOCK_MOD_+     ----- -----  ----- -----  0011H 0011H
... TIME
  +--> SM_CLOCK_MOD_TIME
  +--> _DEBUG_PRINTF/DEBUG
  +--> _SM_CLOCK_MOD_TIME/SM_CLOCK_MOD_TIME

_SM_CLOCK_MOD_TIME_SUBMOD5/SM_CLOCK_MOD_+     ----- -----  ----- -----  0011H 0011H
... TIME
  +--> SM_CLOCK_MOD_TIME
  +--> _DEBUG_PRINTF/DEBUG
  +--> _SM_CLOCK_MOD_TIME/SM_CLOCK_MOD_TIME

_SM_CLOCK_MOD_ALARM_SUBMOD0/SM_CLOCK_MOD+     ----- -----  ----- -----  0011H 0012H
... _ALARM
  +--> SM_CLOCK_MOD_ALARM
  +--> _DEBUG_PRINTF/DEBUG
  +--> _ENTER_ALARM/SM_CLOCK_MOD_ALARM
  +--> _INC_WRITE/SM_CLOCK_MOD_ALARM
  +--> _INC_ONLY/SM_CLOCK_MOD_ALARM
  +--> _WRITE_ONLY/SM_CLOCK_MOD_ALARM

LX51 LINKER/LOCATER V4.66.87.0                                                        06/02/2018  22:09:22  PAGE 34


_ENTER_ALARM/SM_CLOCK_MOD_ALARM               ----- -----  ----- -----  0013H 0014H
  +--> LED_CLEAR/LED
  +--> _LED_SET_BLINK/LED
  +--> _UPDATE_ALARM/SM_CLOCK_MOD_ALARM

_UPDATE_ALARM/SM_CLOCK_MOD_ALARM              ----- -----  ----- -----  0015H 0018H
  +--> ALARM0_GET_HOUR/ALARM
  +--> ALARM0_GET_MIN/ALARM
  +--> _LED_SET_DP/LED
  +--> ALARM0_GET_HOUR_12/ALARM
  +--> _LED_CLR_DP/LED
  +--> _DEBUG_PRINTF/DEBUG
  +--> _LED_SET_CODE/LED
  +--> _ALARM0_TEST_ENABLE/ALARM
  +--> ALARM1_TEST_ENABLE/ALARM
  +--> BEEPER_GET_MUSIC_INDEX/BEEPER

_ALARM0_TEST_ENABLE/ALARM                     ----- -----  ----- -----  0019H 0019H
  +--> ALARM
  +--> _DEBUG_PRINTF/DEBUG

ALARM1_TEST_ENABLE/ALARM                      ----- -----  ----- -----  ----- -----

BEEPER_GET_MUSIC_INDEX/BEEPER                 ----- -----  ----- -----  ----- -----

_INC_WRITE/SM_CLOCK_MOD_ALARM                 ----- -----  ----- -----  0013H 0013H
  +--> _INC_ONLY/SM_CLOCK_MOD_ALARM
  +--> _WRITE_ONLY/SM_CLOCK_MOD_ALARM

_INC_ONLY/SM_CLOCK_MOD_ALARM                  ----- -----  ----- -----  ----- -----
  +--> _LED_CLR_BLINK/LED
  +--> ALARM0_INC_HOUR/ALARM
  +--> ALARM0_INC_MIN/ALARM
  +--> _UPDATE_ALARM/SM_CLOCK_MOD_ALARM

ALARM0_INC_HOUR/ALARM                         ----- -----  ----- -----  ----- -----

ALARM0_INC_MIN/ALARM                          ----- -----  ----- -----  ----- -----

_WRITE_ONLY/SM_CLOCK_MOD_ALARM                ----- -----  ----- -----  0014H 0014H
  +--> ALARM0_SYNC_TO_RTC/ALARM
  +--> _LED_SET_BLINK/LED
  +--> ALARM0_GET_HOUR/ALARM
  +--> ALARM0_GET_MIN/ALARM
  +--> ALARM0_GET_DAY_MASK/ALARM
  +--> _ROM_WRITE/ROM

ALARM0_SYNC_TO_RTC/ALARM                      ----- -----  ----- -----  ----- -----
  +--> _DEBUG_PRINTF/DEBUG
  +--> _RTC_READ_DATA/RTC
  +--> _RTC_ALARM_SET_MODE/RTC
  +--> RTC_ALARM_SET_HOUR_12/RTC
  +--> _RTC_ALARM_SET_HOUR/RTC
  +--> _RTC_ALARM_SET_MIN/RTC
  +--> _RTC_ALARM_SET_SEC/RTC
  +--> _RTC_WRITE_DATA/RTC
  +--> _RTC_ENABLE_ALARM_INT/RTC
  +--> _RTC_CLR_ALARM_INT_FLAG/RTC

_RTC_ALARM_SET_MODE/RTC                       ----- -----  ----- -----  ----- -----
  +--> RTC

RTC_ALARM_SET_HOUR_12/RTC                     20H.0 20H.0  ----- -----  ----- -----
  +--> RTC
  +--> _RTC_SET_HOUR_12/RTC
LX51 LINKER/LOCATER V4.66.87.0                                                        06/02/2018  22:09:22  PAGE 35



_RTC_ALARM_SET_HOUR/RTC                       ----- -----  ----- -----  ----- -----
  +--> RTC
  +--> __RTC_SET_HOUR/RTC

_RTC_ALARM_SET_MIN/RTC                        ----- -----  ----- -----  ----- -----
  +--> RTC
  +--> __RTC_SET_MIN_SEC/RTC

_RTC_ALARM_SET_SEC/RTC                        ----- -----  ----- -----  ----- -----
  +--> RTC

ALARM0_GET_DAY_MASK/ALARM                     ----- -----  ----- -----  ----- -----

_SM_CLOCK_MOD_ALARM_SUBMOD1/SM_CLOCK_MOD+     ----- -----  ----- -----  0011H 0011H
... _ALARM
  +--> SM_CLOCK_MOD_ALARM
  +--> _DEBUG_PRINTF/DEBUG
  +--> _ENTER_ALARM/SM_CLOCK_MOD_ALARM
  +--> _INC_WRITE/SM_CLOCK_MOD_ALARM
  +--> _INC_ONLY/SM_CLOCK_MOD_ALARM
  +--> _WRITE_ONLY/SM_CLOCK_MOD_ALARM

_SM_CLOCK_DISPLAY_INIT/SM_CLOCK_DISPLAY       ----- -----  ----- -----  ----- -----
  +--> SM_CLOCK_DISPLAY
  +--> _DEBUG_PRINTF/DEBUG
  +--> LT_TIMER_SWITCH_OFF/LT_TIMER
  +--> ALARM_SWITCH_ON/ALARM
  +--> RTC_SET_LT_TIMER/RTC
  +--> POWER_5V_ENABLE/POWER
  +--> _DISPLAY_LOGO/MOD_COMMON

LT_TIMER_SWITCH_OFF/LT_TIMER                  ----- -----  ----- -----  ----- -----
  +--> _DEBUG_PRINTF/DEBUG
  +--> _RTC_READ_DATA/RTC
  +--> _RTC_ENABLE_ALARM_INT/RTC
  +--> _RTC_WRITE_DATA/RTC
  +--> RTC_DUMP/RTC

ALARM_SWITCH_ON/ALARM                         ----- -----  ----- -----  ----- -----
  +--> _DEBUG_PRINTF/DEBUG
  +--> ALARM_LOAD_ROM/ALARM
  +--> ALARM_DUMP/ALARM
  +--> ALARM0_SYNC_TO_RTC/ALARM
  +--> ALARM1_SYNC_TO_RTC/ALARM
  +--> RTC_DUMP/RTC

ALARM_LOAD_ROM/ALARM                          ----- -----  ----- -----  ----- -----
  +--> _ROM_READ/ROM

ALARM_DUMP/ALARM                              ----- -----  ----- -----  ----- -----
  +--> ALARM
  +--> _DEBUG_PRINTF/DEBUG

ALARM1_SYNC_TO_RTC/ALARM                      ----- -----  ----- -----  ----- -----
  +--> _DEBUG_PRINTF/DEBUG
  +--> _RTC_READ_DATA/RTC
  +--> _RTC_ALARM_SET_MODE/RTC
  +--> RTC_ALARM_SET_HOUR_12/RTC
  +--> _RTC_ALARM_SET_HOUR/RTC
  +--> _RTC_ALARM_SET_MIN/RTC
  +--> _RTC_WRITE_DATA/RTC
  +--> _RTC_ENABLE_ALARM_INT/RTC
  +--> _RTC_CLR_ALARM_INT_FLAG/RTC

LX51 LINKER/LOCATER V4.66.87.0                                                        06/02/2018  22:09:22  PAGE 36


RTC_SET_LT_TIMER/RTC                          20H.0 20H.0  ----- -----  ----- -----

POWER_5V_ENABLE/POWER                         20H.1 20H.1  ----- -----  ----- -----
  +--> _DEBUG_PRINTF/DEBUG

_SM_CLOCK_MOD_ALARM_SUBMOD2/SM_CLOCK_MOD+     ----- -----  ----- -----  0011H 0012H
... _ALARM
  +--> SM_CLOCK_MOD_ALARM
  +--> _DEBUG_PRINTF/DEBUG
  +--> _TOGGLE_ALARM/SM_CLOCK_MOD_ALARM
  +--> _ENTER_ALARM/SM_CLOCK_MOD_ALARM

_TOGGLE_ALARM/SM_CLOCK_MOD_ALARM              ----- -----  ----- -----  0013H 0013H
  +--> _ALARM0_TEST_ENABLE/ALARM
  +--> _ALARM0_SET_ENABLE/ALARM
  +--> _UPDATE_ALARM/SM_CLOCK_MOD_ALARM
  +--> _WRITE_ONLY/SM_CLOCK_MOD_ALARM

_ALARM0_SET_ENABLE/ALARM                      20H.0 20H.0  ----- -----  0014H 0014H
  +--> _DEBUG_PRINTF/DEBUG
  +--> ALARM

_SM_CLOCK_MOD_ALARM_SUBMOD3/SM_CLOCK_MOD+     ----- -----  ----- -----  0011H 0011H
... _ALARM
  +--> SM_CLOCK_MOD_ALARM
  +--> _DEBUG_PRINTF/DEBUG
  +--> _ENTER_ALARM/SM_CLOCK_MOD_ALARM
  +--> TOGGLE_ALARM_BS/SM_CLOCK_MOD_ALARM

TOGGLE_ALARM_BS/SM_CLOCK_MOD_ALARM            ----- -----  ----- -----  ----- -----
  +--> ALARM1_TEST_ENABLE/ALARM
  +--> ALARM1_SET_ENABLE/ALARM
  +--> ALARM1_SYNC_TO_RTC/ALARM
  +--> _ROM_WRITE/ROM
  +--> _UPDATE_ALARM/SM_CLOCK_MOD_ALARM

ALARM1_SET_ENABLE/ALARM                       20H.0 20H.0  ----- -----  ----- -----

_SM_CLOCK_MOD_ALARM_SUBMOD4/SM_CLOCK_MOD+     ----- -----  ----- -----  0011H 0011H
... _ALARM
  +--> SM_CLOCK_MOD_ALARM
  +--> _DEBUG_PRINTF/DEBUG
  +--> _ENTER_ALARM/SM_CLOCK_MOD_ALARM
  +--> TOGGLE_ALARM_MUSIC/SM_CLOCK_MOD_ALARM

TOGGLE_ALARM_MUSIC/SM_CLOCK_MOD_ALARM         ----- -----  ----- -----  ----- -----
  +--> BEEPER_INC_MUSIC_INDEX/BEEPER
  +--> BEEPER_GET_MUSIC_INDEX/BEEPER
  +--> _ROM_WRITE/ROM
  +--> _UPDATE_ALARM/SM_CLOCK_MOD_ALARM

BEEPER_INC_MUSIC_INDEX/BEEPER                 ----- -----  ----- -----  ----- -----
  +--> _DEBUG_PRINTF/DEBUG

_SM_CLOCK_TIMER_SUBMOD0/SM_CLOCK_TIMER        ----- -----  ----- -----  0011H 0013H
  +--> SM_CLOCK_TIMER
  +--> _DEBUG_PRINTF/DEBUG
  +--> _DISPLAY_SLOT/SM_CLOCK_TIMER
  +--> _TIMER_SET_MODE/TIMER
  +--> TIMER_CLR/TIMER

_DISPLAY_SLOT/SM_CLOCK_TIMER                  ----- -----  ----- -----  0014H 0014H
  +--> LED_CLEAR/LED
  +--> _LED_SET_DP/LED
  +--> _TIMER_GET_MIN/TIMER
LX51 LINKER/LOCATER V4.66.87.0                                                        06/02/2018  22:09:22  PAGE 37


  +--> _TIMER_GET_SEC/TIMER
  +--> SM_CLOCK_TIMER
  +--> _LED_SET_CODE/LED
  +--> _TIMER_GET_MS10/TIMER

_TIMER_GET_MIN/TIMER                          ----- -----  ----- -----  ----- -----
  +--> TIMER

TIMER                                         ----- -----  ----- -----  ----- -----

_TIMER_GET_SEC/TIMER                          ----- -----  ----- -----  ----- -----
  +--> TIMER

_TIMER_GET_MS10/TIMER                         ----- -----  ----- -----  ----- -----
  +--> TIMER

_TIMER_SET_MODE/TIMER                         ----- -----  ----- -----  ----- -----

_SM_CLOCK_COUNTER_INIT/SM_CLOCK_COUNTER       ----- -----  ----- -----  ----- -----
  +--> SM_CLOCK_COUNTER
  +--> _DEBUG_PRINTF/DEBUG
  +--> _DISPLAY_LOGO/MOD_COMMON

SM_CLOCK_COUNTER                              ----- -----  ----- -----  ----- -----

_SM_CLOCK_TIMER_SUBMOD1/SM_CLOCK_TIMER        ----- -----  ----- -----  0011H 0011H
  +--> SM_CLOCK_TIMER
  +--> _DEBUG_PRINTF/DEBUG
  +--> TIMER_START/TIMER
  +--> TIMER_SET_LED_AUTOREFRESH/TIMER
  +--> _SHOW_SLOT_TITLE/SM_CLOCK_TIMER
  +--> _TIMER_SAVE/TIMER

TIMER_START/TIMER                             ----- -----  ----- -----  ----- -----
  +--> _DEBUG_PRINTF/DEBUG

TIMER_SET_LED_AUTOREFRESH/TIMER               20H.0 20H.0  ----- -----  0014H 0014H

_SHOW_SLOT_TITLE/SM_CLOCK_TIMER               ----- -----  ----- -----  0012H 0012H
  +--> LED_CLEAR/LED
  +--> _LED_SET_CODE/LED
  +--> SM_CLOCK_TIMER

_TIMER_SAVE/TIMER                             ----- -----  ----- -----  ----- -----

_SM_CLOCK_TIMER_SUBMOD2/SM_CLOCK_TIMER        ----- -----  ----- -----  0011H 0011H
  +--> SM_CLOCK_TIMER
  +--> _DEBUG_PRINTF/DEBUG
  +--> TIMER_STOP/TIMER
  +--> TIMER_SET_LED_AUTOREFRESH/TIMER
  +--> _DISPLAY_SLOT/SM_CLOCK_TIMER
  +--> _SHOW_SLOT_TITLE/SM_CLOCK_TIMER

TIMER_STOP/TIMER                              ----- -----  ----- -----  ----- -----

_SM_CLOCK_COUNTER_SUBMOD0/SM_CLOCK_COUNT+     ----- -----  ----- -----  0011H 0013H
... ER
  +--> SM_CLOCK_COUNTER
  +--> _DEBUG_PRINTF/DEBUG
  +--> _ENTER_HHMMSS/SM_CLOCK_COUNTER
  +--> TIMER_CLR/TIMER
  +--> _TIMER_SET_MODE/TIMER
  +--> TIMER_SET_LED_AUTOREFRESH/TIMER
  +--> UPDATE_HHMMSS/SM_CLOCK_COUNTER
  +--> _INC_AND_WRITE/SM_CLOCK_COUNTER
LX51 LINKER/LOCATER V4.66.87.0                                                        06/02/2018  22:09:22  PAGE 38


  +--> _INC_ONLY/SM_CLOCK_COUNTER
  +--> _WRITE_ONLY/SM_CLOCK_COUNTER

_ENTER_HHMMSS/SM_CLOCK_COUNTER                ----- -----  ----- -----  0014H 0014H
  +--> LED_CLEAR/LED
  +--> _LED_SET_BLINK/LED
  +--> UPDATE_HHMMSS/SM_CLOCK_COUNTER

UPDATE_HHMMSS/SM_CLOCK_COUNTER                ----- -----  ----- -----  0015H 0017H
  +--> _TIMER_GET_HOUR/TIMER
  +--> _TIMER_GET_MIN/TIMER
  +--> _TIMER_GET_SEC/TIMER
  +--> _LED_SET_DP/LED
  +--> _DEBUG_PRINTF/DEBUG
  +--> SM_CLOCK_COUNTER
  +--> _LED_SET_CODE/LED

_TIMER_GET_HOUR/TIMER                         ----- -----  ----- -----  ----- -----
  +--> TIMER

_INC_AND_WRITE/SM_CLOCK_COUNTER               ----- -----  ----- -----  ----- -----
  +--> _INC_ONLY/SM_CLOCK_COUNTER
  +--> _WRITE_ONLY/SM_CLOCK_COUNTER

_INC_ONLY/SM_CLOCK_COUNTER                    ----- -----  ----- -----  ----- -----
  +--> _TIMER_INC_HOUR/TIMER
  +--> _TIMER_INC_MIN/TIMER
  +--> _LED_CLR_BLINK/LED
  +--> _TIMER_INC_SEC/TIMER

_TIMER_INC_HOUR/TIMER                         ----- -----  ----- -----  ----- -----
  +--> TIMER

_TIMER_INC_MIN/TIMER                          ----- -----  ----- -----  ----- -----
  +--> TIMER

_TIMER_INC_SEC/TIMER                          ----- -----  ----- -----  ----- -----
  +--> TIMER

_WRITE_ONLY/SM_CLOCK_COUNTER                  ----- -----  ----- -----  ----- -----
  +--> _LED_SET_BLINK/LED

_SM_CLOCK_COUNTER_SUBMOD1/SM_CLOCK_COUNT+     ----- -----  ----- -----  0011H 0011H
... ER
  +--> SM_CLOCK_COUNTER
  +--> _DEBUG_PRINTF/DEBUG
  +--> UPDATE_HHMMSS/SM_CLOCK_COUNTER
  +--> _ENTER_HHMMSS/SM_CLOCK_COUNTER
  +--> _INC_AND_WRITE/SM_CLOCK_COUNTER
  +--> _INC_ONLY/SM_CLOCK_COUNTER
  +--> _WRITE_ONLY/SM_CLOCK_COUNTER

_SM_CLOCK_COUNTER_SUBMOD2/SM_CLOCK_COUNT+     ----- -----  ----- -----  0011H 0011H
... ER
  +--> SM_CLOCK_COUNTER
  +--> _DEBUG_PRINTF/DEBUG
  +--> UPDATE_HHMMSS/SM_CLOCK_COUNTER
  +--> _ENTER_HHMMSS/SM_CLOCK_COUNTER
  +--> _INC_AND_WRITE/SM_CLOCK_COUNTER
  +--> _INC_ONLY/SM_CLOCK_COUNTER
  +--> _WRITE_ONLY/SM_CLOCK_COUNTER

_SM_CLOCK_COUNTER_SUBMOD3/SM_CLOCK_COUNT+     ----- -----  ----- -----  0011H 0011H
... ER
  +--> SM_CLOCK_COUNTER
LX51 LINKER/LOCATER V4.66.87.0                                                        06/02/2018  22:09:22  PAGE 39


  +--> _DEBUG_PRINTF/DEBUG
  +--> _LED_CLR_BLINK/LED
  +--> TIMER_START/TIMER
  +--> TIMER_SET_LED_AUTOREFRESH/TIMER

_SM_CLOCK_COUNTER_SUBMOD4/SM_CLOCK_COUNT+     ----- -----  ----- -----  0011H 0011H
... ER
  +--> SM_CLOCK_COUNTER
  +--> _DEBUG_PRINTF/DEBUG
  +--> TIMER_STOP/TIMER
  +--> TIMER_SET_LED_AUTOREFRESH/TIMER

_SM_CLOCK_COUNTER_SUBMOD5/SM_CLOCK_COUNT+     ----- -----  ----- -----  0011H 0011H
... ER
  +--> SM_CLOCK_COUNTER
  +--> _DEBUG_PRINTF/DEBUG
  +--> TIMER_SET_LED_AUTOREFRESH/TIMER
  +--> TIMER_CLR/TIMER
  +--> BEEPER_BEEP_BEEP_ALWAYS/BEEPER

_SM_POWER_PACK_DISPLAY_SUBMOD0/SM_POWER_+     ----- -----  ----- -----  0011H 0011H
... PACK_DISPLAY
  +--> SM_POWER_PACK_DISPLAY
  +--> _DEBUG_PRINTF/DEBUG
  +--> POWER_5V_ENABLE/POWER
  +--> POWER_RESET_POWERSAVE_TO/POWER
  +--> POWER_5V_GET_ENABLE/POWER
  +--> DISPLAY_POWER_VOLUME/SM_POWER_PACK_DISPLAY
  +--> POWER_TEST_POWERSAVE_TO/POWER

POWER_5V_GET_ENABLE/POWER                     ----- -----  ----- -----  ----- -----

DISPLAY_POWER_VOLUME/SM_POWER_PACK_DISPL+     ----- -----  ----- -----  0012H 0012H
... AY
  +--> POWER_GET_VOLUME/POWER
  +--> LED_CLEAR/LED
  +--> _LED_SET_CODE/LED

POWER_GET_VOLUME/POWER                        ----- -----  ----- -----  ----- -----

_SM_FUSE_TEST_INIT/SM_FUSE_TEST               ----- -----  ----- -----  0011H 0011H
  +--> SM_FUSE_TEST
  +--> _DEBUG_PRINTF/DEBUG
  +--> CLOCK_DISPLAY/CLOCK
  +--> _DISPLAY_LOGO/MOD_COMMON
  +--> LT_TIMER_SWITCH_ON/LT_TIMER
  +--> RTC_SET_LT_TIMER/RTC
  +--> POWER_5V_ENABLE/POWER

SM_FUSE_TEST                                  ----- -----  ----- -----  ----- -----

LT_TIMER_SWITCH_ON/LT_TIMER                   ----- -----  ----- -----  ----- -----
  +--> _DEBUG_PRINTF/DEBUG
  +--> LT_TIMER_LOAD_FROM_ROM/LT_TIMER
  +--> LT_TIMER_SYNC_TO_RTC/LT_TIMER
  +--> LT_TIMER_STOP_RTC/LT_TIMER
  +--> RTC_DUMP/RTC

LT_TIMER_SYNC_TO_RTC/LT_TIMER                 ----- -----  ----- -----  ----- -----
  +--> LT_TIMER
  +--> _DEBUG_PRINTF/DEBUG
  +--> _RTC_READ_DATA/RTC
  +--> _RTC_ALARM_SET_MODE/RTC
  +--> RTC_ALARM_SET_HOUR_12/RTC
  +--> _RTC_ALARM_SET_DATE/RTC
LX51 LINKER/LOCATER V4.66.87.0                                                        06/02/2018  22:09:22  PAGE 40


  +--> _RTC_ALARM_SET_HOUR/RTC
  +--> _RTC_ALARM_SET_MIN/RTC
  +--> _RTC_ALARM_SET_SEC/RTC
  +--> _RTC_WRITE_DATA/RTC

_RTC_ALARM_SET_DATE/RTC                       ----- -----  ----- -----  ----- -----
  +--> RTC
  +--> __RTC_SET_DATE/RTC

_SM_POWER_PACK_POWERSAVE_INIT/SM_POWER_P+     ----- -----  ----- -----  ----- -----
... ACK_POWERSAVE
  +--> SM_POWER_PACK_POWERSAVE
  +--> _DEBUG_PRINTF/DEBUG

SM_POWER_PACK_POWERSAVE                       ----- -----  ----- -----  ----- -----

_SM_POWER_PACK_POWERSAVE_SUBMOD0/SM_POWE+     ----- -----  ----- -----  0011H 0011H
... R_PACK_POWERSAVE
  +--> SM_POWER_PACK_POWERSAVE
  +--> _DEBUG_PRINTF/DEBUG
  +--> POWER_ENTER_POWERSAVE/POWER
  +--> POWER_LEAVE_POWERSAVE/POWER

_SM_FUSE_TEST_SUBMOD0/SM_FUSE_TEST            ----- -----  ----- -----  0011H 0011H
  +--> SM_FUSE_TEST
  +--> _DEBUG_PRINTF/DEBUG
  +--> CLOCK_GET_SEC_256/CLOCK
  +--> FUSE_ENABLE/FUSE
  +--> _FUSE_SET_FUSE_BROKE/FUSE
  +--> FUSE_SET_TRIPWIRE_BROKE/FUSE
  +--> _DISPLAY_TEST/SM_FUSE_TEST

FUSE_ENABLE/FUSE                              20H.1 20H.1  ----- -----  ----- -----
  +--> _DEBUG_PRINTF/DEBUG
  +--> FUSE_POWER_ON/FUSE
  +--> FUSE_POWER_OFF/FUSE

FUSE_POWER_ON/FUSE                            ----- -----  ----- -----  ----- -----
  +--> _SERIAL_SET_CTL_BIT/SERIAL_HUB
  +--> SERIAL_CTL_OUT/SERIAL_HUB

_FUSE_SET_FUSE_BROKE/FUSE                     20H.0 20H.0  ----- -----  0012H 0012H
  +--> _DEBUG_PRINTF/DEBUG
  +--> _SERIAL_SET_CTL_BIT/SERIAL_HUB
  +--> SERIAL_CTL_OUT/SERIAL_HUB

FUSE_SET_TRIPWIRE_BROKE/FUSE                  20H.0 20H.0  ----- -----  ----- -----
  +--> _DEBUG_PRINTF/DEBUG
  +--> _SERIAL_SET_CTL_BIT/SERIAL_HUB
  +--> SERIAL_CTL_OUT/SERIAL_HUB

_DISPLAY_TEST/SM_FUSE_TEST                    ----- -----  ----- -----  0015H 0018H
  +--> SM_FUSE_TEST
  +--> _DEBUG_PRINTF/DEBUG
  +--> LED_CLEAR/LED
  +--> _LED_SET_DP/LED
  +--> _LED_SET_CODE/LED
  +--> _LED_SET_BLINK/LED

_SM_FUSE_TEST_SUBMOD1/SM_FUSE_TEST            ----- -----  ----- -----  0011H 0011H
  +--> SM_FUSE_TEST
  +--> _DEBUG_PRINTF/DEBUG
  +--> _SM_FUSE_SET/SM_FUSE_TEST

_SM_FUSE_SET/SM_FUSE_TEST                     ----- -----  ----- -----  0012H 0013H
LX51 LINKER/LOCATER V4.66.87.0                                                        06/02/2018  22:09:22  PAGE 41


  +--> _ENTER_SET/SM_FUSE_TEST
  +--> _INC_WRITE/SM_FUSE_TEST
  +--> _INC_ONLY/SM_FUSE_TEST
  +--> _WRITE_ONLY/SM_FUSE_TEST

_ENTER_SET/SM_FUSE_TEST                       ----- -----  ----- -----  0014H 0014H
  +--> SM_FUSE_TEST
  +--> _DEBUG_PRINTF/DEBUG
  +--> LED_CLEAR/LED
  +--> _LED_SET_DP/LED
  +--> _LED_SET_BLINK/LED
  +--> _LED_SET_CODE/LED
  +--> _ROM_READ/ROM
  +--> _UPDATE_SET/SM_FUSE_TEST

_UPDATE_SET/SM_FUSE_TEST                      ----- -----  ----- -----  ----- -----
  +--> _LED_SET_CODE/LED
  +--> SM_FUSE_TEST

_INC_WRITE/SM_FUSE_TEST                       ----- -----  ----- -----  0014H 0014H
  +--> _DEBUG_PRINTF/DEBUG
  +--> _INC_ONLY/SM_FUSE_TEST
  +--> _WRITE_ONLY/SM_FUSE_TEST

_INC_ONLY/SM_FUSE_TEST                        ----- -----  ----- -----  0015H 0015H
  +--> SM_FUSE_TEST
  +--> _DEBUG_PRINTF/DEBUG
  +--> _LED_CLR_BLINK/LED
  +--> _THERMO_THRESHOLD_INC/THERMO
  +--> _MPU_THRESHOLD_INC/MPU
  +--> _UPDATE_SET/SM_FUSE_TEST

_THERMO_THRESHOLD_INC/THERMO                  ----- -----  ----- -----  0016H 0016H
  +--> _DEBUG_PRINTF/DEBUG

_MPU_THRESHOLD_INC/MPU                        ----- -----  ----- -----  ----- -----

_WRITE_ONLY/SM_FUSE_TEST                      ----- -----  ----- -----  0015H 0015H
  +--> SM_FUSE_TEST
  +--> _DEBUG_PRINTF/DEBUG
  +--> _LED_SET_BLINK/LED
  +--> _ROM_WRITE/ROM

_SM_FUSE_PARAM_INIT/SM_FUSE_PARAM             ----- -----  ----- -----  0011H 0011H
  +--> SM_FUSE_PARAM
  +--> _DEBUG_PRINTF/DEBUG
  +--> _DISPLAY_LOGO/MOD_COMMON

SM_FUSE_PARAM                                 ----- -----  ----- -----  ----- -----

_SM_GLOBAL_FLAG_MOD_INIT/SM_GLOBAL_FLAG_+     ----- -----  ----- -----  ----- -----
... MOD
  +--> SM_GLOBAL_FLAG_MOD
  +--> _DEBUG_PRINTF/DEBUG
  +--> LT_TIMER_SWITCH_OFF/LT_TIMER
  +--> _DISPLAY_LOGO/MOD_COMMON

SM_GLOBAL_FLAG_MOD                            ----- -----  ----- -----  ----- -----

_SM_FUSE_TEST_SUBMOD2/SM_FUSE_TEST            ----- -----  ----- -----  0011H 0011H
  +--> SM_FUSE_TEST
  +--> _DEBUG_PRINTF/DEBUG
  +--> _SM_FUSE_TEST_THERMO/SM_FUSE_TEST

_SM_FUSE_TEST_THERMO/SM_FUSE_TEST             ----- -----  ----- -----  0012H 0014H
LX51 LINKER/LOCATER V4.66.87.0                                                        06/02/2018  22:09:22  PAGE 42


  +--> SM_FUSE_TEST
  +--> THERMO_ENABLE/THERMO
  +--> THERMO_HI_THRESHOLD_GET/THERMO
  +--> THERMO_LO_THRESHOLD_GET/THERMO
  +--> _ROM_READ/ROM
  +--> _DEBUG_PRINTF/DEBUG
  +--> CLOCK_GET_SEC_256/CLOCK
  +--> THERMO_HI_THRESHOLD_REACH_BOTTOM/THERMO
  +--> THERMO_HI_THRESHOLD_DEC/THERMO
  +--> THERMO_LO_THRESHOLD_REACH_TOP/THERMO
  +--> THERMO_LO_THRESHOLD_INC/THERMO
  +--> _DISPLAY_TEST/SM_FUSE_TEST

THERMO_ENABLE/THERMO                          20H.1 20H.1  ----- -----  ----- -----
  +--> THERMO_POWER_ON/THERMO
  +--> THERMO_POWER_OFF/THERMO

THERMO_POWER_ON/THERMO                        ----- -----  ----- -----  0015H 0015H
  +--> THERMO_LOAD_CONFIG/THERMO
  +--> _I2C_GET/I2C
  +--> THERMO_LO_THRESHOLD_RESET/THERMO
  +--> THERMO_HI_THRESHOLD_RESET/THERMO
  +--> THERMO
  +--> _I2C_PUT/I2C

THERMO_HI_THRESHOLD_REACH_BOTTOM/THERMO       ----- -----  ----- -----  ----- -----
  +--> THERMO_HI_THRESHOLD_GET/THERMO
  +--> THERMO

THERMO_HI_THRESHOLD_DEC/THERMO                ----- -----  ----- -----  ----- -----
  +--> THERMO_HI_THRESHOLD_GET/THERMO
  +--> THERMO
  +--> _THERMO_HI_THRESHOLD_SET/THERMO

THERMO_LO_THRESHOLD_REACH_TOP/THERMO          ----- -----  ----- -----  ----- -----
  +--> THERMO_LO_THRESHOLD_GET/THERMO
  +--> THERMO

THERMO_LO_THRESHOLD_INC/THERMO                ----- -----  ----- -----  ----- -----
  +--> THERMO_LO_THRESHOLD_GET/THERMO
  +--> THERMO
  +--> _THERMO_LO_THRESHOLD_SET/THERMO

_SM_FUSE_TEST_SUBMOD3/SM_FUSE_TEST            ----- -----  ----- -----  0011H 0011H
  +--> SM_FUSE_TEST
  +--> _DEBUG_PRINTF/DEBUG
  +--> _SM_FUSE_SET/SM_FUSE_TEST

_SM_FUSE_TEST_SUBMOD4/SM_FUSE_TEST            ----- -----  ----- -----  0011H 0011H
  +--> SM_FUSE_TEST
  +--> _DEBUG_PRINTF/DEBUG
  +--> _SM_FUSE_TEST_THERMO/SM_FUSE_TEST

_SM_FUSE_TEST_SUBMOD5/SM_FUSE_TEST            ----- -----  ----- -----  0011H 0011H
  +--> SM_FUSE_TEST
  +--> _DEBUG_PRINTF/DEBUG
  +--> _SM_FUSE_SET/SM_FUSE_TEST

_SM_FUSE_TEST_SUBMOD6/SM_FUSE_TEST            ----- -----  ----- -----  0011H 0011H
  +--> SM_FUSE_TEST
  +--> _DEBUG_PRINTF/DEBUG
  +--> _SM_FUSE_TEST_HG_MPU/SM_FUSE_TEST

_SM_FUSE_TEST_HG_MPU/SM_FUSE_TEST             ----- -----  ----- -----  0012H 0014H
  +--> HG_ENABLE/HG
LX51 LINKER/LOCATER V4.66.87.0                                                        06/02/2018  22:09:22  PAGE 43


  +--> MPU_ENABLE/MPU
  +--> SM_FUSE_TEST
  +--> _ROM_READ/ROM
  +--> MPU_THRESHOLD_GET/MPU
  +--> HG_GET_STATE/HG
  +--> _UPDATE_HG_MASK/SM_FUSE_TEST
  +--> _DISPLAY_TEST/SM_FUSE_TEST
  +--> CLOCK_GET_SEC_256/CLOCK

HG_ENABLE/HG                                  20H.1 20H.1  ----- -----  ----- -----
  +--> _DEBUG_PRINTF/DEBUG
  +--> HG_POWER_ON/HG
  +--> HG_POWER_OFF/HG

HG_POWER_ON/HG                                ----- -----  ----- -----  ----- -----
  +--> _SERIAL_SET_CTL_BIT/SERIAL_HUB
  +--> SERIAL_CTL_OUT/SERIAL_HUB
  +--> HG_CB_SET_ENABLE/HG
  +--> _DELAY_TASK_REG/DELAY_TASK

HG_CB_SET_ENABLE/HG                           ----- -----  ----- -----  ----- -----
  +--> _DEBUG_PRINTF/DEBUG

_DELAY_TASK_REG/DELAY_TASK                    ----- -----  ----- -----  0015H 0018H
  +--> _DEBUG_PRINTF/DEBUG
  +--> DELAY_TASK

MPU_ENABLE/MPU                                20H.1 20H.1  ----- -----  ----- -----
  +--> _DEBUG_PRINTF/DEBUG
  +--> MPU_POWER_ON/MPU
  +--> MPU_POWER_OFF/MPU

MPU_THRESHOLD_GET/MPU                         ----- -----  ----- -----  0015H 0015H
  +--> _I2C_GET/I2C

HG_GET_STATE/HG                               ----- -----  ----- -----  ----- -----
  +--> HG
  +--> _DEBUG_PRINTF/DEBUG

_UPDATE_HG_MASK/SM_FUSE_TEST                  ----- -----  ----- -----  0015H 0016H
  +--> SM_FUSE_TEST
  +--> _DEBUG_PRINTF/DEBUG

_SM_FUSE_TEST_SUBMOD7/SM_FUSE_TEST            ----- -----  ----- -----  0011H 0011H
  +--> SM_FUSE_TEST
  +--> _DEBUG_PRINTF/DEBUG
  +--> _SM_FUSE_SET/SM_FUSE_TEST

_SM_FUSE_TEST_SUBMOD8/SM_FUSE_TEST            ----- -----  ----- -----  0011H 0011H
  +--> SM_FUSE_TEST
  +--> _DEBUG_PRINTF/DEBUG
  +--> _SM_FUSE_TEST_HG_MPU/SM_FUSE_TEST

_SM_FUSE_PARAM_SUBMOD0/SM_FUSE_PARAM          ----- -----  ----- -----  0011H 0012H
  +--> SM_FUSE_PARAM
  +--> _DEBUG_PRINTF/DEBUG
  +--> LT_TIMER_LOAD_FROM_ROM/LT_TIMER
  +--> _SM_FUSE_PARAM_SET_TIME/SM_FUSE_PARAM

_SM_FUSE_PARAM_SET_TIME/SM_FUSE_PARAM         ----- -----  ----- -----  0013H 0014H
  +--> _ENTER_TIME/SM_FUSE_PARAM
  +--> _INC_AND_WRITE/SM_FUSE_PARAM
  +--> _UPDATE_TIME/SM_FUSE_PARAM
  +--> _INC_ONLY/SM_FUSE_PARAM
  +--> _WRITE_ONLY/SM_FUSE_PARAM
LX51 LINKER/LOCATER V4.66.87.0                                                        06/02/2018  22:09:22  PAGE 44



_ENTER_TIME/SM_FUSE_PARAM                     ----- -----  ----- -----  0015H 0015H
  +--> LED_CLEAR/LED
  +--> _LED_SET_BLINK/LED
  +--> _UPDATE_TIME/SM_FUSE_PARAM

_UPDATE_TIME/SM_FUSE_PARAM                    ----- -----  ----- -----  0016H 001BH
  +--> LT_TIMER_GET_YEAR/LT_TIMER
  +--> LT_TIMER_GET_MONTH/LT_TIMER
  +--> LT_TIMER_GET_DATE/LT_TIMER
  +--> _LED_SET_DP/LED
  +--> _DEBUG_PRINTF/DEBUG
  +--> _LED_SET_CODE/LED
  +--> LT_TIMER_GET_HOUR/LT_TIMER
  +--> LT_TIMER_GET_MIN/LT_TIMER
  +--> LT_TIMER_GET_SEC/LT_TIMER
  +--> LT_TIMER_GET_HOUR_12/LT_TIMER
  +--> _LED_CLR_DP/LED

LT_TIMER_GET_DATE/LT_TIMER                    ----- -----  ----- -----  ----- -----

LT_TIMER_GET_HOUR/LT_TIMER                    ----- -----  ----- -----  ----- -----

LT_TIMER_GET_MIN/LT_TIMER                     ----- -----  ----- -----  ----- -----

LT_TIMER_GET_SEC/LT_TIMER                     ----- -----  ----- -----  ----- -----

LT_TIMER_GET_HOUR_12/LT_TIMER                 ----- -----  ----- -----  ----- -----

_INC_AND_WRITE/SM_FUSE_PARAM                  ----- -----  ----- -----  ----- -----
  +--> _INC_ONLY/SM_FUSE_PARAM
  +--> _WRITE_ONLY/SM_FUSE_PARAM

_INC_ONLY/SM_FUSE_PARAM                       ----- -----  ----- -----  ----- -----
  +--> LT_TIMER_INC_HOUR/LT_TIMER
  +--> LT_TIMER_INC_YEAR/LT_TIMER
  +--> LT_TIMER_INC_MIN/LT_TIMER
  +--> LT_TIMER_INC_MONTH/LT_TIMER
  +--> _LED_CLR_BLINK/LED
  +--> LT_TIMER_INC_SEC/LT_TIMER
  +--> LT_TIMER_INC_DATE/LT_TIMER

LT_TIMER_INC_HOUR/LT_TIMER                    ----- -----  ----- -----  ----- -----

LT_TIMER_INC_YEAR/LT_TIMER                    ----- -----  ----- -----  ----- -----

LT_TIMER_INC_MIN/LT_TIMER                     ----- -----  ----- -----  ----- -----

LT_TIMER_INC_MONTH/LT_TIMER                   ----- -----  ----- -----  ----- -----

LT_TIMER_INC_SEC/LT_TIMER                     ----- -----  ----- -----  ----- -----

LT_TIMER_INC_DATE/LT_TIMER                    ----- -----  ----- -----  ----- -----
  +--> _CLOCK_GET_MON_DATE/CLOCK

_WRITE_ONLY/SM_FUSE_PARAM                     ----- -----  ----- -----  0015H 0015H
  +--> _ROM_WRITE/ROM
  +--> _LT_TIMER_SAVE_TO_ROM/LT_TIMER
  +--> _LED_SET_BLINK/LED

_LT_TIMER_SAVE_TO_ROM/LT_TIMER                ----- -----  ----- -----  0016H 0016H
  +--> LT_TIMER
  +--> _DEBUG_PRINTF/DEBUG
  +--> _ROM_WRITE/ROM

LX51 LINKER/LOCATER V4.66.87.0                                                        06/02/2018  22:09:22  PAGE 45


_SM_FUSE_PARAM_SUBMOD1/SM_FUSE_PARAM          ----- -----  ----- -----  0011H 0011H
  +--> SM_FUSE_PARAM
  +--> _DEBUG_PRINTF/DEBUG
  +--> _SM_FUSE_PARAM_SET_TIME/SM_FUSE_PARAM

_SM_FUSE_TIMER_INIT/SM_FUSE_TIMER             ----- -----  ----- -----  ----- -----
  +--> SM_FUSE_TIMER
  +--> _DEBUG_PRINTF/DEBUG
  +--> _DISPLAY_LOGO/MOD_COMMON

SM_FUSE_TIMER                                 ----- -----  ----- -----  ----- -----

_SM_FUSE_PARAM_SUBMOD2/SM_FUSE_PARAM          ----- -----  ----- -----  0011H 0011H
  +--> SM_FUSE_PARAM
  +--> _DEBUG_PRINTF/DEBUG
  +--> _SM_FUSE_PARAM_SET_TIME/SM_FUSE_PARAM

_SM_FUSE_PARAM_SUBMOD3/SM_FUSE_PARAM          ----- -----  ----- -----  0011H 0011H
  +--> SM_FUSE_PARAM
  +--> _DEBUG_PRINTF/DEBUG
  +--> _SM_FUSE_PARAM_SET_TIME/SM_FUSE_PARAM

_SM_FUSE_PARAM_SUBMOD4/SM_FUSE_PARAM          ----- -----  ----- -----  0011H 0011H
  +--> SM_FUSE_PARAM
  +--> _DEBUG_PRINTF/DEBUG
  +--> _SM_FUSE_PARAM_SET_TIME/SM_FUSE_PARAM

_SM_FUSE_PARAM_SUBMOD5/SM_FUSE_PARAM          ----- -----  ----- -----  0011H 0011H
  +--> SM_FUSE_PARAM
  +--> _DEBUG_PRINTF/DEBUG
  +--> _SM_FUSE_PARAM_SET_TIME/SM_FUSE_PARAM

_SM_FUSE_PARAM_SUBMOD6/SM_FUSE_PARAM          ----- -----  ----- -----  0011H 0012H
  +--> SM_FUSE_PARAM
  +--> _DEBUG_PRINTF/DEBUG
  +--> _ENTER_PASSWORD/SM_FUSE_PARAM
  +--> _INC_AND_WRITE/SM_FUSE_PARAM
  +--> _UPDATE_PASSWORD/SM_FUSE_PARAM
  +--> _INC_ONLY/SM_FUSE_PARAM
  +--> _WRITE_ONLY/SM_FUSE_PARAM

_ENTER_PASSWORD/SM_FUSE_PARAM                 ----- -----  ----- -----  0013H 0013H
  +--> _ROM_READ/ROM
  +--> _UPDATE_PASSWORD/SM_FUSE_PARAM

_UPDATE_PASSWORD/SM_FUSE_PARAM                ----- -----  ----- -----  0014H 0014H
  +--> LED_CLEAR/LED
  +--> _LED_SET_CODE/LED

_SM_FUSE_TIMER_SUBMOD0/SM_FUSE_TIMER          ----- -----  ----- -----  0011H 0012H
  +--> SM_FUSE_TIMER
  +--> _DEBUG_PRINTF/DEBUG
  +--> _DISPLAY_PREARM/SM_FUSE_TIMER
  +--> _CHECK_AND_SET/SM_FUSE_TIMER
  +--> ROLL_BACK/SM_FUSE_TIMER

_DISPLAY_PREARM/SM_FUSE_TIMER                 ----- -----  ----- -----  0013H 0014H
  +--> LED_CLEAR/LED
  +--> _LED_SET_CODE/LED
  +--> SM_FUSE_TIMER

_CHECK_AND_SET/SM_FUSE_TIMER                  ----- -----  ----- -----  0013H 0014H
  +--> FUSE_ENABLE/FUSE
  +--> MPU_ENABLE/MPU
  +--> HG_ENABLE/HG
LX51 LINKER/LOCATER V4.66.87.0                                                        06/02/2018  22:09:22  PAGE 46


  +--> _ROM_READ/ROM
  +--> THERMO_ENABLE/THERMO
  +--> LT_TIMER_LOAD_FROM_ROM/LT_TIMER
  +--> LT_TIMER_SYNC_TO_RTC/LT_TIMER
  +--> LT_TIMER_GET_RELATIVE/LT_TIMER
  +--> LT_TIMER_START_RAM/LT_TIMER

ROLL_BACK/SM_FUSE_TIMER                       20H.0 20H.0  ----- -----  ----- -----
  +--> _DEBUG_PRINTF/DEBUG
  +--> THERMO_ENABLE/THERMO
  +--> MPU_ENABLE/MPU
  +--> HG_ENABLE/HG
  +--> LT_TIMER_RESET/LT_TIMER
  +--> FUSE_ENABLE/FUSE

LT_TIMER_RESET/LT_TIMER                       ----- -----  ----- -----  ----- -----
  +--> LT_TIMER_STOP_RTC/LT_TIMER
  +--> LT_TIMER_STOP_RAM/LT_TIMER

_SM_FUSE_TIMER_SUBMOD1/SM_FUSE_TIMER          ----- -----  ----- -----  0011H 0012H
  +--> SM_FUSE_TIMER
  +--> _DEBUG_PRINTF/DEBUG
  +--> LT_TIMER_DISPLAY/LT_TIMER
  +--> POWER_TEST_POWERSAVE_TO/POWER
  +--> POWER_RESET_POWERSAVE_TO/POWER
  +--> LT_TIMER_SWITCH_DISPLAY/LT_TIMER

LT_TIMER_DISPLAY/LT_TIMER                     20H.0 20H.0  ----- -----  ----- -----
  +--> _DEBUG_PRINTF/DEBUG

LT_TIMER_SWITCH_DISPLAY/LT_TIMER              ----- -----  ----- -----  ----- -----
  +--> _DEBUG_PRINTF/DEBUG

_SM_FUSE_TIMER_SUBMOD2/SM_FUSE_TIMER          ----- -----  ----- -----  0011H 0012H
  +--> SM_FUSE_TIMER
  +--> _DEBUG_PRINTF/DEBUG
  +--> LT_TIMER_DISPLAY/LT_TIMER
  +--> VERIFY_PASSWORD/SM_FUSE_TIMER
  +--> DISPLAY_PASSWORD/SM_FUSE_TIMER
  +--> INC_PASSWORD/SM_FUSE_TIMER

VERIFY_PASSWORD/SM_FUSE_TIMER                 ----- -----  ----- -----  0013H 0013H
  +--> _ROM_READ/ROM
  +--> SM_FUSE_TIMER
  +--> _DEBUG_PRINTF/DEBUG

DISPLAY_PASSWORD/SM_FUSE_TIMER                ----- -----  ----- -----  ----- -----
  +--> LED_CLEAR/LED
  +--> _LED_SET_CODE/LED

INC_PASSWORD/SM_FUSE_TIMER                    ----- -----  ----- -----  ----- -----

_SM_FUSE_TIMER_SUBMOD3/SM_FUSE_TIMER          ----- -----  ----- -----  0011H 0011H
  +--> SM_FUSE_TIMER
  +--> _DEBUG_PRINTF/DEBUG
  +--> ROLL_BACK/SM_FUSE_TIMER
  +--> _DISPLAY_TIMER/SM_FUSE_TIMER

_DISPLAY_TIMER/SM_FUSE_TIMER                  ----- -----  ----- -----  0012H 0012H
  +--> LED_CLEAR/LED
  +--> _LED_SET_CODE/LED

_SM_FUSE_TIMER_SUBMOD4/SM_FUSE_TIMER          ----- -----  ----- -----  ----- -----
  +--> SM_FUSE_TIMER
  +--> _DEBUG_PRINTF/DEBUG
LX51 LINKER/LOCATER V4.66.87.0                                                        06/02/2018  22:09:22  PAGE 47


  +--> ROLL_BACK/SM_FUSE_TIMER
  +--> _DISPLAY_TIMER/SM_FUSE_TIMER

_SM_FUSE_DETONATE_INIT/SM_FUSE_DETONATE       ----- -----  ----- -----  ----- -----
  +--> SM_FUSE_DETONATE
  +--> _DEBUG_PRINTF/DEBUG
  +--> DISPLAY_DETONATE/SM_FUSE_DETONATE

SM_FUSE_DETONATE                              ----- -----  ----- -----  ----- -----

DISPLAY_DETONATE/SM_FUSE_DETONATE             ----- -----  ----- -----  ----- -----
  +--> LED_CLEAR/LED
  +--> _LED_SET_CODE/LED
  +--> _LED_SET_BLINK/LED

_SM_FUSE_POWERSAVE_INIT/SM_FUSE_POWERSAV+     ----- -----  ----- -----  ----- -----
... E
  +--> SM_FUSE_POWERSAVE
  +--> _DEBUG_PRINTF/DEBUG

SM_FUSE_POWERSAVE                             ----- -----  ----- -----  ----- -----

_SM_FUSE_DETONATE_SUBMOD0/SM_FUSE_DETONA+     ----- -----  ----- -----  0011H 0011H
... TE
  +--> SM_FUSE_DETONATE
  +--> _DEBUG_PRINTF/DEBUG
  +--> FUSE_TRIGGER/FUSE
  +--> FUSE_ENABLE/FUSE

FUSE_TRIGGER/FUSE                             20H.0 20H.0  ----- -----  ----- -----
  +--> _DEBUG_PRINTF/DEBUG
  +--> POWER_5V_ENABLE/POWER
  +--> _SERIAL_SET_CTL_BIT/SERIAL_HUB
  +--> SERIAL_CTL_OUT/SERIAL_HUB

_SM_FUSE_POWERSAVE_SUBMOD0/SM_FUSE_POWER+     ----- -----  ----- -----  0011H 0011H
... SAVE
  +--> SM_FUSE_POWERSAVE
  +--> _DEBUG_PRINTF/DEBUG
  +--> POWER_ENTER_POWERSAVE/POWER
  +--> POWER_LEAVE_POWERSAVE/POWER

_SM_FUSE_POWERSAVE_SUBMOD1/SM_FUSE_POWER+     ----- -----  ----- -----  ----- -----
... SAVE
  +--> SM_FUSE_POWERSAVE
  +--> _DEBUG_PRINTF/DEBUG
  +--> ROLL_BACK/SM_FUSE_POWERSAVE

ROLL_BACK/SM_FUSE_POWERSAVE                   ----- -----  ----- -----  ----- -----
  +--> THERMO_ENABLE/THERMO
  +--> MPU_ENABLE/MPU
  +--> HG_ENABLE/HG
  +--> LT_TIMER_RESET/LT_TIMER

_SM_GLOBAL_FLAG_MOD_SUBMOD0/SM_GLOBAL_FL+     ----- -----  ----- -----  0011H 0011H
... AG_MOD
  +--> SM_GLOBAL_FLAG_MOD
  +--> _DEBUG_PRINTF/DEBUG
  +--> _SM_GLOBAL_FLAG_MOD/SM_GLOBAL_FLAG_MOD

_SM_GLOBAL_FLAG_MOD/SM_GLOBAL_FLAG_MOD        ----- -----  ----- -----  0012H 0013H
  +--> _INC_WRITE/SM_GLOBAL_FLAG_MOD
  +--> _DISPLAY_GLOBAL_FLAG/SM_GLOBAL_FLAG_MOD

_INC_WRITE/SM_GLOBAL_FLAG_MOD                 20H.0 20H.0  ----- -----  ----- -----
LX51 LINKER/LOCATER V4.66.87.0                                                        06/02/2018  22:09:22  PAGE 48


  +--> POWER_INC_POWERSAVE_TO/POWER
  +--> POWER_GET_POWERSAVE_TO/POWER
  +--> BEEPER_GET_BEEP_ENABLE/BEEPER
  +--> BEEPER_SET_BEEP_ENABLE/BEEPER
  +--> BEEPER_INC_MUSIC_TO/BEEPER
  +--> BEEPER_GET_MUSIC_TO/BEEPER
  +--> _ROM_READ/ROM
  +--> CLOCK_SET_HOUR_12/CLOCK
  +--> _CLOCK_SYNC_TO_RTC/CLOCK
  +--> ALARM0_SET_HOUR_12/ALARM
  +--> LT_TIMER_SET_HOUR_12/LT_TIMER
  +--> _ROM_WRITE/ROM

POWER_INC_POWERSAVE_TO/POWER                  ----- -----  ----- -----  ----- -----

POWER_GET_POWERSAVE_TO/POWER                  ----- -----  ----- -----  ----- -----

BEEPER_GET_BEEP_ENABLE/BEEPER                 ----- -----  ----- -----  ----- -----

BEEPER_SET_BEEP_ENABLE/BEEPER                 20H.1 20H.1  ----- -----  ----- -----

BEEPER_INC_MUSIC_TO/BEEPER                    ----- -----  ----- -----  ----- -----

BEEPER_GET_MUSIC_TO/BEEPER                    ----- -----  ----- -----  ----- -----

CLOCK_SET_HOUR_12/CLOCK                       20H.1 20H.1  ----- -----  ----- -----

ALARM0_SET_HOUR_12/ALARM                      20H.1 20H.1  ----- -----  ----- -----

LT_TIMER_SET_HOUR_12/LT_TIMER                 20H.1 20H.1  ----- -----  ----- -----

_DISPLAY_GLOBAL_FLAG/SM_GLOBAL_FLAG_MOD       ----- -----  ----- -----  0014H 0014H
  +--> LED_CLEAR/LED
  +--> _DEBUG_PRINTF/DEBUG
  +--> POWER_GET_POWERSAVE_TO_S/POWER
  +--> SM_GLOBAL_FLAG_MOD
  +--> _LED_SET_CODE/LED
  +--> BEEPER_GET_BEEP_ENABLE/BEEPER
  +--> BEEPER_GET_MUSIC_TO/BEEPER
  +--> _ROM_READ/ROM

POWER_GET_POWERSAVE_TO_S/POWER                ----- -----  ----- -----  ----- -----

_SM_GLOBAL_FLAG_MOD_SUBMOD1/SM_GLOBAL_FL+     ----- -----  ----- -----  0011H 0011H
... AG_MOD
  +--> SM_GLOBAL_FLAG_MOD
  +--> _DEBUG_PRINTF/DEBUG
  +--> _SM_GLOBAL_FLAG_MOD/SM_GLOBAL_FLAG_MOD

_SM_GLOBAL_FLAG_MOD_SUBMOD2/SM_GLOBAL_FL+     ----- -----  ----- -----  0011H 0011H
... AG_MOD
  +--> SM_GLOBAL_FLAG_MOD
  +--> _DEBUG_PRINTF/DEBUG
  +--> _SM_GLOBAL_FLAG_MOD/SM_GLOBAL_FLAG_MOD

_SM_GLOBAL_FLAG_MOD_SUBMOD3/SM_GLOBAL_FL+     ----- -----  ----- -----  0011H 0011H
... AG_MOD
  +--> SM_GLOBAL_FLAG_MOD
  +--> _DEBUG_PRINTF/DEBUG
  +--> _SM_GLOBAL_FLAG_MOD/SM_GLOBAL_FLAG_MOD

_SCAN_KEY_PROC/KEY                            ----- -----  ----- -----  ----- -----
  +--> _DELAY_10US/MISC
  +--> CLOCK_GET_SEC_256/CLOCK
  +--> KEY
LX51 LINKER/LOCATER V4.66.87.0                                                        06/02/2018  22:09:22  PAGE 49



KEY                                           ----- -----  ----- -----  ----- -----

_SET_PROC/KEY                                 ----- -----  ----- -----  000CH 000CH
  +--> KEY
  +--> _DEBUG_PRINTF/DEBUG
  +--> BEEPER_BEEP/BEEPER
  +--> _RUN_STATE_MACHINE/SM

BEEPER_BEEP/BEEPER                            ----- -----  ----- -----  000DH 000DH
  +--> _DEBUG_PRINTF/DEBUG
  +--> _DELAY_10US/MISC

_MOD_PROC/KEY                                 ----- -----  ----- -----  000CH 000CH
  +--> KEY
  +--> _DEBUG_PRINTF/DEBUG
  +--> BEEPER_BEEP/BEEPER
  +--> _RUN_STATE_MACHINE/SM

_MOD_SET_PROC/KEY                             ----- -----  ----- -----  000CH 000CH
  +--> _DEBUG_PRINTF/DEBUG
  +--> _RUN_STATE_MACHINE/SM

_FUSE_PROC/FUSE                               ----- -----  ----- -----  000CH 000CH
  +--> _DEBUG_PRINTF/DEBUG
  +--> _RUN_STATE_MACHINE/SM

_NULL_PROC/SM                                 ----- -----  ----- -----  ----- -----
  +--> _RUN_STATE_MACHINE/SM

_THERMO_PROC/THERMO                           ----- -----  ----- -----  000CH 000CH
  +--> _DEBUG_PRINTF/DEBUG
  +--> _RUN_STATE_MACHINE/SM

_ALARM_PROC/ALARM                             ----- -----  ----- -----  000CH 000CH
  +--> _DEBUG_PRINTF/DEBUG
  +--> _RUN_STATE_MACHINE/SM

_POWER_PROC/POWER                             ----- -----  ----- -----  000CH 000CH
  +--> _DEBUG_PRINTF/DEBUG
  +--> _RUN_STATE_MACHINE/SM

SM_INITIALIZE/SM                              ----- -----  ----- -----  ----- -----
  +--> _DEBUG_PRINTF/DEBUG
  +--> LT_TIMER_SWITCH_OFF/LT_TIMER
  +--> ALARM_SWITCH_ON/ALARM
  +--> RTC_SET_LT_TIMER/RTC

DELAY_TASK_INITIALIZE/DELAY_TASK              ----- -----  ----- -----  ----- -----
  +--> _DEBUG_PRINTF/DEBUG

RUN_TASK/TASK                                 ----- -----  ----- -----  0000H 0000H
  +--> COM_TRY_GET_KEY/COM
  +--> TASK

COM_TRY_GET_KEY/COM                           ----- -----  ----- -----  ----- -----
  +--> COM

COM                                           ----- -----  ----- -----  ----- -----

TASK                                          ----- -----  ----- -----  ----- -----

RUN_SHELL/SHELL                               ----- -----  ----- -----  0000H 0001H
  +--> PRINTF/PRINTF
  +--> CLOCK_ENTER_SHELL/CLOCK
LX51 LINKER/LOCATER V4.66.87.0                                                        06/02/2018  22:09:22  PAGE 50


  +--> LED_SAVE/LED
  +--> LED_CLEAR/LED
  +--> _LED_SET_CODE/LED
  +--> _GETS/GETS
  +--> SHELL
  +--> _CALL_CMD/SHELL
  +--> LED_RESTORE/LED
  +--> CLOCK_LEAVE_SHELL/CLOCK

_CMD_HELP/CMD_HELP                            ----- -----  ----- -----  0008H 0008H
  +--> SHELL_DUMP_CMD/SHELL
  +--> CMD_HELP
  +--> _SHELL_SEARCH_CMD_BY_NAME/SHELL
  +--> PRINTF/PRINTF

SHELL_DUMP_CMD/SHELL                          ----- -----  ----- -----  0009H 0009H
  +--> SHELL
  +--> PRINTF/PRINTF

SHELL                                         ----- -----  ----- -----  ----- -----

CMD_HELP                                      ----- -----  ----- -----  ----- -----

_SHELL_SEARCH_CMD_BY_NAME/SHELL               ----- -----  ----- -----  0009H 000CH
  +--> SHELL

_CMD_DBG/CMD_DBG                              ----- -----  ----- -----  0008H 0008H
  +--> CMD_DBG
  +--> PRINTF/PRINTF
  +--> DEBUG_ONOFF/DEBUG

CMD_DBG                                       ----- -----  ----- -----  ----- -----

DEBUG_ONOFF/DEBUG                             20H.0 20H.0  ----- -----  ----- -----

_CMD_SERIAL/CMD_SERIAL                        ----- -----  ----- -----  0008H 000BH
  +--> SERIAL_DUMP/SERIAL_HUB
  +--> _SERIAL_TEST_CTL_BIT/SERIAL_HUB
  +--> CMD_SERIAL
  +--> PRINTF/PRINTF
  +--> _SERIAL_SET_CTL_BIT/SERIAL_HUB
  +--> SERIAL_CTL_OUT/SERIAL_HUB
  +--> _ATOI/ATOI

CMD_SERIAL                                    ----- -----  ----- -----  ----- -----

_ATOI/ATOI                                    20H.1 20H.1  ----- -----  000FH 0013H
  +--> _ISSPACE/ISSPACE
  +--> _ISDIGIT/ISDIGIT

_ISSPACE/ISSPACE                              ----- -----  ----- -----  ----- -----

_ISDIGIT/ISDIGIT                              ----- -----  ----- -----  ----- -----

_CMD_INT/CMD_INT                              ----- -----  ----- -----  0008H 0008H
  +--> INT_HUB_DUMP/INT_HUB
  +--> INT_HUB_GET_STATUS/INT_HUB
  +--> _INT_HUB_DUMP_EXT_STATUS/INT_HUB

_CMD_I2C/CMD_I2C                              ----- -----  ----- -----  0008H 0009H
  +--> CMD_I2C
  +--> _I2C_READ/CMD_I2C
  +--> _I2C_WRITE/CMD_I2C

CMD_I2C                                       ----- -----  ----- -----  ----- -----
LX51 LINKER/LOCATER V4.66.87.0                                                        06/02/2018  22:09:22  PAGE 51



_I2C_READ/CMD_I2C                             20H.0 20H.0  ----- -----  000AH 000DH
  +--> CMD_I2C
  +--> _ATOI/ATOI
  +--> I2C_INIT/I2C
  +--> _I2C_GET/I2C
  +--> PRINTF/PRINTF

_I2C_WRITE/CMD_I2C                            20H.0 20H.0  ----- -----  000AH 000EH
  +--> CMD_I2C
  +--> _ATOI/ATOI
  +--> PRINTF/PRINTF
  +--> I2C_INIT/I2C
  +--> _I2C_PUT/I2C

_CMD_REBOOT/CMD_REBOOT                        ----- -----  ----- -----  0008H 0009H

_CMD_TASK/CMD_TASK                            ----- -----  ----- -----  0008H 000AH
  +--> TASK_DUMP/TASK
  +--> CMD_TASK
  +--> _ATOI/ATOI

TASK_DUMP/TASK                                ----- -----  ----- -----  000BH 000BH
  +--> TASK
  +--> PRINTF/PRINTF

CMD_TASK                                      ----- -----  ----- -----  ----- -----

_CMD_SM/CMD_SM                                ----- -----  ----- -----  0008H 0009H
  +--> SM_SHOW_CURRENT/SM
  +--> CMD_SM
  +--> SM_DUMP/SM
  +--> SM_DUMP_TABLE/SM
  +--> _SM_SET_TABLE_BY_NAME/SM
  +--> SM_DUMP_STATE/SM
  +--> _SM_SET_STATE_BY_NAME/SM
  +--> SM_DUMP_SUB_STATE/SM
  +--> _SM_SET_SUB_STATE_BY_NAME/SM
  +--> PRINTF/PRINTF

SM_SHOW_CURRENT/SM                            ----- -----  ----- -----  ----- -----
  +--> SM
  +--> PRINTF/PRINTF

CMD_SM                                        ----- -----  ----- -----  ----- -----

SM_DUMP/SM                                    ----- -----  ----- -----  000AH 000CH
  +--> SM
  +--> PRINTF/PRINTF

SM_DUMP_TABLE/SM                              ----- -----  ----- -----  000AH 000AH
  +--> SM
  +--> PRINTF/PRINTF

_SM_SET_TABLE_BY_NAME/SM                      ----- -----  ----- -----  000AH 000DH
  +--> SM
  +--> PRINTF/PRINTF

SM_DUMP_STATE/SM                              ----- -----  ----- -----  000AH 000AH
  +--> SM
  +--> PRINTF/PRINTF

_SM_SET_STATE_BY_NAME/SM                      ----- -----  ----- -----  000AH 000DH
  +--> SM
  +--> PRINTF/PRINTF
LX51 LINKER/LOCATER V4.66.87.0                                                        06/02/2018  22:09:22  PAGE 52


  +--> _SM_SET_STATE/SM
  +--> _SM_SET_SUB_STATE/SM

_SM_SET_STATE/SM                              ----- -----  ----- -----  ----- -----

_SM_SET_SUB_STATE/SM                          ----- -----  ----- -----  ----- -----
  +--> SM

SM_DUMP_SUB_STATE/SM                          ----- -----  ----- -----  000AH 000AH
  +--> SM
  +--> PRINTF/PRINTF

_SM_SET_SUB_STATE_BY_NAME/SM                  ----- -----  ----- -----  000AH 000DH
  +--> SM
  +--> PRINTF/PRINTF
  +--> _SM_SET_SUB_STATE/SM

_CMD_BEEPER/CMD_BEEPER                        ----- -----  ----- -----  0008H 000AH
  +--> CMD_BEEPER
  +--> BEEPER_BEEP/BEEPER
  +--> BEEPER_BEEP_BEEP/BEEPER
  +--> BEEPER_SET_BEEP_ENABLE/BEEPER
  +--> BEEPER_GET_MUSIC_INDEX/BEEPER
  +--> BEEPER_INC_MUSIC_INDEX/BEEPER
  +--> PRINTF/PRINTF
  +--> BEEPER_PLAY_MUSIC/BEEPER

CMD_BEEPER                                    ----- -----  ----- -----  ----- -----

BEEPER_BEEP_BEEP/BEEPER                       ----- -----  ----- -----  000BH 000BH
  +--> _DEBUG_PRINTF/DEBUG
  +--> _DELAY_10US/MISC
  +--> _DELAY_MS/MISC

_CMD_THERMO/CMD_THERMO                        ----- -----  ----- -----  0008H 000AH
  +--> THERMO_GET_CURRENT/THERMO
  +--> CMD_THERMO
  +--> THERMO_ENABLE/THERMO
  +--> THERMO_HI_THRESHOLD_GET/THERMO
  +--> THERMO_LO_THRESHOLD_GET/THERMO
  +--> PRINTF/PRINTF
  +--> THERMO_HI_THRESHOLD_INC/THERMO
  +--> THERMO_HI_THRESHOLD_DEC/THERMO
  +--> THERMO_HI_THRESHOLD_RESET/THERMO
  +--> _THERMO_HI_THRESHOLD_SET/THERMO
  +--> THERMO_LO_THRESHOLD_INC/THERMO
  +--> THERMO_LO_THRESHOLD_DEC/THERMO
  +--> THERMO_LO_THRESHOLD_RESET/THERMO
  +--> _THERMO_LO_THRESHOLD_SET/THERMO
  +--> _ATOI/ATOI

CMD_THERMO                                    ----- -----  ----- -----  ----- -----

THERMO_HI_THRESHOLD_INC/THERMO                ----- -----  ----- -----  ----- -----
  +--> THERMO_HI_THRESHOLD_GET/THERMO
  +--> THERMO
  +--> _THERMO_HI_THRESHOLD_SET/THERMO

THERMO_LO_THRESHOLD_DEC/THERMO                ----- -----  ----- -----  ----- -----
  +--> THERMO_LO_THRESHOLD_GET/THERMO
  +--> THERMO
  +--> _THERMO_LO_THRESHOLD_SET/THERMO

_CMD_MPU/CMD_MPU                              ----- -----  ----- -----  0008H 0009H
  +--> CMD_MPU
LX51 LINKER/LOCATER V4.66.87.0                                                        06/02/2018  22:09:22  PAGE 53


  +--> MPU_ENABLE/MPU
  +--> MPU_READ_INT_STATUS/MPU
  +--> PRINTF/PRINTF

CMD_MPU                                       ----- -----  ----- -----  ----- -----

_CMD_NULL/SHELL                               ----- -----  ----- -----  ----- -----
  +--> PRINTF/PRINTF

CLOCK_ENTER_SHELL/CLOCK                       ----- -----  ----- -----  ----- -----

LED_SAVE/LED                                  ----- -----  ----- -----  ----- -----

_GETS/GETS                                    ----- -----  ----- -----  0002H 0008H
  +--> GETCHAR/GETCHAR
  +--> _PUTCHAR/COM

GETCHAR/GETCHAR                               ----- -----  ----- -----  ----- -----
  +--> _GETKEY/COM
  +--> _PUTCHAR/COM

_GETKEY/COM                                   ----- -----  ----- -----  ----- -----
  +--> COM

_CALL_CMD/SHELL                               ----- -----  ----- -----  0002H 0007H
  +--> SHELL
  +--> PRINTF/PRINTF
  +--> _SHELL_SEARCH_CMD_BY_NAME/SHELL

LED_RESTORE/LED                               ----- -----  ----- -----  ----- -----

CLOCK_LEAVE_SHELL/CLOCK                       ----- -----  ----- -----  ----- -----
  +--> CLOCK_ENABLE_INTERRUPT/CLOCK
  +--> _CLOCK_SYNC_FROM_RTC/CLOCK

*** NEW ROOT ********************************

COM_ISR/COM                                   ----- -----  ----- -----  ----- -----

*** NEW ROOT ********************************

INT0_ISR/KEY                                  ----- -----  ----- -----  ----- -----
  +--> POWER_TEST_FLAG/POWER
  +--> POWER_CLR_FLAG/POWER
  +--> KEY
  +--> BEEPER_STOP_MUSIC/BEEPER

BEEPER_STOP_MUSIC/BEEPER                      ----- -----  ----- -----  ----- -----
  +--> _BEEPER_STOP_PLAY/BEEPER

*** NEW ROOT ********************************

BEEPER_ISR/BEEPER                             ----- -----  ----- -----  ----- -----

*** NEW ROOT ********************************

CLOCK0_ISR/CLOCK                              ----- -----  ----- -----  ----- -----
  +--> REFRESH_LED/LED
  +--> CLOCK_INC_MS39/CLOCK
  +--> TIMER_INC_MS39/TIMER

CLOCK_INC_MS39/CLOCK                          21H.3 21H.3  ----- -----  ----- -----
  +--> LT_TIMER_DEC_SEC/LT_TIMER
  +--> CLOCK

LX51 LINKER/LOCATER V4.66.87.0                                                        06/02/2018  22:09:22  PAGE 54


LT_TIMER_DEC_SEC/LT_TIMER                     ----- -----  ----- -----  ----- -----
  +--> LT_TIMER

TIMER_INC_MS39/TIMER                          ----- -----  ----- -----  ----- -----
  +--> TIMER

*** NEW ROOT ********************************

INT1_ISR/INT_HUB                              ----- -----  ----- -----  ----- -----
  +--> INT_HUB



PUBLIC SYMBOLS OF MODULE:  Clock (SM)


      VALUE       CLASS    TYPE      PUBLIC SYMBOL NAME
      =================================================
      00000020H.0 BIT      BIT       ?_alarm0_set_enable?BIT
      0200001EH   XDATA    BYTE      ?_debug_printf?BYTE
      00000020H.0 BIT      BIT       ?_fuse_set_fuse_broke?BIT
      02000020H   XDATA    BYTE      ?_I2C_Gets?BYTE
      0200001EH   XDATA    BYTE      ?_I2C_Puts?BYTE
      0200004FH   XDATA    ---       ?_PRINTF?BYTE
      00000020H.1 BIT      BIT       ?_rtc_enable_alarm_int?BIT
      02000014H   XDATA    BYTE      ?_rtc_get_temperature?BYTE
      00000020H.2 BIT      BIT       ?_serial_set_ctl_bit?BIT
      0200004FH   XDATA    ---       ?_SPRINTF?BYTE
      020000ECH   XDATA    ---       ?_UNGETCHAR?BYTE
      02010049H   XDATA    ---       ?_VPRINTF?BYTE
      00000020H.1 BIT      BIT       ?alarm0_set_hour_12?BIT
      00000020H.0 BIT      BIT       ?alarm1_set_enable?BIT
      00000020H.1 BIT      BIT       ?beeper_set_beep_enable?BIT
      01000212H   CODE     ---       ?C?CASTF
      010007A2H   CODE     ---       ?C?CCASE
      00000025H.5 BIT      ---       ?C?CHARLOADED
      01000578H   CODE     ---       ?C?CLDOPTR
      0100055FH   CODE     ---       ?C?CLDPTR
      00000000H   NUMBER   ---       ?C?CODESEG
      010008C6H   CODE     ---       ?C?COPYP2
      01000A7FH   CODE     ---       ?C?CSTOPTR
      010005A5H   CODE     ---       ?C?CSTPTR
      010001DEH   CODE     ---       ?C?FCASTC
      010001D9H   CODE     ---       ?C?FCASTI
      010001D4H   CODE     ---       ?C?FCASTL
      010003DCH   CODE     ---       ?C?FPADD
      010002D0H   CODE     ---       ?C?FPCONVERT
      01000137H   CODE     ---       ?C?FPDIV
      01000249H   CODE     ---       ?C?FPGETOPN2
      0100002EH   CODE     ---       ?C?FPMUL
      0100027EH   CODE     ---       ?C?FPNANRESULT
      01000288H   CODE     ---       ?C?FPOVERFLOW
      01000260H   CODE     ---       ?C?FPRESULT
      01000274H   CODE     ---       ?C?FPRESULT2
      01000293H   CODE     ---       ?C?FPROUND
      010003D8H   CODE     ---       ?C?FPSUB
      01000285H   CODE     ---       ?C?FPUNDERFLOW
      010004FDH   CODE     ---       ?C?FTNPWR
      010007C8H   CODE     ---       ?C?ICALL
      010007CCH   CODE     ---       ?C?ICALL2
      0100061EH   CODE     ---       ?C?IILDX
      01000AA1H   CODE     ---       ?C?ILDIX
      01000634H   CODE     ---       ?C?ILDOPTR
      010005B7H   CODE     ---       ?C?IMUL
      0100066CH   CODE     ---       ?C?LADD
LX51 LINKER/LOCATER V4.66.87.0                                                        06/02/2018  22:09:22  PAGE 55


      010006ABH   CODE     ---       ?C?LLDXDATA
      010006B7H   CODE     ---       ?C?LLDXDATA0
      01000687H   CODE     ---       ?C?LNEG
      010006CFH   CODE     ---       ?C?LSTKXDATA
      010006C3H   CODE     ---       ?C?LSTXDATA
      01000679H   CODE     ---       ?C?LSUB
      010007CEH   CODE     ---       ?C?MEMSET
      01000700H   CODE     ---       ?C?OFFX256
      01000711H   CODE     ---       ?C?OFFXADD
      01000746H   CODE     ---       ?C?PLDCODE
      01000AB7H   CODE     ---       ?C?PLDIDATA
      01000726H   CODE     ---       ?C?PLDIXDATA
      01000772H   CODE     ---       ?C?PLDOPTR
      01000AC0H   CODE     ---       ?C?PLDPDATA
      01000752H   CODE     ---       ?C?PLDPTR
      0100071DH   CODE     ---       ?C?PLDXDATA
      0100073DH   CODE     ---       ?C?PSTXDATA
      0100053DH   CODE     ---       ?C?SCDIV
      01000695H   CODE     ---       ?C?SLCMP
      01000A62H   CODE     ---       ?C?STRCMPP2
      010005C9H   CODE     ---       ?C?UIDIV
      00000000H   NUMBER   ---       ?C?XDATASEG
      01006245H   CODE     ---       ?C_START
      01000000H   CODE     NEAR LAB  ?C_STARTUP
      0000001DH   DATA     ---       ?C_XBP
      00000020H.0 BIT      BIT       ?clock_display?BIT
      00000020H.2 BIT      BIT       ?clock_enable_interrupt?BIT
      00000020H.1 BIT      BIT       ?clock_set_hour_12?BIT
      00000020H.0 BIT      BIT       ?debug_onoff?BIT
      00000020H.1 BIT      BIT       ?fuse_enable?BIT
      00000020H.0 BIT      BIT       ?fuse_set_tripwire_broke?BIT
      00000020H.0 BIT      BIT       ?fuse_trigger?BIT
      00000020H.1 BIT      BIT       ?hg_enable?BIT
      00000020H.2 BIT      BIT       ?I2C_PutAck?BIT
      00000020H.0 BIT      BIT       ?lt_timer_display?BIT
      00000020H.0 BIT      BIT       ?lt_timer_get_relative?BIT
      00000020H.1 BIT      BIT       ?lt_timer_set_hour_12?BIT
      00000020H.1 BIT      BIT       ?mpu_enable?BIT
      00000020H.1 BIT      BIT       ?power_5v_enable?BIT
      00000020H.0 BIT      BIT       ?rtc_alarm_set_hour_12?BIT
      00000024H.4 BIT      BIT       ?rtc_set_bbsqw?BIT
      00000024H.5 BIT      BIT       ?rtc_set_conv?BIT
      00000020H.0 BIT      BIT       ?rtc_set_en32khz?BIT
      00000024H.3 BIT      BIT       ?rtc_set_eosc?BIT
      00000020H.0 BIT      BIT       ?rtc_set_intcn?BIT
      00000020H.0 BIT      BIT       ?rtc_set_lt_timer?BIT
      00000024H.6 BIT      BIT       ?rtc_set_osf?BIT
      00000020H.1 BIT      BIT       ?rtc_time_set_hour_12?BIT
      00000020H.1 BIT      BIT       ?thermo_enable?BIT
      00000020H.0 BIT      BIT       ?timer_set_led_autorefresh?BIT
      02000014H   XDATA    BYTE      ?timer_set_led_autorefresh?BYTE
      010055E7H   CODE     ---       _alarm0_set_enable
      01007133H   CODE     ---       _alarm0_test_enable
      010072FAH   CODE     ---       _alarm_proc
      010033FBH   CODE     ---       _atoi
      01007CB2H   CODE     ---       _clock_get_mon_date
      010082BFH   CODE     ---       _clock_is_leap_year
      01008CF3H   CODE     ---       _clock_switch_display_mode
      01005648H   CODE     ---       _clock_sync_from_rtc
      01005313H   CODE     ---       _clock_sync_to_rtc
      01002956H   CODE     ---       _clock_yymmdd_to_day
      01003142H   CODE     ---       _cmd_beeper
      010064DFH   CODE     ---       _cmd_dbg
      01005ECCH   CODE     ---       _cmd_help
      01006F1DH   CODE     ---       _cmd_i2c
LX51 LINKER/LOCATER V4.66.87.0                                                        06/02/2018  22:09:22  PAGE 56


      01006BF8H   CODE     ---       _cmd_int
      01004F17H   CODE     ---       _cmd_mpu
      01006975H   CODE     ---       _cmd_reboot
      01003F57H   CODE     ---       _cmd_serial
      01002732H   CODE     ---       _cmd_sm
      01003BD3H   CODE     ---       _cmd_task
      010025E6H   CODE     ---       _cmd_thermo
      01006CD9H   CODE     ---       _debug_printf
      01008949H   CODE     ---       _delay_10us
      01008957H   CODE     ---       _delay_ms
      01006373H   CODE     ---       _delay_task_reg
      0100551FH   CODE     ---       _display_logo
      0100802BH   CODE     ---       _fuse_proc
      010068BCH   CODE     ---       _fuse_set_fuse_broke
      010087DEH   CODE     ---       _getkey
      01003230H   CODE     ---       _gets
      01008263H   CODE     ---       _I2C_Get
      010051CCH   CODE     ---       _I2C_Gets
      0100851AH   CODE     ---       _I2C_Put
      01005E22H   CODE     ---       _I2C_Puts
      01007B87H   CODE     ---       _I2C_Write
      01000F4CH   CODE     ---       _int_hub_dump_ext_status
      010075C4H   CODE     ---       _int_hub_test_bit
      01008910H   CODE     ---       _isdigit
      010085F6H   CODE     ---       _isspace
      0100827AH   CODE     ---       _led_clr_blink
      010088A7H   CODE     ---       _led_clr_dp
      0100839FH   CODE     ---       _led_set_blink
      01006158H   CODE     ---       _led_set_code
      010088B6H   CODE     ---       _led_set_dp
      01005C6FH   CODE     ---       _lt_timer_save_to_rom
      010060B8H   CODE     ---       _mod_proc
      01006D10H   CODE     ---       _mod_set_proc
      01008731H   CODE     ---       _mpu_threshold_inc
      010069EEH   CODE     ---       _mpu_threshold_set
      01008D76H   CODE     ---       _null_proc
      01008011H   CODE     ---       _power_proc
      01000B34H   CODE     ---       _PRINTF
      010070D5H   CODE     ---       _putbuf
      010080C7H   CODE     ---       _putchar
      01006E4FH   CODE     ---       _rom_read
      01006FB4H   CODE     ---       _rom_write
      01007FF7H   CODE     ---       _rtc_alarm_set_date
      0100835DH   CODE     ---       _rtc_alarm_set_day
      01008630H   CODE     ---       _rtc_alarm_set_hour
      01008643H   CODE     ---       _rtc_alarm_set_min
      01004795H   CODE     ---       _rtc_alarm_set_mode
      01008373H   CODE     ---       _rtc_alarm_set_sec
      0100824CH   CODE     ---       _rtc_clr_alarm_int_flag
      010040A2H   CODE     ---       _rtc_date_set_date
      0100868FH   CODE     ---       _rtc_date_set_day
      01008C79H   CODE     ---       _rtc_date_set_month
      01008C71H   CODE     ---       _rtc_date_set_year
      01007743H   CODE     ---       _rtc_enable_alarm_int
      01004313H   CODE     ---       _rtc_get_temperature
      01005B64H   CODE     ---       _rtc_read_data
      01008778H   CODE     ---       _rtc_set_square_rate
      01007C5BH   CODE     ---       _rtc_test_alarm_int
      01007C78H   CODE     ---       _rtc_test_alarm_int_flag
      01008CB7H   CODE     ---       _rtc_time_set_hour
      01008B8CH   CODE     ---       _rtc_time_set_min
      01008CBDH   CODE     ---       _rtc_time_set_sec
      01005CC7H   CODE     ---       _rtc_write_data
      01001D48H   CODE     ---       _run_state_machine
      01004B41H   CODE     ---       _scan_fuse
LX51 LINKER/LOCATER V4.66.87.0                                                        06/02/2018  22:09:22  PAGE 57


      01004F8FH   CODE     ---       _scan_hg
      01005829H   CODE     ---       _scan_int_hub_proc
      01002A62H   CODE     ---       _scan_key_proc
      01007045H   CODE     ---       _serial_set_ctl_bit
      010071BFH   CODE     ---       _serial_test_ctl_bit
      01006108H   CODE     ---       _set_proc
      010063BCH   CODE     ---       _shell_search_cmd_by_name
      01005004H   CODE     ---       _sm_clock_alarm
      010084A1H   CODE     ---       _sm_clock_counter_init
      0100443CH   CODE     ---       _sm_clock_counter_submod0
      01005943H   CODE     ---       _sm_clock_counter_submod1
      01005888H   CODE     ---       _sm_clock_counter_submod2
      01006781H   CODE     ---       _sm_clock_counter_submod3
      010078F1H   CODE     ---       _sm_clock_counter_submod4
      010076D2H   CODE     ---       _sm_clock_counter_submod5
      0100781CH   CODE     ---       _sm_clock_display_init
      01006405H   CODE     ---       _sm_clock_display_submod0
      01007275H   CODE     ---       _sm_clock_display_submod1
      01007840H   CODE     ---       _sm_clock_display_submod2
      010074FBH   CODE     ---       _sm_clock_display_submod3
      010088E3H   CODE     ---       _sm_clock_mod_alarm_init
      01005709H   CODE     ---       _sm_clock_mod_alarm_submod0
      0100599FH   CODE     ---       _sm_clock_mod_alarm_submod1
      01005D1EH   CODE     ---       _sm_clock_mod_alarm_submod2
      0100737EH   CODE     ---       _sm_clock_mod_alarm_submod3
      010073A9H   CODE     ---       _sm_clock_mod_alarm_submod4
      01008079H   CODE     ---       _sm_clock_mod_time_init
      01007352H   CODE     ---       _sm_clock_mod_time_submod0
      01008112H   CODE     ---       _sm_clock_mod_time_submod1
      01007D25H   CODE     ---       _sm_clock_mod_time_submod2
      01007D41H   CODE     ---       _sm_clock_mod_time_submod3
      01007D5DH   CODE     ---       _sm_clock_mod_time_submod4
      01007D79H   CODE     ---       _sm_clock_mod_time_submod5
      01006F82H   CODE     ---       _sm_clock_powersave
      0100805FH   CODE     ---       _sm_clock_timer_init
      01006497H   CODE     ---       _sm_clock_timer_submod0
      01005079H   CODE     ---       _sm_clock_timer_submod1
      010058E7H   CODE     ---       _sm_clock_timer_submod2
      010088F2H   CODE     ---       _sm_fuse_detonate_init
      010057C9H   CODE     ---       _sm_fuse_detonate_submod0
      01007864H   CODE     ---       _sm_fuse_param_init
      0100644EH   CODE     ---       _sm_fuse_param_submod0
      01007E75H   CODE     ---       _sm_fuse_param_submod1
      01007E91H   CODE     ---       _sm_fuse_param_submod2
      01007EADH   CODE     ---       _sm_fuse_param_submod3
      01007EC9H   CODE     ---       _sm_fuse_param_submod4
      01007EE5H   CODE     ---       _sm_fuse_param_submod5
      0100455EH   CODE     ---       _sm_fuse_param_submod6
      01008B82H   CODE     ---       _sm_fuse_powersave_init
      01007BC5H   CODE     ---       _sm_fuse_powersave_submod0
      010085BAH   CODE     ---       _sm_fuse_powersave_submod1
      010069B2H   CODE     ---       _sm_fuse_test_init
      0100232AH   CODE     ---       _sm_fuse_test_submod0
      01007D95H   CODE     ---       _sm_fuse_test_submod1
      01007DB1H   CODE     ---       _sm_fuse_test_submod2
      01007DCDH   CODE     ---       _sm_fuse_test_submod3
      01007DE9H   CODE     ---       _sm_fuse_test_submod4
      01007E05H   CODE     ---       _sm_fuse_test_submod5
      01007E21H   CODE     ---       _sm_fuse_test_submod6
      01007E3DH   CODE     ---       _sm_fuse_test_submod7
      01007E59H   CODE     ---       _sm_fuse_test_submod8
      01007CECH   CODE     ---       _sm_fuse_timer_init
      01002B68H   CODE     ---       _sm_fuse_timer_submod0
      01005D75H   CODE     ---       _sm_fuse_timer_submod1
      01003804H   CODE     ---       _sm_fuse_timer_submod2
LX51 LINKER/LOCATER V4.66.87.0                                                        06/02/2018  22:09:22  PAGE 58


      01007639H   CODE     ---       _sm_fuse_timer_submod3
      01007F01H   CODE     ---       _sm_fuse_timer_submod4
      01008205H   CODE     ---       _sm_global_flag_mod_init
      0100812BH   CODE     ---       _sm_global_flag_mod_submod0
      01008144H   CODE     ---       _sm_global_flag_mod_submod1
      01007F1DH   CODE     ---       _sm_global_flag_mod_submod2
      01007F39H   CODE     ---       _sm_global_flag_mod_submod3
      01007FDCH   CODE     ---       _sm_power_pack_display_init
      01005F20H   CODE     ---       _sm_power_pack_display_submod0
      01008A65H   CODE     ---       _sm_power_pack_powersave_init
      01007CCFH   CODE     ---       _sm_power_pack_powersave_submod0
      010034D6H   CODE     ---       _sm_set_state_by_name
      01004934H   CODE     ---       _sm_set_sub_state_by_name
      01003D49H   CODE     ---       _sm_set_table_by_name
      01000B2EH   CODE     ---       _SPRINTF
      01005DCCH   CODE     ---       _thermo_hi_threshold_set
      01005BBDH   CODE     ---       _thermo_lo_threshold_set
      010083F7H   CODE     ---       _thermo_proc
      01006740H   CODE     ---       _thermo_threshold_inc
      0100860AH   CODE     ---       _time_proc
      01008542H   CODE     ---       _timer_get_hour
      01008556H   CODE     ---       _timer_get_min
      0100797BH   CODE     ---       _timer_get_ms10
      0100856AH   CODE     ---       _timer_get_sec
      01007D09H   CODE     ---       _timer_inc_hour
      010081BDH   CODE     ---       _timer_inc_min
      010081D5H   CODE     ---       _timer_inc_sec
      01007429H   CODE     ---       _timer_save
      01008D0BH   CODE     ---       _timer_set_mode
      01006DE6H   CODE     ---       _VPRINTF
*SFR* 000000D0H.6 DATA     BIT       AC
*SFR* 000000E0H   DATA     BYTE      ACC
      01008CC9H   CODE     ---       alarm0_get_day_mask
      01008CD5H   CODE     ---       alarm0_get_hour
      01008D7CH   CODE     ---       alarm0_get_hour_12
      01008CCFH   CODE     ---       alarm0_get_min
      0100893BH   CODE     ---       alarm0_inc_hour
      0100892DH   CODE     ---       alarm0_inc_min
      01000026H   CODE     ---       alarm0_set_hour_12
      01005FC6H   CODE     ---       alarm0_sync_to_rtc
      01008D1DH   CODE     ---       alarm1_set_enable
      01006800H   CODE     ---       alarm1_sync_to_rtc
      01008D7FH   CODE     ---       alarm1_test_enable
      010054BAH   CODE     ---       alarm_dump
      01008BB0H   CODE     ---       alarm_enter_powersave
      01008BA7H   CODE     ---       alarm_initialize
      01008BB9H   CODE     ---       alarm_leave_powersave
      01007888H   CODE     ---       alarm_switch_off
      0100818DH   CODE     ---       alarm_switch_on
*SFR* 0000008EH   DATA     BYTE      AUXR
*SFR* 000000A2H   DATA     BYTE      AUXR1
*SFR* 000000F0H   DATA     BYTE      B
      010073FFH   CODE     ---       beeper_beep
      0100667BH   CODE     ---       beeper_beep_beep
      0100683FH   CODE     ---       beeper_beep_beep_always
      01008BCBH   CODE     ---       beeper_enter_powersave
      01008D8EH   CODE     ---       beeper_get_beep_enable
      01008CEDH   CODE     ---       beeper_get_music_index
      01008CE7H   CODE     ---       beeper_get_music_to
      010082A8H   CODE     ---       beeper_inc_music_index
      01007F70H   CODE     ---       beeper_inc_music_to
      01006638H   CODE     ---       beeper_initialize
      01008BD4H   CODE     ---       beeper_leave_powersave
*SFR* 00000090H.0 DATA     BIT       beeper_out
      01007959H   CODE     ---       beeper_play_music
LX51 LINKER/LOCATER V4.66.87.0                                                        06/02/2018  22:09:22  PAGE 59


      01008D22H   CODE     ---       beeper_set_beep_enable
      01008D91H   CODE     ---       beeper_stop_music
*SFR* 000000C8H.1 DATA     BIT       C_T2
      01008D40H   CODE     ---       clock_clr_sec
      01008D27H   CODE     ---       clock_display
      010043A9H   CODE     ---       clock_dump
      01008BDDH   CODE     ---       clock_enable_interrupt
      01008973H   CODE     ---       clock_enter_powersave
      01008D97H   CODE     ---       clock_enter_shell
      01008CF9H   CODE     ---       clock_get_date
      01008CFFH   CODE     ---       clock_get_day
      01008D4AH   CODE     ---       clock_get_hour
      01008D94H   CODE     ---       clock_get_hour_12
      01008D45H   CODE     ---       clock_get_min
      01008D05H   CODE     ---       clock_get_month
      01008D31H   CODE     ---       clock_get_ms39
      01008D3BH   CODE     ---       clock_get_sec
      01008D36H   CODE     ---       clock_get_sec_256
      01008D4FH   CODE     ---       clock_get_year
      01007AC7H   CODE     ---       clock_inc_date
      01008A92H   CODE     ---       clock_inc_hour
      01008A87H   CODE     ---       clock_inc_min
      010083B5H   CODE     ---       clock_inc_month
      01008462H   CODE     ---       clock_inc_year
      01007248H   CODE     ---       clock_initialize
      010081A5H   CODE     ---       clock_leave_powersave
      010083CBH   CODE     ---       clock_leave_shell
      01008D2CH   CODE     ---       clock_set_hour_12
      01009E22H   CONST    ---       cmds
      0100891FH   CODE     ---       com_enter_powersave
      01007524H   CODE     ---       com_initialize
      01000016H   CODE     ---       com_leave_powersave
      010084B6H   CODE     ---       com_try_get_key
      020000DAH   XDATA    BYTE      common_state
*SFR* 000000C8H.0 DATA     BIT       CP_RL2
*SFR* 000000D0H.7 DATA     BIT       CY
      01008DA0H   CODE     ---       debug_initialize
      01008D6DH   CODE     ---       debug_onoff
      01006017H   CODE     ---       delay_task_call
      01008C25H   CODE     ---       delay_task_initialize
*SFR* 00000083H   DATA     BYTE      DPH
*SFR* 00000082H   DATA     BYTE      DPL
*SFR* 000000A8H.7 DATA     BIT       EA
*SFR* 000000A8H.6 DATA     BIT       EC
*SFR* 000000A8H.4 DATA     BIT       ES
*SFR* 000000A8H.1 DATA     BIT       ET0
*SFR* 000000A8H.3 DATA     BIT       ET1
*SFR* 000000A8H.5 DATA     BIT       ET2
      0000004EH   IDATA    WORD      ev_bits0
      00000050H   IDATA    WORD      ev_bits1
*SFR* 000000A8H.0 DATA     BIT       EX0
*SFR* 000000A8H.2 DATA     BIT       EX1
*SFR* 000000C8H.3 DATA     BIT       EXEN2
*SFR* 000000C8H.6 DATA     BIT       EXF2
*SFR* 00000090H.4 DATA     BIT       EXT_INT
*SFR* 000000D0H.5 DATA     BIT       F0
*SFR* 00000098H.7 DATA     BIT       FE
      01007574H   CODE     ---       fuse_enable
      01008BEFH   CODE     ---       fuse_enter_powersave
      01008A05H   CODE     ---       fuse_initialize
      01008BF8H   CODE     ---       fuse_leave_powersave
      010076ACH   CODE     ---       fuse_set_tripwire_broke
      01006D46H   CODE     ---       fuse_trigger
      010085E2H   CODE     ---       GETCHAR
      0100759CH   CODE     ---       hg_enable
LX51 LINKER/LOCATER V4.66.87.0                                                        06/02/2018  22:09:22  PAGE 60


      01008C01H   CODE     ---       hg_enter_powersave
      010086D7H   CODE     ---       hg_get_state
      01008A1DH   CODE     ---       hg_initialize
      01008C0AH   CODE     ---       hg_leave_powersave
      01008791H   CODE     ---       I2C_Delay
      01007937H   CODE     ---       I2C_GetAck
      01008B46H   CODE     ---       I2C_Init
      010086A1H   CODE     ---       I2C_PutAck
      01007104H   CODE     ---       I2C_Read
*SFR* 00000090H.7 DATA     BIT       I2C_SCL
*SFR* 00000090H.6 DATA     BIT       I2C_SDA
      01008A7CH   CODE     ---       I2C_Start
      01008389H   CODE     ---       I2C_Stop
*SFR* 000000A8H   DATA     BYTE      IE
*SFR* 00000088H.1 DATA     BIT       IE0
*SFR* 00000088H.3 DATA     BIT       IE1
*SFR* 000000B0H.2 DATA     BIT       INT0
*SFR* 000000B0H.3 DATA     BIT       INT1
*SFR* 000000B0H.3 DATA     BIT       INT_BIT
      010056A9H   CODE     ---       int_hub_dump
      01005584H   CODE     ---       int_hub_get_status
      010052A7H   CODE     ---       int_hub_initialize
*SFR* 000000B8H   DATA     BYTE      IP
*SFR* 000000B7H   DATA     BYTE      IPH
*SFR* 000000E3H   DATA     BYTE      ISP_ADDRH
*SFR* 000000E4H   DATA     BYTE      ISP_ADDRL
*SFR* 000000E5H   DATA     BYTE      ISP_CMD
*SFR* 000000E7H   DATA     BYTE      ISP_CONTR
*SFR* 000000E2H   DATA     BYTE      ISP_DATA
*SFR* 000000E6H   DATA     BYTE      ISP_TRIG
*SFR* 00000088H.0 DATA     BIT       IT0
*SFR* 00000088H.2 DATA     BIT       IT1
      01008B95H   CODE     ---       key_enter_powersave
      010080E0H   CODE     ---       key_initialize
      01008B9EH   CODE     ---       key_leave_powersave
      020000DCH   XDATA    BYTE      last_display_s
      00000036H   IDATA    BYTE      led_blink
      010087ABH   CODE     ---       led_clear
      0100D25AH   CONST    ---       led_code
      00000038H   IDATA    ---       led_data
      010087BCH   CODE     ---       led_enter_powersave
      01006A64H   CODE     ---       led_initialize
      01008438H   CODE     ---       led_leave_powersave
      00000025H.0 BIT      BIT       led_powersave
      01007686H   CODE     ---       led_restore
      01007660H   CODE     ---       led_save
      00000022H.7 BIT      BIT       lpress_lock_day_sec
      00000022H.5 BIT      BIT       lpress_lock_month_min
      00000022H.6 BIT      BIT       lpress_lock_year_hour
      020000DBH   XDATA    BYTE      lpress_start
      010041DDH   CODE     ---       lt_timer_dec_sec
      01008045H   CODE     ---       lt_timer_display
      01008477H   CODE     ---       lt_timer_enter_powersave
      01008D17H   CODE     ---       lt_timer_get_date
      01008D5EH   CODE     ---       lt_timer_get_hour
      01008D9DH   CODE     ---       lt_timer_get_hour_12
      01008D63H   CODE     ---       lt_timer_get_min
      01008D11H   CODE     ---       lt_timer_get_month
      010049BBH   CODE     ---       lt_timer_get_relative
      01008D68H   CODE     ---       lt_timer_get_sec
      01008D59H   CODE     ---       lt_timer_get_year
      01008669H   CODE     ---       lt_timer_inc_date
      01008ABEH   CODE     ---       lt_timer_inc_hour
      01008AC9H   CODE     ---       lt_timer_inc_min
      01008AB3H   CODE     ---       lt_timer_inc_month
LX51 LINKER/LOCATER V4.66.87.0                                                        06/02/2018  22:09:22  PAGE 61


      01008AD4H   CODE     ---       lt_timer_inc_sec
      01008AA8H   CODE     ---       lt_timer_inc_year
      0100857EH   CODE     ---       lt_timer_initialize
      010077B0H   CODE     ---       lt_timer_leave_powersave
      010066FFH   CODE     ---       lt_timer_load_from_rom
      010088C5H   CODE     ---       lt_timer_reset
      01008D54H   CODE     ---       lt_timer_set_hour_12
      01008981H   CODE     ---       lt_timer_start_ram
      01007BE4H   CODE     ---       lt_timer_start_rtc
      01008A29H   CODE     ---       lt_timer_stop_ram
      01007C02H   CODE     ---       lt_timer_stop_rtc
      010082D6H   CODE     ---       lt_timer_switch_display
      010078ABH   CODE     ---       lt_timer_switch_off
      0100848CH   CODE     ---       lt_timer_switch_on
      010066BDH   CODE     ---       lt_timer_sync_to_rtc
      01006245H   CODE     ---       main
*SFR* 000000A0H.6 DATA     BIT       MOD_KEY
      01007BA6H   CODE     ---       mpu_enable
      01008C2EH   CODE     ---       mpu_enter_powersave
      010088D4H   CODE     ---       mpu_initialize
*SFR* 00000090H.2 DATA     BIT       MPU_INT
      01008C37H   CODE     ---       mpu_leave_powersave
      010077F8H   CODE     ---       mpu_read_int_status
      0100867CH   CODE     ---       mpu_threshold_get
      01008CA1H   CODE     ---       mpu_threshold_reset
*SFR* 000000D0H.2 DATA     BIT       OV
*SFR* 000000D0H.0 DATA     BIT       P
*SFR* 00000080H   DATA     BYTE      P0
*SFR* 00000080H.0 DATA     BIT       P00
*SFR* 00000080H.1 DATA     BIT       P01
*SFR* 00000080H.2 DATA     BIT       P02
*SFR* 00000080H.3 DATA     BIT       P03
*SFR* 00000080H.4 DATA     BIT       P04
*SFR* 00000080H.5 DATA     BIT       P05
*SFR* 00000080H.6 DATA     BIT       P06
*SFR* 00000080H.7 DATA     BIT       P07
*SFR* 00000090H   DATA     BYTE      P1
*SFR* 00000090H.0 DATA     BIT       P10
*SFR* 00000090H.1 DATA     BIT       P11
*SFR* 00000090H.2 DATA     BIT       P12
*SFR* 00000090H.3 DATA     BIT       P13
*SFR* 00000090H.4 DATA     BIT       P14
*SFR* 00000090H.5 DATA     BIT       P15
*SFR* 00000090H.6 DATA     BIT       P16
*SFR* 00000090H.7 DATA     BIT       P17
*SFR* 000000A0H   DATA     BYTE      P2
*SFR* 000000A0H.0 DATA     BIT       P20
*SFR* 000000A0H.1 DATA     BIT       P21
*SFR* 000000A0H.2 DATA     BIT       P22
*SFR* 000000A0H.3 DATA     BIT       P23
*SFR* 000000A0H.4 DATA     BIT       P24
*SFR* 000000A0H.5 DATA     BIT       P25
*SFR* 000000A0H.6 DATA     BIT       P26
*SFR* 000000A0H.7 DATA     BIT       P27
*SFR* 000000B0H   DATA     BYTE      P3
*SFR* 000000B0H.0 DATA     BIT       P30
*SFR* 000000B0H.1 DATA     BIT       P31
*SFR* 000000B0H.2 DATA     BIT       P32
*SFR* 000000B0H.3 DATA     BIT       P33
*SFR* 000000B0H.4 DATA     BIT       P34
*SFR* 000000B0H.5 DATA     BIT       P35
*SFR* 000000B0H.6 DATA     BIT       P36
*SFR* 000000B0H.7 DATA     BIT       P37
*SFR* 000000E8H   DATA     BYTE      P4
*SFR* 000000E8H.0 DATA     BIT       P40
LX51 LINKER/LOCATER V4.66.87.0                                                        06/02/2018  22:09:22  PAGE 62


*SFR* 000000E8H.1 DATA     BIT       P41
*SFR* 000000E8H.2 DATA     BIT       P42
*SFR* 000000E8H.3 DATA     BIT       P43
*SFR* 000000E8H.4 DATA     BIT       P44
*SFR* 000000E8H.5 DATA     BIT       P45
*SFR* 000000E8H.6 DATA     BIT       P46
*SFR* 00000087H   DATA     BYTE      PCON
*SFR* 000000B0H.6 DATA     BIT       POWER_5V_EN
      01007F55H   CODE     ---       power_5v_enable
      01008D72H   CODE     ---       power_5v_get_enable
      01008D88H   CODE     ---       power_clr_flag
      01006291H   CODE     ---       power_enter_powersave
      01008291H   CODE     ---       power_get_powersave_to
      01008CDBH   CODE     ---       power_get_powersave_to_s
      01008D8BH   CODE     ---       power_get_volume
      0100778CH   CODE     ---       power_inc_powersave_to
      01006EEAH   CODE     ---       power_initialize
      01006FE5H   CODE     ---       power_leave_powersave
      01008BC2H   CODE     ---       power_reset_powersave_to
      01008D85H   CODE     ---       power_set_flag
      01008D82H   CODE     ---       power_test_flag
      01007015H   CODE     ---       power_test_powersave_to
      00000025H.1 BIT      BIT       powersave_flag
*SFR* 000000A0H   DATA     BYTE      PPAGE_SFR
*SFR* 000000B8H.4 DATA     BIT       PS
*SFR* 000000D0H   DATA     BYTE      PSW
*SFR* 000000B8H.1 DATA     BIT       PT0
*SFR* 000000B8H.3 DATA     BIT       PT1
*SFR* 000000B8H.5 DATA     BIT       PT2
*SFR* 000000B8H.0 DATA     BIT       PX0
*SFR* 000000B8H.2 DATA     BIT       PX1
*SFR* 00000098H.2 DATA     BIT       RB8
*SFR* 000000CBH   DATA     BYTE      RCAP2H
*SFR* 000000CAH   DATA     BYTE      RCAP2L
*SFR* 000000C8H.5 DATA     BIT       RCLK
*SFR* 000000B0H.7 DATA     BIT       RD
      01005A57H   CODE     ---       refresh_led
*SFR* 00000098H.4 DATA     BIT       REN
*SFR* 00000098H.0 DATA     BIT       RI
      010068FAH   CODE     ---       rom_initialize
      01008C99H   CODE     ---       rom_is_factory_reset
*SFR* 000000B0H.7 DATA     BIT       ROM_RESET
*SFR* 000000D0H.3 DATA     BIT       RS0
*SFR* 000000D0H.4 DATA     BIT       RS1
      01008423H   CODE     ---       rtc_alarm_get_date
      010084CAH   CODE     ---       rtc_alarm_get_day
      0100831BH   CODE     ---       rtc_alarm_get_hour
      01008331H   CODE     ---       rtc_alarm_get_hour_12
      01008347H   CODE     ---       rtc_alarm_get_min
      010084F2H   CODE     ---       rtc_alarm_get_mod_str
      01003671H   CODE     ---       rtc_alarm_get_mode
      010084DEH   CODE     ---       rtc_alarm_get_sec
      01007C3EH   CODE     ---       rtc_alarm_set_hour_12
      01008C81H   CODE     ---       rtc_date_get_date
      01008CC3H   CODE     ---       rtc_date_get_day
      010089EDH   CODE     ---       rtc_date_get_month
      010089E1H   CODE     ---       rtc_date_get_year
      010011B2H   CODE     ---       rtc_dump
      0100815DH   CODE     ---       rtc_enter_powersave
      010089C7H   CODE     ---       rtc_get_square_rate
      01008506H   CODE     ---       rtc_get_square_rate_str
      01002F61H   CODE     ---       rtc_initialize
*SFR* 00000090H.1 DATA     BIT       RTC_INT
      01008D79H   CODE     ---       rtc_is_lt_timer
      01008175H   CODE     ---       rtc_leave_powersave
LX51 LINKER/LOCATER V4.66.87.0                                                        06/02/2018  22:09:22  PAGE 63


      0100884DH   CODE     ---       rtc_set_bbsqw
      0100885CH   CODE     ---       rtc_set_conv
      01008889H   CODE     ---       rtc_set_en32khz
      0100883EH   CODE     ---       rtc_set_eosc
      0100886BH   CODE     ---       rtc_set_intcn
      01000006H   CODE     ---       rtc_set_lt_timer
      0100887AH   CODE     ---       rtc_set_osf
      01008B0AH   CODE     ---       rtc_test_bbsqw
      01008B3CH   CODE     ---       rtc_test_bsy
      01008B14H   CODE     ---       rtc_test_conv
      01008B32H   CODE     ---       rtc_test_en32khz
      01008B00H   CODE     ---       rtc_test_eosc
      01008B1EH   CODE     ---       rtc_test_intcn
      01008B28H   CODE     ---       rtc_test_osf
      01008C51H   CODE     ---       rtc_time_get_hour
      01008C59H   CODE     ---       rtc_time_get_hour_12
      01008C61H   CODE     ---       rtc_time_get_min
      01008C69H   CODE     ---       rtc_time_get_sec
      010087EEH   CODE     ---       rtc_time_set_hour_12
      01002493H   CODE     ---       run_shell
      01003EB0H   CODE     ---       run_task
*SFR* 000000B0H.0 DATA     BIT       RXD
*SFR* 000000A9H   DATA     BYTE      SADDR
*SFR* 000000B9H   DATA     BYTE      SADEN
      020000BDH   XDATA    BYTE      saved_led_blink
      020000BFH   XDATA    ---       saved_led_data
*SFR* 00000099H   DATA     BYTE      SBUF
      01004E27H   CODE     ---       scan_alarm
      01006329H   CODE     ---       scan_lt_timer
      01007162H   CODE     ---       scan_mpu
      0100861DH   CODE     ---       scan_rtc
      0100467CH   CODE     ---       scan_thermo
*SFR* 00000098H   DATA     BYTE      SCON
      00000023H.3 BIT      BIT       sendactive
      00000023H.4 BIT      BIT       sendfull
      01007FC1H   CODE     ---       serial_ctl_out
      010013FCH   CODE     ---       serial_dump
      01006B12H   CODE     ---       serial_hub_initialize
*SFR* 000000A0H.7 DATA     BIT       SET_KEY
      0200007FH   XDATA    ---       shell_buf
      01006DB1H   CODE     ---       shell_dump_cmd
*SFR* 00000098H.7 DATA     BIT       SM0
*SFR* 00000098H.6 DATA     BIT       SM1
*SFR* 00000098H.5 DATA     BIT       SM2
      0100D3F4H   CONST    ---       sm_clock_alarm_ss_name
      0100BE9CH   CONST    ---       sm_clock_counter_ss_name
      0100C99CH   CONST    ---       sm_clock_display_ss_name
      0100C240H   CONST    ---       sm_clock_mod_alarm_ss_name
      0100BABFH   CONST    ---       sm_clock_mod_time_name
      0100D44BH   CONST    ---       sm_clock_powersave_ss_name
      0100CA8FH   CONST    ---       sm_clock_timer_ss_name
      020000D5H   XDATA    BYTE      sm_curr_table
      01002E6DH   CODE     ---       sm_dump
      01006068H   CODE     ---       sm_dump_state
      01005B0BH   CODE     ---       sm_dump_sub_state
      01006C31H   CODE     ---       sm_dump_table
      0100D0ABH   CONST    ---       sm_fuse_detonate_ss_name
      0100BCB2H   CONST    ---       sm_fuse_param_ss_name
      0100CDF7H   CONST    ---       sm_fuse_powersave_ss_name
      0100AF74H   CONST    ---       sm_fuse_test_ss_name
      0100B8BCH   CONST    ---       sm_fuse_timer_ss_name
      0100C6DFH   CONST    ---       sm_global_flag_mod_ss_name
      0100771EH   CODE     ---       sm_initialize
      020000D6H   XDATA    BYTE      sm_new_table
      0100CF28H   CONST    ---       sm_power_pack_display_ss_name
LX51 LINKER/LOCATER V4.66.87.0                                                        06/02/2018  22:09:22  PAGE 64


      0100CE95H   CONST    ---       sm_power_pack_powersave_ss_name
      010067C1H   CODE     ---       sm_show_current
*SFR* 00000081H   DATA     BYTE      SP
*SFR* 000000B0H.4 DATA     BIT       T0
*SFR* 000000B0H.5 DATA     BIT       T1
*SFR* 00000090H.0 DATA     BIT       T2
*SFR* 000000C8H   DATA     BYTE      T2CON
*SFR* 00000090H.1 DATA     BIT       T2EX
*SFR* 000000C9H   DATA     BYTE      T2MOD
      01004D33H   CODE     ---       task_dump
      0100852EH   CODE     ---       task_initialize
      0100B61FH   CONST    ---       task_name
*SFR* 00000098H.3 DATA     BIT       TB8
*SFR* 000000C8H.4 DATA     BIT       TCLK
*SFR* 00000088H   DATA     BYTE      TCON
*SFR* 00000088H.5 DATA     BIT       TF0
*SFR* 00000088H.7 DATA     BIT       TF1
*SFR* 000000C8H.7 DATA     BIT       TF2
*SFR* 0000008CH   DATA     BYTE      TH0
*SFR* 0000008DH   DATA     BYTE      TH1
*SFR* 000000CDH   DATA     BYTE      TH2
      01008B64H   CODE     ---       thermo_enable
      01008C13H   CODE     ---       thermo_enter_powersave
      010061A8H   CODE     ---       thermo_get_current
      010086E9H   CODE     ---       thermo_hi_threshold_dec
      01007A23H   CODE     ---       thermo_hi_threshold_get
      010086FBH   CODE     ---       thermo_hi_threshold_inc
      01008ADFH   CODE     ---       thermo_hi_threshold_reach_bottom
      01008A41H   CODE     ---       thermo_hi_threshold_reach_top
      01008C89H   CODE     ---       thermo_hi_threshold_reset
      01008A35H   CODE     ---       thermo_initialize
*SFR* 00000090H.3 DATA     BIT       THERMO_INT
      01008C1CH   CODE     ---       thermo_leave_powersave
      0100870DH   CODE     ---       thermo_lo_threshold_dec
      010078CEH   CODE     ---       thermo_lo_threshold_get
      0100871FH   CODE     ---       thermo_lo_threshold_inc
      01008AEAH   CODE     ---       thermo_lo_threshold_reach_bottom
      01008A4DH   CODE     ---       thermo_lo_threshold_reach_top
      01008C91H   CODE     ---       thermo_lo_threshold_reset
*SFR* 00000098H.1 DATA     BIT       TI
      010081EDH   CODE     ---       timer_clr
      010089F9H   CODE     ---       timer_enter_powersave
      01002D70H   CODE     ---       timer_inc_ms39
      010086B3H   CODE     ---       timer_initialize
      01008BE6H   CODE     ---       timer_leave_powersave
      010087FEH   CODE     ---       timer_set_led_autorefresh
      010083E1H   CODE     ---       timer_start
      01008D9AH   CODE     ---       timer_stop
*SFR* 0000008AH   DATA     BYTE      TL0
*SFR* 0000008BH   DATA     BYTE      TL1
*SFR* 000000CCH   DATA     BYTE      TL2
*SFR* 00000089H   DATA     BYTE      TMOD
*SFR* 00000088H.4 DATA     BIT       TR0
*SFR* 00000088H.6 DATA     BIT       TR1
*SFR* 000000C8H.2 DATA     BIT       TR2
*SFR* 000000B0H.1 DATA     BIT       TXD
*SFR* 000000E1H   DATA     BYTE      WDT_CONTR
*SFR* 000000B0H.6 DATA     BIT       WR
*SFR* 000000C0H   DATA     BYTE      XICON



SYMBOL TABLE OF MODULE:  Clock (SM)

      VALUE       REP       CLASS    TYPE      SYMBOL NAME
LX51 LINKER/LOCATER V4.66.87.0                                                        06/02/2018  22:09:22  PAGE 65


      ====================================================
      ---         MODULE    ---      ---       SM
      020000D6H   PUBLIC    XDATA    BYTE      sm_new_table
      020000D5H   PUBLIC    XDATA    BYTE      sm_curr_table
      01004934H   PUBLIC    CODE     ---       _sm_set_sub_state_by_name
      010034D6H   PUBLIC    CODE     ---       _sm_set_state_by_name
      01003D49H   PUBLIC    CODE     ---       _sm_set_table_by_name
      01005B0BH   PUBLIC    CODE     ---       sm_dump_sub_state
      01006068H   PUBLIC    CODE     ---       sm_dump_state
      01006C31H   PUBLIC    CODE     ---       sm_dump_table
      01002E6DH   PUBLIC    CODE     ---       sm_dump
      010067C1H   PUBLIC    CODE     ---       sm_show_current
      0100771EH   PUBLIC    CODE     ---       sm_initialize
      01001D48H   PUBLIC    CODE     ---       _run_state_machine
      01008D76H   PUBLIC    CODE     ---       _null_proc
      0100860AH   PUBLIC    CODE     ---       _time_proc
      0100974EH   SYMBOL    CONST    ---       sm_group_power_pack
      01009756H   SYMBOL    CONST    ---       sm_group_fuse
      0100955DH   SYMBOL    CONST    ---       sm_trans_fuse_timer
      0100907FH   SYMBOL    CONST    ---       sm_trans_clock_mod_time
      01008767H   SYMBOL    CODE     ---       _sm_set_state
      010091F2H   SYMBOL    CONST    ---       sm_trans_clock_powersave
      01009365H   SYMBOL    CONST    ---       sm_trans_fuse_test
      010097CEH   SYMBOL    CONST    ---       sm_global_flag_names
      01008FD7H   SYMBOL    CONST    ---       sm_trans_clock_display
      01009675H   SYMBOL    CONST    ---       sm_trans_fuse_detonate
      01008A71H   SYMBOL    CODE     ---       _sm_set_sub_state
      01009277H   SYMBOL    CONST    ---       sm_trans_clock_counter
      01009350H   SYMBOL    CONST    ---       sm_trans_power_pack_powersave
      0100976AH   SYMBOL    CONST    ---       sm_group_global_flag
      01009698H   SYMBOL    CONST    ---       sm_trans_fuse_powersave
      0100977AH   SYMBOL    CONST    ---       sm_clock_names
      01009215H   SYMBOL    CONST    ---       sm_trans_clock_alarm
      010097ECH   SYMBOL    CONST    ---       sm_names
      0100976EH   SYMBOL    CONST    ---       sm_trans_table
      0100931FH   SYMBOL    CONST    ---       sm_trans_power_pack_display
      01009732H   SYMBOL    CONST    ---       sm_group_clock
      010096ECH   SYMBOL    CONST    ---       sm_trans_global_flag_mod
      01009238H   SYMBOL    CONST    ---       sm_trans_clock_timer
      020000D4H   SYMBOL    XDATA    BYTE      sm_state
      010097DAH   SYMBOL    CONST    ---       sm_power_pack_names
      010097AAH   SYMBOL    CONST    ---       sm_fuse_names
      01009174H   SYMBOL    CONST    ---       sm_trans_clock_mod_alarm
      0100947DH   SYMBOL    CONST    ---       sm_trans_fuse_param

      0100204EH   BLOCK     CODE     ---       LVL=0
      ---         BLOCKEND  ---      ---       LVL=0

      0100860AH   BLOCK     CODE     ---       LVL=0
      0200000CH   SYMBOL    XDATA    BYTE      ev
      0100860AH   LINE      CODE     ---       #735
      0100860FH   LINE      CODE     ---       #736
      0100860FH   LINE      CODE     ---       #737
      01008612H   LINE      CODE     ---       #738
      01008615H   LINE      CODE     ---       #740
      ---         BLOCKEND  ---      ---       LVL=0

      01008D76H   BLOCK     CODE     ---       LVL=0
      00000007H   SYMBOL    DATA     BYTE      ev
      01008D76H   LINE      CODE     ---       #744
      01008D76H   LINE      CODE     ---       #745
      01008D76H   LINE      CODE     ---       #746
      ---         BLOCKEND  ---      ---       LVL=0

      01001D48H   BLOCK     CODE     ---       LVL=0
LX51 LINKER/LOCATER V4.66.87.0                                                        06/02/2018  22:09:22  PAGE 66


      0200000DH   SYMBOL    XDATA    BYTE      ev
      01001D4DH   BLOCK     CODE     NEAR LAB  LVL=1
      0200000EH   SYMBOL    XDATA    BYTE      c
      0200000FH   SYMBOL    XDATA    BYTE      newstate
      02000010H   SYMBOL    XDATA    BYTE      index
      ---         BLOCKEND  ---      ---       LVL=1
      01001D48H   LINE      CODE     ---       #749
      01001D4DH   LINE      CODE     ---       #750
      01001D4DH   LINE      CODE     ---       #755
      01001D58H   LINE      CODE     ---       #756
      01001D8FH   LINE      CODE     ---       #757
      01001DD6H   LINE      CODE     ---       #759
      01001DD6H   LINE      CODE     ---       #760
      01001DE7H   LINE      CODE     ---       #761
      01001DF1H   LINE      CODE     ---       #762
      01001E8DH   LINE      CODE     ---       #771
      01001EBFH   LINE      CODE     ---       #772
      01001EC7H   LINE      CODE     ---       #773
      01001ECFH   LINE      CODE     ---       #774
      01001ED0H   LINE      CODE     ---       #775
      01001ED0H   LINE      CODE     ---       #776
      01001ED9H   LINE      CODE     ---       #778
      ---         BLOCKEND  ---      ---       LVL=0

      0100771EH   BLOCK     CODE     ---       LVL=0
      0100771EH   LINE      CODE     ---       #781
      0100771EH   LINE      CODE     ---       #782
      0100771EH   LINE      CODE     ---       #783
      01007727H   LINE      CODE     ---       #784
      0100772CH   LINE      CODE     ---       #785
      0100772EH   LINE      CODE     ---       #787
      01007731H   LINE      CODE     ---       #788
      01007734H   LINE      CODE     ---       #789
      01007739H   LINE      CODE     ---       #791
      01007742H   LINE      CODE     ---       #792
      ---         BLOCKEND  ---      ---       LVL=0

      010067C1H   BLOCK     CODE     ---       LVL=0
      010067C1H   LINE      CODE     ---       #794
      010067C1H   LINE      CODE     ---       #795
      010067C1H   LINE      CODE     ---       #796
      ---         BLOCKEND  ---      ---       LVL=0

      01002E6DH   BLOCK     CODE     ---       LVL=0
      01002E6DH   BLOCK     CODE     NEAR LAB  LVL=1
      0200000AH   SYMBOL    XDATA    CHAR      i
      0200000BH   SYMBOL    XDATA    CHAR      j
      0200000CH   SYMBOL    XDATA    CHAR      k
      ---         BLOCKEND  ---      ---       LVL=1
      01002E6DH   LINE      CODE     ---       #803
      01002E6DH   LINE      CODE     ---       #804
      01002E6DH   LINE      CODE     ---       #807
      01002E80H   LINE      CODE     ---       #808
      01002E9FH   LINE      CODE     ---       #809
      01002EBFH   LINE      CODE     ---       #810
      01002EFAH   LINE      CODE     ---       #811
      01002F07H   LINE      CODE     ---       #812
      01002F46H   LINE      CODE     ---       #814
      01002F4EH   LINE      CODE     ---       #815
      01002F57H   LINE      CODE     ---       #816
      01002F60H   LINE      CODE     ---       #817
      ---         BLOCKEND  ---      ---       LVL=0

      01006C31H   BLOCK     CODE     ---       LVL=0
      01006C31H   BLOCK     CODE     NEAR LAB  LVL=1
LX51 LINKER/LOCATER V4.66.87.0                                                        06/02/2018  22:09:22  PAGE 67


      0200000AH   SYMBOL    XDATA    CHAR      i
      ---         BLOCKEND  ---      ---       LVL=1
      01006C31H   LINE      CODE     ---       #819
      01006C31H   LINE      CODE     ---       #820
      01006C31H   LINE      CODE     ---       #822
      01006C41H   LINE      CODE     ---       #823
      01006C60H   LINE      CODE     ---       #824
      01006C68H   LINE      CODE     ---       #825
      ---         BLOCKEND  ---      ---       LVL=0

      01006068H   BLOCK     CODE     ---       LVL=0
      01006068H   BLOCK     CODE     NEAR LAB  LVL=1
      0200000AH   SYMBOL    XDATA    CHAR      i
      ---         BLOCKEND  ---      ---       LVL=1
      01006068H   LINE      CODE     ---       #827
      01006068H   LINE      CODE     ---       #828
      01006068H   LINE      CODE     ---       #830
      01006083H   LINE      CODE     ---       #831
      010060AFH   LINE      CODE     ---       #832
      010060B7H   LINE      CODE     ---       #833
      ---         BLOCKEND  ---      ---       LVL=0

      01005B0BH   BLOCK     CODE     ---       LVL=0
      01005B0BH   BLOCK     CODE     NEAR LAB  LVL=1
      0200000AH   SYMBOL    XDATA    CHAR      i
      ---         BLOCKEND  ---      ---       LVL=1
      01005B0BH   LINE      CODE     ---       #835
      01005B0BH   LINE      CODE     ---       #836
      01005B0BH   LINE      CODE     ---       #838
      01005B29H   LINE      CODE     ---       #839
      01005B5BH   LINE      CODE     ---       #841
      01005B63H   LINE      CODE     ---       #842
      ---         BLOCKEND  ---      ---       LVL=0

      01003D49H   BLOCK     CODE     ---       LVL=0
      0200000AH   SYMBOL    XDATA    ---       table_name
      01003D4FH   BLOCK     CODE     NEAR LAB  LVL=1
      0200000DH   SYMBOL    XDATA    CHAR      i
      ---         BLOCKEND  ---      ---       LVL=1
      01003D49H   LINE      CODE     ---       #845
      01003D4FH   LINE      CODE     ---       #846
      01003D4FH   LINE      CODE     ---       #848
      01003D69H   LINE      CODE     ---       #849
      01003D81H   LINE      CODE     ---       #850
      01003D9BH   LINE      CODE     ---       #851
      01003DC1H   LINE      CODE     ---       #855
      01003DE3H   LINE      CODE     ---       #859
      01003DEFH   LINE      CODE     ---       #860
      01003DF4H   LINE      CODE     ---       #861
      01003DF6H   LINE      CODE     ---       #862
      01003DF6H   LINE      CODE     ---       #863
      01003DFFH   LINE      CODE     ---       #864
      01003E00H   LINE      CODE     ---       #865
      ---         BLOCKEND  ---      ---       LVL=0

      01008767H   BLOCK     CODE     ---       LVL=0
      00000007H   SYMBOL    DATA     BYTE      state
      01008767H   LINE      CODE     ---       #867
      01008767H   LINE      CODE     ---       #868
      01008767H   LINE      CODE     ---       #869
      0100876FH   LINE      CODE     ---       #870
      01008777H   LINE      CODE     ---       #871
      ---         BLOCKEND  ---      ---       LVL=0

      01008A71H   BLOCK     CODE     ---       LVL=0
LX51 LINKER/LOCATER V4.66.87.0                                                        06/02/2018  22:09:22  PAGE 68


      00000007H   SYMBOL    DATA     BYTE      sub_state
      01008A71H   LINE      CODE     ---       #873
      01008A71H   LINE      CODE     ---       #874
      01008A71H   LINE      CODE     ---       #875
      01008A76H   LINE      CODE     ---       #876
      01008A7BH   LINE      CODE     ---       #877
      ---         BLOCKEND  ---      ---       LVL=0

      010034D6H   BLOCK     CODE     ---       LVL=0
      0200000AH   SYMBOL    XDATA    ---       state_name
      010034DCH   BLOCK     CODE     NEAR LAB  LVL=1
      0200000DH   SYMBOL    XDATA    CHAR      i
      ---         BLOCKEND  ---      ---       LVL=1
      010034D6H   LINE      CODE     ---       #879
      010034DCH   LINE      CODE     ---       #880
      010034DCH   LINE      CODE     ---       #882
      010034FEH   LINE      CODE     ---       #883
      01003525H   LINE      CODE     ---       #884
      01003554H   LINE      CODE     ---       #887
      0100358AH   LINE      CODE     ---       #891
      01003592H   LINE      CODE     ---       #892
      01003597H   LINE      CODE     ---       #893
      01003599H   LINE      CODE     ---       #894
      01003599H   LINE      CODE     ---       #895
      010035A2H   LINE      CODE     ---       #896
      010035A3H   LINE      CODE     ---       #897
      ---         BLOCKEND  ---      ---       LVL=0

      01004934H   BLOCK     CODE     ---       LVL=0
      0200000AH   SYMBOL    XDATA    ---       sub_state_name
      0100493AH   BLOCK     CODE     NEAR LAB  LVL=1
      0200000DH   SYMBOL    XDATA    CHAR      i
      ---         BLOCKEND  ---      ---       LVL=1
      01004934H   LINE      CODE     ---       #899
      0100493AH   LINE      CODE     ---       #900
      0100493AH   LINE      CODE     ---       #902
      01004950H   LINE      CODE     ---       #903
      01004974H   LINE      CODE     ---       #904
      010049A7H   LINE      CODE     ---       #908
      010049AFH   LINE      CODE     ---       #909
      010049B1H   LINE      CODE     ---       #910
      010049B1H   LINE      CODE     ---       #911
      010049B9H   LINE      CODE     ---       #912
      010049BAH   LINE      CODE     ---       #913
      ---         BLOCKEND  ---      ---       LVL=0

      ---         MODULE    ---      ---       MAIN
      01006245H   PUBLIC    CODE     ---       main
      00000080H   SFRSYM    DATA     BYTE      P0
      00000090H   SFRSYM    DATA     BYTE      P1
      000000A0H   SFRSYM    DATA     BYTE      P2
      000000B0H   SFRSYM    DATA     BYTE      P3
      000000C0H   SFRSYM    DATA     BYTE      XICON
      000000B0H.4 SFRSYM    DATA     BIT       T0
      000000D0H.6 SFRSYM    DATA     BIT       AC
      000000E8H   SFRSYM    DATA     BYTE      P4
      000000B0H.5 SFRSYM    DATA     BIT       T1
      000000E6H   SFRSYM    DATA     BYTE      ISP_TRIG
      00000090H.0 SFRSYM    DATA     BIT       T2
      000000A8H.7 SFRSYM    DATA     BIT       EA
      000000A8H.6 SFRSYM    DATA     BIT       EC
      00000098H.7 SFRSYM    DATA     BIT       FE
      000000A8H   SFRSYM    DATA     BYTE      IE
      000000C8H.6 SFRSYM    DATA     BIT       EXF2
      000000B0H.7 SFRSYM    DATA     BIT       RD
LX51 LINKER/LOCATER V4.66.87.0                                                        06/02/2018  22:09:22  PAGE 69


      000000A8H.4 SFRSYM    DATA     BIT       ES
      000000B8H   SFRSYM    DATA     BYTE      IP
      00000098H.0 SFRSYM    DATA     BIT       RI
      000000B0H.2 SFRSYM    DATA     BIT       INT0
      000000D0H.7 SFRSYM    DATA     BIT       CY
      00000098H.1 SFRSYM    DATA     BIT       TI
      000000B0H.3 SFRSYM    DATA     BIT       INT1
      000000CBH   SFRSYM    DATA     BYTE      RCAP2H
      000000E5H   SFRSYM    DATA     BYTE      ISP_CMD
      000000B8H.4 SFRSYM    DATA     BIT       PS
      00000081H   SFRSYM    DATA     BYTE      SP
      00000090H.1 SFRSYM    DATA     BIT       T2EX
      000000D0H.2 SFRSYM    DATA     BIT       OV
      000000CAH   SFRSYM    DATA     BYTE      RCAP2L
      000000C8H.1 SFRSYM    DATA     BIT       C_T2
      000000B0H.6 SFRSYM    DATA     BIT       WR
      000000C8H.5 SFRSYM    DATA     BIT       RCLK
      000000C8H.4 SFRSYM    DATA     BIT       TCLK
      00000080H.0 SFRSYM    DATA     BIT       P00
      00000099H   SFRSYM    DATA     BYTE      SBUF
      00000087H   SFRSYM    DATA     BYTE      PCON
      00000090H.0 SFRSYM    DATA     BIT       P10
      00000080H.1 SFRSYM    DATA     BIT       P01
      000000A0H.0 SFRSYM    DATA     BIT       P20
      00000090H.1 SFRSYM    DATA     BIT       P11
      00000080H.2 SFRSYM    DATA     BIT       P02
      000000E3H   SFRSYM    DATA     BYTE      ISP_ADDRH
      000000B0H.0 SFRSYM    DATA     BIT       P30
      000000A0H.1 SFRSYM    DATA     BIT       P21
      00000090H.2 SFRSYM    DATA     BIT       P12
      00000080H.3 SFRSYM    DATA     BIT       P03
      00000098H   SFRSYM    DATA     BYTE      SCON
      000000B0H.1 SFRSYM    DATA     BIT       P31
      000000A0H.2 SFRSYM    DATA     BIT       P22
      00000090H.3 SFRSYM    DATA     BIT       P13
      00000080H.4 SFRSYM    DATA     BIT       P04
      000000E8H.0 SFRSYM    DATA     BIT       P40
      00000089H   SFRSYM    DATA     BYTE      TMOD
      00000088H   SFRSYM    DATA     BYTE      TCON
      000000B0H.2 SFRSYM    DATA     BIT       P32
      000000A0H.3 SFRSYM    DATA     BIT       P23
      00000090H.4 SFRSYM    DATA     BIT       P14
      00000080H.5 SFRSYM    DATA     BIT       P05
      000000E8H.1 SFRSYM    DATA     BIT       P41
      000000B0H.3 SFRSYM    DATA     BIT       P33
      000000A0H.4 SFRSYM    DATA     BIT       P24
      00000090H.5 SFRSYM    DATA     BIT       P15
      00000080H.6 SFRSYM    DATA     BIT       P06
      000000E4H   SFRSYM    DATA     BYTE      ISP_ADDRL
      000000E8H.2 SFRSYM    DATA     BIT       P42
      000000B0H.4 SFRSYM    DATA     BIT       P34
      000000A0H.5 SFRSYM    DATA     BIT       P25
      00000090H.6 SFRSYM    DATA     BIT       P16
      00000080H.7 SFRSYM    DATA     BIT       P07
      000000E8H.3 SFRSYM    DATA     BIT       P43
      000000B0H.5 SFRSYM    DATA     BIT       P35
      000000A0H.6 SFRSYM    DATA     BIT       P26
      00000090H.7 SFRSYM    DATA     BIT       P17
      000000E8H.4 SFRSYM    DATA     BIT       P44
      000000B0H.6 SFRSYM    DATA     BIT       P36
      000000A0H.7 SFRSYM    DATA     BIT       P27
      000000E8H.5 SFRSYM    DATA     BIT       P45
      000000B0H.7 SFRSYM    DATA     BIT       P37
      000000E8H.6 SFRSYM    DATA     BIT       P46
      00000088H.1 SFRSYM    DATA     BIT       IE0
LX51 LINKER/LOCATER V4.66.87.0                                                        06/02/2018  22:09:22  PAGE 70


      00000088H.3 SFRSYM    DATA     BIT       IE1
      0000008EH   SFRSYM    DATA     BYTE      AUXR
      000000F0H   SFRSYM    DATA     BYTE      B
      000000C8H.0 SFRSYM    DATA     BIT       CP_RL2
      000000E0H   SFRSYM    DATA     BYTE      ACC
      000000A8H.1 SFRSYM    DATA     BIT       ET0
      000000A8H.3 SFRSYM    DATA     BIT       ET1
      00000088H.5 SFRSYM    DATA     BIT       TF0
      000000A8H.5 SFRSYM    DATA     BIT       ET2
      00000088H.7 SFRSYM    DATA     BIT       TF1
      000000C8H.7 SFRSYM    DATA     BIT       TF2
      00000098H.2 SFRSYM    DATA     BIT       RB8
      0000008CH   SFRSYM    DATA     BYTE      TH0
      000000A8H.0 SFRSYM    DATA     BIT       EX0
      00000088H.0 SFRSYM    DATA     BIT       IT0
      0000008DH   SFRSYM    DATA     BYTE      TH1
      00000098H.3 SFRSYM    DATA     BIT       TB8
      000000A8H.2 SFRSYM    DATA     BIT       EX1
      00000088H.2 SFRSYM    DATA     BIT       IT1
      000000CDH   SFRSYM    DATA     BYTE      TH2
      000000D0H.0 SFRSYM    DATA     BIT       P
      00000098H.7 SFRSYM    DATA     BIT       SM0
      0000008AH   SFRSYM    DATA     BYTE      TL0
      00000098H.6 SFRSYM    DATA     BIT       SM1
      0000008BH   SFRSYM    DATA     BYTE      TL1
      00000098H.5 SFRSYM    DATA     BIT       SM2
      000000CCH   SFRSYM    DATA     BYTE      TL2
      000000B8H.1 SFRSYM    DATA     BIT       PT0
      000000B8H.3 SFRSYM    DATA     BIT       PT1
      000000D0H.3 SFRSYM    DATA     BIT       RS0
      000000E7H   SFRSYM    DATA     BYTE      ISP_CONTR
      000000B8H.5 SFRSYM    DATA     BIT       PT2
      00000088H.4 SFRSYM    DATA     BIT       TR0
      000000D0H.4 SFRSYM    DATA     BIT       RS1
      00000088H.6 SFRSYM    DATA     BIT       TR1
      000000C8H.2 SFRSYM    DATA     BIT       TR2
      000000B8H.0 SFRSYM    DATA     BIT       PX0
      000000E1H   SFRSYM    DATA     BYTE      WDT_CONTR
      000000B8H.2 SFRSYM    DATA     BIT       PX1
      00000083H   SFRSYM    DATA     BYTE      DPH
      00000082H   SFRSYM    DATA     BYTE      DPL
      000000B7H   SFRSYM    DATA     BYTE      IPH
      000000C8H.3 SFRSYM    DATA     BIT       EXEN2
      00000098H.4 SFRSYM    DATA     BIT       REN
      000000C9H   SFRSYM    DATA     BYTE      T2MOD
      000000C8H   SFRSYM    DATA     BYTE      T2CON
      000000E2H   SFRSYM    DATA     BYTE      ISP_DATA
      000000B9H   SFRSYM    DATA     BYTE      SADEN
      000000B0H.0 SFRSYM    DATA     BIT       RXD
      000000A9H   SFRSYM    DATA     BYTE      SADDR
      000000B0H.1 SFRSYM    DATA     BIT       TXD
      000000A2H   SFRSYM    DATA     BYTE      AUXR1
      000000D0H.5 SFRSYM    DATA     BIT       F0
      000000D0H   SFRSYM    DATA     BYTE      PSW
      01007191H   SYMBOL    CODE     ---       show_version

      01007191H   BLOCK     CODE     ---       LVL=0
      01007191H   LINE      CODE     ---       #32
      01007191H   LINE      CODE     ---       #33
      01007191H   LINE      CODE     ---       #35
      0100719AH   LINE      CODE     ---       #36
      010071ADH   LINE      CODE     ---       #37
      010071B6H   LINE      CODE     ---       #38
      ---         BLOCKEND  ---      ---       LVL=0

LX51 LINKER/LOCATER V4.66.87.0                                                        06/02/2018  22:09:22  PAGE 71


      01006245H   BLOCK     CODE     ---       LVL=0
      01006245H   LINE      CODE     ---       #42
      01006245H   LINE      CODE     ---       #43
      01006245H   LINE      CODE     ---       #44
      01006247H   LINE      CODE     ---       #45
      0100624AH   LINE      CODE     ---       #46
      0100624DH   LINE      CODE     ---       #47
      01006250H   LINE      CODE     ---       #48
      01006253H   LINE      CODE     ---       #49
      01006256H   LINE      CODE     ---       #50
      01006259H   LINE      CODE     ---       #51
      0100625CH   LINE      CODE     ---       #52
      0100625FH   LINE      CODE     ---       #53
      01006262H   LINE      CODE     ---       #54
      01006265H   LINE      CODE     ---       #55
      01006268H   LINE      CODE     ---       #56
      0100626BH   LINE      CODE     ---       #57
      0100626EH   LINE      CODE     ---       #58
      01006271H   LINE      CODE     ---       #59
      01006274H   LINE      CODE     ---       #60
      01006277H   LINE      CODE     ---       #61
      0100627AH   LINE      CODE     ---       #62
      0100627DH   LINE      CODE     ---       #63
      01006280H   LINE      CODE     ---       #64
      01006283H   LINE      CODE     ---       #65
      01006286H   LINE      CODE     ---       #66
      01006289H   LINE      CODE     ---       #67
      01006289H   LINE      CODE     ---       #68
      0100628CH   LINE      CODE     ---       #69
      0100628FH   LINE      CODE     ---       #70
      ---         BLOCKEND  ---      ---       LVL=0

      ---         MODULE    ---      ---       ?C_STARTUP
      01000000H   PUBLIC    CODE     NEAR LAB  ?C_STARTUP
      000000E0H   SFRSYM    DATA     BYTE      ACC
      000000F0H   SFRSYM    DATA     BYTE      B
      00000083H   SFRSYM    DATA     BYTE      DPH
      00000082H   SFRSYM    DATA     BYTE      DPL
      000000A0H   SFRSYM    DATA     BYTE      PPAGE_SFR
      00000081H   SFRSYM    DATA     BYTE      SP
      00000000H   SYMBOL    NUMBER   ---       IBPSTACK
      00000100H   SYMBOL    NUMBER   ---       IBPSTACKTOP
      00000080H   SYMBOL    NUMBER   ---       IDATALEN
      01007AAAH   SYMBOL    CODE     NEAR LAB  IDATALOOP
      00000000H   SYMBOL    NUMBER   ---       PBPSTACK
      00000100H   SYMBOL    NUMBER   ---       PBPSTACKTOP
      00000000H   SYMBOL    NUMBER   ---       PDATALEN
      00000000H   SYMBOL    NUMBER   ---       PDATASTART
      00000000H   SYMBOL    NUMBER   ---       PPAGE
      00000000H   SYMBOL    NUMBER   ---       PPAGEENABLE
      01007AA7H   SYMBOL    CODE     NEAR LAB  STARTUP1
      00000001H   SYMBOL    NUMBER   ---       XBPSTACK
      00010000H   SYMBOL    NUMBER   ---       XBPSTACKTOP
      00000400H   SYMBOL    NUMBER   ---       XDATALEN
      01007AB5H   SYMBOL    CODE     NEAR LAB  XDATALOOP
      00000000H   SYMBOL    NUMBER   ---       XDATASTART

      01000000H   BLOCK     CODE     NEAR LAB  LVL=0
      01000000H   LINE      CODE     ---       #126
      ---         BLOCKEND  ---      ---       LVL=0

      01007AA7H   BLOCK     CODE     NEAR LAB  LVL=0
      01007AA7H   LINE      CODE     ---       #133
      01007AA9H   LINE      CODE     ---       #134
      01007AAAH   LINE      CODE     ---       #135
LX51 LINKER/LOCATER V4.66.87.0                                                        06/02/2018  22:09:22  PAGE 72


      01007AABH   LINE      CODE     ---       #136
      01007AADH   LINE      CODE     ---       #140
      01007AB0H   LINE      CODE     ---       #141
      01007AB2H   LINE      CODE     ---       #145
      01007AB4H   LINE      CODE     ---       #147
      01007AB5H   LINE      CODE     ---       #148
      01007AB6H   LINE      CODE     ---       #149
      01007AB7H   LINE      CODE     ---       #150
      01007AB9H   LINE      CODE     ---       #151
      01007ABBH   LINE      CODE     ---       #176
      01007ABEH   LINE      CODE     ---       #177
      01007AC1H   LINE      CODE     ---       #185
      01007AC4H   LINE      CODE     ---       #196
      ---         BLOCKEND  ---      ---       LVL=0

      ---         MODULE    ---      ---       COM
      00000023H.4 PUBLIC    BIT      BIT       sendfull
      00000023H.3 PUBLIC    BIT      BIT       sendactive
      01000016H   PUBLIC    CODE     ---       com_leave_powersave
      0100891FH   PUBLIC    CODE     ---       com_enter_powersave
      010084B6H   PUBLIC    CODE     ---       com_try_get_key
      010087DEH   PUBLIC    CODE     ---       _getkey
      010080C7H   PUBLIC    CODE     ---       _putchar
      010070D5H   PUBLIC    CODE     ---       _putbuf
      01007524H   PUBLIC    CODE     ---       com_initialize
      00000080H   SFRSYM    DATA     BYTE      P0
      00000090H   SFRSYM    DATA     BYTE      P1
      000000A0H   SFRSYM    DATA     BYTE      P2
      000000B0H   SFRSYM    DATA     BYTE      P3
      000000C0H   SFRSYM    DATA     BYTE      XICON
      000000B0H.4 SFRSYM    DATA     BIT       T0
      000000D0H.6 SFRSYM    DATA     BIT       AC
      000000E8H   SFRSYM    DATA     BYTE      P4
      000000B0H.5 SFRSYM    DATA     BIT       T1
      000000E6H   SFRSYM    DATA     BYTE      ISP_TRIG
      00000090H.0 SFRSYM    DATA     BIT       T2
      000000A8H.7 SFRSYM    DATA     BIT       EA
      000000A8H.6 SFRSYM    DATA     BIT       EC
      00000098H.7 SFRSYM    DATA     BIT       FE
      000000A8H   SFRSYM    DATA     BYTE      IE
      000000C8H.6 SFRSYM    DATA     BIT       EXF2
      000000B0H.7 SFRSYM    DATA     BIT       RD
      000000A8H.4 SFRSYM    DATA     BIT       ES
      000000B8H   SFRSYM    DATA     BYTE      IP
      00000098H.0 SFRSYM    DATA     BIT       RI
      000000B0H.2 SFRSYM    DATA     BIT       INT0
      000000D0H.7 SFRSYM    DATA     BIT       CY
      00000098H.1 SFRSYM    DATA     BIT       TI
      000000B0H.3 SFRSYM    DATA     BIT       INT1
      000000CBH   SFRSYM    DATA     BYTE      RCAP2H
      000000E5H   SFRSYM    DATA     BYTE      ISP_CMD
      000000B8H.4 SFRSYM    DATA     BIT       PS
      00000081H   SFRSYM    DATA     BYTE      SP
      00000090H.1 SFRSYM    DATA     BIT       T2EX
      000000D0H.2 SFRSYM    DATA     BIT       OV
      000000CAH   SFRSYM    DATA     BYTE      RCAP2L
      000000C8H.1 SFRSYM    DATA     BIT       C_T2
      000000B0H.6 SFRSYM    DATA     BIT       WR
      000000C8H.5 SFRSYM    DATA     BIT       RCLK
      000000C8H.4 SFRSYM    DATA     BIT       TCLK
      00000080H.0 SFRSYM    DATA     BIT       P00
      00000099H   SFRSYM    DATA     BYTE      SBUF
      00000087H   SFRSYM    DATA     BYTE      PCON
      00000090H.0 SFRSYM    DATA     BIT       P10
      00000080H.1 SFRSYM    DATA     BIT       P01
LX51 LINKER/LOCATER V4.66.87.0                                                        06/02/2018  22:09:22  PAGE 73


      000000A0H.0 SFRSYM    DATA     BIT       P20
      00000090H.1 SFRSYM    DATA     BIT       P11
      00000080H.2 SFRSYM    DATA     BIT       P02
      000000E3H   SFRSYM    DATA     BYTE      ISP_ADDRH
      000000B0H.0 SFRSYM    DATA     BIT       P30
      000000A0H.1 SFRSYM    DATA     BIT       P21
      00000090H.2 SFRSYM    DATA     BIT       P12
      00000080H.3 SFRSYM    DATA     BIT       P03
      00000098H   SFRSYM    DATA     BYTE      SCON
      000000B0H.1 SFRSYM    DATA     BIT       P31
      000000A0H.2 SFRSYM    DATA     BIT       P22
      00000090H.3 SFRSYM    DATA     BIT       P13
      00000080H.4 SFRSYM    DATA     BIT       P04
      000000E8H.0 SFRSYM    DATA     BIT       P40
      00000089H   SFRSYM    DATA     BYTE      TMOD
      00000088H   SFRSYM    DATA     BYTE      TCON
      000000B0H.2 SFRSYM    DATA     BIT       P32
      000000A0H.3 SFRSYM    DATA     BIT       P23
      00000090H.4 SFRSYM    DATA     BIT       P14
      00000080H.5 SFRSYM    DATA     BIT       P05
      000000E8H.1 SFRSYM    DATA     BIT       P41
      000000B0H.3 SFRSYM    DATA     BIT       P33
      000000A0H.4 SFRSYM    DATA     BIT       P24
      00000090H.5 SFRSYM    DATA     BIT       P15
      00000080H.6 SFRSYM    DATA     BIT       P06
      000000E4H   SFRSYM    DATA     BYTE      ISP_ADDRL
      000000E8H.2 SFRSYM    DATA     BIT       P42
      000000B0H.4 SFRSYM    DATA     BIT       P34
      000000A0H.5 SFRSYM    DATA     BIT       P25
      00000090H.6 SFRSYM    DATA     BIT       P16
      00000080H.7 SFRSYM    DATA     BIT       P07
      000000E8H.3 SFRSYM    DATA     BIT       P43
      000000B0H.5 SFRSYM    DATA     BIT       P35
      000000A0H.6 SFRSYM    DATA     BIT       P26
      00000090H.7 SFRSYM    DATA     BIT       P17
      000000E8H.4 SFRSYM    DATA     BIT       P44
      000000B0H.6 SFRSYM    DATA     BIT       P36
      000000A0H.7 SFRSYM    DATA     BIT       P27
      000000E8H.5 SFRSYM    DATA     BIT       P45
      000000B0H.7 SFRSYM    DATA     BIT       P37
      000000E8H.6 SFRSYM    DATA     BIT       P46
      00000088H.1 SFRSYM    DATA     BIT       IE0
      00000088H.3 SFRSYM    DATA     BIT       IE1
      0000008EH   SFRSYM    DATA     BYTE      AUXR
      000000F0H   SFRSYM    DATA     BYTE      B
      000000C8H.0 SFRSYM    DATA     BIT       CP_RL2
      000000E0H   SFRSYM    DATA     BYTE      ACC
      000000A8H.1 SFRSYM    DATA     BIT       ET0
      000000A8H.3 SFRSYM    DATA     BIT       ET1
      00000088H.5 SFRSYM    DATA     BIT       TF0
      000000A8H.5 SFRSYM    DATA     BIT       ET2
      00000088H.7 SFRSYM    DATA     BIT       TF1
      000000C8H.7 SFRSYM    DATA     BIT       TF2
      00000098H.2 SFRSYM    DATA     BIT       RB8
      0000008CH   SFRSYM    DATA     BYTE      TH0
      000000A8H.0 SFRSYM    DATA     BIT       EX0
      00000088H.0 SFRSYM    DATA     BIT       IT0
      0000008DH   SFRSYM    DATA     BYTE      TH1
      00000098H.3 SFRSYM    DATA     BIT       TB8
      000000A8H.2 SFRSYM    DATA     BIT       EX1
      00000088H.2 SFRSYM    DATA     BIT       IT1
      000000CDH   SFRSYM    DATA     BYTE      TH2
      000000D0H.0 SFRSYM    DATA     BIT       P
      00000098H.7 SFRSYM    DATA     BIT       SM0
      0000008AH   SFRSYM    DATA     BYTE      TL0
LX51 LINKER/LOCATER V4.66.87.0                                                        06/02/2018  22:09:22  PAGE 74


      00000098H.6 SFRSYM    DATA     BIT       SM1
      0000008BH   SFRSYM    DATA     BYTE      TL1
      00000098H.5 SFRSYM    DATA     BIT       SM2
      000000CCH   SFRSYM    DATA     BYTE      TL2
      000000B8H.1 SFRSYM    DATA     BIT       PT0
      000000B8H.3 SFRSYM    DATA     BIT       PT1
      000000D0H.3 SFRSYM    DATA     BIT       RS0
      000000E7H   SFRSYM    DATA     BYTE      ISP_CONTR
      000000B8H.5 SFRSYM    DATA     BIT       PT2
      00000088H.4 SFRSYM    DATA     BIT       TR0
      000000D0H.4 SFRSYM    DATA     BIT       RS1
      00000088H.6 SFRSYM    DATA     BIT       TR1
      000000C8H.2 SFRSYM    DATA     BIT       TR2
      000000B8H.0 SFRSYM    DATA     BIT       PX0
      000000E1H   SFRSYM    DATA     BYTE      WDT_CONTR
      000000B8H.2 SFRSYM    DATA     BIT       PX1
      00000083H   SFRSYM    DATA     BYTE      DPH
      00000082H   SFRSYM    DATA     BYTE      DPL
      000000B7H   SFRSYM    DATA     BYTE      IPH
      000000C8H.3 SFRSYM    DATA     BIT       EXEN2
      00000098H.4 SFRSYM    DATA     BIT       REN
      000000C9H   SFRSYM    DATA     BYTE      T2MOD
      000000C8H   SFRSYM    DATA     BYTE      T2CON
      000000E2H   SFRSYM    DATA     BYTE      ISP_DATA
      000000B9H   SFRSYM    DATA     BYTE      SADEN
      000000B0H.0 SFRSYM    DATA     BIT       RXD
      000000A9H   SFRSYM    DATA     BYTE      SADDR
      000000B0H.1 SFRSYM    DATA     BIT       TXD
      000000A2H   SFRSYM    DATA     BYTE      AUXR1
      000000D0H.5 SFRSYM    DATA     BIT       F0
      000000D0H   SFRSYM    DATA     BYTE      PSW
      00000026H   SYMBOL    IDATA    ---       inbuf
      0000002EH   SYMBOL    IDATA    ---       outbuf
      020000D0H   SYMBOL    XDATA    BYTE      istart
      020000D1H   SYMBOL    XDATA    BYTE      ostart
      020000D2H   SYMBOL    XDATA    BYTE      iend
      020000D3H   SYMBOL    XDATA    BYTE      oend
      0100523AH   SYMBOL    CODE     ---       com_isr

      01008235H   BLOCK     CODE     ---       LVL=0
      ---         BLOCKEND  ---      ---       LVL=0

      0100523AH   BLOCK     CODE     ---       LVL=0
      0100524CH   BLOCK     CODE     NEAR LAB  LVL=1
      00000017H   SYMBOL    DATA     CHAR      c
      ---         BLOCKEND  ---      ---       LVL=1
      0100523AH   LINE      CODE     ---       #31
      0100524CH   LINE      CODE     ---       #36
      0100524FH   LINE      CODE     ---       #37
      01005251H   LINE      CODE     ---       #38
      01005253H   LINE      CODE     ---       #39
      01005267H   LINE      CODE     ---       #40
      01005273H   LINE      CODE     ---       #41
      01005273H   LINE      CODE     ---       #42
      01005273H   LINE      CODE     ---       #45
      01005276H   LINE      CODE     ---       #46
      01005278H   LINE      CODE     ---       #47
      01005284H   LINE      CODE     ---       #48
      01005291H   LINE      CODE     ---       #49
      01005293H   LINE      CODE     ---       #50
      01005295H   LINE      CODE     ---       #51
      01005295H   LINE      CODE     ---       #52
      01005297H   LINE      CODE     ---       #53
      01005297H   LINE      CODE     ---       #54
      01005297H   LINE      CODE     ---       #55
LX51 LINKER/LOCATER V4.66.87.0                                                        06/02/2018  22:09:22  PAGE 75


      ---         BLOCKEND  ---      ---       LVL=0

      01007524H   BLOCK     CODE     ---       LVL=0
      01007524H   LINE      CODE     ---       #61
      01007524H   LINE      CODE     ---       #62
      01007529H   LINE      CODE     ---       #63
      0100752DH   LINE      CODE     ---       #64
      01007531H   LINE      CODE     ---       #65
      01007535H   LINE      CODE     ---       #66
      01007537H   LINE      CODE     ---       #67
      01007539H   LINE      CODE     ---       #69
      0100753CH   LINE      CODE     ---       #71
      0100753FH   LINE      CODE     ---       #72
      01007542H   LINE      CODE     ---       #74
      01007545H   LINE      CODE     ---       #75
      01007547H   LINE      CODE     ---       #76
      01007549H   LINE      CODE     ---       #77
      0100754BH   LINE      CODE     ---       #78
      ---         BLOCKEND  ---      ---       LVL=0

      010070D5H   BLOCK     CODE     ---       LVL=0
      00000007H   SYMBOL    DATA     CHAR      c
      010070D5H   LINE      CODE     ---       #89
      010070D5H   LINE      CODE     ---       #90
      010070D8H   LINE      CODE     ---       #91
      010070DBH   LINE      CODE     ---       #92
      010070DDH   LINE      CODE     ---       #93
      010070DFH   LINE      CODE     ---       #94
      010070E0H   LINE      CODE     ---       #95
      010070E0H   LINE      CODE     ---       #96
      010070E2H   LINE      CODE     ---       #97
      010070F1H   LINE      CODE     ---       #98
      010070FFH   LINE      CODE     ---       #99
      01007101H   LINE      CODE     ---       #100
      01007101H   LINE      CODE     ---       #101
      01007103H   LINE      CODE     ---       #102
      01007103H   LINE      CODE     ---       #103
      01007103H   LINE      CODE     ---       #104
      ---         BLOCKEND  ---      ---       LVL=0

      010080C7H   BLOCK     CODE     ---       LVL=0
      00000005H   SYMBOL    DATA     CHAR      c
      010080C7H   LINE      CODE     ---       #111
      010080C9H   LINE      CODE     ---       #112
      010080CDH   LINE      CODE     ---       #113
      010080D0H   LINE      CODE     ---       #114
      010080D5H   LINE      CODE     ---       #115
      010080D5H   LINE      CODE     ---       #116
      010080D8H   LINE      CODE     ---       #117
      010080DDH   LINE      CODE     ---       #118
      010080DFH   LINE      CODE     ---       #119
      ---         BLOCKEND  ---      ---       LVL=0

      010087DEH   BLOCK     CODE     ---       LVL=0
      010087DEH   BLOCK     CODE     NEAR LAB  LVL=1
      00000007H   SYMBOL    DATA     CHAR      c
      ---         BLOCKEND  ---      ---       LVL=1
      010087DEH   LINE      CODE     ---       #126
      010087DEH   LINE      CODE     ---       #128
      010087E4H   LINE      CODE     ---       #130
      010087E4H   LINE      CODE     ---       #131
      010087E6H   LINE      CODE     ---       #132
      010087EAH   LINE      CODE     ---       #133
      010087EDH   LINE      CODE     ---       #134
      010087EDH   LINE      CODE     ---       #135
LX51 LINKER/LOCATER V4.66.87.0                                                        06/02/2018  22:09:22  PAGE 76


      ---         BLOCKEND  ---      ---       LVL=0

      010084B6H   BLOCK     CODE     ---       LVL=0
      010084B6H   BLOCK     CODE     NEAR LAB  LVL=1
      00000007H   SYMBOL    DATA     CHAR      c
      ---         BLOCKEND  ---      ---       LVL=1
      010084B6H   LINE      CODE     ---       #137
      010084B6H   LINE      CODE     ---       #138
      010084B6H   LINE      CODE     ---       #140
      010084BCH   LINE      CODE     ---       #141
      010084BFH   LINE      CODE     ---       #142
      010084BFH   LINE      CODE     ---       #143
      010084C1H   LINE      CODE     ---       #144
      010084C6H   LINE      CODE     ---       #145
      010084C9H   LINE      CODE     ---       #146
      010084C9H   LINE      CODE     ---       #147
      ---         BLOCKEND  ---      ---       LVL=0

      0100891FH   BLOCK     CODE     ---       LVL=0
      0100891FH   LINE      CODE     ---       #149
      0100891FH   LINE      CODE     ---       #150
      0100891FH   LINE      CODE     ---       #151
      01008928H   LINE      CODE     ---       #152
      0100892AH   LINE      CODE     ---       #153
      0100892CH   LINE      CODE     ---       #154
      ---         BLOCKEND  ---      ---       LVL=0

      01000016H   BLOCK     CODE     ---       LVL=0
      01000016H   LINE      CODE     ---       #156
      01000016H   LINE      CODE     ---       #157
      01000016H   LINE      CODE     ---       #158
      01000018H   LINE      CODE     ---       #159
      0100001AH   LINE      CODE     ---       #160
      ---         BLOCKEND  ---      ---       LVL=0

      ---         MODULE    ---      ---       RTC
      01008175H   PUBLIC    CODE     ---       rtc_leave_powersave
      0100815DH   PUBLIC    CODE     ---       rtc_enter_powersave
      01008B3CH   PUBLIC    CODE     ---       rtc_test_bsy
      00000020H.0 PUBLIC    BIT      BIT       ?rtc_set_en32khz?BIT
      01008889H   PUBLIC    CODE     ---       rtc_set_en32khz
      01008B32H   PUBLIC    CODE     ---       rtc_test_en32khz
      00000024H.6 PUBLIC    BIT      BIT       ?rtc_set_osf?BIT
      0100887AH   PUBLIC    CODE     ---       rtc_set_osf
      01008B28H   PUBLIC    CODE     ---       rtc_test_osf
      00000020H.0 PUBLIC    BIT      BIT       ?rtc_set_intcn?BIT
      0100886BH   PUBLIC    CODE     ---       rtc_set_intcn
      01008B1EH   PUBLIC    CODE     ---       rtc_test_intcn
      01008506H   PUBLIC    CODE     ---       rtc_get_square_rate_str
      01008778H   PUBLIC    CODE     ---       _rtc_set_square_rate
      010089C7H   PUBLIC    CODE     ---       rtc_get_square_rate
      00000024H.5 PUBLIC    BIT      BIT       ?rtc_set_conv?BIT
      0100885CH   PUBLIC    CODE     ---       rtc_set_conv
      01008B14H   PUBLIC    CODE     ---       rtc_test_conv
      00000024H.4 PUBLIC    BIT      BIT       ?rtc_set_bbsqw?BIT
      0100884DH   PUBLIC    CODE     ---       rtc_set_bbsqw
      01008B0AH   PUBLIC    CODE     ---       rtc_test_bbsqw
      00000024H.3 PUBLIC    BIT      BIT       ?rtc_set_eosc?BIT
      0100883EH   PUBLIC    CODE     ---       rtc_set_eosc
      01008B00H   PUBLIC    CODE     ---       rtc_test_eosc
      01007C78H   PUBLIC    CODE     ---       _rtc_test_alarm_int_flag
      0100824CH   PUBLIC    CODE     ---       _rtc_clr_alarm_int_flag
      01007C5BH   PUBLIC    CODE     ---       _rtc_test_alarm_int
      00000020H.1 PUBLIC    BIT      BIT       ?_rtc_enable_alarm_int?BIT
      01007743H   PUBLIC    CODE     ---       _rtc_enable_alarm_int
LX51 LINKER/LOCATER V4.66.87.0                                                        06/02/2018  22:09:22  PAGE 77


      02000014H   PUBLIC    XDATA    BYTE      ?_rtc_get_temperature?BYTE
      01004313H   PUBLIC    CODE     ---       _rtc_get_temperature
      010084F2H   PUBLIC    CODE     ---       rtc_alarm_get_mod_str
      01004795H   PUBLIC    CODE     ---       _rtc_alarm_set_mode
      01003671H   PUBLIC    CODE     ---       rtc_alarm_get_mode
      01008373H   PUBLIC    CODE     ---       _rtc_alarm_set_sec
      010084DEH   PUBLIC    CODE     ---       rtc_alarm_get_sec
      01007FF7H   PUBLIC    CODE     ---       _rtc_alarm_set_date
      01008423H   PUBLIC    CODE     ---       rtc_alarm_get_date
      0100835DH   PUBLIC    CODE     ---       _rtc_alarm_set_day
      010084CAH   PUBLIC    CODE     ---       rtc_alarm_get_day
      01008643H   PUBLIC    CODE     ---       _rtc_alarm_set_min
      01008347H   PUBLIC    CODE     ---       rtc_alarm_get_min
      01008630H   PUBLIC    CODE     ---       _rtc_alarm_set_hour
      00000020H.0 PUBLIC    BIT      BIT       ?rtc_alarm_set_hour_12?BIT
      01007C3EH   PUBLIC    CODE     ---       rtc_alarm_set_hour_12
      01008331H   PUBLIC    CODE     ---       rtc_alarm_get_hour_12
      0100831BH   PUBLIC    CODE     ---       rtc_alarm_get_hour
      0100868FH   PUBLIC    CODE     ---       _rtc_date_set_day
      01008CC3H   PUBLIC    CODE     ---       rtc_date_get_day
      010040A2H   PUBLIC    CODE     ---       _rtc_date_set_date
      01008C81H   PUBLIC    CODE     ---       rtc_date_get_date
      01008C79H   PUBLIC    CODE     ---       _rtc_date_set_month
      010089EDH   PUBLIC    CODE     ---       rtc_date_get_month
      01008C71H   PUBLIC    CODE     ---       _rtc_date_set_year
      010089E1H   PUBLIC    CODE     ---       rtc_date_get_year
      01008CBDH   PUBLIC    CODE     ---       _rtc_time_set_sec
      01008C69H   PUBLIC    CODE     ---       rtc_time_get_sec
      01008B8CH   PUBLIC    CODE     ---       _rtc_time_set_min
      01008C61H   PUBLIC    CODE     ---       rtc_time_get_min
      01008C59H   PUBLIC    CODE     ---       rtc_time_get_hour_12
      00000020H.1 PUBLIC    BIT      BIT       ?rtc_time_set_hour_12?BIT
      010087EEH   PUBLIC    CODE     ---       rtc_time_set_hour_12
      01008CB7H   PUBLIC    CODE     ---       _rtc_time_set_hour
      01008C51H   PUBLIC    CODE     ---       rtc_time_get_hour
      01005CC7H   PUBLIC    CODE     ---       _rtc_write_data
      01005B64H   PUBLIC    CODE     ---       _rtc_read_data
      01002F61H   PUBLIC    CODE     ---       rtc_initialize
      0100861DH   PUBLIC    CODE     ---       scan_rtc
      00000020H.0 PUBLIC    BIT      BIT       ?rtc_set_lt_timer?BIT
      01000006H   PUBLIC    CODE     ---       rtc_set_lt_timer
      01008D79H   PUBLIC    CODE     ---       rtc_is_lt_timer
      010011B2H   PUBLIC    CODE     ---       rtc_dump
      00000080H   SFRSYM    DATA     BYTE      P0
      00000090H   SFRSYM    DATA     BYTE      P1
      000000A0H   SFRSYM    DATA     BYTE      P2
      000000B0H   SFRSYM    DATA     BYTE      P3
      000000C0H   SFRSYM    DATA     BYTE      XICON
      000000B0H.4 SFRSYM    DATA     BIT       T0
      000000D0H.6 SFRSYM    DATA     BIT       AC
      000000E8H   SFRSYM    DATA     BYTE      P4
      000000B0H.5 SFRSYM    DATA     BIT       T1
      000000E6H   SFRSYM    DATA     BYTE      ISP_TRIG
      00000090H.0 SFRSYM    DATA     BIT       T2
      000000A8H.7 SFRSYM    DATA     BIT       EA
      000000A8H.6 SFRSYM    DATA     BIT       EC
      00000098H.7 SFRSYM    DATA     BIT       FE
      000000A8H   SFRSYM    DATA     BYTE      IE
      000000C8H.6 SFRSYM    DATA     BIT       EXF2
      000000B0H.7 SFRSYM    DATA     BIT       RD
      000000A8H.4 SFRSYM    DATA     BIT       ES
      000000B8H   SFRSYM    DATA     BYTE      IP
      00000098H.0 SFRSYM    DATA     BIT       RI
      000000B0H.2 SFRSYM    DATA     BIT       INT0
      000000D0H.7 SFRSYM    DATA     BIT       CY
LX51 LINKER/LOCATER V4.66.87.0                                                        06/02/2018  22:09:22  PAGE 78


      00000098H.1 SFRSYM    DATA     BIT       TI
      000000B0H.3 SFRSYM    DATA     BIT       INT1
      000000CBH   SFRSYM    DATA     BYTE      RCAP2H
      000000E5H   SFRSYM    DATA     BYTE      ISP_CMD
      000000B8H.4 SFRSYM    DATA     BIT       PS
      00000081H   SFRSYM    DATA     BYTE      SP
      00000090H.1 SFRSYM    DATA     BIT       T2EX
      000000D0H.2 SFRSYM    DATA     BIT       OV
      000000CAH   SFRSYM    DATA     BYTE      RCAP2L
      000000C8H.1 SFRSYM    DATA     BIT       C_T2
      000000B0H.6 SFRSYM    DATA     BIT       WR
      000000C8H.5 SFRSYM    DATA     BIT       RCLK
      000000C8H.4 SFRSYM    DATA     BIT       TCLK
      00000080H.0 SFRSYM    DATA     BIT       P00
      00000099H   SFRSYM    DATA     BYTE      SBUF
      00000087H   SFRSYM    DATA     BYTE      PCON
      00000090H.0 SFRSYM    DATA     BIT       P10
      00000080H.1 SFRSYM    DATA     BIT       P01
      000000A0H.0 SFRSYM    DATA     BIT       P20
      00000090H.1 SFRSYM    DATA     BIT       P11
      00000080H.2 SFRSYM    DATA     BIT       P02
      000000E3H   SFRSYM    DATA     BYTE      ISP_ADDRH
      000000B0H.0 SFRSYM    DATA     BIT       P30
      000000A0H.1 SFRSYM    DATA     BIT       P21
      00000090H.2 SFRSYM    DATA     BIT       P12
      00000080H.3 SFRSYM    DATA     BIT       P03
      00000098H   SFRSYM    DATA     BYTE      SCON
      000000B0H.1 SFRSYM    DATA     BIT       P31
      000000A0H.2 SFRSYM    DATA     BIT       P22
      00000090H.3 SFRSYM    DATA     BIT       P13
      00000080H.4 SFRSYM    DATA     BIT       P04
      000000E8H.0 SFRSYM    DATA     BIT       P40
      00000089H   SFRSYM    DATA     BYTE      TMOD
      00000088H   SFRSYM    DATA     BYTE      TCON
      000000B0H.2 SFRSYM    DATA     BIT       P32
      000000A0H.3 SFRSYM    DATA     BIT       P23
      00000090H.4 SFRSYM    DATA     BIT       P14
      00000080H.5 SFRSYM    DATA     BIT       P05
      000000E8H.1 SFRSYM    DATA     BIT       P41
      000000B0H.3 SFRSYM    DATA     BIT       P33
      000000A0H.4 SFRSYM    DATA     BIT       P24
      00000090H.5 SFRSYM    DATA     BIT       P15
      00000080H.6 SFRSYM    DATA     BIT       P06
      000000E4H   SFRSYM    DATA     BYTE      ISP_ADDRL
      000000E8H.2 SFRSYM    DATA     BIT       P42
      000000B0H.4 SFRSYM    DATA     BIT       P34
      000000A0H.5 SFRSYM    DATA     BIT       P25
      00000090H.6 SFRSYM    DATA     BIT       P16
      00000080H.7 SFRSYM    DATA     BIT       P07
      000000E8H.3 SFRSYM    DATA     BIT       P43
      000000B0H.5 SFRSYM    DATA     BIT       P35
      000000A0H.6 SFRSYM    DATA     BIT       P26
      00000090H.7 SFRSYM    DATA     BIT       P17
      000000E8H.4 SFRSYM    DATA     BIT       P44
      000000B0H.6 SFRSYM    DATA     BIT       P36
      000000A0H.7 SFRSYM    DATA     BIT       P27
      000000E8H.5 SFRSYM    DATA     BIT       P45
      000000B0H.7 SFRSYM    DATA     BIT       P37
      000000E8H.6 SFRSYM    DATA     BIT       P46
      00000088H.1 SFRSYM    DATA     BIT       IE0
      00000088H.3 SFRSYM    DATA     BIT       IE1
      0000008EH   SFRSYM    DATA     BYTE      AUXR
      000000F0H   SFRSYM    DATA     BYTE      B
      000000C8H.0 SFRSYM    DATA     BIT       CP_RL2
      000000E0H   SFRSYM    DATA     BYTE      ACC
LX51 LINKER/LOCATER V4.66.87.0                                                        06/02/2018  22:09:22  PAGE 79


      000000A8H.1 SFRSYM    DATA     BIT       ET0
      000000A8H.3 SFRSYM    DATA     BIT       ET1
      00000088H.5 SFRSYM    DATA     BIT       TF0
      000000A8H.5 SFRSYM    DATA     BIT       ET2
      00000088H.7 SFRSYM    DATA     BIT       TF1
      000000C8H.7 SFRSYM    DATA     BIT       TF2
      00000098H.2 SFRSYM    DATA     BIT       RB8
      0000008CH   SFRSYM    DATA     BYTE      TH0
      000000A8H.0 SFRSYM    DATA     BIT       EX0
      00000088H.0 SFRSYM    DATA     BIT       IT0
      0000008DH   SFRSYM    DATA     BYTE      TH1
      00000098H.3 SFRSYM    DATA     BIT       TB8
      000000A8H.2 SFRSYM    DATA     BIT       EX1
      00000088H.2 SFRSYM    DATA     BIT       IT1
      000000CDH   SFRSYM    DATA     BYTE      TH2
      000000D0H.0 SFRSYM    DATA     BIT       P
      00000098H.7 SFRSYM    DATA     BIT       SM0
      0000008AH   SFRSYM    DATA     BYTE      TL0
      00000098H.6 SFRSYM    DATA     BIT       SM1
      0000008BH   SFRSYM    DATA     BYTE      TL1
      00000098H.5 SFRSYM    DATA     BIT       SM2
      000000CCH   SFRSYM    DATA     BYTE      TL2
      000000B8H.1 SFRSYM    DATA     BIT       PT0
      000000B8H.3 SFRSYM    DATA     BIT       PT1
      000000D0H.3 SFRSYM    DATA     BIT       RS0
      000000E7H   SFRSYM    DATA     BYTE      ISP_CONTR
      000000B8H.5 SFRSYM    DATA     BIT       PT2
      00000088H.4 SFRSYM    DATA     BIT       TR0
      000000D0H.4 SFRSYM    DATA     BIT       RS1
      00000088H.6 SFRSYM    DATA     BIT       TR1
      000000C8H.2 SFRSYM    DATA     BIT       TR2
      000000B8H.0 SFRSYM    DATA     BIT       PX0
      000000E1H   SFRSYM    DATA     BYTE      WDT_CONTR
      000000B8H.2 SFRSYM    DATA     BIT       PX1
      00000083H   SFRSYM    DATA     BYTE      DPH
      00000082H   SFRSYM    DATA     BYTE      DPL
      000000B7H   SFRSYM    DATA     BYTE      IPH
      000000C8H.3 SFRSYM    DATA     BIT       EXEN2
      00000098H.4 SFRSYM    DATA     BIT       REN
      000000C9H   SFRSYM    DATA     BYTE      T2MOD
      000000C8H   SFRSYM    DATA     BYTE      T2CON
      000000E2H   SFRSYM    DATA     BYTE      ISP_DATA
      000000B9H   SFRSYM    DATA     BYTE      SADEN
      000000B0H.0 SFRSYM    DATA     BIT       RXD
      000000A9H   SFRSYM    DATA     BYTE      SADDR
      000000B0H.1 SFRSYM    DATA     BIT       TXD
      000000A2H   SFRSYM    DATA     BYTE      AUXR1
      000000D0H.5 SFRSYM    DATA     BIT       F0
      000000D0H   SFRSYM    DATA     BYTE      PSW
      0100A88BH   SYMBOL    CONST    ---       rtc_alarm_mode_str
      0100A8AFH   SYMBOL    CONST    ---       rtc_square_rate_str
      01008C49H   SYMBOL    CODE     ---       __rtc_get_min_sec
      01006526H   SYMBOL    CODE     ---       rtc_dump_raw
      010072A2H   SYMBOL    CODE     ---       __rtc_set_min_sec
      00000024H.7 SYMBOL    BIT      BIT       is_lt_timer_mode
      01008CA9H   SYMBOL    CODE     ---       __rtc_get_hour_12
      020000C6H   SYMBOL    XDATA    BYTE      last_read
      0100754CH   SYMBOL    CODE     ---       _rtc_set_hour_12
      020000C7H   SYMBOL    XDATA    ---       rtc_data
      0100000EH   SYMBOL    CODE     ---       __rtc_get_date
      010072CEH   SYMBOL    CODE     ---       __rtc_set_date
      01007768H   SYMBOL    CODE     ---       __rtc_get_hour
      0100687EH   SYMBOL    CODE     ---       __rtc_set_hour

      010038CBH   BLOCK     CODE     ---       LVL=0
LX51 LINKER/LOCATER V4.66.87.0                                                        06/02/2018  22:09:22  PAGE 80


      ---         BLOCKEND  ---      ---       LVL=0

      01006526H   BLOCK     CODE     ---       LVL=0
      01006526H   BLOCK     CODE     NEAR LAB  LVL=1
      02000002H   SYMBOL    XDATA    BYTE      addr
      02000003H   SYMBOL    XDATA    BYTE      c
      ---         BLOCKEND  ---      ---       LVL=1
      01006526H   LINE      CODE     ---       #54
      01006526H   LINE      CODE     ---       #55
      01006526H   LINE      CODE     ---       #58
      0100652FH   LINE      CODE     ---       #59
      0100653EH   LINE      CODE     ---       #60
      01006549H   LINE      CODE     ---       #61
      01006562H   LINE      CODE     ---       #62
      0100656AH   LINE      CODE     ---       #63
      ---         BLOCKEND  ---      ---       LVL=0

      010011B2H   BLOCK     CODE     ---       LVL=0
      010011B2H   LINE      CODE     ---       #65
      010011B2H   LINE      CODE     ---       #66
      010011B2H   LINE      CODE     ---       #67
      010011B7H   LINE      CODE     ---       #68
      010011E9H   LINE      CODE     ---       #73
      010011EEH   LINE      CODE     ---       #74
      0100122FH   LINE      CODE     ---       #79
      01001231H   LINE      CODE     ---       #80
      01001238H   LINE      CODE     ---       #81
      01001238H   LINE      CODE     ---       #82
      01001238H   LINE      CODE     ---       #83
      01001238H   LINE      CODE     ---       #84
      01001242H   LINE      CODE     ---       #85
      0100124FH   LINE      CODE     ---       #86
      0100126AH   LINE      CODE     ---       #88
      0100126CH   LINE      CODE     ---       #89
      01001273H   LINE      CODE     ---       #90
      01001273H   LINE      CODE     ---       #91
      01001273H   LINE      CODE     ---       #92
      01001273H   LINE      CODE     ---       #93
      0100127DH   LINE      CODE     ---       #94
      01001298H   LINE      CODE     ---       #96
      0100129DH   LINE      CODE     ---       #97
      010012A6H   LINE      CODE     ---       #98
      010012C3H   LINE      CODE     ---       #99
      010012E0H   LINE      CODE     ---       #100
      010012FDH   LINE      CODE     ---       #101
      0100131AH   LINE      CODE     ---       #102
      0100132DH   LINE      CODE     ---       #103
      01001340H   LINE      CODE     ---       #104
      01001353H   LINE      CODE     ---       #105
      01001360H   LINE      CODE     ---       #106
      01001373H   LINE      CODE     ---       #107
      01001386H   LINE      CODE     ---       #108
      01001399H   LINE      CODE     ---       #109
      010013ACH   LINE      CODE     ---       #110
      ---         BLOCKEND  ---      ---       LVL=0

      01008D79H   BLOCK     CODE     ---       LVL=0
      01008D79H   LINE      CODE     ---       #112
      01008D79H   LINE      CODE     ---       #113
      01008D79H   LINE      CODE     ---       #114
      01008D7BH   LINE      CODE     ---       #115
      ---         BLOCKEND  ---      ---       LVL=0

      01000006H   BLOCK     CODE     ---       LVL=0
      00000020H.0 SYMBOL    BIT      BIT       enable
LX51 LINKER/LOCATER V4.66.87.0                                                        06/02/2018  22:09:22  PAGE 81


      01000006H   LINE      CODE     ---       #117
      01000006H   LINE      CODE     ---       #118
      01000006H   LINE      CODE     ---       #119
      0100000AH   LINE      CODE     ---       #120
      ---         BLOCKEND  ---      ---       LVL=0

      0100861DH   BLOCK     CODE     ---       LVL=0
      0100861DH   LINE      CODE     ---       #122
      0100861DH   LINE      CODE     ---       #123
      0100861DH   LINE      CODE     ---       #124
      01008626H   LINE      CODE     ---       #126
      01008629H   LINE      CODE     ---       #127
      0100862CH   LINE      CODE     ---       #128
      0100862CH   LINE      CODE     ---       #129
      0100862FH   LINE      CODE     ---       #130
      0100862FH   LINE      CODE     ---       #131
      ---         BLOCKEND  ---      ---       LVL=0

      01002F61H   BLOCK     CODE     ---       LVL=0
      01002F61H   BLOCK     CODE     NEAR LAB  LVL=1
      02000000H   SYMBOL    XDATA    BYTE      count
      02000001H   SYMBOL    XDATA    BYTE      is12
      ---         BLOCKEND  ---      ---       LVL=1
      01002F61H   LINE      CODE     ---       #133
      01002F61H   LINE      CODE     ---       #134
      01002F61H   LINE      CODE     ---       #138
      01002F6AH   LINE      CODE     ---       #140
      01002F73H   LINE      CODE     ---       #141
      01002F76H   LINE      CODE     ---       #142
      01002F79H   LINE      CODE     ---       #144
      01002F7BH   LINE      CODE     ---       #146
      01002F87H   LINE      CODE     ---       #149
      01002F91H   LINE      CODE     ---       #151
      01002F94H   LINE      CODE     ---       #152
      01002F99H   LINE      CODE     ---       #155
      01002FA1H   LINE      CODE     ---       #156
      01002FAAH   LINE      CODE     ---       #157
      01002FB2H   LINE      CODE     ---       #160
      01002FB2H   LINE      CODE     ---       #161
      01002FB2H   LINE      CODE     ---       #162
      01002FB5H   LINE      CODE     ---       #165
      01002FBAH   LINE      CODE     ---       #166
      01002FBAH   LINE      CODE     ---       #167
      01002FBAH   LINE      CODE     ---       #168
      01002FBDH   LINE      CODE     ---       #169
      01002FBDH   LINE      CODE     ---       #170
      01002FC2H   LINE      CODE     ---       #173
      01002FC7H   LINE      CODE     ---       #176
      01002FC7H   LINE      CODE     ---       #177
      01002FC7H   LINE      CODE     ---       #178
      01002FCAH   LINE      CODE     ---       #181
      01002FCFH   LINE      CODE     ---       #182
      01002FCFH   LINE      CODE     ---       #183
      01002FCFH   LINE      CODE     ---       #184
      01002FD2H   LINE      CODE     ---       #185
      01002FD2H   LINE      CODE     ---       #187
      01002FF2H   LINE      CODE     ---       #192
      01002FF7H   LINE      CODE     ---       #195
      01002FFCH   LINE      CODE     ---       #196
      01003003H   LINE      CODE     ---       #197
      01003008H   LINE      CODE     ---       #198
      0100300FH   LINE      CODE     ---       #199
      01003014H   LINE      CODE     ---       #201
      01003019H   LINE      CODE     ---       #203
      0100301EH   LINE      CODE     ---       #204
LX51 LINKER/LOCATER V4.66.87.0                                                        06/02/2018  22:09:22  PAGE 82


      01003023H   LINE      CODE     ---       #206
      0100302CH   LINE      CODE     ---       #207
      0100302FH   LINE      CODE     ---       #208
      01003032H   LINE      CODE     ---       #209
      ---         BLOCKEND  ---      ---       LVL=0

      01005B64H   BLOCK     CODE     ---       LVL=0
      00000007H   SYMBOL    DATA     BYTE      type
      01005B64H   BLOCK     CODE     NEAR LAB  LVL=1
      02000017H   SYMBOL    XDATA    BYTE      offset
      ---         BLOCKEND  ---      ---       LVL=1
      01005B64H   LINE      CODE     ---       #212
      01005B64H   LINE      CODE     ---       #213
      01005B64H   LINE      CODE     ---       #215
      01005B78H   LINE      CODE     ---       #216
      01005B78H   LINE      CODE     ---       #217
      01005B7FH   LINE      CODE     ---       #218
      01005B7FH   LINE      CODE     ---       #219
      01005B87H   LINE      CODE     ---       #220
      01005B87H   LINE      CODE     ---       #221
      01005B8FH   LINE      CODE     ---       #222
      01005B8FH   LINE      CODE     ---       #223
      01005B97H   LINE      CODE     ---       #224
      01005B97H   LINE      CODE     ---       #225
      01005B9FH   LINE      CODE     ---       #226
      01005B9FH   LINE      CODE     ---       #227
      01005BA5H   LINE      CODE     ---       #228
      01005BA5H   LINE      CODE     ---       #230
      01005BAAH   LINE      CODE     ---       #232
      ---         BLOCKEND  ---      ---       LVL=0

      01005CC7H   BLOCK     CODE     ---       LVL=0
      00000007H   SYMBOL    DATA     BYTE      type
      01005CC7H   BLOCK     CODE     NEAR LAB  LVL=1
      02000017H   SYMBOL    XDATA    BYTE      offset
      ---         BLOCKEND  ---      ---       LVL=1
      01005CC7H   LINE      CODE     ---       #236
      01005CC7H   LINE      CODE     ---       #237
      01005CC7H   LINE      CODE     ---       #239
      01005CDBH   LINE      CODE     ---       #240
      01005CDBH   LINE      CODE     ---       #241
      01005CE2H   LINE      CODE     ---       #242
      01005CE2H   LINE      CODE     ---       #243
      01005CEAH   LINE      CODE     ---       #244
      01005CEAH   LINE      CODE     ---       #245
      01005CF2H   LINE      CODE     ---       #246
      01005CF2H   LINE      CODE     ---       #247
      01005CFAH   LINE      CODE     ---       #248
      01005CFAH   LINE      CODE     ---       #249
      01005D02H   LINE      CODE     ---       #250
      01005D02H   LINE      CODE     ---       #251
      01005D08H   LINE      CODE     ---       #252
      01005D08H   LINE      CODE     ---       #253
      01005D0BH   LINE      CODE     ---       #254
      ---         BLOCKEND  ---      ---       LVL=0

      01007768H   BLOCK     CODE     ---       LVL=0
      00000007H   SYMBOL    DATA     BYTE      hour
      01007768H   BLOCK     CODE     NEAR LAB  LVL=1
      00000006H   SYMBOL    DATA     BYTE      ret
      ---         BLOCKEND  ---      ---       LVL=1
      01007768H   LINE      CODE     ---       #257
      01007768H   LINE      CODE     ---       #258
      01007768H   LINE      CODE     ---       #260
      0100776CH   LINE      CODE     ---       #261
LX51 LINKER/LOCATER V4.66.87.0                                                        06/02/2018  22:09:22  PAGE 83


      0100777BH   LINE      CODE     ---       #262
      0100777FH   LINE      CODE     ---       #263
      01007783H   LINE      CODE     ---       #264
      01007783H   LINE      CODE     ---       #265
      01007785H   LINE      CODE     ---       #266
      01007789H   LINE      CODE     ---       #267
      01007789H   LINE      CODE     ---       #268
      0100778BH   LINE      CODE     ---       #269
      ---         BLOCKEND  ---      ---       LVL=0

      0100687EH   BLOCK     CODE     ---       LVL=0
      00000007H   SYMBOL    DATA     BYTE      hour
      0200001AH   SYMBOL    XDATA    ---       dat
      0100687EH   LINE      CODE     ---       #272
      01006884H   LINE      CODE     ---       #273
      01006884H   LINE      CODE     ---       #274
      0100688BH   LINE      CODE     ---       #275
      01006891H   LINE      CODE     ---       #276
      01006897H   LINE      CODE     ---       #277
      0100689BH   LINE      CODE     ---       #278
      0100689DH   LINE      CODE     ---       #279
      010068A5H   LINE      CODE     ---       #280
      010068A5H   LINE      CODE     ---       #281
      010068A5H   LINE      CODE     ---       #282
      010068A5H   LINE      CODE     ---       #283
      010068AAH   LINE      CODE     ---       #284
      010068AAH   LINE      CODE     ---       #285
      010068ACH   LINE      CODE     ---       #287
      010068ACH   LINE      CODE     ---       #288
      010068ACH   LINE      CODE     ---       #289
      010068B1H   LINE      CODE     ---       #290
      010068BBH   LINE      CODE     ---       #291
      010068BBH   LINE      CODE     ---       #292
      ---         BLOCKEND  ---      ---       LVL=0

      0100754CH   BLOCK     CODE     ---       LVL=0
      00000020H.2 SYMBOL    BIT      BIT       enable
      02000017H   SYMBOL    XDATA    ---       dat
      0100754CH   BLOCK     CODE     NEAR LAB  LVL=1
      00000007H   SYMBOL    DATA     BYTE      hour
      ---         BLOCKEND  ---      ---       LVL=1
      0100754CH   LINE      CODE     ---       #294
      0100754CH   LINE      CODE     ---       #295
      0100754CH   LINE      CODE     ---       #297
      01007556H   LINE      CODE     ---       #298
      0100755CH   LINE      CODE     ---       #299
      01007561H   LINE      CODE     ---       #300
      01007563H   LINE      CODE     ---       #301
      0100756BH   LINE      CODE     ---       #302
      0100756BH   LINE      CODE     ---       #303
      ---         BLOCKEND  ---      ---       LVL=0

      01008CA9H   BLOCK     CODE     ---       LVL=0
      00000007H   SYMBOL    DATA     BYTE      hour
      01008CA9H   LINE      CODE     ---       #306
      01008CA9H   LINE      CODE     ---       #307
      01008CA9H   LINE      CODE     ---       #308
      01008CAFH   LINE      CODE     ---       #309
      ---         BLOCKEND  ---      ---       LVL=0

      01008C49H   BLOCK     CODE     ---       LVL=0
      00000007H   SYMBOL    DATA     BYTE      min
      01008C49H   LINE      CODE     ---       #311
      01008C49H   LINE      CODE     ---       #312
      01008C49H   LINE      CODE     ---       #313
LX51 LINKER/LOCATER V4.66.87.0                                                        06/02/2018  22:09:22  PAGE 84


      01008C50H   LINE      CODE     ---       #314
      ---         BLOCKEND  ---      ---       LVL=0

      010072A2H   BLOCK     CODE     ---       LVL=0
      00000007H   SYMBOL    DATA     BYTE      min
      02000017H   SYMBOL    XDATA    ---       dat
      010072A2H   LINE      CODE     ---       #316
      010072A8H   LINE      CODE     ---       #317
      010072A8H   LINE      CODE     ---       #318
      010072B0H   LINE      CODE     ---       #319
      010072B9H   LINE      CODE     ---       #320
      010072C1H   LINE      CODE     ---       #321
      ---         BLOCKEND  ---      ---       LVL=0

      01008C51H   BLOCK     CODE     ---       LVL=0
      01008C51H   LINE      CODE     ---       #326
      01008C51H   LINE      CODE     ---       #327
      01008C51H   LINE      CODE     ---       #328
      ---         BLOCKEND  ---      ---       LVL=0

      01008CB7H   BLOCK     CODE     ---       LVL=0
      00000007H   SYMBOL    DATA     BYTE      hour
      01008CB7H   LINE      CODE     ---       #333
      01008CB7H   LINE      CODE     ---       #334
      01008CB7H   LINE      CODE     ---       #335
      ---         BLOCKEND  ---      ---       LVL=0

      010087EEH   BLOCK     CODE     ---       LVL=0
      00000020H.1 SYMBOL    BIT      BIT       enable
      010087EEH   LINE      CODE     ---       #338
      010087EEH   LINE      CODE     ---       #339
      010087EEH   LINE      CODE     ---       #340
      ---         BLOCKEND  ---      ---       LVL=0

      01008C59H   BLOCK     CODE     ---       LVL=0
      01008C59H   LINE      CODE     ---       #343
      01008C59H   LINE      CODE     ---       #344
      01008C59H   LINE      CODE     ---       #345
      ---         BLOCKEND  ---      ---       LVL=0

      01008C61H   BLOCK     CODE     ---       LVL=0
      01008C61H   LINE      CODE     ---       #348
      01008C61H   LINE      CODE     ---       #349
      01008C61H   LINE      CODE     ---       #350
      ---         BLOCKEND  ---      ---       LVL=0

      01008B8CH   BLOCK     CODE     ---       LVL=0
      00000007H   SYMBOL    DATA     BYTE      min
      01008B8CH   LINE      CODE     ---       #353
      01008B8CH   LINE      CODE     ---       #354
      01008B8CH   LINE      CODE     ---       #355
      ---         BLOCKEND  ---      ---       LVL=0

      01008C69H   BLOCK     CODE     ---       LVL=0
      01008C69H   LINE      CODE     ---       #358
      01008C69H   LINE      CODE     ---       #359
      01008C69H   LINE      CODE     ---       #360
      ---         BLOCKEND  ---      ---       LVL=0

      01008CBDH   BLOCK     CODE     ---       LVL=0
      00000007H   SYMBOL    DATA     BYTE      sec
      01008CBDH   LINE      CODE     ---       #363
      01008CBDH   LINE      CODE     ---       #364
      01008CBDH   LINE      CODE     ---       #365
      ---         BLOCKEND  ---      ---       LVL=0
LX51 LINKER/LOCATER V4.66.87.0                                                        06/02/2018  22:09:22  PAGE 85



      010089E1H   BLOCK     CODE     ---       LVL=0
      010089E1H   LINE      CODE     ---       #369
      010089E1H   LINE      CODE     ---       #370
      010089E1H   LINE      CODE     ---       #371
      010089ECH   LINE      CODE     ---       #372
      ---         BLOCKEND  ---      ---       LVL=0

      01008C71H   BLOCK     CODE     ---       LVL=0
      00000007H   SYMBOL    DATA     BYTE      year
      01008C71H   LINE      CODE     ---       #374
      01008C71H   LINE      CODE     ---       #375
      01008C71H   LINE      CODE     ---       #376
      01008C74H   LINE      CODE     ---       #377
      01008C74H   LINE      CODE     ---       #378
      01008C74H   LINE      CODE     ---       #379
      01008C78H   LINE      CODE     ---       #380
      ---         BLOCKEND  ---      ---       LVL=0

      010089EDH   BLOCK     CODE     ---       LVL=0
      010089EDH   LINE      CODE     ---       #382
      010089EDH   LINE      CODE     ---       #383
      010089EDH   LINE      CODE     ---       #384
      010089F8H   LINE      CODE     ---       #385
      ---         BLOCKEND  ---      ---       LVL=0

      01008C79H   BLOCK     CODE     ---       LVL=0
      00000007H   SYMBOL    DATA     BYTE      month
      01008C79H   LINE      CODE     ---       #387
      01008C79H   LINE      CODE     ---       #388
      01008C79H   LINE      CODE     ---       #389
      01008C7CH   LINE      CODE     ---       #390
      01008C7CH   LINE      CODE     ---       #391
      01008C7CH   LINE      CODE     ---       #392
      01008C80H   LINE      CODE     ---       #393
      ---         BLOCKEND  ---      ---       LVL=0

      0100000EH   BLOCK     CODE     ---       LVL=0
      00000007H   SYMBOL    DATA     BYTE      date
      0100000EH   LINE      CODE     ---       #395
      0100000EH   LINE      CODE     ---       #396
      0100000EH   LINE      CODE     ---       #397
      01000012H   LINE      CODE     ---       #398
      ---         BLOCKEND  ---      ---       LVL=0

      010072CEH   BLOCK     CODE     ---       LVL=0
      00000007H   SYMBOL    DATA     BYTE      date
      02000019H   SYMBOL    XDATA    ---       dat
      010072CEH   LINE      CODE     ---       #400
      010072D4H   LINE      CODE     ---       #401
      010072D4H   LINE      CODE     ---       #402
      010072DCH   LINE      CODE     ---       #403
      010072E5H   LINE      CODE     ---       #404
      010072EDH   LINE      CODE     ---       #405
      ---         BLOCKEND  ---      ---       LVL=0

      01008C81H   BLOCK     CODE     ---       LVL=0
      01008C81H   LINE      CODE     ---       #408
      01008C81H   LINE      CODE     ---       #409
      01008C81H   LINE      CODE     ---       #410
      ---         BLOCKEND  ---      ---       LVL=0

      010040A2H   BLOCK     CODE     ---       LVL=0
      02000017H   SYMBOL    XDATA    BYTE      date
      010040A7H   BLOCK     CODE     NEAR LAB  LVL=1
LX51 LINKER/LOCATER V4.66.87.0                                                        06/02/2018  22:09:22  PAGE 86


      02000018H   SYMBOL    XDATA    CHAR      mon
      ---         BLOCKEND  ---      ---       LVL=1
      010040A2H   LINE      CODE     ---       #414
      010040A7H   LINE      CODE     ---       #415
      010040A7H   LINE      CODE     ---       #416
      010040AFH   LINE      CODE     ---       #418
      010040B8H   LINE      CODE     ---       #419
      010040DEH   LINE      CODE     ---       #420
      010040DEH   LINE      CODE     ---       #421
      010040E9H   LINE      CODE     ---       #422
      010040E9H   LINE      CODE     ---       #423
      010040F4H   LINE      CODE     ---       #424
      01004103H   LINE      CODE     ---       #425
      0100410DH   LINE      CODE     ---       #426
      0100411CH   LINE      CODE     ---       #427
      01004127H   LINE      CODE     ---       #428
      01004127H   LINE      CODE     ---       #429
      01004127H   LINE      CODE     ---       #431
      01004130H   LINE      CODE     ---       #432
      0100413EH   LINE      CODE     ---       #434
      0100413FH   LINE      CODE     ---       #435
      ---         BLOCKEND  ---      ---       LVL=0

      01008CC3H   BLOCK     CODE     ---       LVL=0
      01008CC3H   LINE      CODE     ---       #437
      01008CC3H   LINE      CODE     ---       #438
      01008CC3H   LINE      CODE     ---       #439
      01008CC8H   LINE      CODE     ---       #440
      ---         BLOCKEND  ---      ---       LVL=0

      0100868FH   BLOCK     CODE     ---       LVL=0
      00000007H   SYMBOL    DATA     BYTE      day
      0100868FH   LINE      CODE     ---       #442
      0100868FH   LINE      CODE     ---       #443
      0100868FH   LINE      CODE     ---       #444
      0100869BH   LINE      CODE     ---       #445
      010086A0H   LINE      CODE     ---       #446
      010086A0H   LINE      CODE     ---       #447
      ---         BLOCKEND  ---      ---       LVL=0

      0100831BH   BLOCK     CODE     ---       LVL=0
      0100831BH   LINE      CODE     ---       #450
      0100831BH   LINE      CODE     ---       #451
      0100831BH   LINE      CODE     ---       #452
      ---         BLOCKEND  ---      ---       LVL=0

      01008331H   BLOCK     CODE     ---       LVL=0
      01008331H   LINE      CODE     ---       #455
      01008331H   LINE      CODE     ---       #456
      01008331H   LINE      CODE     ---       #457
      ---         BLOCKEND  ---      ---       LVL=0

      01007C3EH   BLOCK     CODE     ---       LVL=0
      00000020H.0 SYMBOL    BIT      BIT       enable
      01007C3EH   LINE      CODE     ---       #460
      01007C3EH   LINE      CODE     ---       #461
      01007C3EH   LINE      CODE     ---       #462
      ---         BLOCKEND  ---      ---       LVL=0

      01008630H   BLOCK     CODE     ---       LVL=0
      00000007H   SYMBOL    DATA     BYTE      hour
      01008630H   LINE      CODE     ---       #465
      01008630H   LINE      CODE     ---       #466
      01008630H   LINE      CODE     ---       #467
      ---         BLOCKEND  ---      ---       LVL=0
LX51 LINKER/LOCATER V4.66.87.0                                                        06/02/2018  22:09:22  PAGE 87



      01008347H   BLOCK     CODE     ---       LVL=0
      01008347H   LINE      CODE     ---       #470
      01008347H   LINE      CODE     ---       #471
      01008347H   LINE      CODE     ---       #472
      ---         BLOCKEND  ---      ---       LVL=0

      01008643H   BLOCK     CODE     ---       LVL=0
      00000007H   SYMBOL    DATA     BYTE      min
      01008643H   LINE      CODE     ---       #475
      01008643H   LINE      CODE     ---       #476
      01008643H   LINE      CODE     ---       #477
      ---         BLOCKEND  ---      ---       LVL=0

      010084CAH   BLOCK     CODE     ---       LVL=0
      010084CAH   LINE      CODE     ---       #480
      010084CAH   LINE      CODE     ---       #481
      010084CAH   LINE      CODE     ---       #482
      010084DDH   LINE      CODE     ---       #483
      ---         BLOCKEND  ---      ---       LVL=0

      0100835DH   BLOCK     CODE     ---       LVL=0
      00000007H   SYMBOL    DATA     BYTE      day
      0100835DH   LINE      CODE     ---       #485
      0100835DH   LINE      CODE     ---       #486
      0100835DH   LINE      CODE     ---       #487
      01008364H   LINE      CODE     ---       #488
      01008367H   LINE      CODE     ---       #489
      01008367H   LINE      CODE     ---       #490
      01008369H   LINE      CODE     ---       #491
      01008370H   LINE      CODE     ---       #492
      01008372H   LINE      CODE     ---       #493
      01008372H   LINE      CODE     ---       #494
      ---         BLOCKEND  ---      ---       LVL=0

      01008423H   BLOCK     CODE     ---       LVL=0
      01008423H   LINE      CODE     ---       #496
      01008423H   LINE      CODE     ---       #497
      01008423H   LINE      CODE     ---       #498
      01008437H   LINE      CODE     ---       #500
      ---         BLOCKEND  ---      ---       LVL=0

      01007FF7H   BLOCK     CODE     ---       LVL=0
      00000006H   SYMBOL    DATA     BYTE      date
      01007FF7H   LINE      CODE     ---       #502
      01007FF9H   LINE      CODE     ---       #503
      01007FF9H   LINE      CODE     ---       #504
      01008010H   LINE      CODE     ---       #506
      ---         BLOCKEND  ---      ---       LVL=0

      010084DEH   BLOCK     CODE     ---       LVL=0
      010084DEH   LINE      CODE     ---       #508
      010084DEH   LINE      CODE     ---       #509
      010084DEH   LINE      CODE     ---       #510
      010084E5H   LINE      CODE     ---       #511
      010084EFH   LINE      CODE     ---       #512
      010084EFH   LINE      CODE     ---       #513
      010084F1H   LINE      CODE     ---       #514
      ---         BLOCKEND  ---      ---       LVL=0

      01008373H   BLOCK     CODE     ---       LVL=0
      00000007H   SYMBOL    DATA     BYTE      sec
      01008373H   LINE      CODE     ---       #517
      01008373H   LINE      CODE     ---       #518
      01008373H   LINE      CODE     ---       #519
LX51 LINKER/LOCATER V4.66.87.0                                                        06/02/2018  22:09:22  PAGE 88


      01008378H   LINE      CODE     ---       #520
      0100837EH   LINE      CODE     ---       #521
      01008382H   LINE      CODE     ---       #522
      01008384H   LINE      CODE     ---       #523
      01008388H   LINE      CODE     ---       #524
      01008388H   LINE      CODE     ---       #525
      ---         BLOCKEND  ---      ---       LVL=0

      01003671H   BLOCK     CODE     ---       LVL=0
      01003671H   BLOCK     CODE     NEAR LAB  LVL=1
      00000003H   SYMBOL    DATA     BYTE      dy
      00000007H   SYMBOL    DATA     BYTE      a1m1
      00000004H   SYMBOL    DATA     BYTE      a1m2
      00000005H   SYMBOL    DATA     BYTE      a1m3
      00000006H   SYMBOL    DATA     BYTE      a1m4
      ---         BLOCKEND  ---      ---       LVL=1
      01003671H   LINE      CODE     ---       #541
      01003671H   LINE      CODE     ---       #542
      01003671H   LINE      CODE     ---       #544
      01003676H   LINE      CODE     ---       #545
      0100367BH   LINE      CODE     ---       #546
      0100367FH   LINE      CODE     ---       #547
      01003684H   LINE      CODE     ---       #548
      01003689H   LINE      CODE     ---       #549
      0100368DH   LINE      CODE     ---       #550
      01003699H   LINE      CODE     ---       #551
      0100369CH   LINE      CODE     ---       #552
      010036A8H   LINE      CODE     ---       #553
      010036ABH   LINE      CODE     ---       #554
      010036B7H   LINE      CODE     ---       #555
      010036BAH   LINE      CODE     ---       #556
      010036C6H   LINE      CODE     ---       #557
      010036C9H   LINE      CODE     ---       #558
      010036D8H   LINE      CODE     ---       #559
      010036DBH   LINE      CODE     ---       #560
      010036DBH   LINE      CODE     ---       #561
      010036DEH   LINE      CODE     ---       #562
      010036DEH   LINE      CODE     ---       #563
      010036E6H   LINE      CODE     ---       #564
      010036EBH   LINE      CODE     ---       #565
      010036EFH   LINE      CODE     ---       #566
      010036F4H   LINE      CODE     ---       #567
      010036F8H   LINE      CODE     ---       #568
      01003701H   LINE      CODE     ---       #569
      01003704H   LINE      CODE     ---       #570
      0100370DH   LINE      CODE     ---       #571
      01003710H   LINE      CODE     ---       #572
      01003719H   LINE      CODE     ---       #573
      0100371CH   LINE      CODE     ---       #574
      01003725H   LINE      CODE     ---       #575
      01003728H   LINE      CODE     ---       #576
      01003734H   LINE      CODE     ---       #577
      01003737H   LINE      CODE     ---       #578
      01003737H   LINE      CODE     ---       #579
      0100373AH   LINE      CODE     ---       #580
      0100373AH   LINE      CODE     ---       #581
      0100373AH   LINE      CODE     ---       #582
      0100373CH   LINE      CODE     ---       #583
      ---         BLOCKEND  ---      ---       LVL=0

      01004795H   BLOCK     CODE     ---       LVL=0
      00000005H   SYMBOL    DATA     BYTE      mode
      01004795H   LINE      CODE     ---       #584
      01004797H   LINE      CODE     ---       #585
      01004797H   LINE      CODE     ---       #586
LX51 LINKER/LOCATER V4.66.87.0                                                        06/02/2018  22:09:22  PAGE 89


      010047A2H   LINE      CODE     ---       #587
      010047A2H   LINE      CODE     ---       #588
      010047A2H   LINE      CODE     ---       #589
      010047A5H   LINE      CODE     ---       #590
      010047AAH   LINE      CODE     ---       #591
      010047ADH   LINE      CODE     ---       #592
      010047BFH   LINE      CODE     ---       #593
      010047BFH   LINE      CODE     ---       #594
      010047C6H   LINE      CODE     ---       #595
      010047C6H   LINE      CODE     ---       #596
      010047CDH   LINE      CODE     ---       #597
      010047CDH   LINE      CODE     ---       #598
      010047D4H   LINE      CODE     ---       #599
      010047D4H   LINE      CODE     ---       #600
      010047D7H   LINE      CODE     ---       #601
      010047D7H   LINE      CODE     ---       #602
      010047D9H   LINE      CODE     ---       #603
      010047D9H   LINE      CODE     ---       #604
      010047DCH   LINE      CODE     ---       #605
      010047DCH   LINE      CODE     ---       #606
      010047ECH   LINE      CODE     ---       #607
      010047ECH   LINE      CODE     ---       #608
      010047ECH   LINE      CODE     ---       #609
      010047EFH   LINE      CODE     ---       #610
      010047F2H   LINE      CODE     ---       #611
      01004802H   LINE      CODE     ---       #612
      01004802H   LINE      CODE     ---       #613
      01004809H   LINE      CODE     ---       #614
      01004809H   LINE      CODE     ---       #615
      01004810H   LINE      CODE     ---       #616
      01004810H   LINE      CODE     ---       #617
      01004817H   LINE      CODE     ---       #618
      01004817H   LINE      CODE     ---       #619
      01004818H   LINE      CODE     ---       #620
      01004818H   LINE      CODE     ---       #621
      0100481FH   LINE      CODE     ---       #622
      0100481FH   LINE      CODE     ---       #623
      0100481FH   LINE      CODE     ---       #624
      ---         BLOCKEND  ---      ---       LVL=0

      010084F2H   BLOCK     CODE     ---       LVL=0
      010084F2H   LINE      CODE     ---       #626
      010084F2H   LINE      CODE     ---       #627
      010084F2H   LINE      CODE     ---       #628
      ---         BLOCKEND  ---      ---       LVL=0

      01004313H   BLOCK     CODE     ---       LVL=0
      02000014H   SYMBOL    XDATA    ---       integer
      02000017H   SYMBOL    XDATA    ---       flt
      01004319H   BLOCK     CODE     NEAR LAB  LVL=1
      0200001AH   SYMBOL    XDATA    FLOAT     ret
      00000020H.1 SYMBOL    BIT      BIT       sign
      ---         BLOCKEND  ---      ---       LVL=1
      01004313H   LINE      CODE     ---       #632
      01004319H   LINE      CODE     ---       #633
      01004319H   LINE      CODE     ---       #634
      01004323H   LINE      CODE     ---       #635
      0100432FH   LINE      CODE     ---       #638
      01004332H   LINE      CODE     ---       #639
      01004338H   LINE      CODE     ---       #640
      01004339H   LINE      CODE     ---       #641
      0100433CH   LINE      CODE     ---       #642
      0100433FH   LINE      CODE     ---       #643
      01004342H   LINE      CODE     ---       #644
      01004344H   LINE      CODE     ---       #645
LX51 LINKER/LOCATER V4.66.87.0                                                        06/02/2018  22:09:22  PAGE 90


      0100434AH   LINE      CODE     ---       #646
      0100434AH   LINE      CODE     ---       #647
      0100434CH   LINE      CODE     ---       #648
      0100434FH   LINE      CODE     ---       #649
      01004352H   LINE      CODE     ---       #650
      01004352H   LINE      CODE     ---       #652
      01004361H   LINE      CODE     ---       #654
      0100436BH   LINE      CODE     ---       #655
      01004373H   LINE      CODE     ---       #656
      01004378H   LINE      CODE     ---       #657
      01004380H   LINE      CODE     ---       #658
      01004388H   LINE      CODE     ---       #659
      0100438DH   LINE      CODE     ---       #660
      0100438FH   LINE      CODE     ---       #661
      01004396H   LINE      CODE     ---       #662
      01004396H   LINE      CODE     ---       #664
      010043A6H   LINE      CODE     ---       #666
      010043A8H   LINE      CODE     ---       #667
      ---         BLOCKEND  ---      ---       LVL=0

      01007743H   BLOCK     CODE     ---       LVL=0
      00000007H   SYMBOL    DATA     BYTE      index
      00000020H.1 SYMBOL    BIT      BIT       enable
      01007743H   LINE      CODE     ---       #670
      01007743H   LINE      CODE     ---       #671
      01007743H   LINE      CODE     ---       #672
      01007746H   LINE      CODE     ---       #673
      0100774DH   LINE      CODE     ---       #674
      01007751H   LINE      CODE     ---       #676
      01007754H   LINE      CODE     ---       #677
      01007759H   LINE      CODE     ---       #678
      01007760H   LINE      CODE     ---       #679
      01007764H   LINE      CODE     ---       #681
      01007767H   LINE      CODE     ---       #682
      01007767H   LINE      CODE     ---       #683
      ---         BLOCKEND  ---      ---       LVL=0

      01007C5BH   BLOCK     CODE     ---       LVL=0
      00000007H   SYMBOL    DATA     BYTE      index
      01007C5BH   LINE      CODE     ---       #685
      01007C5BH   LINE      CODE     ---       #686
      01007C5BH   LINE      CODE     ---       #687
      01007C5EH   LINE      CODE     ---       #688
      01007C68H   LINE      CODE     ---       #689
      01007C6CH   LINE      CODE     ---       #690
      01007C76H   LINE      CODE     ---       #691
      01007C76H   LINE      CODE     ---       #692
      01007C77H   LINE      CODE     ---       #693
      ---         BLOCKEND  ---      ---       LVL=0

      0100824CH   BLOCK     CODE     ---       LVL=0
      00000007H   SYMBOL    DATA     BYTE      index
      0100824CH   LINE      CODE     ---       #695
      0100824CH   LINE      CODE     ---       #696
      0100824CH   LINE      CODE     ---       #697
      0100824FH   LINE      CODE     ---       #698
      01008256H   LINE      CODE     ---       #699
      0100825BH   LINE      CODE     ---       #700
      01008262H   LINE      CODE     ---       #701
      01008262H   LINE      CODE     ---       #702
      ---         BLOCKEND  ---      ---       LVL=0

      01007C78H   BLOCK     CODE     ---       LVL=0
      00000007H   SYMBOL    DATA     BYTE      index
      01007C78H   LINE      CODE     ---       #704
LX51 LINKER/LOCATER V4.66.87.0                                                        06/02/2018  22:09:22  PAGE 91


      01007C78H   LINE      CODE     ---       #705
      01007C78H   LINE      CODE     ---       #706
      01007C7BH   LINE      CODE     ---       #707
      01007C85H   LINE      CODE     ---       #708
      01007C89H   LINE      CODE     ---       #709
      01007C93H   LINE      CODE     ---       #710
      01007C93H   LINE      CODE     ---       #711
      01007C94H   LINE      CODE     ---       #712
      ---         BLOCKEND  ---      ---       LVL=0

      01008B00H   BLOCK     CODE     ---       LVL=0
      01008B00H   LINE      CODE     ---       #714
      01008B00H   LINE      CODE     ---       #715
      01008B00H   LINE      CODE     ---       #716
      01008B09H   LINE      CODE     ---       #717
      ---         BLOCKEND  ---      ---       LVL=0

      0100883EH   BLOCK     CODE     ---       LVL=0
      00000024H.3 SYMBOL    BIT      BIT       val
      0100883EH   LINE      CODE     ---       #719
      0100883EH   LINE      CODE     ---       #720
      0100883EH   LINE      CODE     ---       #721
      01008845H   LINE      CODE     ---       #722
      01008848H   LINE      CODE     ---       #723
      0100884CH   LINE      CODE     ---       #724
      ---         BLOCKEND  ---      ---       LVL=0

      01008B0AH   BLOCK     CODE     ---       LVL=0
      01008B0AH   LINE      CODE     ---       #726
      01008B0AH   LINE      CODE     ---       #727
      01008B0AH   LINE      CODE     ---       #728
      01008B13H   LINE      CODE     ---       #729
      ---         BLOCKEND  ---      ---       LVL=0

      0100884DH   BLOCK     CODE     ---       LVL=0
      00000024H.4 SYMBOL    BIT      BIT       val
      0100884DH   LINE      CODE     ---       #731
      0100884DH   LINE      CODE     ---       #732
      0100884DH   LINE      CODE     ---       #733
      01008854H   LINE      CODE     ---       #734
      01008857H   LINE      CODE     ---       #735
      0100885BH   LINE      CODE     ---       #736
      ---         BLOCKEND  ---      ---       LVL=0

      01008B14H   BLOCK     CODE     ---       LVL=0
      01008B14H   LINE      CODE     ---       #738
      01008B14H   LINE      CODE     ---       #739
      01008B14H   LINE      CODE     ---       #740
      01008B1DH   LINE      CODE     ---       #741
      ---         BLOCKEND  ---      ---       LVL=0

      0100885CH   BLOCK     CODE     ---       LVL=0
      00000024H.5 SYMBOL    BIT      BIT       val
      0100885CH   LINE      CODE     ---       #743
      0100885CH   LINE      CODE     ---       #744
      0100885CH   LINE      CODE     ---       #745
      01008863H   LINE      CODE     ---       #746
      01008866H   LINE      CODE     ---       #747
      0100886AH   LINE      CODE     ---       #748
      ---         BLOCKEND  ---      ---       LVL=0

      010089C7H   BLOCK     CODE     ---       LVL=0
      010089C7H   LINE      CODE     ---       #750
      010089C7H   LINE      CODE     ---       #751
      010089C7H   LINE      CODE     ---       #752
LX51 LINKER/LOCATER V4.66.87.0                                                        06/02/2018  22:09:22  PAGE 92


      010089D3H   LINE      CODE     ---       #753
      ---         BLOCKEND  ---      ---       LVL=0

      01008778H   BLOCK     CODE     ---       LVL=0
      00000007H   SYMBOL    DATA     BYTE      rt
      01008778H   BLOCK     CODE     NEAR LAB  LVL=1
      00000007H   SYMBOL    DATA     BYTE      val
      ---         BLOCKEND  ---      ---       LVL=1
      01008778H   LINE      CODE     ---       #755
      01008778H   LINE      CODE     ---       #756
      01008778H   LINE      CODE     ---       #757
      01008778H   LINE      CODE     ---       #758
      01008780H   LINE      CODE     ---       #759
      01008788H   LINE      CODE     ---       #760
      ---         BLOCKEND  ---      ---       LVL=0

      01008506H   BLOCK     CODE     ---       LVL=0
      01008506H   LINE      CODE     ---       #762
      01008506H   LINE      CODE     ---       #763
      01008506H   LINE      CODE     ---       #764
      ---         BLOCKEND  ---      ---       LVL=0

      01008B1EH   BLOCK     CODE     ---       LVL=0
      01008B1EH   LINE      CODE     ---       #767
      01008B1EH   LINE      CODE     ---       #768
      01008B1EH   LINE      CODE     ---       #769
      01008B27H   LINE      CODE     ---       #770
      ---         BLOCKEND  ---      ---       LVL=0

      0100886BH   BLOCK     CODE     ---       LVL=0
      00000020H.0 SYMBOL    BIT      BIT       val
      0100886BH   LINE      CODE     ---       #772
      0100886BH   LINE      CODE     ---       #773
      0100886BH   LINE      CODE     ---       #774
      01008872H   LINE      CODE     ---       #775
      01008875H   LINE      CODE     ---       #776
      01008879H   LINE      CODE     ---       #777
      ---         BLOCKEND  ---      ---       LVL=0

      01008B28H   BLOCK     CODE     ---       LVL=0
      01008B28H   LINE      CODE     ---       #779
      01008B28H   LINE      CODE     ---       #780
      01008B28H   LINE      CODE     ---       #781
      01008B31H   LINE      CODE     ---       #782
      ---         BLOCKEND  ---      ---       LVL=0

      0100887AH   BLOCK     CODE     ---       LVL=0
      00000024H.6 SYMBOL    BIT      BIT       val
      0100887AH   LINE      CODE     ---       #784
      0100887AH   LINE      CODE     ---       #785
      0100887AH   LINE      CODE     ---       #786
      01008881H   LINE      CODE     ---       #787
      01008884H   LINE      CODE     ---       #788
      01008888H   LINE      CODE     ---       #789
      ---         BLOCKEND  ---      ---       LVL=0

      01008B32H   BLOCK     CODE     ---       LVL=0
      01008B32H   LINE      CODE     ---       #791
      01008B32H   LINE      CODE     ---       #792
      01008B32H   LINE      CODE     ---       #793
      01008B3BH   LINE      CODE     ---       #794
      ---         BLOCKEND  ---      ---       LVL=0

      01008889H   BLOCK     CODE     ---       LVL=0
      00000020H.0 SYMBOL    BIT      BIT       val
LX51 LINKER/LOCATER V4.66.87.0                                                        06/02/2018  22:09:22  PAGE 93


      01008889H   LINE      CODE     ---       #796
      01008889H   LINE      CODE     ---       #797
      01008889H   LINE      CODE     ---       #798
      01008890H   LINE      CODE     ---       #799
      01008893H   LINE      CODE     ---       #800
      01008897H   LINE      CODE     ---       #801
      ---         BLOCKEND  ---      ---       LVL=0

      01008B3CH   BLOCK     CODE     ---       LVL=0
      01008B3CH   LINE      CODE     ---       #803
      01008B3CH   LINE      CODE     ---       #804
      01008B3CH   LINE      CODE     ---       #805
      01008B45H   LINE      CODE     ---       #806
      ---         BLOCKEND  ---      ---       LVL=0

      0100815DH   BLOCK     CODE     ---       LVL=0
      0100815DH   LINE      CODE     ---       #808
      0100815DH   LINE      CODE     ---       #809
      0100815DH   LINE      CODE     ---       #811
      01008166H   LINE      CODE     ---       #813
      0100816BH   LINE      CODE     ---       #814
      01008170H   LINE      CODE     ---       #815
      ---         BLOCKEND  ---      ---       LVL=0

      01008175H   BLOCK     CODE     ---       LVL=0
      01008175H   LINE      CODE     ---       #819
      01008175H   LINE      CODE     ---       #820
      01008175H   LINE      CODE     ---       #821
      0100817EH   LINE      CODE     ---       #823
      01008183H   LINE      CODE     ---       #824
      01008188H   LINE      CODE     ---       #825
      ---         BLOCKEND  ---      ---       LVL=0

      ---         MODULE    ---      ---       I2C
      01008263H   PUBLIC    CODE     ---       _I2C_Get
      02000020H   PUBLIC    XDATA    BYTE      ?_I2C_Gets?BYTE
      010051CCH   PUBLIC    CODE     ---       _I2C_Gets
      0100851AH   PUBLIC    CODE     ---       _I2C_Put
      0200001EH   PUBLIC    XDATA    BYTE      ?_I2C_Puts?BYTE
      01005E22H   PUBLIC    CODE     ---       _I2C_Puts
      00000020H.2 PUBLIC    BIT      BIT       ?I2C_PutAck?BIT
      010086A1H   PUBLIC    CODE     ---       I2C_PutAck
      01007937H   PUBLIC    CODE     ---       I2C_GetAck
      01007104H   PUBLIC    CODE     ---       I2C_Read
      01007B87H   PUBLIC    CODE     ---       _I2C_Write
      01008389H   PUBLIC    CODE     ---       I2C_Stop
      01008A7CH   PUBLIC    CODE     ---       I2C_Start
      01008B46H   PUBLIC    CODE     ---       I2C_Init
      01008791H   PUBLIC    CODE     ---       I2C_Delay
      00000080H   SFRSYM    DATA     BYTE      P0
      00000090H   SFRSYM    DATA     BYTE      P1
      00000090H.7 SFRSYM    DATA     BIT       I2C_SCL
      000000A0H   SFRSYM    DATA     BYTE      P2
      000000B0H   SFRSYM    DATA     BYTE      P3
      000000C0H   SFRSYM    DATA     BYTE      XICON
      000000B0H.4 SFRSYM    DATA     BIT       T0
      000000D0H.6 SFRSYM    DATA     BIT       AC
      000000E8H   SFRSYM    DATA     BYTE      P4
      000000B0H.5 SFRSYM    DATA     BIT       T1
      000000E6H   SFRSYM    DATA     BYTE      ISP_TRIG
      00000090H.0 SFRSYM    DATA     BIT       T2
      000000A8H.7 SFRSYM    DATA     BIT       EA
      000000A8H.6 SFRSYM    DATA     BIT       EC
      00000098H.7 SFRSYM    DATA     BIT       FE
      000000A8H   SFRSYM    DATA     BYTE      IE
LX51 LINKER/LOCATER V4.66.87.0                                                        06/02/2018  22:09:22  PAGE 94


      000000C8H.6 SFRSYM    DATA     BIT       EXF2
      000000B0H.7 SFRSYM    DATA     BIT       RD
      000000A8H.4 SFRSYM    DATA     BIT       ES
      000000B8H   SFRSYM    DATA     BYTE      IP
      00000098H.0 SFRSYM    DATA     BIT       RI
      000000B0H.2 SFRSYM    DATA     BIT       INT0
      000000D0H.7 SFRSYM    DATA     BIT       CY
      00000098H.1 SFRSYM    DATA     BIT       TI
      000000B0H.3 SFRSYM    DATA     BIT       INT1
      000000CBH   SFRSYM    DATA     BYTE      RCAP2H
      000000E5H   SFRSYM    DATA     BYTE      ISP_CMD
      000000B8H.4 SFRSYM    DATA     BIT       PS
      00000081H   SFRSYM    DATA     BYTE      SP
      00000090H.1 SFRSYM    DATA     BIT       T2EX
      000000D0H.2 SFRSYM    DATA     BIT       OV
      000000CAH   SFRSYM    DATA     BYTE      RCAP2L
      000000C8H.1 SFRSYM    DATA     BIT       C_T2
      000000B0H.6 SFRSYM    DATA     BIT       WR
      000000C8H.5 SFRSYM    DATA     BIT       RCLK
      000000C8H.4 SFRSYM    DATA     BIT       TCLK
      00000080H.0 SFRSYM    DATA     BIT       P00
      00000099H   SFRSYM    DATA     BYTE      SBUF
      00000087H   SFRSYM    DATA     BYTE      PCON
      00000090H.0 SFRSYM    DATA     BIT       P10
      00000080H.1 SFRSYM    DATA     BIT       P01
      000000A0H.0 SFRSYM    DATA     BIT       P20
      00000090H.1 SFRSYM    DATA     BIT       P11
      00000080H.2 SFRSYM    DATA     BIT       P02
      000000E3H   SFRSYM    DATA     BYTE      ISP_ADDRH
      000000B0H.0 SFRSYM    DATA     BIT       P30
      000000A0H.1 SFRSYM    DATA     BIT       P21
      00000090H.2 SFRSYM    DATA     BIT       P12
      00000080H.3 SFRSYM    DATA     BIT       P03
      00000098H   SFRSYM    DATA     BYTE      SCON
      000000B0H.1 SFRSYM    DATA     BIT       P31
      000000A0H.2 SFRSYM    DATA     BIT       P22
      00000090H.3 SFRSYM    DATA     BIT       P13
      00000080H.4 SFRSYM    DATA     BIT       P04
      000000E8H.0 SFRSYM    DATA     BIT       P40
      00000089H   SFRSYM    DATA     BYTE      TMOD
      00000088H   SFRSYM    DATA     BYTE      TCON
      000000B0H.2 SFRSYM    DATA     BIT       P32
      000000A0H.3 SFRSYM    DATA     BIT       P23
      00000090H.4 SFRSYM    DATA     BIT       P14
      00000080H.5 SFRSYM    DATA     BIT       P05
      000000E8H.1 SFRSYM    DATA     BIT       P41
      000000B0H.3 SFRSYM    DATA     BIT       P33
      000000A0H.4 SFRSYM    DATA     BIT       P24
      00000090H.5 SFRSYM    DATA     BIT       P15
      00000080H.6 SFRSYM    DATA     BIT       P06
      000000E4H   SFRSYM    DATA     BYTE      ISP_ADDRL
      000000E8H.2 SFRSYM    DATA     BIT       P42
      000000B0H.4 SFRSYM    DATA     BIT       P34
      000000A0H.5 SFRSYM    DATA     BIT       P25
      00000090H.6 SFRSYM    DATA     BIT       P16
      00000080H.7 SFRSYM    DATA     BIT       P07
      000000E8H.3 SFRSYM    DATA     BIT       P43
      000000B0H.5 SFRSYM    DATA     BIT       P35
      000000A0H.6 SFRSYM    DATA     BIT       P26
      00000090H.7 SFRSYM    DATA     BIT       P17
      000000E8H.4 SFRSYM    DATA     BIT       P44
      000000B0H.6 SFRSYM    DATA     BIT       P36
      000000A0H.7 SFRSYM    DATA     BIT       P27
      000000E8H.5 SFRSYM    DATA     BIT       P45
      000000B0H.7 SFRSYM    DATA     BIT       P37
LX51 LINKER/LOCATER V4.66.87.0                                                        06/02/2018  22:09:22  PAGE 95


      000000E8H.6 SFRSYM    DATA     BIT       P46
      00000088H.1 SFRSYM    DATA     BIT       IE0
      00000088H.3 SFRSYM    DATA     BIT       IE1
      0000008EH   SFRSYM    DATA     BYTE      AUXR
      000000F0H   SFRSYM    DATA     BYTE      B
      000000C8H.0 SFRSYM    DATA     BIT       CP_RL2
      000000E0H   SFRSYM    DATA     BYTE      ACC
      000000A8H.1 SFRSYM    DATA     BIT       ET0
      000000A8H.3 SFRSYM    DATA     BIT       ET1
      00000088H.5 SFRSYM    DATA     BIT       TF0
      000000A8H.5 SFRSYM    DATA     BIT       ET2
      00000088H.7 SFRSYM    DATA     BIT       TF1
      000000C8H.7 SFRSYM    DATA     BIT       TF2
      00000098H.2 SFRSYM    DATA     BIT       RB8
      0000008CH   SFRSYM    DATA     BYTE      TH0
      000000A8H.0 SFRSYM    DATA     BIT       EX0
      00000088H.0 SFRSYM    DATA     BIT       IT0
      0000008DH   SFRSYM    DATA     BYTE      TH1
      00000098H.3 SFRSYM    DATA     BIT       TB8
      000000A8H.2 SFRSYM    DATA     BIT       EX1
      00000088H.2 SFRSYM    DATA     BIT       IT1
      000000CDH   SFRSYM    DATA     BYTE      TH2
      000000D0H.0 SFRSYM    DATA     BIT       P
      00000098H.7 SFRSYM    DATA     BIT       SM0
      0000008AH   SFRSYM    DATA     BYTE      TL0
      00000098H.6 SFRSYM    DATA     BIT       SM1
      0000008BH   SFRSYM    DATA     BYTE      TL1
      00000098H.5 SFRSYM    DATA     BIT       SM2
      000000CCH   SFRSYM    DATA     BYTE      TL2
      000000B8H.1 SFRSYM    DATA     BIT       PT0
      000000B8H.3 SFRSYM    DATA     BIT       PT1
      000000D0H.3 SFRSYM    DATA     BIT       RS0
      000000E7H   SFRSYM    DATA     BYTE      ISP_CONTR
      000000B8H.5 SFRSYM    DATA     BIT       PT2
      00000088H.4 SFRSYM    DATA     BIT       TR0
      000000D0H.4 SFRSYM    DATA     BIT       RS1
      00000088H.6 SFRSYM    DATA     BIT       TR1
      000000C8H.2 SFRSYM    DATA     BIT       TR2
      000000B8H.0 SFRSYM    DATA     BIT       PX0
      000000E1H   SFRSYM    DATA     BYTE      WDT_CONTR
      000000B8H.2 SFRSYM    DATA     BIT       PX1
      00000083H   SFRSYM    DATA     BYTE      DPH
      00000082H   SFRSYM    DATA     BYTE      DPL
      000000B7H   SFRSYM    DATA     BYTE      IPH
      000000C8H.3 SFRSYM    DATA     BIT       EXEN2
      00000098H.4 SFRSYM    DATA     BIT       REN
      000000C9H   SFRSYM    DATA     BYTE      T2MOD
      000000C8H   SFRSYM    DATA     BYTE      T2CON
      000000E2H   SFRSYM    DATA     BYTE      ISP_DATA
      000000B9H   SFRSYM    DATA     BYTE      SADEN
      000000B0H.0 SFRSYM    DATA     BIT       RXD
      000000A9H   SFRSYM    DATA     BYTE      SADDR
      000000B0H.1 SFRSYM    DATA     BIT       TXD
      000000A2H   SFRSYM    DATA     BYTE      AUXR1
      000000D0H.5 SFRSYM    DATA     BIT       F0
      00000090H.6 SFRSYM    DATA     BIT       I2C_SDA
      000000D0H   SFRSYM    DATA     BYTE      PSW

      01008B50H   BLOCK     CODE     ---       LVL=0
      ---         BLOCKEND  ---      ---       LVL=0

      01008789H   BLOCK     CODE     ---       LVL=0
      ---         BLOCKEND  ---      ---       LVL=0

      01008791H   BLOCK     CODE     ---       LVL=0
LX51 LINKER/LOCATER V4.66.87.0                                                        06/02/2018  22:09:22  PAGE 96


      00000007H   SYMBOL    DATA     BYTE      c
      01008791H   BLOCK     CODE     NEAR LAB  LVL=1
      00000007H   SYMBOL    DATA     BYTE      c
      ---         BLOCKEND  ---      ---       LVL=1
      01008791H   LINE      CODE     ---       #5
      01008791H   LINE      CODE     ---       #6
      01008791H   LINE      CODE     ---       #8
      01008793H   LINE      CODE     ---       #9
      01008799H   LINE      CODE     ---       #10
      ---         BLOCKEND  ---      ---       LVL=0

      01008B46H   BLOCK     CODE     ---       LVL=0
      01008B46H   LINE      CODE     ---       #15
      01008B46H   LINE      CODE     ---       #16
      01008B46H   LINE      CODE     ---       #17
      01008B48H   LINE      CODE     ---       #18
      01008B4BH   LINE      CODE     ---       #19
      01008B4DH   LINE      CODE     ---       #20
      ---         BLOCKEND  ---      ---       LVL=0

      01008A7CH   BLOCK     CODE     ---       LVL=0
      01008A7CH   LINE      CODE     ---       #24
      01008A7CH   LINE      CODE     ---       #25
      01008A7CH   LINE      CODE     ---       #28
      01008A7CH   LINE      CODE     ---       #29
      01008A7CH   LINE      CODE     ---       #30
      01008A7CH   LINE      CODE     ---       #31
      01008A7FH   LINE      CODE     ---       #32
      01008A81H   LINE      CODE     ---       #33
      01008A81H   LINE      CODE     ---       #34
      01008A81H   LINE      CODE     ---       #35
      01008A81H   LINE      CODE     ---       #36
      01008A84H   LINE      CODE     ---       #37
      ---         BLOCKEND  ---      ---       LVL=0

      01008389H   BLOCK     CODE     ---       LVL=0
      01008389H   BLOCK     CODE     NEAR LAB  LVL=1
      00000004H   SYMBOL    DATA     WORD      t
      ---         BLOCKEND  ---      ---       LVL=1
      01008389H   LINE      CODE     ---       #40
      01008389H   LINE      CODE     ---       #41
      01008389H   LINE      CODE     ---       #42
      0100838DH   LINE      CODE     ---       #44
      0100838FH   LINE      CODE     ---       #45
      01008392H   LINE      CODE     ---       #47
      01008392H   LINE      CODE     ---       #48
      01008392H   LINE      CODE     ---       #49
      01008392H   LINE      CODE     ---       #50
      01008395H   LINE      CODE     ---       #54
      0100839EH   LINE      CODE     ---       #55
      ---         BLOCKEND  ---      ---       LVL=0

      01007B87H   BLOCK     CODE     ---       LVL=0
      00000006H   SYMBOL    DATA     BYTE      dat
      01007B89H   BLOCK     CODE     NEAR LAB  LVL=1
      00000005H   SYMBOL    DATA     BYTE      t
      ---         BLOCKEND  ---      ---       LVL=1
      01007B87H   LINE      CODE     ---       #59
      01007B89H   LINE      CODE     ---       #60
      01007B89H   LINE      CODE     ---       #63
      01007B8BH   LINE      CODE     ---       #64
      01007B8BH   LINE      CODE     ---       #66
      01007B8FH   LINE      CODE     ---       #67
      01007B92H   LINE      CODE     ---       #68
      01007B94H   LINE      CODE     ---       #69
LX51 LINKER/LOCATER V4.66.87.0                                                        06/02/2018  22:09:22  PAGE 97


      01007B97H   LINE      CODE     ---       #70
      01007B99H   LINE      CODE     ---       #71
      01007B9CH   LINE      CODE     ---       #72
      01007BA0H   LINE      CODE     ---       #73
      01007BA5H   LINE      CODE     ---       #76
      ---         BLOCKEND  ---      ---       LVL=0

      01007104H   BLOCK     CODE     ---       LVL=0
      01007104H   BLOCK     CODE     NEAR LAB  LVL=1
      00000006H   SYMBOL    DATA     BYTE      dat
      00000005H   SYMBOL    DATA     BYTE      t
      00000020H.2 SYMBOL    BIT      BIT       temp
      ---         BLOCKEND  ---      ---       LVL=1
      01007104H   LINE      CODE     ---       #78
      01007104H   LINE      CODE     ---       #79
      01007104H   LINE      CODE     ---       #80
      01007106H   LINE      CODE     ---       #83
      01007109H   LINE      CODE     ---       #84
      01007109H   LINE      CODE     ---       #85
      01007109H   LINE      CODE     ---       #87
      0100710CH   LINE      CODE     ---       #89
      0100710EH   LINE      CODE     ---       #90
      0100710EH   LINE      CODE     ---       #91
      01007110H   LINE      CODE     ---       #92
      01007113H   LINE      CODE     ---       #93
      01007115H   LINE      CODE     ---       #94
      01007118H   LINE      CODE     ---       #95
      0100711CH   LINE      CODE     ---       #96
      01007120H   LINE      CODE     ---       #97
      01007126H   LINE      CODE     ---       #98
      0100712BH   LINE      CODE     ---       #100
      0100712DH   LINE      CODE     ---       #101
      01007130H   LINE      CODE     ---       #103
      01007132H   LINE      CODE     ---       #104
      ---         BLOCKEND  ---      ---       LVL=0

      01007937H   BLOCK     CODE     ---       LVL=0
      01007937H   BLOCK     CODE     NEAR LAB  LVL=1
      00000020H.2 SYMBOL    BIT      BIT       ack
      00000006H   SYMBOL    DATA     BYTE      Error_time
      ---         BLOCKEND  ---      ---       LVL=1
      01007937H   LINE      CODE     ---       #108
      01007937H   LINE      CODE     ---       #109
      01007937H   LINE      CODE     ---       #111
      01007939H   LINE      CODE     ---       #113
      01007939H   LINE      CODE     ---       #114
      01007939H   LINE      CODE     ---       #115
      0100793CH   LINE      CODE     ---       #116
      0100793EH   LINE      CODE     ---       #117
      01007941H   LINE      CODE     ---       #119
      01007941H   LINE      CODE     ---       #120
      01007945H   LINE      CODE     ---       #121
      01007947H   LINE      CODE     ---       #122
      01007947H   LINE      CODE     ---       #123
      01007947H   LINE      CODE     ---       #124
      01007949H   LINE      CODE     ---       #125
      0100794CH   LINE      CODE     ---       #126
      0100794EH   LINE      CODE     ---       #127
      0100794EH   LINE      CODE     ---       #128
      01007951H   LINE      CODE     ---       #131
      01007951H   LINE      CODE     ---       #132
      01007951H   LINE      CODE     ---       #133
      01007954H   LINE      CODE     ---       #134
      01007957H   LINE      CODE     ---       #135
      01007958H   LINE      CODE     ---       #136
LX51 LINKER/LOCATER V4.66.87.0                                                        06/02/2018  22:09:22  PAGE 98


      ---         BLOCKEND  ---      ---       LVL=0

      010086A1H   BLOCK     CODE     ---       LVL=0
      00000020H.2 SYMBOL    BIT      BIT       ack
      010086A1H   LINE      CODE     ---       #138
      010086A1H   LINE      CODE     ---       #139
      010086A1H   LINE      CODE     ---       #141
      010086A5H   LINE      CODE     ---       #142
      010086A8H   LINE      CODE     ---       #143
      010086AAH   LINE      CODE     ---       #144
      010086AAH   LINE      CODE     ---       #146
      010086AAH   LINE      CODE     ---       #147
      010086AAH   LINE      CODE     ---       #148
      010086ADH   LINE      CODE     ---       #149
      010086B0H   LINE      CODE     ---       #150
      ---         BLOCKEND  ---      ---       LVL=0

      01005E22H   BLOCK     CODE     ---       LVL=0
      00000006H   SYMBOL    DATA     BYTE      SlaveAddr
      00000004H   SYMBOL    DATA     BYTE      SubAddr
      02000020H   SYMBOL    XDATA    BYTE      Size
      02000021H   SYMBOL    XDATA    ---       dat
      01005E22H   LINE      CODE     ---       #219
      01005E2BH   LINE      CODE     ---       #220
      01005E2BH   LINE      CODE     ---       #222
      01005E2FH   LINE      CODE     ---       #224
      01005E33H   LINE      CODE     ---       #226
      01005E36H   LINE      CODE     ---       #228
      01005E38H   LINE      CODE     ---       #229
      01005E3DH   LINE      CODE     ---       #230
      01005E3DH   LINE      CODE     ---       #231
      01005E3DH   LINE      CODE     ---       #232
      01005E3FH   LINE      CODE     ---       #233
      01005E3FH   LINE      CODE     ---       #235
      01005E41H   LINE      CODE     ---       #236
      01005E46H   LINE      CODE     ---       #237
      01005E46H   LINE      CODE     ---       #238
      01005E46H   LINE      CODE     ---       #239
      01005E48H   LINE      CODE     ---       #240
      01005E48H   LINE      CODE     ---       #243
      01005E48H   LINE      CODE     ---       #244
      01005E59H   LINE      CODE     ---       #245
      01005E5EH   LINE      CODE     ---       #246
      01005E5EH   LINE      CODE     ---       #247
      01005E61H   LINE      CODE     ---       #248
      01005E63H   LINE      CODE     ---       #249
      01005E63H   LINE      CODE     ---       #250
      01005E6BH   LINE      CODE     ---       #252
      01005E6EH   LINE      CODE     ---       #253
      01005E6FH   LINE      CODE     ---       #254
      ---         BLOCKEND  ---      ---       LVL=0

      0100851AH   BLOCK     CODE     ---       LVL=0
      00000007H   SYMBOL    DATA     BYTE      SlaveAddr
      00000005H   SYMBOL    DATA     BYTE      SubAddr
      0200001DH   SYMBOL    XDATA    CHAR      dat
      0100851AH   LINE      CODE     ---       #256
      0100851FH   LINE      CODE     ---       #257
      0100851FH   LINE      CODE     ---       #258
      ---         BLOCKEND  ---      ---       LVL=0

      010051CCH   BLOCK     CODE     ---       LVL=0
      00000004H   SYMBOL    DATA     BYTE      SlaveAddr
      00000001H   SYMBOL    DATA     BYTE      SubAddr
      02000022H   SYMBOL    XDATA    BYTE      Size
LX51 LINKER/LOCATER V4.66.87.0                                                        06/02/2018  22:09:22  PAGE 99


      02000023H   SYMBOL    XDATA    ---       dat
      010051CCH   LINE      CODE     ---       #262
      010051D5H   LINE      CODE     ---       #263
      010051D5H   LINE      CODE     ---       #264
      010051D9H   LINE      CODE     ---       #266
      010051DDH   LINE      CODE     ---       #268
      010051E0H   LINE      CODE     ---       #270
      010051E2H   LINE      CODE     ---       #271
      010051E7H   LINE      CODE     ---       #272
      010051E7H   LINE      CODE     ---       #273
      010051E7H   LINE      CODE     ---       #274
      010051E9H   LINE      CODE     ---       #275
      010051E9H   LINE      CODE     ---       #277
      010051EBH   LINE      CODE     ---       #278
      010051F0H   LINE      CODE     ---       #279
      010051F0H   LINE      CODE     ---       #280
      010051F0H   LINE      CODE     ---       #281
      010051F2H   LINE      CODE     ---       #282
      010051F2H   LINE      CODE     ---       #284
      010051F5H   LINE      CODE     ---       #286
      010051F9H   LINE      CODE     ---       #287
      010051FDH   LINE      CODE     ---       #288
      01005202H   LINE      CODE     ---       #289
      01005202H   LINE      CODE     ---       #290
      01005205H   LINE      CODE     ---       #291
      01005207H   LINE      CODE     ---       #292
      01005207H   LINE      CODE     ---       #294
      01005207H   LINE      CODE     ---       #295
      01005207H   LINE      CODE     ---       #296
      01005218H   LINE      CODE     ---       #297
      01005220H   LINE      CODE     ---       #298
      01005220H   LINE      CODE     ---       #299
      01005225H   LINE      CODE     ---       #300
      01005227H   LINE      CODE     ---       #301
      01005227H   LINE      CODE     ---       #302
      0100522CH   LINE      CODE     ---       #303
      0100522EH   LINE      CODE     ---       #305
      01005231H   LINE      CODE     ---       #306
      01005232H   LINE      CODE     ---       #307
      ---         BLOCKEND  ---      ---       LVL=0

      01008263H   BLOCK     CODE     ---       LVL=0
      00000007H   SYMBOL    DATA     BYTE      SlaveAddr
      00000005H   SYMBOL    DATA     BYTE      SubAddr
      0200001DH   SYMBOL    XDATA    ---       dat
      01008263H   LINE      CODE     ---       #309
      01008269H   LINE      CODE     ---       #310
      01008269H   LINE      CODE     ---       #311
      ---         BLOCKEND  ---      ---       LVL=0

      ---         MODULE    ---      ---       KEY
      01008B9EH   PUBLIC    CODE     ---       key_leave_powersave
      01008B95H   PUBLIC    CODE     ---       key_enter_powersave
      010080E0H   PUBLIC    CODE     ---       key_initialize
      01006D10H   PUBLIC    CODE     ---       _mod_set_proc
      01006108H   PUBLIC    CODE     ---       _set_proc
      010060B8H   PUBLIC    CODE     ---       _mod_proc
      01002A62H   PUBLIC    CODE     ---       _scan_key_proc
      00000080H   SFRSYM    DATA     BYTE      P0
      00000090H   SFRSYM    DATA     BYTE      P1
      000000A0H   SFRSYM    DATA     BYTE      P2
      000000B0H   SFRSYM    DATA     BYTE      P3
      000000C0H   SFRSYM    DATA     BYTE      XICON
      000000B0H.4 SFRSYM    DATA     BIT       T0
      000000D0H.6 SFRSYM    DATA     BIT       AC
LX51 LINKER/LOCATER V4.66.87.0                                                        06/02/2018  22:09:22  PAGE 100


      000000E8H   SFRSYM    DATA     BYTE      P4
      000000B0H.5 SFRSYM    DATA     BIT       T1
      000000E6H   SFRSYM    DATA     BYTE      ISP_TRIG
      00000090H.0 SFRSYM    DATA     BIT       T2
      000000A8H.7 SFRSYM    DATA     BIT       EA
      000000A8H.6 SFRSYM    DATA     BIT       EC
      00000098H.7 SFRSYM    DATA     BIT       FE
      000000A8H   SFRSYM    DATA     BYTE      IE
      000000C8H.6 SFRSYM    DATA     BIT       EXF2
      000000B0H.7 SFRSYM    DATA     BIT       RD
      000000A8H.4 SFRSYM    DATA     BIT       ES
      000000B8H   SFRSYM    DATA     BYTE      IP
      00000098H.0 SFRSYM    DATA     BIT       RI
      000000B0H.2 SFRSYM    DATA     BIT       INT0
      000000D0H.7 SFRSYM    DATA     BIT       CY
      00000098H.1 SFRSYM    DATA     BIT       TI
      000000B0H.3 SFRSYM    DATA     BIT       INT1
      000000CBH   SFRSYM    DATA     BYTE      RCAP2H
      000000E5H   SFRSYM    DATA     BYTE      ISP_CMD
      000000B8H.4 SFRSYM    DATA     BIT       PS
      00000081H   SFRSYM    DATA     BYTE      SP
      00000090H.1 SFRSYM    DATA     BIT       T2EX
      000000D0H.2 SFRSYM    DATA     BIT       OV
      000000CAH   SFRSYM    DATA     BYTE      RCAP2L
      000000C8H.1 SFRSYM    DATA     BIT       C_T2
      000000B0H.6 SFRSYM    DATA     BIT       WR
      000000A0H.6 SFRSYM    DATA     BIT       MOD_KEY
      000000C8H.5 SFRSYM    DATA     BIT       RCLK
      000000C8H.4 SFRSYM    DATA     BIT       TCLK
      00000080H.0 SFRSYM    DATA     BIT       P00
      00000099H   SFRSYM    DATA     BYTE      SBUF
      00000087H   SFRSYM    DATA     BYTE      PCON
      00000090H.0 SFRSYM    DATA     BIT       P10
      00000080H.1 SFRSYM    DATA     BIT       P01
      000000A0H.0 SFRSYM    DATA     BIT       P20
      00000090H.1 SFRSYM    DATA     BIT       P11
      00000080H.2 SFRSYM    DATA     BIT       P02
      000000E3H   SFRSYM    DATA     BYTE      ISP_ADDRH
      000000B0H.0 SFRSYM    DATA     BIT       P30
      000000A0H.1 SFRSYM    DATA     BIT       P21
      00000090H.2 SFRSYM    DATA     BIT       P12
      00000080H.3 SFRSYM    DATA     BIT       P03
      00000098H   SFRSYM    DATA     BYTE      SCON
      000000B0H.1 SFRSYM    DATA     BIT       P31
      000000A0H.2 SFRSYM    DATA     BIT       P22
      00000090H.3 SFRSYM    DATA     BIT       P13
      00000080H.4 SFRSYM    DATA     BIT       P04
      000000E8H.0 SFRSYM    DATA     BIT       P40
      00000089H   SFRSYM    DATA     BYTE      TMOD
      00000088H   SFRSYM    DATA     BYTE      TCON
      000000B0H.2 SFRSYM    DATA     BIT       P32
      000000A0H.3 SFRSYM    DATA     BIT       P23
      00000090H.4 SFRSYM    DATA     BIT       P14
      00000080H.5 SFRSYM    DATA     BIT       P05
      000000E8H.1 SFRSYM    DATA     BIT       P41
      000000B0H.3 SFRSYM    DATA     BIT       P33
      000000A0H.4 SFRSYM    DATA     BIT       P24
      00000090H.5 SFRSYM    DATA     BIT       P15
      00000080H.6 SFRSYM    DATA     BIT       P06
      000000E4H   SFRSYM    DATA     BYTE      ISP_ADDRL
      000000E8H.2 SFRSYM    DATA     BIT       P42
      000000A0H.7 SFRSYM    DATA     BIT       SET_KEY
      000000B0H.4 SFRSYM    DATA     BIT       P34
      000000A0H.5 SFRSYM    DATA     BIT       P25
      00000090H.6 SFRSYM    DATA     BIT       P16
LX51 LINKER/LOCATER V4.66.87.0                                                        06/02/2018  22:09:22  PAGE 101


      00000080H.7 SFRSYM    DATA     BIT       P07
      000000E8H.3 SFRSYM    DATA     BIT       P43
      000000B0H.5 SFRSYM    DATA     BIT       P35
      000000A0H.6 SFRSYM    DATA     BIT       P26
      00000090H.7 SFRSYM    DATA     BIT       P17
      000000E8H.4 SFRSYM    DATA     BIT       P44
      000000B0H.6 SFRSYM    DATA     BIT       P36
      000000A0H.7 SFRSYM    DATA     BIT       P27
      000000E8H.5 SFRSYM    DATA     BIT       P45
      000000B0H.7 SFRSYM    DATA     BIT       P37
      000000E8H.6 SFRSYM    DATA     BIT       P46
      00000088H.1 SFRSYM    DATA     BIT       IE0
      00000088H.3 SFRSYM    DATA     BIT       IE1
      0000008EH   SFRSYM    DATA     BYTE      AUXR
      000000F0H   SFRSYM    DATA     BYTE      B
      000000C8H.0 SFRSYM    DATA     BIT       CP_RL2
      000000E0H   SFRSYM    DATA     BYTE      ACC
      000000A8H.1 SFRSYM    DATA     BIT       ET0
      000000A8H.3 SFRSYM    DATA     BIT       ET1
      00000088H.5 SFRSYM    DATA     BIT       TF0
      000000A8H.5 SFRSYM    DATA     BIT       ET2
      00000088H.7 SFRSYM    DATA     BIT       TF1
      000000C8H.7 SFRSYM    DATA     BIT       TF2
      00000098H.2 SFRSYM    DATA     BIT       RB8
      0000008CH   SFRSYM    DATA     BYTE      TH0
      000000A8H.0 SFRSYM    DATA     BIT       EX0
      00000088H.0 SFRSYM    DATA     BIT       IT0
      0000008DH   SFRSYM    DATA     BYTE      TH1
      00000098H.3 SFRSYM    DATA     BIT       TB8
      000000A8H.2 SFRSYM    DATA     BIT       EX1
      00000088H.2 SFRSYM    DATA     BIT       IT1
      000000CDH   SFRSYM    DATA     BYTE      TH2
      000000D0H.0 SFRSYM    DATA     BIT       P
      00000098H.7 SFRSYM    DATA     BIT       SM0
      0000008AH   SFRSYM    DATA     BYTE      TL0
      00000098H.6 SFRSYM    DATA     BIT       SM1
      0000008BH   SFRSYM    DATA     BYTE      TL1
      00000098H.5 SFRSYM    DATA     BIT       SM2
      000000CCH   SFRSYM    DATA     BYTE      TL2
      000000B8H.1 SFRSYM    DATA     BIT       PT0
      000000B8H.3 SFRSYM    DATA     BIT       PT1
      000000D0H.3 SFRSYM    DATA     BIT       RS0
      000000E7H   SFRSYM    DATA     BYTE      ISP_CONTR
      000000B8H.5 SFRSYM    DATA     BIT       PT2
      00000088H.4 SFRSYM    DATA     BIT       TR0
      000000D0H.4 SFRSYM    DATA     BIT       RS1
      00000088H.6 SFRSYM    DATA     BIT       TR1
      000000C8H.2 SFRSYM    DATA     BIT       TR2
      000000B8H.0 SFRSYM    DATA     BIT       PX0
      000000E1H   SFRSYM    DATA     BYTE      WDT_CONTR
      000000B8H.2 SFRSYM    DATA     BIT       PX1
      00000083H   SFRSYM    DATA     BYTE      DPH
      00000082H   SFRSYM    DATA     BYTE      DPL
      000000B7H   SFRSYM    DATA     BYTE      IPH
      000000C8H.3 SFRSYM    DATA     BIT       EXEN2
      00000098H.4 SFRSYM    DATA     BIT       REN
      000000C9H   SFRSYM    DATA     BYTE      T2MOD
      000000C8H   SFRSYM    DATA     BYTE      T2CON
      000000E2H   SFRSYM    DATA     BYTE      ISP_DATA
      000000B9H   SFRSYM    DATA     BYTE      SADEN
      000000B0H.0 SFRSYM    DATA     BIT       RXD
      000000A9H   SFRSYM    DATA     BYTE      SADDR
      000000B0H.1 SFRSYM    DATA     BIT       TXD
      000000A2H   SFRSYM    DATA     BYTE      AUXR1
      000000D0H.5 SFRSYM    DATA     BIT       F0
LX51 LINKER/LOCATER V4.66.87.0                                                        06/02/2018  22:09:22  PAGE 102


      000000D0H   SFRSYM    DATA     BYTE      PSW
      020000E0H   SYMBOL    XDATA    BYTE      last_mod_tmr_count
      020000E1H   SYMBOL    XDATA    BYTE      last_set_tmr_count
      01006F50H   SYMBOL    CODE     ---       int0_ISR
      00000023H.5 SYMBOL    BIT      BIT       mod_press
      00000023H.6 SYMBOL    BIT      BIT       set_press

      0100879AH   BLOCK     CODE     ---       LVL=0
      ---         BLOCKEND  ---      ---       LVL=0

      01006F50H   BLOCK     CODE     ---       LVL=0
      01006F50H   LINE      CODE     ---       #26
      01006F62H   LINE      CODE     ---       #28
      01006F64H   LINE      CODE     ---       #29
      01006F69H   LINE      CODE     ---       #30
      01006F6CH   LINE      CODE     ---       #31
      01006F6FH   LINE      CODE     ---       #32
      01006F6FH   LINE      CODE     ---       #33
      01006F72H   LINE      CODE     ---       #35
      ---         BLOCKEND  ---      ---       LVL=0

      01002A62H   BLOCK     CODE     ---       LVL=0
      02000000H   SYMBOL    XDATA    BYTE      ev
      01002A62H   LINE      CODE     ---       #37
      01002A62H   LINE      CODE     ---       #38
      01002A62H   LINE      CODE     ---       #39
      01002A62H   LINE      CODE     ---       #40
      01002A68H   LINE      CODE     ---       #41
      01002A6DH   LINE      CODE     ---       #42
      01002A70H   LINE      CODE     ---       #43
      01002A76H   LINE      CODE     ---       #44
      01002A78H   LINE      CODE     ---       #45
      01002A80H   LINE      CODE     ---       #46
      01002A80H   LINE      CODE     ---       #47
      01002A88H   LINE      CODE     ---       #48
      01002A8FH   LINE      CODE     ---       #49
      01002A97H   LINE      CODE     ---       #50
      01002A97H   LINE      CODE     ---       #51
      01002A9DH   LINE      CODE     ---       #52
      01002AA3H   LINE      CODE     ---       #53
      01002AA5H   LINE      CODE     ---       #54
      01002AACH   LINE      CODE     ---       #55
      01002AB2H   LINE      CODE     ---       #56
      01002AB5H   LINE      CODE     ---       #57
      01002ABDH   LINE      CODE     ---       #58
      01002ABDH   LINE      CODE     ---       #59
      01002ABDH   LINE      CODE     ---       #60
      01002ABDH   LINE      CODE     ---       #62
      01002AC3H   LINE      CODE     ---       #63
      01002AC8H   LINE      CODE     ---       #64
      01002ACBH   LINE      CODE     ---       #65
      01002AD1H   LINE      CODE     ---       #66
      01002AD3H   LINE      CODE     ---       #67
      01002ADBH   LINE      CODE     ---       #68
      01002ADBH   LINE      CODE     ---       #69
      01002AE3H   LINE      CODE     ---       #70
      01002AEAH   LINE      CODE     ---       #71
      01002AF5H   LINE      CODE     ---       #72
      01002AF5H   LINE      CODE     ---       #73
      01002AFBH   LINE      CODE     ---       #74
      01002B04H   LINE      CODE     ---       #75
      01002B0BH   LINE      CODE     ---       #76
      01002B0EH   LINE      CODE     ---       #77
      01002B11H   LINE      CODE     ---       #78
      01002B19H   LINE      CODE     ---       #79
LX51 LINKER/LOCATER V4.66.87.0                                                        06/02/2018  22:09:22  PAGE 103


      01002B19H   LINE      CODE     ---       #80
      01002B19H   LINE      CODE     ---       #81
      01002B1BH   LINE      CODE     ---       #82
      01002B1BH   LINE      CODE     ---       #84
      01002B27H   LINE      CODE     ---       #85
      01002B27H   LINE      CODE     ---       #87
      01002B44H   LINE      CODE     ---       #88
      01002B4DH   LINE      CODE     ---       #89
      01002B4DH   LINE      CODE     ---       #90
      01002B4DH   LINE      CODE     ---       #91
      ---         BLOCKEND  ---      ---       LVL=0

      010060B8H   BLOCK     CODE     ---       LVL=0
      0200000CH   SYMBOL    XDATA    BYTE      ev
      010060B8H   LINE      CODE     ---       #93
      010060BDH   LINE      CODE     ---       #94
      010060BDH   LINE      CODE     ---       #95
      010060C7H   LINE      CODE     ---       #97
      010060D9H   LINE      CODE     ---       #98
      010060D9H   LINE      CODE     ---       #99
      010060E2H   LINE      CODE     ---       #100
      010060E5H   LINE      CODE     ---       #101
      010060E7H   LINE      CODE     ---       #102
      010060E7H   LINE      CODE     ---       #103
      010060EDH   LINE      CODE     ---       #104
      010060EFH   LINE      CODE     ---       #105
      010060EFH   LINE      CODE     ---       #106
      010060F5H   LINE      CODE     ---       #107
      010060F7H   LINE      CODE     ---       #108
      010060F7H   LINE      CODE     ---       #109
      01006100H   LINE      CODE     ---       #110
      01006100H   LINE      CODE     ---       #111
      01006100H   LINE      CODE     ---       #113
      ---         BLOCKEND  ---      ---       LVL=0

      01006108H   BLOCK     CODE     ---       LVL=0
      0200000CH   SYMBOL    XDATA    BYTE      ev
      01006108H   LINE      CODE     ---       #117
      0100610DH   LINE      CODE     ---       #118
      0100610DH   LINE      CODE     ---       #119
      01006117H   LINE      CODE     ---       #121
      01006129H   LINE      CODE     ---       #122
      01006129H   LINE      CODE     ---       #123
      01006132H   LINE      CODE     ---       #124
      01006135H   LINE      CODE     ---       #125
      01006137H   LINE      CODE     ---       #126
      01006137H   LINE      CODE     ---       #127
      0100613DH   LINE      CODE     ---       #128
      0100613FH   LINE      CODE     ---       #129
      0100613FH   LINE      CODE     ---       #130
      01006145H   LINE      CODE     ---       #131
      01006147H   LINE      CODE     ---       #132
      01006147H   LINE      CODE     ---       #133
      01006150H   LINE      CODE     ---       #134
      01006150H   LINE      CODE     ---       #135
      01006150H   LINE      CODE     ---       #137
      ---         BLOCKEND  ---      ---       LVL=0

      01006D10H   BLOCK     CODE     ---       LVL=0
      0200000CH   SYMBOL    XDATA    BYTE      ev
      01006D10H   LINE      CODE     ---       #140
      01006D15H   LINE      CODE     ---       #141
      01006D15H   LINE      CODE     ---       #142
      01006D22H   LINE      CODE     ---       #144
      01006D2DH   LINE      CODE     ---       #145
LX51 LINKER/LOCATER V4.66.87.0                                                        06/02/2018  22:09:22  PAGE 104


      01006D2DH   LINE      CODE     ---       #146
      01006D33H   LINE      CODE     ---       #147
      01006D35H   LINE      CODE     ---       #148
      01006D35H   LINE      CODE     ---       #149
      01006D3EH   LINE      CODE     ---       #150
      01006D3EH   LINE      CODE     ---       #151
      01006D3EH   LINE      CODE     ---       #153
      ---         BLOCKEND  ---      ---       LVL=0

      010080E0H   BLOCK     CODE     ---       LVL=0
      010080E0H   LINE      CODE     ---       #156
      010080E0H   LINE      CODE     ---       #157
      010080E0H   LINE      CODE     ---       #158
      010080E9H   LINE      CODE     ---       #160
      010080EEH   LINE      CODE     ---       #161
      010080F0H   LINE      CODE     ---       #163
      010080F2H   LINE      CODE     ---       #164
      010080F4H   LINE      CODE     ---       #166
      010080F6H   LINE      CODE     ---       #167
      010080F8H   LINE      CODE     ---       #168
      ---         BLOCKEND  ---      ---       LVL=0

      01008B95H   BLOCK     CODE     ---       LVL=0
      01008B95H   LINE      CODE     ---       #170
      01008B95H   LINE      CODE     ---       #171
      01008B95H   LINE      CODE     ---       #172
      ---         BLOCKEND  ---      ---       LVL=0

      01008B9EH   BLOCK     CODE     ---       LVL=0
      01008B9EH   LINE      CODE     ---       #175
      01008B9EH   LINE      CODE     ---       #176
      01008B9EH   LINE      CODE     ---       #177
      ---         BLOCKEND  ---      ---       LVL=0

      ---         MODULE    ---      ---       TASK
      00000050H   PUBLIC    IDATA    WORD      ev_bits1
      0000004EH   PUBLIC    IDATA    WORD      ev_bits0
      0100B61FH   PUBLIC    CONST    ---       task_name
      01004D33H   PUBLIC    CODE     ---       task_dump
      01003EB0H   PUBLIC    CODE     ---       run_task
      0100852EH   PUBLIC    CODE     ---       task_initialize
      0100B673H   SYMBOL    CONST    ---       task_procs

      01008898H   BLOCK     CODE     ---       LVL=0
      ---         BLOCKEND  ---      ---       LVL=0

      0100852EH   BLOCK     CODE     ---       LVL=0
      0100852EH   LINE      CODE     ---       #143
      0100852EH   LINE      CODE     ---       #144
      0100852EH   LINE      CODE     ---       #145
      01008537H   LINE      CODE     ---       #146
      0100853DH   LINE      CODE     ---       #147
      01008541H   LINE      CODE     ---       #148
      ---         BLOCKEND  ---      ---       LVL=0

      01003EB0H   BLOCK     CODE     ---       LVL=0
      01003EB0H   BLOCK     CODE     NEAR LAB  LVL=1
      02000000H   SYMBOL    XDATA    BYTE      c
      ---         BLOCKEND  ---      ---       LVL=1
      01003EB0H   LINE      CODE     ---       #150
      01003EB0H   LINE      CODE     ---       #151
      01003EB0H   LINE      CODE     ---       #154
      01003EB9H   LINE      CODE     ---       #155
      01003EC7H   LINE      CODE     ---       #156
      01003EF9H   LINE      CODE     ---       #157
LX51 LINKER/LOCATER V4.66.87.0                                                        06/02/2018  22:09:22  PAGE 105


      01003F2FH   LINE      CODE     ---       #158
      01003F4DH   LINE      CODE     ---       #159
      01003F4DH   LINE      CODE     ---       #160
      01003F56H   LINE      CODE     ---       #161
      01003F56H   LINE      CODE     ---       #163
      ---         BLOCKEND  ---      ---       LVL=0

      01004D33H   BLOCK     CODE     ---       LVL=0
      01004D33H   BLOCK     CODE     NEAR LAB  LVL=1
      0200000BH   SYMBOL    XDATA    BYTE      i
      ---         BLOCKEND  ---      ---       LVL=1
      01004D33H   LINE      CODE     ---       #165
      01004D33H   LINE      CODE     ---       #166
      01004D33H   LINE      CODE     ---       #168
      01004D42H   LINE      CODE     ---       #169
      01004DA4H   LINE      CODE     ---       #170
      01004DACH   LINE      CODE     ---       #171
      ---         BLOCKEND  ---      ---       LVL=0

      ---         MODULE    ---      ---       LED
      00000025H.0 PUBLIC    BIT      BIT       led_powersave
      00000038H   PUBLIC    IDATA    ---       led_data
      00000036H   PUBLIC    IDATA    BYTE      led_blink
      020000BFH   PUBLIC    XDATA    ---       saved_led_data
      020000BDH   PUBLIC    XDATA    BYTE      saved_led_blink
      0100D25AH   PUBLIC    CONST    ---       led_code
      01007686H   PUBLIC    CODE     ---       led_restore
      01007660H   PUBLIC    CODE     ---       led_save
      01008438H   PUBLIC    CODE     ---       led_leave_powersave
      010087BCH   PUBLIC    CODE     ---       led_enter_powersave
      01006158H   PUBLIC    CODE     ---       _led_set_code
      010088B6H   PUBLIC    CODE     ---       _led_set_dp
      010088A7H   PUBLIC    CODE     ---       _led_clr_dp
      0100827AH   PUBLIC    CODE     ---       _led_clr_blink
      0100839FH   PUBLIC    CODE     ---       _led_set_blink
      010087ABH   PUBLIC    CODE     ---       led_clear
      01006A64H   PUBLIC    CODE     ---       led_initialize
      01005A57H   PUBLIC    CODE     ---       refresh_led
      00000080H   SFRSYM    DATA     BYTE      P0
      00000090H   SFRSYM    DATA     BYTE      P1
      000000A0H   SFRSYM    DATA     BYTE      P2
      000000B0H   SFRSYM    DATA     BYTE      P3
      000000C0H   SFRSYM    DATA     BYTE      XICON
      000000B0H.4 SFRSYM    DATA     BIT       T0
      000000D0H.6 SFRSYM    DATA     BIT       AC
      000000E8H   SFRSYM    DATA     BYTE      P4
      000000B0H.5 SFRSYM    DATA     BIT       T1
      000000E6H   SFRSYM    DATA     BYTE      ISP_TRIG
      00000090H.0 SFRSYM    DATA     BIT       T2
      000000A8H.7 SFRSYM    DATA     BIT       EA
      000000A8H.6 SFRSYM    DATA     BIT       EC
      00000098H.7 SFRSYM    DATA     BIT       FE
      000000A8H   SFRSYM    DATA     BYTE      IE
      000000C8H.6 SFRSYM    DATA     BIT       EXF2
      000000B0H.7 SFRSYM    DATA     BIT       RD
      000000A8H.4 SFRSYM    DATA     BIT       ES
      000000B8H   SFRSYM    DATA     BYTE      IP
      00000098H.0 SFRSYM    DATA     BIT       RI
      000000B0H.2 SFRSYM    DATA     BIT       INT0
      000000D0H.7 SFRSYM    DATA     BIT       CY
      00000098H.1 SFRSYM    DATA     BIT       TI
      000000B0H.3 SFRSYM    DATA     BIT       INT1
      000000CBH   SFRSYM    DATA     BYTE      RCAP2H
      000000E5H   SFRSYM    DATA     BYTE      ISP_CMD
      000000B8H.4 SFRSYM    DATA     BIT       PS
LX51 LINKER/LOCATER V4.66.87.0                                                        06/02/2018  22:09:22  PAGE 106


      00000081H   SFRSYM    DATA     BYTE      SP
      00000090H.1 SFRSYM    DATA     BIT       T2EX
      000000D0H.2 SFRSYM    DATA     BIT       OV
      000000CAH   SFRSYM    DATA     BYTE      RCAP2L
      000000C8H.1 SFRSYM    DATA     BIT       C_T2
      000000B0H.6 SFRSYM    DATA     BIT       WR
      000000C8H.5 SFRSYM    DATA     BIT       RCLK
      000000C8H.4 SFRSYM    DATA     BIT       TCLK
      00000080H.0 SFRSYM    DATA     BIT       P00
      00000099H   SFRSYM    DATA     BYTE      SBUF
      00000087H   SFRSYM    DATA     BYTE      PCON
      00000090H.0 SFRSYM    DATA     BIT       P10
      00000080H.1 SFRSYM    DATA     BIT       P01
      000000A0H.0 SFRSYM    DATA     BIT       P20
      00000090H.1 SFRSYM    DATA     BIT       P11
      00000080H.2 SFRSYM    DATA     BIT       P02
      000000E3H   SFRSYM    DATA     BYTE      ISP_ADDRH
      000000B0H.0 SFRSYM    DATA     BIT       P30
      000000A0H.1 SFRSYM    DATA     BIT       P21
      00000090H.2 SFRSYM    DATA     BIT       P12
      00000080H.3 SFRSYM    DATA     BIT       P03
      00000098H   SFRSYM    DATA     BYTE      SCON
      000000B0H.1 SFRSYM    DATA     BIT       P31
      000000A0H.2 SFRSYM    DATA     BIT       P22
      00000090H.3 SFRSYM    DATA     BIT       P13
      00000080H.4 SFRSYM    DATA     BIT       P04
      000000E8H.0 SFRSYM    DATA     BIT       P40
      00000089H   SFRSYM    DATA     BYTE      TMOD
      00000088H   SFRSYM    DATA     BYTE      TCON
      000000B0H.2 SFRSYM    DATA     BIT       P32
      000000A0H.3 SFRSYM    DATA     BIT       P23
      00000090H.4 SFRSYM    DATA     BIT       P14
      00000080H.5 SFRSYM    DATA     BIT       P05
      000000E8H.1 SFRSYM    DATA     BIT       P41
      000000B0H.3 SFRSYM    DATA     BIT       P33
      000000A0H.4 SFRSYM    DATA     BIT       P24
      00000090H.5 SFRSYM    DATA     BIT       P15
      00000080H.6 SFRSYM    DATA     BIT       P06
      000000E4H   SFRSYM    DATA     BYTE      ISP_ADDRL
      000000E8H.2 SFRSYM    DATA     BIT       P42
      000000B0H.4 SFRSYM    DATA     BIT       P34
      000000A0H.5 SFRSYM    DATA     BIT       P25
      00000090H.6 SFRSYM    DATA     BIT       P16
      00000080H.7 SFRSYM    DATA     BIT       P07
      000000E8H.3 SFRSYM    DATA     BIT       P43
      000000B0H.5 SFRSYM    DATA     BIT       P35
      000000A0H.6 SFRSYM    DATA     BIT       P26
      00000090H.7 SFRSYM    DATA     BIT       P17
      000000E8H.4 SFRSYM    DATA     BIT       P44
      000000B0H.6 SFRSYM    DATA     BIT       P36
      000000A0H.7 SFRSYM    DATA     BIT       P27
      000000E8H.5 SFRSYM    DATA     BIT       P45
      000000B0H.7 SFRSYM    DATA     BIT       P37
      000000E8H.6 SFRSYM    DATA     BIT       P46
      00000088H.1 SFRSYM    DATA     BIT       IE0
      00000088H.3 SFRSYM    DATA     BIT       IE1
      0000008EH   SFRSYM    DATA     BYTE      AUXR
      000000F0H   SFRSYM    DATA     BYTE      B
      000000C8H.0 SFRSYM    DATA     BIT       CP_RL2
      000000E0H   SFRSYM    DATA     BYTE      ACC
      000000A8H.1 SFRSYM    DATA     BIT       ET0
      000000A8H.3 SFRSYM    DATA     BIT       ET1
      00000088H.5 SFRSYM    DATA     BIT       TF0
      000000A8H.5 SFRSYM    DATA     BIT       ET2
      00000088H.7 SFRSYM    DATA     BIT       TF1
LX51 LINKER/LOCATER V4.66.87.0                                                        06/02/2018  22:09:22  PAGE 107


      000000C8H.7 SFRSYM    DATA     BIT       TF2
      00000098H.2 SFRSYM    DATA     BIT       RB8
      0000008CH   SFRSYM    DATA     BYTE      TH0
      000000A8H.0 SFRSYM    DATA     BIT       EX0
      00000088H.0 SFRSYM    DATA     BIT       IT0
      0000008DH   SFRSYM    DATA     BYTE      TH1
      00000098H.3 SFRSYM    DATA     BIT       TB8
      000000A8H.2 SFRSYM    DATA     BIT       EX1
      00000088H.2 SFRSYM    DATA     BIT       IT1
      000000CDH   SFRSYM    DATA     BYTE      TH2
      000000D0H.0 SFRSYM    DATA     BIT       P
      00000098H.7 SFRSYM    DATA     BIT       SM0
      0000008AH   SFRSYM    DATA     BYTE      TL0
      00000098H.6 SFRSYM    DATA     BIT       SM1
      0000008BH   SFRSYM    DATA     BYTE      TL1
      00000098H.5 SFRSYM    DATA     BIT       SM2
      000000CCH   SFRSYM    DATA     BYTE      TL2
      000000B8H.1 SFRSYM    DATA     BIT       PT0
      000000B8H.3 SFRSYM    DATA     BIT       PT1
      000000D0H.3 SFRSYM    DATA     BIT       RS0
      000000E7H   SFRSYM    DATA     BYTE      ISP_CONTR
      000000B8H.5 SFRSYM    DATA     BIT       PT2
      00000088H.4 SFRSYM    DATA     BIT       TR0
      000000D0H.4 SFRSYM    DATA     BIT       RS1
      00000088H.6 SFRSYM    DATA     BIT       TR1
      000000C8H.2 SFRSYM    DATA     BIT       TR2
      000000B8H.0 SFRSYM    DATA     BIT       PX0
      000000E1H   SFRSYM    DATA     BYTE      WDT_CONTR
      000000B8H.2 SFRSYM    DATA     BIT       PX1
      00000083H   SFRSYM    DATA     BYTE      DPH
      00000082H   SFRSYM    DATA     BYTE      DPL
      000000B7H   SFRSYM    DATA     BYTE      IPH
      000000C8H.3 SFRSYM    DATA     BIT       EXEN2
      00000098H.4 SFRSYM    DATA     BIT       REN
      000000C9H   SFRSYM    DATA     BYTE      T2MOD
      000000C8H   SFRSYM    DATA     BYTE      T2CON
      000000E2H   SFRSYM    DATA     BYTE      ISP_DATA
      000000B9H   SFRSYM    DATA     BYTE      SADEN
      000000B0H.0 SFRSYM    DATA     BIT       RXD
      000000A9H   SFRSYM    DATA     BYTE      SADDR
      000000B0H.1 SFRSYM    DATA     BIT       TXD
      000000A2H   SFRSYM    DATA     BYTE      AUXR1
      000000D0H.5 SFRSYM    DATA     BIT       F0
      000000D0H   SFRSYM    DATA     BYTE      PSW
      020000BEH   SYMBOL    XDATA    BYTE      saved_led_index
      00000037H   SYMBOL    IDATA    BYTE      led_index
      0100D289H   SYMBOL    CONST    ---       led_scan
      020000C5H   SYMBOL    XDATA    BYTE      saved_scan_loop_cnt
      0000003EH   SYMBOL    IDATA    BYTE      scan_loop_cnt

      01007C95H   BLOCK     CODE     ---       LVL=0
      ---         BLOCKEND  ---      ---       LVL=0

      01005A57H   BLOCK     CODE     ---       LVL=0
      01005A57H   LINE      CODE     ---       #94
      01005A57H   LINE      CODE     ---       #95
      01005A57H   LINE      CODE     ---       #96
      01005A5AH   LINE      CODE     ---       #98
      01005A5DH   LINE      CODE     ---       #100
      01005A7BH   LINE      CODE     ---       #101
      01005A83H   LINE      CODE     ---       #102
      01005A8EH   LINE      CODE     ---       #103
      01005A90H   LINE      CODE     ---       #107
      01005A99H   LINE      CODE     ---       #108
      01005A99H   LINE      CODE     ---       #110
LX51 LINKER/LOCATER V4.66.87.0                                                        06/02/2018  22:09:22  PAGE 108


      01005AA2H   LINE      CODE     ---       #112
      01005AA3H   LINE      CODE     ---       #113
      01005AA7H   LINE      CODE     ---       #114
      01005AA9H   LINE      CODE     ---       #115
      01005AB0H   LINE      CODE     ---       #116
      01005AB0H   LINE      CODE     ---       #117
      ---         BLOCKEND  ---      ---       LVL=0

      01006A64H   BLOCK     CODE     ---       LVL=0
      01006A64H   BLOCK     CODE     NEAR LAB  LVL=1
      00000004H   SYMBOL    DATA     BYTE      i
      00000002H   SYMBOL    DATA     BYTE      j
      ---         BLOCKEND  ---      ---       LVL=1
      01006A64H   LINE      CODE     ---       #120
      01006A64H   LINE      CODE     ---       #121
      01006A64H   LINE      CODE     ---       #123
      01006A6DH   LINE      CODE     ---       #125
      01006A6FH   LINE      CODE     ---       #126
      01006A6FH   LINE      CODE     ---       #127
      01006A6FH   LINE      CODE     ---       #128
      01006A6FH   LINE      CODE     ---       #129
      01006A6FH   LINE      CODE     ---       #131
      01006A6FH   LINE      CODE     ---       #132
      01006A72H   LINE      CODE     ---       #134
      01006A74H   LINE      CODE     ---       #135
      01006A7CH   LINE      CODE     ---       #136
      01006A7EH   LINE      CODE     ---       #137
      01006A80H   LINE      CODE     ---       #138
      01006A82H   LINE      CODE     ---       #139
      01006A84H   LINE      CODE     ---       #140
      01006A86H   LINE      CODE     ---       #141
      01006A88H   LINE      CODE     ---       #142
      01006A8BH   LINE      CODE     ---       #143
      01006A90H   LINE      CODE     ---       #144
      01006A95H   LINE      CODE     ---       #145
      01006A9AH   LINE      CODE     ---       #147
      01006A9AH   LINE      CODE     ---       #148
      01006A9AH   LINE      CODE     ---       #149
      01006A9AH   LINE      CODE     ---       #150
      01006A9AH   LINE      CODE     ---       #152
      01006A9AH   LINE      CODE     ---       #153
      01006A9DH   LINE      CODE     ---       #154
      ---         BLOCKEND  ---      ---       LVL=0

      010087ABH   BLOCK     CODE     ---       LVL=0
      010087ABH   LINE      CODE     ---       #156
      010087ABH   LINE      CODE     ---       #157
      010087ABH   LINE      CODE     ---       #158
      010087AFH   LINE      CODE     ---       #159
      ---         BLOCKEND  ---      ---       LVL=0

      0100839FH   BLOCK     CODE     ---       LVL=0
      00000007H   SYMBOL    DATA     BYTE      i
      0100839FH   LINE      CODE     ---       #162
      0100839FH   LINE      CODE     ---       #163
      0100839FH   LINE      CODE     ---       #164
      010083A5H   LINE      CODE     ---       #165
      010083B4H   LINE      CODE     ---       #166
      010083B4H   LINE      CODE     ---       #167
      ---         BLOCKEND  ---      ---       LVL=0

      0100827AH   BLOCK     CODE     ---       LVL=0
      00000007H   SYMBOL    DATA     BYTE      i
      0100827AH   LINE      CODE     ---       #169
      0100827AH   LINE      CODE     ---       #170
LX51 LINKER/LOCATER V4.66.87.0                                                        06/02/2018  22:09:22  PAGE 109


      0100827AH   LINE      CODE     ---       #171
      01008280H   LINE      CODE     ---       #172
      01008290H   LINE      CODE     ---       #173
      01008290H   LINE      CODE     ---       #174
      ---         BLOCKEND  ---      ---       LVL=0

      010088A7H   BLOCK     CODE     ---       LVL=0
      00000007H   SYMBOL    DATA     BYTE      i
      010088A7H   LINE      CODE     ---       #176
      010088A7H   LINE      CODE     ---       #177
      010088A7H   LINE      CODE     ---       #178
      010088ADH   LINE      CODE     ---       #179
      010088B5H   LINE      CODE     ---       #180
      010088B5H   LINE      CODE     ---       #181
      ---         BLOCKEND  ---      ---       LVL=0

      010088B6H   BLOCK     CODE     ---       LVL=0
      00000007H   SYMBOL    DATA     BYTE      i
      010088B6H   LINE      CODE     ---       #183
      010088B6H   LINE      CODE     ---       #184
      010088B6H   LINE      CODE     ---       #185
      010088BCH   LINE      CODE     ---       #186
      010088C4H   LINE      CODE     ---       #187
      010088C4H   LINE      CODE     ---       #188
      ---         BLOCKEND  ---      ---       LVL=0

      01006158H   BLOCK     CODE     ---       LVL=0
      00000007H   SYMBOL    DATA     BYTE      i
      00000005H   SYMBOL    DATA     CHAR      c
      01006158H   LINE      CODE     ---       #192
      01006158H   LINE      CODE     ---       #193
      01006158H   LINE      CODE     ---       #194
      0100615EH   LINE      CODE     ---       #195
      01006166H   LINE      CODE     ---       #196
      01006169H   LINE      CODE     ---       #197
      01006174H   LINE      CODE     ---       #198
      01006175H   LINE      CODE     ---       #199
      01006185H   LINE      CODE     ---       #200
      0100619EH   LINE      CODE     ---       #201
      0100619FH   LINE      CODE     ---       #202
      010061A7H   LINE      CODE     ---       #203
      010061A7H   LINE      CODE     ---       #204
      010061A7H   LINE      CODE     ---       #205
      ---         BLOCKEND  ---      ---       LVL=0

      010087BCH   BLOCK     CODE     ---       LVL=0
      010087BCH   LINE      CODE     ---       #207
      010087BCH   LINE      CODE     ---       #208
      010087BCH   LINE      CODE     ---       #209
      010087C5H   LINE      CODE     ---       #211
      010087C7H   LINE      CODE     ---       #213
      010087C7H   LINE      CODE     ---       #214
      010087CAH   LINE      CODE     ---       #215
      ---         BLOCKEND  ---      ---       LVL=0

      01008438H   BLOCK     CODE     ---       LVL=0
      01008438H   LINE      CODE     ---       #218
      01008438H   LINE      CODE     ---       #219
      01008438H   LINE      CODE     ---       #220
      01008441H   LINE      CODE     ---       #222
      01008444H   LINE      CODE     ---       #223
      01008447H   LINE      CODE     ---       #224
      0100844AH   LINE      CODE     ---       #226
      0100844CH   LINE      CODE     ---       #227
      ---         BLOCKEND  ---      ---       LVL=0
LX51 LINKER/LOCATER V4.66.87.0                                                        06/02/2018  22:09:22  PAGE 110



      01007660H   BLOCK     CODE     ---       LVL=0
      01007660H   LINE      CODE     ---       #229
      01007660H   LINE      CODE     ---       #230
      01007660H   LINE      CODE     ---       #231
      01007673H   LINE      CODE     ---       #232
      0100767AH   LINE      CODE     ---       #233
      0100767EH   LINE      CODE     ---       #234
      01007685H   LINE      CODE     ---       #235
      ---         BLOCKEND  ---      ---       LVL=0

      01007686H   BLOCK     CODE     ---       LVL=0
      01007686H   LINE      CODE     ---       #237
      01007686H   LINE      CODE     ---       #238
      01007686H   LINE      CODE     ---       #239
      01007699H   LINE      CODE     ---       #240
      010076A0H   LINE      CODE     ---       #241
      010076A4H   LINE      CODE     ---       #242
      010076ABH   LINE      CODE     ---       #243
      ---         BLOCKEND  ---      ---       LVL=0

      ---         MODULE    ---      ---       ALARM
      01006800H   PUBLIC    CODE     ---       alarm1_sync_to_rtc
      00000020H.0 PUBLIC    BIT      BIT       ?alarm1_set_enable?BIT
      01008D1DH   PUBLIC    CODE     ---       alarm1_set_enable
      01008D7FH   PUBLIC    CODE     ---       alarm1_test_enable
      01005FC6H   PUBLIC    CODE     ---       alarm0_sync_to_rtc
      0100893BH   PUBLIC    CODE     ---       alarm0_inc_hour
      01008CD5H   PUBLIC    CODE     ---       alarm0_get_hour
      0100892DH   PUBLIC    CODE     ---       alarm0_inc_min
      01008CCFH   PUBLIC    CODE     ---       alarm0_get_min
      00000020H.1 PUBLIC    BIT      BIT       ?alarm0_set_hour_12?BIT
      01000026H   PUBLIC    CODE     ---       alarm0_set_hour_12
      01008D7CH   PUBLIC    CODE     ---       alarm0_get_hour_12
      01008CC9H   PUBLIC    CODE     ---       alarm0_get_day_mask
      00000020H.0 PUBLIC    BIT      BIT       ?_alarm0_set_enable?BIT
      010055E7H   PUBLIC    CODE     ---       _alarm0_set_enable
      01007133H   PUBLIC    CODE     ---       _alarm0_test_enable
      01008BB9H   PUBLIC    CODE     ---       alarm_leave_powersave
      01008BB0H   PUBLIC    CODE     ---       alarm_enter_powersave
      010054BAH   PUBLIC    CODE     ---       alarm_dump
      01007888H   PUBLIC    CODE     ---       alarm_switch_off
      0100818DH   PUBLIC    CODE     ---       alarm_switch_on
      01008BA7H   PUBLIC    CODE     ---       alarm_initialize
      01004E27H   PUBLIC    CODE     ---       scan_alarm
      010072FAH   PUBLIC    CODE     ---       _alarm_proc
      00000023H.7 SYMBOL    BIT      BIT       alarm1_enable
      020000D7H   SYMBOL    XDATA    ---       alarm0
      01006EB7H   SYMBOL    CODE     ---       alarm_load_rom
      01006E1BH   SYMBOL    CODE     ---       alarm_save_rom
      00000024H.0 SYMBOL    BIT      BIT       alarm0_is12

      0100844DH   BLOCK     CODE     ---       LVL=0
      ---         BLOCKEND  ---      ---       LVL=0

      010072FAH   BLOCK     CODE     ---       LVL=0
      0200000CH   SYMBOL    XDATA    BYTE      ev
      010072FAH   LINE      CODE     ---       #15
      010072FFH   LINE      CODE     ---       #16
      010072FFH   LINE      CODE     ---       #18
      01007302H   LINE      CODE     ---       #19
      0100730BH   LINE      CODE     ---       #20
      01007310H   LINE      CODE     ---       #21
      01007310H   LINE      CODE     ---       #23
      01007317H   LINE      CODE     ---       #24
LX51 LINKER/LOCATER V4.66.87.0                                                        06/02/2018  22:09:22  PAGE 111


      01007320H   LINE      CODE     ---       #25
      01007325H   LINE      CODE     ---       #26
      01007325H   LINE      CODE     ---       #27
      ---         BLOCKEND  ---      ---       LVL=0

      01004E27H   BLOCK     CODE     ---       LVL=0
      01004E27H   BLOCK     CODE     NEAR LAB  LVL=1
      00000020H.0 SYMBOL    BIT      BIT       alarm0_hit
      00000020H.1 SYMBOL    BIT      BIT       alarm1_hit
      ---         BLOCKEND  ---      ---       LVL=1
      01004E27H   LINE      CODE     ---       #29
      01004E27H   LINE      CODE     ---       #30
      01004E27H   LINE      CODE     ---       #33
      01004E2CH   LINE      CODE     ---       #34
      01004E33H   LINE      CODE     ---       #35
      01004E39H   LINE      CODE     ---       #36
      01004E3DH   LINE      CODE     ---       #37
      01004E41H   LINE      CODE     ---       #38
      01004E46H   LINE      CODE     ---       #40
      01004E49H   LINE      CODE     ---       #41
      01004E63H   LINE      CODE     ---       #42
      01004E68H   LINE      CODE     ---       #43
      01004E6BH   LINE      CODE     ---       #44
      01004E6BH   LINE      CODE     ---       #45
      01004E74H   LINE      CODE     ---       #46
      01004E77H   LINE      CODE     ---       #47
      01004E79H   LINE      CODE     ---       #48
      01004E79H   LINE      CODE     ---       #49
      01004E79H   LINE      CODE     ---       #50
      01004E79H   LINE      CODE     ---       #53
      01004E7CH   LINE      CODE     ---       #54
      01004E81H   LINE      CODE     ---       #55
      01004E8DH   LINE      CODE     ---       #56
      01004E8DH   LINE      CODE     ---       #57
      01004E92H   LINE      CODE     ---       #58
      01004E95H   LINE      CODE     ---       #59
      01004E95H   LINE      CODE     ---       #60
      01004E9EH   LINE      CODE     ---       #61
      01004E9EH   LINE      CODE     ---       #62
      01004E9EH   LINE      CODE     ---       #63
      ---         BLOCKEND  ---      ---       LVL=0

      01006EB7H   BLOCK     CODE     ---       LVL=0
      01006EB7H   LINE      CODE     ---       #65
      01006EB7H   LINE      CODE     ---       #66
      01006EB7H   LINE      CODE     ---       #67
      01006EC1H   LINE      CODE     ---       #68
      01006ECBH   LINE      CODE     ---       #69
      01006ED5H   LINE      CODE     ---       #70
      01006EDFH   LINE      CODE     ---       #71
      01006EE9H   LINE      CODE     ---       #72
      ---         BLOCKEND  ---      ---       LVL=0

      01006E1BH   BLOCK     CODE     ---       LVL=0
      01006E1BH   LINE      CODE     ---       #74
      01006E1BH   LINE      CODE     ---       #75
      01006E1BH   LINE      CODE     ---       #76
      01006E25H   LINE      CODE     ---       #77
      01006E2FH   LINE      CODE     ---       #78
      01006E39H   LINE      CODE     ---       #79
      01006E45H   LINE      CODE     ---       #80
      ---         BLOCKEND  ---      ---       LVL=0

      01008BA7H   BLOCK     CODE     ---       LVL=0
      01008BA7H   LINE      CODE     ---       #83
LX51 LINKER/LOCATER V4.66.87.0                                                        06/02/2018  22:09:22  PAGE 112


      01008BA7H   LINE      CODE     ---       #84
      01008BA7H   LINE      CODE     ---       #85
      ---         BLOCKEND  ---      ---       LVL=0

      0100818DH   BLOCK     CODE     ---       LVL=0
      0100818DH   LINE      CODE     ---       #88
      0100818DH   LINE      CODE     ---       #89
      0100818DH   LINE      CODE     ---       #90
      01008196H   LINE      CODE     ---       #91
      01008199H   LINE      CODE     ---       #92
      0100819CH   LINE      CODE     ---       #93
      0100819FH   LINE      CODE     ---       #94
      010081A2H   LINE      CODE     ---       #95
      ---         BLOCKEND  ---      ---       LVL=0

      01007888H   BLOCK     CODE     ---       LVL=0
      01007888H   LINE      CODE     ---       #98
      01007888H   LINE      CODE     ---       #99
      01007888H   LINE      CODE     ---       #100
      01007891H   LINE      CODE     ---       #101
      01007896H   LINE      CODE     ---       #102
      0100789DH   LINE      CODE     ---       #103
      010078A3H   LINE      CODE     ---       #104
      010078A8H   LINE      CODE     ---       #105
      ---         BLOCKEND  ---      ---       LVL=0

      010054BAH   BLOCK     CODE     ---       LVL=0
      010054BAH   LINE      CODE     ---       #108
      010054BAH   LINE      CODE     ---       #109
      010054BAH   LINE      CODE     ---       #110
      010054C4H   LINE      CODE     ---       #111
      010054CEH   LINE      CODE     ---       #112
      010054D8H   LINE      CODE     ---       #113
      010054F6H   LINE      CODE     ---       #114
      01005514H   LINE      CODE     ---       #115
      ---         BLOCKEND  ---      ---       LVL=0

      01008BB0H   BLOCK     CODE     ---       LVL=0
      01008BB0H   LINE      CODE     ---       #117
      01008BB0H   LINE      CODE     ---       #118
      01008BB0H   LINE      CODE     ---       #119
      ---         BLOCKEND  ---      ---       LVL=0

      01008BB9H   BLOCK     CODE     ---       LVL=0
      01008BB9H   LINE      CODE     ---       #122
      01008BB9H   LINE      CODE     ---       #123
      01008BB9H   LINE      CODE     ---       #124
      ---         BLOCKEND  ---      ---       LVL=0

      01007133H   BLOCK     CODE     ---       LVL=0
      02000019H   SYMBOL    XDATA    BYTE      day
      01007133H   LINE      CODE     ---       #128
      01007138H   LINE      CODE     ---       #129
      01007138H   LINE      CODE     ---       #130
      01007145H   LINE      CODE     ---       #131
      01007161H   LINE      CODE     ---       #132
      ---         BLOCKEND  ---      ---       LVL=0

      010055E7H   BLOCK     CODE     ---       LVL=0
      02000014H   SYMBOL    XDATA    BYTE      day
      00000020H.0 SYMBOL    BIT      BIT       enable
      010055E7H   LINE      CODE     ---       #135
      010055ECH   LINE      CODE     ---       #136
      010055ECH   LINE      CODE     ---       #137
      0100560EH   LINE      CODE     ---       #138
LX51 LINKER/LOCATER V4.66.87.0                                                        06/02/2018  22:09:22  PAGE 113


      01005623H   LINE      CODE     ---       #139
      0100562FH   LINE      CODE     ---       #140
      01005632H   LINE      CODE     ---       #141
      01005634H   LINE      CODE     ---       #142
      0100563CH   LINE      CODE     ---       #143
      0100563CH   LINE      CODE     ---       #144
      ---         BLOCKEND  ---      ---       LVL=0

      01008CC9H   BLOCK     CODE     ---       LVL=0
      01008CC9H   LINE      CODE     ---       #148
      01008CC9H   LINE      CODE     ---       #149
      01008CC9H   LINE      CODE     ---       #150
      01008CCEH   LINE      CODE     ---       #151
      ---         BLOCKEND  ---      ---       LVL=0

      01008D7CH   BLOCK     CODE     ---       LVL=0
      01008D7CH   LINE      CODE     ---       #153
      01008D7CH   LINE      CODE     ---       #154
      01008D7CH   LINE      CODE     ---       #155
      01008D7EH   LINE      CODE     ---       #156
      ---         BLOCKEND  ---      ---       LVL=0

      01000026H   BLOCK     CODE     ---       LVL=0
      00000020H.1 SYMBOL    BIT      BIT       enable
      01000026H   LINE      CODE     ---       #158
      01000026H   LINE      CODE     ---       #159
      01000026H   LINE      CODE     ---       #160
      0100002AH   LINE      CODE     ---       #161
      ---         BLOCKEND  ---      ---       LVL=0

      01008CCFH   BLOCK     CODE     ---       LVL=0
      01008CCFH   LINE      CODE     ---       #164
      01008CCFH   LINE      CODE     ---       #165
      01008CCFH   LINE      CODE     ---       #166
      01008CD4H   LINE      CODE     ---       #167
      ---         BLOCKEND  ---      ---       LVL=0

      0100892DH   BLOCK     CODE     ---       LVL=0
      0100892DH   LINE      CODE     ---       #169
      0100892DH   LINE      CODE     ---       #170
      0100892DH   LINE      CODE     ---       #171
      0100893AH   LINE      CODE     ---       #172
      ---         BLOCKEND  ---      ---       LVL=0

      01008CD5H   BLOCK     CODE     ---       LVL=0
      01008CD5H   LINE      CODE     ---       #174
      01008CD5H   LINE      CODE     ---       #175
      01008CD5H   LINE      CODE     ---       #176
      01008CDAH   LINE      CODE     ---       #177
      ---         BLOCKEND  ---      ---       LVL=0

      0100893BH   BLOCK     CODE     ---       LVL=0
      0100893BH   LINE      CODE     ---       #179
      0100893BH   LINE      CODE     ---       #180
      0100893BH   LINE      CODE     ---       #181
      01008948H   LINE      CODE     ---       #182
      ---         BLOCKEND  ---      ---       LVL=0

      01005FC6H   BLOCK     CODE     ---       LVL=0
      01005FC6H   LINE      CODE     ---       #184
      01005FC6H   LINE      CODE     ---       #185
      01005FC6H   LINE      CODE     ---       #186
      01005FCFH   LINE      CODE     ---       #187
      01005FD4H   LINE      CODE     ---       #188
      01005FD9H   LINE      CODE     ---       #189
LX51 LINKER/LOCATER V4.66.87.0                                                        06/02/2018  22:09:22  PAGE 114


      01005FE0H   LINE      CODE     ---       #190
      01005FE8H   LINE      CODE     ---       #191
      01005FF0H   LINE      CODE     ---       #192
      01005FF5H   LINE      CODE     ---       #193
      01005FFAH   LINE      CODE     ---       #195
      01005FFFH   LINE      CODE     ---       #196
      0100600EH   LINE      CODE     ---       #197
      01006012H   LINE      CODE     ---       #198
      ---         BLOCKEND  ---      ---       LVL=0

      01008D7FH   BLOCK     CODE     ---       LVL=0
      01008D7FH   LINE      CODE     ---       #201
      01008D7FH   LINE      CODE     ---       #202
      01008D7FH   LINE      CODE     ---       #203
      01008D81H   LINE      CODE     ---       #204
      ---         BLOCKEND  ---      ---       LVL=0

      01008D1DH   BLOCK     CODE     ---       LVL=0
      00000020H.0 SYMBOL    BIT      BIT       enable
      01008D1DH   LINE      CODE     ---       #206
      01008D1DH   LINE      CODE     ---       #207
      01008D1DH   LINE      CODE     ---       #208
      01008D21H   LINE      CODE     ---       #209
      ---         BLOCKEND  ---      ---       LVL=0

      01006800H   BLOCK     CODE     ---       LVL=0
      01006800H   LINE      CODE     ---       #211
      01006800H   LINE      CODE     ---       #212
      01006800H   LINE      CODE     ---       #213
      01006809H   LINE      CODE     ---       #214
      0100680EH   LINE      CODE     ---       #215
      01006813H   LINE      CODE     ---       #216
      0100681AH   LINE      CODE     ---       #217
      0100681FH   LINE      CODE     ---       #218
      01006824H   LINE      CODE     ---       #219
      01006829H   LINE      CODE     ---       #221
      0100682EH   LINE      CODE     ---       #222
      01006837H   LINE      CODE     ---       #223
      0100683AH   LINE      CODE     ---       #224
      ---         BLOCKEND  ---      ---       LVL=0

      ---         MODULE    ---      ---       POWER
      00000025H.1 PUBLIC    BIT      BIT       powersave_flag
      01008D8BH   PUBLIC    CODE     ---       power_get_volume
      01008D72H   PUBLIC    CODE     ---       power_5v_get_enable
      00000020H.1 PUBLIC    BIT      BIT       ?power_5v_enable?BIT
      01007F55H   PUBLIC    CODE     ---       power_5v_enable
      01008BC2H   PUBLIC    CODE     ---       power_reset_powersave_to
      01008D88H   PUBLIC    CODE     ---       power_clr_flag
      01008D85H   PUBLIC    CODE     ---       power_set_flag
      01008D82H   PUBLIC    CODE     ---       power_test_flag
      01007015H   PUBLIC    CODE     ---       power_test_powersave_to
      0100778CH   PUBLIC    CODE     ---       power_inc_powersave_to
      01008291H   PUBLIC    CODE     ---       power_get_powersave_to
      01008CDBH   PUBLIC    CODE     ---       power_get_powersave_to_s
      01006FE5H   PUBLIC    CODE     ---       power_leave_powersave
      01006291H   PUBLIC    CODE     ---       power_enter_powersave
      01008011H   PUBLIC    CODE     ---       _power_proc
      01006EEAH   PUBLIC    CODE     ---       power_initialize
      00000080H   SFRSYM    DATA     BYTE      P0
      00000090H   SFRSYM    DATA     BYTE      P1
      000000A0H   SFRSYM    DATA     BYTE      P2
      000000B0H   SFRSYM    DATA     BYTE      P3
      000000C0H   SFRSYM    DATA     BYTE      XICON
      000000B0H.4 SFRSYM    DATA     BIT       T0
LX51 LINKER/LOCATER V4.66.87.0                                                        06/02/2018  22:09:22  PAGE 115


      000000D0H.6 SFRSYM    DATA     BIT       AC
      000000E8H   SFRSYM    DATA     BYTE      P4
      000000B0H.5 SFRSYM    DATA     BIT       T1
      000000E6H   SFRSYM    DATA     BYTE      ISP_TRIG
      00000090H.0 SFRSYM    DATA     BIT       T2
      000000A8H.7 SFRSYM    DATA     BIT       EA
      000000A8H.6 SFRSYM    DATA     BIT       EC
      00000098H.7 SFRSYM    DATA     BIT       FE
      000000A8H   SFRSYM    DATA     BYTE      IE
      000000C8H.6 SFRSYM    DATA     BIT       EXF2
      000000B0H.7 SFRSYM    DATA     BIT       RD
      000000A8H.4 SFRSYM    DATA     BIT       ES
      000000B8H   SFRSYM    DATA     BYTE      IP
      00000098H.0 SFRSYM    DATA     BIT       RI
      000000B0H.2 SFRSYM    DATA     BIT       INT0
      000000D0H.7 SFRSYM    DATA     BIT       CY
      00000098H.1 SFRSYM    DATA     BIT       TI
      000000B0H.3 SFRSYM    DATA     BIT       INT1
      000000CBH   SFRSYM    DATA     BYTE      RCAP2H
      000000E5H   SFRSYM    DATA     BYTE      ISP_CMD
      000000B8H.4 SFRSYM    DATA     BIT       PS
      00000081H   SFRSYM    DATA     BYTE      SP
      00000090H.1 SFRSYM    DATA     BIT       T2EX
      000000D0H.2 SFRSYM    DATA     BIT       OV
      000000CAH   SFRSYM    DATA     BYTE      RCAP2L
      000000C8H.1 SFRSYM    DATA     BIT       C_T2
      000000B0H.6 SFRSYM    DATA     BIT       WR
      000000C8H.5 SFRSYM    DATA     BIT       RCLK
      000000C8H.4 SFRSYM    DATA     BIT       TCLK
      00000080H.0 SFRSYM    DATA     BIT       P00
      00000099H   SFRSYM    DATA     BYTE      SBUF
      00000087H   SFRSYM    DATA     BYTE      PCON
      00000090H.0 SFRSYM    DATA     BIT       P10
      00000080H.1 SFRSYM    DATA     BIT       P01
      000000A0H.0 SFRSYM    DATA     BIT       P20
      00000090H.1 SFRSYM    DATA     BIT       P11
      00000080H.2 SFRSYM    DATA     BIT       P02
      000000E3H   SFRSYM    DATA     BYTE      ISP_ADDRH
      000000B0H.0 SFRSYM    DATA     BIT       P30
      000000A0H.1 SFRSYM    DATA     BIT       P21
      00000090H.2 SFRSYM    DATA     BIT       P12
      00000080H.3 SFRSYM    DATA     BIT       P03
      00000098H   SFRSYM    DATA     BYTE      SCON
      000000B0H.1 SFRSYM    DATA     BIT       P31
      000000A0H.2 SFRSYM    DATA     BIT       P22
      00000090H.3 SFRSYM    DATA     BIT       P13
      00000080H.4 SFRSYM    DATA     BIT       P04
      000000E8H.0 SFRSYM    DATA     BIT       P40
      00000089H   SFRSYM    DATA     BYTE      TMOD
      00000088H   SFRSYM    DATA     BYTE      TCON
      000000B0H.2 SFRSYM    DATA     BIT       P32
      000000A0H.3 SFRSYM    DATA     BIT       P23
      00000090H.4 SFRSYM    DATA     BIT       P14
      00000080H.5 SFRSYM    DATA     BIT       P05
      000000E8H.1 SFRSYM    DATA     BIT       P41
      000000B0H.3 SFRSYM    DATA     BIT       P33
      000000A0H.4 SFRSYM    DATA     BIT       P24
      00000090H.5 SFRSYM    DATA     BIT       P15
      00000080H.6 SFRSYM    DATA     BIT       P06
      000000E4H   SFRSYM    DATA     BYTE      ISP_ADDRL
      000000E8H.2 SFRSYM    DATA     BIT       P42
      000000B0H.4 SFRSYM    DATA     BIT       P34
      000000A0H.5 SFRSYM    DATA     BIT       P25
      00000090H.6 SFRSYM    DATA     BIT       P16
      00000080H.7 SFRSYM    DATA     BIT       P07
LX51 LINKER/LOCATER V4.66.87.0                                                        06/02/2018  22:09:22  PAGE 116


      000000E8H.3 SFRSYM    DATA     BIT       P43
      000000B0H.5 SFRSYM    DATA     BIT       P35
      000000A0H.6 SFRSYM    DATA     BIT       P26
      00000090H.7 SFRSYM    DATA     BIT       P17
      000000E8H.4 SFRSYM    DATA     BIT       P44
      000000B0H.6 SFRSYM    DATA     BIT       P36
      000000A0H.7 SFRSYM    DATA     BIT       P27
      000000E8H.5 SFRSYM    DATA     BIT       P45
      000000B0H.7 SFRSYM    DATA     BIT       P37
      000000E8H.6 SFRSYM    DATA     BIT       P46
      00000088H.1 SFRSYM    DATA     BIT       IE0
      00000088H.3 SFRSYM    DATA     BIT       IE1
      0000008EH   SFRSYM    DATA     BYTE      AUXR
      000000F0H   SFRSYM    DATA     BYTE      B
      000000C8H.0 SFRSYM    DATA     BIT       CP_RL2
      000000E0H   SFRSYM    DATA     BYTE      ACC
      000000A8H.1 SFRSYM    DATA     BIT       ET0
      000000A8H.3 SFRSYM    DATA     BIT       ET1
      00000088H.5 SFRSYM    DATA     BIT       TF0
      000000A8H.5 SFRSYM    DATA     BIT       ET2
      00000088H.7 SFRSYM    DATA     BIT       TF1
      000000C8H.7 SFRSYM    DATA     BIT       TF2
      00000098H.2 SFRSYM    DATA     BIT       RB8
      0000008CH   SFRSYM    DATA     BYTE      TH0
      000000A8H.0 SFRSYM    DATA     BIT       EX0
      00000088H.0 SFRSYM    DATA     BIT       IT0
      0000008DH   SFRSYM    DATA     BYTE      TH1
      00000098H.3 SFRSYM    DATA     BIT       TB8
      000000A8H.2 SFRSYM    DATA     BIT       EX1
      00000088H.2 SFRSYM    DATA     BIT       IT1
      000000CDH   SFRSYM    DATA     BYTE      TH2
      000000D0H.0 SFRSYM    DATA     BIT       P
      00000098H.7 SFRSYM    DATA     BIT       SM0
      0000008AH   SFRSYM    DATA     BYTE      TL0
      00000098H.6 SFRSYM    DATA     BIT       SM1
      0000008BH   SFRSYM    DATA     BYTE      TL1
      00000098H.5 SFRSYM    DATA     BIT       SM2
      000000CCH   SFRSYM    DATA     BYTE      TL2
      000000B8H.1 SFRSYM    DATA     BIT       PT0
      000000B8H.3 SFRSYM    DATA     BIT       PT1
      000000D0H.3 SFRSYM    DATA     BIT       RS0
      000000E7H   SFRSYM    DATA     BYTE      ISP_CONTR
      000000B8H.5 SFRSYM    DATA     BIT       PT2
      00000088H.4 SFRSYM    DATA     BIT       TR0
      000000D0H.4 SFRSYM    DATA     BIT       RS1
      00000088H.6 SFRSYM    DATA     BIT       TR1
      000000C8H.2 SFRSYM    DATA     BIT       TR2
      000000B8H.0 SFRSYM    DATA     BIT       PX0
      000000E1H   SFRSYM    DATA     BYTE      WDT_CONTR
      000000B8H.2 SFRSYM    DATA     BIT       PX1
      00000083H   SFRSYM    DATA     BYTE      DPH
      00000082H   SFRSYM    DATA     BYTE      DPL
      000000B7H   SFRSYM    DATA     BYTE      IPH
      000000C8H.3 SFRSYM    DATA     BIT       EXEN2
      00000098H.4 SFRSYM    DATA     BIT       REN
      000000C9H   SFRSYM    DATA     BYTE      T2MOD
      000000C8H   SFRSYM    DATA     BYTE      T2CON
      000000E2H   SFRSYM    DATA     BYTE      ISP_DATA
      000000B9H   SFRSYM    DATA     BYTE      SADEN
      000000B0H.6 SFRSYM    DATA     BIT       POWER_5V_EN
      000000B0H.0 SFRSYM    DATA     BIT       RXD
      000000A9H   SFRSYM    DATA     BYTE      SADDR
      000000B0H.1 SFRSYM    DATA     BIT       TXD
      000000A2H   SFRSYM    DATA     BYTE      AUXR1
      000000D0H.5 SFRSYM    DATA     BIT       F0
LX51 LINKER/LOCATER V4.66.87.0                                                        06/02/2018  22:09:22  PAGE 117


      000000D0H   SFRSYM    DATA     BYTE      PSW
      020000E2H   SYMBOL    XDATA    BYTE      last_ps_s
      020000E3H   SYMBOL    XDATA    BYTE      powersave_to_s

      01006EEAH   BLOCK     CODE     ---       LVL=0
      01006EEAH   BLOCK     CODE     NEAR LAB  LVL=1
      00000007H   SYMBOL    DATA     BYTE      powersave_to
      ---         BLOCKEND  ---      ---       LVL=1
      01006EEAH   LINE      CODE     ---       #31
      01006EEAH   LINE      CODE     ---       #32
      01006EEAH   LINE      CODE     ---       #34
      01006EF3H   LINE      CODE     ---       #35
      01006EF8H   LINE      CODE     ---       #36
      01006F03H   LINE      CODE     ---       #37
      01006F0AH   LINE      CODE     ---       #38
      01006F12H   LINE      CODE     ---       #39
      01006F18H   LINE      CODE     ---       #40
      01006F18H   LINE      CODE     ---       #41
      01006F1AH   LINE      CODE     ---       #42
      01006F1CH   LINE      CODE     ---       #43
      ---         BLOCKEND  ---      ---       LVL=0

      01008011H   BLOCK     CODE     ---       LVL=0
      0200000CH   SYMBOL    XDATA    BYTE      ev
      01008011H   LINE      CODE     ---       #45
      01008016H   LINE      CODE     ---       #46
      01008016H   LINE      CODE     ---       #47
      01008023H   LINE      CODE     ---       #48
      ---         BLOCKEND  ---      ---       LVL=0

      01006291H   BLOCK     CODE     ---       LVL=0
      01006291H   LINE      CODE     ---       #51
      01006291H   LINE      CODE     ---       #52
      01006291H   LINE      CODE     ---       #53
      0100629AH   LINE      CODE     ---       #54
      0100629DH   LINE      CODE     ---       #55
      010062A0H   LINE      CODE     ---       #56
      010062A3H   LINE      CODE     ---       #57
      010062A6H   LINE      CODE     ---       #58
      010062A9H   LINE      CODE     ---       #59
      010062ACH   LINE      CODE     ---       #60
      010062AFH   LINE      CODE     ---       #61
      010062B2H   LINE      CODE     ---       #62
      010062B5H   LINE      CODE     ---       #63
      010062B8H   LINE      CODE     ---       #64
      010062BBH   LINE      CODE     ---       #65
      010062BEH   LINE      CODE     ---       #66
      010062C1H   LINE      CODE     ---       #67
      010062C4H   LINE      CODE     ---       #68
      010062C9H   LINE      CODE     ---       #72
      010062CCH   LINE      CODE     ---       #74
      010062CFH   LINE      CODE     ---       #75
      010062D4H   LINE      CODE     ---       #76
      010062D7H   LINE      CODE     ---       #77
      010062DCH   LINE      CODE     ---       #78
      010062DCH   LINE      CODE     ---       #79
      010062DCH   LINE      CODE     ---       #80
      010062DCH   LINE      CODE     ---       #81
      ---         BLOCKEND  ---      ---       LVL=0

      01006FE5H   BLOCK     CODE     ---       LVL=0
      01006FE5H   LINE      CODE     ---       #83
      01006FE5H   LINE      CODE     ---       #84
      01006FE5H   LINE      CODE     ---       #86
      01006FE8H   LINE      CODE     ---       #87
LX51 LINKER/LOCATER V4.66.87.0                                                        06/02/2018  22:09:22  PAGE 118


      01006FEBH   LINE      CODE     ---       #88
      01006FEEH   LINE      CODE     ---       #89
      01006FF1H   LINE      CODE     ---       #90
      01006FF4H   LINE      CODE     ---       #91
      01006FF7H   LINE      CODE     ---       #92
      01006FFAH   LINE      CODE     ---       #93
      01006FFDH   LINE      CODE     ---       #94
      01007000H   LINE      CODE     ---       #95
      01007003H   LINE      CODE     ---       #96
      01007006H   LINE      CODE     ---       #97
      01007009H   LINE      CODE     ---       #98
      0100700CH   LINE      CODE     ---       #99
      ---         BLOCKEND  ---      ---       LVL=0

      01008CDBH   BLOCK     CODE     ---       LVL=0
      01008CDBH   LINE      CODE     ---       #102
      01008CDBH   LINE      CODE     ---       #103
      01008CDBH   LINE      CODE     ---       #104
      01008CE0H   LINE      CODE     ---       #105
      ---         BLOCKEND  ---      ---       LVL=0

      01008291H   BLOCK     CODE     ---       LVL=0
      01008291H   LINE      CODE     ---       #107
      01008291H   LINE      CODE     ---       #108
      01008291H   LINE      CODE     ---       #109
      0100829FH   LINE      CODE     ---       #110
      010082A2H   LINE      CODE     ---       #111
      010082A5H   LINE      CODE     ---       #112
      010082A8H   LINE      CODE     ---       #113
      ---         BLOCKEND  ---      ---       LVL=0

      0100778CH   BLOCK     CODE     ---       LVL=0
      0100778CH   LINE      CODE     ---       #117
      0100778CH   LINE      CODE     ---       #118
      0100778CH   LINE      CODE     ---       #119
      0100779CH   LINE      CODE     ---       #120
      0100779CH   LINE      CODE     ---       #121
      010077A3H   LINE      CODE     ---       #122
      010077A3H   LINE      CODE     ---       #123
      010077AAH   LINE      CODE     ---       #124
      010077AAH   LINE      CODE     ---       #125
      010077AFH   LINE      CODE     ---       #126
      010077AFH   LINE      CODE     ---       #127
      ---         BLOCKEND  ---      ---       LVL=0

      01007015H   BLOCK     CODE     ---       LVL=0
      01007015H   LINE      CODE     ---       #129
      01007015H   LINE      CODE     ---       #130
      01007015H   LINE      CODE     ---       #132
      0100702FH   LINE      CODE     ---       #133
      01007038H   LINE      CODE     ---       #134
      01007041H   LINE      CODE     ---       #135
      01007043H   LINE      CODE     ---       #136
      01007043H   LINE      CODE     ---       #137
      01007044H   LINE      CODE     ---       #138
      ---         BLOCKEND  ---      ---       LVL=0

      01008D82H   BLOCK     CODE     ---       LVL=0
      01008D82H   LINE      CODE     ---       #140
      01008D82H   LINE      CODE     ---       #141
      01008D82H   LINE      CODE     ---       #142
      01008D84H   LINE      CODE     ---       #143
      ---         BLOCKEND  ---      ---       LVL=0

      01008D85H   BLOCK     CODE     ---       LVL=0
LX51 LINKER/LOCATER V4.66.87.0                                                        06/02/2018  22:09:22  PAGE 119


      01008D85H   LINE      CODE     ---       #145
      01008D85H   LINE      CODE     ---       #146
      01008D85H   LINE      CODE     ---       #147
      01008D87H   LINE      CODE     ---       #148
      ---         BLOCKEND  ---      ---       LVL=0

      01008D88H   BLOCK     CODE     ---       LVL=0
      01008D88H   LINE      CODE     ---       #150
      01008D88H   LINE      CODE     ---       #151
      01008D88H   LINE      CODE     ---       #152
      01008D8AH   LINE      CODE     ---       #153
      ---         BLOCKEND  ---      ---       LVL=0

      01008BC2H   BLOCK     CODE     ---       LVL=0
      01008BC2H   LINE      CODE     ---       #155
      01008BC2H   LINE      CODE     ---       #156
      01008BC2H   LINE      CODE     ---       #157
      01008BCAH   LINE      CODE     ---       #158
      ---         BLOCKEND  ---      ---       LVL=0

      01007F55H   BLOCK     CODE     ---       LVL=0
      00000020H.1 SYMBOL    BIT      BIT       enable
      01007F55H   LINE      CODE     ---       #160
      01007F55H   LINE      CODE     ---       #161
      01007F55H   LINE      CODE     ---       #162
      01007F6AH   LINE      CODE     ---       #164
      01007F6FH   LINE      CODE     ---       #165
      ---         BLOCKEND  ---      ---       LVL=0

      01008D72H   BLOCK     CODE     ---       LVL=0
      01008D72H   LINE      CODE     ---       #167
      01008D72H   LINE      CODE     ---       #168
      01008D72H   LINE      CODE     ---       #169
      01008D75H   LINE      CODE     ---       #170
      ---         BLOCKEND  ---      ---       LVL=0

      01008D8BH   BLOCK     CODE     ---       LVL=0
      01008D8BH   LINE      CODE     ---       #173
      01008D8BH   LINE      CODE     ---       #174
      01008D8BH   LINE      CODE     ---       #179
      01008D8DH   LINE      CODE     ---       #181
      ---         BLOCKEND  ---      ---       LVL=0

      ---         MODULE    ---      ---       MISC
      01008957H   PUBLIC    CODE     ---       _delay_ms
      01008949H   PUBLIC    CODE     ---       _delay_10us
      01008CE1H   SYMBOL    CODE     ---       internal_delay_10us
      01008B5AH   SYMBOL    CODE     ---       internal_delay_ms

      01008CE1H   BLOCK     CODE     ---       LVL=0
      01008CE1H   BLOCK     CODE     NEAR LAB  LVL=1
      00000007H   SYMBOL    DATA     BYTE      i
      ---         BLOCKEND  ---      ---       LVL=1
      01008CE1H   LINE      CODE     ---       #7
      01008CE1H   LINE      CODE     ---       #8
      01008CE1H   LINE      CODE     ---       #11
      01008CE2H   LINE      CODE     ---       #12
      01008CE4H   LINE      CODE     ---       #13
      01008CE6H   LINE      CODE     ---       #14
      ---         BLOCKEND  ---      ---       LVL=0

      01008B5AH   BLOCK     CODE     ---       LVL=0
      01008B5AH   BLOCK     CODE     NEAR LAB  LVL=1
      00000007H   SYMBOL    DATA     BYTE      i
      00000006H   SYMBOL    DATA     BYTE      j
LX51 LINKER/LOCATER V4.66.87.0                                                        06/02/2018  22:09:22  PAGE 120


      ---         BLOCKEND  ---      ---       LVL=1
      01008B5AH   LINE      CODE     ---       #16
      01008B5AH   LINE      CODE     ---       #17
      01008B5AH   LINE      CODE     ---       #20
      01008B5BH   LINE      CODE     ---       #21
      01008B5DH   LINE      CODE     ---       #22
      01008B5FH   LINE      CODE     ---       #24
      01008B5FH   LINE      CODE     ---       #25
      01008B61H   LINE      CODE     ---       #26
      01008B63H   LINE      CODE     ---       #27
      ---         BLOCKEND  ---      ---       LVL=0

      01008949H   BLOCK     CODE     ---       LVL=0
      00000006H   SYMBOL    DATA     BYTE      t
      01008949H   LINE      CODE     ---       #53
      0100894BH   LINE      CODE     ---       #54
      0100894BH   LINE      CODE     ---       #55
      01008951H   LINE      CODE     ---       #56
      01008954H   LINE      CODE     ---       #57
      01008956H   LINE      CODE     ---       #58
      ---         BLOCKEND  ---      ---       LVL=0

      01008957H   BLOCK     CODE     ---       LVL=0
      00000005H   SYMBOL    DATA     BYTE      t
      01008957H   LINE      CODE     ---       #60
      01008959H   LINE      CODE     ---       #61
      01008959H   LINE      CODE     ---       #62
      0100895FH   LINE      CODE     ---       #63
      01008962H   LINE      CODE     ---       #64
      01008964H   LINE      CODE     ---       #65
      ---         BLOCKEND  ---      ---       LVL=0

      ---         MODULE    ---      ---       MOD_COMMON
      00000022H.7 PUBLIC    BIT      BIT       lpress_lock_day_sec
      020000DCH   PUBLIC    XDATA    BYTE      last_display_s
      00000022H.6 PUBLIC    BIT      BIT       lpress_lock_year_hour
      00000022H.5 PUBLIC    BIT      BIT       lpress_lock_month_min
      020000DBH   PUBLIC    XDATA    BYTE      lpress_start
      020000DAH   PUBLIC    XDATA    BYTE      common_state
      0100551FH   PUBLIC    CODE     ---       _display_logo

      0100551FH   BLOCK     CODE     ---       LVL=0
      02000012H   SYMBOL    XDATA    BYTE      type
      02000013H   SYMBOL    XDATA    BYTE      num
      0100551FH   LINE      CODE     ---       #16
      01005527H   LINE      CODE     ---       #17
      01005527H   LINE      CODE     ---       #18
      01005538H   LINE      CODE     ---       #20
      0100553BH   LINE      CODE     ---       #22
      0100554CH   LINE      CODE     ---       #23
      0100554CH   LINE      CODE     ---       #24
      0100554EH   LINE      CODE     ---       #25
      01005550H   LINE      CODE     ---       #26
      01005550H   LINE      CODE     ---       #27
      01005552H   LINE      CODE     ---       #28
      01005554H   LINE      CODE     ---       #29
      01005554H   LINE      CODE     ---       #30
      01005556H   LINE      CODE     ---       #31
      01005558H   LINE      CODE     ---       #32
      01005558H   LINE      CODE     ---       #33
      0100555FH   LINE      CODE     ---       #34
      0100555FH   LINE      CODE     ---       #35
      0100555FH   LINE      CODE     ---       #36
      0100556FH   LINE      CODE     ---       #37
      01005581H   LINE      CODE     ---       #38
LX51 LINKER/LOCATER V4.66.87.0                                                        06/02/2018  22:09:22  PAGE 121


      ---         BLOCKEND  ---      ---       LVL=0

      ---         MODULE    ---      ---       BEEPER
      01008D91H   PUBLIC    CODE     ---       beeper_stop_music
      01007959H   PUBLIC    CODE     ---       beeper_play_music
      0100667BH   PUBLIC    CODE     ---       beeper_beep_beep
      0100683FH   PUBLIC    CODE     ---       beeper_beep_beep_always
      010073FFH   PUBLIC    CODE     ---       beeper_beep
      01008CEDH   PUBLIC    CODE     ---       beeper_get_music_index
      010082A8H   PUBLIC    CODE     ---       beeper_inc_music_index
      01007F70H   PUBLIC    CODE     ---       beeper_inc_music_to
      01008CE7H   PUBLIC    CODE     ---       beeper_get_music_to
      00000020H.1 PUBLIC    BIT      BIT       ?beeper_set_beep_enable?BIT
      01008D22H   PUBLIC    CODE     ---       beeper_set_beep_enable
      01008D8EH   PUBLIC    CODE     ---       beeper_get_beep_enable
      01008BD4H   PUBLIC    CODE     ---       beeper_leave_powersave
      01008BCBH   PUBLIC    CODE     ---       beeper_enter_powersave
      01006638H   PUBLIC    CODE     ---       beeper_initialize
      00000080H   SFRSYM    DATA     BYTE      P0
      00000090H   SFRSYM    DATA     BYTE      P1
      000000A0H   SFRSYM    DATA     BYTE      P2
      000000B0H   SFRSYM    DATA     BYTE      P3
      000000C0H   SFRSYM    DATA     BYTE      XICON
      000000B0H.4 SFRSYM    DATA     BIT       T0
      000000D0H.6 SFRSYM    DATA     BIT       AC
      000000E8H   SFRSYM    DATA     BYTE      P4
      000000B0H.5 SFRSYM    DATA     BIT       T1
      000000E6H   SFRSYM    DATA     BYTE      ISP_TRIG
      00000090H.0 SFRSYM    DATA     BIT       T2
      000000A8H.7 SFRSYM    DATA     BIT       EA
      000000A8H.6 SFRSYM    DATA     BIT       EC
      00000098H.7 SFRSYM    DATA     BIT       FE
      000000A8H   SFRSYM    DATA     BYTE      IE
      000000C8H.6 SFRSYM    DATA     BIT       EXF2
      000000B0H.7 SFRSYM    DATA     BIT       RD
      000000A8H.4 SFRSYM    DATA     BIT       ES
      000000B8H   SFRSYM    DATA     BYTE      IP
      00000098H.0 SFRSYM    DATA     BIT       RI
      000000B0H.2 SFRSYM    DATA     BIT       INT0
      000000D0H.7 SFRSYM    DATA     BIT       CY
      00000098H.1 SFRSYM    DATA     BIT       TI
      000000B0H.3 SFRSYM    DATA     BIT       INT1
      000000CBH   SFRSYM    DATA     BYTE      RCAP2H
      000000E5H   SFRSYM    DATA     BYTE      ISP_CMD
      000000B8H.4 SFRSYM    DATA     BIT       PS
      00000081H   SFRSYM    DATA     BYTE      SP
      00000090H.1 SFRSYM    DATA     BIT       T2EX
      000000D0H.2 SFRSYM    DATA     BIT       OV
      000000CAH   SFRSYM    DATA     BYTE      RCAP2L
      000000C8H.1 SFRSYM    DATA     BIT       C_T2
      000000B0H.6 SFRSYM    DATA     BIT       WR
      000000C8H.5 SFRSYM    DATA     BIT       RCLK
      000000C8H.4 SFRSYM    DATA     BIT       TCLK
      00000080H.0 SFRSYM    DATA     BIT       P00
      00000090H.0 SFRSYM    DATA     BIT       beeper_out
      00000099H   SFRSYM    DATA     BYTE      SBUF
      00000087H   SFRSYM    DATA     BYTE      PCON
      00000090H.0 SFRSYM    DATA     BIT       P10
      00000080H.1 SFRSYM    DATA     BIT       P01
      000000A0H.0 SFRSYM    DATA     BIT       P20
      00000090H.1 SFRSYM    DATA     BIT       P11
      00000080H.2 SFRSYM    DATA     BIT       P02
      000000E3H   SFRSYM    DATA     BYTE      ISP_ADDRH
      000000B0H.0 SFRSYM    DATA     BIT       P30
      000000A0H.1 SFRSYM    DATA     BIT       P21
LX51 LINKER/LOCATER V4.66.87.0                                                        06/02/2018  22:09:22  PAGE 122


      00000090H.2 SFRSYM    DATA     BIT       P12
      00000080H.3 SFRSYM    DATA     BIT       P03
      00000098H   SFRSYM    DATA     BYTE      SCON
      000000B0H.1 SFRSYM    DATA     BIT       P31
      000000A0H.2 SFRSYM    DATA     BIT       P22
      00000090H.3 SFRSYM    DATA     BIT       P13
      00000080H.4 SFRSYM    DATA     BIT       P04
      000000E8H.0 SFRSYM    DATA     BIT       P40
      00000089H   SFRSYM    DATA     BYTE      TMOD
      00000088H   SFRSYM    DATA     BYTE      TCON
      000000B0H.2 SFRSYM    DATA     BIT       P32
      000000A0H.3 SFRSYM    DATA     BIT       P23
      00000090H.4 SFRSYM    DATA     BIT       P14
      00000080H.5 SFRSYM    DATA     BIT       P05
      000000E8H.1 SFRSYM    DATA     BIT       P41
      000000B0H.3 SFRSYM    DATA     BIT       P33
      000000A0H.4 SFRSYM    DATA     BIT       P24
      00000090H.5 SFRSYM    DATA     BIT       P15
      00000080H.6 SFRSYM    DATA     BIT       P06
      000000E4H   SFRSYM    DATA     BYTE      ISP_ADDRL
      000000E8H.2 SFRSYM    DATA     BIT       P42
      000000B0H.4 SFRSYM    DATA     BIT       P34
      000000A0H.5 SFRSYM    DATA     BIT       P25
      00000090H.6 SFRSYM    DATA     BIT       P16
      00000080H.7 SFRSYM    DATA     BIT       P07
      000000E8H.3 SFRSYM    DATA     BIT       P43
      000000B0H.5 SFRSYM    DATA     BIT       P35
      000000A0H.6 SFRSYM    DATA     BIT       P26
      00000090H.7 SFRSYM    DATA     BIT       P17
      000000E8H.4 SFRSYM    DATA     BIT       P44
      000000B0H.6 SFRSYM    DATA     BIT       P36
      000000A0H.7 SFRSYM    DATA     BIT       P27
      000000E8H.5 SFRSYM    DATA     BIT       P45
      000000B0H.7 SFRSYM    DATA     BIT       P37
      000000E8H.6 SFRSYM    DATA     BIT       P46
      00000088H.1 SFRSYM    DATA     BIT       IE0
      00000088H.3 SFRSYM    DATA     BIT       IE1
      0000008EH   SFRSYM    DATA     BYTE      AUXR
      000000F0H   SFRSYM    DATA     BYTE      B
      000000C8H.0 SFRSYM    DATA     BIT       CP_RL2
      000000E0H   SFRSYM    DATA     BYTE      ACC
      000000A8H.1 SFRSYM    DATA     BIT       ET0
      000000A8H.3 SFRSYM    DATA     BIT       ET1
      00000088H.5 SFRSYM    DATA     BIT       TF0
      000000A8H.5 SFRSYM    DATA     BIT       ET2
      00000088H.7 SFRSYM    DATA     BIT       TF1
      000000C8H.7 SFRSYM    DATA     BIT       TF2
      00000098H.2 SFRSYM    DATA     BIT       RB8
      0000008CH   SFRSYM    DATA     BYTE      TH0
      000000A8H.0 SFRSYM    DATA     BIT       EX0
      00000088H.0 SFRSYM    DATA     BIT       IT0
      0000008DH   SFRSYM    DATA     BYTE      TH1
      00000098H.3 SFRSYM    DATA     BIT       TB8
      000000A8H.2 SFRSYM    DATA     BIT       EX1
      00000088H.2 SFRSYM    DATA     BIT       IT1
      000000CDH   SFRSYM    DATA     BYTE      TH2
      000000D0H.0 SFRSYM    DATA     BIT       P
      00000098H.7 SFRSYM    DATA     BIT       SM0
      0000008AH   SFRSYM    DATA     BYTE      TL0
      00000098H.6 SFRSYM    DATA     BIT       SM1
      0000008BH   SFRSYM    DATA     BYTE      TL1
      00000098H.5 SFRSYM    DATA     BIT       SM2
      000000CCH   SFRSYM    DATA     BYTE      TL2
      000000B8H.1 SFRSYM    DATA     BIT       PT0
      000000B8H.3 SFRSYM    DATA     BIT       PT1
LX51 LINKER/LOCATER V4.66.87.0                                                        06/02/2018  22:09:22  PAGE 123


      000000D0H.3 SFRSYM    DATA     BIT       RS0
      000000E7H   SFRSYM    DATA     BYTE      ISP_CONTR
      000000B8H.5 SFRSYM    DATA     BIT       PT2
      00000088H.4 SFRSYM    DATA     BIT       TR0
      000000D0H.4 SFRSYM    DATA     BIT       RS1
      00000088H.6 SFRSYM    DATA     BIT       TR1
      000000C8H.2 SFRSYM    DATA     BIT       TR2
      000000B8H.0 SFRSYM    DATA     BIT       PX0
      000000E1H   SFRSYM    DATA     BYTE      WDT_CONTR
      000000B8H.2 SFRSYM    DATA     BIT       PX1
      00000083H   SFRSYM    DATA     BYTE      DPH
      00000082H   SFRSYM    DATA     BYTE      DPL
      000000B7H   SFRSYM    DATA     BYTE      IPH
      000000C8H.3 SFRSYM    DATA     BIT       EXEN2
      00000098H.4 SFRSYM    DATA     BIT       REN
      000000C9H   SFRSYM    DATA     BYTE      T2MOD
      000000C8H   SFRSYM    DATA     BYTE      T2CON
      000000E2H   SFRSYM    DATA     BYTE      ISP_DATA
      000000B9H   SFRSYM    DATA     BYTE      SADEN
      000000B0H.0 SFRSYM    DATA     BIT       RXD
      000000A9H   SFRSYM    DATA     BYTE      SADDR
      000000B0H.1 SFRSYM    DATA     BIT       TXD
      000000A2H   SFRSYM    DATA     BYTE      AUXR1
      000000D0H.5 SFRSYM    DATA     BIT       F0
      000000D0H   SFRSYM    DATA     BYTE      PSW
      0100AC3DH   SYMBOL    CONST    ---       music_table
      01008965H   SYMBOL    CODE     ---       _beeper_stop_play
      00000024H.1 SYMBOL    BIT      BIT       beeper_stop
      020000DDH   SYMBOL    XDATA    BYTE      pai
      020000DEH   SYMBOL    XDATA    BYTE      beeper_music_to
      0100A9A5H   SYMBOL    CONST    ---       music_table0
      0100AA67H   SYMBOL    CONST    ---       music_table1
      0100AB41H   SYMBOL    CONST    ---       music_table2
      0100ABF9H   SYMBOL    CONST    ---       music_table3
      0100721BH   SYMBOL    CODE     ---       beeper_ISR
      01003052H   SYMBOL    CODE     ---       __beepler_play
      00000024H.2 SYMBOL    BIT      BIT       beep_enable
      020000DFH   SYMBOL    XDATA    BYTE      beeper_music_index

      01007F8BH   BLOCK     CODE     ---       LVL=0
      ---         BLOCKEND  ---      ---       LVL=0

      0100721BH   BLOCK     CODE     ---       LVL=0
      0100721BH   LINE      CODE     ---       #116
      0100722AH   LINE      CODE     ---       #119
      01007233H   LINE      CODE     ---       #120
      01007236H   LINE      CODE     ---       #121
      01007238H   LINE      CODE     ---       #122
      ---         BLOCKEND  ---      ---       LVL=0

      01006638H   BLOCK     CODE     ---       LVL=0
      01006638H   LINE      CODE     ---       #125
      01006638H   LINE      CODE     ---       #126
      01006638H   LINE      CODE     ---       #127
      01006641H   LINE      CODE     ---       #134
      01006644H   LINE      CODE     ---       #138
      01006647H   LINE      CODE     ---       #139
      0100664AH   LINE      CODE     ---       #140
      0100664DH   LINE      CODE     ---       #141
      01006650H   LINE      CODE     ---       #150
      01006652H   LINE      CODE     ---       #152
      01006654H   LINE      CODE     ---       #154
      01006656H   LINE      CODE     ---       #156
      01006662H   LINE      CODE     ---       #157
      01006664H   LINE      CODE     ---       #158
LX51 LINKER/LOCATER V4.66.87.0                                                        06/02/2018  22:09:22  PAGE 124


      0100666EH   LINE      CODE     ---       #159
      01006678H   LINE      CODE     ---       #160
      0100667AH   LINE      CODE     ---       #161
      ---         BLOCKEND  ---      ---       LVL=0

      01008BCBH   BLOCK     CODE     ---       LVL=0
      01008BCBH   LINE      CODE     ---       #163
      01008BCBH   LINE      CODE     ---       #164
      01008BCBH   LINE      CODE     ---       #165
      ---         BLOCKEND  ---      ---       LVL=0

      01008BD4H   BLOCK     CODE     ---       LVL=0
      01008BD4H   LINE      CODE     ---       #168
      01008BD4H   LINE      CODE     ---       #169
      01008BD4H   LINE      CODE     ---       #170
      ---         BLOCKEND  ---      ---       LVL=0

      01008D8EH   BLOCK     CODE     ---       LVL=0
      01008D8EH   LINE      CODE     ---       #173
      01008D8EH   LINE      CODE     ---       #174
      01008D8EH   LINE      CODE     ---       #175
      01008D90H   LINE      CODE     ---       #176
      ---         BLOCKEND  ---      ---       LVL=0

      01008D22H   BLOCK     CODE     ---       LVL=0
      00000020H.1 SYMBOL    BIT      BIT       enable
      01008D22H   LINE      CODE     ---       #178
      01008D22H   LINE      CODE     ---       #179
      01008D22H   LINE      CODE     ---       #180
      01008D26H   LINE      CODE     ---       #181
      ---         BLOCKEND  ---      ---       LVL=0

      01008CE7H   BLOCK     CODE     ---       LVL=0
      01008CE7H   LINE      CODE     ---       #183
      01008CE7H   LINE      CODE     ---       #184
      01008CE7H   LINE      CODE     ---       #185
      01008CECH   LINE      CODE     ---       #186
      ---         BLOCKEND  ---      ---       LVL=0

      01007F70H   BLOCK     CODE     ---       LVL=0
      01007F70H   LINE      CODE     ---       #188
      01007F70H   LINE      CODE     ---       #189
      01007F70H   LINE      CODE     ---       #190
      01007F85H   LINE      CODE     ---       #191
      01007F87H   LINE      CODE     ---       #192
      01007F8AH   LINE      CODE     ---       #193
      ---         BLOCKEND  ---      ---       LVL=0

      010082A8H   BLOCK     CODE     ---       LVL=0
      010082A8H   LINE      CODE     ---       #195
      010082A8H   LINE      CODE     ---       #196
      010082A8H   LINE      CODE     ---       #197
      010082B1H   LINE      CODE     ---       #198
      ---         BLOCKEND  ---      ---       LVL=0

      01008CEDH   BLOCK     CODE     ---       LVL=0
      01008CEDH   LINE      CODE     ---       #201
      01008CEDH   LINE      CODE     ---       #202
      01008CEDH   LINE      CODE     ---       #203
      01008CF2H   LINE      CODE     ---       #204
      ---         BLOCKEND  ---      ---       LVL=0

      01008965H   BLOCK     CODE     ---       LVL=0
      01008965H   LINE      CODE     ---       #206
      01008965H   LINE      CODE     ---       #207
LX51 LINKER/LOCATER V4.66.87.0                                                        06/02/2018  22:09:22  PAGE 125


      01008965H   LINE      CODE     ---       #208
      01008967H   LINE      CODE     ---       #209
      01008969H   LINE      CODE     ---       #210
      0100896EH   LINE      CODE     ---       #211
      01008970H   LINE      CODE     ---       #212
      01008972H   LINE      CODE     ---       #213
      ---         BLOCKEND  ---      ---       LVL=0

      01003052H   BLOCK     CODE     ---       LVL=0
      02000013H   SYMBOL    XDATA    ---       music
      00000020H.0 SYMBOL    BIT      BIT       once
      01003058H   BLOCK     CODE     NEAR LAB  LVL=1
      02000016H   SYMBOL    XDATA    BYTE      cm
      02000017H   SYMBOL    XDATA    BYTE      tune
      02000018H   SYMBOL    XDATA    BYTE      start_s
      ---         BLOCKEND  ---      ---       LVL=1
      01003052H   LINE      CODE     ---       #215
      01003058H   LINE      CODE     ---       #216
      01003058H   LINE      CODE     ---       #221
      01003058H   LINE      CODE     ---       #222
      01003058H   LINE      CODE     ---       #223
      0100305BH   LINE      CODE     ---       #224
      0100305DH   LINE      CODE     ---       #225
      01003063H   LINE      CODE     ---       #227
      01003074H   LINE      CODE     ---       #229
      0100307AH   LINE      CODE     ---       #230
      0100307AH   LINE      CODE     ---       #231
      0100308FH   LINE      CODE     ---       #232
      0100308FH   LINE      CODE     ---       #233
      0100308FH   LINE      CODE     ---       #234
      0100308FH   LINE      CODE     ---       #235
      01003092H   LINE      CODE     ---       #236
      01003095H   LINE      CODE     ---       #237
      01003098H   LINE      CODE     ---       #238
      0100309AH   LINE      CODE     ---       #239
      0100309AH   LINE      CODE     ---       #241
      0100309FH   LINE      CODE     ---       #242
      0100309FH   LINE      CODE     ---       #243
      010030A1H   LINE      CODE     ---       #244
      010030A1H   LINE      CODE     ---       #245
      010030A1H   LINE      CODE     ---       #246
      010030A1H   LINE      CODE     ---       #247
      010030A6H   LINE      CODE     ---       #248
      010030A6H   LINE      CODE     ---       #249
      010030A8H   LINE      CODE     ---       #250
      010030A8H   LINE      CODE     ---       #251
      010030AFH   LINE      CODE     ---       #252
      010030B4H   LINE      CODE     ---       #253
      010030B6H   LINE      CODE     ---       #254
      010030B6H   LINE      CODE     ---       #255
      010030C3H   LINE      CODE     ---       #256
      010030CAH   LINE      CODE     ---       #257
      010030CCH   LINE      CODE     ---       #258
      010030CEH   LINE      CODE     ---       #259
      010030D0H   LINE      CODE     ---       #260
      010030D9H   LINE      CODE     ---       #261
      010030DBH   LINE      CODE     ---       #262
      010030E5H   LINE      CODE     ---       #263
      010030E7H   LINE      CODE     ---       #264
      010030E9H   LINE      CODE     ---       #265
      010030E9H   LINE      CODE     ---       #266
      010030F8H   LINE      CODE     ---       #267
      01003108H   LINE      CODE     ---       #268
      01003119H   LINE      CODE     ---       #269
      0100311CH   LINE      CODE     ---       #270
LX51 LINKER/LOCATER V4.66.87.0                                                        06/02/2018  22:09:22  PAGE 126


      0100311CH   LINE      CODE     ---       #271
      0100311CH   LINE      CODE     ---       #272
      0100311CH   LINE      CODE     ---       #273
      0100311CH   LINE      CODE     ---       #274
      0100311FH   LINE      CODE     ---       #275
      01003120H   LINE      CODE     ---       #276
      ---         BLOCKEND  ---      ---       LVL=0

      010073FFH   BLOCK     CODE     ---       LVL=0
      010073FFH   BLOCK     CODE     NEAR LAB  LVL=1
      0200000DH   SYMBOL    XDATA    BYTE      c
      ---         BLOCKEND  ---      ---       LVL=1
      010073FFH   LINE      CODE     ---       #278
      010073FFH   LINE      CODE     ---       #279
      010073FFH   LINE      CODE     ---       #280
      01007405H   LINE      CODE     ---       #281
      0100740EH   LINE      CODE     ---       #282
      01007411H   LINE      CODE     ---       #284
      01007413H   LINE      CODE     ---       #285
      0100741DH   LINE      CODE     ---       #286
      0100741FH   LINE      CODE     ---       #287
      01007424H   LINE      CODE     ---       #288
      01007426H   LINE      CODE     ---       #289
      01007428H   LINE      CODE     ---       #290
      ---         BLOCKEND  ---      ---       LVL=0

      0100683FH   BLOCK     CODE     ---       LVL=0
      0100683FH   BLOCK     CODE     NEAR LAB  LVL=1
      02000014H   SYMBOL    XDATA    BYTE      c
      ---         BLOCKEND  ---      ---       LVL=1
      0100683FH   LINE      CODE     ---       #292
      0100683FH   LINE      CODE     ---       #293
      0100683FH   LINE      CODE     ---       #294
      01006845H   LINE      CODE     ---       #295
      0100684EH   LINE      CODE     ---       #296
      01006850H   LINE      CODE     ---       #297
      0100685AH   LINE      CODE     ---       #298
      0100685CH   LINE      CODE     ---       #299
      01006861H   LINE      CODE     ---       #300
      01006863H   LINE      CODE     ---       #302
      01006868H   LINE      CODE     ---       #304
      01006872H   LINE      CODE     ---       #305
      01006874H   LINE      CODE     ---       #306
      01006879H   LINE      CODE     ---       #307
      0100687BH   LINE      CODE     ---       #308
      0100687DH   LINE      CODE     ---       #309
      ---         BLOCKEND  ---      ---       LVL=0

      0100667BH   BLOCK     CODE     ---       LVL=0
      0100667BH   BLOCK     CODE     NEAR LAB  LVL=1
      0200000BH   SYMBOL    XDATA    BYTE      c
      ---         BLOCKEND  ---      ---       LVL=1
      0100667BH   LINE      CODE     ---       #311
      0100667BH   LINE      CODE     ---       #312
      0100667BH   LINE      CODE     ---       #313
      01006681H   LINE      CODE     ---       #314
      0100668AH   LINE      CODE     ---       #315
      0100668DH   LINE      CODE     ---       #317
      0100668FH   LINE      CODE     ---       #318
      01006699H   LINE      CODE     ---       #319
      0100669BH   LINE      CODE     ---       #320
      010066A0H   LINE      CODE     ---       #321
      010066A2H   LINE      CODE     ---       #323
      010066A7H   LINE      CODE     ---       #325
      010066B1H   LINE      CODE     ---       #326
LX51 LINKER/LOCATER V4.66.87.0                                                        06/02/2018  22:09:22  PAGE 127


      010066B3H   LINE      CODE     ---       #327
      010066B8H   LINE      CODE     ---       #328
      010066BAH   LINE      CODE     ---       #329
      010066BCH   LINE      CODE     ---       #330
      ---         BLOCKEND  ---      ---       LVL=0

      01007959H   BLOCK     CODE     ---       LVL=0
      01007959H   LINE      CODE     ---       #332
      01007959H   LINE      CODE     ---       #333
      01007959H   LINE      CODE     ---       #335
      01007962H   LINE      CODE     ---       #336
      ---         BLOCKEND  ---      ---       LVL=0

      01008D91H   BLOCK     CODE     ---       LVL=0
      01008D91H   LINE      CODE     ---       #339
      01008D91H   LINE      CODE     ---       #340
      01008D91H   LINE      CODE     ---       #341
      ---         BLOCKEND  ---      ---       LVL=0

      ---         MODULE    ---      ---       CLOCK
      010083CBH   PUBLIC    CODE     ---       clock_leave_shell
      01008D97H   PUBLIC    CODE     ---       clock_enter_shell
      010081A5H   PUBLIC    CODE     ---       clock_leave_powersave
      01008973H   PUBLIC    CODE     ---       clock_enter_powersave
      01007248H   PUBLIC    CODE     ---       clock_initialize
      00000020H.2 PUBLIC    BIT      BIT       ?clock_enable_interrupt?BIT
      01008BDDH   PUBLIC    CODE     ---       clock_enable_interrupt
      01007CB2H   PUBLIC    CODE     ---       _clock_get_mon_date
      010082BFH   PUBLIC    CODE     ---       _clock_is_leap_year
      01005313H   PUBLIC    CODE     ---       _clock_sync_to_rtc
      01005648H   PUBLIC    CODE     ---       _clock_sync_from_rtc
      01008462H   PUBLIC    CODE     ---       clock_inc_year
      01008D4FH   PUBLIC    CODE     ---       clock_get_year
      010083B5H   PUBLIC    CODE     ---       clock_inc_month
      01008D05H   PUBLIC    CODE     ---       clock_get_month
      01008CFFH   PUBLIC    CODE     ---       clock_get_day
      01007AC7H   PUBLIC    CODE     ---       clock_inc_date
      01008CF9H   PUBLIC    CODE     ---       clock_get_date
      01008A92H   PUBLIC    CODE     ---       clock_inc_hour
      01008D4AH   PUBLIC    CODE     ---       clock_get_hour
      01008A87H   PUBLIC    CODE     ---       clock_inc_min
      01008D45H   PUBLIC    CODE     ---       clock_get_min
      01008D40H   PUBLIC    CODE     ---       clock_clr_sec
      01008D3BH   PUBLIC    CODE     ---       clock_get_sec
      01008D36H   PUBLIC    CODE     ---       clock_get_sec_256
      01008D31H   PUBLIC    CODE     ---       clock_get_ms39
      00000020H.1 PUBLIC    BIT      BIT       ?clock_set_hour_12?BIT
      01008D2CH   PUBLIC    CODE     ---       clock_set_hour_12
      01008D94H   PUBLIC    CODE     ---       clock_get_hour_12
      01002956H   PUBLIC    CODE     ---       _clock_yymmdd_to_day
      010043A9H   PUBLIC    CODE     ---       clock_dump
      01008CF3H   PUBLIC    CODE     ---       _clock_switch_display_mode
      00000020H.0 PUBLIC    BIT      BIT       ?clock_display?BIT
      01008D27H   PUBLIC    CODE     ---       clock_display
      00000080H   SFRSYM    DATA     BYTE      P0
      00000090H   SFRSYM    DATA     BYTE      P1
      000000A0H   SFRSYM    DATA     BYTE      P2
      000000B0H   SFRSYM    DATA     BYTE      P3
      000000C0H   SFRSYM    DATA     BYTE      XICON
      000000B0H.4 SFRSYM    DATA     BIT       T0
      000000D0H.6 SFRSYM    DATA     BIT       AC
      000000E8H   SFRSYM    DATA     BYTE      P4
      000000B0H.5 SFRSYM    DATA     BIT       T1
      000000E6H   SFRSYM    DATA     BYTE      ISP_TRIG
      00000090H.0 SFRSYM    DATA     BIT       T2
LX51 LINKER/LOCATER V4.66.87.0                                                        06/02/2018  22:09:22  PAGE 128


      000000A8H.7 SFRSYM    DATA     BIT       EA
      000000A8H.6 SFRSYM    DATA     BIT       EC
      00000098H.7 SFRSYM    DATA     BIT       FE
      000000A8H   SFRSYM    DATA     BYTE      IE
      000000C8H.6 SFRSYM    DATA     BIT       EXF2
      000000B0H.7 SFRSYM    DATA     BIT       RD
      000000A8H.4 SFRSYM    DATA     BIT       ES
      000000B8H   SFRSYM    DATA     BYTE      IP
      00000098H.0 SFRSYM    DATA     BIT       RI
      000000B0H.2 SFRSYM    DATA     BIT       INT0
      000000D0H.7 SFRSYM    DATA     BIT       CY
      00000098H.1 SFRSYM    DATA     BIT       TI
      000000B0H.3 SFRSYM    DATA     BIT       INT1
      000000CBH   SFRSYM    DATA     BYTE      RCAP2H
      000000E5H   SFRSYM    DATA     BYTE      ISP_CMD
      000000B8H.4 SFRSYM    DATA     BIT       PS
      00000081H   SFRSYM    DATA     BYTE      SP
      00000090H.1 SFRSYM    DATA     BIT       T2EX
      000000D0H.2 SFRSYM    DATA     BIT       OV
      000000CAH   SFRSYM    DATA     BYTE      RCAP2L
      000000C8H.1 SFRSYM    DATA     BIT       C_T2
      000000B0H.6 SFRSYM    DATA     BIT       WR
      000000C8H.5 SFRSYM    DATA     BIT       RCLK
      000000C8H.4 SFRSYM    DATA     BIT       TCLK
      00000080H.0 SFRSYM    DATA     BIT       P00
      00000099H   SFRSYM    DATA     BYTE      SBUF
      00000087H   SFRSYM    DATA     BYTE      PCON
      00000090H.0 SFRSYM    DATA     BIT       P10
      00000080H.1 SFRSYM    DATA     BIT       P01
      000000A0H.0 SFRSYM    DATA     BIT       P20
      00000090H.1 SFRSYM    DATA     BIT       P11
      00000080H.2 SFRSYM    DATA     BIT       P02
      000000E3H   SFRSYM    DATA     BYTE      ISP_ADDRH
      000000B0H.0 SFRSYM    DATA     BIT       P30
      000000A0H.1 SFRSYM    DATA     BIT       P21
      00000090H.2 SFRSYM    DATA     BIT       P12
      00000080H.3 SFRSYM    DATA     BIT       P03
      00000098H   SFRSYM    DATA     BYTE      SCON
      000000B0H.1 SFRSYM    DATA     BIT       P31
      000000A0H.2 SFRSYM    DATA     BIT       P22
      00000090H.3 SFRSYM    DATA     BIT       P13
      00000080H.4 SFRSYM    DATA     BIT       P04
      000000E8H.0 SFRSYM    DATA     BIT       P40
      00000089H   SFRSYM    DATA     BYTE      TMOD
      00000088H   SFRSYM    DATA     BYTE      TCON
      000000B0H.2 SFRSYM    DATA     BIT       P32
      000000A0H.3 SFRSYM    DATA     BIT       P23
      00000090H.4 SFRSYM    DATA     BIT       P14
      00000080H.5 SFRSYM    DATA     BIT       P05
      000000E8H.1 SFRSYM    DATA     BIT       P41
      000000B0H.3 SFRSYM    DATA     BIT       P33
      000000A0H.4 SFRSYM    DATA     BIT       P24
      00000090H.5 SFRSYM    DATA     BIT       P15
      00000080H.6 SFRSYM    DATA     BIT       P06
      000000E4H   SFRSYM    DATA     BYTE      ISP_ADDRL
      000000E8H.2 SFRSYM    DATA     BIT       P42
      000000B0H.4 SFRSYM    DATA     BIT       P34
      000000A0H.5 SFRSYM    DATA     BIT       P25
      00000090H.6 SFRSYM    DATA     BIT       P16
      00000080H.7 SFRSYM    DATA     BIT       P07
      000000E8H.3 SFRSYM    DATA     BIT       P43
      000000B0H.5 SFRSYM    DATA     BIT       P35
      000000A0H.6 SFRSYM    DATA     BIT       P26
      00000090H.7 SFRSYM    DATA     BIT       P17
      000000E8H.4 SFRSYM    DATA     BIT       P44
LX51 LINKER/LOCATER V4.66.87.0                                                        06/02/2018  22:09:22  PAGE 129


      000000B0H.6 SFRSYM    DATA     BIT       P36
      000000A0H.7 SFRSYM    DATA     BIT       P27
      000000E8H.5 SFRSYM    DATA     BIT       P45
      000000B0H.7 SFRSYM    DATA     BIT       P37
      000000E8H.6 SFRSYM    DATA     BIT       P46
      00000088H.1 SFRSYM    DATA     BIT       IE0
      00000088H.3 SFRSYM    DATA     BIT       IE1
      0000008EH   SFRSYM    DATA     BYTE      AUXR
      000000F0H   SFRSYM    DATA     BYTE      B
      000000C8H.0 SFRSYM    DATA     BIT       CP_RL2
      000000E0H   SFRSYM    DATA     BYTE      ACC
      000000A8H.1 SFRSYM    DATA     BIT       ET0
      000000A8H.3 SFRSYM    DATA     BIT       ET1
      00000088H.5 SFRSYM    DATA     BIT       TF0
      000000A8H.5 SFRSYM    DATA     BIT       ET2
      00000088H.7 SFRSYM    DATA     BIT       TF1
      000000C8H.7 SFRSYM    DATA     BIT       TF2
      00000098H.2 SFRSYM    DATA     BIT       RB8
      0000008CH   SFRSYM    DATA     BYTE      TH0
      000000A8H.0 SFRSYM    DATA     BIT       EX0
      00000088H.0 SFRSYM    DATA     BIT       IT0
      0000008DH   SFRSYM    DATA     BYTE      TH1
      00000098H.3 SFRSYM    DATA     BIT       TB8
      000000A8H.2 SFRSYM    DATA     BIT       EX1
      00000088H.2 SFRSYM    DATA     BIT       IT1
      000000CDH   SFRSYM    DATA     BYTE      TH2
      000000D0H.0 SFRSYM    DATA     BIT       P
      00000098H.7 SFRSYM    DATA     BIT       SM0
      0000008AH   SFRSYM    DATA     BYTE      TL0
      00000098H.6 SFRSYM    DATA     BIT       SM1
      0000008BH   SFRSYM    DATA     BYTE      TL1
      00000098H.5 SFRSYM    DATA     BIT       SM2
      000000CCH   SFRSYM    DATA     BYTE      TL2
      000000B8H.1 SFRSYM    DATA     BIT       PT0
      000000B8H.3 SFRSYM    DATA     BIT       PT1
      000000D0H.3 SFRSYM    DATA     BIT       RS0
      000000E7H   SFRSYM    DATA     BYTE      ISP_CONTR
      000000B8H.5 SFRSYM    DATA     BIT       PT2
      00000088H.4 SFRSYM    DATA     BIT       TR0
      000000D0H.4 SFRSYM    DATA     BIT       RS1
      00000088H.6 SFRSYM    DATA     BIT       TR1
      000000C8H.2 SFRSYM    DATA     BIT       TR2
      000000B8H.0 SFRSYM    DATA     BIT       PX0
      000000E1H   SFRSYM    DATA     BYTE      WDT_CONTR
      000000B8H.2 SFRSYM    DATA     BIT       PX1
      00000083H   SFRSYM    DATA     BYTE      DPH
      00000082H   SFRSYM    DATA     BYTE      DPL
      000000B7H   SFRSYM    DATA     BYTE      IPH
      000000C8H.3 SFRSYM    DATA     BIT       EXEN2
      00000098H.4 SFRSYM    DATA     BIT       REN
      000000C9H   SFRSYM    DATA     BYTE      T2MOD
      000000C8H   SFRSYM    DATA     BYTE      T2CON
      000000E2H   SFRSYM    DATA     BYTE      ISP_DATA
      000000B9H   SFRSYM    DATA     BYTE      SADEN
      000000B0H.0 SFRSYM    DATA     BIT       RXD
      000000A9H   SFRSYM    DATA     BYTE      SADDR
      000000B0H.1 SFRSYM    DATA     BIT       TXD
      000000A2H   SFRSYM    DATA     BYTE      AUXR1
      000000D0H.5 SFRSYM    DATA     BIT       F0
      000000D0H   SFRSYM    DATA     BYTE      PSW
      020000E8H   SYMBOL    XDATA    BYTE      display_mode
      01009FBBH   SYMBOL    CONST    ---       date_table
      01006C69H   SYMBOL    CODE     ---       clock0_ISR
      0000003FH   SYMBOL    IDATA    BYTE      sec_256
      00000040H   SYMBOL    IDATA    ---       clk
LX51 LINKER/LOCATER V4.66.87.0                                                        06/02/2018  22:09:22  PAGE 130


      00000023H.0 SYMBOL    BIT      BIT       display_enable
      00000023H.1 SYMBOL    BIT      BIT       in_shell
      010021BDH   SYMBOL    CODE     ---       clock_inc_ms39
      00000023H.2 SYMBOL    BIT      BIT       clk_is12

      01004DADH   BLOCK     CODE     ---       LVL=0
      ---         BLOCKEND  ---      ---       LVL=0

      01008D27H   BLOCK     CODE     ---       LVL=0
      00000020H.0 SYMBOL    BIT      BIT       enable
      01008D27H   LINE      CODE     ---       #129
      01008D27H   LINE      CODE     ---       #130
      01008D27H   LINE      CODE     ---       #131
      01008D2BH   LINE      CODE     ---       #132
      ---         BLOCKEND  ---      ---       LVL=0

      01008CF3H   BLOCK     CODE     ---       LVL=0
      00000007H   SYMBOL    DATA     BYTE      mode
      01008CF3H   LINE      CODE     ---       #134
      01008CF3H   LINE      CODE     ---       #135
      01008CF3H   LINE      CODE     ---       #136
      01008CF8H   LINE      CODE     ---       #137
      ---         BLOCKEND  ---      ---       LVL=0

      010021BDH   BLOCK     CODE     ---       LVL=0
      010021BDH   BLOCK     CODE     NEAR LAB  LVL=1
      00000005H   SYMBOL    DATA     BYTE      hour
      00000021H.3 SYMBOL    BIT      BIT       is_pm
      ---         BLOCKEND  ---      ---       LVL=1
      010021BDH   LINE      CODE     ---       #140
      010021BDH   LINE      CODE     ---       #141
      010021BDH   LINE      CODE     ---       #145
      010021C0H   LINE      CODE     ---       #147
      010021CAH   LINE      CODE     ---       #148
      010021D0H   LINE      CODE     ---       #149
      010021D0H   LINE      CODE     ---       #151
      010021D5H   LINE      CODE     ---       #152
      010021DBH   LINE      CODE     ---       #153
      010021DBH   LINE      CODE     ---       #155
      010021E0H   LINE      CODE     ---       #156
      010021EAH   LINE      CODE     ---       #157
      010021EDH   LINE      CODE     ---       #158
      010021F0H   LINE      CODE     ---       #159
      010021F6H   LINE      CODE     ---       #160
      010021FBH   LINE      CODE     ---       #161
      01002200H   LINE      CODE     ---       #162
      01002205H   LINE      CODE     ---       #163
      0100220AH   LINE      CODE     ---       #164
      0100220FH   LINE      CODE     ---       #165
      0100222BH   LINE      CODE     ---       #166
      01002235H   LINE      CODE     ---       #167
      01002238H   LINE      CODE     ---       #168
      01002243H   LINE      CODE     ---       #169
      01002246H   LINE      CODE     ---       #170
      01002250H   LINE      CODE     ---       #171
      01002250H   LINE      CODE     ---       #172
      01002250H   LINE      CODE     ---       #173
      01002250H   LINE      CODE     ---       #174
      01002250H   LINE      CODE     ---       #175
      01002250H   LINE      CODE     ---       #176
      01002250H   LINE      CODE     ---       #177
      0100225CH   LINE      CODE     ---       #178
      01002263H   LINE      CODE     ---       #179
      01002268H   LINE      CODE     ---       #180
      0100226AH   LINE      CODE     ---       #181
LX51 LINKER/LOCATER V4.66.87.0                                                        06/02/2018  22:09:22  PAGE 131


      01002272H   LINE      CODE     ---       #182
      01002276H   LINE      CODE     ---       #183
      01002278H   LINE      CODE     ---       #184
      01002281H   LINE      CODE     ---       #185
      01002283H   LINE      CODE     ---       #186
      01002283H   LINE      CODE     ---       #188
      0100228AH   LINE      CODE     ---       #189
      01002298H   LINE      CODE     ---       #190
      0100229AH   LINE      CODE     ---       #191
      010022A7H   LINE      CODE     ---       #192
      010022A7H   LINE      CODE     ---       #193
      010022B2H   LINE      CODE     ---       #194
      010022B7H   LINE      CODE     ---       #195
      010022BDH   LINE      CODE     ---       #196
      010022C2H   LINE      CODE     ---       #197
      010022CAH   LINE      CODE     ---       #198
      010022D0H   LINE      CODE     ---       #199
      010022E1H   LINE      CODE     ---       #200
      010022E8H   LINE      CODE     ---       #201
      010022EFH   LINE      CODE     ---       #202
      010022F9H   LINE      CODE     ---       #203
      010022FBH   LINE      CODE     ---       #204
      010022FBH   LINE      CODE     ---       #205
      010022FDH   LINE      CODE     ---       #206
      01002307H   LINE      CODE     ---       #207
      0100230DH   LINE      CODE     ---       #208
      01002313H   LINE      CODE     ---       #209
      01002319H   LINE      CODE     ---       #210
      01002320H   LINE      CODE     ---       #211
      01002329H   LINE      CODE     ---       #212
      01002329H   LINE      CODE     ---       #213
      01002329H   LINE      CODE     ---       #214
      ---         BLOCKEND  ---      ---       LVL=0

      010043A9H   BLOCK     CODE     ---       LVL=0
      010043A9H   LINE      CODE     ---       #217
      010043A9H   LINE      CODE     ---       #218
      010043A9H   LINE      CODE     ---       #219
      010043AFH   LINE      CODE     ---       #220
      010043BBH   LINE      CODE     ---       #221
      010043C1H   LINE      CODE     ---       #222
      010043CDH   LINE      CODE     ---       #223
      010043D3H   LINE      CODE     ---       #224
      010043E4H   LINE      CODE     ---       #225
      010043EAH   LINE      CODE     ---       #226
      010043FBH   LINE      CODE     ---       #227
      01004419H   LINE      CODE     ---       #228
      ---         BLOCKEND  ---      ---       LVL=0

      01002956H   BLOCK     CODE     ---       LVL=0
      00000004H   SYMBOL    DATA     BYTE      year
      00000005H   SYMBOL    DATA     BYTE      mon
      00000003H   SYMBOL    DATA     BYTE      date
      01002958H   BLOCK     CODE     NEAR LAB  LVL=1
      02000017H   SYMBOL    XDATA    WORD      d
      02000019H   SYMBOL    XDATA    WORD      m
      0200001BH   SYMBOL    XDATA    WORD      y
      0200001DH   SYMBOL    XDATA    WORD      c
      ---         BLOCKEND  ---      ---       LVL=1
      01002956H   LINE      CODE     ---       #235
      01002958H   LINE      CODE     ---       #236
      01002958H   LINE      CODE     ---       #238
      01002965H   LINE      CODE     ---       #239
      01002972H   LINE      CODE     ---       #240
      0100297EH   LINE      CODE     ---       #242
LX51 LINKER/LOCATER V4.66.87.0                                                        06/02/2018  22:09:22  PAGE 132


      01002987H   LINE      CODE     ---       #243
      01002991H   LINE      CODE     ---       #244
      0100299BH   LINE      CODE     ---       #245
      0100299BH   LINE      CODE     ---       #247
      010029AAH   LINE      CODE     ---       #248
      010029C0H   LINE      CODE     ---       #250
      01002A37H   LINE      CODE     ---       #251
      01002A54H   LINE      CODE     ---       #253
      01002A57H   LINE      CODE     ---       #254
      01002A5AH   LINE      CODE     ---       #255
      01002A5AH   LINE      CODE     ---       #257
      01002A61H   LINE      CODE     ---       #258
      ---         BLOCKEND  ---      ---       LVL=0

      01008D94H   BLOCK     CODE     ---       LVL=0
      01008D94H   LINE      CODE     ---       #260
      01008D94H   LINE      CODE     ---       #261
      01008D94H   LINE      CODE     ---       #262
      01008D96H   LINE      CODE     ---       #263
      ---         BLOCKEND  ---      ---       LVL=0

      01008D2CH   BLOCK     CODE     ---       LVL=0
      00000020H.1 SYMBOL    BIT      BIT       enable
      01008D2CH   LINE      CODE     ---       #264
      01008D2CH   LINE      CODE     ---       #265
      01008D2CH   LINE      CODE     ---       #266
      01008D30H   LINE      CODE     ---       #267
      ---         BLOCKEND  ---      ---       LVL=0

      01008D31H   BLOCK     CODE     ---       LVL=0
      01008D31H   LINE      CODE     ---       #269
      01008D31H   LINE      CODE     ---       #270
      01008D31H   LINE      CODE     ---       #271
      01008D35H   LINE      CODE     ---       #272
      ---         BLOCKEND  ---      ---       LVL=0

      01008D36H   BLOCK     CODE     ---       LVL=0
      01008D36H   LINE      CODE     ---       #274
      01008D36H   LINE      CODE     ---       #275
      01008D36H   LINE      CODE     ---       #276
      01008D3AH   LINE      CODE     ---       #277
      ---         BLOCKEND  ---      ---       LVL=0

      01008D3BH   BLOCK     CODE     ---       LVL=0
      01008D3BH   LINE      CODE     ---       #279
      01008D3BH   LINE      CODE     ---       #280
      01008D3BH   LINE      CODE     ---       #281
      01008D3FH   LINE      CODE     ---       #282
      ---         BLOCKEND  ---      ---       LVL=0

      01008D40H   BLOCK     CODE     ---       LVL=0
      01008D40H   LINE      CODE     ---       #283
      01008D40H   LINE      CODE     ---       #284
      01008D40H   LINE      CODE     ---       #285
      01008D44H   LINE      CODE     ---       #286
      ---         BLOCKEND  ---      ---       LVL=0

      01008D45H   BLOCK     CODE     ---       LVL=0
      01008D45H   LINE      CODE     ---       #288
      01008D45H   LINE      CODE     ---       #289
      01008D45H   LINE      CODE     ---       #290
      01008D49H   LINE      CODE     ---       #291
      ---         BLOCKEND  ---      ---       LVL=0

      01008A87H   BLOCK     CODE     ---       LVL=0
LX51 LINKER/LOCATER V4.66.87.0                                                        06/02/2018  22:09:22  PAGE 133


      01008A87H   LINE      CODE     ---       #292
      01008A87H   LINE      CODE     ---       #293
      01008A87H   LINE      CODE     ---       #294
      01008A91H   LINE      CODE     ---       #295
      ---         BLOCKEND  ---      ---       LVL=0

      01008D4AH   BLOCK     CODE     ---       LVL=0
      01008D4AH   LINE      CODE     ---       #297
      01008D4AH   LINE      CODE     ---       #298
      01008D4AH   LINE      CODE     ---       #299
      01008D4EH   LINE      CODE     ---       #300
      ---         BLOCKEND  ---      ---       LVL=0

      01008A92H   BLOCK     CODE     ---       LVL=0
      01008A92H   LINE      CODE     ---       #301
      01008A92H   LINE      CODE     ---       #302
      01008A92H   LINE      CODE     ---       #303
      01008A9CH   LINE      CODE     ---       #304
      ---         BLOCKEND  ---      ---       LVL=0

      01008CF9H   BLOCK     CODE     ---       LVL=0
      01008CF9H   LINE      CODE     ---       #307
      01008CF9H   LINE      CODE     ---       #308
      01008CF9H   LINE      CODE     ---       #309
      01008CFEH   LINE      CODE     ---       #310
      ---         BLOCKEND  ---      ---       LVL=0

      01007AC7H   BLOCK     CODE     ---       LVL=0
      01007AC7H   LINE      CODE     ---       #311
      01007AC7H   LINE      CODE     ---       #312
      01007AC7H   LINE      CODE     ---       #313
      01007ADAH   LINE      CODE     ---       #314
      01007AE6H   LINE      CODE     ---       #315
      ---         BLOCKEND  ---      ---       LVL=0

      01008CFFH   BLOCK     CODE     ---       LVL=0
      01008CFFH   LINE      CODE     ---       #317
      01008CFFH   LINE      CODE     ---       #318
      01008CFFH   LINE      CODE     ---       #319
      01008D04H   LINE      CODE     ---       #320
      ---         BLOCKEND  ---      ---       LVL=0

      01008D05H   BLOCK     CODE     ---       LVL=0
      01008D05H   LINE      CODE     ---       #322
      01008D05H   LINE      CODE     ---       #323
      01008D05H   LINE      CODE     ---       #324
      01008D0AH   LINE      CODE     ---       #325
      ---         BLOCKEND  ---      ---       LVL=0

      010083B5H   BLOCK     CODE     ---       LVL=0
      010083B5H   LINE      CODE     ---       #326
      010083B5H   LINE      CODE     ---       #327
      010083B5H   LINE      CODE     ---       #328
      010083BFH   LINE      CODE     ---       #329
      010083CAH   LINE      CODE     ---       #330
      ---         BLOCKEND  ---      ---       LVL=0

      01008D4FH   BLOCK     CODE     ---       LVL=0
      01008D4FH   LINE      CODE     ---       #332
      01008D4FH   LINE      CODE     ---       #333
      01008D4FH   LINE      CODE     ---       #334
      01008D53H   LINE      CODE     ---       #335
      ---         BLOCKEND  ---      ---       LVL=0

      01008462H   BLOCK     CODE     ---       LVL=0
LX51 LINKER/LOCATER V4.66.87.0                                                        06/02/2018  22:09:22  PAGE 134


      01008462H   LINE      CODE     ---       #336
      01008462H   LINE      CODE     ---       #337
      01008462H   LINE      CODE     ---       #338
      0100846CH   LINE      CODE     ---       #339
      01008476H   LINE      CODE     ---       #340
      ---         BLOCKEND  ---      ---       LVL=0

      01005648H   BLOCK     CODE     ---       LVL=0
      02000013H   SYMBOL    XDATA    BYTE      type
      01005648H   LINE      CODE     ---       #342
      0100564DH   LINE      CODE     ---       #343
      0100564DH   LINE      CODE     ---       #344
      0100565AH   LINE      CODE     ---       #345
      01005660H   LINE      CODE     ---       #346
      01005664H   LINE      CODE     ---       #347
      0100566BH   LINE      CODE     ---       #348
      01005671H   LINE      CODE     ---       #349
      01005677H   LINE      CODE     ---       #350
      0100567AH   LINE      CODE     ---       #351
      0100567FH   LINE      CODE     ---       #352
      01005687H   LINE      CODE     ---       #353
      0100568CH   LINE      CODE     ---       #354
      01005693H   LINE      CODE     ---       #355
      0100569AH   LINE      CODE     ---       #356
      010056A1H   LINE      CODE     ---       #357
      010056A8H   LINE      CODE     ---       #358
      010056A8H   LINE      CODE     ---       #359
      ---         BLOCKEND  ---      ---       LVL=0

      01005313H   BLOCK     CODE     ---       LVL=0
      02000016H   SYMBOL    XDATA    BYTE      type
      01005313H   LINE      CODE     ---       #361
      01005318H   LINE      CODE     ---       #362
      01005318H   LINE      CODE     ---       #363
      01005325H   LINE      CODE     ---       #364
      0100532AH   LINE      CODE     ---       #365
      01005330H   LINE      CODE     ---       #366
      01005334H   LINE      CODE     ---       #367
      0100533BH   LINE      CODE     ---       #368
      01005342H   LINE      CODE     ---       #369
      01005348H   LINE      CODE     ---       #370
      0100534EH   LINE      CODE     ---       #371
      01005350H   LINE      CODE     ---       #372
      0100535AH   LINE      CODE     ---       #373
      0100535FH   LINE      CODE     ---       #374
      01005366H   LINE      CODE     ---       #375
      0100536DH   LINE      CODE     ---       #376
      01005374H   LINE      CODE     ---       #377
      01005379H   LINE      CODE     ---       #378
      01005379H   LINE      CODE     ---       #379
      ---         BLOCKEND  ---      ---       LVL=0

      01006C69H   BLOCK     CODE     ---       LVL=0
      01006C69H   LINE      CODE     ---       #382
      01006C7DH   LINE      CODE     ---       #385
      01006C80H   LINE      CODE     ---       #387
      01006C83H   LINE      CODE     ---       #388
      01006C87H   LINE      CODE     ---       #390
      01006C87H   LINE      CODE     ---       #392
      01006C8AH   LINE      CODE     ---       #393
      01006C8DH   LINE      CODE     ---       #395
      01006C8FH   LINE      CODE     ---       #396
      ---         BLOCKEND  ---      ---       LVL=0

      010082BFH   BLOCK     CODE     ---       LVL=0
LX51 LINKER/LOCATER V4.66.87.0                                                        06/02/2018  22:09:22  PAGE 135


      00000007H   SYMBOL    DATA     BYTE      year
      010082BFH   LINE      CODE     ---       #400
      010082BFH   LINE      CODE     ---       #401
      010082BFH   LINE      CODE     ---       #402
      010082C7H   LINE      CODE     ---       #403
      010082D5H   LINE      CODE     ---       #404
      ---         BLOCKEND  ---      ---       LVL=0

      01007CB2H   BLOCK     CODE     ---       LVL=0
      00000007H   SYMBOL    DATA     BYTE      year
      00000005H   SYMBOL    DATA     BYTE      mon
      01007CB2H   LINE      CODE     ---       #406
      01007CB2H   LINE      CODE     ---       #407
      01007CB2H   LINE      CODE     ---       #408
      01007CBAH   LINE      CODE     ---       #409
      01007CC2H   LINE      CODE     ---       #410
      01007CCEH   LINE      CODE     ---       #411
      ---         BLOCKEND  ---      ---       LVL=0

      01008BDDH   BLOCK     CODE     ---       LVL=0
      00000020H.2 SYMBOL    BIT      BIT       enable
      01008BDDH   LINE      CODE     ---       #413
      01008BDDH   LINE      CODE     ---       #414
      01008BDDH   LINE      CODE     ---       #415
      01008BE1H   LINE      CODE     ---       #416
      01008BE5H   LINE      CODE     ---       #417
      ---         BLOCKEND  ---      ---       LVL=0

      01007248H   BLOCK     CODE     ---       LVL=0
      01007248H   LINE      CODE     ---       #419
      01007248H   LINE      CODE     ---       #420
      01007248H   LINE      CODE     ---       #421
      01007251H   LINE      CODE     ---       #422
      01007256H   LINE      CODE     ---       #423
      0100725BH   LINE      CODE     ---       #428
      0100725EH   LINE      CODE     ---       #429
      01007261H   LINE      CODE     ---       #430
      01007264H   LINE      CODE     ---       #431
      01007266H   LINE      CODE     ---       #432
      0100726BH   LINE      CODE     ---       #433
      0100726DH   LINE      CODE     ---       #435
      01007272H   LINE      CODE     ---       #437
      ---         BLOCKEND  ---      ---       LVL=0

      01008973H   BLOCK     CODE     ---       LVL=0
      01008973H   LINE      CODE     ---       #441
      01008973H   LINE      CODE     ---       #442
      01008973H   LINE      CODE     ---       #443
      0100897CH   LINE      CODE     ---       #444
      ---         BLOCKEND  ---      ---       LVL=0

      010081A5H   BLOCK     CODE     ---       LVL=0
      010081A5H   LINE      CODE     ---       #447
      010081A5H   LINE      CODE     ---       #448
      010081A5H   LINE      CODE     ---       #449
      010081AEH   LINE      CODE     ---       #450
      010081B3H   LINE      CODE     ---       #451
      010081B8H   LINE      CODE     ---       #452
      ---         BLOCKEND  ---      ---       LVL=0

      01008D97H   BLOCK     CODE     ---       LVL=0
      01008D97H   LINE      CODE     ---       #455
      01008D97H   LINE      CODE     ---       #456
      01008D97H   LINE      CODE     ---       #457
      01008D99H   LINE      CODE     ---       #458
LX51 LINKER/LOCATER V4.66.87.0                                                        06/02/2018  22:09:22  PAGE 136


      ---         BLOCKEND  ---      ---       LVL=0

      010083CBH   BLOCK     CODE     ---       LVL=0
      010083CBH   LINE      CODE     ---       #460
      010083CBH   LINE      CODE     ---       #461
      010083CBH   LINE      CODE     ---       #462
      010083CDH   LINE      CODE     ---       #463
      010083D2H   LINE      CODE     ---       #464
      010083D7H   LINE      CODE     ---       #465
      010083DCH   LINE      CODE     ---       #466
      ---         BLOCKEND  ---      ---       LVL=0

      ---         MODULE    ---      ---       TIMER
      010081EDH   PUBLIC    CODE     ---       timer_clr
      01008D9AH   PUBLIC    CODE     ---       timer_stop
      0100797BH   PUBLIC    CODE     ---       _timer_get_ms10
      010081D5H   PUBLIC    CODE     ---       _timer_inc_sec
      0100856AH   PUBLIC    CODE     ---       _timer_get_sec
      010081BDH   PUBLIC    CODE     ---       _timer_inc_min
      01008556H   PUBLIC    CODE     ---       _timer_get_min
      01007D09H   PUBLIC    CODE     ---       _timer_inc_hour
      01008542H   PUBLIC    CODE     ---       _timer_get_hour
      01007429H   PUBLIC    CODE     ---       _timer_save
      010083E1H   PUBLIC    CODE     ---       timer_start
      01008D0BH   PUBLIC    CODE     ---       _timer_set_mode
      00000020H.0 PUBLIC    BIT      BIT       ?timer_set_led_autorefresh?BIT
      02000014H   PUBLIC    XDATA    BYTE      ?timer_set_led_autorefresh?BYTE
      010087FEH   PUBLIC    CODE     ---       timer_set_led_autorefresh
      01008BE6H   PUBLIC    CODE     ---       timer_leave_powersave
      010089F9H   PUBLIC    CODE     ---       timer_enter_powersave
      010086B3H   PUBLIC    CODE     ---       timer_initialize
      01002D70H   PUBLIC    CODE     ---       timer_inc_ms39
      00000022H.1 SYMBOL    BIT      BIT       tmr_display
      00000022H.2 SYMBOL    BIT      BIT       tmr_countdown_stop
      020000A8H   SYMBOL    XDATA    ---       tmr
      020000BCH   SYMBOL    XDATA    BYTE      tmr_mode
      00000022H.3 SYMBOL    BIT      BIT       tmr_start
      00000022H.4 SYMBOL    BIT      BIT       tmr_disp_mmssms

      010053E9H   BLOCK     CODE     ---       LVL=0
      ---         BLOCKEND  ---      ---       LVL=0

      01002D70H   BLOCK     CODE     ---       LVL=0
      01002D70H   BLOCK     CODE     NEAR LAB  LVL=1
      00000007H   SYMBOL    DATA     BYTE      ms10
      ---         BLOCKEND  ---      ---       LVL=1
      01002D70H   LINE      CODE     ---       #18
      01002D70H   LINE      CODE     ---       #19
      01002D70H   LINE      CODE     ---       #22
      01002D76H   LINE      CODE     ---       #25
      01002D7CH   LINE      CODE     ---       #26
      01002D82H   LINE      CODE     ---       #27
      01002D88H   LINE      CODE     ---       #28
      01002D91H   LINE      CODE     ---       #29
      01002D94H   LINE      CODE     ---       #30
      01002D9DH   LINE      CODE     ---       #31
      01002DA0H   LINE      CODE     ---       #32
      01002DADH   LINE      CODE     ---       #33
      01002DADH   LINE      CODE     ---       #34
      01002DADH   LINE      CODE     ---       #35
      01002DADH   LINE      CODE     ---       #36
      01002DAFH   LINE      CODE     ---       #37
      01002DB2H   LINE      CODE     ---       #38
      01002DCAH   LINE      CODE     ---       #41
      01002DCAH   LINE      CODE     ---       #42
LX51 LINKER/LOCATER V4.66.87.0                                                        06/02/2018  22:09:22  PAGE 137


      01002DD0H   LINE      CODE     ---       #43
      01002DD4H   LINE      CODE     ---       #44
      01002DDAH   LINE      CODE     ---       #45
      01002DDEH   LINE      CODE     ---       #46
      01002DE1H   LINE      CODE     ---       #47
      01002DE7H   LINE      CODE     ---       #48
      01002DEBH   LINE      CODE     ---       #49
      01002DEEH   LINE      CODE     ---       #50
      01002DF7H   LINE      CODE     ---       #51
      01002DFAH   LINE      CODE     ---       #52
      01002DFAH   LINE      CODE     ---       #53
      01002DFAH   LINE      CODE     ---       #54
      01002DFAH   LINE      CODE     ---       #55
      01002DFAH   LINE      CODE     ---       #56
      01002DFCH   LINE      CODE     ---       #57
      01002DFEH   LINE      CODE     ---       #58
      01002E07H   LINE      CODE     ---       #59
      01002E07H   LINE      CODE     ---       #60
      01002E07H   LINE      CODE     ---       #61
      01002E07H   LINE      CODE     ---       #62
      01002E0AH   LINE      CODE     ---       #63
      01002E13H   LINE      CODE     ---       #64
      01002E16H   LINE      CODE     ---       #65
      01002E20H   LINE      CODE     ---       #66
      01002E24H   LINE      CODE     ---       #67
      01002E2DH   LINE      CODE     ---       #68
      01002E31H   LINE      CODE     ---       #69
      01002E36H   LINE      CODE     ---       #70
      01002E36H   LINE      CODE     ---       #71
      01002E38H   LINE      CODE     ---       #72
      01002E43H   LINE      CODE     ---       #73
      01002E46H   LINE      CODE     ---       #74
      01002E50H   LINE      CODE     ---       #75
      01002E53H   LINE      CODE     ---       #76
      01002E5DH   LINE      CODE     ---       #77
      01002E60H   LINE      CODE     ---       #78
      01002E60H   LINE      CODE     ---       #79
      01002E66H   LINE      CODE     ---       #80
      01002E6CH   LINE      CODE     ---       #81
      01002E6CH   LINE      CODE     ---       #82
      ---         BLOCKEND  ---      ---       LVL=0

      010086B3H   BLOCK     CODE     ---       LVL=0
      010086B3H   LINE      CODE     ---       #85
      010086B3H   LINE      CODE     ---       #86
      010086B3H   LINE      CODE     ---       #87
      010086BCH   LINE      CODE     ---       #89
      010086BEH   LINE      CODE     ---       #90
      010086C0H   LINE      CODE     ---       #91
      010086C2H   LINE      CODE     ---       #92
      010086C4H   LINE      CODE     ---       #93
      ---         BLOCKEND  ---      ---       LVL=0

      010089F9H   BLOCK     CODE     ---       LVL=0
      010089F9H   LINE      CODE     ---       #95
      010089F9H   LINE      CODE     ---       #96
      010089F9H   LINE      CODE     ---       #97
      01008A02H   LINE      CODE     ---       #98
      ---         BLOCKEND  ---      ---       LVL=0

      01008BE6H   BLOCK     CODE     ---       LVL=0
      01008BE6H   LINE      CODE     ---       #101
      01008BE6H   LINE      CODE     ---       #102
      01008BE6H   LINE      CODE     ---       #103
      ---         BLOCKEND  ---      ---       LVL=0
LX51 LINKER/LOCATER V4.66.87.0                                                        06/02/2018  22:09:22  PAGE 138



      010087FEH   BLOCK     CODE     ---       LVL=0
      00000020H.0 SYMBOL    BIT      BIT       enable
      02000014H   SYMBOL    XDATA    BYTE      mode
      010087FEH   LINE      CODE     ---       #106
      010087FEH   LINE      CODE     ---       #107
      010087FEH   LINE      CODE     ---       #108
      01008802H   LINE      CODE     ---       #109
      01008808H   LINE      CODE     ---       #110
      0100880AH   LINE      CODE     ---       #111
      0100880BH   LINE      CODE     ---       #112
      0100880DH   LINE      CODE     ---       #113
      0100880DH   LINE      CODE     ---       #114
      ---         BLOCKEND  ---      ---       LVL=0

      01008D0BH   BLOCK     CODE     ---       LVL=0
      00000007H   SYMBOL    DATA     BYTE      mode
      01008D0BH   LINE      CODE     ---       #116
      01008D0BH   LINE      CODE     ---       #117
      01008D0BH   LINE      CODE     ---       #118
      01008D10H   LINE      CODE     ---       #119
      ---         BLOCKEND  ---      ---       LVL=0

      010083E1H   BLOCK     CODE     ---       LVL=0
      010083E1H   LINE      CODE     ---       #121
      010083E1H   LINE      CODE     ---       #122
      010083E1H   LINE      CODE     ---       #123
      010083F2H   LINE      CODE     ---       #124
      010083F4H   LINE      CODE     ---       #125
      010083F6H   LINE      CODE     ---       #126
      ---         BLOCKEND  ---      ---       LVL=0

      01007429H   BLOCK     CODE     ---       LVL=0
      00000007H   SYMBOL    DATA     BYTE      slot
      01007429H   LINE      CODE     ---       #128
      01007429H   LINE      CODE     ---       #129
      01007429H   LINE      CODE     ---       #130
      01007434H   LINE      CODE     ---       #131
      01007452H   LINE      CODE     ---       #132
      01007452H   LINE      CODE     ---       #133
      ---         BLOCKEND  ---      ---       LVL=0

      01008542H   BLOCK     CODE     ---       LVL=0
      00000007H   SYMBOL    DATA     BYTE      slot
      01008542H   LINE      CODE     ---       #135
      01008542H   LINE      CODE     ---       #136
      01008542H   LINE      CODE     ---       #137
      0100854DH   LINE      CODE     ---       #138
      01008553H   LINE      CODE     ---       #139
      01008553H   LINE      CODE     ---       #140
      01008555H   LINE      CODE     ---       #141
      ---         BLOCKEND  ---      ---       LVL=0

      01007D09H   BLOCK     CODE     ---       LVL=0
      00000007H   SYMBOL    DATA     BYTE      slot
      01007D09H   LINE      CODE     ---       #142
      01007D09H   LINE      CODE     ---       #143
      01007D09H   LINE      CODE     ---       #144
      01007D14H   LINE      CODE     ---       #145
      01007D24H   LINE      CODE     ---       #146
      01007D24H   LINE      CODE     ---       #147
      ---         BLOCKEND  ---      ---       LVL=0

      01008556H   BLOCK     CODE     ---       LVL=0
      00000007H   SYMBOL    DATA     BYTE      slot
LX51 LINKER/LOCATER V4.66.87.0                                                        06/02/2018  22:09:22  PAGE 139


      01008556H   LINE      CODE     ---       #149
      01008556H   LINE      CODE     ---       #150
      01008556H   LINE      CODE     ---       #151
      01008561H   LINE      CODE     ---       #152
      01008567H   LINE      CODE     ---       #153
      01008567H   LINE      CODE     ---       #154
      01008569H   LINE      CODE     ---       #155
      ---         BLOCKEND  ---      ---       LVL=0

      010081BDH   BLOCK     CODE     ---       LVL=0
      00000007H   SYMBOL    DATA     BYTE      slot
      010081BDH   LINE      CODE     ---       #156
      010081BDH   LINE      CODE     ---       #157
      010081BDH   LINE      CODE     ---       #158
      010081C8H   LINE      CODE     ---       #159
      010081D4H   LINE      CODE     ---       #160
      010081D4H   LINE      CODE     ---       #161
      ---         BLOCKEND  ---      ---       LVL=0

      0100856AH   BLOCK     CODE     ---       LVL=0
      00000007H   SYMBOL    DATA     BYTE      slot
      0100856AH   LINE      CODE     ---       #164
      0100856AH   LINE      CODE     ---       #165
      0100856AH   LINE      CODE     ---       #166
      01008575H   LINE      CODE     ---       #167
      0100857BH   LINE      CODE     ---       #168
      0100857BH   LINE      CODE     ---       #169
      0100857DH   LINE      CODE     ---       #170
      ---         BLOCKEND  ---      ---       LVL=0

      010081D5H   BLOCK     CODE     ---       LVL=0
      00000007H   SYMBOL    DATA     BYTE      slot
      010081D5H   LINE      CODE     ---       #171
      010081D5H   LINE      CODE     ---       #172
      010081D5H   LINE      CODE     ---       #173
      010081E0H   LINE      CODE     ---       #174
      010081ECH   LINE      CODE     ---       #175
      010081ECH   LINE      CODE     ---       #176
      ---         BLOCKEND  ---      ---       LVL=0

      0100797BH   BLOCK     CODE     ---       LVL=0
      00000007H   SYMBOL    DATA     BYTE      slot
      0100797BH   LINE      CODE     ---       #178
      0100797BH   LINE      CODE     ---       #179
      0100797BH   LINE      CODE     ---       #181
      01007986H   LINE      CODE     ---       #182
      0100799AH   LINE      CODE     ---       #183
      0100799AH   LINE      CODE     ---       #184
      0100799CH   LINE      CODE     ---       #185
      ---         BLOCKEND  ---      ---       LVL=0

      01008D9AH   BLOCK     CODE     ---       LVL=0
      01008D9AH   LINE      CODE     ---       #187
      01008D9AH   LINE      CODE     ---       #188
      01008D9AH   LINE      CODE     ---       #189
      01008D9CH   LINE      CODE     ---       #190
      ---         BLOCKEND  ---      ---       LVL=0

      010081EDH   BLOCK     CODE     ---       LVL=0
      010081EDH   LINE      CODE     ---       #192
      010081EDH   LINE      CODE     ---       #193
      010081EDH   LINE      CODE     ---       #194
      010081FCH   LINE      CODE     ---       #196
      010081FEH   LINE      CODE     ---       #197
      01008200H   LINE      CODE     ---       #198
LX51 LINKER/LOCATER V4.66.87.0                                                        06/02/2018  22:09:22  PAGE 140


      01008202H   LINE      CODE     ---       #199
      01008204H   LINE      CODE     ---       #200
      ---         BLOCKEND  ---      ---       LVL=0

      ---         MODULE    ---      ---       INT_HUB
      01005829H   PUBLIC    CODE     ---       _scan_int_hub_proc
      01000F4CH   PUBLIC    CODE     ---       _int_hub_dump_ext_status
      01005584H   PUBLIC    CODE     ---       int_hub_get_status
      010056A9H   PUBLIC    CODE     ---       int_hub_dump
      010075C4H   PUBLIC    CODE     ---       _int_hub_test_bit
      010052A7H   PUBLIC    CODE     ---       int_hub_initialize
      00000080H   SFRSYM    DATA     BYTE      P0
      00000090H   SFRSYM    DATA     BYTE      P1
      000000A0H   SFRSYM    DATA     BYTE      P2
      000000B0H   SFRSYM    DATA     BYTE      P3
      000000C0H   SFRSYM    DATA     BYTE      XICON
      000000B0H.4 SFRSYM    DATA     BIT       T0
      000000D0H.6 SFRSYM    DATA     BIT       AC
      000000E8H   SFRSYM    DATA     BYTE      P4
      000000B0H.5 SFRSYM    DATA     BIT       T1
      000000E6H   SFRSYM    DATA     BYTE      ISP_TRIG
      00000090H.0 SFRSYM    DATA     BIT       T2
      000000A8H.7 SFRSYM    DATA     BIT       EA
      000000A8H.6 SFRSYM    DATA     BIT       EC
      00000098H.7 SFRSYM    DATA     BIT       FE
      000000A8H   SFRSYM    DATA     BYTE      IE
      000000C8H.6 SFRSYM    DATA     BIT       EXF2
      000000B0H.7 SFRSYM    DATA     BIT       RD
      000000A8H.4 SFRSYM    DATA     BIT       ES
      000000B8H   SFRSYM    DATA     BYTE      IP
      00000098H.0 SFRSYM    DATA     BIT       RI
      000000B0H.2 SFRSYM    DATA     BIT       INT0
      000000D0H.7 SFRSYM    DATA     BIT       CY
      00000098H.1 SFRSYM    DATA     BIT       TI
      000000B0H.3 SFRSYM    DATA     BIT       INT1
      00000090H.3 SFRSYM    DATA     BIT       THERMO_INT
      000000CBH   SFRSYM    DATA     BYTE      RCAP2H
      000000E5H   SFRSYM    DATA     BYTE      ISP_CMD
      000000B8H.4 SFRSYM    DATA     BIT       PS
      00000081H   SFRSYM    DATA     BYTE      SP
      00000090H.1 SFRSYM    DATA     BIT       T2EX
      000000D0H.2 SFRSYM    DATA     BIT       OV
      000000CAH   SFRSYM    DATA     BYTE      RCAP2L
      000000C8H.1 SFRSYM    DATA     BIT       C_T2
      000000B0H.6 SFRSYM    DATA     BIT       WR
      000000B0H.3 SFRSYM    DATA     BIT       INT_BIT
      000000C8H.5 SFRSYM    DATA     BIT       RCLK
      000000C8H.4 SFRSYM    DATA     BIT       TCLK
      00000080H.0 SFRSYM    DATA     BIT       P00
      00000099H   SFRSYM    DATA     BYTE      SBUF
      00000087H   SFRSYM    DATA     BYTE      PCON
      00000090H.0 SFRSYM    DATA     BIT       P10
      00000080H.1 SFRSYM    DATA     BIT       P01
      000000A0H.0 SFRSYM    DATA     BIT       P20
      00000090H.1 SFRSYM    DATA     BIT       P11
      00000080H.2 SFRSYM    DATA     BIT       P02
      000000E3H   SFRSYM    DATA     BYTE      ISP_ADDRH
      000000B0H.0 SFRSYM    DATA     BIT       P30
      000000A0H.1 SFRSYM    DATA     BIT       P21
      00000090H.2 SFRSYM    DATA     BIT       P12
      00000080H.3 SFRSYM    DATA     BIT       P03
      00000098H   SFRSYM    DATA     BYTE      SCON
      000000B0H.1 SFRSYM    DATA     BIT       P31
      000000A0H.2 SFRSYM    DATA     BIT       P22
      00000090H.3 SFRSYM    DATA     BIT       P13
LX51 LINKER/LOCATER V4.66.87.0                                                        06/02/2018  22:09:22  PAGE 141


      00000080H.4 SFRSYM    DATA     BIT       P04
      000000E8H.0 SFRSYM    DATA     BIT       P40
      00000089H   SFRSYM    DATA     BYTE      TMOD
      00000088H   SFRSYM    DATA     BYTE      TCON
      000000B0H.2 SFRSYM    DATA     BIT       P32
      000000A0H.3 SFRSYM    DATA     BIT       P23
      00000090H.4 SFRSYM    DATA     BIT       P14
      00000080H.5 SFRSYM    DATA     BIT       P05
      000000E8H.1 SFRSYM    DATA     BIT       P41
      00000090H.1 SFRSYM    DATA     BIT       RTC_INT
      000000B0H.3 SFRSYM    DATA     BIT       P33
      000000A0H.4 SFRSYM    DATA     BIT       P24
      00000090H.5 SFRSYM    DATA     BIT       P15
      00000080H.6 SFRSYM    DATA     BIT       P06
      000000E4H   SFRSYM    DATA     BYTE      ISP_ADDRL
      000000E8H.2 SFRSYM    DATA     BIT       P42
      000000B0H.4 SFRSYM    DATA     BIT       P34
      000000A0H.5 SFRSYM    DATA     BIT       P25
      00000090H.6 SFRSYM    DATA     BIT       P16
      00000080H.7 SFRSYM    DATA     BIT       P07
      000000E8H.3 SFRSYM    DATA     BIT       P43
      000000B0H.5 SFRSYM    DATA     BIT       P35
      000000A0H.6 SFRSYM    DATA     BIT       P26
      00000090H.7 SFRSYM    DATA     BIT       P17
      000000E8H.4 SFRSYM    DATA     BIT       P44
      000000B0H.6 SFRSYM    DATA     BIT       P36
      000000A0H.7 SFRSYM    DATA     BIT       P27
      000000E8H.5 SFRSYM    DATA     BIT       P45
      000000B0H.7 SFRSYM    DATA     BIT       P37
      000000E8H.6 SFRSYM    DATA     BIT       P46
      00000090H.4 SFRSYM    DATA     BIT       EXT_INT
      00000088H.1 SFRSYM    DATA     BIT       IE0
      00000090H.2 SFRSYM    DATA     BIT       MPU_INT
      00000088H.3 SFRSYM    DATA     BIT       IE1
      0000008EH   SFRSYM    DATA     BYTE      AUXR
      000000F0H   SFRSYM    DATA     BYTE      B
      000000C8H.0 SFRSYM    DATA     BIT       CP_RL2
      000000E0H   SFRSYM    DATA     BYTE      ACC
      000000A8H.1 SFRSYM    DATA     BIT       ET0
      000000A8H.3 SFRSYM    DATA     BIT       ET1
      00000088H.5 SFRSYM    DATA     BIT       TF0
      000000A8H.5 SFRSYM    DATA     BIT       ET2
      00000088H.7 SFRSYM    DATA     BIT       TF1
      000000C8H.7 SFRSYM    DATA     BIT       TF2
      00000098H.2 SFRSYM    DATA     BIT       RB8
      0000008CH   SFRSYM    DATA     BYTE      TH0
      000000A8H.0 SFRSYM    DATA     BIT       EX0
      00000088H.0 SFRSYM    DATA     BIT       IT0
      0000008DH   SFRSYM    DATA     BYTE      TH1
      00000098H.3 SFRSYM    DATA     BIT       TB8
      000000A8H.2 SFRSYM    DATA     BIT       EX1
      00000088H.2 SFRSYM    DATA     BIT       IT1
      000000CDH   SFRSYM    DATA     BYTE      TH2
      000000D0H.0 SFRSYM    DATA     BIT       P
      00000098H.7 SFRSYM    DATA     BIT       SM0
      0000008AH   SFRSYM    DATA     BYTE      TL0
      00000098H.6 SFRSYM    DATA     BIT       SM1
      0000008BH   SFRSYM    DATA     BYTE      TL1
      00000098H.5 SFRSYM    DATA     BIT       SM2
      000000CCH   SFRSYM    DATA     BYTE      TL2
      000000B8H.1 SFRSYM    DATA     BIT       PT0
      000000B8H.3 SFRSYM    DATA     BIT       PT1
      000000D0H.3 SFRSYM    DATA     BIT       RS0
      000000E7H   SFRSYM    DATA     BYTE      ISP_CONTR
      000000B8H.5 SFRSYM    DATA     BIT       PT2
LX51 LINKER/LOCATER V4.66.87.0                                                        06/02/2018  22:09:22  PAGE 142


      00000088H.4 SFRSYM    DATA     BIT       TR0
      000000D0H.4 SFRSYM    DATA     BIT       RS1
      00000088H.6 SFRSYM    DATA     BIT       TR1
      000000C8H.2 SFRSYM    DATA     BIT       TR2
      000000B8H.0 SFRSYM    DATA     BIT       PX0
      000000E1H   SFRSYM    DATA     BYTE      WDT_CONTR
      000000B8H.2 SFRSYM    DATA     BIT       PX1
      00000083H   SFRSYM    DATA     BYTE      DPH
      00000082H   SFRSYM    DATA     BYTE      DPL
      000000B7H   SFRSYM    DATA     BYTE      IPH
      000000C8H.3 SFRSYM    DATA     BIT       EXEN2
      00000098H.4 SFRSYM    DATA     BIT       REN
      000000C9H   SFRSYM    DATA     BYTE      T2MOD
      000000C8H   SFRSYM    DATA     BYTE      T2CON
      000000E2H   SFRSYM    DATA     BYTE      ISP_DATA
      000000B9H   SFRSYM    DATA     BYTE      SADEN
      000000B0H.0 SFRSYM    DATA     BIT       RXD
      000000A9H   SFRSYM    DATA     BYTE      SADDR
      000000B0H.1 SFRSYM    DATA     BIT       TXD
      000000A2H   SFRSYM    DATA     BYTE      AUXR1
      000000D0H.5 SFRSYM    DATA     BIT       F0
      000000D0H   SFRSYM    DATA     BYTE      PSW
      010087CDH   SYMBOL    CODE     ---       int1_ISR

      01008656H   BLOCK     CODE     ---       LVL=0
      ---         BLOCKEND  ---      ---       LVL=0

      010087CDH   BLOCK     CODE     ---       LVL=0
      010087CDH   LINE      CODE     ---       #29
      010087D4H   LINE      CODE     ---       #31
      010087D6H   LINE      CODE     ---       #32
      010087D9H   LINE      CODE     ---       #33
      ---         BLOCKEND  ---      ---       LVL=0

      010052A7H   BLOCK     CODE     ---       LVL=0
      010052A7H   BLOCK     CODE     NEAR LAB  LVL=1
      02000000H   SYMBOL    XDATA    BYTE      val
      ---         BLOCKEND  ---      ---       LVL=1
      010052A7H   LINE      CODE     ---       #35
      010052A7H   LINE      CODE     ---       #36
      010052A7H   LINE      CODE     ---       #38
      010052B0H   LINE      CODE     ---       #40
      010052B9H   LINE      CODE     ---       #42
      010052BBH   LINE      CODE     ---       #46
      010052C5H   LINE      CODE     ---       #47
      010052CCH   LINE      CODE     ---       #50
      010052D5H   LINE      CODE     ---       #52
      010052D7H   LINE      CODE     ---       #55
      010052E1H   LINE      CODE     ---       #56
      010052E8H   LINE      CODE     ---       #58
      010052EAH   LINE      CODE     ---       #59
      010052ECH   LINE      CODE     ---       #60
      010052EEH   LINE      CODE     ---       #61
      010052F0H   LINE      CODE     ---       #62
      010052F2H   LINE      CODE     ---       #64
      010052F4H   LINE      CODE     ---       #65
      010052F6H   LINE      CODE     ---       #66
      ---         BLOCKEND  ---      ---       LVL=0

      010075C4H   BLOCK     CODE     ---       LVL=0
      00000007H   SYMBOL    DATA     BYTE      index
      00000004H   SYMBOL    DATA     WORD      status
      010075C4H   LINE      CODE     ---       #69
      010075C4H   LINE      CODE     ---       #70
      010075C4H   LINE      CODE     ---       #71
LX51 LINKER/LOCATER V4.66.87.0                                                        06/02/2018  22:09:22  PAGE 143


      010075CAH   LINE      CODE     ---       #72
      010075CBH   LINE      CODE     ---       #74
      010075EAH   LINE      CODE     ---       #75
      ---         BLOCKEND  ---      ---       LVL=0

      010056A9H   BLOCK     CODE     ---       LVL=0
      010056A9H   LINE      CODE     ---       #77
      010056A9H   LINE      CODE     ---       #78
      010056A9H   LINE      CODE     ---       #80
      010056B2H   LINE      CODE     ---       #81
      010056BFH   LINE      CODE     ---       #82
      010056CDH   LINE      CODE     ---       #83
      010056DBH   LINE      CODE     ---       #84
      010056E9H   LINE      CODE     ---       #85
      010056F3H   LINE      CODE     ---       #86
      ---         BLOCKEND  ---      ---       LVL=0

      01005584H   BLOCK     CODE     ---       LVL=0
      01005584H   BLOCK     CODE     NEAR LAB  LVL=1
      02000016H   SYMBOL    XDATA    WORD      status
      02000018H   SYMBOL    XDATA    BYTE      val
      ---         BLOCKEND  ---      ---       LVL=1
      01005584H   LINE      CODE     ---       #88
      01005584H   LINE      CODE     ---       #89
      01005584H   LINE      CODE     ---       #90
      0100558BH   LINE      CODE     ---       #93
      01005598H   LINE      CODE     ---       #94
      0100559CH   LINE      CODE     ---       #95
      010055A4H   LINE      CODE     ---       #97
      010055ADH   LINE      CODE     ---       #98
      010055BAH   LINE      CODE     ---       #99
      010055BEH   LINE      CODE     ---       #100
      010055D0H   LINE      CODE     ---       #102
      010055D0H   LINE      CODE     ---       #103
      ---         BLOCKEND  ---      ---       LVL=0

      01000F4CH   BLOCK     CODE     ---       LVL=0
      02000016H   SYMBOL    XDATA    WORD      status
      01000F4CH   LINE      CODE     ---       #105
      01000F54H   LINE      CODE     ---       #106
      01000F54H   LINE      CODE     ---       #107
      01000F5DH   LINE      CODE     ---       #108
      01000F7EH   LINE      CODE     ---       #109
      01000F96H   LINE      CODE     ---       #110
      01000FAEH   LINE      CODE     ---       #111
      01000FC6H   LINE      CODE     ---       #112
      01000FDEH   LINE      CODE     ---       #113
      01000FF6H   LINE      CODE     ---       #114
      0100100EH   LINE      CODE     ---       #115
      01001026H   LINE      CODE     ---       #116
      0100103EH   LINE      CODE     ---       #117
      01001056H   LINE      CODE     ---       #118
      0100106EH   LINE      CODE     ---       #119
      01001086H   LINE      CODE     ---       #120
      0100109EH   LINE      CODE     ---       #121
      010010B6H   LINE      CODE     ---       #122
      010010D1H   LINE      CODE     ---       #123
      010010F1H   LINE      CODE     ---       #124
      010010FAH   LINE      CODE     ---       #125
      ---         BLOCKEND  ---      ---       LVL=0

      01005829H   BLOCK     CODE     ---       LVL=0
      02000013H   SYMBOL    XDATA    BYTE      ev
      0100582EH   BLOCK     CODE     NEAR LAB  LVL=1
      02000014H   SYMBOL    XDATA    WORD      status
LX51 LINKER/LOCATER V4.66.87.0                                                        06/02/2018  22:09:22  PAGE 144


      ---         BLOCKEND  ---      ---       LVL=1
      01005829H   LINE      CODE     ---       #127
      0100582EH   LINE      CODE     ---       #128
      0100582EH   LINE      CODE     ---       #129
      01005833H   LINE      CODE     ---       #130
      0100583CH   LINE      CODE     ---       #132
      0100583CH   LINE      CODE     ---       #134
      0100583FH   LINE      CODE     ---       #136
      01005842H   LINE      CODE     ---       #137
      01005845H   LINE      CODE     ---       #138
      01005845H   LINE      CODE     ---       #141
      01005848H   LINE      CODE     ---       #149
      01005853H   LINE      CODE     ---       #150
      01005856H   LINE      CODE     ---       #151
      01005861H   LINE      CODE     ---       #152
      0100586CH   LINE      CODE     ---       #153
      0100586CH   LINE      CODE     ---       #156
      0100586FH   LINE      CODE     ---       #157
      01005872H   LINE      CODE     ---       #158
      01005872H   LINE      CODE     ---       #160
      01005875H   LINE      CODE     ---       #161
      01005878H   LINE      CODE     ---       #162
      01005878H   LINE      CODE     ---       #164
      01005884H   LINE      CODE     ---       #165
      01005887H   LINE      CODE     ---       #166
      01005887H   LINE      CODE     ---       #167
      ---         BLOCKEND  ---      ---       LVL=0

      ---         MODULE    ---      ---       FUSE
      00000020H.1 PUBLIC    BIT      BIT       ?fuse_enable?BIT
      01007574H   PUBLIC    CODE     ---       fuse_enable
      00000020H.0 PUBLIC    BIT      BIT       ?fuse_set_tripwire_broke?BIT
      010076ACH   PUBLIC    CODE     ---       fuse_set_tripwire_broke
      00000020H.0 PUBLIC    BIT      BIT       ?_fuse_set_fuse_broke?BIT
      010068BCH   PUBLIC    CODE     ---       _fuse_set_fuse_broke
      0100802BH   PUBLIC    CODE     ---       _fuse_proc
      01004B41H   PUBLIC    CODE     ---       _scan_fuse
      01008BF8H   PUBLIC    CODE     ---       fuse_leave_powersave
      01008BEFH   PUBLIC    CODE     ---       fuse_enter_powersave
      00000020H.0 PUBLIC    BIT      BIT       ?fuse_trigger?BIT
      01006D46H   PUBLIC    CODE     ---       fuse_trigger
      01008A05H   PUBLIC    CODE     ---       fuse_initialize
      00000080H   SFRSYM    DATA     BYTE      P0
      00000090H   SFRSYM    DATA     BYTE      P1
      000000A0H   SFRSYM    DATA     BYTE      P2
      000000B0H   SFRSYM    DATA     BYTE      P3
      000000C0H   SFRSYM    DATA     BYTE      XICON
      000000B0H.4 SFRSYM    DATA     BIT       T0
      000000D0H.6 SFRSYM    DATA     BIT       AC
      000000E8H   SFRSYM    DATA     BYTE      P4
      000000B0H.5 SFRSYM    DATA     BIT       T1
      000000E6H   SFRSYM    DATA     BYTE      ISP_TRIG
      00000090H.0 SFRSYM    DATA     BIT       T2
      000000A8H.7 SFRSYM    DATA     BIT       EA
      000000A8H.6 SFRSYM    DATA     BIT       EC
      00000098H.7 SFRSYM    DATA     BIT       FE
      000000A8H   SFRSYM    DATA     BYTE      IE
      000000C8H.6 SFRSYM    DATA     BIT       EXF2
      000000B0H.7 SFRSYM    DATA     BIT       RD
      000000A8H.4 SFRSYM    DATA     BIT       ES
      000000B8H   SFRSYM    DATA     BYTE      IP
      00000098H.0 SFRSYM    DATA     BIT       RI
      000000B0H.2 SFRSYM    DATA     BIT       INT0
      000000D0H.7 SFRSYM    DATA     BIT       CY
      00000098H.1 SFRSYM    DATA     BIT       TI
LX51 LINKER/LOCATER V4.66.87.0                                                        06/02/2018  22:09:22  PAGE 145


      000000B0H.3 SFRSYM    DATA     BIT       INT1
      000000CBH   SFRSYM    DATA     BYTE      RCAP2H
      000000E5H   SFRSYM    DATA     BYTE      ISP_CMD
      000000B8H.4 SFRSYM    DATA     BIT       PS
      00000081H   SFRSYM    DATA     BYTE      SP
      00000090H.1 SFRSYM    DATA     BIT       T2EX
      000000D0H.2 SFRSYM    DATA     BIT       OV
      000000CAH   SFRSYM    DATA     BYTE      RCAP2L
      000000C8H.1 SFRSYM    DATA     BIT       C_T2
      000000B0H.6 SFRSYM    DATA     BIT       WR
      000000C8H.5 SFRSYM    DATA     BIT       RCLK
      000000C8H.4 SFRSYM    DATA     BIT       TCLK
      00000080H.0 SFRSYM    DATA     BIT       P00
      00000099H   SFRSYM    DATA     BYTE      SBUF
      00000087H   SFRSYM    DATA     BYTE      PCON
      00000090H.0 SFRSYM    DATA     BIT       P10
      00000080H.1 SFRSYM    DATA     BIT       P01
      000000A0H.0 SFRSYM    DATA     BIT       P20
      00000090H.1 SFRSYM    DATA     BIT       P11
      00000080H.2 SFRSYM    DATA     BIT       P02
      000000E3H   SFRSYM    DATA     BYTE      ISP_ADDRH
      000000B0H.0 SFRSYM    DATA     BIT       P30
      000000A0H.1 SFRSYM    DATA     BIT       P21
      00000090H.2 SFRSYM    DATA     BIT       P12
      00000080H.3 SFRSYM    DATA     BIT       P03
      00000098H   SFRSYM    DATA     BYTE      SCON
      000000B0H.1 SFRSYM    DATA     BIT       P31
      000000A0H.2 SFRSYM    DATA     BIT       P22
      00000090H.3 SFRSYM    DATA     BIT       P13
      00000080H.4 SFRSYM    DATA     BIT       P04
      000000E8H.0 SFRSYM    DATA     BIT       P40
      00000089H   SFRSYM    DATA     BYTE      TMOD
      00000088H   SFRSYM    DATA     BYTE      TCON
      000000B0H.2 SFRSYM    DATA     BIT       P32
      000000A0H.3 SFRSYM    DATA     BIT       P23
      00000090H.4 SFRSYM    DATA     BIT       P14
      00000080H.5 SFRSYM    DATA     BIT       P05
      000000E8H.1 SFRSYM    DATA     BIT       P41
      000000B0H.3 SFRSYM    DATA     BIT       P33
      000000A0H.4 SFRSYM    DATA     BIT       P24
      00000090H.5 SFRSYM    DATA     BIT       P15
      00000080H.6 SFRSYM    DATA     BIT       P06
      000000E4H   SFRSYM    DATA     BYTE      ISP_ADDRL
      000000E8H.2 SFRSYM    DATA     BIT       P42
      000000B0H.4 SFRSYM    DATA     BIT       P34
      000000A0H.5 SFRSYM    DATA     BIT       P25
      00000090H.6 SFRSYM    DATA     BIT       P16
      00000080H.7 SFRSYM    DATA     BIT       P07
      000000E8H.3 SFRSYM    DATA     BIT       P43
      000000B0H.5 SFRSYM    DATA     BIT       P35
      000000A0H.6 SFRSYM    DATA     BIT       P26
      00000090H.7 SFRSYM    DATA     BIT       P17
      000000E8H.4 SFRSYM    DATA     BIT       P44
      000000B0H.6 SFRSYM    DATA     BIT       P36
      000000A0H.7 SFRSYM    DATA     BIT       P27
      000000E8H.5 SFRSYM    DATA     BIT       P45
      000000B0H.7 SFRSYM    DATA     BIT       P37
      000000E8H.6 SFRSYM    DATA     BIT       P46
      00000088H.1 SFRSYM    DATA     BIT       IE0
      00000088H.3 SFRSYM    DATA     BIT       IE1
      0000008EH   SFRSYM    DATA     BYTE      AUXR
      000000F0H   SFRSYM    DATA     BYTE      B
      000000C8H.0 SFRSYM    DATA     BIT       CP_RL2
      000000E0H   SFRSYM    DATA     BYTE      ACC
      000000A8H.1 SFRSYM    DATA     BIT       ET0
LX51 LINKER/LOCATER V4.66.87.0                                                        06/02/2018  22:09:22  PAGE 146


      000000A8H.3 SFRSYM    DATA     BIT       ET1
      00000088H.5 SFRSYM    DATA     BIT       TF0
      000000A8H.5 SFRSYM    DATA     BIT       ET2
      00000088H.7 SFRSYM    DATA     BIT       TF1
      000000C8H.7 SFRSYM    DATA     BIT       TF2
      00000098H.2 SFRSYM    DATA     BIT       RB8
      0000008CH   SFRSYM    DATA     BYTE      TH0
      000000A8H.0 SFRSYM    DATA     BIT       EX0
      00000088H.0 SFRSYM    DATA     BIT       IT0
      0000008DH   SFRSYM    DATA     BYTE      TH1
      00000098H.3 SFRSYM    DATA     BIT       TB8
      000000A8H.2 SFRSYM    DATA     BIT       EX1
      00000088H.2 SFRSYM    DATA     BIT       IT1
      000000CDH   SFRSYM    DATA     BYTE      TH2
      000000D0H.0 SFRSYM    DATA     BIT       P
      00000098H.7 SFRSYM    DATA     BIT       SM0
      0000008AH   SFRSYM    DATA     BYTE      TL0
      00000098H.6 SFRSYM    DATA     BIT       SM1
      0000008BH   SFRSYM    DATA     BYTE      TL1
      00000098H.5 SFRSYM    DATA     BIT       SM2
      000000CCH   SFRSYM    DATA     BYTE      TL2
      000000B8H.1 SFRSYM    DATA     BIT       PT0
      000000B8H.3 SFRSYM    DATA     BIT       PT1
      000000D0H.3 SFRSYM    DATA     BIT       RS0
      000000E7H   SFRSYM    DATA     BYTE      ISP_CONTR
      000000B8H.5 SFRSYM    DATA     BIT       PT2
      00000088H.4 SFRSYM    DATA     BIT       TR0
      000000D0H.4 SFRSYM    DATA     BIT       RS1
      00000088H.6 SFRSYM    DATA     BIT       TR1
      000000C8H.2 SFRSYM    DATA     BIT       TR2
      000000B8H.0 SFRSYM    DATA     BIT       PX0
      000000E1H   SFRSYM    DATA     BYTE      WDT_CONTR
      000000B8H.2 SFRSYM    DATA     BIT       PX1
      00000083H   SFRSYM    DATA     BYTE      DPH
      00000082H   SFRSYM    DATA     BYTE      DPL
      000000B7H   SFRSYM    DATA     BYTE      IPH
      000000C8H.3 SFRSYM    DATA     BIT       EXEN2
      00000098H.4 SFRSYM    DATA     BIT       REN
      000000C9H   SFRSYM    DATA     BYTE      T2MOD
      000000C8H   SFRSYM    DATA     BYTE      T2CON
      000000E2H   SFRSYM    DATA     BYTE      ISP_DATA
      000000B9H   SFRSYM    DATA     BYTE      SADEN
      000000B0H.0 SFRSYM    DATA     BIT       RXD
      000000A9H   SFRSYM    DATA     BYTE      SADDR
      000000B0H.1 SFRSYM    DATA     BIT       TXD
      000000A2H   SFRSYM    DATA     BYTE      AUXR1
      000000D0H.5 SFRSYM    DATA     BIT       F0
      000000D0H   SFRSYM    DATA     BYTE      PSW
      010075EBH   SYMBOL    CODE     ---       fuse_power_on
      01007612H   SYMBOL    CODE     ---       fuse_power_off
      00000025H.2 SYMBOL    BIT      BIT       fuse_enabled

      010075EBH   BLOCK     CODE     ---       LVL=0
      010075EBH   LINE      CODE     ---       #17
      010075EBH   LINE      CODE     ---       #18
      010075EBH   LINE      CODE     ---       #19
      010075F2H   LINE      CODE     ---       #20
      010075F9H   LINE      CODE     ---       #21
      010075F9H   LINE      CODE     ---       #22
      010075FCH   LINE      CODE     ---       #23
      010075FCH   LINE      CODE     ---       #24
      010075FFH   LINE      CODE     ---       #25
      01007602H   LINE      CODE     ---       #26
      01007604H   LINE      CODE     ---       #27
      ---         BLOCKEND  ---      ---       LVL=0
LX51 LINKER/LOCATER V4.66.87.0                                                        06/02/2018  22:09:22  PAGE 147



      01007612H   BLOCK     CODE     ---       LVL=0
      01007612H   LINE      CODE     ---       #29
      01007612H   LINE      CODE     ---       #30
      01007612H   LINE      CODE     ---       #31
      01007619H   LINE      CODE     ---       #32
      01007620H   LINE      CODE     ---       #33
      01007620H   LINE      CODE     ---       #34
      01007623H   LINE      CODE     ---       #35
      01007623H   LINE      CODE     ---       #36
      01007626H   LINE      CODE     ---       #37
      01007629H   LINE      CODE     ---       #38
      0100762BH   LINE      CODE     ---       #39
      ---         BLOCKEND  ---      ---       LVL=0

      01008A05H   BLOCK     CODE     ---       LVL=0
      01008A05H   LINE      CODE     ---       #41
      01008A05H   LINE      CODE     ---       #42
      01008A05H   LINE      CODE     ---       #43
      01008A0EH   LINE      CODE     ---       #44
      ---         BLOCKEND  ---      ---       LVL=0

      01006D46H   BLOCK     CODE     ---       LVL=0
      00000020H.0 SYMBOL    BIT      BIT       enable
      01006D46H   LINE      CODE     ---       #48
      01006D46H   LINE      CODE     ---       #49
      01006D46H   LINE      CODE     ---       #50
      01006D5BH   LINE      CODE     ---       #52
      01006D5EH   LINE      CODE     ---       #55
      01006D65H   LINE      CODE     ---       #58
      01006D6FH   LINE      CODE     ---       #59
      01006D78H   LINE      CODE     ---       #60
      01006D7BH   LINE      CODE     ---       #61
      ---         BLOCKEND  ---      ---       LVL=0

      01008BEFH   BLOCK     CODE     ---       LVL=0
      01008BEFH   LINE      CODE     ---       #63
      01008BEFH   LINE      CODE     ---       #64
      01008BEFH   LINE      CODE     ---       #65
      ---         BLOCKEND  ---      ---       LVL=0

      01008BF8H   BLOCK     CODE     ---       LVL=0
      01008BF8H   LINE      CODE     ---       #68
      01008BF8H   LINE      CODE     ---       #69
      01008BF8H   LINE      CODE     ---       #70
      ---         BLOCKEND  ---      ---       LVL=0

      01004B41H   BLOCK     CODE     ---       LVL=0
      02000016H   SYMBOL    XDATA    WORD      status
      01004B49H   BLOCK     CODE     NEAR LAB  LVL=1
      00000020H.0 SYMBOL    BIT      BIT       has_event
      ---         BLOCKEND  ---      ---       LVL=1
      01004B41H   LINE      CODE     ---       #73
      01004B49H   LINE      CODE     ---       #74
      01004B49H   LINE      CODE     ---       #75
      01004B4BH   LINE      CODE     ---       #76
      01004B5CH   LINE      CODE     ---       #78
      01004B63H   LINE      CODE     ---       #79
      01004B6CH   LINE      CODE     ---       #80
      01004B6FH   LINE      CODE     ---       #81
      01004B78H   LINE      CODE     ---       #82
      01004B7AH   LINE      CODE     ---       #83
      01004B7AH   LINE      CODE     ---       #85
      01004B81H   LINE      CODE     ---       #86
      01004B8AH   LINE      CODE     ---       #87
LX51 LINKER/LOCATER V4.66.87.0                                                        06/02/2018  22:09:22  PAGE 148


      01004B8DH   LINE      CODE     ---       #88
      01004B96H   LINE      CODE     ---       #89
      01004B98H   LINE      CODE     ---       #90
      01004B98H   LINE      CODE     ---       #92
      01004B9FH   LINE      CODE     ---       #93
      01004BA8H   LINE      CODE     ---       #94
      01004BABH   LINE      CODE     ---       #95
      01004BB1H   LINE      CODE     ---       #96
      01004BB3H   LINE      CODE     ---       #97
      01004BB3H   LINE      CODE     ---       #99
      01004BBBH   LINE      CODE     ---       #100
      01004BBEH   LINE      CODE     ---       #101
      01004BBEH   LINE      CODE     ---       #102
      ---         BLOCKEND  ---      ---       LVL=0

      0100802BH   BLOCK     CODE     ---       LVL=0
      0200000CH   SYMBOL    XDATA    BYTE      ev
      0100802BH   LINE      CODE     ---       #104
      01008030H   LINE      CODE     ---       #105
      01008030H   LINE      CODE     ---       #106
      0100803DH   LINE      CODE     ---       #107
      ---         BLOCKEND  ---      ---       LVL=0

      010068BCH   BLOCK     CODE     ---       LVL=0
      02000012H   SYMBOL    XDATA    BYTE      index
      00000020H.0 SYMBOL    BIT      BIT       enable
      010068BCH   LINE      CODE     ---       #111
      010068C1H   LINE      CODE     ---       #112
      010068C1H   LINE      CODE     ---       #113
      010068DAH   LINE      CODE     ---       #115
      010068DDH   LINE      CODE     ---       #117
      010068E3H   LINE      CODE     ---       #118
      010068ECH   LINE      CODE     ---       #120
      010068F6H   LINE      CODE     ---       #122
      010068F9H   LINE      CODE     ---       #123
      ---         BLOCKEND  ---      ---       LVL=0

      010076ACH   BLOCK     CODE     ---       LVL=0
      00000020H.0 SYMBOL    BIT      BIT       broke
      010076ACH   LINE      CODE     ---       #125
      010076ACH   LINE      CODE     ---       #126
      010076ACH   LINE      CODE     ---       #127
      010076C1H   LINE      CODE     ---       #129
      010076C4H   LINE      CODE     ---       #131
      010076CEH   LINE      CODE     ---       #132
      010076D1H   LINE      CODE     ---       #133
      ---         BLOCKEND  ---      ---       LVL=0

      01007574H   BLOCK     CODE     ---       LVL=0
      00000020H.1 SYMBOL    BIT      BIT       enable
      01007574H   LINE      CODE     ---       #135
      01007574H   LINE      CODE     ---       #136
      01007574H   LINE      CODE     ---       #137
      01007589H   LINE      CODE     ---       #139
      0100758FH   LINE      CODE     ---       #140
      01007592H   LINE      CODE     ---       #141
      01007598H   LINE      CODE     ---       #142
      0100759BH   LINE      CODE     ---       #143
      0100759BH   LINE      CODE     ---       #144
      ---         BLOCKEND  ---      ---       LVL=0

      ---         MODULE    ---      ---       HG
      010086D7H   PUBLIC    CODE     ---       hg_get_state
      00000020H.1 PUBLIC    BIT      BIT       ?hg_enable?BIT
      0100759CH   PUBLIC    CODE     ---       hg_enable
LX51 LINKER/LOCATER V4.66.87.0                                                        06/02/2018  22:09:22  PAGE 149


      01008A1DH   PUBLIC    CODE     ---       hg_initialize
      01004F8FH   PUBLIC    CODE     ---       _scan_hg
      01008C0AH   PUBLIC    CODE     ---       hg_leave_powersave
      01008C01H   PUBLIC    CODE     ---       hg_enter_powersave
      00000025H.3 SYMBOL    BIT      BIT       hg_enabled
      01007FA6H   SYMBOL    CODE     ---       hg_power_on
      020000E9H   SYMBOL    XDATA    BYTE      hg_state
      010086C5H   SYMBOL    CODE     ---       __hg_get_state
      01008A11H   SYMBOL    CODE     ---       hg_cb_set_enable
      010089D4H   SYMBOL    CODE     ---       hg_power_off

      01008A9DH   BLOCK     CODE     ---       LVL=0
      ---         BLOCKEND  ---      ---       LVL=0

      01008C01H   BLOCK     CODE     ---       LVL=0
      01008C01H   LINE      CODE     ---       #15
      01008C01H   LINE      CODE     ---       #16
      01008C01H   LINE      CODE     ---       #17
      ---         BLOCKEND  ---      ---       LVL=0

      01008C0AH   BLOCK     CODE     ---       LVL=0
      01008C0AH   LINE      CODE     ---       #20
      01008C0AH   LINE      CODE     ---       #21
      01008C0AH   LINE      CODE     ---       #22
      ---         BLOCKEND  ---      ---       LVL=0

      010086C5H   BLOCK     CODE     ---       LVL=0
      00000006H   SYMBOL    DATA     WORD      status
      010086C5H   LINE      CODE     ---       #25
      010086C5H   LINE      CODE     ---       #26
      010086C5H   LINE      CODE     ---       #27
      010086D6H   LINE      CODE     ---       #28
      ---         BLOCKEND  ---      ---       LVL=0

      01008A11H   BLOCK     CODE     ---       LVL=0
      01008A11H   LINE      CODE     ---       #30
      01008A11H   LINE      CODE     ---       #31
      01008A11H   LINE      CODE     ---       #32
      01008A1AH   LINE      CODE     ---       #33
      01008A1CH   LINE      CODE     ---       #34
      ---         BLOCKEND  ---      ---       LVL=0

      01004F8FH   BLOCK     CODE     ---       LVL=0
      02000016H   SYMBOL    XDATA    WORD      status
      01004F97H   BLOCK     CODE     NEAR LAB  LVL=1
      02000018H   SYMBOL    XDATA    BYTE      hg_new_state
      ---         BLOCKEND  ---      ---       LVL=1
      01004F8FH   LINE      CODE     ---       #36
      01004F97H   LINE      CODE     ---       #37
      01004F97H   LINE      CODE     ---       #39
      01004FA8H   LINE      CODE     ---       #41
      01004FB6H   LINE      CODE     ---       #43
      01004FC3H   LINE      CODE     ---       #45
      01004FCFH   LINE      CODE     ---       #46
      01004FD2H   LINE      CODE     ---       #47
      01004FDBH   LINE      CODE     ---       #48
      01004FE1H   LINE      CODE     ---       #49
      01004FE1H   LINE      CODE     ---       #50
      01004FE6H   LINE      CODE     ---       #51
      01004FE9H   LINE      CODE     ---       #52
      01004FE9H   LINE      CODE     ---       #54
      01004FFBH   LINE      CODE     ---       #55
      01005003H   LINE      CODE     ---       #56
      01005003H   LINE      CODE     ---       #58
      ---         BLOCKEND  ---      ---       LVL=0
LX51 LINKER/LOCATER V4.66.87.0                                                        06/02/2018  22:09:22  PAGE 150



      01007FA6H   BLOCK     CODE     ---       LVL=0
      01007FA6H   LINE      CODE     ---       #60
      01007FA6H   LINE      CODE     ---       #61
      01007FA6H   LINE      CODE     ---       #62
      01007FADH   LINE      CODE     ---       #63
      01007FB0H   LINE      CODE     ---       #64
      01007FB6H   LINE      CODE     ---       #65
      ---         BLOCKEND  ---      ---       LVL=0

      010089D4H   BLOCK     CODE     ---       LVL=0
      010089D4H   LINE      CODE     ---       #68
      010089D4H   LINE      CODE     ---       #69
      010089D4H   LINE      CODE     ---       #70
      010089DBH   LINE      CODE     ---       #71
      010089DEH   LINE      CODE     ---       #72
      010089E0H   LINE      CODE     ---       #73
      ---         BLOCKEND  ---      ---       LVL=0

      01008A1DH   BLOCK     CODE     ---       LVL=0
      01008A1DH   LINE      CODE     ---       #75
      01008A1DH   LINE      CODE     ---       #76
      01008A1DH   LINE      CODE     ---       #77
      01008A26H   LINE      CODE     ---       #78
      ---         BLOCKEND  ---      ---       LVL=0

      0100759CH   BLOCK     CODE     ---       LVL=0
      00000020H.1 SYMBOL    BIT      BIT       enable
      0100759CH   LINE      CODE     ---       #81
      0100759CH   LINE      CODE     ---       #82
      0100759CH   LINE      CODE     ---       #83
      010075B1H   LINE      CODE     ---       #84
      010075B7H   LINE      CODE     ---       #85
      010075BAH   LINE      CODE     ---       #87
      010075C0H   LINE      CODE     ---       #88
      010075C3H   LINE      CODE     ---       #89
      010075C3H   LINE      CODE     ---       #90
      ---         BLOCKEND  ---      ---       LVL=0

      010086D7H   BLOCK     CODE     ---       LVL=0
      010086D7H   LINE      CODE     ---       #92
      010086D7H   LINE      CODE     ---       #93
      010086D7H   LINE      CODE     ---       #94
      010086E3H   LINE      CODE     ---       #95
      010086E8H   LINE      CODE     ---       #96
      ---         BLOCKEND  ---      ---       LVL=0

      ---         MODULE    ---      ---       LT_TIMER
      010066BDH   PUBLIC    CODE     ---       lt_timer_sync_to_rtc
      00000020H.0 PUBLIC    BIT      BIT       ?lt_timer_get_relative?BIT
      010049BBH   PUBLIC    CODE     ---       lt_timer_get_relative
      01005C6FH   PUBLIC    CODE     ---       _lt_timer_save_to_rom
      010066FFH   PUBLIC    CODE     ---       lt_timer_load_from_rom
      010041DDH   PUBLIC    CODE     ---       lt_timer_dec_sec
      010088C5H   PUBLIC    CODE     ---       lt_timer_reset
      00000020H.0 PUBLIC    BIT      BIT       ?lt_timer_display?BIT
      01008045H   PUBLIC    CODE     ---       lt_timer_display
      010082D6H   PUBLIC    CODE     ---       lt_timer_switch_display
      01008A29H   PUBLIC    CODE     ---       lt_timer_stop_ram
      01008981H   PUBLIC    CODE     ---       lt_timer_start_ram
      01007C02H   PUBLIC    CODE     ---       lt_timer_stop_rtc
      01007BE4H   PUBLIC    CODE     ---       lt_timer_start_rtc
      01008D17H   PUBLIC    CODE     ---       lt_timer_get_date
      01008D68H   PUBLIC    CODE     ---       lt_timer_get_sec
      01008D63H   PUBLIC    CODE     ---       lt_timer_get_min
LX51 LINKER/LOCATER V4.66.87.0                                                        06/02/2018  22:09:22  PAGE 151


      01008D5EH   PUBLIC    CODE     ---       lt_timer_get_hour
      01008D11H   PUBLIC    CODE     ---       lt_timer_get_month
      01008D59H   PUBLIC    CODE     ---       lt_timer_get_year
      01008AD4H   PUBLIC    CODE     ---       lt_timer_inc_sec
      01008AC9H   PUBLIC    CODE     ---       lt_timer_inc_min
      01008ABEH   PUBLIC    CODE     ---       lt_timer_inc_hour
      01008669H   PUBLIC    CODE     ---       lt_timer_inc_date
      01008AB3H   PUBLIC    CODE     ---       lt_timer_inc_month
      01008AA8H   PUBLIC    CODE     ---       lt_timer_inc_year
      01006329H   PUBLIC    CODE     ---       scan_lt_timer
      010078ABH   PUBLIC    CODE     ---       lt_timer_switch_off
      0100848CH   PUBLIC    CODE     ---       lt_timer_switch_on
      010077B0H   PUBLIC    CODE     ---       lt_timer_leave_powersave
      01008477H   PUBLIC    CODE     ---       lt_timer_enter_powersave
      00000020H.1 PUBLIC    BIT      BIT       ?lt_timer_set_hour_12?BIT
      01008D54H   PUBLIC    CODE     ---       lt_timer_set_hour_12
      01008D9DH   PUBLIC    CODE     ---       lt_timer_get_hour_12
      0100857EH   PUBLIC    CODE     ---       lt_timer_initialize
      01002845H   SYMBOL    CODE     ---       lt_timer_sub_date
      00000021H.4 SYMBOL    BIT      BIT       lt_tmr_start
      0100B462H   SYMBOL    CONST    ---       leap_month
      01006AD8H   SYMBOL    CODE     ---       lt_timer_sub_hour_date
      00000021H.5 SYMBOL    BIT      BIT       lt_tmr_disp_day
      00000048H   SYMBOL    IDATA    ---       ltm
      01007C20H   SYMBOL    CODE     ---       lt_timer_sub_sec_min
      01006A9EH   SYMBOL    CODE     ---       lt_timer_sub_min_hour
      00000021H.6 SYMBOL    BIT      BIT       lt_timer_is_12
      00000021H.7 SYMBOL    BIT      BIT       lt_tmr_display
      00000022H.0 SYMBOL    BIT      BIT       lt_tmr_stopped

      010045EEH   BLOCK     CODE     ---       LVL=0
      ---         BLOCKEND  ---      ---       LVL=0

      0100857EH   BLOCK     CODE     ---       LVL=0
      0100857EH   LINE      CODE     ---       #23
      0100857EH   LINE      CODE     ---       #24
      0100857EH   LINE      CODE     ---       #25
      01008587H   LINE      CODE     ---       #26
      01008589H   LINE      CODE     ---       #27
      0100858BH   LINE      CODE     ---       #28
      0100858DH   LINE      CODE     ---       #29
      0100858FH   LINE      CODE     ---       #30
      01008591H   LINE      CODE     ---       #31
      ---         BLOCKEND  ---      ---       LVL=0

      01008D9DH   BLOCK     CODE     ---       LVL=0
      01008D9DH   LINE      CODE     ---       #33
      01008D9DH   LINE      CODE     ---       #34
      01008D9DH   LINE      CODE     ---       #35
      01008D9FH   LINE      CODE     ---       #36
      ---         BLOCKEND  ---      ---       LVL=0

      01008D54H   BLOCK     CODE     ---       LVL=0
      00000020H.1 SYMBOL    BIT      BIT       val
      01008D54H   LINE      CODE     ---       #38
      01008D54H   LINE      CODE     ---       #39
      01008D54H   LINE      CODE     ---       #40
      01008D58H   LINE      CODE     ---       #41
      ---         BLOCKEND  ---      ---       LVL=0

      01008477H   BLOCK     CODE     ---       LVL=0
      01008477H   LINE      CODE     ---       #43
      01008477H   LINE      CODE     ---       #44
      01008477H   LINE      CODE     ---       #45
      01008480H   LINE      CODE     ---       #46
LX51 LINKER/LOCATER V4.66.87.0                                                        06/02/2018  22:09:22  PAGE 152


      01008485H   LINE      CODE     ---       #47
      01008488H   LINE      CODE     ---       #48
      0100848BH   LINE      CODE     ---       #49
      0100848BH   LINE      CODE     ---       #50
      ---         BLOCKEND  ---      ---       LVL=0

      010077B0H   BLOCK     CODE     ---       LVL=0
      010077B0H   LINE      CODE     ---       #52
      010077B0H   LINE      CODE     ---       #53
      010077B0H   LINE      CODE     ---       #54
      010077B9H   LINE      CODE     ---       #55
      010077BEH   LINE      CODE     ---       #56
      010077C1H   LINE      CODE     ---       #57
      010077C4H   LINE      CODE     ---       #58
      010077CCH   LINE      CODE     ---       #59
      010077CCH   LINE      CODE     ---       #60
      010077CFH   LINE      CODE     ---       #61
      010077D0H   LINE      CODE     ---       #62
      010077D3H   LINE      CODE     ---       #63
      010077D3H   LINE      CODE     ---       #64
      010077D3H   LINE      CODE     ---       #65
      ---         BLOCKEND  ---      ---       LVL=0

      0100848CH   BLOCK     CODE     ---       LVL=0
      0100848CH   LINE      CODE     ---       #67
      0100848CH   LINE      CODE     ---       #68
      0100848CH   LINE      CODE     ---       #69
      01008495H   LINE      CODE     ---       #70
      01008498H   LINE      CODE     ---       #71
      0100849BH   LINE      CODE     ---       #72
      0100849EH   LINE      CODE     ---       #73
      ---         BLOCKEND  ---      ---       LVL=0

      010078ABH   BLOCK     CODE     ---       LVL=0
      010078ABH   LINE      CODE     ---       #76
      010078ABH   LINE      CODE     ---       #77
      010078ABH   LINE      CODE     ---       #78
      010078B4H   LINE      CODE     ---       #79
      010078B9H   LINE      CODE     ---       #80
      010078C0H   LINE      CODE     ---       #81
      010078C6H   LINE      CODE     ---       #82
      010078CBH   LINE      CODE     ---       #83
      ---         BLOCKEND  ---      ---       LVL=0

      01006329H   BLOCK     CODE     ---       LVL=0
      01006329H   BLOCK     CODE     NEAR LAB  LVL=1
      00000020H.0 SYMBOL    BIT      BIT       alarm0_hit
      ---         BLOCKEND  ---      ---       LVL=1
      01006329H   LINE      CODE     ---       #86
      01006329H   LINE      CODE     ---       #87
      01006329H   LINE      CODE     ---       #90
      01006332H   LINE      CODE     ---       #92
      01006337H   LINE      CODE     ---       #93
      0100633EH   LINE      CODE     ---       #94
      01006342H   LINE      CODE     ---       #95
      01006347H   LINE      CODE     ---       #97
      0100634AH   LINE      CODE     ---       #98
      0100634FH   LINE      CODE     ---       #99
      01006367H   LINE      CODE     ---       #100
      01006367H   LINE      CODE     ---       #101
      0100636CH   LINE      CODE     ---       #102
      0100636FH   LINE      CODE     ---       #103
      0100636FH   LINE      CODE     ---       #104
      01006372H   LINE      CODE     ---       #105
      01006372H   LINE      CODE     ---       #106
LX51 LINKER/LOCATER V4.66.87.0                                                        06/02/2018  22:09:22  PAGE 153


      01006372H   LINE      CODE     ---       #107
      ---         BLOCKEND  ---      ---       LVL=0

      01008AA8H   BLOCK     CODE     ---       LVL=0
      01008AA8H   LINE      CODE     ---       #109
      01008AA8H   LINE      CODE     ---       #110
      01008AA8H   LINE      CODE     ---       #111
      01008AB2H   LINE      CODE     ---       #112
      ---         BLOCKEND  ---      ---       LVL=0

      01008AB3H   BLOCK     CODE     ---       LVL=0
      01008AB3H   LINE      CODE     ---       #114
      01008AB3H   LINE      CODE     ---       #115
      01008AB3H   LINE      CODE     ---       #116
      01008ABDH   LINE      CODE     ---       #117
      ---         BLOCKEND  ---      ---       LVL=0

      01008669H   BLOCK     CODE     ---       LVL=0
      01008669H   LINE      CODE     ---       #119
      01008669H   LINE      CODE     ---       #120
      01008669H   LINE      CODE     ---       #121
      0100867BH   LINE      CODE     ---       #122
      ---         BLOCKEND  ---      ---       LVL=0

      01008ABEH   BLOCK     CODE     ---       LVL=0
      01008ABEH   LINE      CODE     ---       #124
      01008ABEH   LINE      CODE     ---       #125
      01008ABEH   LINE      CODE     ---       #126
      01008AC8H   LINE      CODE     ---       #127
      ---         BLOCKEND  ---      ---       LVL=0

      01008AC9H   BLOCK     CODE     ---       LVL=0
      01008AC9H   LINE      CODE     ---       #129
      01008AC9H   LINE      CODE     ---       #130
      01008AC9H   LINE      CODE     ---       #131
      01008AD3H   LINE      CODE     ---       #132
      ---         BLOCKEND  ---      ---       LVL=0

      01008AD4H   BLOCK     CODE     ---       LVL=0
      01008AD4H   LINE      CODE     ---       #134
      01008AD4H   LINE      CODE     ---       #135
      01008AD4H   LINE      CODE     ---       #136
      01008ADEH   LINE      CODE     ---       #137
      ---         BLOCKEND  ---      ---       LVL=0

      01008D59H   BLOCK     CODE     ---       LVL=0
      01008D59H   LINE      CODE     ---       #139
      01008D59H   LINE      CODE     ---       #140
      01008D59H   LINE      CODE     ---       #141
      01008D5DH   LINE      CODE     ---       #142
      ---         BLOCKEND  ---      ---       LVL=0

      01008D11H   BLOCK     CODE     ---       LVL=0
      01008D11H   LINE      CODE     ---       #144
      01008D11H   LINE      CODE     ---       #145
      01008D11H   LINE      CODE     ---       #146
      01008D16H   LINE      CODE     ---       #147
      ---         BLOCKEND  ---      ---       LVL=0

      01008D5EH   BLOCK     CODE     ---       LVL=0
      01008D5EH   LINE      CODE     ---       #149
      01008D5EH   LINE      CODE     ---       #150
      01008D5EH   LINE      CODE     ---       #151
      01008D62H   LINE      CODE     ---       #152
      ---         BLOCKEND  ---      ---       LVL=0
LX51 LINKER/LOCATER V4.66.87.0                                                        06/02/2018  22:09:22  PAGE 154



      01008D63H   BLOCK     CODE     ---       LVL=0
      01008D63H   LINE      CODE     ---       #154
      01008D63H   LINE      CODE     ---       #155
      01008D63H   LINE      CODE     ---       #156
      01008D67H   LINE      CODE     ---       #157
      ---         BLOCKEND  ---      ---       LVL=0

      01008D68H   BLOCK     CODE     ---       LVL=0
      01008D68H   LINE      CODE     ---       #159
      01008D68H   LINE      CODE     ---       #160
      01008D68H   LINE      CODE     ---       #161
      01008D6CH   LINE      CODE     ---       #162
      ---         BLOCKEND  ---      ---       LVL=0

      01008D17H   BLOCK     CODE     ---       LVL=0
      01008D17H   LINE      CODE     ---       #164
      01008D17H   LINE      CODE     ---       #165
      01008D17H   LINE      CODE     ---       #166
      01008D1CH   LINE      CODE     ---       #167
      ---         BLOCKEND  ---      ---       LVL=0

      01007BE4H   BLOCK     CODE     ---       LVL=0
      01007BE4H   LINE      CODE     ---       #169
      01007BE4H   LINE      CODE     ---       #170
      01007BE4H   LINE      CODE     ---       #171
      01007BEDH   LINE      CODE     ---       #172
      01007BF2H   LINE      CODE     ---       #173
      01007BF9H   LINE      CODE     ---       #174
      01007BFDH   LINE      CODE     ---       #175
      ---         BLOCKEND  ---      ---       LVL=0

      01007C02H   BLOCK     CODE     ---       LVL=0
      01007C02H   LINE      CODE     ---       #178
      01007C02H   LINE      CODE     ---       #179
      01007C02H   LINE      CODE     ---       #180
      01007C0BH   LINE      CODE     ---       #181
      01007C10H   LINE      CODE     ---       #182
      01007C17H   LINE      CODE     ---       #183
      01007C1BH   LINE      CODE     ---       #184
      ---         BLOCKEND  ---      ---       LVL=0

      01008981H   BLOCK     CODE     ---       LVL=0
      01008981H   LINE      CODE     ---       #187
      01008981H   LINE      CODE     ---       #188
      01008981H   LINE      CODE     ---       #189
      0100898AH   LINE      CODE     ---       #190
      0100898CH   LINE      CODE     ---       #191
      0100898EH   LINE      CODE     ---       #192
      ---         BLOCKEND  ---      ---       LVL=0

      01008A29H   BLOCK     CODE     ---       LVL=0
      01008A29H   LINE      CODE     ---       #194
      01008A29H   LINE      CODE     ---       #195
      01008A29H   LINE      CODE     ---       #196
      01008A32H   LINE      CODE     ---       #197
      01008A34H   LINE      CODE     ---       #198
      ---         BLOCKEND  ---      ---       LVL=0

      010082D6H   BLOCK     CODE     ---       LVL=0
      010082D6H   LINE      CODE     ---       #200
      010082D6H   LINE      CODE     ---       #201
      010082D6H   LINE      CODE     ---       #202
      010082D8H   LINE      CODE     ---       #203
      ---         BLOCKEND  ---      ---       LVL=0
LX51 LINKER/LOCATER V4.66.87.0                                                        06/02/2018  22:09:22  PAGE 155



      01008045H   BLOCK     CODE     ---       LVL=0
      00000020H.0 SYMBOL    BIT      BIT       enable
      01008045H   LINE      CODE     ---       #206
      01008045H   LINE      CODE     ---       #207
      01008045H   LINE      CODE     ---       #208
      0100805AH   LINE      CODE     ---       #209
      0100805EH   LINE      CODE     ---       #210
      ---         BLOCKEND  ---      ---       LVL=0

      010088C5H   BLOCK     CODE     ---       LVL=0
      010088C5H   LINE      CODE     ---       #212
      010088C5H   LINE      CODE     ---       #213
      010088C5H   LINE      CODE     ---       #214
      010088C8H   LINE      CODE     ---       #215
      010088CBH   LINE      CODE     ---       #216
      010088CDH   LINE      CODE     ---       #217
      010088CFH   LINE      CODE     ---       #218
      010088D1H   LINE      CODE     ---       #219
      010088D3H   LINE      CODE     ---       #220
      ---         BLOCKEND  ---      ---       LVL=0

      01007C20H   BLOCK     CODE     ---       LVL=0
      01007C20H   BLOCK     CODE     NEAR LAB  LVL=1
      00000020H.2 SYMBOL    BIT      BIT       borrow_min
      ---         BLOCKEND  ---      ---       LVL=1
      01007C20H   LINE      CODE     ---       #224
      01007C20H   LINE      CODE     ---       #225
      01007C20H   LINE      CODE     ---       #227
      01007C22H   LINE      CODE     ---       #229
      01007C2CH   LINE      CODE     ---       #231
      01007C30H   LINE      CODE     ---       #232
      01007C32H   LINE      CODE     ---       #233
      01007C32H   LINE      CODE     ---       #235
      01007C3BH   LINE      CODE     ---       #237
      01007C3DH   LINE      CODE     ---       #238
      ---         BLOCKEND  ---      ---       LVL=0

      01006A9EH   BLOCK     CODE     ---       LVL=0
      00000020H.2 SYMBOL    BIT      BIT       borrow_min
      01006A9EH   BLOCK     CODE     NEAR LAB  LVL=1
      00000020H.3 SYMBOL    BIT      BIT       borrow_hour
      ---         BLOCKEND  ---      ---       LVL=1
      01006A9EH   LINE      CODE     ---       #242
      01006A9EH   LINE      CODE     ---       #243
      01006A9EH   LINE      CODE     ---       #245
      01006AA0H   LINE      CODE     ---       #247
      01006AB7H   LINE      CODE     ---       #249
      01006ABDH   LINE      CODE     ---       #250
      01006ABFH   LINE      CODE     ---       #251
      01006ABFH   LINE      CODE     ---       #253
      01006AC8H   LINE      CODE     ---       #254
      01006AD5H   LINE      CODE     ---       #256
      01006AD7H   LINE      CODE     ---       #257
      ---         BLOCKEND  ---      ---       LVL=0

      01006AD8H   BLOCK     CODE     ---       LVL=0
      00000020H.2 SYMBOL    BIT      BIT       borrow_hour
      01006AD8H   BLOCK     CODE     NEAR LAB  LVL=1
      00000020H.3 SYMBOL    BIT      BIT       borrow_date
      ---         BLOCKEND  ---      ---       LVL=1
      01006AD8H   LINE      CODE     ---       #260
      01006AD8H   LINE      CODE     ---       #261
      01006AD8H   LINE      CODE     ---       #263
      01006ADAH   LINE      CODE     ---       #265
LX51 LINKER/LOCATER V4.66.87.0                                                        06/02/2018  22:09:22  PAGE 156


      01006AF1H   LINE      CODE     ---       #267
      01006AF7H   LINE      CODE     ---       #268
      01006AF9H   LINE      CODE     ---       #269
      01006AF9H   LINE      CODE     ---       #271
      01006B02H   LINE      CODE     ---       #272
      01006B0FH   LINE      CODE     ---       #274
      01006B11H   LINE      CODE     ---       #275
      ---         BLOCKEND  ---      ---       LVL=0

      01002845H   BLOCK     CODE     ---       LVL=0
      00000020H.2 SYMBOL    BIT      BIT       borrow_date
      01002845H   BLOCK     CODE     NEAR LAB  LVL=1
      02000015H   SYMBOL    XDATA    BYTE      i
      02000016H   SYMBOL    XDATA    BYTE      j
      02000017H   SYMBOL    XDATA    LONG      day
      ---         BLOCKEND  ---      ---       LVL=1
      01002845H   LINE      CODE     ---       #279
      01002845H   LINE      CODE     ---       #280
      01002845H   LINE      CODE     ---       #284
      0100284FH   LINE      CODE     ---       #287
      01002862H   LINE      CODE     ---       #288
      0100287AH   LINE      CODE     ---       #290
      0100288CH   LINE      CODE     ---       #292
      0100289BH   LINE      CODE     ---       #293
      010028ABH   LINE      CODE     ---       #295
      010028BEH   LINE      CODE     ---       #296
      010028D5H   LINE      CODE     ---       #298
      0100290DH   LINE      CODE     ---       #300
      01002910H   LINE      CODE     ---       #301
      01002922H   LINE      CODE     ---       #303
      01002929H   LINE      CODE     ---       #304
      0100292DH   LINE      CODE     ---       #305
      0100292FH   LINE      CODE     ---       #306
      01002931H   LINE      CODE     ---       #307
      01002933H   LINE      CODE     ---       #308
      01002944H   LINE      CODE     ---       #309
      0100294EH   LINE      CODE     ---       #310
      0100294EH   LINE      CODE     ---       #312
      01002955H   LINE      CODE     ---       #313
      ---         BLOCKEND  ---      ---       LVL=0

      010041DDH   BLOCK     CODE     ---       LVL=0
      010041DDH   LINE      CODE     ---       #382
      010041DDH   LINE      CODE     ---       #383
      010041DDH   LINE      CODE     ---       #384
      010041E3H   LINE      CODE     ---       #387
      010041E6H   LINE      CODE     ---       #388
      010041F3H   LINE      CODE     ---       #390
      010041F3H   LINE      CODE     ---       #391
      010041F6H   LINE      CODE     ---       #392
      010041FAH   LINE      CODE     ---       #393
      010041FCH   LINE      CODE     ---       #394
      010041FEH   LINE      CODE     ---       #395
      01004202H   LINE      CODE     ---       #396
      01004204H   LINE      CODE     ---       #397
      01004206H   LINE      CODE     ---       #398
      0100420AH   LINE      CODE     ---       #399
      0100420CH   LINE      CODE     ---       #400
      01004213H   LINE      CODE     ---       #401
      01004214H   LINE      CODE     ---       #402
      01004214H   LINE      CODE     ---       #403
      01004214H   LINE      CODE     ---       #404
      01004214H   LINE      CODE     ---       #405
      01004214H   LINE      CODE     ---       #406
      01004216H   LINE      CODE     ---       #407
LX51 LINKER/LOCATER V4.66.87.0                                                        06/02/2018  22:09:22  PAGE 157


      01004216H   LINE      CODE     ---       #408
      01004219H   LINE      CODE     ---       #409
      01004219H   LINE      CODE     ---       #410
      01004219H   LINE      CODE     ---       #412
      0100421FH   LINE      CODE     ---       #413
      01004222H   LINE      CODE     ---       #414
      0100422CH   LINE      CODE     ---       #415
      01004232H   LINE      CODE     ---       #416
      01004238H   LINE      CODE     ---       #417
      0100423EH   LINE      CODE     ---       #418
      01004247H   LINE      CODE     ---       #419
      0100424EH   LINE      CODE     ---       #420
      0100424FH   LINE      CODE     ---       #421
      01004256H   LINE      CODE     ---       #422
      0100425BH   LINE      CODE     ---       #423
      01004260H   LINE      CODE     ---       #424
      01004265H   LINE      CODE     ---       #425
      0100426AH   LINE      CODE     ---       #426
      0100426FH   LINE      CODE     ---       #427
      01004272H   LINE      CODE     ---       #428
      01004278H   LINE      CODE     ---       #429
      01004278H   LINE      CODE     ---       #430
      01004278H   LINE      CODE     ---       #431
      ---         BLOCKEND  ---      ---       LVL=0

      010066FFH   BLOCK     CODE     ---       LVL=0
      010066FFH   LINE      CODE     ---       #436
      010066FFH   LINE      CODE     ---       #437
      010066FFH   LINE      CODE     ---       #438
      01006708H   LINE      CODE     ---       #439
      01006711H   LINE      CODE     ---       #440
      0100671AH   LINE      CODE     ---       #441
      01006723H   LINE      CODE     ---       #442
      0100672CH   LINE      CODE     ---       #443
      01006735H   LINE      CODE     ---       #444
      0100673FH   LINE      CODE     ---       #445
      ---         BLOCKEND  ---      ---       LVL=0

      01005C6FH   BLOCK     CODE     ---       LVL=0
      02000016H   SYMBOL    XDATA    BYTE      type
      01005C6FH   LINE      CODE     ---       #448
      01005C74H   LINE      CODE     ---       #449
      01005C74H   LINE      CODE     ---       #450
      01005C7EH   LINE      CODE     ---       #451
      01005C95H   LINE      CODE     ---       #452
      01005C95H   LINE      CODE     ---       #453
      01005C9BH   LINE      CODE     ---       #454
      01005C9DH   LINE      CODE     ---       #455
      01005C9DH   LINE      CODE     ---       #456
      01005CA3H   LINE      CODE     ---       #457
      01005CA5H   LINE      CODE     ---       #458
      01005CA5H   LINE      CODE     ---       #459
      01005CABH   LINE      CODE     ---       #460
      01005CADH   LINE      CODE     ---       #461
      01005CADH   LINE      CODE     ---       #462
      01005CB3H   LINE      CODE     ---       #463
      01005CB5H   LINE      CODE     ---       #464
      01005CB5H   LINE      CODE     ---       #465
      01005CBBH   LINE      CODE     ---       #466
      01005CBDH   LINE      CODE     ---       #467
      01005CBDH   LINE      CODE     ---       #468
      01005CC6H   LINE      CODE     ---       #469
      01005CC6H   LINE      CODE     ---       #471
      01005CC6H   LINE      CODE     ---       #472
      ---         BLOCKEND  ---      ---       LVL=0
LX51 LINKER/LOCATER V4.66.87.0                                                        06/02/2018  22:09:22  PAGE 158



      010049BBH   BLOCK     CODE     ---       LVL=0
      00000020H.0 SYMBOL    BIT      BIT       too_close_check
      010049BBH   BLOCK     CODE     NEAR LAB  LVL=1
      00000020H.1 SYMBOL    BIT      BIT       borrow
      ---         BLOCKEND  ---      ---       LVL=1
      010049BBH   LINE      CODE     ---       #480
      010049BBH   LINE      CODE     ---       #481
      010049BBH   LINE      CODE     ---       #485
      010049C0H   LINE      CODE     ---       #486
      010049C5H   LINE      CODE     ---       #487
      010049CEH   LINE      CODE     ---       #488
      010049D7H   LINE      CODE     ---       #489
      010049DEH   LINE      CODE     ---       #490
      010049E3H   LINE      CODE     ---       #492
      010049F2H   LINE      CODE     ---       #496
      010049FFH   LINE      CODE     ---       #497
      01004A03H   LINE      CODE     ---       #498
      01004A09H   LINE      CODE     ---       #499
      01004A0BH   LINE      CODE     ---       #500
      01004A16H   LINE      CODE     ---       #501
      01004A1FH   LINE      CODE     ---       #502
      01004A22H   LINE      CODE     ---       #503
      01004A22H   LINE      CODE     ---       #504
      01004A22H   LINE      CODE     ---       #506
      01004A2AH   LINE      CODE     ---       #507
      01004A39H   LINE      CODE     ---       #508
      01004A3CH   LINE      CODE     ---       #509
      01004A3CH   LINE      CODE     ---       #511
      01004A3EH   LINE      CODE     ---       #512
      ---         BLOCKEND  ---      ---       LVL=0

      010066BDH   BLOCK     CODE     ---       LVL=0
      010066BDH   LINE      CODE     ---       #515
      010066BDH   LINE      CODE     ---       #516
      010066BDH   LINE      CODE     ---       #517
      010066CFH   LINE      CODE     ---       #520
      010066D4H   LINE      CODE     ---       #521
      010066D9H   LINE      CODE     ---       #522
      010066E0H   LINE      CODE     ---       #523
      010066E8H   LINE      CODE     ---       #524
      010066EEH   LINE      CODE     ---       #525
      010066F4H   LINE      CODE     ---       #526
      010066FAH   LINE      CODE     ---       #527
      ---         BLOCKEND  ---      ---       LVL=0

      ---         MODULE    ---      ---       SERIAL_HUB
      01006B12H   PUBLIC    CODE     ---       serial_hub_initialize
      010071BFH   PUBLIC    CODE     ---       _serial_test_ctl_bit
      00000020H.2 PUBLIC    BIT      BIT       ?_serial_set_ctl_bit?BIT
      01007045H   PUBLIC    CODE     ---       _serial_set_ctl_bit
      01007FC1H   PUBLIC    CODE     ---       serial_ctl_out
      010013FCH   PUBLIC    CODE     ---       serial_dump
      00000080H   SFRSYM    DATA     BYTE      P0
      00000090H   SFRSYM    DATA     BYTE      P1
      000000A0H   SFRSYM    DATA     BYTE      P2
      000000B0H   SFRSYM    DATA     BYTE      P3
      000000C0H   SFRSYM    DATA     BYTE      XICON
      000000B0H.4 SFRSYM    DATA     BIT       T0
      000000D0H.6 SFRSYM    DATA     BIT       AC
      000000E8H   SFRSYM    DATA     BYTE      P4
      000000B0H.5 SFRSYM    DATA     BIT       T1
      000000E6H   SFRSYM    DATA     BYTE      ISP_TRIG
      00000090H.0 SFRSYM    DATA     BIT       T2
      000000A8H.7 SFRSYM    DATA     BIT       EA
LX51 LINKER/LOCATER V4.66.87.0                                                        06/02/2018  22:09:22  PAGE 159


      000000A8H.6 SFRSYM    DATA     BIT       EC
      00000098H.7 SFRSYM    DATA     BIT       FE
      000000A8H   SFRSYM    DATA     BYTE      IE
      000000C8H.6 SFRSYM    DATA     BIT       EXF2
      000000B0H.7 SFRSYM    DATA     BIT       RD
      000000A8H.4 SFRSYM    DATA     BIT       ES
      000000B8H   SFRSYM    DATA     BYTE      IP
      00000098H.0 SFRSYM    DATA     BIT       RI
      000000B0H.2 SFRSYM    DATA     BIT       INT0
      000000D0H.7 SFRSYM    DATA     BIT       CY
      00000098H.1 SFRSYM    DATA     BIT       TI
      000000B0H.3 SFRSYM    DATA     BIT       INT1
      000000CBH   SFRSYM    DATA     BYTE      RCAP2H
      000000E5H   SFRSYM    DATA     BYTE      ISP_CMD
      000000B8H.4 SFRSYM    DATA     BIT       PS
      00000081H   SFRSYM    DATA     BYTE      SP
      00000090H.1 SFRSYM    DATA     BIT       T2EX
      000000D0H.2 SFRSYM    DATA     BIT       OV
      000000CAH   SFRSYM    DATA     BYTE      RCAP2L
      000000C8H.1 SFRSYM    DATA     BIT       C_T2
      000000B0H.6 SFRSYM    DATA     BIT       WR
      000000C8H.5 SFRSYM    DATA     BIT       RCLK
      000000C8H.4 SFRSYM    DATA     BIT       TCLK
      00000080H.0 SFRSYM    DATA     BIT       P00
      00000099H   SFRSYM    DATA     BYTE      SBUF
      00000087H   SFRSYM    DATA     BYTE      PCON
      00000090H.0 SFRSYM    DATA     BIT       P10
      00000080H.1 SFRSYM    DATA     BIT       P01
      000000A0H.0 SFRSYM    DATA     BIT       P20
      00000090H.1 SFRSYM    DATA     BIT       P11
      00000080H.2 SFRSYM    DATA     BIT       P02
      000000E3H   SFRSYM    DATA     BYTE      ISP_ADDRH
      000000B0H.0 SFRSYM    DATA     BIT       P30
      000000A0H.1 SFRSYM    DATA     BIT       P21
      00000090H.2 SFRSYM    DATA     BIT       P12
      00000080H.3 SFRSYM    DATA     BIT       P03
      00000098H   SFRSYM    DATA     BYTE      SCON
      000000B0H.1 SFRSYM    DATA     BIT       P31
      000000A0H.2 SFRSYM    DATA     BIT       P22
      00000090H.3 SFRSYM    DATA     BIT       P13
      00000080H.4 SFRSYM    DATA     BIT       P04
      000000E8H.0 SFRSYM    DATA     BIT       P40
      00000089H   SFRSYM    DATA     BYTE      TMOD
      00000088H   SFRSYM    DATA     BYTE      TCON
      000000B0H.2 SFRSYM    DATA     BIT       P32
      000000A0H.3 SFRSYM    DATA     BIT       P23
      00000090H.4 SFRSYM    DATA     BIT       P14
      00000080H.5 SFRSYM    DATA     BIT       P05
      000000E8H.1 SFRSYM    DATA     BIT       P41
      000000B0H.3 SFRSYM    DATA     BIT       P33
      000000A0H.4 SFRSYM    DATA     BIT       P24
      00000090H.5 SFRSYM    DATA     BIT       P15
      00000080H.6 SFRSYM    DATA     BIT       P06
      000000E4H   SFRSYM    DATA     BYTE      ISP_ADDRL
      000000E8H.2 SFRSYM    DATA     BIT       P42
      000000B0H.4 SFRSYM    DATA     BIT       P34
      000000A0H.5 SFRSYM    DATA     BIT       P25
      00000090H.6 SFRSYM    DATA     BIT       P16
      00000080H.7 SFRSYM    DATA     BIT       P07
      000000E8H.3 SFRSYM    DATA     BIT       P43
      000000B0H.5 SFRSYM    DATA     BIT       P35
      000000A0H.6 SFRSYM    DATA     BIT       P26
      00000090H.7 SFRSYM    DATA     BIT       P17
      000000E8H.4 SFRSYM    DATA     BIT       P44
      000000B0H.6 SFRSYM    DATA     BIT       P36
LX51 LINKER/LOCATER V4.66.87.0                                                        06/02/2018  22:09:22  PAGE 160


      000000A0H.7 SFRSYM    DATA     BIT       P27
      000000E8H.5 SFRSYM    DATA     BIT       P45
      000000B0H.7 SFRSYM    DATA     BIT       P37
      000000E8H.6 SFRSYM    DATA     BIT       P46
      00000088H.1 SFRSYM    DATA     BIT       IE0
      00000088H.3 SFRSYM    DATA     BIT       IE1
      0000008EH   SFRSYM    DATA     BYTE      AUXR
      000000F0H   SFRSYM    DATA     BYTE      B
      000000C8H.0 SFRSYM    DATA     BIT       CP_RL2
      000000E0H   SFRSYM    DATA     BYTE      ACC
      000000A8H.1 SFRSYM    DATA     BIT       ET0
      000000A8H.3 SFRSYM    DATA     BIT       ET1
      00000088H.5 SFRSYM    DATA     BIT       TF0
      000000A8H.5 SFRSYM    DATA     BIT       ET2
      00000088H.7 SFRSYM    DATA     BIT       TF1
      000000C8H.7 SFRSYM    DATA     BIT       TF2
      00000098H.2 SFRSYM    DATA     BIT       RB8
      0000008CH   SFRSYM    DATA     BYTE      TH0
      000000A8H.0 SFRSYM    DATA     BIT       EX0
      00000088H.0 SFRSYM    DATA     BIT       IT0
      0000008DH   SFRSYM    DATA     BYTE      TH1
      00000098H.3 SFRSYM    DATA     BIT       TB8
      000000A8H.2 SFRSYM    DATA     BIT       EX1
      00000088H.2 SFRSYM    DATA     BIT       IT1
      000000CDH   SFRSYM    DATA     BYTE      TH2
      000000D0H.0 SFRSYM    DATA     BIT       P
      00000098H.7 SFRSYM    DATA     BIT       SM0
      0000008AH   SFRSYM    DATA     BYTE      TL0
      00000098H.6 SFRSYM    DATA     BIT       SM1
      0000008BH   SFRSYM    DATA     BYTE      TL1
      00000098H.5 SFRSYM    DATA     BIT       SM2
      000000CCH   SFRSYM    DATA     BYTE      TL2
      000000B8H.1 SFRSYM    DATA     BIT       PT0
      000000B8H.3 SFRSYM    DATA     BIT       PT1
      000000D0H.3 SFRSYM    DATA     BIT       RS0
      000000E7H   SFRSYM    DATA     BYTE      ISP_CONTR
      000000B8H.5 SFRSYM    DATA     BIT       PT2
      00000088H.4 SFRSYM    DATA     BIT       TR0
      000000D0H.4 SFRSYM    DATA     BIT       RS1
      00000088H.6 SFRSYM    DATA     BIT       TR1
      000000C8H.2 SFRSYM    DATA     BIT       TR2
      000000B8H.0 SFRSYM    DATA     BIT       PX0
      000000E1H   SFRSYM    DATA     BYTE      WDT_CONTR
      000000B8H.2 SFRSYM    DATA     BIT       PX1
      00000083H   SFRSYM    DATA     BYTE      DPH
      00000082H   SFRSYM    DATA     BYTE      DPL
      000000B7H   SFRSYM    DATA     BYTE      IPH
      000000C8H.3 SFRSYM    DATA     BIT       EXEN2
      00000098H.4 SFRSYM    DATA     BIT       REN
      000000C9H   SFRSYM    DATA     BYTE      T2MOD
      000000C8H   SFRSYM    DATA     BYTE      T2CON
      000000E2H   SFRSYM    DATA     BYTE      ISP_DATA
      000000B9H   SFRSYM    DATA     BYTE      SADEN
      000000B0H.0 SFRSYM    DATA     BIT       RXD
      000000A9H   SFRSYM    DATA     BYTE      SADDR
      000000B0H.1 SFRSYM    DATA     BIT       TXD
      000000A2H   SFRSYM    DATA     BYTE      AUXR1
      000000D0H.5 SFRSYM    DATA     BIT       F0
      000000D0H   SFRSYM    DATA     BYTE      PSW
      020000E4H   SYMBOL    XDATA    ---       ctl_buffer

      010080F9H   BLOCK     CODE     ---       LVL=0
      ---         BLOCKEND  ---      ---       LVL=0

      010013FCH   BLOCK     CODE     ---       LVL=0
LX51 LINKER/LOCATER V4.66.87.0                                                        06/02/2018  22:09:22  PAGE 161


      010013FCH   LINE      CODE     ---       #15
      010013FCH   LINE      CODE     ---       #16
      010013FCH   LINE      CODE     ---       #17
      01001405H   LINE      CODE     ---       #18
      0100141EH   LINE      CODE     ---       #19
      01001436H   LINE      CODE     ---       #20
      0100144EH   LINE      CODE     ---       #21
      01001466H   LINE      CODE     ---       #22
      0100147EH   LINE      CODE     ---       #23
      01001496H   LINE      CODE     ---       #24
      010014AEH   LINE      CODE     ---       #25
      010014C6H   LINE      CODE     ---       #26
      010014DEH   LINE      CODE     ---       #27
      010014F6H   LINE      CODE     ---       #28
      0100150EH   LINE      CODE     ---       #29
      01001526H   LINE      CODE     ---       #30
      0100153EH   LINE      CODE     ---       #31
      01001556H   LINE      CODE     ---       #32
      0100156EH   LINE      CODE     ---       #33
      01001586H   LINE      CODE     ---       #34
      010015A2H   LINE      CODE     ---       #35
      010015ABH   LINE      CODE     ---       #36
      ---         BLOCKEND  ---      ---       LVL=0

      01007FC1H   BLOCK     CODE     ---       LVL=0
      01007FC1H   LINE      CODE     ---       #38
      01007FC1H   LINE      CODE     ---       #39
      01007FC1H   LINE      CODE     ---       #40
      01007FCDH   LINE      CODE     ---       #41
      01007FD9H   LINE      CODE     ---       #43
      ---         BLOCKEND  ---      ---       LVL=0

      01007045H   BLOCK     CODE     ---       LVL=0
      00000007H   SYMBOL    DATA     BYTE      index
      00000020H.2 SYMBOL    BIT      BIT       what
      01007045H   LINE      CODE     ---       #46
      01007045H   LINE      CODE     ---       #47
      01007045H   LINE      CODE     ---       #48
      0100704BH   LINE      CODE     ---       #51
      0100706BH   LINE      CODE     ---       #52
      0100706EH   LINE      CODE     ---       #53
      01007074H   LINE      CODE     ---       #54
      ---         BLOCKEND  ---      ---       LVL=0

      010071BFH   BLOCK     CODE     ---       LVL=0
      00000007H   SYMBOL    DATA     BYTE      index
      010071BFH   LINE      CODE     ---       #56
      010071BFH   LINE      CODE     ---       #57
      010071BFH   LINE      CODE     ---       #58
      010071C5H   LINE      CODE     ---       #59
      010071C6H   LINE      CODE     ---       #61
      010071ECH   LINE      CODE     ---       #62
      ---         BLOCKEND  ---      ---       LVL=0

      01006B12H   BLOCK     CODE     ---       LVL=0
      01006B12H   LINE      CODE     ---       #65
      01006B12H   LINE      CODE     ---       #66
      01006B12H   LINE      CODE     ---       #67
      01006B1BH   LINE      CODE     ---       #69
      01006B25H   LINE      CODE     ---       #72
      01006B2EH   LINE      CODE     ---       #75
      01006B37H   LINE      CODE     ---       #78
      01006B40H   LINE      CODE     ---       #81
      01006B49H   LINE      CODE     ---       #83
      ---         BLOCKEND  ---      ---       LVL=0
LX51 LINKER/LOCATER V4.66.87.0                                                        06/02/2018  22:09:22  PAGE 162



      ---         MODULE    ---      ---       THERMO
      01008C1CH   PUBLIC    CODE     ---       thermo_leave_powersave
      01008C13H   PUBLIC    CODE     ---       thermo_enter_powersave
      010083F7H   PUBLIC    CODE     ---       _thermo_proc
      01008C91H   PUBLIC    CODE     ---       thermo_lo_threshold_reset
      01008C89H   PUBLIC    CODE     ---       thermo_hi_threshold_reset
      00000020H.1 PUBLIC    BIT      BIT       ?thermo_enable?BIT
      01008B64H   PUBLIC    CODE     ---       thermo_enable
      01008A4DH   PUBLIC    CODE     ---       thermo_lo_threshold_reach_top
      01008AEAH   PUBLIC    CODE     ---       thermo_lo_threshold_reach_bottom
      01008A41H   PUBLIC    CODE     ---       thermo_hi_threshold_reach_top
      01008ADFH   PUBLIC    CODE     ---       thermo_hi_threshold_reach_bottom
      01006740H   PUBLIC    CODE     ---       _thermo_threshold_inc
      0100871FH   PUBLIC    CODE     ---       thermo_lo_threshold_inc
      0100870DH   PUBLIC    CODE     ---       thermo_lo_threshold_dec
      010086FBH   PUBLIC    CODE     ---       thermo_hi_threshold_inc
      010086E9H   PUBLIC    CODE     ---       thermo_hi_threshold_dec
      01005BBDH   PUBLIC    CODE     ---       _thermo_lo_threshold_set
      01005DCCH   PUBLIC    CODE     ---       _thermo_hi_threshold_set
      010078CEH   PUBLIC    CODE     ---       thermo_lo_threshold_get
      01007A23H   PUBLIC    CODE     ---       thermo_hi_threshold_get
      010061A8H   PUBLIC    CODE     ---       thermo_get_current
      0100467CH   PUBLIC    CODE     ---       scan_thermo
      01008A35H   PUBLIC    CODE     ---       thermo_initialize
      020000E6H   SYMBOL    XDATA    CHAR      thermo_threshold_lo
      010077D4H   SYMBOL    CODE     ---       _thermo_hex_to_temp
      010065B0H   SYMBOL    CODE     ---       _thermo_temp_to_hex
      010079E1H   SYMBOL    CODE     ---       thermo_power_off
      01007A02H   SYMBOL    CODE     ---       thermo_power_on
      01006D7CH   SYMBOL    CODE     ---       thermo_load_config
      020000E7H   SYMBOL    XDATA    CHAR      thermo_threshold_hi

      01005AB1H   BLOCK     CODE     ---       LVL=0
      ---         BLOCKEND  ---      ---       LVL=0

      01006D7CH   BLOCK     CODE     ---       LVL=0
      01006D7CH   LINE      CODE     ---       #35
      01006D7CH   LINE      CODE     ---       #36
      01006D7CH   LINE      CODE     ---       #37
      01006D85H   LINE      CODE     ---       #39
      01006D8FH   LINE      CODE     ---       #40
      01006D99H   LINE      CODE     ---       #41
      01006DA4H   LINE      CODE     ---       #42
      ---         BLOCKEND  ---      ---       LVL=0

      010079E1H   BLOCK     CODE     ---       LVL=0
      010079E1H   BLOCK     CODE     NEAR LAB  LVL=1
      02000015H   SYMBOL    XDATA    BYTE      val
      ---         BLOCKEND  ---      ---       LVL=1
      010079E1H   LINE      CODE     ---       #45
      010079E1H   LINE      CODE     ---       #46
      010079E1H   LINE      CODE     ---       #49
      010079E4H   LINE      CODE     ---       #81
      010079F1H   LINE      CODE     ---       #84
      010079F4H   LINE      CODE     ---       #87
      010079F7H   LINE      CODE     ---       #89
      010079FCH   LINE      CODE     ---       #90
      ---         BLOCKEND  ---      ---       LVL=0

      01008A35H   BLOCK     CODE     ---       LVL=0
      01008A35H   LINE      CODE     ---       #95
      01008A35H   LINE      CODE     ---       #96
      01008A35H   LINE      CODE     ---       #97
      01008A3EH   LINE      CODE     ---       #98
LX51 LINKER/LOCATER V4.66.87.0                                                        06/02/2018  22:09:22  PAGE 163


      ---         BLOCKEND  ---      ---       LVL=0

      01007A02H   BLOCK     CODE     ---       LVL=0
      01007A02H   BLOCK     CODE     NEAR LAB  LVL=1
      02000015H   SYMBOL    XDATA    BYTE      val
      ---         BLOCKEND  ---      ---       LVL=1
      01007A02H   LINE      CODE     ---       #101
      01007A02H   LINE      CODE     ---       #102
      01007A02H   LINE      CODE     ---       #105
      01007A05H   LINE      CODE     ---       #139
      01007A12H   LINE      CODE     ---       #142
      01007A15H   LINE      CODE     ---       #145
      01007A18H   LINE      CODE     ---       #153
      01007A1DH   LINE      CODE     ---       #154
      ---         BLOCKEND  ---      ---       LVL=0

      0100467CH   BLOCK     CODE     ---       LVL=0
      0100467CH   BLOCK     CODE     NEAR LAB  LVL=1
      02000016H   SYMBOL    XDATA    BYTE      val
      02000017H   SYMBOL    XDATA    CHAR      hi
      02000018H   SYMBOL    XDATA    CHAR      lo
      02000019H   SYMBOL    XDATA    CHAR      current
      00000020H.0 SYMBOL    BIT      BIT       has_event
      ---         BLOCKEND  ---      ---       LVL=1
      0100467CH   LINE      CODE     ---       #158
      0100467CH   LINE      CODE     ---       #159
      0100467CH   LINE      CODE     ---       #163
      0100467EH   LINE      CODE     ---       #186
      0100467EH   LINE      CODE     ---       #187
      01004686H   LINE      CODE     ---       #188
      0100468EH   LINE      CODE     ---       #189
      01004696H   LINE      CODE     ---       #190
      010046B2H   LINE      CODE     ---       #192
      010046C8H   LINE      CODE     ---       #193
      010046D1H   LINE      CODE     ---       #194
      010046D6H   LINE      CODE     ---       #195
      010046D6H   LINE      CODE     ---       #196
      010046ECH   LINE      CODE     ---       #197
      010046F5H   LINE      CODE     ---       #198
      010046FBH   LINE      CODE     ---       #199
      010046FDH   LINE      CODE     ---       #200
      010046FDH   LINE      CODE     ---       #203
      01004705H   LINE      CODE     ---       #204
      01004708H   LINE      CODE     ---       #205
      01004708H   LINE      CODE     ---       #206
      ---         BLOCKEND  ---      ---       LVL=0

      010065B0H   BLOCK     CODE     ---       LVL=0
      00000005H   SYMBOL    DATA     CHAR      temp
      010065B2H   BLOCK     CODE     NEAR LAB  LVL=1
      02000019H   SYMBOL    XDATA    WORD      ret
      ---         BLOCKEND  ---      ---       LVL=1
      010065B0H   LINE      CODE     ---       #208
      010065B2H   LINE      CODE     ---       #209
      010065B2H   LINE      CODE     ---       #210
      010065BDH   LINE      CODE     ---       #211
      010065C5H   LINE      CODE     ---       #212
      010065CEH   LINE      CODE     ---       #213
      010065EBH   LINE      CODE     ---       #214
      010065F3H   LINE      CODE     ---       #215
      ---         BLOCKEND  ---      ---       LVL=0

      010077D4H   BLOCK     CODE     ---       LVL=0
      00000004H   SYMBOL    DATA     WORD      val
      010077D8H   BLOCK     CODE     NEAR LAB  LVL=1
LX51 LINKER/LOCATER V4.66.87.0                                                        06/02/2018  22:09:22  PAGE 164


      0200001DH   SYMBOL    XDATA    CHAR      temp
      ---         BLOCKEND  ---      ---       LVL=1
      010077D4H   LINE      CODE     ---       #217
      010077D8H   LINE      CODE     ---       #218
      010077D8H   LINE      CODE     ---       #220
      010077DDH   LINE      CODE     ---       #221
      010077F2H   LINE      CODE     ---       #222
      010077F7H   LINE      CODE     ---       #223
      ---         BLOCKEND  ---      ---       LVL=0

      010061A8H   BLOCK     CODE     ---       LVL=0
      010061A8H   BLOCK     CODE     NEAR LAB  LVL=1
      0200001AH   SYMBOL    XDATA    WORD      val
      0200001CH   SYMBOL    XDATA    BYTE      tmp
      ---         BLOCKEND  ---      ---       LVL=1
      010061A8H   LINE      CODE     ---       #226
      010061A8H   LINE      CODE     ---       #227
      010061A8H   LINE      CODE     ---       #238
      010061B5H   LINE      CODE     ---       #239
      010061BBH   LINE      CODE     ---       #240
      010061C1H   LINE      CODE     ---       #242
      010061C6H   LINE      CODE     ---       #244
      010061D4H   LINE      CODE     ---       #245
      010061ECH   LINE      CODE     ---       #247
      ---         BLOCKEND  ---      ---       LVL=0

      01007A23H   BLOCK     CODE     ---       LVL=0
      01007A23H   BLOCK     CODE     NEAR LAB  LVL=1
      0200001AH   SYMBOL    XDATA    WORD      val
      00000007H   SYMBOL    DATA     CHAR      ret
      ---         BLOCKEND  ---      ---       LVL=1
      01007A23H   LINE      CODE     ---       #251
      01007A23H   LINE      CODE     ---       #252
      01007A23H   LINE      CODE     ---       #258
      01007A31H   LINE      CODE     ---       #260
      01007A3CH   LINE      CODE     ---       #261
      01007A40H   LINE      CODE     ---       #262
      01007A43H   LINE      CODE     ---       #264
      01007A43H   LINE      CODE     ---       #265
      ---         BLOCKEND  ---      ---       LVL=0

      010078CEH   BLOCK     CODE     ---       LVL=0
      010078CEH   BLOCK     CODE     NEAR LAB  LVL=1
      0200001AH   SYMBOL    XDATA    WORD      val
      00000007H   SYMBOL    DATA     CHAR      ret
      ---         BLOCKEND  ---      ---       LVL=1
      010078CEH   LINE      CODE     ---       #267
      010078CEH   LINE      CODE     ---       #268
      010078CEH   LINE      CODE     ---       #274
      010078DEH   LINE      CODE     ---       #276
      010078E9H   LINE      CODE     ---       #277
      010078EDH   LINE      CODE     ---       #278
      010078F0H   LINE      CODE     ---       #280
      010078F0H   LINE      CODE     ---       #281
      ---         BLOCKEND  ---      ---       LVL=0

      01005DCCH   BLOCK     CODE     ---       LVL=0
      02000016H   SYMBOL    XDATA    CHAR      temp
      01005DD1H   BLOCK     CODE     NEAR LAB  LVL=1
      02000017H   SYMBOL    XDATA    WORD      val
      ---         BLOCKEND  ---      ---       LVL=1
      01005DCCH   LINE      CODE     ---       #284
      01005DD1H   LINE      CODE     ---       #285
      01005DD1H   LINE      CODE     ---       #287
      01005DDBH   LINE      CODE     ---       #289
LX51 LINKER/LOCATER V4.66.87.0                                                        06/02/2018  22:09:22  PAGE 165


      01005DE3H   LINE      CODE     ---       #290
      01005DE8H   LINE      CODE     ---       #291
      01005DE8H   LINE      CODE     ---       #292
      01005DF0H   LINE      CODE     ---       #293
      01005DF6H   LINE      CODE     ---       #295
      01005E01H   LINE      CODE     ---       #296
      01005E04H   LINE      CODE     ---       #297
      01005E04H   LINE      CODE     ---       #298
      01005E14H   LINE      CODE     ---       #303
      ---         BLOCKEND  ---      ---       LVL=0

      01005BBDH   BLOCK     CODE     ---       LVL=0
      02000016H   SYMBOL    XDATA    CHAR      temp
      01005BC2H   BLOCK     CODE     NEAR LAB  LVL=1
      02000017H   SYMBOL    XDATA    WORD      val
      ---         BLOCKEND  ---      ---       LVL=1
      01005BBDH   LINE      CODE     ---       #307
      01005BC2H   LINE      CODE     ---       #308
      01005BC2H   LINE      CODE     ---       #310
      01005BCFH   LINE      CODE     ---       #312
      01005BD7H   LINE      CODE     ---       #313
      01005BDCH   LINE      CODE     ---       #314
      01005BDCH   LINE      CODE     ---       #315
      01005BE4H   LINE      CODE     ---       #316
      01005BEAH   LINE      CODE     ---       #318
      01005BF5H   LINE      CODE     ---       #319
      01005BF8H   LINE      CODE     ---       #320
      01005BF8H   LINE      CODE     ---       #322
      01005C08H   LINE      CODE     ---       #327
      ---         BLOCKEND  ---      ---       LVL=0

      010086E9H   BLOCK     CODE     ---       LVL=0
      010086E9H   BLOCK     CODE     NEAR LAB  LVL=1
      00000007H   SYMBOL    DATA     CHAR      val
      ---         BLOCKEND  ---      ---       LVL=1
      010086E9H   LINE      CODE     ---       #332
      010086E9H   LINE      CODE     ---       #333
      010086E9H   LINE      CODE     ---       #335
      010086ECH   LINE      CODE     ---       #337
      010086F1H   LINE      CODE     ---       #340
      010086F6H   LINE      CODE     ---       #341
      010086F7H   LINE      CODE     ---       #342
      010086FAH   LINE      CODE     ---       #343
      010086FAH   LINE      CODE     ---       #344
      ---         BLOCKEND  ---      ---       LVL=0

      010086FBH   BLOCK     CODE     ---       LVL=0
      010086FBH   BLOCK     CODE     NEAR LAB  LVL=1
      00000007H   SYMBOL    DATA     CHAR      val
      ---         BLOCKEND  ---      ---       LVL=1
      010086FBH   LINE      CODE     ---       #346
      010086FBH   LINE      CODE     ---       #347
      010086FBH   LINE      CODE     ---       #349
      010086FEH   LINE      CODE     ---       #351
      01008703H   LINE      CODE     ---       #354
      01008708H   LINE      CODE     ---       #355
      01008709H   LINE      CODE     ---       #356
      0100870CH   LINE      CODE     ---       #357
      0100870CH   LINE      CODE     ---       #358
      ---         BLOCKEND  ---      ---       LVL=0

      0100870DH   BLOCK     CODE     ---       LVL=0
      0100870DH   BLOCK     CODE     NEAR LAB  LVL=1
      00000007H   SYMBOL    DATA     CHAR      val
      ---         BLOCKEND  ---      ---       LVL=1
LX51 LINKER/LOCATER V4.66.87.0                                                        06/02/2018  22:09:22  PAGE 166


      0100870DH   LINE      CODE     ---       #360
      0100870DH   LINE      CODE     ---       #361
      0100870DH   LINE      CODE     ---       #363
      01008710H   LINE      CODE     ---       #365
      01008715H   LINE      CODE     ---       #368
      0100871AH   LINE      CODE     ---       #369
      0100871BH   LINE      CODE     ---       #370
      0100871EH   LINE      CODE     ---       #371
      0100871EH   LINE      CODE     ---       #372
      ---         BLOCKEND  ---      ---       LVL=0

      0100871FH   BLOCK     CODE     ---       LVL=0
      0100871FH   BLOCK     CODE     NEAR LAB  LVL=1
      00000007H   SYMBOL    DATA     CHAR      val
      ---         BLOCKEND  ---      ---       LVL=1
      0100871FH   LINE      CODE     ---       #374
      0100871FH   LINE      CODE     ---       #375
      0100871FH   LINE      CODE     ---       #377
      01008722H   LINE      CODE     ---       #379
      01008727H   LINE      CODE     ---       #382
      0100872CH   LINE      CODE     ---       #383
      0100872DH   LINE      CODE     ---       #384
      01008730H   LINE      CODE     ---       #385
      01008730H   LINE      CODE     ---       #386
      ---         BLOCKEND  ---      ---       LVL=0

      01006740H   BLOCK     CODE     ---       LVL=0
      00000007H   SYMBOL    DATA     BYTE      thres
      01006740H   BLOCK     CODE     NEAR LAB  LVL=1
      00000006H   SYMBOL    DATA     CHAR      value
      02000016H   SYMBOL    XDATA    BYTE      ret
      ---         BLOCKEND  ---      ---       LVL=1
      01006740H   LINE      CODE     ---       #388
      01006740H   LINE      CODE     ---       #389
      01006740H   LINE      CODE     ---       #392
      01006745H   LINE      CODE     ---       #393
      01006747H   LINE      CODE     ---       #394
      0100674FH   LINE      CODE     ---       #395
      01006750H   LINE      CODE     ---       #396
      01006755H   LINE      CODE     ---       #397
      01006757H   LINE      CODE     ---       #398
      0100675DH   LINE      CODE     ---       #399
      0100675DH   LINE      CODE     ---       #400
      0100675FH   LINE      CODE     ---       #401
      01006765H   LINE      CODE     ---       #402
      01006765H   LINE      CODE     ---       #403
      0100677BH   LINE      CODE     ---       #404
      01006780H   LINE      CODE     ---       #405
      ---         BLOCKEND  ---      ---       LVL=0

      01008ADFH   BLOCK     CODE     ---       LVL=0
      01008ADFH   LINE      CODE     ---       #407
      01008ADFH   LINE      CODE     ---       #408
      01008ADFH   LINE      CODE     ---       #409
      01008AE9H   LINE      CODE     ---       #410
      ---         BLOCKEND  ---      ---       LVL=0

      01008A41H   BLOCK     CODE     ---       LVL=0
      01008A41H   LINE      CODE     ---       #412
      01008A41H   LINE      CODE     ---       #413
      01008A41H   LINE      CODE     ---       #414
      01008A4CH   LINE      CODE     ---       #415
      ---         BLOCKEND  ---      ---       LVL=0

      01008AEAH   BLOCK     CODE     ---       LVL=0
LX51 LINKER/LOCATER V4.66.87.0                                                        06/02/2018  22:09:22  PAGE 167


      01008AEAH   LINE      CODE     ---       #417
      01008AEAH   LINE      CODE     ---       #418
      01008AEAH   LINE      CODE     ---       #419
      01008AF4H   LINE      CODE     ---       #420
      ---         BLOCKEND  ---      ---       LVL=0

      01008A4DH   BLOCK     CODE     ---       LVL=0
      01008A4DH   LINE      CODE     ---       #422
      01008A4DH   LINE      CODE     ---       #423
      01008A4DH   LINE      CODE     ---       #424
      01008A58H   LINE      CODE     ---       #425
      ---         BLOCKEND  ---      ---       LVL=0

      01008B64H   BLOCK     CODE     ---       LVL=0
      00000020H.1 SYMBOL    BIT      BIT       enable
      01008B64H   LINE      CODE     ---       #427
      01008B64H   LINE      CODE     ---       #428
      01008B64H   LINE      CODE     ---       #429
      01008B67H   LINE      CODE     ---       #430
      01008B6AH   LINE      CODE     ---       #431
      01008B6AH   LINE      CODE     ---       #432
      01008B6DH   LINE      CODE     ---       #433
      01008B6DH   LINE      CODE     ---       #434
      ---         BLOCKEND  ---      ---       LVL=0

      01008C89H   BLOCK     CODE     ---       LVL=0
      01008C89H   LINE      CODE     ---       #436
      01008C89H   LINE      CODE     ---       #437
      01008C89H   LINE      CODE     ---       #438
      ---         BLOCKEND  ---      ---       LVL=0

      01008C91H   BLOCK     CODE     ---       LVL=0
      01008C91H   LINE      CODE     ---       #441
      01008C91H   LINE      CODE     ---       #442
      01008C91H   LINE      CODE     ---       #443
      ---         BLOCKEND  ---      ---       LVL=0

      010083F7H   BLOCK     CODE     ---       LVL=0
      0200000CH   SYMBOL    XDATA    BYTE      ev
      010083F7H   LINE      CODE     ---       #446
      010083FCH   LINE      CODE     ---       #447
      010083FCH   LINE      CODE     ---       #448
      01008405H   LINE      CODE     ---       #449
      ---         BLOCKEND  ---      ---       LVL=0

      01008C13H   BLOCK     CODE     ---       LVL=0
      01008C13H   LINE      CODE     ---       #452
      01008C13H   LINE      CODE     ---       #453
      01008C13H   LINE      CODE     ---       #454
      ---         BLOCKEND  ---      ---       LVL=0

      01008C1CH   BLOCK     CODE     ---       LVL=0
      01008C1CH   LINE      CODE     ---       #457
      01008C1CH   LINE      CODE     ---       #458
      01008C1CH   LINE      CODE     ---       #459
      ---         BLOCKEND  ---      ---       LVL=0

      ---         MODULE    ---      ---       ROM
      010068FAH   PUBLIC    CODE     ---       rom_initialize
      01008C99H   PUBLIC    CODE     ---       rom_is_factory_reset
      01006FB4H   PUBLIC    CODE     ---       _rom_write
      01006E4FH   PUBLIC    CODE     ---       _rom_read
      00000080H   SFRSYM    DATA     BYTE      P0
      00000090H   SFRSYM    DATA     BYTE      P1
      000000A0H   SFRSYM    DATA     BYTE      P2
LX51 LINKER/LOCATER V4.66.87.0                                                        06/02/2018  22:09:22  PAGE 168


      000000B0H   SFRSYM    DATA     BYTE      P3
      000000C0H   SFRSYM    DATA     BYTE      XICON
      000000B0H.4 SFRSYM    DATA     BIT       T0
      000000D0H.6 SFRSYM    DATA     BIT       AC
      000000E8H   SFRSYM    DATA     BYTE      P4
      000000B0H.5 SFRSYM    DATA     BIT       T1
      000000E6H   SFRSYM    DATA     BYTE      ISP_TRIG
      00000090H.0 SFRSYM    DATA     BIT       T2
      000000A8H.7 SFRSYM    DATA     BIT       EA
      000000A8H.6 SFRSYM    DATA     BIT       EC
      00000098H.7 SFRSYM    DATA     BIT       FE
      000000A8H   SFRSYM    DATA     BYTE      IE
      000000C8H.6 SFRSYM    DATA     BIT       EXF2
      000000B0H.7 SFRSYM    DATA     BIT       RD
      000000A8H.4 SFRSYM    DATA     BIT       ES
      000000B8H   SFRSYM    DATA     BYTE      IP
      00000098H.0 SFRSYM    DATA     BIT       RI
      000000B0H.2 SFRSYM    DATA     BIT       INT0
      000000D0H.7 SFRSYM    DATA     BIT       CY
      00000098H.1 SFRSYM    DATA     BIT       TI
      000000B0H.3 SFRSYM    DATA     BIT       INT1
      000000CBH   SFRSYM    DATA     BYTE      RCAP2H
      000000E5H   SFRSYM    DATA     BYTE      ISP_CMD
      000000B8H.4 SFRSYM    DATA     BIT       PS
      00000081H   SFRSYM    DATA     BYTE      SP
      00000090H.1 SFRSYM    DATA     BIT       T2EX
      000000D0H.2 SFRSYM    DATA     BIT       OV
      000000CAH   SFRSYM    DATA     BYTE      RCAP2L
      000000C8H.1 SFRSYM    DATA     BIT       C_T2
      000000B0H.6 SFRSYM    DATA     BIT       WR
      000000C8H.5 SFRSYM    DATA     BIT       RCLK
      000000C8H.4 SFRSYM    DATA     BIT       TCLK
      00000080H.0 SFRSYM    DATA     BIT       P00
      00000099H   SFRSYM    DATA     BYTE      SBUF
      00000087H   SFRSYM    DATA     BYTE      PCON
      00000090H.0 SFRSYM    DATA     BIT       P10
      00000080H.1 SFRSYM    DATA     BIT       P01
      000000A0H.0 SFRSYM    DATA     BIT       P20
      00000090H.1 SFRSYM    DATA     BIT       P11
      00000080H.2 SFRSYM    DATA     BIT       P02
      000000E3H   SFRSYM    DATA     BYTE      ISP_ADDRH
      000000B0H.0 SFRSYM    DATA     BIT       P30
      000000A0H.1 SFRSYM    DATA     BIT       P21
      00000090H.2 SFRSYM    DATA     BIT       P12
      00000080H.3 SFRSYM    DATA     BIT       P03
      00000098H   SFRSYM    DATA     BYTE      SCON
      000000B0H.1 SFRSYM    DATA     BIT       P31
      000000A0H.2 SFRSYM    DATA     BIT       P22
      00000090H.3 SFRSYM    DATA     BIT       P13
      00000080H.4 SFRSYM    DATA     BIT       P04
      000000E8H.0 SFRSYM    DATA     BIT       P40
      00000089H   SFRSYM    DATA     BYTE      TMOD
      00000088H   SFRSYM    DATA     BYTE      TCON
      000000B0H.2 SFRSYM    DATA     BIT       P32
      000000A0H.3 SFRSYM    DATA     BIT       P23
      00000090H.4 SFRSYM    DATA     BIT       P14
      00000080H.5 SFRSYM    DATA     BIT       P05
      000000E8H.1 SFRSYM    DATA     BIT       P41
      000000B0H.3 SFRSYM    DATA     BIT       P33
      000000A0H.4 SFRSYM    DATA     BIT       P24
      00000090H.5 SFRSYM    DATA     BIT       P15
      00000080H.6 SFRSYM    DATA     BIT       P06
      000000E4H   SFRSYM    DATA     BYTE      ISP_ADDRL
      000000E8H.2 SFRSYM    DATA     BIT       P42
      000000B0H.4 SFRSYM    DATA     BIT       P34
LX51 LINKER/LOCATER V4.66.87.0                                                        06/02/2018  22:09:22  PAGE 169


      000000A0H.5 SFRSYM    DATA     BIT       P25
      00000090H.6 SFRSYM    DATA     BIT       P16
      00000080H.7 SFRSYM    DATA     BIT       P07
      000000E8H.3 SFRSYM    DATA     BIT       P43
      000000B0H.5 SFRSYM    DATA     BIT       P35
      000000A0H.6 SFRSYM    DATA     BIT       P26
      00000090H.7 SFRSYM    DATA     BIT       P17
      000000E8H.4 SFRSYM    DATA     BIT       P44
      000000B0H.6 SFRSYM    DATA     BIT       P36
      000000A0H.7 SFRSYM    DATA     BIT       P27
      000000E8H.5 SFRSYM    DATA     BIT       P45
      000000B0H.7 SFRSYM    DATA     BIT       P37
      000000E8H.6 SFRSYM    DATA     BIT       P46
      00000088H.1 SFRSYM    DATA     BIT       IE0
      00000088H.3 SFRSYM    DATA     BIT       IE1
      0000008EH   SFRSYM    DATA     BYTE      AUXR
      000000F0H   SFRSYM    DATA     BYTE      B
      000000C8H.0 SFRSYM    DATA     BIT       CP_RL2
      000000E0H   SFRSYM    DATA     BYTE      ACC
      000000A8H.1 SFRSYM    DATA     BIT       ET0
      000000A8H.3 SFRSYM    DATA     BIT       ET1
      00000088H.5 SFRSYM    DATA     BIT       TF0
      000000A8H.5 SFRSYM    DATA     BIT       ET2
      00000088H.7 SFRSYM    DATA     BIT       TF1
      000000C8H.7 SFRSYM    DATA     BIT       TF2
      00000098H.2 SFRSYM    DATA     BIT       RB8
      0000008CH   SFRSYM    DATA     BYTE      TH0
      000000A8H.0 SFRSYM    DATA     BIT       EX0
      00000088H.0 SFRSYM    DATA     BIT       IT0
      0000008DH   SFRSYM    DATA     BYTE      TH1
      00000098H.3 SFRSYM    DATA     BIT       TB8
      000000A8H.2 SFRSYM    DATA     BIT       EX1
      00000088H.2 SFRSYM    DATA     BIT       IT1
      000000CDH   SFRSYM    DATA     BYTE      TH2
      000000D0H.0 SFRSYM    DATA     BIT       P
      00000098H.7 SFRSYM    DATA     BIT       SM0
      0000008AH   SFRSYM    DATA     BYTE      TL0
      00000098H.6 SFRSYM    DATA     BIT       SM1
      0000008BH   SFRSYM    DATA     BYTE      TL1
      00000098H.5 SFRSYM    DATA     BIT       SM2
      000000CCH   SFRSYM    DATA     BYTE      TL2
      000000B0H.7 SFRSYM    DATA     BIT       ROM_RESET
      000000B8H.1 SFRSYM    DATA     BIT       PT0
      000000B8H.3 SFRSYM    DATA     BIT       PT1
      000000D0H.3 SFRSYM    DATA     BIT       RS0
      000000E7H   SFRSYM    DATA     BYTE      ISP_CONTR
      000000B8H.5 SFRSYM    DATA     BIT       PT2
      00000088H.4 SFRSYM    DATA     BIT       TR0
      000000D0H.4 SFRSYM    DATA     BIT       RS1
      00000088H.6 SFRSYM    DATA     BIT       TR1
      000000C8H.2 SFRSYM    DATA     BIT       TR2
      000000B8H.0 SFRSYM    DATA     BIT       PX0
      000000E1H   SFRSYM    DATA     BYTE      WDT_CONTR
      000000B8H.2 SFRSYM    DATA     BIT       PX1
      00000083H   SFRSYM    DATA     BYTE      DPH
      00000082H   SFRSYM    DATA     BYTE      DPL
      000000B7H   SFRSYM    DATA     BYTE      IPH
      000000C8H.3 SFRSYM    DATA     BIT       EXEN2
      00000098H.4 SFRSYM    DATA     BIT       REN
      000000C9H   SFRSYM    DATA     BYTE      T2MOD
      000000C8H   SFRSYM    DATA     BYTE      T2CON
      000000E2H   SFRSYM    DATA     BYTE      ISP_DATA
      000000B9H   SFRSYM    DATA     BYTE      SADEN
      000000B0H.0 SFRSYM    DATA     BIT       RXD
      000000A9H   SFRSYM    DATA     BYTE      SADDR
LX51 LINKER/LOCATER V4.66.87.0                                                        06/02/2018  22:09:22  PAGE 170


      000000B0H.1 SFRSYM    DATA     BIT       TXD
      000000A2H   SFRSYM    DATA     BYTE      AUXR1
      000000D0H.5 SFRSYM    DATA     BIT       F0
      000000D0H   SFRSYM    DATA     BYTE      PSW
      01003E01H   SYMBOL    CODE     ---       rom_reset
      01004BBFH   SYMBOL    CODE     ---       rom_dump

      01006E4FH   BLOCK     CODE     ---       LVL=0
      02000016H   SYMBOL    XDATA    BYTE      addr
      01006E54H   BLOCK     CODE     NEAR LAB  LVL=1
      02000017H   SYMBOL    XDATA    BYTE      dat
      ---         BLOCKEND  ---      ---       LVL=1
      01006E4FH   LINE      CODE     ---       #11
      01006E54H   LINE      CODE     ---       #12
      01006E54H   LINE      CODE     ---       #14
      01006E57H   LINE      CODE     ---       #15
      01006E64H   LINE      CODE     ---       #16
      01006E7DH   LINE      CODE     ---       #17
      01006E82H   LINE      CODE     ---       #18
      ---         BLOCKEND  ---      ---       LVL=0

      01006FB4H   BLOCK     CODE     ---       LVL=0
      02000017H   SYMBOL    XDATA    BYTE      addr
      02000018H   SYMBOL    XDATA    BYTE      val
      01006FB4H   LINE      CODE     ---       #20
      01006FBCH   LINE      CODE     ---       #21
      01006FBCH   LINE      CODE     ---       #22
      01006FBFH   LINE      CODE     ---       #23
      01006FCCH   LINE      CODE     ---       #24
      ---         BLOCKEND  ---      ---       LVL=0

      01004BBFH   BLOCK     CODE     ---       LVL=0
      01004BBFH   LINE      CODE     ---       #27
      01004BBFH   LINE      CODE     ---       #28
      01004BBFH   LINE      CODE     ---       #29
      01004BC4H   LINE      CODE     ---       #30
      01004BC9H   LINE      CODE     ---       #31
      01004BCEH   LINE      CODE     ---       #32
      01004BD3H   LINE      CODE     ---       #34
      01004BD8H   LINE      CODE     ---       #35
      01004BDDH   LINE      CODE     ---       #36
      01004BE2H   LINE      CODE     ---       #37
      01004BE7H   LINE      CODE     ---       #38
      01004BECH   LINE      CODE     ---       #40
      01004BF1H   LINE      CODE     ---       #41
      01004BF6H   LINE      CODE     ---       #42
      01004BFBH   LINE      CODE     ---       #43
      01004C00H   LINE      CODE     ---       #45
      01004C05H   LINE      CODE     ---       #46
      01004C0AH   LINE      CODE     ---       #47
      01004C0FH   LINE      CODE     ---       #48
      01004C14H   LINE      CODE     ---       #49
      01004C19H   LINE      CODE     ---       #50
      01004C1EH   LINE      CODE     ---       #52
      01004C23H   LINE      CODE     ---       #53
      01004C28H   LINE      CODE     ---       #54
      01004C2DH   LINE      CODE     ---       #55
      01004C32H   LINE      CODE     ---       #56
      01004C37H   LINE      CODE     ---       #57
      ---         BLOCKEND  ---      ---       LVL=0

      01003E01H   BLOCK     CODE     ---       LVL=0
      01003E01H   LINE      CODE     ---       #60
      01003E01H   LINE      CODE     ---       #61
      01003E01H   LINE      CODE     ---       #62
LX51 LINKER/LOCATER V4.66.87.0                                                        06/02/2018  22:09:22  PAGE 171


      01003E08H   LINE      CODE     ---       #63
      01003E0FH   LINE      CODE     ---       #64
      01003E16H   LINE      CODE     ---       #65
      01003E18H   LINE      CODE     ---       #67
      01003E20H   LINE      CODE     ---       #68
      01003E27H   LINE      CODE     ---       #69
      01003E2EH   LINE      CODE     ---       #70
      01003E35H   LINE      CODE     ---       #73
      01003E37H   LINE      CODE     ---       #75
      01003E3FH   LINE      CODE     ---       #76
      01003E46H   LINE      CODE     ---       #77
      01003E4DH   LINE      CODE     ---       #78
      01003E54H   LINE      CODE     ---       #80
      01003E5BH   LINE      CODE     ---       #81
      01003E62H   LINE      CODE     ---       #82
      01003E69H   LINE      CODE     ---       #83
      01003E70H   LINE      CODE     ---       #84
      01003E77H   LINE      CODE     ---       #85
      01003E7EH   LINE      CODE     ---       #87
      01003E85H   LINE      CODE     ---       #88
      01003E8CH   LINE      CODE     ---       #89
      01003E93H   LINE      CODE     ---       #90
      01003E9AH   LINE      CODE     ---       #91
      01003EA1H   LINE      CODE     ---       #92
      01003EA8H   LINE      CODE     ---       #93
      ---         BLOCKEND  ---      ---       LVL=0

      01008C99H   BLOCK     CODE     ---       LVL=0
      01008C99H   LINE      CODE     ---       #95
      01008C99H   LINE      CODE     ---       #96
      01008C99H   LINE      CODE     ---       #97
      01008CA0H   LINE      CODE     ---       #98
      ---         BLOCKEND  ---      ---       LVL=0

      010068FAH   BLOCK     CODE     ---       LVL=0
      010068FAH   LINE      CODE     ---       #100
      010068FAH   LINE      CODE     ---       #101
      010068FAH   LINE      CODE     ---       #102
      01006924H   LINE      CODE     ---       #103
      01006929H   LINE      CODE     ---       #104
      01006932H   LINE      CODE     ---       #105
      01006935H   LINE      CODE     ---       #106
      01006935H   LINE      CODE     ---       #108
      ---         BLOCKEND  ---      ---       LVL=0

      ---         MODULE    ---      ---       DELAY_TASK
      01006017H   PUBLIC    CODE     ---       delay_task_call
      01006373H   PUBLIC    CODE     ---       _delay_task_reg
      01008C25H   PUBLIC    CODE     ---       delay_task_initialize
      020000CBH   SYMBOL    XDATA    ---       delay_tasks
      020000CEH   SYMBOL    XDATA    ---       task

      01007AE7H   BLOCK     CODE     ---       LVL=0
      ---         BLOCKEND  ---      ---       LVL=0

      01008C25H   BLOCK     CODE     ---       LVL=0
      01008C25H   LINE      CODE     ---       #9
      01008C25H   LINE      CODE     ---       #10
      01008C25H   LINE      CODE     ---       #11
      ---         BLOCKEND  ---      ---       LVL=0

      01006373H   BLOCK     CODE     ---       LVL=0
      02000015H   SYMBOL    XDATA    BYTE      index
      02000016H   SYMBOL    XDATA    ---       task
      02000018H   SYMBOL    XDATA    BYTE      delay_sec
LX51 LINKER/LOCATER V4.66.87.0                                                        06/02/2018  22:09:22  PAGE 172


      01006373H   LINE      CODE     ---       #14
      01006386H   LINE      CODE     ---       #15
      01006386H   LINE      CODE     ---       #16
      01006397H   LINE      CODE     ---       #17
      010063A1H   LINE      CODE     ---       #19
      010063A1H   LINE      CODE     ---       #21
      010063B0H   LINE      CODE     ---       #22
      010063BBH   LINE      CODE     ---       #23
      ---         BLOCKEND  ---      ---       LVL=0

      01006017H   BLOCK     CODE     ---       LVL=0
      01006017H   BLOCK     CODE     NEAR LAB  LVL=1
      0200000DH   SYMBOL    XDATA    BYTE      i
      ---         BLOCKEND  ---      ---       LVL=1
      01006017H   LINE      CODE     ---       #26
      01006017H   LINE      CODE     ---       #27
      01006017H   LINE      CODE     ---       #30
      01006026H   LINE      CODE     ---       #31
      0100603DH   LINE      CODE     ---       #32
      0100604BH   LINE      CODE     ---       #33
      01006058H   LINE      CODE     ---       #34
      0100605FH   LINE      CODE     ---       #35
      0100605FH   LINE      CODE     ---       #36
      01006067H   LINE      CODE     ---       #37
      ---         BLOCKEND  ---      ---       LVL=0

      ---         MODULE    ---      ---       SHELL
      0200007FH   PUBLIC    XDATA    ---       shell_buf
      01009E22H   PUBLIC    CONST    ---       cmds
      01002493H   PUBLIC    CODE     ---       run_shell
      01006DB1H   PUBLIC    CODE     ---       shell_dump_cmd
      010063BCH   PUBLIC    CODE     ---       _shell_search_cmd_by_name
      01004C3CH   SYMBOL    CODE     ---       _call_cmd
      01008A59H   SYMBOL    CODE     ---       _cmd_null

      010061F7H   BLOCK     CODE     ---       LVL=0
      ---         BLOCKEND  ---      ---       LVL=0

      01008A59H   BLOCK     CODE     ---       LVL=0
      02000000H   SYMBOL    XDATA    CHAR      arg1
      02000001H   SYMBOL    XDATA    CHAR      arg2
      01008A59H   LINE      CODE     ---       #26
      01008A59H   LINE      CODE     ---       #27
      01008A59H   LINE      CODE     ---       #28
      01008A59H   LINE      CODE     ---       #29
      01008A59H   LINE      CODE     ---       #30
      01008A62H   LINE      CODE     ---       #31
      01008A64H   LINE      CODE     ---       #32
      ---         BLOCKEND  ---      ---       LVL=0

      010063BCH   BLOCK     CODE     ---       LVL=0
      02000009H   SYMBOL    XDATA    ---       cmd
      010063C2H   BLOCK     CODE     NEAR LAB  LVL=1
      0200000CH   SYMBOL    XDATA    CHAR      i
      ---         BLOCKEND  ---      ---       LVL=1
      010063BCH   LINE      CODE     ---       #81
      010063C2H   LINE      CODE     ---       #82
      010063C2H   LINE      CODE     ---       #84
      010063D3H   LINE      CODE     ---       #85
      010063F4H   LINE      CODE     ---       #86
      010063FAH   LINE      CODE     ---       #87
      010063FAH   LINE      CODE     ---       #88
      01006402H   LINE      CODE     ---       #89
      01006404H   LINE      CODE     ---       #90
      ---         BLOCKEND  ---      ---       LVL=0
LX51 LINKER/LOCATER V4.66.87.0                                                        06/02/2018  22:09:22  PAGE 173



      01004C3CH   BLOCK     CODE     ---       LVL=0
      02000002H   SYMBOL    XDATA    ---       buf
      02000005H   SYMBOL    XDATA    CHAR      arg1
      02000006H   SYMBOL    XDATA    CHAR      arg2
      01004C47H   BLOCK     CODE     NEAR LAB  LVL=1
      02000007H   SYMBOL    XDATA    CHAR      i
      ---         BLOCKEND  ---      ---       LVL=1
      01004C3CH   LINE      CODE     ---       #92
      01004C47H   LINE      CODE     ---       #93
      01004C47H   LINE      CODE     ---       #95
      01004C53H   LINE      CODE     ---       #96
      01004C61H   LINE      CODE     ---       #97
      01004C64H   LINE      CODE     ---       #98
      01004C8CH   LINE      CODE     ---       #99
      01004CA9H   LINE      CODE     ---       #100
      01004CA9H   LINE      CODE     ---       #101
      01004CABH   LINE      CODE     ---       #102
      01004CB7H   LINE      CODE     ---       #103
      01004CB7H   LINE      CODE     ---       #104
      ---         BLOCKEND  ---      ---       LVL=0

      01006DB1H   BLOCK     CODE     ---       LVL=0
      01006DB1H   BLOCK     CODE     NEAR LAB  LVL=1
      02000009H   SYMBOL    XDATA    CHAR      i
      ---         BLOCKEND  ---      ---       LVL=1
      01006DB1H   LINE      CODE     ---       #106
      01006DB1H   LINE      CODE     ---       #107
      01006DB1H   LINE      CODE     ---       #109
      01006DC2H   LINE      CODE     ---       #110
      01006DDDH   LINE      CODE     ---       #111
      01006DE5H   LINE      CODE     ---       #112
      ---         BLOCKEND  ---      ---       LVL=0

      01002493H   BLOCK     CODE     ---       LVL=0
      01002493H   BLOCK     CODE     NEAR LAB  LVL=1
      02000000H   SYMBOL    XDATA    CHAR      arg1_pos
      02000001H   SYMBOL    XDATA    CHAR      arg2_pos
      ---         BLOCKEND  ---      ---       LVL=1
      01002493H   LINE      CODE     ---       #114
      01002493H   LINE      CODE     ---       #115
      01002493H   LINE      CODE     ---       #118
      01002496H   LINE      CODE     ---       #119
      0100249FH   LINE      CODE     ---       #120
      010024A2H   LINE      CODE     ---       #123
      010024A5H   LINE      CODE     ---       #124
      010024A8H   LINE      CODE     ---       #125
      010024ABH   LINE      CODE     ---       #126
      010024B2H   LINE      CODE     ---       #127
      010024B9H   LINE      CODE     ---       #128
      010024C0H   LINE      CODE     ---       #129
      010024C7H   LINE      CODE     ---       #130
      010024CCH   LINE      CODE     ---       #131
      010024CCH   LINE      CODE     ---       #132
      010024D5H   LINE      CODE     ---       #134
      010024E2H   LINE      CODE     ---       #136
      010024E7H   LINE      CODE     ---       #138
      010024F0H   LINE      CODE     ---       #139
      010024F0H   LINE      CODE     ---       #141
      010024F5H   LINE      CODE     ---       #142
      010024F7H   LINE      CODE     ---       #144
      0100250CH   LINE      CODE     ---       #146
      01002517H   LINE      CODE     ---       #147
      01002517H   LINE      CODE     ---       #148
      01002519H   LINE      CODE     ---       #149
LX51 LINKER/LOCATER V4.66.87.0                                                        06/02/2018  22:09:22  PAGE 174


      01002519H   LINE      CODE     ---       #151
      01002525H   LINE      CODE     ---       #152
      0100252AH   LINE      CODE     ---       #153
      01002530H   LINE      CODE     ---       #154
      01002532H   LINE      CODE     ---       #156
      0100253DH   LINE      CODE     ---       #157
      01002549H   LINE      CODE     ---       #158
      0100254BH   LINE      CODE     ---       #159
      0100254BH   LINE      CODE     ---       #161
      01002551H   LINE      CODE     ---       #163
      01002569H   LINE      CODE     ---       #165
      01002574H   LINE      CODE     ---       #166
      0100257CH   LINE      CODE     ---       #167
      0100257EH   LINE      CODE     ---       #168
      0100257EH   LINE      CODE     ---       #170
      0100258DH   LINE      CODE     ---       #171
      01002592H   LINE      CODE     ---       #172
      01002598H   LINE      CODE     ---       #173
      0100259AH   LINE      CODE     ---       #175
      010025A8H   LINE      CODE     ---       #176
      010025B0H   LINE      CODE     ---       #177
      010025B2H   LINE      CODE     ---       #178
      010025B2H   LINE      CODE     ---       #180
      010025BEH   LINE      CODE     ---       #182
      010025D3H   LINE      CODE     ---       #184
      010025D6H   LINE      CODE     ---       #185
      010025D9H   LINE      CODE     ---       #186
      010025DCH   LINE      CODE     ---       #187
      ---         BLOCKEND  ---      ---       LVL=0

      ---         MODULE    ---      ---       DEBUG
      0200001EH   PUBLIC    XDATA    BYTE      ?_debug_printf?BYTE
      01006CD9H   PUBLIC    CODE     ---       _debug_printf
      00000020H.0 PUBLIC    BIT      BIT       ?debug_onoff?BIT
      01008D6DH   PUBLIC    CODE     ---       debug_onoff
      01008DA0H   PUBLIC    CODE     ---       debug_initialize
      00000025H.4 SYMBOL    BIT      BIT       debug_is_on

      01008DA0H   BLOCK     CODE     ---       LVL=0
      01008DA0H   LINE      CODE     ---       #7
      01008DA0H   LINE      CODE     ---       #8
      01008DA0H   LINE      CODE     ---       #9
      01008DA2H   LINE      CODE     ---       #10
      ---         BLOCKEND  ---      ---       LVL=0

      01008D6DH   BLOCK     CODE     ---       LVL=0
      00000020H.0 SYMBOL    BIT      BIT       enable
      01008D6DH   LINE      CODE     ---       #12
      01008D6DH   LINE      CODE     ---       #13
      01008D6DH   LINE      CODE     ---       #14
      01008D71H   LINE      CODE     ---       #15
      ---         BLOCKEND  ---      ---       LVL=0

      01006CD9H   BLOCK     CODE     ---       LVL=0
      0200001EH   SYMBOL    XDATA    ---       fmt
      01006CDFH   BLOCK     CODE     NEAR LAB  LVL=1
      02000021H   SYMBOL    XDATA    ---       ellipsis_40
      02000049H   SYMBOL    XDATA    ---       arg_ptr
      ---         BLOCKEND  ---      ---       LVL=1
      01006CD9H   LINE      CODE     ---       #17
      01006CDFH   LINE      CODE     ---       #18
      01006CDFH   LINE      CODE     ---       #21
      01006CE2H   LINE      CODE     ---       #22
      01006CEEH   LINE      CODE     ---       #23
      01006D03H   LINE      CODE     ---       #24
LX51 LINKER/LOCATER V4.66.87.0                                                        06/02/2018  22:09:22  PAGE 175


      01006D0FH   LINE      CODE     ---       #25
      01006D0FH   LINE      CODE     ---       #26
      ---         BLOCKEND  ---      ---       LVL=0

      ---         MODULE    ---      ---       MPU
      010077F8H   PUBLIC    CODE     ---       mpu_read_int_status
      010069EEH   PUBLIC    CODE     ---       _mpu_threshold_set
      0100867CH   PUBLIC    CODE     ---       mpu_threshold_get
      01008731H   PUBLIC    CODE     ---       _mpu_threshold_inc
      01008CA1H   PUBLIC    CODE     ---       mpu_threshold_reset
      00000020H.1 PUBLIC    BIT      BIT       ?mpu_enable?BIT
      01007BA6H   PUBLIC    CODE     ---       mpu_enable
      01007162H   PUBLIC    CODE     ---       scan_mpu
      01008C37H   PUBLIC    CODE     ---       mpu_leave_powersave
      01008C2EH   PUBLIC    CODE     ---       mpu_enter_powersave
      010088D4H   PUBLIC    CODE     ---       mpu_initialize
      010065F4H   SYMBOL    CODE     ---       mpu_power_off
      020000EAH   SYMBOL    XDATA    BYTE      mpu_threshold
      010035A4H   SYMBOL    CODE     ---       mpu_power_on
      01007B07H   SYMBOL    CODE     ---       mpu_load_config

      01008592H   BLOCK     CODE     ---       LVL=0
      ---         BLOCKEND  ---      ---       LVL=0

      01007B07H   BLOCK     CODE     ---       LVL=0
      01007B07H   LINE      CODE     ---       #19
      01007B07H   LINE      CODE     ---       #20
      01007B07H   LINE      CODE     ---       #21
      01007B10H   LINE      CODE     ---       #22
      01007B1AH   LINE      CODE     ---       #23
      ---         BLOCKEND  ---      ---       LVL=0

      010035A4H   BLOCK     CODE     ---       LVL=0
      010035A4H   BLOCK     CODE     NEAR LAB  LVL=1
      02000015H   SYMBOL    XDATA    BYTE      val
      ---         BLOCKEND  ---      ---       LVL=1
      010035A4H   LINE      CODE     ---       #26
      010035A4H   LINE      CODE     ---       #27
      010035A4H   LINE      CODE     ---       #29
      010035ADH   LINE      CODE     ---       #31
      010035B0H   LINE      CODE     ---       #46
      010035B5H   LINE      CODE     ---       #47
      010035B8H   LINE      CODE     ---       #48
      010035BDH   LINE      CODE     ---       #51
      010035BDH   LINE      CODE     ---       #52
      010035C7H   LINE      CODE     ---       #53
      010035CCH   LINE      CODE     ---       #56
      010035D0H   LINE      CODE     ---       #57
      010035D3H   LINE      CODE     ---       #58
      010035D8H   LINE      CODE     ---       #61
      010035D8H   LINE      CODE     ---       #62
      010035DBH   LINE      CODE     ---       #65
      010035DDH   LINE      CODE     ---       #66
      010035E0H   LINE      CODE     ---       #69
      010035E0H   LINE      CODE     ---       #70
      010035E5H   LINE      CODE     ---       #73
      010035E5H   LINE      CODE     ---       #74
      010035EAH   LINE      CODE     ---       #77
      010035EAH   LINE      CODE     ---       #78
      010035F4H   LINE      CODE     ---       #80
      010035F7H   LINE      CODE     ---       #83
      010035F9H   LINE      CODE     ---       #84
      01003603H   LINE      CODE     ---       #96
      01003609H   LINE      CODE     ---       #97
      01003612H   LINE      CODE     ---       #108
LX51 LINKER/LOCATER V4.66.87.0                                                        06/02/2018  22:09:22  PAGE 176


      01003612H   LINE      CODE     ---       #109
      01003615H   LINE      CODE     ---       #110
      01003617H   LINE      CODE     ---       #111
      0100361AH   LINE      CODE     ---       #114
      01003620H   LINE      CODE     ---       #116
      01003625H   LINE      CODE     ---       #119
      0100362BH   LINE      CODE     ---       #120
      01003634H   LINE      CODE     ---       #123
      0100363AH   LINE      CODE     ---       #125
      ---         BLOCKEND  ---      ---       LVL=0

      010065F4H   BLOCK     CODE     ---       LVL=0
      010065F4H   BLOCK     CODE     NEAR LAB  LVL=1
      02000015H   SYMBOL    XDATA    BYTE      val
      ---         BLOCKEND  ---      ---       LVL=1
      010065F4H   LINE      CODE     ---       #127
      010065F4H   LINE      CODE     ---       #128
      010065F4H   LINE      CODE     ---       #130
      010065FDH   LINE      CODE     ---       #150
      01006603H   LINE      CODE     ---       #151
      01006608H   LINE      CODE     ---       #152
      0100660EH   LINE      CODE     ---       #153
      01006613H   LINE      CODE     ---       #156
      01006618H   LINE      CODE     ---       #157
      01006621H   LINE      CODE     ---       #158
      01006626H   LINE      CODE     ---       #161
      01006630H   LINE      CODE     ---       #163
      ---         BLOCKEND  ---      ---       LVL=0

      010088D4H   BLOCK     CODE     ---       LVL=0
      010088D4H   LINE      CODE     ---       #165
      010088D4H   LINE      CODE     ---       #166
      010088D4H   LINE      CODE     ---       #167
      010088DDH   LINE      CODE     ---       #168
      010088E0H   LINE      CODE     ---       #169
      ---         BLOCKEND  ---      ---       LVL=0

      01008C2EH   BLOCK     CODE     ---       LVL=0
      01008C2EH   LINE      CODE     ---       #172
      01008C2EH   LINE      CODE     ---       #173
      01008C2EH   LINE      CODE     ---       #174
      ---         BLOCKEND  ---      ---       LVL=0

      01008C37H   BLOCK     CODE     ---       LVL=0
      01008C37H   LINE      CODE     ---       #177
      01008C37H   LINE      CODE     ---       #178
      01008C37H   LINE      CODE     ---       #179
      ---         BLOCKEND  ---      ---       LVL=0

      01007162H   BLOCK     CODE     ---       LVL=0
      01007162H   BLOCK     CODE     NEAR LAB  LVL=1
      00000007H   SYMBOL    DATA     BYTE      val
      00000020H.0 SYMBOL    BIT      BIT       has_event
      ---         BLOCKEND  ---      ---       LVL=1
      01007162H   LINE      CODE     ---       #182
      01007162H   LINE      CODE     ---       #183
      01007162H   LINE      CODE     ---       #185
      01007164H   LINE      CODE     ---       #187
      0100716DH   LINE      CODE     ---       #188
      01007170H   LINE      CODE     ---       #193
      01007174H   LINE      CODE     ---       #195
      0100717DH   LINE      CODE     ---       #196
      01007183H   LINE      CODE     ---       #197
      01007185H   LINE      CODE     ---       #198
      01007185H   LINE      CODE     ---       #200
LX51 LINKER/LOCATER V4.66.87.0                                                        06/02/2018  22:09:22  PAGE 177


      0100718DH   LINE      CODE     ---       #201
      01007190H   LINE      CODE     ---       #202
      01007190H   LINE      CODE     ---       #203
      ---         BLOCKEND  ---      ---       LVL=0

      01007BA6H   BLOCK     CODE     ---       LVL=0
      00000020H.1 SYMBOL    BIT      BIT       enable
      01007BA6H   LINE      CODE     ---       #205
      01007BA6H   LINE      CODE     ---       #206
      01007BA6H   LINE      CODE     ---       #207
      01007BBBH   LINE      CODE     ---       #208
      01007BBEH   LINE      CODE     ---       #209
      01007BC1H   LINE      CODE     ---       #210
      01007BC1H   LINE      CODE     ---       #211
      01007BC4H   LINE      CODE     ---       #212
      01007BC4H   LINE      CODE     ---       #214
      ---         BLOCKEND  ---      ---       LVL=0

      01008CA1H   BLOCK     CODE     ---       LVL=0
      01008CA1H   LINE      CODE     ---       #216
      01008CA1H   LINE      CODE     ---       #217
      01008CA1H   LINE      CODE     ---       #218
      ---         BLOCKEND  ---      ---       LVL=0

      01008731H   BLOCK     CODE     ---       LVL=0
      00000007H   SYMBOL    DATA     BYTE      thres
      01008731H   LINE      CODE     ---       #222
      01008731H   LINE      CODE     ---       #223
      01008731H   LINE      CODE     ---       #224
      01008735H   LINE      CODE     ---       #225
      0100873BH   LINE      CODE     ---       #226
      0100873CH   LINE      CODE     ---       #227
      0100873DH   LINE      CODE     ---       #228
      0100873DH   LINE      CODE     ---       #229
      01008740H   LINE      CODE     ---       #230
      01008740H   LINE      CODE     ---       #231
      01008740H   LINE      CODE     ---       #232
      01008742H   LINE      CODE     ---       #233
      01008742H   LINE      CODE     ---       #234
      ---         BLOCKEND  ---      ---       LVL=0

      0100867CH   BLOCK     CODE     ---       LVL=0
      0100867CH   BLOCK     CODE     NEAR LAB  LVL=1
      02000015H   SYMBOL    XDATA    BYTE      val
      ---         BLOCKEND  ---      ---       LVL=1
      0100867CH   LINE      CODE     ---       #236
      0100867CH   LINE      CODE     ---       #237
      0100867CH   LINE      CODE     ---       #242
      01008689H   LINE      CODE     ---       #243
      0100868EH   LINE      CODE     ---       #245
      ---         BLOCKEND  ---      ---       LVL=0

      010069EEH   BLOCK     CODE     ---       LVL=0
      02000016H   SYMBOL    XDATA    BYTE      val
      010069EEH   LINE      CODE     ---       #247
      010069F3H   LINE      CODE     ---       #248
      010069F3H   LINE      CODE     ---       #249
      01006A00H   LINE      CODE     ---       #253
      01006A08H   LINE      CODE     ---       #254
      01006A0EH   LINE      CODE     ---       #255
      01006A11H   LINE      CODE     ---       #256
      01006A11H   LINE      CODE     ---       #257
      01006A1AH   LINE      CODE     ---       #258
      01006A1DH   LINE      CODE     ---       #259
      01006A1DH   LINE      CODE     ---       #260
LX51 LINKER/LOCATER V4.66.87.0                                                        06/02/2018  22:09:22  PAGE 178


      01006A1DH   LINE      CODE     ---       #261
      ---         BLOCKEND  ---      ---       LVL=0

      010077F8H   BLOCK     CODE     ---       LVL=0
      010077F8H   BLOCK     CODE     NEAR LAB  LVL=1
      02000016H   SYMBOL    XDATA    BYTE      val
      ---         BLOCKEND  ---      ---       LVL=1
      010077F8H   LINE      CODE     ---       #267
      010077F8H   LINE      CODE     ---       #268
      010077F8H   LINE      CODE     ---       #273
      01007805H   LINE      CODE     ---       #275
      01007816H   LINE      CODE     ---       #276
      0100781BH   LINE      CODE     ---       #277
      ---         BLOCKEND  ---      ---       LVL=0

      ---         MODULE    ---      ---       SM_CLOCK_TIMER
      0100CA8FH   PUBLIC    CONST    ---       sm_clock_timer_ss_name
      010058E7H   PUBLIC    CODE     ---       _sm_clock_timer_submod2
      01005079H   PUBLIC    CODE     ---       _sm_clock_timer_submod1
      01006497H   PUBLIC    CODE     ---       _sm_clock_timer_submod0
      0100805FH   PUBLIC    CODE     ---       _sm_clock_timer_init
      01004AC2H   SYMBOL    CODE     ---       _display_slot
      01006B86H   SYMBOL    CODE     ---       _show_slot_title

      01007A44H   BLOCK     CODE     ---       LVL=0
      ---         BLOCKEND  ---      ---       LVL=0

      01006B86H   BLOCK     CODE     ---       LVL=0
      02000012H   SYMBOL    XDATA    BYTE      slot
      01006B86H   LINE      CODE     ---       #20
      01006B8BH   LINE      CODE     ---       #21
      01006B8BH   LINE      CODE     ---       #22
      01006B8EH   LINE      CODE     ---       #23
      01006B95H   LINE      CODE     ---       #24
      01006B9CH   LINE      CODE     ---       #25
      01006BA3H   LINE      CODE     ---       #26
      01006BB3H   LINE      CODE     ---       #27
      ---         BLOCKEND  ---      ---       LVL=0

      01004AC2H   BLOCK     CODE     ---       LVL=0
      02000014H   SYMBOL    XDATA    BYTE      slot
      01004AC2H   LINE      CODE     ---       #30
      01004AC7H   LINE      CODE     ---       #31
      01004AC7H   LINE      CODE     ---       #32
      01004ACAH   LINE      CODE     ---       #34
      01004ACFH   LINE      CODE     ---       #35
      01004AD3H   LINE      CODE     ---       #36
      01004AD7H   LINE      CODE     ---       #37
      01004ADBH   LINE      CODE     ---       #38
      01004AE6H   LINE      CODE     ---       #39
      01004AEFH   LINE      CODE     ---       #40
      01004AF8H   LINE      CODE     ---       #41
      01004B06H   LINE      CODE     ---       #42
      01004B11H   LINE      CODE     ---       #43
      01004B1FH   LINE      CODE     ---       #44
      ---         BLOCKEND  ---      ---       LVL=0

      0100805FH   BLOCK     CODE     ---       LVL=0
      00000007H   SYMBOL    DATA     BYTE      from
      00000005H   SYMBOL    DATA     BYTE      to
      00000006H   SYMBOL    DATA     BYTE      ev
      0100805FH   LINE      CODE     ---       #46
      01008061H   LINE      CODE     ---       #47
      01008061H   LINE      CODE     ---       #48
      0100806DH   LINE      CODE     ---       #49
LX51 LINKER/LOCATER V4.66.87.0                                                        06/02/2018  22:09:22  PAGE 179


      01008072H   LINE      CODE     ---       #50
      ---         BLOCKEND  ---      ---       LVL=0

      01006497H   BLOCK     CODE     ---       LVL=0
      02000011H   SYMBOL    XDATA    BYTE      from
      02000012H   SYMBOL    XDATA    BYTE      to
      02000013H   SYMBOL    XDATA    BYTE      ev
      01006497H   LINE      CODE     ---       #53
      010064A2H   LINE      CODE     ---       #54
      010064A2H   LINE      CODE     ---       #55
      010064ACH   LINE      CODE     ---       #57
      010064C1H   LINE      CODE     ---       #59
      010064C1H   LINE      CODE     ---       #60
      010064C6H   LINE      CODE     ---       #61
      010064CBH   LINE      CODE     ---       #62
      010064CFH   LINE      CODE     ---       #64
      010064CFH   LINE      CODE     ---       #67
      010064D6H   LINE      CODE     ---       #68
      010064D9H   LINE      CODE     ---       #69
      010064DEH   LINE      CODE     ---       #71
      010064DEH   LINE      CODE     ---       #72
      ---         BLOCKEND  ---      ---       LVL=0

      01005079H   BLOCK     CODE     ---       LVL=0
      00000007H   SYMBOL    DATA     BYTE      from
      00000005H   SYMBOL    DATA     BYTE      to
      02000011H   SYMBOL    XDATA    BYTE      ev
      01005079H   LINE      CODE     ---       #74
      0100507EH   LINE      CODE     ---       #75
      0100507EH   LINE      CODE     ---       #76
      01005088H   LINE      CODE     ---       #78
      0100508FH   LINE      CODE     ---       #79
      01005092H   LINE      CODE     ---       #80
      01005095H   LINE      CODE     ---       #81
      01005099H   LINE      CODE     ---       #83
      01005099H   LINE      CODE     ---       #86
      010050A0H   LINE      CODE     ---       #87
      010050A9H   LINE      CODE     ---       #88
      010050B4H   LINE      CODE     ---       #89
      010050BCH   LINE      CODE     ---       #90
      010050BCH   LINE      CODE     ---       #92
      010050BCH   LINE      CODE     ---       #94
      010050C3H   LINE      CODE     ---       #95
      010050CCH   LINE      CODE     ---       #96
      010050CFH   LINE      CODE     ---       #97
      010050D7H   LINE      CODE     ---       #98
      010050DDH   LINE      CODE     ---       #99
      010050DDH   LINE      CODE     ---       #101
      010050DDH   LINE      CODE     ---       #102
      ---         BLOCKEND  ---      ---       LVL=0

      010058E7H   BLOCK     CODE     ---       LVL=0
      00000007H   SYMBOL    DATA     BYTE      from
      00000005H   SYMBOL    DATA     BYTE      to
      02000011H   SYMBOL    XDATA    BYTE      ev
      010058E7H   LINE      CODE     ---       #104
      010058EDH   LINE      CODE     ---       #105
      010058EDH   LINE      CODE     ---       #106
      010058F9H   LINE      CODE     ---       #108
      01005900H   LINE      CODE     ---       #109
      01005903H   LINE      CODE     ---       #110
      0100590EH   LINE      CODE     ---       #111
      01005913H   LINE      CODE     ---       #112
      01005917H   LINE      CODE     ---       #114
      01005917H   LINE      CODE     ---       #117
LX51 LINKER/LOCATER V4.66.87.0                                                        06/02/2018  22:09:22  PAGE 180


      0100591EH   LINE      CODE     ---       #118
      01005926H   LINE      CODE     ---       #120
      01005926H   LINE      CODE     ---       #122
      0100592DH   LINE      CODE     ---       #123
      01005935H   LINE      CODE     ---       #124
      01005942H   LINE      CODE     ---       #126
      01005942H   LINE      CODE     ---       #127
      ---         BLOCKEND  ---      ---       LVL=0

      ---         MODULE    ---      ---       SM_CLOCK_COUNTER
      0100BE9CH   PUBLIC    CONST    ---       sm_clock_counter_ss_name
      010076D2H   PUBLIC    CODE     ---       _sm_clock_counter_submod5
      010078F1H   PUBLIC    CODE     ---       _sm_clock_counter_submod4
      01006781H   PUBLIC    CODE     ---       _sm_clock_counter_submod3
      01005888H   PUBLIC    CODE     ---       _sm_clock_counter_submod2
      01005943H   PUBLIC    CODE     ---       _sm_clock_counter_submod1
      0100443CH   PUBLIC    CODE     ---       _sm_clock_counter_submod0
      010084A1H   PUBLIC    CODE     ---       _sm_clock_counter_init
      01007453H   SYMBOL    CODE     ---       _enter_hhmmss
      01007326H   SYMBOL    CODE     ---       _write_only
      01008B6EH   SYMBOL    CODE     ---       _inc_and_write
      0100656BH   SYMBOL    CODE     ---       _inc_only
      01004140H   SYMBOL    CODE     ---       update_hhmmss

      0100747DH   BLOCK     CODE     ---       LVL=0
      ---         BLOCKEND  ---      ---       LVL=0

      0100656BH   BLOCK     CODE     ---       LVL=0
      00000007H   SYMBOL    DATA     BYTE      what
      0100656BH   LINE      CODE     ---       #21
      0100656BH   LINE      CODE     ---       #22
      0100656BH   LINE      CODE     ---       #23
      01006576H   LINE      CODE     ---       #24
      01006576H   LINE      CODE     ---       #25
      01006579H   LINE      CODE     ---       #26
      0100657BH   LINE      CODE     ---       #27
      0100657DH   LINE      CODE     ---       #28
      01006580H   LINE      CODE     ---       #29
      01006580H   LINE      CODE     ---       #30
      01006585H   LINE      CODE     ---       #31
      01006585H   LINE      CODE     ---       #32
      01006585H   LINE      CODE     ---       #33
      01006588H   LINE      CODE     ---       #34
      0100658AH   LINE      CODE     ---       #35
      0100658CH   LINE      CODE     ---       #36
      0100658FH   LINE      CODE     ---       #37
      0100658FH   LINE      CODE     ---       #38
      01006594H   LINE      CODE     ---       #39
      01006594H   LINE      CODE     ---       #40
      01006594H   LINE      CODE     ---       #41
      01006597H   LINE      CODE     ---       #42
      01006599H   LINE      CODE     ---       #43
      0100659EH   LINE      CODE     ---       #44
      010065A2H   LINE      CODE     ---       #45
      010065A2H   LINE      CODE     ---       #46
      010065A7H   LINE      CODE     ---       #47
      010065A7H   LINE      CODE     ---       #48
      010065A7H   LINE      CODE     ---       #49
      ---         BLOCKEND  ---      ---       LVL=0

      01007326H   BLOCK     CODE     ---       LVL=0
      00000007H   SYMBOL    DATA     BYTE      what
      01007326H   LINE      CODE     ---       #51
      01007326H   LINE      CODE     ---       #52
      01007326H   LINE      CODE     ---       #53
LX51 LINKER/LOCATER V4.66.87.0                                                        06/02/2018  22:09:22  PAGE 181


      01007331H   LINE      CODE     ---       #54
      01007331H   LINE      CODE     ---       #55
      01007334H   LINE      CODE     ---       #56
      01007336H   LINE      CODE     ---       #57
      01007338H   LINE      CODE     ---       #58
      01007338H   LINE      CODE     ---       #59
      01007338H   LINE      CODE     ---       #60
      0100733AH   LINE      CODE     ---       #61
      0100733AH   LINE      CODE     ---       #62
      0100733DH   LINE      CODE     ---       #63
      0100733FH   LINE      CODE     ---       #64
      01007341H   LINE      CODE     ---       #65
      01007341H   LINE      CODE     ---       #66
      01007341H   LINE      CODE     ---       #67
      01007343H   LINE      CODE     ---       #68
      01007343H   LINE      CODE     ---       #69
      01007346H   LINE      CODE     ---       #70
      01007348H   LINE      CODE     ---       #71
      0100734DH   LINE      CODE     ---       #72
      01007351H   LINE      CODE     ---       #73
      01007351H   LINE      CODE     ---       #74
      01007351H   LINE      CODE     ---       #75
      01007351H   LINE      CODE     ---       #76
      ---         BLOCKEND  ---      ---       LVL=0

      01008B6EH   BLOCK     CODE     ---       LVL=0
      00000006H   SYMBOL    DATA     BYTE      what
      01008B6EH   LINE      CODE     ---       #78
      01008B70H   LINE      CODE     ---       #79
      01008B70H   LINE      CODE     ---       #80
      01008B73H   LINE      CODE     ---       #81
      ---         BLOCKEND  ---      ---       LVL=0

      01004140H   BLOCK     CODE     ---       LVL=0
      01004140H   BLOCK     CODE     NEAR LAB  LVL=1
      02000015H   SYMBOL    XDATA    BYTE      hour
      02000016H   SYMBOL    XDATA    BYTE      min
      02000017H   SYMBOL    XDATA    BYTE      sec
      ---         BLOCKEND  ---      ---       LVL=1
      01004140H   LINE      CODE     ---       #84
      01004140H   LINE      CODE     ---       #85
      01004140H   LINE      CODE     ---       #88
      0100414AH   LINE      CODE     ---       #89
      01004154H   LINE      CODE     ---       #90
      0100415EH   LINE      CODE     ---       #93
      01004163H   LINE      CODE     ---       #94
      01004167H   LINE      CODE     ---       #95
      0100416BH   LINE      CODE     ---       #96
      0100416FH   LINE      CODE     ---       #98
      01004190H   LINE      CODE     ---       #100
      01004198H   LINE      CODE     ---       #101
      010041A3H   LINE      CODE     ---       #102
      010041ABH   LINE      CODE     ---       #103
      010041B6H   LINE      CODE     ---       #104
      010041C6H   LINE      CODE     ---       #105
      010041D1H   LINE      CODE     ---       #107
      ---         BLOCKEND  ---      ---       LVL=0

      01007453H   BLOCK     CODE     ---       LVL=0
      02000014H   SYMBOL    XDATA    BYTE      what
      01007453H   LINE      CODE     ---       #109
      01007458H   LINE      CODE     ---       #110
      01007458H   LINE      CODE     ---       #111
      0100745BH   LINE      CODE     ---       #112
      01007469H   LINE      CODE     ---       #113
LX51 LINKER/LOCATER V4.66.87.0                                                        06/02/2018  22:09:22  PAGE 182


      01007469H   LINE      CODE     ---       #114
      0100746BH   LINE      CODE     ---       #115
      0100746BH   LINE      CODE     ---       #116
      0100746DH   LINE      CODE     ---       #117
      0100746DH   LINE      CODE     ---       #118
      0100746FH   LINE      CODE     ---       #119
      0100746FH   LINE      CODE     ---       #120
      01007471H   LINE      CODE     ---       #121
      01007471H   LINE      CODE     ---       #122
      01007476H   LINE      CODE     ---       #123
      0100747AH   LINE      CODE     ---       #124
      0100747AH   LINE      CODE     ---       #125
      0100747AH   LINE      CODE     ---       #126
      ---         BLOCKEND  ---      ---       LVL=0

      010084A1H   BLOCK     CODE     ---       LVL=0
      00000007H   SYMBOL    DATA     BYTE      from
      00000005H   SYMBOL    DATA     BYTE      to
      00000006H   SYMBOL    DATA     BYTE      ev
      010084A1H   LINE      CODE     ---       #129
      010084A3H   LINE      CODE     ---       #130
      010084A3H   LINE      CODE     ---       #131
      010084AFH   LINE      CODE     ---       #132
      ---         BLOCKEND  ---      ---       LVL=0

      0100443CH   BLOCK     CODE     ---       LVL=0
      02000011H   SYMBOL    XDATA    BYTE      from
      02000012H   SYMBOL    XDATA    BYTE      to
      02000013H   SYMBOL    XDATA    BYTE      ev
      0100443CH   LINE      CODE     ---       #135
      01004447H   LINE      CODE     ---       #136
      01004447H   LINE      CODE     ---       #137
      01004451H   LINE      CODE     ---       #139
      01004466H   LINE      CODE     ---       #141
      01004466H   LINE      CODE     ---       #142
      0100446BH   LINE      CODE     ---       #143
      0100446EH   LINE      CODE     ---       #144
      01004473H   LINE      CODE     ---       #145
      01004479H   LINE      CODE     ---       #147
      01004479H   LINE      CODE     ---       #150
      0100447FH   LINE      CODE     ---       #151
      01004482H   LINE      CODE     ---       #153
      01004482H   LINE      CODE     ---       #156
      0100448AH   LINE      CODE     ---       #157
      0100448FH   LINE      CODE     ---       #159
      0100448FH   LINE      CODE     ---       #162
      01004493H   LINE      CODE     ---       #163
      0100449AH   LINE      CODE     ---       #164
      0100449FH   LINE      CODE     ---       #165
      0100449FH   LINE      CODE     ---       #166
      0100449FH   LINE      CODE     ---       #167
      010044A8H   LINE      CODE     ---       #169
      010044A8H   LINE      CODE     ---       #172
      010044B0H   LINE      CODE     ---       #173
      010044B5H   LINE      CODE     ---       #174
      010044BBH   LINE      CODE     ---       #176
      010044BBH   LINE      CODE     ---       #179
      010044BFH   LINE      CODE     ---       #180
      010044C5H   LINE      CODE     ---       #181
      010044C8H   LINE      CODE     ---       #182
      010044CDH   LINE      CODE     ---       #184
      010044CDH   LINE      CODE     ---       #185
      ---         BLOCKEND  ---      ---       LVL=0

      01005943H   BLOCK     CODE     ---       LVL=0
LX51 LINKER/LOCATER V4.66.87.0                                                        06/02/2018  22:09:22  PAGE 183


      00000007H   SYMBOL    DATA     BYTE      from
      00000005H   SYMBOL    DATA     BYTE      to
      02000011H   SYMBOL    XDATA    BYTE      ev
      01005943H   LINE      CODE     ---       #187
      01005948H   LINE      CODE     ---       #188
      01005948H   LINE      CODE     ---       #189
      01005952H   LINE      CODE     ---       #191
      01005958H   LINE      CODE     ---       #192
      0100595BH   LINE      CODE     ---       #194
      0100595BH   LINE      CODE     ---       #197
      01005962H   LINE      CODE     ---       #198
      01005967H   LINE      CODE     ---       #200
      01005967H   LINE      CODE     ---       #203
      0100596FH   LINE      CODE     ---       #204
      01005974H   LINE      CODE     ---       #206
      01005974H   LINE      CODE     ---       #209
      01005978H   LINE      CODE     ---       #210
      0100597FH   LINE      CODE     ---       #211
      01005984H   LINE      CODE     ---       #212
      01005984H   LINE      CODE     ---       #213
      01005984H   LINE      CODE     ---       #214
      0100598DH   LINE      CODE     ---       #216
      0100598DH   LINE      CODE     ---       #219
      01005994H   LINE      CODE     ---       #220
      01005999H   LINE      CODE     ---       #221
      0100599EH   LINE      CODE     ---       #223
      0100599EH   LINE      CODE     ---       #224
      ---         BLOCKEND  ---      ---       LVL=0

      01005888H   BLOCK     CODE     ---       LVL=0
      00000007H   SYMBOL    DATA     BYTE      from
      00000005H   SYMBOL    DATA     BYTE      to
      02000011H   SYMBOL    XDATA    BYTE      ev
      01005888H   LINE      CODE     ---       #226
      0100588EH   LINE      CODE     ---       #227
      0100588EH   LINE      CODE     ---       #228
      0100589AH   LINE      CODE     ---       #230
      010058A0H   LINE      CODE     ---       #231
      010058A3H   LINE      CODE     ---       #233
      010058A3H   LINE      CODE     ---       #236
      010058AAH   LINE      CODE     ---       #237
      010058AFH   LINE      CODE     ---       #239
      010058AFH   LINE      CODE     ---       #242
      010058B7H   LINE      CODE     ---       #243
      010058BCH   LINE      CODE     ---       #245
      010058BCH   LINE      CODE     ---       #248
      010058C0H   LINE      CODE     ---       #249
      010058C7H   LINE      CODE     ---       #250
      010058CCH   LINE      CODE     ---       #251
      010058CCH   LINE      CODE     ---       #252
      010058CCH   LINE      CODE     ---       #253
      010058D5H   LINE      CODE     ---       #255
      010058D5H   LINE      CODE     ---       #258
      010058DCH   LINE      CODE     ---       #259
      010058E1H   LINE      CODE     ---       #260
      010058E6H   LINE      CODE     ---       #262
      010058E6H   LINE      CODE     ---       #263
      ---         BLOCKEND  ---      ---       LVL=0

      01006781H   BLOCK     CODE     ---       LVL=0
      00000007H   SYMBOL    DATA     BYTE      from
      00000005H   SYMBOL    DATA     BYTE      to
      02000011H   SYMBOL    XDATA    BYTE      ev
      01006781H   LINE      CODE     ---       #265
      01006787H   LINE      CODE     ---       #266
LX51 LINKER/LOCATER V4.66.87.0                                                        06/02/2018  22:09:22  PAGE 184


      01006787H   LINE      CODE     ---       #267
      01006793H   LINE      CODE     ---       #270
      0100679AH   LINE      CODE     ---       #271
      0100679DH   LINE      CODE     ---       #272
      010067A2H   LINE      CODE     ---       #273
      010067A6H   LINE      CODE     ---       #274
      010067A8H   LINE      CODE     ---       #276
      010067A8H   LINE      CODE     ---       #279
      010067AFH   LINE      CODE     ---       #280
      010067B2H   LINE      CODE     ---       #281
      010067B5H   LINE      CODE     ---       #283
      010067B5H   LINE      CODE     ---       #284
      ---         BLOCKEND  ---      ---       LVL=0

      010078F1H   BLOCK     CODE     ---       LVL=0
      00000007H   SYMBOL    DATA     BYTE      from
      00000005H   SYMBOL    DATA     BYTE      to
      02000011H   SYMBOL    XDATA    BYTE      ev
      010078F1H   LINE      CODE     ---       #286
      010078F7H   LINE      CODE     ---       #287
      010078F7H   LINE      CODE     ---       #288
      01007903H   LINE      CODE     ---       #291
      0100790AH   LINE      CODE     ---       #292
      0100790DH   LINE      CODE     ---       #293
      01007913H   LINE      CODE     ---       #295
      01007913H   LINE      CODE     ---       #296
      ---         BLOCKEND  ---      ---       LVL=0

      010076D2H   BLOCK     CODE     ---       LVL=0
      00000007H   SYMBOL    DATA     BYTE      from
      00000005H   SYMBOL    DATA     BYTE      to
      02000011H   SYMBOL    XDATA    BYTE      ev
      010076D2H   LINE      CODE     ---       #298
      010076D8H   LINE      CODE     ---       #299
      010076D8H   LINE      CODE     ---       #300
      010076E4H   LINE      CODE     ---       #302
      010076EBH   LINE      CODE     ---       #303
      010076F1H   LINE      CODE     ---       #304
      010076F4H   LINE      CODE     ---       #305
      010076F7H   LINE      CODE     ---       #307
      010076F7H   LINE      CODE     ---       #308
      ---         BLOCKEND  ---      ---       LVL=0

      ---         MODULE    ---      ---       SM_CLOCK_DISPLAY
      0100C99CH   PUBLIC    CONST    ---       sm_clock_display_ss_name
      010074FBH   PUBLIC    CODE     ---       _sm_clock_display_submod3
      01007840H   PUBLIC    CODE     ---       _sm_clock_display_submod2
      01007275H   PUBLIC    CODE     ---       _sm_clock_display_submod1
      01006405H   PUBLIC    CODE     ---       _sm_clock_display_submod0
      0100781CH   PUBLIC    CODE     ---       _sm_clock_display_init
      01004820H   SYMBOL    CODE     ---       display_temp
      01008C40H   SYMBOL    CODE     ---       reset_auto_switch
      01007B27H   SYMBOL    CODE     ---       test_autoswitch

      01007B47H   BLOCK     CODE     ---       LVL=0
      ---         BLOCKEND  ---      ---       LVL=0

      01004820H   BLOCK     CODE     ---       LVL=0
      01004820H   BLOCK     CODE     NEAR LAB  LVL=1
      02000012H   SYMBOL    XDATA    BYTE      inti
      02000013H   SYMBOL    XDATA    BYTE      flt
      00000020H.0 SYMBOL    BIT      BIT       sign
      ---         BLOCKEND  ---      ---       LVL=1
      01004820H   LINE      CODE     ---       #26
      01004820H   LINE      CODE     ---       #27
LX51 LINKER/LOCATER V4.66.87.0                                                        06/02/2018  22:09:22  PAGE 185


      01004820H   LINE      CODE     ---       #31
      01004825H   LINE      CODE     ---       #32
      01004839H   LINE      CODE     ---       #34
      0100485EH   LINE      CODE     ---       #36
      01004861H   LINE      CODE     ---       #38
      01004866H   LINE      CODE     ---       #40
      0100486DH   LINE      CODE     ---       #41
      01004879H   LINE      CODE     ---       #42
      01004881H   LINE      CODE     ---       #43
      0100488CH   LINE      CODE     ---       #44
      01004894H   LINE      CODE     ---       #45
      0100489FH   LINE      CODE     ---       #46
      ---         BLOCKEND  ---      ---       LVL=0

      01008C40H   BLOCK     CODE     ---       LVL=0
      01008C40H   LINE      CODE     ---       #48
      01008C40H   LINE      CODE     ---       #49
      01008C40H   LINE      CODE     ---       #50
      01008C48H   LINE      CODE     ---       #51
      ---         BLOCKEND  ---      ---       LVL=0

      01007B27H   BLOCK     CODE     ---       LVL=0
      01007B27H   LINE      CODE     ---       #54
      01007B27H   LINE      CODE     ---       #55
      01007B27H   LINE      CODE     ---       #56
      01007B37H   LINE      CODE     ---       #57
      01007B40H   LINE      CODE     ---       #58
      01007B46H   LINE      CODE     ---       #59
      01007B46H   LINE      CODE     ---       #60
      ---         BLOCKEND  ---      ---       LVL=0

      0100781CH   BLOCK     CODE     ---       LVL=0
      00000007H   SYMBOL    DATA     BYTE      from
      00000005H   SYMBOL    DATA     BYTE      to
      00000006H   SYMBOL    DATA     BYTE      ev
      0100781CH   LINE      CODE     ---       #62
      0100781EH   LINE      CODE     ---       #63
      0100781EH   LINE      CODE     ---       #64
      0100782AH   LINE      CODE     ---       #65
      0100782DH   LINE      CODE     ---       #66
      01007830H   LINE      CODE     ---       #67
      01007835H   LINE      CODE     ---       #68
      0100783AH   LINE      CODE     ---       #69
      ---         BLOCKEND  ---      ---       LVL=0

      01006405H   BLOCK     CODE     ---       LVL=0
      02000011H   SYMBOL    XDATA    BYTE      from
      00000005H   SYMBOL    DATA     BYTE      to
      02000012H   SYMBOL    XDATA    BYTE      ev
      01006405H   LINE      CODE     ---       #72
      0100640DH   LINE      CODE     ---       #73
      0100640DH   LINE      CODE     ---       #74
      01006417H   LINE      CODE     ---       #77
      01006424H   LINE      CODE     ---       #78
      01006424H   LINE      CODE     ---       #79
      01006427H   LINE      CODE     ---       #80
      01006427H   LINE      CODE     ---       #81
      01006427H   LINE      CODE     ---       #82
      01006429H   LINE      CODE     ---       #84
      01006429H   LINE      CODE     ---       #87
      01006436H   LINE      CODE     ---       #88
      0100643BH   LINE      CODE     ---       #89
      01006440H   LINE      CODE     ---       #90
      01006443H   LINE      CODE     ---       #92
      01006443H   LINE      CODE     ---       #95
LX51 LINKER/LOCATER V4.66.87.0                                                        06/02/2018  22:09:22  PAGE 186


      0100644AH   LINE      CODE     ---       #96
      0100644DH   LINE      CODE     ---       #98
      0100644DH   LINE      CODE     ---       #99
      ---         BLOCKEND  ---      ---       LVL=0

      01007275H   BLOCK     CODE     ---       LVL=0
      00000007H   SYMBOL    DATA     BYTE      from
      00000005H   SYMBOL    DATA     BYTE      to
      02000011H   SYMBOL    XDATA    BYTE      ev
      01007275H   LINE      CODE     ---       #101
      0100727BH   LINE      CODE     ---       #102
      0100727BH   LINE      CODE     ---       #103
      01007287H   LINE      CODE     ---       #105
      0100728FH   LINE      CODE     ---       #107
      01007294H   LINE      CODE     ---       #108
      01007297H   LINE      CODE     ---       #109
      0100729AH   LINE      CODE     ---       #111
      0100729AH   LINE      CODE     ---       #114
      0100729EH   LINE      CODE     ---       #115
      010072A1H   LINE      CODE     ---       #117
      010072A1H   LINE      CODE     ---       #118
      ---         BLOCKEND  ---      ---       LVL=0

      01007840H   BLOCK     CODE     ---       LVL=0
      00000007H   SYMBOL    DATA     BYTE      from
      00000005H   SYMBOL    DATA     BYTE      to
      02000011H   SYMBOL    XDATA    BYTE      ev
      01007840H   LINE      CODE     ---       #120
      01007843H   LINE      CODE     ---       #121
      01007843H   LINE      CODE     ---       #122
      01007849H   LINE      CODE     ---       #124
      01007851H   LINE      CODE     ---       #126
      01007856H   LINE      CODE     ---       #127
      01007859H   LINE      CODE     ---       #128
      0100785CH   LINE      CODE     ---       #130
      0100785CH   LINE      CODE     ---       #133
      01007860H   LINE      CODE     ---       #134
      01007863H   LINE      CODE     ---       #136
      01007863H   LINE      CODE     ---       #137
      ---         BLOCKEND  ---      ---       LVL=0

      010074FBH   BLOCK     CODE     ---       LVL=0
      00000007H   SYMBOL    DATA     BYTE      from
      00000005H   SYMBOL    DATA     BYTE      to
      02000011H   SYMBOL    XDATA    BYTE      ev
      010074FBH   LINE      CODE     ---       #139
      010074FEH   LINE      CODE     ---       #140
      010074FEH   LINE      CODE     ---       #141
      01007504H   LINE      CODE     ---       #143
      0100750BH   LINE      CODE     ---       #144
      01007510H   LINE      CODE     ---       #145
      01007513H   LINE      CODE     ---       #146
      01007516H   LINE      CODE     ---       #147
      01007519H   LINE      CODE     ---       #149
      01007519H   LINE      CODE     ---       #152
      01007520H   LINE      CODE     ---       #153
      01007523H   LINE      CODE     ---       #155
      01007523H   LINE      CODE     ---       #156
      ---         BLOCKEND  ---      ---       LVL=0

      ---         MODULE    ---      ---       SM_CLOCK_POWERSAVE
      0100D44BH   PUBLIC    CONST    ---       sm_clock_powersave_ss_name
      01006F82H   PUBLIC    CODE     ---       _sm_clock_powersave

      01006F82H   BLOCK     CODE     ---       LVL=0
LX51 LINKER/LOCATER V4.66.87.0                                                        06/02/2018  22:09:22  PAGE 187


      00000007H   SYMBOL    DATA     BYTE      from
      02000011H   SYMBOL    XDATA    BYTE      to
      02000012H   SYMBOL    XDATA    BYTE      ev
      01006F82H   LINE      CODE     ---       #17
      01006F8BH   LINE      CODE     ---       #18
      01006F8BH   LINE      CODE     ---       #19
      01006F9FH   LINE      CODE     ---       #22
      01006FADH   LINE      CODE     ---       #24
      01006FB0H   LINE      CODE     ---       #25
      01006FB3H   LINE      CODE     ---       #27
      01006FB3H   LINE      CODE     ---       #29
      ---         BLOCKEND  ---      ---       LVL=0

      ---         MODULE    ---      ---       SM_CLOCK_MOD_ALARM
      0100C240H   PUBLIC    CONST    ---       sm_clock_mod_alarm_ss_name
      010073A9H   PUBLIC    CODE     ---       _sm_clock_mod_alarm_submod4
      0100737EH   PUBLIC    CODE     ---       _sm_clock_mod_alarm_submod3
      01005D1EH   PUBLIC    CODE     ---       _sm_clock_mod_alarm_submod2
      0100599FH   PUBLIC    CODE     ---       _sm_clock_mod_alarm_submod1
      01005709H   PUBLIC    CODE     ---       _sm_clock_mod_alarm_submod0
      010088E3H   PUBLIC    CODE     ---       _sm_clock_mod_alarm_init
      01006B4CH   SYMBOL    CODE     ---       _enter_alarm
      01007A65H   SYMBOL    CODE     ---       toggle_alarm_bs
      0100880EH   SYMBOL    CODE     ---       _inc_write
      010062DDH   SYMBOL    CODE     ---       _write_only
      01006E83H   SYMBOL    CODE     ---       _inc_only
      0100799DH   SYMBOL    CODE     ---       _toggle_alarm
      01001BAEH   SYMBOL    CODE     ---       _update_alarm
      010085A6H   SYMBOL    CODE     ---       toggle_alarm_music

      01008743H   BLOCK     CODE     ---       LVL=0
      ---         BLOCKEND  ---      ---       LVL=0

      01001BAEH   BLOCK     CODE     ---       LVL=0
      02000015H   SYMBOL    XDATA    BYTE      what
      02000016H   SYMBOL    XDATA    BYTE      day
      01001BB8H   BLOCK     CODE     NEAR LAB  LVL=1
      02000017H   SYMBOL    XDATA    BYTE      hour
      02000018H   SYMBOL    XDATA    BYTE      min
      ---         BLOCKEND  ---      ---       LVL=1
      01001BAEH   LINE      CODE     ---       #23
      01001BB8H   LINE      CODE     ---       #24
      01001BB8H   LINE      CODE     ---       #26
      01001BC2H   LINE      CODE     ---       #27
      01001BC2H   LINE      CODE     ---       #28
      01001BC5H   LINE      CODE     ---       #29
      01001BCDH   LINE      CODE     ---       #30
      01001BD5H   LINE      CODE     ---       #31
      01001BDAH   LINE      CODE     ---       #32
      01001BDEH   LINE      CODE     ---       #35
      01001BEBH   LINE      CODE     ---       #36
      01001BEFH   LINE      CODE     ---       #37
      01001BF3H   LINE      CODE     ---       #38
      01001C01H   LINE      CODE     ---       #39
      01001C06H   LINE      CODE     ---       #40
      01001C08H   LINE      CODE     ---       #41
      01001C0DH   LINE      CODE     ---       #42
      01001C0DH   LINE      CODE     ---       #44
      01001C26H   LINE      CODE     ---       #46
      01001C30H   LINE      CODE     ---       #47
      01001C33H   LINE      CODE     ---       #48
      01001C35H   LINE      CODE     ---       #49
      01001C3CH   LINE      CODE     ---       #50
      01001C3CH   LINE      CODE     ---       #51
      01001C48H   LINE      CODE     ---       #52
LX51 LINKER/LOCATER V4.66.87.0                                                        06/02/2018  22:09:22  PAGE 188


      01001C4DH   LINE      CODE     ---       #53
      01001C54H   LINE      CODE     ---       #55
      01001C5FH   LINE      CODE     ---       #56
      01001C82H   LINE      CODE     ---       #57
      01001C82H   LINE      CODE     ---       #58
      01001C85H   LINE      CODE     ---       #59
      01001C91H   LINE      CODE     ---       #60
      01001C9BH   LINE      CODE     ---       #61
      01001C9BH   LINE      CODE     ---       #62
      01001C9BH   LINE      CODE     ---       #63
      01001C9EH   LINE      CODE     ---       #64
      01001CA0H   LINE      CODE     ---       #65
      01001CA0H   LINE      CODE     ---       #66
      01001CA3H   LINE      CODE     ---       #67
      01001CA3H   LINE      CODE     ---       #68
      01001CA3H   LINE      CODE     ---       #69
      01001CADH   LINE      CODE     ---       #70
      01001CB4H   LINE      CODE     ---       #71
      01001CBBH   LINE      CODE     ---       #72
      01001CC0H   LINE      CODE     ---       #73
      01001CC0H   LINE      CODE     ---       #74
      01001CC0H   LINE      CODE     ---       #75
      01001CC3H   LINE      CODE     ---       #76
      01001CC5H   LINE      CODE     ---       #77
      01001CC5H   LINE      CODE     ---       #78
      01001CC8H   LINE      CODE     ---       #79
      01001CC8H   LINE      CODE     ---       #80
      01001CC8H   LINE      CODE     ---       #81
      01001CCAH   LINE      CODE     ---       #82
      01001CD1H   LINE      CODE     ---       #83
      01001CD8H   LINE      CODE     ---       #84
      01001CDFH   LINE      CODE     ---       #85
      01001CE6H   LINE      CODE     ---       #86
      01001CEDH   LINE      CODE     ---       #87
      01001CFEH   LINE      CODE     ---       #88
      01001D0AH   LINE      CODE     ---       #89
      01001D0AH   LINE      CODE     ---       #90
      ---         BLOCKEND  ---      ---       LVL=0

      01006B4CH   BLOCK     CODE     ---       LVL=0
      02000013H   SYMBOL    XDATA    BYTE      what
      02000014H   SYMBOL    XDATA    BYTE      day
      01006B4CH   LINE      CODE     ---       #94
      01006B54H   LINE      CODE     ---       #95
      01006B54H   LINE      CODE     ---       #96
      01006B57H   LINE      CODE     ---       #97
      01006B66H   LINE      CODE     ---       #98
      01006B66H   LINE      CODE     ---       #99
      01006B68H   LINE      CODE     ---       #100
      01006B68H   LINE      CODE     ---       #101
      01006B6AH   LINE      CODE     ---       #102
      01006B6AH   LINE      CODE     ---       #103
      01006B6CH   LINE      CODE     ---       #104
      01006B6CH   LINE      CODE     ---       #105
      01006B6EH   LINE      CODE     ---       #106
      01006B6EH   LINE      CODE     ---       #107
      01006B73H   LINE      CODE     ---       #108
      01006B77H   LINE      CODE     ---       #109
      01006B7BH   LINE      CODE     ---       #110
      01006B7BH   LINE      CODE     ---       #111
      01006B7BH   LINE      CODE     ---       #112
      ---         BLOCKEND  ---      ---       LVL=0

      010062DDH   BLOCK     CODE     ---       LVL=0
      02000014H   SYMBOL    XDATA    BYTE      what
LX51 LINKER/LOCATER V4.66.87.0                                                        06/02/2018  22:09:22  PAGE 189


      010062DDH   LINE      CODE     ---       #116
      010062E2H   LINE      CODE     ---       #117
      010062E2H   LINE      CODE     ---       #118
      010062E5H   LINE      CODE     ---       #119
      010062F4H   LINE      CODE     ---       #120
      010062F4H   LINE      CODE     ---       #121
      010062F7H   LINE      CODE     ---       #122
      010062F9H   LINE      CODE     ---       #123
      010062FEH   LINE      CODE     ---       #124
      01006302H   LINE      CODE     ---       #125
      01006302H   LINE      CODE     ---       #126
      01006305H   LINE      CODE     ---       #127
      01006307H   LINE      CODE     ---       #128
      01006307H   LINE      CODE     ---       #129
      0100630AH   LINE      CODE     ---       #130
      0100630CH   LINE      CODE     ---       #131
      01006311H   LINE      CODE     ---       #132
      01006315H   LINE      CODE     ---       #133
      01006315H   LINE      CODE     ---       #134
      0100631CH   LINE      CODE     ---       #135
      0100631EH   LINE      CODE     ---       #136
      0100631EH   LINE      CODE     ---       #137
      01006328H   LINE      CODE     ---       #138
      01006328H   LINE      CODE     ---       #139
      01006328H   LINE      CODE     ---       #140
      ---         BLOCKEND  ---      ---       LVL=0

      0100799DH   BLOCK     CODE     ---       LVL=0
      02000013H   SYMBOL    XDATA    BYTE      day
      0100799DH   LINE      CODE     ---       #142
      010079A2H   LINE      CODE     ---       #143
      010079A2H   LINE      CODE     ---       #144
      010079B0H   LINE      CODE     ---       #145
      010079BAH   LINE      CODE     ---       #146
      ---         BLOCKEND  ---      ---       LVL=0

      01006E83H   BLOCK     CODE     ---       LVL=0
      00000006H   SYMBOL    DATA     BYTE      what
      01006E83H   LINE      CODE     ---       #149
      01006E85H   LINE      CODE     ---       #150
      01006E85H   LINE      CODE     ---       #151
      01006E8CH   LINE      CODE     ---       #152
      01006E8CH   LINE      CODE     ---       #153
      01006E8FH   LINE      CODE     ---       #154
      01006E91H   LINE      CODE     ---       #155
      01006E96H   LINE      CODE     ---       #156
      01006E9AH   LINE      CODE     ---       #157
      01006E9AH   LINE      CODE     ---       #158
      01006E9DH   LINE      CODE     ---       #159
      01006E9FH   LINE      CODE     ---       #160
      01006E9FH   LINE      CODE     ---       #161
      01006EA2H   LINE      CODE     ---       #162
      01006EA4H   LINE      CODE     ---       #163
      01006EA9H   LINE      CODE     ---       #164
      01006EADH   LINE      CODE     ---       #165
      01006EADH   LINE      CODE     ---       #166
      01006EB0H   LINE      CODE     ---       #167
      01006EB0H   LINE      CODE     ---       #168
      01006EB0H   LINE      CODE     ---       #169
      ---         BLOCKEND  ---      ---       LVL=0

      0100880EH   BLOCK     CODE     ---       LVL=0
      02000013H   SYMBOL    XDATA    BYTE      what
      0100880EH   LINE      CODE     ---       #172
      01008813H   LINE      CODE     ---       #173
LX51 LINKER/LOCATER V4.66.87.0                                                        06/02/2018  22:09:22  PAGE 190


      01008813H   LINE      CODE     ---       #174
      01008816H   LINE      CODE     ---       #175
      ---         BLOCKEND  ---      ---       LVL=0

      01007A65H   BLOCK     CODE     ---       LVL=0
      01007A65H   LINE      CODE     ---       #178
      01007A65H   LINE      CODE     ---       #179
      01007A65H   LINE      CODE     ---       #180
      01007A6EH   LINE      CODE     ---       #181
      01007A71H   LINE      CODE     ---       #182
      01007A7FH   LINE      CODE     ---       #183
      ---         BLOCKEND  ---      ---       LVL=0

      010085A6H   BLOCK     CODE     ---       LVL=0
      010085A6H   LINE      CODE     ---       #186
      010085A6H   LINE      CODE     ---       #187
      010085A6H   LINE      CODE     ---       #188
      010085A9H   LINE      CODE     ---       #189
      010085B3H   LINE      CODE     ---       #190
      ---         BLOCKEND  ---      ---       LVL=0

      010088E3H   BLOCK     CODE     ---       LVL=0
      00000007H   SYMBOL    DATA     BYTE      from
      00000005H   SYMBOL    DATA     BYTE      to
      00000006H   SYMBOL    DATA     BYTE      ev
      010088E3H   LINE      CODE     ---       #193
      010088E5H   LINE      CODE     ---       #194
      010088E5H   LINE      CODE     ---       #195
      010088EBH   LINE      CODE     ---       #196
      ---         BLOCKEND  ---      ---       LVL=0

      01005709H   BLOCK     CODE     ---       LVL=0
      02000011H   SYMBOL    XDATA    BYTE      from
      00000005H   SYMBOL    DATA     BYTE      to
      02000012H   SYMBOL    XDATA    BYTE      ev
      01005709H   LINE      CODE     ---       #199
      01005712H   LINE      CODE     ---       #200
      01005712H   LINE      CODE     ---       #201
      01005718H   LINE      CODE     ---       #203
      01005725H   LINE      CODE     ---       #204
      01005725H   LINE      CODE     ---       #205
      0100572BH   LINE      CODE     ---       #207
      0100572BH   LINE      CODE     ---       #210
      01005732H   LINE      CODE     ---       #211
      01005737H   LINE      CODE     ---       #213
      01005737H   LINE      CODE     ---       #216
      0100573EH   LINE      CODE     ---       #217
      01005745H   LINE      CODE     ---       #218
      0100574AH   LINE      CODE     ---       #219
      0100574AH   LINE      CODE     ---       #220
      01005750H   LINE      CODE     ---       #221
      01005757H   LINE      CODE     ---       #223
      01005757H   LINE      CODE     ---       #226
      0100575EH   LINE      CODE     ---       #227
      01005763H   LINE      CODE     ---       #228
      01005768H   LINE      CODE     ---       #230
      01005768H   LINE      CODE     ---       #231
      ---         BLOCKEND  ---      ---       LVL=0

      0100599FH   BLOCK     CODE     ---       LVL=0
      00000007H   SYMBOL    DATA     BYTE      from
      00000005H   SYMBOL    DATA     BYTE      to
      02000011H   SYMBOL    XDATA    BYTE      ev
      0100599FH   LINE      CODE     ---       #233
      010059A5H   LINE      CODE     ---       #234
LX51 LINKER/LOCATER V4.66.87.0                                                        06/02/2018  22:09:22  PAGE 191


      010059A5H   LINE      CODE     ---       #235
      010059AFH   LINE      CODE     ---       #237
      010059B6H   LINE      CODE     ---       #238
      010059BDH   LINE      CODE     ---       #240
      010059BDH   LINE      CODE     ---       #244
      010059C4H   LINE      CODE     ---       #245
      010059C9H   LINE      CODE     ---       #247
      010059C9H   LINE      CODE     ---       #250
      010059D0H   LINE      CODE     ---       #251
      010059D7H   LINE      CODE     ---       #252
      010059DCH   LINE      CODE     ---       #253
      010059DCH   LINE      CODE     ---       #254
      010059E2H   LINE      CODE     ---       #255
      010059E9H   LINE      CODE     ---       #257
      010059E9H   LINE      CODE     ---       #260
      010059F0H   LINE      CODE     ---       #261
      010059F5H   LINE      CODE     ---       #262
      010059FAH   LINE      CODE     ---       #264
      010059FAH   LINE      CODE     ---       #265
      ---         BLOCKEND  ---      ---       LVL=0

      01005D1EH   BLOCK     CODE     ---       LVL=0
      02000011H   SYMBOL    XDATA    BYTE      from
      00000005H   SYMBOL    DATA     BYTE      to
      02000012H   SYMBOL    XDATA    BYTE      ev
      01005D1EH   LINE      CODE     ---       #267
      01005D27H   LINE      CODE     ---       #268
      01005D27H   LINE      CODE     ---       #269
      01005D33H   LINE      CODE     ---       #271
      01005D3DH   LINE      CODE     ---       #272
      01005D43H   LINE      CODE     ---       #273
      01005D46H   LINE      CODE     ---       #275
      01005D46H   LINE      CODE     ---       #277
      01005D4DH   LINE      CODE     ---       #278
      01005D55H   LINE      CODE     ---       #279
      01005D55H   LINE      CODE     ---       #281
      01005D5CH   LINE      CODE     ---       #282
      01005D62H   LINE      CODE     ---       #283
      01005D69H   LINE      CODE     ---       #284
      01005D6EH   LINE      CODE     ---       #285
      01005D6EH   LINE      CODE     ---       #286
      01005D74H   LINE      CODE     ---       #287
      01005D74H   LINE      CODE     ---       #288
      01005D74H   LINE      CODE     ---       #289
      ---         BLOCKEND  ---      ---       LVL=0

      0100737EH   BLOCK     CODE     ---       LVL=0
      00000007H   SYMBOL    DATA     BYTE      from
      00000005H   SYMBOL    DATA     BYTE      to
      02000011H   SYMBOL    XDATA    BYTE      ev
      0100737EH   LINE      CODE     ---       #291
      01007384H   LINE      CODE     ---       #292
      01007384H   LINE      CODE     ---       #293
      01007390H   LINE      CODE     ---       #295
      01007397H   LINE      CODE     ---       #296
      0100739EH   LINE      CODE     ---       #297
      0100739EH   LINE      CODE     ---       #299
      010073A5H   LINE      CODE     ---       #300
      010073A8H   LINE      CODE     ---       #301
      010073A8H   LINE      CODE     ---       #302
      ---         BLOCKEND  ---      ---       LVL=0

      010073A9H   BLOCK     CODE     ---       LVL=0
      00000007H   SYMBOL    DATA     BYTE      from
      00000005H   SYMBOL    DATA     BYTE      to
LX51 LINKER/LOCATER V4.66.87.0                                                        06/02/2018  22:09:22  PAGE 192


      02000011H   SYMBOL    XDATA    BYTE      ev
      010073A9H   LINE      CODE     ---       #304
      010073AFH   LINE      CODE     ---       #305
      010073AFH   LINE      CODE     ---       #306
      010073BBH   LINE      CODE     ---       #308
      010073C2H   LINE      CODE     ---       #309
      010073C9H   LINE      CODE     ---       #310
      010073C9H   LINE      CODE     ---       #312
      010073D0H   LINE      CODE     ---       #313
      010073D3H   LINE      CODE     ---       #314
      010073D3H   LINE      CODE     ---       #315
      ---         BLOCKEND  ---      ---       LVL=0

      ---         MODULE    ---      ---       SM_CLOCK_ALARM
      0100D3F4H   PUBLIC    CONST    ---       sm_clock_alarm_ss_name
      01005004H   PUBLIC    CODE     ---       _sm_clock_alarm
      0100331DH   SYMBOL    CODE     ---       _display_alarm

      01008CB0H   BLOCK     CODE     ---       LVL=0
      ---         BLOCKEND  ---      ---       LVL=0

      0100331DH   BLOCK     CODE     ---       LVL=0
      02000013H   SYMBOL    XDATA    BYTE      what
      01003322H   BLOCK     CODE     NEAR LAB  LVL=1
      02000014H   SYMBOL    XDATA    BYTE      hour
      02000015H   SYMBOL    XDATA    BYTE      min
      00000020H.0 SYMBOL    BIT      BIT       is12
      ---         BLOCKEND  ---      ---       LVL=1
      0100331DH   LINE      CODE     ---       #19
      01003322H   LINE      CODE     ---       #20
      01003322H   LINE      CODE     ---       #23
      01003325H   LINE      CODE     ---       #24
      01003334H   LINE      CODE     ---       #25
      01003334H   LINE      CODE     ---       #26
      01003334H   LINE      CODE     ---       #27
      01003338H   LINE      CODE     ---       #28
      0100333FH   LINE      CODE     ---       #29
      01003341H   LINE      CODE     ---       #30
      01003343H   LINE      CODE     ---       #31
      0100334AH   LINE      CODE     ---       #32
      01003351H   LINE      CODE     ---       #33
      01003351H   LINE      CODE     ---       #34
      01003358H   LINE      CODE     ---       #35
      01003360H   LINE      CODE     ---       #36
      01003368H   LINE      CODE     ---       #37
      0100336DH   LINE      CODE     ---       #38
      0100336FH   LINE      CODE     ---       #39
      01003377H   LINE      CODE     ---       #40
      0100337DH   LINE      CODE     ---       #41
      01003382H   LINE      CODE     ---       #42
      01003382H   LINE      CODE     ---       #43
      01003387H   LINE      CODE     ---       #44
      0100338BH   LINE      CODE     ---       #45
      01003397H   LINE      CODE     ---       #46
      0100339BH   LINE      CODE     ---       #47
      0100339FH   LINE      CODE     ---       #48
      010033ABH   LINE      CODE     ---       #49
      010033B0H   LINE      CODE     ---       #50
      010033B2H   LINE      CODE     ---       #51
      010033B7H   LINE      CODE     ---       #52
      010033B7H   LINE      CODE     ---       #53
      010033C1H   LINE      CODE     ---       #54
      010033C4H   LINE      CODE     ---       #55
      010033C6H   LINE      CODE     ---       #56
      010033CDH   LINE      CODE     ---       #57
LX51 LINKER/LOCATER V4.66.87.0                                                        06/02/2018  22:09:22  PAGE 193


      010033CDH   LINE      CODE     ---       #58
      010033D9H   LINE      CODE     ---       #59
      010033DEH   LINE      CODE     ---       #60
      010033EBH   LINE      CODE     ---       #61
      010033EBH   LINE      CODE     ---       #62
      010033EBH   LINE      CODE     ---       #63
      ---         BLOCKEND  ---      ---       LVL=0

      01005004H   BLOCK     CODE     ---       LVL=0
      00000007H   SYMBOL    DATA     BYTE      from
      02000011H   SYMBOL    XDATA    BYTE      to
      02000012H   SYMBOL    XDATA    BYTE      ev
      01005004H   LINE      CODE     ---       #65
      0100500DH   LINE      CODE     ---       #66
      0100500DH   LINE      CODE     ---       #67
      01005021H   LINE      CODE     ---       #70
      0100502BH   LINE      CODE     ---       #71
      01005030H   LINE      CODE     ---       #72
      01005035H   LINE      CODE     ---       #73
      0100503AH   LINE      CODE     ---       #75
      0100503CH   LINE      CODE     ---       #76
      0100503CH   LINE      CODE     ---       #78
      0100503CH   LINE      CODE     ---       #81
      01005048H   LINE      CODE     ---       #82
      0100504DH   LINE      CODE     ---       #83
      01005052H   LINE      CODE     ---       #84
      01005055H   LINE      CODE     ---       #85
      0100505BH   LINE      CODE     ---       #87
      0100505BH   LINE      CODE     ---       #89
      01005067H   LINE      CODE     ---       #90
      01005072H   LINE      CODE     ---       #91
      01005078H   LINE      CODE     ---       #92
      01005078H   LINE      CODE     ---       #94
      01005078H   LINE      CODE     ---       #95
      ---         BLOCKEND  ---      ---       LVL=0

      ---         MODULE    ---      ---       SM_CLOCK_MOD_TIME
      0100BABFH   PUBLIC    CONST    ---       sm_clock_mod_time_name
      01007D79H   PUBLIC    CODE     ---       _sm_clock_mod_time_submod5
      01007D5DH   PUBLIC    CODE     ---       _sm_clock_mod_time_submod4
      01007D41H   PUBLIC    CODE     ---       _sm_clock_mod_time_submod3
      01007D25H   PUBLIC    CODE     ---       _sm_clock_mod_time_submod2
      01008112H   PUBLIC    CODE     ---       _sm_clock_mod_time_submod1
      01007352H   PUBLIC    CODE     ---       _sm_clock_mod_time_submod0
      01008079H   PUBLIC    CODE     ---       _sm_clock_mod_time_init
      01004709H   SYMBOL    CODE     ---       update_yymmdd
      01003C8FH   SYMBOL    CODE     ---       _sm_clock_mod_time
      010074A7H   SYMBOL    CODE     ---       _enter_hhmmss
      010073D4H   SYMBOL    CODE     ---       _enter_yymmdd
      01005453H   SYMBOL    CODE     ---       _write_only
      0100881EH   SYMBOL    CODE     ---       _inc_and_write
      01004279H   SYMBOL    CODE     ---       _inc_only
      01003A55H   SYMBOL    CODE     ---       update_hhmmss

      01007914H   BLOCK     CODE     ---       LVL=0
      ---         BLOCKEND  ---      ---       LVL=0

      01003A55H   BLOCK     CODE     ---       LVL=0
      01003A55H   BLOCK     CODE     NEAR LAB  LVL=1
      02000017H   SYMBOL    XDATA    BYTE      hour
      02000018H   SYMBOL    XDATA    BYTE      min
      02000019H   SYMBOL    XDATA    BYTE      sec
      ---         BLOCKEND  ---      ---       LVL=1
      01003A55H   LINE      CODE     ---       #21
      01003A55H   LINE      CODE     ---       #22
LX51 LINKER/LOCATER V4.66.87.0                                                        06/02/2018  22:09:22  PAGE 194


      01003A55H   LINE      CODE     ---       #25
      01003A5DH   LINE      CODE     ---       #26
      01003A63H   LINE      CODE     ---       #27
      01003A69H   LINE      CODE     ---       #30
      01003A6EH   LINE      CODE     ---       #31
      01003A72H   LINE      CODE     ---       #32
      01003A76H   LINE      CODE     ---       #33
      01003A7AH   LINE      CODE     ---       #36
      01003A87H   LINE      CODE     ---       #37
      01003A8BH   LINE      CODE     ---       #38
      01003A8FH   LINE      CODE     ---       #39
      01003A9DH   LINE      CODE     ---       #40
      01003AA2H   LINE      CODE     ---       #41
      01003AA4H   LINE      CODE     ---       #42
      01003AA9H   LINE      CODE     ---       #43
      01003AA9H   LINE      CODE     ---       #46
      01003ACAH   LINE      CODE     ---       #48
      01003AD4H   LINE      CODE     ---       #49
      01003AD7H   LINE      CODE     ---       #50
      01003AD9H   LINE      CODE     ---       #51
      01003AE0H   LINE      CODE     ---       #52
      01003AE0H   LINE      CODE     ---       #53
      01003AEBH   LINE      CODE     ---       #54
      01003AF6H   LINE      CODE     ---       #55
      01003B01H   LINE      CODE     ---       #56
      01003B0CH   LINE      CODE     ---       #57
      ---         BLOCKEND  ---      ---       LVL=0

      01004709H   BLOCK     CODE     ---       LVL=0
      01004709H   BLOCK     CODE     NEAR LAB  LVL=1
      02000017H   SYMBOL    XDATA    BYTE      year
      02000018H   SYMBOL    XDATA    BYTE      mon
      02000019H   SYMBOL    XDATA    BYTE      date
      ---         BLOCKEND  ---      ---       LVL=1
      01004709H   LINE      CODE     ---       #60
      01004709H   LINE      CODE     ---       #61
      01004709H   LINE      CODE     ---       #65
      01004711H   LINE      CODE     ---       #66
      01004717H   LINE      CODE     ---       #67
      0100471DH   LINE      CODE     ---       #69
      01004722H   LINE      CODE     ---       #70
      01004727H   LINE      CODE     ---       #72
      01004748H   LINE      CODE     ---       #74
      01004752H   LINE      CODE     ---       #75
      01004755H   LINE      CODE     ---       #76
      01004757H   LINE      CODE     ---       #77
      0100475EH   LINE      CODE     ---       #78
      0100475EH   LINE      CODE     ---       #79
      01004769H   LINE      CODE     ---       #80
      01004774H   LINE      CODE     ---       #81
      0100477FH   LINE      CODE     ---       #82
      0100478AH   LINE      CODE     ---       #83
      ---         BLOCKEND  ---      ---       LVL=0

      01004279H   BLOCK     CODE     ---       LVL=0
      02000016H   SYMBOL    XDATA    BYTE      what
      01004279H   LINE      CODE     ---       #87
      0100427EH   LINE      CODE     ---       #88
      0100427EH   LINE      CODE     ---       #89
      01004291H   LINE      CODE     ---       #90
      01004291H   LINE      CODE     ---       #91
      01004291H   LINE      CODE     ---       #92
      01004294H   LINE      CODE     ---       #93
      01004296H   LINE      CODE     ---       #94
      01004298H   LINE      CODE     ---       #95
LX51 LINKER/LOCATER V4.66.87.0                                                        06/02/2018  22:09:22  PAGE 195


      0100429BH   LINE      CODE     ---       #96
      0100429BH   LINE      CODE     ---       #97
      010042A1H   LINE      CODE     ---       #98
      010042A4H   LINE      CODE     ---       #99
      010042A6H   LINE      CODE     ---       #100
      010042A9H   LINE      CODE     ---       #101
      010042A9H   LINE      CODE     ---       #102
      010042ABH   LINE      CODE     ---       #103
      010042ABH   LINE      CODE     ---       #104
      010042ABH   LINE      CODE     ---       #105
      010042AEH   LINE      CODE     ---       #106
      010042B0H   LINE      CODE     ---       #107
      010042B2H   LINE      CODE     ---       #108
      010042B5H   LINE      CODE     ---       #109
      010042B5H   LINE      CODE     ---       #110
      010042BCH   LINE      CODE     ---       #111
      010042BFH   LINE      CODE     ---       #112
      010042C1H   LINE      CODE     ---       #113
      010042C4H   LINE      CODE     ---       #114
      010042C4H   LINE      CODE     ---       #115
      010042C6H   LINE      CODE     ---       #116
      010042C6H   LINE      CODE     ---       #117
      010042C6H   LINE      CODE     ---       #118
      010042C9H   LINE      CODE     ---       #119
      010042CBH   LINE      CODE     ---       #120
      010042D0H   LINE      CODE     ---       #121
      010042D4H   LINE      CODE     ---       #122
      010042D4H   LINE      CODE     ---       #123
      010042DBH   LINE      CODE     ---       #124
      010042DEH   LINE      CODE     ---       #125
      010042E0H   LINE      CODE     ---       #126
      010042E3H   LINE      CODE     ---       #127
      010042E3H   LINE      CODE     ---       #128
      010042E3H   LINE      CODE     ---       #129
      010042E3H   LINE      CODE     ---       #131
      010042F2H   LINE      CODE     ---       #133
      010042F2H   LINE      CODE     ---       #134
      010042F5H   LINE      CODE     ---       #135
      01004307H   LINE      CODE     ---       #137
      01004307H   LINE      CODE     ---       #138
      0100430AH   LINE      CODE     ---       #139
      0100430AH   LINE      CODE     ---       #140
      ---         BLOCKEND  ---      ---       LVL=0

      01005453H   BLOCK     CODE     ---       LVL=0
      00000007H   SYMBOL    DATA     BYTE      what
      01005453H   LINE      CODE     ---       #142
      01005453H   LINE      CODE     ---       #143
      01005453H   LINE      CODE     ---       #144
      01005467H   LINE      CODE     ---       #145
      01005467H   LINE      CODE     ---       #146
      0100546AH   LINE      CODE     ---       #147
      0100546CH   LINE      CODE     ---       #148
      0100546CH   LINE      CODE     ---       #149
      0100546CH   LINE      CODE     ---       #150
      0100546CH   LINE      CODE     ---       #151
      0100546CH   LINE      CODE     ---       #152
      0100546EH   LINE      CODE     ---       #153
      0100546EH   LINE      CODE     ---       #154
      01005471H   LINE      CODE     ---       #155
      01005476H   LINE      CODE     ---       #156
      01005478H   LINE      CODE     ---       #157
      0100547AH   LINE      CODE     ---       #158
      0100547AH   LINE      CODE     ---       #159
      0100547AH   LINE      CODE     ---       #160
LX51 LINKER/LOCATER V4.66.87.0                                                        06/02/2018  22:09:22  PAGE 196


      0100547CH   LINE      CODE     ---       #161
      0100547CH   LINE      CODE     ---       #162
      0100547FH   LINE      CODE     ---       #163
      01005484H   LINE      CODE     ---       #164
      01005486H   LINE      CODE     ---       #165
      01005488H   LINE      CODE     ---       #166
      01005488H   LINE      CODE     ---       #167
      01005488H   LINE      CODE     ---       #168
      0100548AH   LINE      CODE     ---       #169
      0100548AH   LINE      CODE     ---       #170
      0100548DH   LINE      CODE     ---       #171
      01005492H   LINE      CODE     ---       #172
      01005494H   LINE      CODE     ---       #173
      01005496H   LINE      CODE     ---       #174
      01005496H   LINE      CODE     ---       #175
      01005496H   LINE      CODE     ---       #176
      01005498H   LINE      CODE     ---       #177
      01005498H   LINE      CODE     ---       #178
      0100549BH   LINE      CODE     ---       #179
      010054A0H   LINE      CODE     ---       #180
      010054A2H   LINE      CODE     ---       #181
      010054A4H   LINE      CODE     ---       #182
      010054A4H   LINE      CODE     ---       #183
      010054A4H   LINE      CODE     ---       #184
      010054A6H   LINE      CODE     ---       #185
      010054A6H   LINE      CODE     ---       #186
      010054A9H   LINE      CODE     ---       #187
      010054AEH   LINE      CODE     ---       #188
      010054B0H   LINE      CODE     ---       #189
      010054B5H   LINE      CODE     ---       #190
      010054B9H   LINE      CODE     ---       #191
      010054B9H   LINE      CODE     ---       #192
      010054B9H   LINE      CODE     ---       #193
      010054B9H   LINE      CODE     ---       #195
      ---         BLOCKEND  ---      ---       LVL=0

      0100881EH   BLOCK     CODE     ---       LVL=0
      02000015H   SYMBOL    XDATA    BYTE      what
      0100881EH   LINE      CODE     ---       #197
      01008823H   LINE      CODE     ---       #198
      01008823H   LINE      CODE     ---       #199
      01008826H   LINE      CODE     ---       #200
      ---         BLOCKEND  ---      ---       LVL=0

      010074A7H   BLOCK     CODE     ---       LVL=0
      02000015H   SYMBOL    XDATA    BYTE      what
      010074A7H   LINE      CODE     ---       #204
      010074ACH   LINE      CODE     ---       #205
      010074ACH   LINE      CODE     ---       #206
      010074AFH   LINE      CODE     ---       #207
      010074BDH   LINE      CODE     ---       #208
      010074BDH   LINE      CODE     ---       #209
      010074BFH   LINE      CODE     ---       #210
      010074BFH   LINE      CODE     ---       #211
      010074C1H   LINE      CODE     ---       #212
      010074C1H   LINE      CODE     ---       #213
      010074C3H   LINE      CODE     ---       #214
      010074C3H   LINE      CODE     ---       #215
      010074C5H   LINE      CODE     ---       #216
      010074C5H   LINE      CODE     ---       #217
      010074CAH   LINE      CODE     ---       #218
      010074CEH   LINE      CODE     ---       #219
      010074CEH   LINE      CODE     ---       #220
      010074CEH   LINE      CODE     ---       #221
      ---         BLOCKEND  ---      ---       LVL=0
LX51 LINKER/LOCATER V4.66.87.0                                                        06/02/2018  22:09:22  PAGE 197



      010073D4H   BLOCK     CODE     ---       LVL=0
      02000015H   SYMBOL    XDATA    BYTE      what
      010073D4H   LINE      CODE     ---       #225
      010073D9H   LINE      CODE     ---       #226
      010073D9H   LINE      CODE     ---       #227
      010073DCH   LINE      CODE     ---       #228
      010073EBH   LINE      CODE     ---       #229
      010073EBH   LINE      CODE     ---       #230
      010073EDH   LINE      CODE     ---       #231
      010073EDH   LINE      CODE     ---       #232
      010073EFH   LINE      CODE     ---       #233
      010073EFH   LINE      CODE     ---       #234
      010073F1H   LINE      CODE     ---       #235
      010073F1H   LINE      CODE     ---       #236
      010073F3H   LINE      CODE     ---       #237
      010073F3H   LINE      CODE     ---       #238
      010073F8H   LINE      CODE     ---       #239
      010073FCH   LINE      CODE     ---       #240
      010073FCH   LINE      CODE     ---       #241
      010073FCH   LINE      CODE     ---       #242
      ---         BLOCKEND  ---      ---       LVL=0

      01008079H   BLOCK     CODE     ---       LVL=0
      00000007H   SYMBOL    DATA     BYTE      from
      00000005H   SYMBOL    DATA     BYTE      to
      00000006H   SYMBOL    DATA     BYTE      ev
      01008079H   LINE      CODE     ---       #245
      0100807BH   LINE      CODE     ---       #246
      0100807BH   LINE      CODE     ---       #247
      01008087H   LINE      CODE     ---       #248
      0100808CH   LINE      CODE     ---       #249
      ---         BLOCKEND  ---      ---       LVL=0

      01003C8FH   BLOCK     CODE     ---       LVL=0
      02000013H   SYMBOL    XDATA    BYTE      what
      02000014H   SYMBOL    XDATA    BYTE      ev
      01003C8FH   LINE      CODE     ---       #252
      01003C97H   LINE      CODE     ---       #253
      01003C97H   LINE      CODE     ---       #255
      01003C9BH   LINE      CODE     ---       #256
      01003CAAH   LINE      CODE     ---       #258
      01003CAAH   LINE      CODE     ---       #259
      01003CADH   LINE      CODE     ---       #260
      01003CC3H   LINE      CODE     ---       #262
      01003CC3H   LINE      CODE     ---       #263
      01003CCBH   LINE      CODE     ---       #264
      01003CCBH   LINE      CODE     ---       #266
      01003CCBH   LINE      CODE     ---       #268
      01003CD2H   LINE      CODE     ---       #269
      01003CDAH   LINE      CODE     ---       #271
      01003CDAH   LINE      CODE     ---       #274
      01003CE1H   LINE      CODE     ---       #275
      01003CE8H   LINE      CODE     ---       #276
      01003CF0H   LINE      CODE     ---       #277
      01003CF0H   LINE      CODE     ---       #278
      01003CF6H   LINE      CODE     ---       #279
      01003CFDH   LINE      CODE     ---       #281
      01003CFDH   LINE      CODE     ---       #284
      01003D04H   LINE      CODE     ---       #285
      01003D0CH   LINE      CODE     ---       #286
      01003D12H   LINE      CODE     ---       #288
      01003D12H   LINE      CODE     ---       #291
      01003D18H   LINE      CODE     ---       #292
      01003D21H   LINE      CODE     ---       #294
LX51 LINKER/LOCATER V4.66.87.0                                                        06/02/2018  22:09:22  PAGE 198


      01003D21H   LINE      CODE     ---       #296
      01003D21H   LINE      CODE     ---       #297
      01003D30H   LINE      CODE     ---       #299
      01003D30H   LINE      CODE     ---       #300
      01003D33H   LINE      CODE     ---       #301
      01003D45H   LINE      CODE     ---       #303
      01003D45H   LINE      CODE     ---       #304
      01003D48H   LINE      CODE     ---       #305
      01003D48H   LINE      CODE     ---       #307
      01003D48H   LINE      CODE     ---       #308
      ---         BLOCKEND  ---      ---       LVL=0

      01007352H   BLOCK     CODE     ---       LVL=0
      02000011H   SYMBOL    XDATA    BYTE      from
      00000005H   SYMBOL    DATA     BYTE      to
      02000012H   SYMBOL    XDATA    BYTE      ev
      01007352H   LINE      CODE     ---       #310
      0100735AH   LINE      CODE     ---       #311
      0100735AH   LINE      CODE     ---       #312
      01007364H   LINE      CODE     ---       #314
      01007371H   LINE      CODE     ---       #315
      01007371H   LINE      CODE     ---       #316
      01007374H   LINE      CODE     ---       #317
      01007374H   LINE      CODE     ---       #319
      ---         BLOCKEND  ---      ---       LVL=0

      01008112H   BLOCK     CODE     ---       LVL=0
      00000007H   SYMBOL    DATA     BYTE      from
      00000005H   SYMBOL    DATA     BYTE      to
      02000011H   SYMBOL    XDATA    BYTE      ev
      01008112H   LINE      CODE     ---       #322
      01008117H   LINE      CODE     ---       #323
      01008117H   LINE      CODE     ---       #324
      01008121H   LINE      CODE     ---       #326
      ---         BLOCKEND  ---      ---       LVL=0

      01007D25H   BLOCK     CODE     ---       LVL=0
      00000007H   SYMBOL    DATA     BYTE      from
      00000005H   SYMBOL    DATA     BYTE      to
      02000011H   SYMBOL    XDATA    BYTE      ev
      01007D25H   LINE      CODE     ---       #329
      01007D2BH   LINE      CODE     ---       #330
      01007D2BH   LINE      CODE     ---       #331
      01007D37H   LINE      CODE     ---       #333
      ---         BLOCKEND  ---      ---       LVL=0

      01007D41H   BLOCK     CODE     ---       LVL=0
      00000007H   SYMBOL    DATA     BYTE      from
      00000005H   SYMBOL    DATA     BYTE      to
      02000011H   SYMBOL    XDATA    BYTE      ev
      01007D41H   LINE      CODE     ---       #336
      01007D47H   LINE      CODE     ---       #337
      01007D47H   LINE      CODE     ---       #338
      01007D53H   LINE      CODE     ---       #340
      ---         BLOCKEND  ---      ---       LVL=0

      01007D5DH   BLOCK     CODE     ---       LVL=0
      00000007H   SYMBOL    DATA     BYTE      from
      00000005H   SYMBOL    DATA     BYTE      to
      02000011H   SYMBOL    XDATA    BYTE      ev
      01007D5DH   LINE      CODE     ---       #343
      01007D63H   LINE      CODE     ---       #344
      01007D63H   LINE      CODE     ---       #345
      01007D6FH   LINE      CODE     ---       #347
      ---         BLOCKEND  ---      ---       LVL=0
LX51 LINKER/LOCATER V4.66.87.0                                                        06/02/2018  22:09:22  PAGE 199



      01007D79H   BLOCK     CODE     ---       LVL=0
      00000007H   SYMBOL    DATA     BYTE      from
      00000005H   SYMBOL    DATA     BYTE      to
      02000011H   SYMBOL    XDATA    BYTE      ev
      01007D79H   LINE      CODE     ---       #350
      01007D7FH   LINE      CODE     ---       #351
      01007D7FH   LINE      CODE     ---       #352
      01007D8BH   LINE      CODE     ---       #354
      ---         BLOCKEND  ---      ---       LVL=0

      ---         MODULE    ---      ---       SM_POWER_PACK_DISPLAY
      0100CF28H   PUBLIC    CONST    ---       sm_power_pack_display_ss_name
      01005F20H   PUBLIC    CODE     ---       _sm_power_pack_display_submod0
      01007FDCH   PUBLIC    CODE     ---       _sm_power_pack_display_init
      01005E77H   SYMBOL    CODE     ---       display_power_volume

      0100898FH   BLOCK     CODE     ---       LVL=0
      ---         BLOCKEND  ---      ---       LVL=0

      01005E77H   BLOCK     CODE     ---       LVL=0
      01005E77H   BLOCK     CODE     NEAR LAB  LVL=1
      02000012H   SYMBOL    XDATA    BYTE      val
      ---         BLOCKEND  ---      ---       LVL=1
      01005E77H   LINE      CODE     ---       #16
      01005E77H   LINE      CODE     ---       #17
      01005E77H   LINE      CODE     ---       #19
      01005E7FH   LINE      CODE     ---       #20
      01005E82H   LINE      CODE     ---       #21
      01005E89H   LINE      CODE     ---       #22
      01005E8FH   LINE      CODE     ---       #23
      01005E96H   LINE      CODE     ---       #24
      01005E9FH   LINE      CODE     ---       #25
      01005EA9H   LINE      CODE     ---       #26
      01005EBCH   LINE      CODE     ---       #27
      ---         BLOCKEND  ---      ---       LVL=0

      01007FDCH   BLOCK     CODE     ---       LVL=0
      00000007H   SYMBOL    DATA     BYTE      from
      00000005H   SYMBOL    DATA     BYTE      to
      00000006H   SYMBOL    DATA     BYTE      ev
      01007FDCH   LINE      CODE     ---       #29
      01007FDEH   LINE      CODE     ---       #30
      01007FDEH   LINE      CODE     ---       #31
      01007FE8H   LINE      CODE     ---       #32
      01007FEDH   LINE      CODE     ---       #33
      01007FF0H   LINE      CODE     ---       #34
      ---         BLOCKEND  ---      ---       LVL=0

      01005F20H   BLOCK     CODE     ---       LVL=0
      00000007H   SYMBOL    DATA     BYTE      from
      00000005H   SYMBOL    DATA     BYTE      to
      02000011H   SYMBOL    XDATA    BYTE      ev
      01005F20H   LINE      CODE     ---       #37
      01005F26H   LINE      CODE     ---       #38
      01005F26H   LINE      CODE     ---       #39
      01005F30H   LINE      CODE     ---       #40
      01005F3DH   LINE      CODE     ---       #41
      01005F42H   LINE      CODE     ---       #42
      01005F45H   LINE      CODE     ---       #44
      01005F45H   LINE      CODE     ---       #46
      01005F52H   LINE      CODE     ---       #47
      01005F55H   LINE      CODE     ---       #48
      01005F5CH   LINE      CODE     ---       #49
      01005F65H   LINE      CODE     ---       #50
LX51 LINKER/LOCATER V4.66.87.0                                                        06/02/2018  22:09:22  PAGE 200


      01005F65H   LINE      CODE     ---       #51
      01005F65H   LINE      CODE     ---       #53
      01005F6CH   LINE      CODE     ---       #54
      01005F6FH   LINE      CODE     ---       #55
      01005F72H   LINE      CODE     ---       #57
      01005F72H   LINE      CODE     ---       #59
      ---         BLOCKEND  ---      ---       LVL=0

      ---         MODULE    ---      ---       SM_POWER_PACK_POWERSAVE
      0100CE95H   PUBLIC    CONST    ---       sm_power_pack_powersave_ss_name
      01007CCFH   PUBLIC    CODE     ---       _sm_power_pack_powersave_submod0
      01008A65H   PUBLIC    CODE     ---       _sm_power_pack_powersave_init

      0100899DH   BLOCK     CODE     ---       LVL=0
      ---         BLOCKEND  ---      ---       LVL=0

      01008A65H   BLOCK     CODE     ---       LVL=0
      00000007H   SYMBOL    DATA     BYTE      from
      00000005H   SYMBOL    DATA     BYTE      to
      00000006H   SYMBOL    DATA     BYTE      ev
      01008A65H   LINE      CODE     ---       #11
      01008A67H   LINE      CODE     ---       #12
      01008A67H   LINE      CODE     ---       #13
      ---         BLOCKEND  ---      ---       LVL=0

      01007CCFH   BLOCK     CODE     ---       LVL=0
      00000007H   SYMBOL    DATA     BYTE      from
      00000005H   SYMBOL    DATA     BYTE      to
      02000011H   SYMBOL    XDATA    BYTE      ev
      01007CCFH   LINE      CODE     ---       #16
      01007CD5H   LINE      CODE     ---       #17
      01007CD5H   LINE      CODE     ---       #18
      01007CDFH   LINE      CODE     ---       #20
      01007CE5H   LINE      CODE     ---       #21
      01007CE8H   LINE      CODE     ---       #22
      01007CEBH   LINE      CODE     ---       #24
      01007CEBH   LINE      CODE     ---       #25
      ---         BLOCKEND  ---      ---       LVL=0

      ---         MODULE    ---      ---       SM_FUSE_TEST
      0100AF74H   PUBLIC    CONST    ---       sm_fuse_test_ss_name
      01007E59H   PUBLIC    CODE     ---       _sm_fuse_test_submod8
      01007E3DH   PUBLIC    CODE     ---       _sm_fuse_test_submod7
      01007E21H   PUBLIC    CODE     ---       _sm_fuse_test_submod6
      01007E05H   PUBLIC    CODE     ---       _sm_fuse_test_submod5
      01007DE9H   PUBLIC    CODE     ---       _sm_fuse_test_submod4
      01007DCDH   PUBLIC    CODE     ---       _sm_fuse_test_submod3
      01007DB1H   PUBLIC    CODE     ---       _sm_fuse_test_submod2
      01007D95H   PUBLIC    CODE     ---       _sm_fuse_test_submod1
      0100232AH   PUBLIC    CODE     ---       _sm_fuse_test_submod0
      010069B2H   PUBLIC    CODE     ---       _sm_fuse_test_init
      01001837H   SYMBOL    CODE     ---       _sm_fuse_test_hg_mpu
      010019FFH   SYMBOL    CODE     ---       _sm_fuse_test_thermo
      0100162BH   SYMBOL    CODE     ---       _display_test
      010059FBH   SYMBOL    CODE     ---       _sm_fuse_set
      01003B17H   SYMBOL    CODE     ---       _update_set
      01005F73H   SYMBOL    CODE     ---       _update_hg_mask
      010079BFH   SYMBOL    CODE     ---       _inc_write
      010044CEH   SYMBOL    CODE     ---       _enter_set
      01005C16H   SYMBOL    CODE     ---       _write_only
      01005769H   SYMBOL    CODE     ---       _inc_only

      01004A3FH   BLOCK     CODE     ---       LVL=0
      ---         BLOCKEND  ---      ---       LVL=0

LX51 LINKER/LOCATER V4.66.87.0                                                        06/02/2018  22:09:22  PAGE 201


      010069B2H   BLOCK     CODE     ---       LVL=0
      00000007H   SYMBOL    DATA     BYTE      from
      00000005H   SYMBOL    DATA     BYTE      to
      02000011H   SYMBOL    XDATA    BYTE      ev
      010069B2H   LINE      CODE     ---       #51
      010069B7H   LINE      CODE     ---       #52
      010069B7H   LINE      CODE     ---       #53
      010069C1H   LINE      CODE     ---       #54
      010069C6H   LINE      CODE     ---       #55
      010069CDH   LINE      CODE     ---       #56
      010069D0H   LINE      CODE     ---       #57
      010069D5H   LINE      CODE     ---       #58
      010069DAH   LINE      CODE     ---       #59
      010069DAH   LINE      CODE     ---       #60
      010069DDH   LINE      CODE     ---       #61
      010069E4H   LINE      CODE     ---       #62
      010069EDH   LINE      CODE     ---       #63
      010069EDH   LINE      CODE     ---       #64
      ---         BLOCKEND  ---      ---       LVL=0

      01005F73H   BLOCK     CODE     ---       LVL=0
      02000015H   SYMBOL    XDATA    BYTE      state
      02000016H   SYMBOL    XDATA    BYTE      mask
      01005F7DH   BLOCK     CODE     NEAR LAB  LVL=1
      00000005H   SYMBOL    DATA     BYTE      val
      ---         BLOCKEND  ---      ---       LVL=1
      01005F73H   LINE      CODE     ---       #66
      01005F7DH   LINE      CODE     ---       #67
      01005F7DH   LINE      CODE     ---       #69
      01005F8BH   LINE      CODE     ---       #70
      01005F96H   LINE      CODE     ---       #71
      01005F9AH   LINE      CODE     ---       #72
      01005F9EH   LINE      CODE     ---       #73
      01005FA2H   LINE      CODE     ---       #74
      01005FA8H   LINE      CODE     ---       #75
      01005FB8H   LINE      CODE     ---       #76
      01005FBBH   LINE      CODE     ---       #77
      ---         BLOCKEND  ---      ---       LVL=0

      0100162BH   BLOCK     CODE     ---       LVL=0
      02000015H   SYMBOL    XDATA    BYTE      what
      02000016H   SYMBOL    XDATA    BYTE      stage
      02000017H   SYMBOL    XDATA    BYTE      val
      02000018H   SYMBOL    XDATA    BYTE      errcode
      01001636H   BLOCK     CODE     NEAR LAB  LVL=1
      00000003H   SYMBOL    DATA     CHAR      tmp
      ---         BLOCKEND  ---      ---       LVL=1
      0100162BH   LINE      CODE     ---       #79
      01001636H   LINE      CODE     ---       #80
      01001636H   LINE      CODE     ---       #82
      01001648H   LINE      CODE     ---       #84
      0100164BH   LINE      CODE     ---       #86
      01001650H   LINE      CODE     ---       #87
      01001654H   LINE      CODE     ---       #89
      0100165BH   LINE      CODE     ---       #90
      01001660H   LINE      CODE     ---       #91
      01001667H   LINE      CODE     ---       #92
      0100166EH   LINE      CODE     ---       #93
      0100166EH   LINE      CODE     ---       #94
      01001674H   LINE      CODE     ---       #95
      01001677H   LINE      CODE     ---       #96
      0100167EH   LINE      CODE     ---       #97
      01001680H   LINE      CODE     ---       #98
      01001689H   LINE      CODE     ---       #99
      0100168CH   LINE      CODE     ---       #100
LX51 LINKER/LOCATER V4.66.87.0                                                        06/02/2018  22:09:22  PAGE 202


      01001693H   LINE      CODE     ---       #101
      0100169AH   LINE      CODE     ---       #102
      0100169AH   LINE      CODE     ---       #104
      010016BBH   LINE      CODE     ---       #105
      010016BBH   LINE      CODE     ---       #106
      010016BBH   LINE      CODE     ---       #107
      010016BBH   LINE      CODE     ---       #108
      010016C2H   LINE      CODE     ---       #109
      010016C9H   LINE      CODE     ---       #110
      010016D2H   LINE      CODE     ---       #111
      010016D2H   LINE      CODE     ---       #112
      010016D2H   LINE      CODE     ---       #113
      010016D2H   LINE      CODE     ---       #114
      010016D2H   LINE      CODE     ---       #115
      010016D2H   LINE      CODE     ---       #116
      010016D2H   LINE      CODE     ---       #117
      010016D2H   LINE      CODE     ---       #118
      010016E5H   LINE      CODE     ---       #119
      010016EDH   LINE      CODE     ---       #120
      010016F3H   LINE      CODE     ---       #121
      010016FCH   LINE      CODE     ---       #122
      010016FFH   LINE      CODE     ---       #123
      01001701H   LINE      CODE     ---       #124
      01001704H   LINE      CODE     ---       #125
      01001704H   LINE      CODE     ---       #126
      0100170BH   LINE      CODE     ---       #127
      0100170BH   LINE      CODE     ---       #128
      0100170EH   LINE      CODE     ---       #129
      0100170EH   LINE      CODE     ---       #130
      0100170EH   LINE      CODE     ---       #131
      01001715H   LINE      CODE     ---       #132
      0100171CH   LINE      CODE     ---       #133
      0100171EH   LINE      CODE     ---       #134
      01001720H   LINE      CODE     ---       #135
      01001727H   LINE      CODE     ---       #136
      01001727H   LINE      CODE     ---       #137
      01001732H   LINE      CODE     ---       #138
      0100173BH   LINE      CODE     ---       #139
      01001744H   LINE      CODE     ---       #140
      01001746H   LINE      CODE     ---       #141
      0100174EH   LINE      CODE     ---       #142
      01001755H   LINE      CODE     ---       #143
      01001759H   LINE      CODE     ---       #144
      01001759H   LINE      CODE     ---       #145
      01001762H   LINE      CODE     ---       #146
      0100176FH   LINE      CODE     ---       #147
      01001772H   LINE      CODE     ---       #148
      01001779H   LINE      CODE     ---       #149
      01001780H   LINE      CODE     ---       #150
      01001782H   LINE      CODE     ---       #151
      01001782H   LINE      CODE     ---       #152
      01001782H   LINE      CODE     ---       #153
      01001785H   LINE      CODE     ---       #154
      01001785H   LINE      CODE     ---       #155
      01001785H   LINE      CODE     ---       #156
      01001789H   LINE      CODE     ---       #157
      01001790H   LINE      CODE     ---       #158
      01001791H   LINE      CODE     ---       #159
      01001793H   LINE      CODE     ---       #160
      0100179AH   LINE      CODE     ---       #161
      010017A1H   LINE      CODE     ---       #162
      010017A1H   LINE      CODE     ---       #163
      010017AAH   LINE      CODE     ---       #164
      010017B1H   LINE      CODE     ---       #165
      010017B4H   LINE      CODE     ---       #166
LX51 LINKER/LOCATER V4.66.87.0                                                        06/02/2018  22:09:22  PAGE 203


      010017B9H   LINE      CODE     ---       #167
      010017BEH   LINE      CODE     ---       #168
      010017C3H   LINE      CODE     ---       #169
      010017C7H   LINE      CODE     ---       #170
      010017CBH   LINE      CODE     ---       #171
      010017D0H   LINE      CODE     ---       #172
      010017D2H   LINE      CODE     ---       #173
      010017D5H   LINE      CODE     ---       #175
      010017E2H   LINE      CODE     ---       #176
      010017E5H   LINE      CODE     ---       #177
      010017E7H   LINE      CODE     ---       #178
      010017F6H   LINE      CODE     ---       #179
      010017F6H   LINE      CODE     ---       #180
      01001802H   LINE      CODE     ---       #181
      01001805H   LINE      CODE     ---       #182
      01001807H   LINE      CODE     ---       #183
      01001815H   LINE      CODE     ---       #184
      01001815H   LINE      CODE     ---       #185
      01001815H   LINE      CODE     ---       #186
      01001815H   LINE      CODE     ---       #187
      01001815H   LINE      CODE     ---       #188
      ---         BLOCKEND  ---      ---       LVL=0

      01003B17H   BLOCK     CODE     ---       LVL=0
      00000007H   SYMBOL    DATA     BYTE      what
      01003B17H   BLOCK     CODE     NEAR LAB  LVL=1
      00000004H   SYMBOL    DATA     CHAR      val
      ---         BLOCKEND  ---      ---       LVL=1
      01003B17H   LINE      CODE     ---       #190
      01003B17H   LINE      CODE     ---       #191
      01003B17H   LINE      CODE     ---       #194
      01003B29H   LINE      CODE     ---       #195
      01003B29H   LINE      CODE     ---       #196
      01003B29H   LINE      CODE     ---       #197
      01003B2EH   LINE      CODE     ---       #198
      01003B31H   LINE      CODE     ---       #199
      01003B31H   LINE      CODE     ---       #200
      01003B34H   LINE      CODE     ---       #201
      01003B34H   LINE      CODE     ---       #202
      01003B36H   LINE      CODE     ---       #203
      01003B3EH   LINE      CODE     ---       #204
      01003B45H   LINE      CODE     ---       #205
      01003B49H   LINE      CODE     ---       #206
      01003B4BH   LINE      CODE     ---       #207
      01003B4EH   LINE      CODE     ---       #208
      01003B4EH   LINE      CODE     ---       #209
      01003B5AH   LINE      CODE     ---       #210
      01003B65H   LINE      CODE     ---       #211
      01003B65H   LINE      CODE     ---       #212
      01003B67H   LINE      CODE     ---       #213
      01003B67H   LINE      CODE     ---       #214
      01003B6DH   LINE      CODE     ---       #215
      01003B70H   LINE      CODE     ---       #216
      01003B77H   LINE      CODE     ---       #217
      01003B78H   LINE      CODE     ---       #218
      01003B7AH   LINE      CODE     ---       #219
      01003B7AH   LINE      CODE     ---       #220
      01003B7DH   LINE      CODE     ---       #221
      01003B7DH   LINE      CODE     ---       #222
      01003B7DH   LINE      CODE     ---       #223
      01003B7FH   LINE      CODE     ---       #224
      01003B7FH   LINE      CODE     ---       #225
      01003B86H   LINE      CODE     ---       #226
      01003B8DH   LINE      CODE     ---       #227
      01003B94H   LINE      CODE     ---       #228
LX51 LINKER/LOCATER V4.66.87.0                                                        06/02/2018  22:09:22  PAGE 204


      01003B94H   LINE      CODE     ---       #229
      01003B96H   LINE      CODE     ---       #230
      01003B9AH   LINE      CODE     ---       #231
      01003BA2H   LINE      CODE     ---       #232
      01003BAFH   LINE      CODE     ---       #233
      01003BAFH   LINE      CODE     ---       #234
      01003BAFH   LINE      CODE     ---       #235
      01003BAFH   LINE      CODE     ---       #236
      ---         BLOCKEND  ---      ---       LVL=0

      010044CEH   BLOCK     CODE     ---       LVL=0
      02000014H   SYMBOL    XDATA    BYTE      what
      010044CEH   LINE      CODE     ---       #239
      010044D3H   LINE      CODE     ---       #240
      010044D3H   LINE      CODE     ---       #241
      010044DDH   LINE      CODE     ---       #242
      010044E0H   LINE      CODE     ---       #243
      010044E5H   LINE      CODE     ---       #244
      010044E9H   LINE      CODE     ---       #245
      010044EDH   LINE      CODE     ---       #246
      010044F1H   LINE      CODE     ---       #247
      010044F5H   LINE      CODE     ---       #248
      01004507H   LINE      CODE     ---       #249
      01004507H   LINE      CODE     ---       #250
      01004507H   LINE      CODE     ---       #251
      0100450EH   LINE      CODE     ---       #252
      01004515H   LINE      CODE     ---       #253
      01004517H   LINE      CODE     ---       #254
      01004519H   LINE      CODE     ---       #255
      01004520H   LINE      CODE     ---       #256
      01004520H   LINE      CODE     ---       #257
      0100452BH   LINE      CODE     ---       #259
      0100452DH   LINE      CODE     ---       #260
      0100452DH   LINE      CODE     ---       #261
      01004534H   LINE      CODE     ---       #262
      0100453AH   LINE      CODE     ---       #263
      0100453CH   LINE      CODE     ---       #264
      0100453EH   LINE      CODE     ---       #265
      0100453EH   LINE      CODE     ---       #266
      01004545H   LINE      CODE     ---       #267
      0100454CH   LINE      CODE     ---       #268
      01004556H   LINE      CODE     ---       #269
      01004556H   LINE      CODE     ---       #270
      01004556H   LINE      CODE     ---       #271
      ---         BLOCKEND  ---      ---       LVL=0

      01005769H   BLOCK     CODE     ---       LVL=0
      02000015H   SYMBOL    XDATA    BYTE      what
      01005769H   LINE      CODE     ---       #274
      0100576EH   LINE      CODE     ---       #275
      0100576EH   LINE      CODE     ---       #277
      01005778H   LINE      CODE     ---       #279
      0100577BH   LINE      CODE     ---       #280
      0100577DH   LINE      CODE     ---       #281
      01005782H   LINE      CODE     ---       #282
      01005786H   LINE      CODE     ---       #283
      0100578AH   LINE      CODE     ---       #284
      0100578AH   LINE      CODE     ---       #286
      0100579CH   LINE      CODE     ---       #287
      0100579CH   LINE      CODE     ---       #288
      0100579CH   LINE      CODE     ---       #289
      010057A4H   LINE      CODE     ---       #290
      010057A6H   LINE      CODE     ---       #291
      010057A6H   LINE      CODE     ---       #292
      010057B5H   LINE      CODE     ---       #293
LX51 LINKER/LOCATER V4.66.87.0                                                        06/02/2018  22:09:22  PAGE 205


      010057B7H   LINE      CODE     ---       #294
      010057B7H   LINE      CODE     ---       #295
      010057C1H   LINE      CODE     ---       #296
      010057C1H   LINE      CODE     ---       #297
      010057C1H   LINE      CODE     ---       #298
      ---         BLOCKEND  ---      ---       LVL=0

      01005C16H   BLOCK     CODE     ---       LVL=0
      02000015H   SYMBOL    XDATA    BYTE      what
      01005C16H   LINE      CODE     ---       #301
      01005C1BH   LINE      CODE     ---       #302
      01005C1BH   LINE      CODE     ---       #303
      01005C25H   LINE      CODE     ---       #305
      01005C28H   LINE      CODE     ---       #306
      01005C2AH   LINE      CODE     ---       #307
      01005C2FH   LINE      CODE     ---       #308
      01005C33H   LINE      CODE     ---       #309
      01005C37H   LINE      CODE     ---       #310
      01005C37H   LINE      CODE     ---       #312
      01005C49H   LINE      CODE     ---       #313
      01005C49H   LINE      CODE     ---       #314
      01005C50H   LINE      CODE     ---       #315
      01005C52H   LINE      CODE     ---       #316
      01005C52H   LINE      CODE     ---       #317
      01005C59H   LINE      CODE     ---       #318
      01005C5BH   LINE      CODE     ---       #319
      01005C5BH   LINE      CODE     ---       #320
      01005C62H   LINE      CODE     ---       #321
      01005C64H   LINE      CODE     ---       #322
      01005C64H   LINE      CODE     ---       #323
      01005C6EH   LINE      CODE     ---       #324
      01005C6EH   LINE      CODE     ---       #325
      01005C6EH   LINE      CODE     ---       #326
      ---         BLOCKEND  ---      ---       LVL=0

      010079BFH   BLOCK     CODE     ---       LVL=0
      02000014H   SYMBOL    XDATA    BYTE      what
      010079BFH   LINE      CODE     ---       #328
      010079C4H   LINE      CODE     ---       #329
      010079C4H   LINE      CODE     ---       #330
      010079D1H   LINE      CODE     ---       #331
      010079D9H   LINE      CODE     ---       #332
      ---         BLOCKEND  ---      ---       LVL=0

      010019FFH   BLOCK     CODE     ---       LVL=0
      02000012H   SYMBOL    XDATA    BYTE      what
      02000013H   SYMBOL    XDATA    BYTE      ev
      01001A07H   BLOCK     CODE     NEAR LAB  LVL=1
      02000014H   SYMBOL    XDATA    BYTE      val
      ---         BLOCKEND  ---      ---       LVL=1
      010019FFH   LINE      CODE     ---       #335
      01001A07H   LINE      CODE     ---       #336
      01001A07H   LINE      CODE     ---       #338
      01001A0BH   LINE      CODE     ---       #340
      01001A0BH   LINE      CODE     ---       #341
      01001A0EH   LINE      CODE     ---       #342
      01001A13H   LINE      CODE     ---       #343
      01001A2AH   LINE      CODE     ---       #347
      01001A2AH   LINE      CODE     ---       #349
      01001A38H   LINE      CODE     ---       #351
      01001A3FH   LINE      CODE     ---       #352
      01001A43H   LINE      CODE     ---       #354
      01001A4DH   LINE      CODE     ---       #355
      01001A5EH   LINE      CODE     ---       #356
      01001A66H   LINE      CODE     ---       #358
LX51 LINKER/LOCATER V4.66.87.0                                                        06/02/2018  22:09:22  PAGE 206


      01001A68H   LINE      CODE     ---       #359
      01001A6BH   LINE      CODE     ---       #360
      01001A70H   LINE      CODE     ---       #361
      01001A83H   LINE      CODE     ---       #364
      01001A86H   LINE      CODE     ---       #366
      01001A9CH   LINE      CODE     ---       #369
      01001A9FH   LINE      CODE     ---       #371
      01001A9FH   LINE      CODE     ---       #373
      01001AADH   LINE      CODE     ---       #374
      01001AB2H   LINE      CODE     ---       #376
      01001AC8H   LINE      CODE     ---       #379
      01001AC8H   LINE      CODE     ---       #380
      01001AC8H   LINE      CODE     ---       #381
      01001AD2H   LINE      CODE     ---       #383
      01001AF0H   LINE      CODE     ---       #386
      01001AF0H   LINE      CODE     ---       #387
      01001AF0H   LINE      CODE     ---       #388
      01001AF3H   LINE      CODE     ---       #390
      01001AF3H   LINE      CODE     ---       #392
      01001AFEH   LINE      CODE     ---       #393
      01001B03H   LINE      CODE     ---       #394
      01001B0EH   LINE      CODE     ---       #395
      01001B10H   LINE      CODE     ---       #396
      01001B13H   LINE      CODE     ---       #397
      01001B31H   LINE      CODE     ---       #400
      01001B31H   LINE      CODE     ---       #401
      01001B38H   LINE      CODE     ---       #402
      01001B40H   LINE      CODE     ---       #403
      01001B45H   LINE      CODE     ---       #404
      01001B48H   LINE      CODE     ---       #405
      01001B55H   LINE      CODE     ---       #406
      01001B57H   LINE      CODE     ---       #407
      01001B64H   LINE      CODE     ---       #408
      01001B64H   LINE      CODE     ---       #409
      01001B64H   LINE      CODE     ---       #410
      01001B64H   LINE      CODE     ---       #411
      01001B6EH   LINE      CODE     ---       #412
      01001B73H   LINE      CODE     ---       #413
      01001B76H   LINE      CODE     ---       #414
      01001B86H   LINE      CODE     ---       #415
      01001B86H   LINE      CODE     ---       #416
      01001B96H   LINE      CODE     ---       #417
      01001B9BH   LINE      CODE     ---       #418
      01001BA0H   LINE      CODE     ---       #419
      01001BA0H   LINE      CODE     ---       #420
      01001BA0H   LINE      CODE     ---       #421
      01001BA0H   LINE      CODE     ---       #423
      01001BA0H   LINE      CODE     ---       #424
      ---         BLOCKEND  ---      ---       LVL=0

      010059FBH   BLOCK     CODE     ---       LVL=0
      02000012H   SYMBOL    XDATA    BYTE      what
      02000013H   SYMBOL    XDATA    BYTE      ev
      010059FBH   LINE      CODE     ---       #426
      01005A03H   LINE      CODE     ---       #427
      01005A03H   LINE      CODE     ---       #428
      01005A06H   LINE      CODE     ---       #429
      01005A0EH   LINE      CODE     ---       #430
      01005A10H   LINE      CODE     ---       #432
      01005A10H   LINE      CODE     ---       #434
      01005A17H   LINE      CODE     ---       #435
      01005A1FH   LINE      CODE     ---       #437
      01005A1FH   LINE      CODE     ---       #439
      01005A26H   LINE      CODE     ---       #440
      01005A2DH   LINE      CODE     ---       #441
LX51 LINKER/LOCATER V4.66.87.0                                                        06/02/2018  22:09:22  PAGE 207


      01005A35H   LINE      CODE     ---       #442
      01005A35H   LINE      CODE     ---       #443
      01005A3BH   LINE      CODE     ---       #444
      01005A42H   LINE      CODE     ---       #446
      01005A42H   LINE      CODE     ---       #448
      01005A49H   LINE      CODE     ---       #449
      01005A51H   LINE      CODE     ---       #450
      01005A56H   LINE      CODE     ---       #452
      01005A56H   LINE      CODE     ---       #453
      ---         BLOCKEND  ---      ---       LVL=0

      0100232AH   BLOCK     CODE     ---       LVL=0
      00000007H   SYMBOL    DATA     BYTE      from
      00000005H   SYMBOL    DATA     BYTE      to
      02000011H   SYMBOL    XDATA    BYTE      ev
      0100232AH   LINE      CODE     ---       #461
      01002330H   LINE      CODE     ---       #462
      01002330H   LINE      CODE     ---       #463
      0100233CH   LINE      CODE     ---       #465
      01002349H   LINE      CODE     ---       #467
      01002349H   LINE      CODE     ---       #468
      0100234CH   LINE      CODE     ---       #469
      0100234EH   LINE      CODE     ---       #470
      01002350H   LINE      CODE     ---       #472
      01002350H   LINE      CODE     ---       #474
      0100235EH   LINE      CODE     ---       #476
      01002360H   LINE      CODE     ---       #477
      01002368H   LINE      CODE     ---       #478
      0100236DH   LINE      CODE     ---       #479
      01002370H   LINE      CODE     ---       #481
      01002370H   LINE      CODE     ---       #483
      01002378H   LINE      CODE     ---       #485
      0100237DH   LINE      CODE     ---       #487
      01002380H   LINE      CODE     ---       #488
      01002387H   LINE      CODE     ---       #489
      0100238BH   LINE      CODE     ---       #490
      0100238EH   LINE      CODE     ---       #491
      0100238EH   LINE      CODE     ---       #492
      01002391H   LINE      CODE     ---       #494
      01002396H   LINE      CODE     ---       #495
      01002396H   LINE      CODE     ---       #496
      01002396H   LINE      CODE     ---       #497
      01002399H   LINE      CODE     ---       #499
      01002399H   LINE      CODE     ---       #501
      010023A1H   LINE      CODE     ---       #503
      010023A9H   LINE      CODE     ---       #505
      010023ACH   LINE      CODE     ---       #506
      010023B3H   LINE      CODE     ---       #507
      010023B8H   LINE      CODE     ---       #508
      010023C0H   LINE      CODE     ---       #509
      010023CAH   LINE      CODE     ---       #510
      010023CCH   LINE      CODE     ---       #512
      010023D1H   LINE      CODE     ---       #513
      010023D1H   LINE      CODE     ---       #514
      010023D1H   LINE      CODE     ---       #515
      010023D4H   LINE      CODE     ---       #517
      010023D4H   LINE      CODE     ---       #519
      010023DCH   LINE      CODE     ---       #521
      010023E3H   LINE      CODE     ---       #524
      010023E3H   LINE      CODE     ---       #525
      010023E6H   LINE      CODE     ---       #526
      010023EEH   LINE      CODE     ---       #527
      010023F0H   LINE      CODE     ---       #529
      010023F5H   LINE      CODE     ---       #530
      010023F5H   LINE      CODE     ---       #531
LX51 LINKER/LOCATER V4.66.87.0                                                        06/02/2018  22:09:22  PAGE 208


      010023F5H   LINE      CODE     ---       #532
      010023F7H   LINE      CODE     ---       #534
      010023F7H   LINE      CODE     ---       #536
      010023FFH   LINE      CODE     ---       #538
      01002404H   LINE      CODE     ---       #539
      0100240CH   LINE      CODE     ---       #540
      01002412H   LINE      CODE     ---       #541
      01002416H   LINE      CODE     ---       #542
      01002419H   LINE      CODE     ---       #543
      01002426H   LINE      CODE     ---       #544
      01002426H   LINE      CODE     ---       #545
      0100242BH   LINE      CODE     ---       #546
      01002433H   LINE      CODE     ---       #548
      0100243DH   LINE      CODE     ---       #549
      0100243DH   LINE      CODE     ---       #550
      0100243DH   LINE      CODE     ---       #551
      0100243DH   LINE      CODE     ---       #552
      01002447H   LINE      CODE     ---       #553
      0100244FH   LINE      CODE     ---       #555
      01002459H   LINE      CODE     ---       #556
      01002459H   LINE      CODE     ---       #557
      01002459H   LINE      CODE     ---       #558
      01002459H   LINE      CODE     ---       #559
      01002463H   LINE      CODE     ---       #560
      0100246BH   LINE      CODE     ---       #562
      01002478H   LINE      CODE     ---       #563
      01002478H   LINE      CODE     ---       #564
      0100247BH   LINE      CODE     ---       #565
      0100247BH   LINE      CODE     ---       #566
      0100247BH   LINE      CODE     ---       #568
      0100247BH   LINE      CODE     ---       #569
      ---         BLOCKEND  ---      ---       LVL=0

      01007D95H   BLOCK     CODE     ---       LVL=0
      00000007H   SYMBOL    DATA     BYTE      from
      00000005H   SYMBOL    DATA     BYTE      to
      02000011H   SYMBOL    XDATA    BYTE      ev
      01007D95H   LINE      CODE     ---       #571
      01007D9BH   LINE      CODE     ---       #572
      01007D9BH   LINE      CODE     ---       #573
      01007DA7H   LINE      CODE     ---       #574
      ---         BLOCKEND  ---      ---       LVL=0

      01007DB1H   BLOCK     CODE     ---       LVL=0
      00000007H   SYMBOL    DATA     BYTE      from
      00000005H   SYMBOL    DATA     BYTE      to
      02000011H   SYMBOL    XDATA    BYTE      ev
      01007DB1H   LINE      CODE     ---       #582
      01007DB7H   LINE      CODE     ---       #583
      01007DB7H   LINE      CODE     ---       #584
      01007DC3H   LINE      CODE     ---       #585
      ---         BLOCKEND  ---      ---       LVL=0

      01007DCDH   BLOCK     CODE     ---       LVL=0
      00000007H   SYMBOL    DATA     BYTE      from
      00000005H   SYMBOL    DATA     BYTE      to
      02000011H   SYMBOL    XDATA    BYTE      ev
      01007DCDH   LINE      CODE     ---       #588
      01007DD3H   LINE      CODE     ---       #589
      01007DD3H   LINE      CODE     ---       #590
      01007DDFH   LINE      CODE     ---       #591
      ---         BLOCKEND  ---      ---       LVL=0

      01007DE9H   BLOCK     CODE     ---       LVL=0
      00000007H   SYMBOL    DATA     BYTE      from
LX51 LINKER/LOCATER V4.66.87.0                                                        06/02/2018  22:09:22  PAGE 209


      00000005H   SYMBOL    DATA     BYTE      to
      02000011H   SYMBOL    XDATA    BYTE      ev
      01007DE9H   LINE      CODE     ---       #594
      01007DEFH   LINE      CODE     ---       #595
      01007DEFH   LINE      CODE     ---       #596
      01007DFBH   LINE      CODE     ---       #597
      ---         BLOCKEND  ---      ---       LVL=0

      01007E05H   BLOCK     CODE     ---       LVL=0
      00000007H   SYMBOL    DATA     BYTE      from
      00000005H   SYMBOL    DATA     BYTE      to
      02000011H   SYMBOL    XDATA    BYTE      ev
      01007E05H   LINE      CODE     ---       #600
      01007E0BH   LINE      CODE     ---       #601
      01007E0BH   LINE      CODE     ---       #602
      01007E17H   LINE      CODE     ---       #603
      ---         BLOCKEND  ---      ---       LVL=0

      01001837H   BLOCK     CODE     ---       LVL=0
      02000012H   SYMBOL    XDATA    BYTE      what
      02000013H   SYMBOL    XDATA    BYTE      ev
      0100183FH   BLOCK     CODE     NEAR LAB  LVL=1
      02000014H   SYMBOL    XDATA    BYTE      val
      ---         BLOCKEND  ---      ---       LVL=1
      01001837H   LINE      CODE     ---       #606
      0100183FH   LINE      CODE     ---       #607
      0100183FH   LINE      CODE     ---       #610
      01001843H   LINE      CODE     ---       #612
      01001847H   LINE      CODE     ---       #613
      0100184BH   LINE      CODE     ---       #614
      0100184FH   LINE      CODE     ---       #615
      01001856H   LINE      CODE     ---       #616
      0100185BH   LINE      CODE     ---       #617
      0100185DH   LINE      CODE     ---       #618
      01001862H   LINE      CODE     ---       #619
      01001862H   LINE      CODE     ---       #620
      01001869H   LINE      CODE     ---       #622
      01001869H   LINE      CODE     ---       #624
      01001877H   LINE      CODE     ---       #625
      0100188CH   LINE      CODE     ---       #626
      0100189CH   LINE      CODE     ---       #628
      0100189DH   LINE      CODE     ---       #629
      010018A0H   LINE      CODE     ---       #630
      010018A5H   LINE      CODE     ---       #631
      010018A8H   LINE      CODE     ---       #632
      010018B0H   LINE      CODE     ---       #633
      010018C2H   LINE      CODE     ---       #634
      010018C4H   LINE      CODE     ---       #635
      010018C7H   LINE      CODE     ---       #636
      010018CCH   LINE      CODE     ---       #637
      010018CFH   LINE      CODE     ---       #638
      010018D7H   LINE      CODE     ---       #639
      010018DAH   LINE      CODE     ---       #641
      010018E8H   LINE      CODE     ---       #642
      010018EBH   LINE      CODE     ---       #644
      010018EBH   LINE      CODE     ---       #646
      010018F3H   LINE      CODE     ---       #647
      010018F8H   LINE      CODE     ---       #648
      01001903H   LINE      CODE     ---       #649
      0100190EH   LINE      CODE     ---       #650
      0100191CH   LINE      CODE     ---       #652
      0100191FH   LINE      CODE     ---       #653
      0100191FH   LINE      CODE     ---       #654
      0100191FH   LINE      CODE     ---       #655
      0100191FH   LINE      CODE     ---       #656
LX51 LINKER/LOCATER V4.66.87.0                                                        06/02/2018  22:09:22  PAGE 210


      0100192DH   LINE      CODE     ---       #658
      01001935H   LINE      CODE     ---       #659
      01001938H   LINE      CODE     ---       #660
      01001938H   LINE      CODE     ---       #661
      0100193BH   LINE      CODE     ---       #663
      0100193BH   LINE      CODE     ---       #665
      01001943H   LINE      CODE     ---       #666
      0100194BH   LINE      CODE     ---       #668
      0100194EH   LINE      CODE     ---       #669
      0100194EH   LINE      CODE     ---       #670
      0100194EH   LINE      CODE     ---       #671
      0100195CH   LINE      CODE     ---       #673
      01001964H   LINE      CODE     ---       #674
      01001967H   LINE      CODE     ---       #675
      01001967H   LINE      CODE     ---       #676
      01001969H   LINE      CODE     ---       #678
      01001969H   LINE      CODE     ---       #680
      01001971H   LINE      CODE     ---       #681
      01001976H   LINE      CODE     ---       #682
      0100197EH   LINE      CODE     ---       #684
      01001984H   LINE      CODE     ---       #685
      0100198CH   LINE      CODE     ---       #686
      01001993H   LINE      CODE     ---       #687
      01001997H   LINE      CODE     ---       #688
      01001999H   LINE      CODE     ---       #689
      010019A1H   LINE      CODE     ---       #690
      010019A1H   LINE      CODE     ---       #691
      010019AAH   LINE      CODE     ---       #692
      010019AAH   LINE      CODE     ---       #693
      010019AFH   LINE      CODE     ---       #694
      010019BFH   LINE      CODE     ---       #696
      010019C8H   LINE      CODE     ---       #697
      010019CDH   LINE      CODE     ---       #698
      010019D4H   LINE      CODE     ---       #699
      010019D9H   LINE      CODE     ---       #700
      010019D9H   LINE      CODE     ---       #701
      010019DEH   LINE      CODE     ---       #702
      010019DEH   LINE      CODE     ---       #703
      010019DEH   LINE      CODE     ---       #704
      010019DEH   LINE      CODE     ---       #706
      010019DEH   LINE      CODE     ---       #707
      ---         BLOCKEND  ---      ---       LVL=0

      01007E21H   BLOCK     CODE     ---       LVL=0
      00000007H   SYMBOL    DATA     BYTE      from
      00000005H   SYMBOL    DATA     BYTE      to
      02000011H   SYMBOL    XDATA    BYTE      ev
      01007E21H   LINE      CODE     ---       #713
      01007E27H   LINE      CODE     ---       #714
      01007E27H   LINE      CODE     ---       #715
      01007E33H   LINE      CODE     ---       #716
      ---         BLOCKEND  ---      ---       LVL=0

      01007E3DH   BLOCK     CODE     ---       LVL=0
      00000007H   SYMBOL    DATA     BYTE      from
      00000005H   SYMBOL    DATA     BYTE      to
      02000011H   SYMBOL    XDATA    BYTE      ev
      01007E3DH   LINE      CODE     ---       #719
      01007E43H   LINE      CODE     ---       #720
      01007E43H   LINE      CODE     ---       #721
      01007E4FH   LINE      CODE     ---       #722
      ---         BLOCKEND  ---      ---       LVL=0

      01007E59H   BLOCK     CODE     ---       LVL=0
      00000007H   SYMBOL    DATA     BYTE      from
LX51 LINKER/LOCATER V4.66.87.0                                                        06/02/2018  22:09:22  PAGE 211


      00000005H   SYMBOL    DATA     BYTE      to
      02000011H   SYMBOL    XDATA    BYTE      ev
      01007E59H   LINE      CODE     ---       #726
      01007E5FH   LINE      CODE     ---       #727
      01007E5FH   LINE      CODE     ---       #728
      01007E6BH   LINE      CODE     ---       #729
      ---         BLOCKEND  ---      ---       LVL=0

      ---         MODULE    ---      ---       SM_FUSE_PARAM
      0100BCB2H   PUBLIC    CONST    ---       sm_fuse_param_ss_name
      0100455EH   PUBLIC    CODE     ---       _sm_fuse_param_submod6
      01007EE5H   PUBLIC    CODE     ---       _sm_fuse_param_submod5
      01007EC9H   PUBLIC    CODE     ---       _sm_fuse_param_submod4
      01007EADH   PUBLIC    CODE     ---       _sm_fuse_param_submod3
      01007E91H   PUBLIC    CODE     ---       _sm_fuse_param_submod2
      01007E75H   PUBLIC    CODE     ---       _sm_fuse_param_submod1
      0100644EH   PUBLIC    CODE     ---       _sm_fuse_param_submod0
      01007864H   PUBLIC    CODE     ---       _sm_fuse_param_init
      01001EDAH   SYMBOL    CODE     ---       _update_time
      0100537EH   SYMBOL    CODE     ---       _sm_fuse_param_set_time
      01006CA1H   SYMBOL    CODE     ---       _enter_time
      01004CB8H   SYMBOL    CODE     ---       _write_only
      01008B78H   SYMBOL    CODE     ---       _inc_and_write
      01006BBFH   SYMBOL    CODE     ---       _update_password
      01004E9FH   SYMBOL    CODE     ---       _inc_only
      01008093H   SYMBOL    CODE     ---       _enter_password

      010082EDH   BLOCK     CODE     ---       LVL=0
      ---         BLOCKEND  ---      ---       LVL=0

      01004E9FH   BLOCK     CODE     ---       LVL=0
      00000006H   SYMBOL    DATA     BYTE      what
      01004E9FH   LINE      CODE     ---       #26
      01004EA1H   LINE      CODE     ---       #27
      01004EA1H   LINE      CODE     ---       #29
      01004EADH   LINE      CODE     ---       #30
      01004EBBH   LINE      CODE     ---       #32
      01004EBBH   LINE      CODE     ---       #34
      01004ECFH   LINE      CODE     ---       #35
      01004ECFH   LINE      CODE     ---       #36
      01004ECFH   LINE      CODE     ---       #37
      01004ED2H   LINE      CODE     ---       #38
      01004ED4H   LINE      CODE     ---       #39
      01004ED6H   LINE      CODE     ---       #40
      01004ED9H   LINE      CODE     ---       #41
      01004ED9H   LINE      CODE     ---       #42
      01004EDCH   LINE      CODE     ---       #43
      01004EDFH   LINE      CODE     ---       #44
      01004EDFH   LINE      CODE     ---       #45
      01004EE2H   LINE      CODE     ---       #46
      01004EE2H   LINE      CODE     ---       #47
      01004EE2H   LINE      CODE     ---       #48
      01004EE2H   LINE      CODE     ---       #49
      01004EE2H   LINE      CODE     ---       #50
      01004EE5H   LINE      CODE     ---       #51
      01004EE7H   LINE      CODE     ---       #52
      01004EE9H   LINE      CODE     ---       #53
      01004EECH   LINE      CODE     ---       #54
      01004EECH   LINE      CODE     ---       #55
      01004EF0H   LINE      CODE     ---       #56
      01004EF3H   LINE      CODE     ---       #57
      01004EF3H   LINE      CODE     ---       #58
      01004EF6H   LINE      CODE     ---       #59
      01004EF6H   LINE      CODE     ---       #60
      01004EF6H   LINE      CODE     ---       #61
LX51 LINKER/LOCATER V4.66.87.0                                                        06/02/2018  22:09:22  PAGE 212


      01004EF6H   LINE      CODE     ---       #62
      01004EF6H   LINE      CODE     ---       #63
      01004EF9H   LINE      CODE     ---       #64
      01004EFBH   LINE      CODE     ---       #65
      01004F00H   LINE      CODE     ---       #66
      01004F04H   LINE      CODE     ---       #67
      01004F04H   LINE      CODE     ---       #68
      01004F08H   LINE      CODE     ---       #69
      01004F0BH   LINE      CODE     ---       #70
      01004F0BH   LINE      CODE     ---       #71
      01004F0EH   LINE      CODE     ---       #72
      01004F0EH   LINE      CODE     ---       #73
      01004F0EH   LINE      CODE     ---       #74
      01004F0EH   LINE      CODE     ---       #75
      ---         BLOCKEND  ---      ---       LVL=0

      01004CB8H   BLOCK     CODE     ---       LVL=0
      02000015H   SYMBOL    XDATA    BYTE      what
      01004CBDH   BLOCK     CODE     NEAR LAB  LVL=1
      00000007H   SYMBOL    DATA     BYTE      i
      ---         BLOCKEND  ---      ---       LVL=1
      01004CB8H   LINE      CODE     ---       #77
      01004CBDH   LINE      CODE     ---       #78
      01004CBDH   LINE      CODE     ---       #81
      01004CC9H   LINE      CODE     ---       #82
      01004CCCH   LINE      CODE     ---       #83
      01004CD7H   LINE      CODE     ---       #85
      01004CD7H   LINE      CODE     ---       #87
      01004CEEH   LINE      CODE     ---       #88
      01004CEEH   LINE      CODE     ---       #89
      01004CF1H   LINE      CODE     ---       #90
      01004CF3H   LINE      CODE     ---       #91
      01004CF3H   LINE      CODE     ---       #92
      01004CF3H   LINE      CODE     ---       #93
      01004CF3H   LINE      CODE     ---       #94
      01004CF3H   LINE      CODE     ---       #95
      01004CF5H   LINE      CODE     ---       #96
      01004CF5H   LINE      CODE     ---       #97
      01004CF8H   LINE      CODE     ---       #98
      01004CFAH   LINE      CODE     ---       #99
      01004CFAH   LINE      CODE     ---       #100
      01004CFAH   LINE      CODE     ---       #101
      01004CFAH   LINE      CODE     ---       #102
      01004CFAH   LINE      CODE     ---       #103
      01004CFCH   LINE      CODE     ---       #104
      01004CFCH   LINE      CODE     ---       #105
      01004CFFH   LINE      CODE     ---       #106
      01004D01H   LINE      CODE     ---       #107
      01004D01H   LINE      CODE     ---       #108
      01004D01H   LINE      CODE     ---       #109
      01004D01H   LINE      CODE     ---       #110
      01004D01H   LINE      CODE     ---       #111
      01004D03H   LINE      CODE     ---       #112
      01004D03H   LINE      CODE     ---       #113
      01004D06H   LINE      CODE     ---       #114
      01004D0BH   LINE      CODE     ---       #115
      01004D0DH   LINE      CODE     ---       #116
      01004D0FH   LINE      CODE     ---       #117
      01004D0FH   LINE      CODE     ---       #118
      01004D0FH   LINE      CODE     ---       #119
      01004D11H   LINE      CODE     ---       #120
      01004D11H   LINE      CODE     ---       #121
      01004D14H   LINE      CODE     ---       #122
      01004D19H   LINE      CODE     ---       #123
      01004D1BH   LINE      CODE     ---       #124
LX51 LINKER/LOCATER V4.66.87.0                                                        06/02/2018  22:09:22  PAGE 213


      01004D1DH   LINE      CODE     ---       #125
      01004D1DH   LINE      CODE     ---       #126
      01004D1DH   LINE      CODE     ---       #127
      01004D1FH   LINE      CODE     ---       #128
      01004D1FH   LINE      CODE     ---       #129
      01004D22H   LINE      CODE     ---       #130
      01004D27H   LINE      CODE     ---       #131
      01004D29H   LINE      CODE     ---       #132
      01004D2EH   LINE      CODE     ---       #133
      01004D32H   LINE      CODE     ---       #134
      01004D32H   LINE      CODE     ---       #135
      01004D32H   LINE      CODE     ---       #136
      01004D32H   LINE      CODE     ---       #138
      ---         BLOCKEND  ---      ---       LVL=0

      01008B78H   BLOCK     CODE     ---       LVL=0
      00000004H   SYMBOL    DATA     BYTE      what
      01008B78H   LINE      CODE     ---       #140
      01008B7AH   LINE      CODE     ---       #141
      01008B7AH   LINE      CODE     ---       #142
      01008B7DH   LINE      CODE     ---       #143
      ---         BLOCKEND  ---      ---       LVL=0

      01001EDAH   BLOCK     CODE     ---       LVL=0
      00000007H   SYMBOL    DATA     BYTE      what
      01001EDAH   BLOCK     CODE     NEAR LAB  LVL=1
      02000016H   SYMBOL    XDATA    BYTE      year
      02000017H   SYMBOL    XDATA    BYTE      mon
      02000018H   SYMBOL    XDATA    BYTE      date
      02000019H   SYMBOL    XDATA    BYTE      hour
      0200001AH   SYMBOL    XDATA    BYTE      min
      0200001BH   SYMBOL    XDATA    BYTE      sec
      ---         BLOCKEND  ---      ---       LVL=1
      01001EDAH   LINE      CODE     ---       #146
      01001EDAH   LINE      CODE     ---       #147
      01001EDAH   LINE      CODE     ---       #150
      01001EE9H   LINE      CODE     ---       #152
      01001EF1H   LINE      CODE     ---       #153
      01001EF7H   LINE      CODE     ---       #154
      01001EFDH   LINE      CODE     ---       #156
      01001F02H   LINE      CODE     ---       #157
      01001F07H   LINE      CODE     ---       #159
      01001F28H   LINE      CODE     ---       #161
      01001F32H   LINE      CODE     ---       #162
      01001F35H   LINE      CODE     ---       #163
      01001F37H   LINE      CODE     ---       #164
      01001F3EH   LINE      CODE     ---       #165
      01001F3EH   LINE      CODE     ---       #166
      01001F44H   LINE      CODE     ---       #167
      01001F4AH   LINE      CODE     ---       #168
      01001F50H   LINE      CODE     ---       #169
      01001F56H   LINE      CODE     ---       #170
      01001F59H   LINE      CODE     ---       #171
      01001F5CH   LINE      CODE     ---       #172
      01001F64H   LINE      CODE     ---       #173
      01001F6AH   LINE      CODE     ---       #174
      01001F70H   LINE      CODE     ---       #177
      01001F75H   LINE      CODE     ---       #178
      01001F79H   LINE      CODE     ---       #179
      01001F7DH   LINE      CODE     ---       #180
      01001F81H   LINE      CODE     ---       #183
      01001F8EH   LINE      CODE     ---       #184
      01001F92H   LINE      CODE     ---       #185
      01001F96H   LINE      CODE     ---       #186
      01001FA4H   LINE      CODE     ---       #187
LX51 LINKER/LOCATER V4.66.87.0                                                        06/02/2018  22:09:22  PAGE 214


      01001FA9H   LINE      CODE     ---       #188
      01001FABH   LINE      CODE     ---       #189
      01001FB0H   LINE      CODE     ---       #190
      01001FB0H   LINE      CODE     ---       #193
      01001FD1H   LINE      CODE     ---       #195
      01001FDBH   LINE      CODE     ---       #196
      01001FDEH   LINE      CODE     ---       #197
      01001FE0H   LINE      CODE     ---       #198
      01001FE7H   LINE      CODE     ---       #199
      01001FE7H   LINE      CODE     ---       #200
      01001FEDH   LINE      CODE     ---       #201
      01001FF3H   LINE      CODE     ---       #202
      01001FF9H   LINE      CODE     ---       #203
      01001FFFH   LINE      CODE     ---       #204
      01002011H   LINE      CODE     ---       #205
      01002011H   LINE      CODE     ---       #206
      ---         BLOCKEND  ---      ---       LVL=0

      01006CA1H   BLOCK     CODE     ---       LVL=0
      02000015H   SYMBOL    XDATA    BYTE      what
      01006CA1H   LINE      CODE     ---       #208
      01006CA6H   LINE      CODE     ---       #209
      01006CA6H   LINE      CODE     ---       #210
      01006CA9H   LINE      CODE     ---       #211
      01006CC0H   LINE      CODE     ---       #212
      01006CC0H   LINE      CODE     ---       #213
      01006CC0H   LINE      CODE     ---       #214
      01006CC2H   LINE      CODE     ---       #215
      01006CC2H   LINE      CODE     ---       #216
      01006CC4H   LINE      CODE     ---       #217
      01006CC4H   LINE      CODE     ---       #218
      01006CC4H   LINE      CODE     ---       #219
      01006CC6H   LINE      CODE     ---       #220
      01006CC6H   LINE      CODE     ---       #221
      01006CC8H   LINE      CODE     ---       #222
      01006CC8H   LINE      CODE     ---       #223
      01006CC8H   LINE      CODE     ---       #224
      01006CCDH   LINE      CODE     ---       #225
      01006CD1H   LINE      CODE     ---       #226
      01006CD1H   LINE      CODE     ---       #227
      01006CD1H   LINE      CODE     ---       #228
      ---         BLOCKEND  ---      ---       LVL=0

      01006BBFH   BLOCK     CODE     ---       LVL=0
      00000007H   SYMBOL    DATA     BYTE      index
      01006BBFH   BLOCK     CODE     NEAR LAB  LVL=1
      02000014H   SYMBOL    XDATA    BYTE      i
      ---         BLOCKEND  ---      ---       LVL=1
      01006BBFH   LINE      CODE     ---       #231
      01006BBFH   LINE      CODE     ---       #232
      01006BBFH   LINE      CODE     ---       #234
      01006BC6H   LINE      CODE     ---       #235
      01006BC9H   LINE      CODE     ---       #236
      01006BD0H   LINE      CODE     ---       #237
      01006BD5H   LINE      CODE     ---       #238
      01006BDAH   LINE      CODE     ---       #239
      01006BDFH   LINE      CODE     ---       #240
      01006BE4H   LINE      CODE     ---       #241
      01006BE9H   LINE      CODE     ---       #242
      ---         BLOCKEND  ---      ---       LVL=0

      01008093H   BLOCK     CODE     ---       LVL=0
      02000013H   SYMBOL    XDATA    BYTE      index
      01008098H   BLOCK     CODE     NEAR LAB  LVL=1
      00000007H   SYMBOL    DATA     BYTE      i
LX51 LINKER/LOCATER V4.66.87.0                                                        06/02/2018  22:09:22  PAGE 215


      ---         BLOCKEND  ---      ---       LVL=1
      01008093H   LINE      CODE     ---       #245
      01008098H   LINE      CODE     ---       #246
      01008098H   LINE      CODE     ---       #248
      0100809AH   LINE      CODE     ---       #249
      010080A5H   LINE      CODE     ---       #250
      ---         BLOCKEND  ---      ---       LVL=0

      01007864H   BLOCK     CODE     ---       LVL=0
      00000007H   SYMBOL    DATA     BYTE      from
      00000005H   SYMBOL    DATA     BYTE      to
      02000011H   SYMBOL    XDATA    BYTE      ev
      01007864H   LINE      CODE     ---       #253
      01007869H   LINE      CODE     ---       #254
      01007869H   LINE      CODE     ---       #255
      01007873H   LINE      CODE     ---       #256
      0100787AH   LINE      CODE     ---       #258
      01007881H   LINE      CODE     ---       #259
      01007887H   LINE      CODE     ---       #260
      01007887H   LINE      CODE     ---       #261
      ---         BLOCKEND  ---      ---       LVL=0

      0100537EH   BLOCK     CODE     ---       LVL=0
      02000013H   SYMBOL    XDATA    BYTE      what
      02000014H   SYMBOL    XDATA    BYTE      ev
      0100537EH   LINE      CODE     ---       #263
      01005386H   LINE      CODE     ---       #264
      01005386H   LINE      CODE     ---       #265
      01005389H   LINE      CODE     ---       #266
      01005391H   LINE      CODE     ---       #268
      01005391H   LINE      CODE     ---       #270
      01005398H   LINE      CODE     ---       #271
      010053A0H   LINE      CODE     ---       #272
      010053A8H   LINE      CODE     ---       #274
      010053A8H   LINE      CODE     ---       #276
      010053B0H   LINE      CODE     ---       #277
      010053B7H   LINE      CODE     ---       #278
      010053BFH   LINE      CODE     ---       #279
      010053C7H   LINE      CODE     ---       #280
      010053C7H   LINE      CODE     ---       #281
      010053CDH   LINE      CODE     ---       #282
      010053D4H   LINE      CODE     ---       #284
      010053D4H   LINE      CODE     ---       #286
      010053DBH   LINE      CODE     ---       #287
      010053E3H   LINE      CODE     ---       #288
      010053E8H   LINE      CODE     ---       #290
      010053E8H   LINE      CODE     ---       #291
      ---         BLOCKEND  ---      ---       LVL=0

      0100644EH   BLOCK     CODE     ---       LVL=0
      02000011H   SYMBOL    XDATA    BYTE      from
      00000005H   SYMBOL    DATA     BYTE      to
      02000012H   SYMBOL    XDATA    BYTE      ev
      0100644EH   LINE      CODE     ---       #294
      01006456H   LINE      CODE     ---       #295
      01006456H   LINE      CODE     ---       #296
      01006460H   LINE      CODE     ---       #297
      0100647EH   LINE      CODE     ---       #298
      0100647EH   LINE      CODE     ---       #299
      01006484H   LINE      CODE     ---       #300
      01006484H   LINE      CODE     ---       #301
      0100648AH   LINE      CODE     ---       #302
      0100648DH   LINE      CODE     ---       #303
      ---         BLOCKEND  ---      ---       LVL=0

LX51 LINKER/LOCATER V4.66.87.0                                                        06/02/2018  22:09:22  PAGE 216


      01007E75H   BLOCK     CODE     ---       LVL=0
      00000007H   SYMBOL    DATA     BYTE      from
      00000005H   SYMBOL    DATA     BYTE      to
      02000011H   SYMBOL    XDATA    BYTE      ev
      01007E75H   LINE      CODE     ---       #306
      01007E7BH   LINE      CODE     ---       #307
      01007E7BH   LINE      CODE     ---       #308
      01007E87H   LINE      CODE     ---       #309
      ---         BLOCKEND  ---      ---       LVL=0

      01007E91H   BLOCK     CODE     ---       LVL=0
      00000007H   SYMBOL    DATA     BYTE      from
      00000005H   SYMBOL    DATA     BYTE      to
      02000011H   SYMBOL    XDATA    BYTE      ev
      01007E91H   LINE      CODE     ---       #312
      01007E97H   LINE      CODE     ---       #313
      01007E97H   LINE      CODE     ---       #314
      01007EA3H   LINE      CODE     ---       #315
      ---         BLOCKEND  ---      ---       LVL=0

      01007EADH   BLOCK     CODE     ---       LVL=0
      00000007H   SYMBOL    DATA     BYTE      from
      00000005H   SYMBOL    DATA     BYTE      to
      02000011H   SYMBOL    XDATA    BYTE      ev
      01007EADH   LINE      CODE     ---       #318
      01007EB3H   LINE      CODE     ---       #319
      01007EB3H   LINE      CODE     ---       #320
      01007EBFH   LINE      CODE     ---       #321
      ---         BLOCKEND  ---      ---       LVL=0

      01007EC9H   BLOCK     CODE     ---       LVL=0
      00000007H   SYMBOL    DATA     BYTE      from
      00000005H   SYMBOL    DATA     BYTE      to
      02000011H   SYMBOL    XDATA    BYTE      ev
      01007EC9H   LINE      CODE     ---       #324
      01007ECFH   LINE      CODE     ---       #325
      01007ECFH   LINE      CODE     ---       #326
      01007EDBH   LINE      CODE     ---       #327
      ---         BLOCKEND  ---      ---       LVL=0

      01007EE5H   BLOCK     CODE     ---       LVL=0
      00000007H   SYMBOL    DATA     BYTE      from
      00000005H   SYMBOL    DATA     BYTE      to
      02000011H   SYMBOL    XDATA    BYTE      ev
      01007EE5H   LINE      CODE     ---       #330
      01007EEBH   LINE      CODE     ---       #331
      01007EEBH   LINE      CODE     ---       #332
      01007EF7H   LINE      CODE     ---       #333
      ---         BLOCKEND  ---      ---       LVL=0

      0100455EH   BLOCK     CODE     ---       LVL=0
      02000011H   SYMBOL    XDATA    BYTE      from
      00000005H   SYMBOL    DATA     BYTE      to
      02000012H   SYMBOL    XDATA    BYTE      ev
      0100455EH   LINE      CODE     ---       #336
      01004567H   LINE      CODE     ---       #337
      01004567H   LINE      CODE     ---       #338
      01004573H   LINE      CODE     ---       #341
      0100457BH   LINE      CODE     ---       #342
      01004585H   LINE      CODE     ---       #343
      0100458EH   LINE      CODE     ---       #344
      01004591H   LINE      CODE     ---       #345
      01004593H   LINE      CODE     ---       #346
      0100459AH   LINE      CODE     ---       #348
      0100459AH   LINE      CODE     ---       #349
LX51 LINKER/LOCATER V4.66.87.0                                                        06/02/2018  22:09:22  PAGE 217


      0100459AH   LINE      CODE     ---       #350
      010045A0H   LINE      CODE     ---       #352
      010045A0H   LINE      CODE     ---       #354
      010045A7H   LINE      CODE     ---       #355
      010045ADH   LINE      CODE     ---       #356
      010045B3H   LINE      CODE     ---       #358
      010045B3H   LINE      CODE     ---       #360
      010045BBH   LINE      CODE     ---       #361
      010045C2H   LINE      CODE     ---       #362
      010045C8H   LINE      CODE     ---       #363
      010045CEH   LINE      CODE     ---       #364
      010045CEH   LINE      CODE     ---       #365
      010045D4H   LINE      CODE     ---       #366
      010045DBH   LINE      CODE     ---       #368
      010045DBH   LINE      CODE     ---       #370
      010045E2H   LINE      CODE     ---       #371
      010045E8H   LINE      CODE     ---       #372
      010045EDH   LINE      CODE     ---       #374
      010045EDH   LINE      CODE     ---       #375
      ---         BLOCKEND  ---      ---       LVL=0

      ---         MODULE    ---      ---       SM_FUSE_TIMER
      0100B8BCH   PUBLIC    CONST    ---       sm_fuse_timer_ss_name
      01007F01H   PUBLIC    CODE     ---       _sm_fuse_timer_submod4
      01007639H   PUBLIC    CODE     ---       _sm_fuse_timer_submod3
      01003804H   PUBLIC    CODE     ---       _sm_fuse_timer_submod2
      01005D75H   PUBLIC    CODE     ---       _sm_fuse_timer_submod1
      01002B68H   PUBLIC    CODE     ---       _sm_fuse_timer_submod0
      01007CECH   PUBLIC    CODE     ---       _sm_fuse_timer_init
      01006938H   SYMBOL    CODE     ---       _display_timer
      010089ABH   SYMBOL    CODE     ---       inc_password
      01007075H   SYMBOL    CODE     ---       roll_back
      0100373DH   SYMBOL    CODE     ---       _check_and_set
      010070A5H   SYMBOL    CODE     ---       display_password
      01003FFDH   SYMBOL    CODE     ---       _display_prearm
      010050EAH   SYMBOL    CODE     ---       verify_password

      010071EDH   BLOCK     CODE     ---       LVL=0
      ---         BLOCKEND  ---      ---       LVL=0

      0100373DH   BLOCK     CODE     ---       LVL=0
      00000007H   SYMBOL    DATA     BYTE      step
      0100373DH   BLOCK     CODE     NEAR LAB  LVL=1
      02000013H   SYMBOL    XDATA    BYTE      ret
      02000014H   SYMBOL    XDATA    BYTE      val
      00000007H   SYMBOL    DATA     BYTE      val1
      ---         BLOCKEND  ---      ---       LVL=1
      0100373DH   LINE      CODE     ---       #64
      0100373DH   LINE      CODE     ---       #65
      0100373DH   LINE      CODE     ---       #66
      01003742H   LINE      CODE     ---       #68
      01003756H   LINE      CODE     ---       #69
      01003756H   LINE      CODE     ---       #70
      0100375BH   LINE      CODE     ---       #71
      0100375EH   LINE      CODE     ---       #72
      0100375EH   LINE      CODE     ---       #73
      01003763H   LINE      CODE     ---       #74
      0100376DH   LINE      CODE     ---       #75
      01003770H   LINE      CODE     ---       #76
      01003770H   LINE      CODE     ---       #77
      01003775H   LINE      CODE     ---       #78
      01003781H   LINE      CODE     ---       #79
      01003783H   LINE      CODE     ---       #80
      01003783H   LINE      CODE     ---       #81
      0100378DH   LINE      CODE     ---       #82
LX51 LINKER/LOCATER V4.66.87.0                                                        06/02/2018  22:09:22  PAGE 218


      01003792H   LINE      CODE     ---       #83
      0100379FH   LINE      CODE     ---       #84
      010037A9H   LINE      CODE     ---       #85
      010037B9H   LINE      CODE     ---       #86
      010037BFH   LINE      CODE     ---       #87
      010037C1H   LINE      CODE     ---       #88
      010037C1H   LINE      CODE     ---       #89
      010037C1H   LINE      CODE     ---       #90
      010037C6H   LINE      CODE     ---       #91
      010037C6H   LINE      CODE     ---       #92
      010037C8H   LINE      CODE     ---       #93
      010037C8H   LINE      CODE     ---       #94
      010037CBH   LINE      CODE     ---       #95
      010037CEH   LINE      CODE     ---       #96
      010037D8H   LINE      CODE     ---       #97
      010037DBH   LINE      CODE     ---       #98
      010037E1H   LINE      CODE     ---       #99
      010037E3H   LINE      CODE     ---       #100
      010037EAH   LINE      CODE     ---       #101
      010037F0H   LINE      CODE     ---       #102
      010037F2H   LINE      CODE     ---       #103
      010037F2H   LINE      CODE     ---       #104
      010037F5H   LINE      CODE     ---       #105
      010037F5H   LINE      CODE     ---       #106
      010037F5H   LINE      CODE     ---       #107
      010037F5H   LINE      CODE     ---       #108
      010037F5H   LINE      CODE     ---       #109
      010037F5H   LINE      CODE     ---       #110
      010037F5H   LINE      CODE     ---       #111
      010037F5H   LINE      CODE     ---       #112
      010037FAH   LINE      CODE     ---       #113
      ---         BLOCKEND  ---      ---       LVL=0

      01007075H   BLOCK     CODE     ---       LVL=0
      00000020H.0 SYMBOL    BIT      BIT       include_fuse
      01007075H   LINE      CODE     ---       #115
      01007075H   LINE      CODE     ---       #116
      01007075H   LINE      CODE     ---       #117
      0100708AH   LINE      CODE     ---       #118
      0100708FH   LINE      CODE     ---       #119
      01007094H   LINE      CODE     ---       #120
      01007099H   LINE      CODE     ---       #121
      0100709CH   LINE      CODE     ---       #122
      0100709FH   LINE      CODE     ---       #123
      010070A4H   LINE      CODE     ---       #124
      010070A4H   LINE      CODE     ---       #125
      ---         BLOCKEND  ---      ---       LVL=0

      01003FFDH   BLOCK     CODE     ---       LVL=0
      02000013H   SYMBOL    XDATA    BYTE      step
      02000014H   SYMBOL    XDATA    BYTE      err
      01003FFDH   LINE      CODE     ---       #137
      01004005H   LINE      CODE     ---       #138
      01004005H   LINE      CODE     ---       #139
      01004008H   LINE      CODE     ---       #141
      0100402CH   LINE      CODE     ---       #142
      0100402CH   LINE      CODE     ---       #143
      0100402EH   LINE      CODE     ---       #144
      0100402EH   LINE      CODE     ---       #145
      01004030H   LINE      CODE     ---       #146
      01004030H   LINE      CODE     ---       #147
      01004037H   LINE      CODE     ---       #148
      01004039H   LINE      CODE     ---       #149
      0100403BH   LINE      CODE     ---       #150
      0100403BH   LINE      CODE     ---       #151
LX51 LINKER/LOCATER V4.66.87.0                                                        06/02/2018  22:09:22  PAGE 219


      01004042H   LINE      CODE     ---       #152
      01004043H   LINE      CODE     ---       #153
      01004045H   LINE      CODE     ---       #154
      01004045H   LINE      CODE     ---       #155
      0100404CH   LINE      CODE     ---       #156
      0100404EH   LINE      CODE     ---       #157
      01004050H   LINE      CODE     ---       #158
      01004050H   LINE      CODE     ---       #159
      01004057H   LINE      CODE     ---       #160
      01004059H   LINE      CODE     ---       #161
      0100405BH   LINE      CODE     ---       #162
      0100405BH   LINE      CODE     ---       #163
      0100405BH   LINE      CODE     ---       #164
      0100405BH   LINE      CODE     ---       #165
      01004068H   LINE      CODE     ---       #166
      01004078H   LINE      CODE     ---       #167
      01004078H   LINE      CODE     ---       #168
      0100407FH   LINE      CODE     ---       #169
      01004081H   LINE      CODE     ---       #170
      01004089H   LINE      CODE     ---       #171
      01004096H   LINE      CODE     ---       #172
      ---         BLOCKEND  ---      ---       LVL=0

      01006938H   BLOCK     CODE     ---       LVL=0
      02000012H   SYMBOL    XDATA    BYTE      what
      01006938H   LINE      CODE     ---       #174
      0100693DH   LINE      CODE     ---       #175
      0100693DH   LINE      CODE     ---       #176
      01006940H   LINE      CODE     ---       #177
      01006947H   LINE      CODE     ---       #178
      0100694EH   LINE      CODE     ---       #179
      01006955H   LINE      CODE     ---       #180
      0100695FH   LINE      CODE     ---       #181
      0100695FH   LINE      CODE     ---       #182
      01006961H   LINE      CODE     ---       #183
      01006961H   LINE      CODE     ---       #184
      01006961H   LINE      CODE     ---       #185
      01006963H   LINE      CODE     ---       #186
      01006963H   LINE      CODE     ---       #187
      0100696AH   LINE      CODE     ---       #188
      0100696FH   LINE      CODE     ---       #189
      01006974H   LINE      CODE     ---       #190
      01006974H   LINE      CODE     ---       #191
      01006974H   LINE      CODE     ---       #192
      ---         BLOCKEND  ---      ---       LVL=0

      010050EAH   BLOCK     CODE     ---       LVL=0
      010050EAH   BLOCK     CODE     NEAR LAB  LVL=1
      02000013H   SYMBOL    XDATA    BYTE      res
      ---         BLOCKEND  ---      ---       LVL=1
      010050EAH   LINE      CODE     ---       #194
      010050EAH   LINE      CODE     ---       #195
      010050EAH   LINE      CODE     ---       #198
      010050FAH   LINE      CODE     ---       #200
      01005116H   LINE      CODE     ---       #202
      0100511EH   LINE      CODE     ---       #203
      0100512EH   LINE      CODE     ---       #204
      0100513DH   LINE      CODE     ---       #205
      0100513FH   LINE      CODE     ---       #206
      0100515AH   LINE      CODE     ---       #207
      0100515AH   LINE      CODE     ---       #209
      ---         BLOCKEND  ---      ---       LVL=0

      010070A5H   BLOCK     CODE     ---       LVL=0
      010070A5H   BLOCK     CODE     NEAR LAB  LVL=1
LX51 LINKER/LOCATER V4.66.87.0                                                        06/02/2018  22:09:22  PAGE 220


      00000004H   SYMBOL    DATA     BYTE      i
      ---         BLOCKEND  ---      ---       LVL=1
      010070A5H   LINE      CODE     ---       #211
      010070A5H   LINE      CODE     ---       #212
      010070A5H   LINE      CODE     ---       #214
      010070A8H   LINE      CODE     ---       #215
      010070AAH   LINE      CODE     ---       #216
      010070B4H   LINE      CODE     ---       #217
      010070B8H   LINE      CODE     ---       #218
      010070BEH   LINE      CODE     ---       #219
      010070C6H   LINE      CODE     ---       #220
      010070C8H   LINE      CODE     ---       #221
      010070CFH   LINE      CODE     ---       #222
      010070CFH   LINE      CODE     ---       #223
      010070D4H   LINE      CODE     ---       #224
      ---         BLOCKEND  ---      ---       LVL=0

      010089ABH   BLOCK     CODE     ---       LVL=0
      010089ABH   LINE      CODE     ---       #226
      010089ABH   LINE      CODE     ---       #227
      010089ABH   LINE      CODE     ---       #228
      010089B8H   LINE      CODE     ---       #229
      ---         BLOCKEND  ---      ---       LVL=0

      01007CECH   BLOCK     CODE     ---       LVL=0
      00000007H   SYMBOL    DATA     BYTE      from
      00000005H   SYMBOL    DATA     BYTE      to
      00000006H   SYMBOL    DATA     BYTE      ev
      01007CECH   LINE      CODE     ---       #231
      01007CEEH   LINE      CODE     ---       #232
      01007CEEH   LINE      CODE     ---       #233
      01007CFAH   LINE      CODE     ---       #234
      01007D01H   LINE      CODE     ---       #235
      01007D06H   LINE      CODE     ---       #236
      01007D08H   LINE      CODE     ---       #237
      ---         BLOCKEND  ---      ---       LVL=0

      01002B68H   BLOCK     CODE     ---       LVL=0
      00000007H   SYMBOL    DATA     BYTE      from
      00000005H   SYMBOL    DATA     BYTE      to
      02000011H   SYMBOL    XDATA    BYTE      ev
      01002B6DH   BLOCK     CODE     NEAR LAB  LVL=1
      02000012H   SYMBOL    XDATA    BYTE      err
      ---         BLOCKEND  ---      ---       LVL=1
      01002B68H   LINE      CODE     ---       #240
      01002B6DH   LINE      CODE     ---       #241
      01002B6DH   LINE      CODE     ---       #243
      01002B77H   LINE      CODE     ---       #245
      01002B7EH   LINE      CODE     ---       #246
      01002B81H   LINE      CODE     ---       #247
      01002B85H   LINE      CODE     ---       #248
      01002B87H   LINE      CODE     ---       #249
      01002B8CH   LINE      CODE     ---       #251
      01002B8CH   LINE      CODE     ---       #253
      01002B97H   LINE      CODE     ---       #254
      01002BA1H   LINE      CODE     ---       #255
      01002BAAH   LINE      CODE     ---       #256
      01002BB2H   LINE      CODE     ---       #257
      01002BB8H   LINE      CODE     ---       #258
      01002BB8H   LINE      CODE     ---       #259
      01002BB8H   LINE      CODE     ---       #260
      01002BBBH   LINE      CODE     ---       #262
      01002BBBH   LINE      CODE     ---       #263
      01002BC1H   LINE      CODE     ---       #264
      01002BC2H   LINE      CODE     ---       #265
LX51 LINKER/LOCATER V4.66.87.0                                                        06/02/2018  22:09:22  PAGE 221


      01002BC8H   LINE      CODE     ---       #266
      01002BC9H   LINE      CODE     ---       #268
      01002BC9H   LINE      CODE     ---       #270
      01002BF8H   LINE      CODE     ---       #272
      01002BF8H   LINE      CODE     ---       #273
      01002C18H   LINE      CODE     ---       #274
      01002C18H   LINE      CODE     ---       #275
      01002C20H   LINE      CODE     ---       #276
      01002C28H   LINE      CODE     ---       #277
      01002C30H   LINE      CODE     ---       #278
      01002C38H   LINE      CODE     ---       #279
      01002C40H   LINE      CODE     ---       #280
      01002C48H   LINE      CODE     ---       #281
      01002C50H   LINE      CODE     ---       #282
      01002C56H   LINE      CODE     ---       #283
      01002C56H   LINE      CODE     ---       #284
      01002C63H   LINE      CODE     ---       #285
      01002C65H   LINE      CODE     ---       #286
      01002C6AH   LINE      CODE     ---       #287
      01002C6DH   LINE      CODE     ---       #289
      01002C6DH   LINE      CODE     ---       #290
      ---         BLOCKEND  ---      ---       LVL=0

      01005D75H   BLOCK     CODE     ---       LVL=0
      02000011H   SYMBOL    XDATA    BYTE      from
      00000005H   SYMBOL    DATA     BYTE      to
      02000012H   SYMBOL    XDATA    BYTE      ev
      01005D75H   LINE      CODE     ---       #293
      01005D7DH   LINE      CODE     ---       #294
      01005D7DH   LINE      CODE     ---       #295
      01005D87H   LINE      CODE     ---       #297
      01005D94H   LINE      CODE     ---       #298
      01005D99H   LINE      CODE     ---       #300
      01005DA3H   LINE      CODE     ---       #301
      01005DA8H   LINE      CODE     ---       #302
      01005DA8H   LINE      CODE     ---       #303
      01005DAAH   LINE      CODE     ---       #305
      01005DAAH   LINE      CODE     ---       #307
      01005DB1H   LINE      CODE     ---       #308
      01005DB4H   LINE      CODE     ---       #310
      01005DB4H   LINE      CODE     ---       #312
      01005DBBH   LINE      CODE     ---       #313
      01005DBEH   LINE      CODE     ---       #314
      01005DC1H   LINE      CODE     ---       #316
      01005DC1H   LINE      CODE     ---       #318
      01005DC8H   LINE      CODE     ---       #319
      01005DCBH   LINE      CODE     ---       #321
      01005DCBH   LINE      CODE     ---       #322
      ---         BLOCKEND  ---      ---       LVL=0

      01003804H   BLOCK     CODE     ---       LVL=0
      02000011H   SYMBOL    XDATA    BYTE      from
      00000005H   SYMBOL    DATA     BYTE      to
      02000012H   SYMBOL    XDATA    BYTE      ev
      01003804H   LINE      CODE     ---       #325
      0100380DH   LINE      CODE     ---       #326
      0100380DH   LINE      CODE     ---       #327
      01003819H   LINE      CODE     ---       #328
      01003824H   LINE      CODE     ---       #330
      0100382EH   LINE      CODE     ---       #331
      01003834H   LINE      CODE     ---       #332
      01003839H   LINE      CODE     ---       #333
      01003840H   LINE      CODE     ---       #334
      01003845H   LINE      CODE     ---       #335
      01003845H   LINE      CODE     ---       #336
LX51 LINKER/LOCATER V4.66.87.0                                                        06/02/2018  22:09:22  PAGE 222


      01003851H   LINE      CODE     ---       #338
      0100385AH   LINE      CODE     ---       #339
      0100385DH   LINE      CODE     ---       #340
      01003862H   LINE      CODE     ---       #341
      01003868H   LINE      CODE     ---       #342
      0100386BH   LINE      CODE     ---       #343
      0100386BH   LINE      CODE     ---       #347
      0100386EH   LINE      CODE     ---       #348
      01003878H   LINE      CODE     ---       #349
      01003881H   LINE      CODE     ---       #350
      01003884H   LINE      CODE     ---       #351
      0100388FH   LINE      CODE     ---       #352
      01003898H   LINE      CODE     ---       #353
      0100389EH   LINE      CODE     ---       #354
      0100389FH   LINE      CODE     ---       #355
      010038A6H   LINE      CODE     ---       #356
      010038B6H   LINE      CODE     ---       #357
      010038BCH   LINE      CODE     ---       #358
      010038BCH   LINE      CODE     ---       #359
      010038BCH   LINE      CODE     ---       #360
      010038BDH   LINE      CODE     ---       #362
      010038BDH   LINE      CODE     ---       #364
      010038C4H   LINE      CODE     ---       #365
      010038C7H   LINE      CODE     ---       #366
      010038CAH   LINE      CODE     ---       #368
      010038CAH   LINE      CODE     ---       #370
      010038CAH   LINE      CODE     ---       #373
      010038CAH   LINE      CODE     ---       #374
      ---         BLOCKEND  ---      ---       LVL=0

      01007639H   BLOCK     CODE     ---       LVL=0
      00000007H   SYMBOL    DATA     BYTE      from
      00000005H   SYMBOL    DATA     BYTE      to
      02000011H   SYMBOL    XDATA    BYTE      ev
      01007639H   LINE      CODE     ---       #377
      0100763FH   LINE      CODE     ---       #378
      0100763FH   LINE      CODE     ---       #379
      0100764BH   LINE      CODE     ---       #381
      01007652H   LINE      CODE     ---       #382
      01007657H   LINE      CODE     ---       #383
      0100765AH   LINE      CODE     ---       #384
      0100765FH   LINE      CODE     ---       #386
      0100765FH   LINE      CODE     ---       #388
      ---         BLOCKEND  ---      ---       LVL=0

      01007F01H   BLOCK     CODE     ---       LVL=0
      00000007H   SYMBOL    DATA     BYTE      from
      00000005H   SYMBOL    DATA     BYTE      to
      00000006H   SYMBOL    DATA     BYTE      ev
      01007F01H   LINE      CODE     ---       #391
      01007F03H   LINE      CODE     ---       #392
      01007F03H   LINE      CODE     ---       #393
      01007F0FH   LINE      CODE     ---       #394
      01007F14H   LINE      CODE     ---       #395
      01007F19H   LINE      CODE     ---       #396
      01007F1CH   LINE      CODE     ---       #397
      ---         BLOCKEND  ---      ---       LVL=0

      ---         MODULE    ---      ---       SM_FUSE_DETONATE
      0100D0ABH   PUBLIC    CONST    ---       sm_fuse_detonate_ss_name
      010057C9H   PUBLIC    CODE     ---       _sm_fuse_detonate_submod0
      010088F2H   PUBLIC    CODE     ---       _sm_fuse_detonate_init
      01008304H   SYMBOL    CODE     ---       display_detonate

      010089B9H   BLOCK     CODE     ---       LVL=0
LX51 LINKER/LOCATER V4.66.87.0                                                        06/02/2018  22:09:22  PAGE 223


      ---         BLOCKEND  ---      ---       LVL=0

      01008304H   BLOCK     CODE     ---       LVL=0
      01008304H   BLOCK     CODE     NEAR LAB  LVL=1
      00000004H   SYMBOL    DATA     BYTE      i
      ---         BLOCKEND  ---      ---       LVL=1
      01008304H   LINE      CODE     ---       #17
      01008304H   LINE      CODE     ---       #18
      01008304H   LINE      CODE     ---       #20
      01008307H   LINE      CODE     ---       #21
      01008309H   LINE      CODE     ---       #22
      01008310H   LINE      CODE     ---       #23
      01008315H   LINE      CODE     ---       #24
      0100831AH   LINE      CODE     ---       #25
      ---         BLOCKEND  ---      ---       LVL=0

      010088F2H   BLOCK     CODE     ---       LVL=0
      00000007H   SYMBOL    DATA     BYTE      from
      00000005H   SYMBOL    DATA     BYTE      to
      00000006H   SYMBOL    DATA     BYTE      ev
      010088F2H   LINE      CODE     ---       #27
      010088F4H   LINE      CODE     ---       #28
      010088F4H   LINE      CODE     ---       #29
      010088FEH   LINE      CODE     ---       #30
      ---         BLOCKEND  ---      ---       LVL=0

      010057C9H   BLOCK     CODE     ---       LVL=0
      00000007H   SYMBOL    DATA     BYTE      from
      00000005H   SYMBOL    DATA     BYTE      to
      02000011H   SYMBOL    XDATA    BYTE      ev
      010057C9H   LINE      CODE     ---       #34
      010057CFH   LINE      CODE     ---       #35
      010057CFH   LINE      CODE     ---       #36
      010057D9H   LINE      CODE     ---       #38
      010057DFH   LINE      CODE     ---       #39
      010057E4H   LINE      CODE     ---       #40
      010057EAH   LINE      CODE     ---       #42
      010057EAH   LINE      CODE     ---       #44
      010057FDH   LINE      CODE     ---       #45
      01005807H   LINE      CODE     ---       #46
      0100580CH   LINE      CODE     ---       #48
      0100580FH   LINE      CODE     ---       #49
      01005818H   LINE      CODE     ---       #50
      0100581DH   LINE      CODE     ---       #51
      01005822H   LINE      CODE     ---       #52
      01005828H   LINE      CODE     ---       #53
      01005828H   LINE      CODE     ---       #55
      01005828H   LINE      CODE     ---       #56
      ---         BLOCKEND  ---      ---       LVL=0

      ---         MODULE    ---      ---       SM_FUSE_POWERSAVE
      0100CDF7H   PUBLIC    CONST    ---       sm_fuse_powersave_ss_name
      010085BAH   PUBLIC    CODE     ---       _sm_fuse_powersave_submod1
      01007BC5H   PUBLIC    CODE     ---       _sm_fuse_powersave_submod0
      01008B82H   PUBLIC    CODE     ---       _sm_fuse_powersave_init
      01008755H   SYMBOL    CODE     ---       roll_back

      0100882EH   BLOCK     CODE     ---       LVL=0
      ---         BLOCKEND  ---      ---       LVL=0

      01008755H   BLOCK     CODE     ---       LVL=0
      01008755H   LINE      CODE     ---       #18
      01008755H   LINE      CODE     ---       #19
      01008755H   LINE      CODE     ---       #20
      0100875AH   LINE      CODE     ---       #21
LX51 LINKER/LOCATER V4.66.87.0                                                        06/02/2018  22:09:22  PAGE 224


      0100875FH   LINE      CODE     ---       #22
      01008764H   LINE      CODE     ---       #23
      ---         BLOCKEND  ---      ---       LVL=0

      01008B82H   BLOCK     CODE     ---       LVL=0
      00000007H   SYMBOL    DATA     BYTE      from
      00000005H   SYMBOL    DATA     BYTE      to
      00000006H   SYMBOL    DATA     BYTE      ev
      01008B82H   LINE      CODE     ---       #26
      01008B82H   LINE      CODE     ---       #27
      01008B82H   LINE      CODE     ---       #28
      ---         BLOCKEND  ---      ---       LVL=0

      01007BC5H   BLOCK     CODE     ---       LVL=0
      00000007H   SYMBOL    DATA     BYTE      from
      00000005H   SYMBOL    DATA     BYTE      to
      02000011H   SYMBOL    XDATA    BYTE      ev
      01007BC5H   LINE      CODE     ---       #31
      01007BCBH   LINE      CODE     ---       #32
      01007BCBH   LINE      CODE     ---       #33
      01007BD7H   LINE      CODE     ---       #34
      01007BDDH   LINE      CODE     ---       #36
      01007BE0H   LINE      CODE     ---       #37
      01007BE3H   LINE      CODE     ---       #39
      01007BE3H   LINE      CODE     ---       #40
      ---         BLOCKEND  ---      ---       LVL=0

      010085BAH   BLOCK     CODE     ---       LVL=0
      00000007H   SYMBOL    DATA     BYTE      from
      00000005H   SYMBOL    DATA     BYTE      to
      00000006H   SYMBOL    DATA     BYTE      ev
      010085BAH   LINE      CODE     ---       #42
      010085BAH   LINE      CODE     ---       #43
      010085BAH   LINE      CODE     ---       #44
      010085C4H   LINE      CODE     ---       #45
      010085C7H   LINE      CODE     ---       #46
      010085CDH   LINE      CODE     ---       #47
      ---         BLOCKEND  ---      ---       LVL=0

      ---         MODULE    ---      ---       SM_GLOBAL_FLAG_MOD
      0100C6DFH   PUBLIC    CONST    ---       sm_global_flag_mod_ss_name
      01007F39H   PUBLIC    CODE     ---       _sm_global_flag_mod_submod3
      01007F1DH   PUBLIC    CODE     ---       _sm_global_flag_mod_submod2
      01008144H   PUBLIC    CODE     ---       _sm_global_flag_mod_submod1
      0100812BH   PUBLIC    CODE     ---       _sm_global_flag_mod_submod0
      01008205H   PUBLIC    CODE     ---       _sm_global_flag_mod_init
      0100515BH   SYMBOL    CODE     ---       _inc_write
      01002C6EH   SYMBOL    CODE     ---       _display_global_flag
      010074D1H   SYMBOL    CODE     ---       _sm_global_flag_mod

      010080ADH   BLOCK     CODE     ---       LVL=0
      ---         BLOCKEND  ---      ---       LVL=0

      01002C6EH   BLOCK     CODE     ---       LVL=0
      02000014H   SYMBOL    XDATA    BYTE      what
      01002C6EH   LINE      CODE     ---       #22
      01002C73H   LINE      CODE     ---       #23
      01002C73H   LINE      CODE     ---       #25
      01002C76H   LINE      CODE     ---       #27
      01002C87H   LINE      CODE     ---       #29
      01002C9FH   LINE      CODE     ---       #30
      01002C9FH   LINE      CODE     ---       #31
      01002CA1H   LINE      CODE     ---       #32
      01002CA4H   LINE      CODE     ---       #33
      01002CAAH   LINE      CODE     ---       #34
LX51 LINKER/LOCATER V4.66.87.0                                                        06/02/2018  22:09:22  PAGE 225


      01002CAAH   LINE      CODE     ---       #35
      01002CADH   LINE      CODE     ---       #36
      01002CADH   LINE      CODE     ---       #37
      01002CB0H   LINE      CODE     ---       #38
      01002CB6H   LINE      CODE     ---       #39
      01002CBCH   LINE      CODE     ---       #40
      01002CBCH   LINE      CODE     ---       #41
      01002CBFH   LINE      CODE     ---       #42
      01002CBFH   LINE      CODE     ---       #43
      01002CC6H   LINE      CODE     ---       #44
      01002CCDH   LINE      CODE     ---       #45
      01002CD4H   LINE      CODE     ---       #46
      01002CD9H   LINE      CODE     ---       #47
      01002CE0H   LINE      CODE     ---       #48
      01002CE7H   LINE      CODE     ---       #49
      01002CE8H   LINE      CODE     ---       #50
      01002CEAH   LINE      CODE     ---       #51
      01002CEAH   LINE      CODE     ---       #52
      01002CEDH   LINE      CODE     ---       #53
      01002CEDH   LINE      CODE     ---       #54
      01002CEDH   LINE      CODE     ---       #55
      01002CEFH   LINE      CODE     ---       #56
      01002CEFH   LINE      CODE     ---       #57
      01002CF6H   LINE      CODE     ---       #58
      01002CFDH   LINE      CODE     ---       #59
      01002D04H   LINE      CODE     ---       #60
      01002D0BH   LINE      CODE     ---       #61
      01002D11H   LINE      CODE     ---       #62
      01002D17H   LINE      CODE     ---       #63
      01002D19H   LINE      CODE     ---       #64
      01002D19H   LINE      CODE     ---       #65
      01002D1BH   LINE      CODE     ---       #66
      01002D1EH   LINE      CODE     ---       #67
      01002D25H   LINE      CODE     ---       #68
      01002D2DH   LINE      CODE     ---       #69
      01002D34H   LINE      CODE     ---       #70
      01002D36H   LINE      CODE     ---       #71
      01002D38H   LINE      CODE     ---       #72
      01002D3FH   LINE      CODE     ---       #73
      01002D45H   LINE      CODE     ---       #74
      01002D45H   LINE      CODE     ---       #75
      01002D45H   LINE      CODE     ---       #76
      01002D45H   LINE      CODE     ---       #77
      ---         BLOCKEND  ---      ---       LVL=0

      0100515BH   BLOCK     CODE     ---       LVL=0
      00000007H   SYMBOL    DATA     BYTE      what
      0100515BH   BLOCK     CODE     NEAR LAB  LVL=1
      00000020H.0 SYMBOL    BIT      BIT       is12
      ---         BLOCKEND  ---      ---       LVL=1
      0100515BH   LINE      CODE     ---       #79
      0100515BH   LINE      CODE     ---       #80
      0100515BH   LINE      CODE     ---       #82
      0100516AH   LINE      CODE     ---       #83
      0100516AH   LINE      CODE     ---       #84
      0100516DH   LINE      CODE     ---       #85
      01005174H   LINE      CODE     ---       #86
      01005176H   LINE      CODE     ---       #87
      01005176H   LINE      CODE     ---       #88
      0100517FH   LINE      CODE     ---       #89
      0100518AH   LINE      CODE     ---       #90
      0100518CH   LINE      CODE     ---       #91
      0100518CH   LINE      CODE     ---       #92
      0100518FH   LINE      CODE     ---       #93
      01005196H   LINE      CODE     ---       #94
LX51 LINKER/LOCATER V4.66.87.0                                                        06/02/2018  22:09:22  PAGE 226


      01005198H   LINE      CODE     ---       #95
      01005198H   LINE      CODE     ---       #96
      010051A2H   LINE      CODE     ---       #97
      010051AAH   LINE      CODE     ---       #98
      010051AFH   LINE      CODE     ---       #99
      010051B7H   LINE      CODE     ---       #100
      010051BFH   LINE      CODE     ---       #101
      010051CBH   LINE      CODE     ---       #102
      010051CBH   LINE      CODE     ---       #103
      010051CBH   LINE      CODE     ---       #104
      ---         BLOCKEND  ---      ---       LVL=0

      01008205H   BLOCK     CODE     ---       LVL=0
      00000007H   SYMBOL    DATA     BYTE      from
      00000005H   SYMBOL    DATA     BYTE      to
      00000006H   SYMBOL    DATA     BYTE      ev
      01008205H   LINE      CODE     ---       #106
      01008207H   LINE      CODE     ---       #107
      01008207H   LINE      CODE     ---       #108
      01008213H   LINE      CODE     ---       #109
      01008216H   LINE      CODE     ---       #110
      ---         BLOCKEND  ---      ---       LVL=0

      010074D1H   BLOCK     CODE     ---       LVL=0
      02000012H   SYMBOL    XDATA    BYTE      what
      02000013H   SYMBOL    XDATA    BYTE      ev
      010074D1H   LINE      CODE     ---       #113
      010074D9H   LINE      CODE     ---       #114
      010074D9H   LINE      CODE     ---       #115
      010074E1H   LINE      CODE     ---       #116
      010074E3H   LINE      CODE     ---       #118
      010074E3H   LINE      CODE     ---       #120
      010074EAH   LINE      CODE     ---       #121
      010074F2H   LINE      CODE     ---       #122
      010074FAH   LINE      CODE     ---       #124
      010074FAH   LINE      CODE     ---       #125
      ---         BLOCKEND  ---      ---       LVL=0

      0100812BH   BLOCK     CODE     ---       LVL=0
      00000007H   SYMBOL    DATA     BYTE      from
      00000005H   SYMBOL    DATA     BYTE      to
      02000011H   SYMBOL    XDATA    BYTE      ev
      0100812BH   LINE      CODE     ---       #127
      01008130H   LINE      CODE     ---       #128
      01008130H   LINE      CODE     ---       #129
      0100813AH   LINE      CODE     ---       #130
      ---         BLOCKEND  ---      ---       LVL=0

      01008144H   BLOCK     CODE     ---       LVL=0
      00000007H   SYMBOL    DATA     BYTE      from
      00000005H   SYMBOL    DATA     BYTE      to
      02000011H   SYMBOL    XDATA    BYTE      ev
      01008144H   LINE      CODE     ---       #133
      01008149H   LINE      CODE     ---       #134
      01008149H   LINE      CODE     ---       #135
      01008153H   LINE      CODE     ---       #136
      ---         BLOCKEND  ---      ---       LVL=0

      01007F1DH   BLOCK     CODE     ---       LVL=0
      00000007H   SYMBOL    DATA     BYTE      from
      00000005H   SYMBOL    DATA     BYTE      to
      02000011H   SYMBOL    XDATA    BYTE      ev
      01007F1DH   LINE      CODE     ---       #139
      01007F23H   LINE      CODE     ---       #140
      01007F23H   LINE      CODE     ---       #141
LX51 LINKER/LOCATER V4.66.87.0                                                        06/02/2018  22:09:22  PAGE 227


      01007F2FH   LINE      CODE     ---       #142
      ---         BLOCKEND  ---      ---       LVL=0

      01007F39H   BLOCK     CODE     ---       LVL=0
      00000007H   SYMBOL    DATA     BYTE      from
      00000005H   SYMBOL    DATA     BYTE      to
      02000011H   SYMBOL    XDATA    BYTE      ev
      01007F39H   LINE      CODE     ---       #145
      01007F3FH   LINE      CODE     ---       #146
      01007F3FH   LINE      CODE     ---       #147
      01007F4BH   LINE      CODE     ---       #148
      ---         BLOCKEND  ---      ---       LVL=0

      ---         MODULE    ---      ---       CMD_HELP
      01005ECCH   PUBLIC    CODE     ---       _cmd_help

      010085CEH   BLOCK     CODE     ---       LVL=0
      ---         BLOCKEND  ---      ---       LVL=0

      01005ECCH   BLOCK     CODE     ---       LVL=0
      02000008H   SYMBOL    XDATA    CHAR      arg1
      02000009H   SYMBOL    XDATA    CHAR      arg2
      01005ED1H   BLOCK     CODE     NEAR LAB  LVL=1
      00000007H   SYMBOL    DATA     CHAR      i
      ---         BLOCKEND  ---      ---       LVL=1
      01005ECCH   LINE      CODE     ---       #6
      01005ED1H   LINE      CODE     ---       #7
      01005ED1H   LINE      CODE     ---       #10
      01005ED1H   LINE      CODE     ---       #12
      01005ED3H   LINE      CODE     ---       #13
      01005ED6H   LINE      CODE     ---       #14
      01005ED8H   LINE      CODE     ---       #15
      01005EDEH   LINE      CODE     ---       #16
      01005EE2H   LINE      CODE     ---       #17
      01005F09H   LINE      CODE     ---       #18
      01005F0BH   LINE      CODE     ---       #19
      01005F1DH   LINE      CODE     ---       #20
      01005F1DH   LINE      CODE     ---       #21
      01005F1DH   LINE      CODE     ---       #22
      01005F1FH   LINE      CODE     ---       #23
      ---         BLOCKEND  ---      ---       LVL=0

      ---         MODULE    ---      ---       CMD_SERIAL
      01003F57H   PUBLIC    CODE     ---       _cmd_serial

      01008AF5H   BLOCK     CODE     ---       LVL=0
      ---         BLOCKEND  ---      ---       LVL=0

      01003F57H   BLOCK     CODE     ---       LVL=0
      02000008H   SYMBOL    XDATA    CHAR      arg1
      02000009H   SYMBOL    XDATA    CHAR      arg2
      01003F61H   BLOCK     CODE     NEAR LAB  LVL=1
      0200000AH   SYMBOL    XDATA    CHAR      index
      0200000BH   SYMBOL    XDATA    CHAR      val
      ---         BLOCKEND  ---      ---       LVL=1
      01003F57H   LINE      CODE     ---       #8
      01003F61H   LINE      CODE     ---       #9
      01003F61H   LINE      CODE     ---       #12
      01003F63H   LINE      CODE     ---       #13
      01003F66H   LINE      CODE     ---       #14
      01003F68H   LINE      CODE     ---       #15
      01003F73H   LINE      CODE     ---       #16
      01003F79H   LINE      CODE     ---       #17
      01003F94H   LINE      CODE     ---       #18
      01003F96H   LINE      CODE     ---       #19
LX51 LINKER/LOCATER V4.66.87.0                                                        06/02/2018  22:09:22  PAGE 228


      01003FA9H   LINE      CODE     ---       #20
      01003FD5H   LINE      CODE     ---       #21
      01003FE3H   LINE      CODE     ---       #22
      01003FE6H   LINE      CODE     ---       #23
      01003FE6H   LINE      CODE     ---       #24
      01003FE6H   LINE      CODE     ---       #25
      01003FE8H   LINE      CODE     ---       #26
      ---         BLOCKEND  ---      ---       LVL=0

      ---         MODULE    ---      ---       CMD_INT
      01006BF8H   PUBLIC    CODE     ---       _cmd_int

      01006BF8H   BLOCK     CODE     ---       LVL=0
      02000008H   SYMBOL    XDATA    CHAR      arg1
      02000009H   SYMBOL    XDATA    CHAR      arg2
      01006BFDH   BLOCK     CODE     NEAR LAB  LVL=1
      00000006H   SYMBOL    DATA     WORD      status
      ---         BLOCKEND  ---      ---       LVL=1
      01006BF8H   LINE      CODE     ---       #7
      01006BFDH   LINE      CODE     ---       #8
      01006BFDH   LINE      CODE     ---       #11
      01006BFDH   LINE      CODE     ---       #13
      01006BFFH   LINE      CODE     ---       #14
      01006C02H   LINE      CODE     ---       #15
      01006C23H   LINE      CODE     ---       #16
      01006C26H   LINE      CODE     ---       #17
      01006C29H   LINE      CODE     ---       #18
      01006C2BH   LINE      CODE     ---       #19
      01006C2EH   LINE      CODE     ---       #20
      01006C2EH   LINE      CODE     ---       #22
      01006C30H   LINE      CODE     ---       #23
      ---         BLOCKEND  ---      ---       LVL=0

      ---         MODULE    ---      ---       CMD_I2C
      01006F1DH   PUBLIC    CODE     ---       _cmd_i2c
      01003990H   SYMBOL    CODE     ---       _i2c_write
      020000EBH   SYMBOL    XDATA    BYTE      write_addr
      010048ABH   SYMBOL    CODE     ---       _i2c_read

      01007A86H   BLOCK     CODE     ---       LVL=0
      ---         BLOCKEND  ---      ---       LVL=0

      010048ABH   BLOCK     CODE     ---       LVL=0
      00000007H   SYMBOL    DATA     CHAR      arg1
      0200000AH   SYMBOL    XDATA    CHAR      arg2
      010048B0H   BLOCK     CODE     NEAR LAB  LVL=1
      0200000BH   SYMBOL    XDATA    BYTE      addr
      0200000CH   SYMBOL    XDATA    BYTE      cmd
      0200000DH   SYMBOL    XDATA    BYTE      val
      00000020H.0 SYMBOL    BIT      BIT       ret
      ---         BLOCKEND  ---      ---       LVL=1
      010048ABH   LINE      CODE     ---       #10
      010048B0H   LINE      CODE     ---       #11
      010048B0H   LINE      CODE     ---       #15
      010048B6H   LINE      CODE     ---       #16
      010048B9H   LINE      CODE     ---       #18
      010048C5H   LINE      CODE     ---       #19
      010048D3H   LINE      CODE     ---       #21
      010048E2H   LINE      CODE     ---       #22
      010048E5H   LINE      CODE     ---       #24
      010048E8H   LINE      CODE     ---       #25
      010048FBH   LINE      CODE     ---       #27
      01004931H   LINE      CODE     ---       #29
      01004933H   LINE      CODE     ---       #30
      ---         BLOCKEND  ---      ---       LVL=0
LX51 LINKER/LOCATER V4.66.87.0                                                        06/02/2018  22:09:22  PAGE 229



      01003990H   BLOCK     CODE     ---       LVL=0
      0200000AH   SYMBOL    XDATA    CHAR      arg1
      0200000BH   SYMBOL    XDATA    CHAR      arg2
      0100399AH   BLOCK     CODE     NEAR LAB  LVL=1
      0200000CH   SYMBOL    XDATA    BYTE      addr
      0200000DH   SYMBOL    XDATA    BYTE      cmd
      0200000EH   SYMBOL    XDATA    BYTE      val
      00000020H.0 SYMBOL    BIT      BIT       ret
      ---         BLOCKEND  ---      ---       LVL=1
      01003990H   LINE      CODE     ---       #32
      0100399AH   LINE      CODE     ---       #33
      0100399AH   LINE      CODE     ---       #37
      0100399CH   LINE      CODE     ---       #38
      0100399FH   LINE      CODE     ---       #41
      010039A5H   LINE      CODE     ---       #42
      010039B0H   LINE      CODE     ---       #43
      010039B5H   LINE      CODE     ---       #44
      010039B8H   LINE      CODE     ---       #45
      010039B8H   LINE      CODE     ---       #46
      010039D1H   LINE      CODE     ---       #47
      010039D9H   LINE      CODE     ---       #48
      010039DCH   LINE      CODE     ---       #49
      010039DCH   LINE      CODE     ---       #50
      010039DCH   LINE      CODE     ---       #53
      010039E7H   LINE      CODE     ---       #54
      010039F5H   LINE      CODE     ---       #56
      01003A04H   LINE      CODE     ---       #57
      01003A07H   LINE      CODE     ---       #59
      01003A0AH   LINE      CODE     ---       #60
      01003A1CH   LINE      CODE     ---       #61
      01003A52H   LINE      CODE     ---       #63
      01003A54H   LINE      CODE     ---       #64
      ---         BLOCKEND  ---      ---       LVL=0

      01006F1DH   BLOCK     CODE     ---       LVL=0
      02000008H   SYMBOL    XDATA    CHAR      arg1
      02000009H   SYMBOL    XDATA    CHAR      arg2
      01006F1DH   LINE      CODE     ---       #66
      01006F25H   LINE      CODE     ---       #67
      01006F25H   LINE      CODE     ---       #68
      01006F2EH   LINE      CODE     ---       #69
      01006F39H   LINE      CODE     ---       #70
      01006F42H   LINE      CODE     ---       #71
      01006F4DH   LINE      CODE     ---       #72
      01006F4DH   LINE      CODE     ---       #73
      01006F4FH   LINE      CODE     ---       #74
      ---         BLOCKEND  ---      ---       LVL=0

      ---         MODULE    ---      ---       CMD_DBG
      010064DFH   PUBLIC    CODE     ---       _cmd_dbg

      0100821DH   BLOCK     CODE     ---       LVL=0
      ---         BLOCKEND  ---      ---       LVL=0

      010064DFH   BLOCK     CODE     ---       LVL=0
      02000008H   SYMBOL    XDATA    CHAR      arg1
      02000009H   SYMBOL    XDATA    CHAR      arg2
      010064DFH   LINE      CODE     ---       #8
      010064E4H   LINE      CODE     ---       #9
      010064E4H   LINE      CODE     ---       #11
      010064E4H   LINE      CODE     ---       #13
      010064E6H   LINE      CODE     ---       #14
      010064E9H   LINE      CODE     ---       #16
      010064F6H   LINE      CODE     ---       #17
LX51 LINKER/LOCATER V4.66.87.0                                                        06/02/2018  22:09:22  PAGE 230


      010064FFH   LINE      CODE     ---       #18
      01006501H   LINE      CODE     ---       #19
      01006510H   LINE      CODE     ---       #20
      01006519H   LINE      CODE     ---       #21
      0100651EH   LINE      CODE     ---       #22
      01006520H   LINE      CODE     ---       #23
      01006523H   LINE      CODE     ---       #24
      01006523H   LINE      CODE     ---       #26
      01006525H   LINE      CODE     ---       #27
      ---         BLOCKEND  ---      ---       LVL=0

      ---         MODULE    ---      ---       CMD_REBOOT
      01006975H   PUBLIC    CODE     ---       _cmd_reboot
      00000080H   SFRSYM    DATA     BYTE      P0
      00000090H   SFRSYM    DATA     BYTE      P1
      000000A0H   SFRSYM    DATA     BYTE      P2
      000000B0H   SFRSYM    DATA     BYTE      P3
      000000C0H   SFRSYM    DATA     BYTE      XICON
      000000B0H.4 SFRSYM    DATA     BIT       T0
      000000D0H.6 SFRSYM    DATA     BIT       AC
      000000E8H   SFRSYM    DATA     BYTE      P4
      000000B0H.5 SFRSYM    DATA     BIT       T1
      000000E6H   SFRSYM    DATA     BYTE      ISP_TRIG
      00000090H.0 SFRSYM    DATA     BIT       T2
      000000A8H.7 SFRSYM    DATA     BIT       EA
      000000A8H.6 SFRSYM    DATA     BIT       EC
      00000098H.7 SFRSYM    DATA     BIT       FE
      000000A8H   SFRSYM    DATA     BYTE      IE
      000000C8H.6 SFRSYM    DATA     BIT       EXF2
      000000B0H.7 SFRSYM    DATA     BIT       RD
      000000A8H.4 SFRSYM    DATA     BIT       ES
      000000B8H   SFRSYM    DATA     BYTE      IP
      00000098H.0 SFRSYM    DATA     BIT       RI
      000000B0H.2 SFRSYM    DATA     BIT       INT0
      000000D0H.7 SFRSYM    DATA     BIT       CY
      00000098H.1 SFRSYM    DATA     BIT       TI
      000000B0H.3 SFRSYM    DATA     BIT       INT1
      000000CBH   SFRSYM    DATA     BYTE      RCAP2H
      000000E5H   SFRSYM    DATA     BYTE      ISP_CMD
      000000B8H.4 SFRSYM    DATA     BIT       PS
      00000081H   SFRSYM    DATA     BYTE      SP
      00000090H.1 SFRSYM    DATA     BIT       T2EX
      000000D0H.2 SFRSYM    DATA     BIT       OV
      000000CAH   SFRSYM    DATA     BYTE      RCAP2L
      000000C8H.1 SFRSYM    DATA     BIT       C_T2
      000000B0H.6 SFRSYM    DATA     BIT       WR
      000000C8H.5 SFRSYM    DATA     BIT       RCLK
      000000C8H.4 SFRSYM    DATA     BIT       TCLK
      00000080H.0 SFRSYM    DATA     BIT       P00
      00000099H   SFRSYM    DATA     BYTE      SBUF
      00000087H   SFRSYM    DATA     BYTE      PCON
      00000090H.0 SFRSYM    DATA     BIT       P10
      00000080H.1 SFRSYM    DATA     BIT       P01
      000000A0H.0 SFRSYM    DATA     BIT       P20
      00000090H.1 SFRSYM    DATA     BIT       P11
      00000080H.2 SFRSYM    DATA     BIT       P02
      000000E3H   SFRSYM    DATA     BYTE      ISP_ADDRH
      000000B0H.0 SFRSYM    DATA     BIT       P30
      000000A0H.1 SFRSYM    DATA     BIT       P21
      00000090H.2 SFRSYM    DATA     BIT       P12
      00000080H.3 SFRSYM    DATA     BIT       P03
      00000098H   SFRSYM    DATA     BYTE      SCON
      000000B0H.1 SFRSYM    DATA     BIT       P31
      000000A0H.2 SFRSYM    DATA     BIT       P22
      00000090H.3 SFRSYM    DATA     BIT       P13
LX51 LINKER/LOCATER V4.66.87.0                                                        06/02/2018  22:09:22  PAGE 231


      00000080H.4 SFRSYM    DATA     BIT       P04
      000000E8H.0 SFRSYM    DATA     BIT       P40
      00000089H   SFRSYM    DATA     BYTE      TMOD
      00000088H   SFRSYM    DATA     BYTE      TCON
      000000B0H.2 SFRSYM    DATA     BIT       P32
      000000A0H.3 SFRSYM    DATA     BIT       P23
      00000090H.4 SFRSYM    DATA     BIT       P14
      00000080H.5 SFRSYM    DATA     BIT       P05
      000000E8H.1 SFRSYM    DATA     BIT       P41
      000000B0H.3 SFRSYM    DATA     BIT       P33
      000000A0H.4 SFRSYM    DATA     BIT       P24
      00000090H.5 SFRSYM    DATA     BIT       P15
      00000080H.6 SFRSYM    DATA     BIT       P06
      000000E4H   SFRSYM    DATA     BYTE      ISP_ADDRL
      000000E8H.2 SFRSYM    DATA     BIT       P42
      000000B0H.4 SFRSYM    DATA     BIT       P34
      000000A0H.5 SFRSYM    DATA     BIT       P25
      00000090H.6 SFRSYM    DATA     BIT       P16
      00000080H.7 SFRSYM    DATA     BIT       P07
      000000E8H.3 SFRSYM    DATA     BIT       P43
      000000B0H.5 SFRSYM    DATA     BIT       P35
      000000A0H.6 SFRSYM    DATA     BIT       P26
      00000090H.7 SFRSYM    DATA     BIT       P17
      000000E8H.4 SFRSYM    DATA     BIT       P44
      000000B0H.6 SFRSYM    DATA     BIT       P36
      000000A0H.7 SFRSYM    DATA     BIT       P27
      000000E8H.5 SFRSYM    DATA     BIT       P45
      000000B0H.7 SFRSYM    DATA     BIT       P37
      000000E8H.6 SFRSYM    DATA     BIT       P46
      00000088H.1 SFRSYM    DATA     BIT       IE0
      00000088H.3 SFRSYM    DATA     BIT       IE1
      0000008EH   SFRSYM    DATA     BYTE      AUXR
      000000F0H   SFRSYM    DATA     BYTE      B
      000000C8H.0 SFRSYM    DATA     BIT       CP_RL2
      000000E0H   SFRSYM    DATA     BYTE      ACC
      000000A8H.1 SFRSYM    DATA     BIT       ET0
      000000A8H.3 SFRSYM    DATA     BIT       ET1
      00000088H.5 SFRSYM    DATA     BIT       TF0
      000000A8H.5 SFRSYM    DATA     BIT       ET2
      00000088H.7 SFRSYM    DATA     BIT       TF1
      000000C8H.7 SFRSYM    DATA     BIT       TF2
      00000098H.2 SFRSYM    DATA     BIT       RB8
      0000008CH   SFRSYM    DATA     BYTE      TH0
      000000A8H.0 SFRSYM    DATA     BIT       EX0
      00000088H.0 SFRSYM    DATA     BIT       IT0
      0000008DH   SFRSYM    DATA     BYTE      TH1
      00000098H.3 SFRSYM    DATA     BIT       TB8
      000000A8H.2 SFRSYM    DATA     BIT       EX1
      00000088H.2 SFRSYM    DATA     BIT       IT1
      000000CDH   SFRSYM    DATA     BYTE      TH2
      000000D0H.0 SFRSYM    DATA     BIT       P
      00000098H.7 SFRSYM    DATA     BIT       SM0
      0000008AH   SFRSYM    DATA     BYTE      TL0
      00000098H.6 SFRSYM    DATA     BIT       SM1
      0000008BH   SFRSYM    DATA     BYTE      TL1
      00000098H.5 SFRSYM    DATA     BIT       SM2
      000000CCH   SFRSYM    DATA     BYTE      TL2
      000000B8H.1 SFRSYM    DATA     BIT       PT0
      000000B8H.3 SFRSYM    DATA     BIT       PT1
      000000D0H.3 SFRSYM    DATA     BIT       RS0
      000000E7H   SFRSYM    DATA     BYTE      ISP_CONTR
      000000B8H.5 SFRSYM    DATA     BIT       PT2
      00000088H.4 SFRSYM    DATA     BIT       TR0
      000000D0H.4 SFRSYM    DATA     BIT       RS1
      00000088H.6 SFRSYM    DATA     BIT       TR1
LX51 LINKER/LOCATER V4.66.87.0                                                        06/02/2018  22:09:22  PAGE 232


      000000C8H.2 SFRSYM    DATA     BIT       TR2
      000000B8H.0 SFRSYM    DATA     BIT       PX0
      000000E1H   SFRSYM    DATA     BYTE      WDT_CONTR
      000000B8H.2 SFRSYM    DATA     BIT       PX1
      00000083H   SFRSYM    DATA     BYTE      DPH
      00000082H   SFRSYM    DATA     BYTE      DPL
      000000B7H   SFRSYM    DATA     BYTE      IPH
      000000C8H.3 SFRSYM    DATA     BIT       EXEN2
      00000098H.4 SFRSYM    DATA     BIT       REN
      000000C9H   SFRSYM    DATA     BYTE      T2MOD
      000000C8H   SFRSYM    DATA     BYTE      T2CON
      000000E2H   SFRSYM    DATA     BYTE      ISP_DATA
      000000B9H   SFRSYM    DATA     BYTE      SADEN
      000000B0H.0 SFRSYM    DATA     BIT       RXD
      000000A9H   SFRSYM    DATA     BYTE      SADDR
      000000B0H.1 SFRSYM    DATA     BIT       TXD
      000000A2H   SFRSYM    DATA     BYTE      AUXR1
      000000D0H.5 SFRSYM    DATA     BIT       F0
      000000D0H   SFRSYM    DATA     BYTE      PSW

      01006975H   BLOCK     CODE     ---       LVL=0
      00000007H   SYMBOL    DATA     CHAR      arg1
      02000009H   SYMBOL    XDATA    CHAR      arg2
      01006975H   BLOCK     CODE     NEAR LAB  LVL=1
      02000008H   SYMBOL    XDATA    ---       fuck
      ---         BLOCKEND  ---      ---       LVL=1
      01006975H   LINE      CODE     ---       #9
      01006975H   LINE      CODE     ---       #10
      01006975H   LINE      CODE     ---       #13
      01006975H   LINE      CODE     ---       #15
      01006978H   LINE      CODE     ---       #20
      01006987H   LINE      CODE     ---       #21
      0100698AH   LINE      CODE     ---       #23
      0100698DH   LINE      CODE     ---       #24
      010069AAH   LINE      CODE     ---       #29
      010069ADH   LINE      CODE     ---       #30
      010069AFH   LINE      CODE     ---       #32
      010069AFH   LINE      CODE     ---       #33
      010069B1H   LINE      CODE     ---       #34
      ---         BLOCKEND  ---      ---       LVL=0

      ---         MODULE    ---      ---       CMD_TASK
      01003BD3H   PUBLIC    CODE     ---       _cmd_task

      01008901H   BLOCK     CODE     ---       LVL=0
      ---         BLOCKEND  ---      ---       LVL=0

      01003BD3H   BLOCK     CODE     ---       LVL=0
      02000008H   SYMBOL    XDATA    CHAR      arg1
      02000009H   SYMBOL    XDATA    CHAR      arg2
      01003BDDH   BLOCK     CODE     NEAR LAB  LVL=1
      0200000AH   SYMBOL    XDATA    BYTE      tsk
      00000007H   SYMBOL    DATA     BYTE      val
      ---         BLOCKEND  ---      ---       LVL=1
      01003BD3H   LINE      CODE     ---       #6
      01003BDDH   LINE      CODE     ---       #7
      01003BDDH   LINE      CODE     ---       #11
      01003BDFH   LINE      CODE     ---       #12
      01003BE2H   LINE      CODE     ---       #13
      01003BE5H   LINE      CODE     ---       #14
      01003BEEH   LINE      CODE     ---       #15
      01003BF6H   LINE      CODE     ---       #16
      01003BF9H   LINE      CODE     ---       #18
      01003C03H   LINE      CODE     ---       #19
      01003C06H   LINE      CODE     ---       #21
LX51 LINKER/LOCATER V4.66.87.0                                                        06/02/2018  22:09:22  PAGE 233


      01003C09H   LINE      CODE     ---       #22
      01003C3AH   LINE      CODE     ---       #23
      01003C3CH   LINE      CODE     ---       #24
      01003C72H   LINE      CODE     ---       #25
      01003C72H   LINE      CODE     ---       #26
      01003C75H   LINE      CODE     ---       #27
      01003C75H   LINE      CODE     ---       #29
      01003C77H   LINE      CODE     ---       #30
      ---         BLOCKEND  ---      ---       LVL=0

      ---         MODULE    ---      ---       CMD_SM
      01002732H   PUBLIC    CODE     ---       _cmd_sm

      01006A29H   BLOCK     CODE     ---       LVL=0
      ---         BLOCKEND  ---      ---       LVL=0

      01002732H   BLOCK     CODE     ---       LVL=0
      02000008H   SYMBOL    XDATA    CHAR      arg1
      02000009H   SYMBOL    XDATA    CHAR      arg2
      01002732H   LINE      CODE     ---       #8
      0100273CH   LINE      CODE     ---       #9
      0100273CH   LINE      CODE     ---       #10
      0100273EH   LINE      CODE     ---       #11
      01002741H   LINE      CODE     ---       #12
      01002744H   LINE      CODE     ---       #13
      01002752H   LINE      CODE     ---       #14
      01002755H   LINE      CODE     ---       #15
      0100276CH   LINE      CODE     ---       #16
      0100276FH   LINE      CODE     ---       #17
      01002787H   LINE      CODE     ---       #18
      01002795H   LINE      CODE     ---       #19
      010027A2H   LINE      CODE     ---       #20
      010027A2H   LINE      CODE     ---       #21
      010027B9H   LINE      CODE     ---       #22
      010027BCH   LINE      CODE     ---       #23
      010027D4H   LINE      CODE     ---       #24
      010027DFH   LINE      CODE     ---       #25
      010027ECH   LINE      CODE     ---       #26
      010027ECH   LINE      CODE     ---       #27
      01002802H   LINE      CODE     ---       #28
      01002805H   LINE      CODE     ---       #29
      01002822H   LINE      CODE     ---       #30
      0100282DH   LINE      CODE     ---       #31
      0100283DH   LINE      CODE     ---       #32
      0100283DH   LINE      CODE     ---       #33
      0100283FH   LINE      CODE     ---       #34
      01002842H   LINE      CODE     ---       #35
      01002842H   LINE      CODE     ---       #36
      01002842H   LINE      CODE     ---       #37
      01002844H   LINE      CODE     ---       #38
      ---         BLOCKEND  ---      ---       LVL=0

      ---         MODULE    ---      ---       CMD_BEEPER
      01003142H   PUBLIC    CODE     ---       _cmd_beeper

      010076F8H   BLOCK     CODE     ---       LVL=0
      ---         BLOCKEND  ---      ---       LVL=0

      01003142H   BLOCK     CODE     ---       LVL=0
      02000008H   SYMBOL    XDATA    CHAR      arg1
      02000009H   SYMBOL    XDATA    CHAR      arg2
      0100314CH   BLOCK     CODE     NEAR LAB  LVL=1
      0200000AH   SYMBOL    XDATA    CHAR      index
      ---         BLOCKEND  ---      ---       LVL=1
      01003142H   LINE      CODE     ---       #8
LX51 LINKER/LOCATER V4.66.87.0                                                        06/02/2018  22:09:22  PAGE 234


      0100314CH   LINE      CODE     ---       #9
      0100314CH   LINE      CODE     ---       #11
      01003163H   LINE      CODE     ---       #12
      01003166H   LINE      CODE     ---       #13
      0100317DH   LINE      CODE     ---       #14
      01003180H   LINE      CODE     ---       #15
      01003197H   LINE      CODE     ---       #16
      0100319CH   LINE      CODE     ---       #17
      010031A2H   LINE      CODE     ---       #18
      010031BBH   LINE      CODE     ---       #19
      010031C0H   LINE      CODE     ---       #20
      010031C6H   LINE      CODE     ---       #21
      010031DFH   LINE      CODE     ---       #22
      010031E7H   LINE      CODE     ---       #23
      010031EAH   LINE      CODE     ---       #24
      01003203H   LINE      CODE     ---       #25
      0100321CH   LINE      CODE     ---       #26
      01003225H   LINE      CODE     ---       #27
      01003228H   LINE      CODE     ---       #28
      0100322AH   LINE      CODE     ---       #29
      0100322DH   LINE      CODE     ---       #30
      0100322DH   LINE      CODE     ---       #31
      0100322FH   LINE      CODE     ---       #32
      ---         BLOCKEND  ---      ---       LVL=0

      ---         MODULE    ---      ---       CMD_THERMO
      010025E6H   PUBLIC    CODE     ---       _cmd_thermo

      01007B67H   BLOCK     CODE     ---       LVL=0
      ---         BLOCKEND  ---      ---       LVL=0

      010025E6H   BLOCK     CODE     ---       LVL=0
      02000008H   SYMBOL    XDATA    CHAR      arg1
      02000009H   SYMBOL    XDATA    CHAR      arg2
      010025F0H   BLOCK     CODE     NEAR LAB  LVL=1
      0200000AH   SYMBOL    XDATA    CHAR      val
      ---         BLOCKEND  ---      ---       LVL=1
      010025E6H   LINE      CODE     ---       #8
      010025F0H   LINE      CODE     ---       #9
      010025F0H   LINE      CODE     ---       #11
      010025F2H   LINE      CODE     ---       #12
      010025F5H   LINE      CODE     ---       #13
      010025FCH   LINE      CODE     ---       #14
      01002604H   LINE      CODE     ---       #15
      01002611H   LINE      CODE     ---       #16
      01002613H   LINE      CODE     ---       #17
      01002622H   LINE      CODE     ---       #18
      01002627H   LINE      CODE     ---       #19
      01002637H   LINE      CODE     ---       #20
      0100263AH   LINE      CODE     ---       #21
      01002641H   LINE      CODE     ---       #22
      01002650H   LINE      CODE     ---       #23
      01002653H   LINE      CODE     ---       #24
      01002661H   LINE      CODE     ---       #25
      01002664H   LINE      CODE     ---       #26
      01002667H   LINE      CODE     ---       #27
      01002667H   LINE      CODE     ---       #28
      01002667H   LINE      CODE     ---       #29
      01002674H   LINE      CODE     ---       #30
      01002684H   LINE      CODE     ---       #31
      01002687H   LINE      CODE     ---       #32
      0100269AH   LINE      CODE     ---       #33
      0100269DH   LINE      CODE     ---       #34
      010026AFH   LINE      CODE     ---       #35
      010026B2H   LINE      CODE     ---       #36
LX51 LINKER/LOCATER V4.66.87.0                                                        06/02/2018  22:09:22  PAGE 235


      010026B4H   LINE      CODE     ---       #37
      010026B7H   LINE      CODE     ---       #38
      010026BAH   LINE      CODE     ---       #39
      010026BAH   LINE      CODE     ---       #40
      010026C9H   LINE      CODE     ---       #41
      010026D9H   LINE      CODE     ---       #42
      010026DCH   LINE      CODE     ---       #43
      010026EEH   LINE      CODE     ---       #44
      010026F1H   LINE      CODE     ---       #45
      01002703H   LINE      CODE     ---       #46
      01002706H   LINE      CODE     ---       #47
      01002708H   LINE      CODE     ---       #48
      0100270BH   LINE      CODE     ---       #49
      0100270EH   LINE      CODE     ---       #50
      0100270EH   LINE      CODE     ---       #51
      01002710H   LINE      CODE     ---       #52
      01002713H   LINE      CODE     ---       #53
      01002713H   LINE      CODE     ---       #54
      01002713H   LINE      CODE     ---       #55
      01002715H   LINE      CODE     ---       #56
      ---         BLOCKEND  ---      ---       LVL=0

      ---         MODULE    ---      ---       CMD_MPU
      01004F17H   PUBLIC    CODE     ---       _cmd_mpu

      0100840DH   BLOCK     CODE     ---       LVL=0
      ---         BLOCKEND  ---      ---       LVL=0

      01004F17H   BLOCK     CODE     ---       LVL=0
      02000008H   SYMBOL    XDATA    CHAR      arg1
      02000009H   SYMBOL    XDATA    CHAR      arg2
      01004F17H   LINE      CODE     ---       #10
      01004F21H   LINE      CODE     ---       #11
      01004F21H   LINE      CODE     ---       #12
      01004F43H   LINE      CODE     ---       #13
      01004F45H   LINE      CODE     ---       #14
      01004F5BH   LINE      CODE     ---       #15
      01004F60H   LINE      CODE     ---       #16
      01004F76H   LINE      CODE     ---       #17
      01004F87H   LINE      CODE     ---       #18
      01004F89H   LINE      CODE     ---       #19
      01004F8CH   LINE      CODE     ---       #20
      01004F8CH   LINE      CODE     ---       #21
      01004F8EH   LINE      CODE     ---       #22
      ---         BLOCKEND  ---      ---       LVL=0

      ---         MODULE    ---      ---       ?C?FPMUL
      0100002EH   PUBLIC    CODE     ---       ?C?FPMUL

      ---         MODULE    ---      ---       ?C?FPDIV
      01000137H   PUBLIC    CODE     ---       ?C?FPDIV

      ---         MODULE    ---      ---       ?C?FCAST
      010001DEH   PUBLIC    CODE     ---       ?C?FCASTC
      010001D9H   PUBLIC    CODE     ---       ?C?FCASTI
      010001D4H   PUBLIC    CODE     ---       ?C?FCASTL

      ---         MODULE    ---      ---       ?C?CASTF
      01000212H   PUBLIC    CODE     ---       ?C?CASTF

      ---         MODULE    ---      ---       PRINTF
      0200004FH   PUBLIC    XDATA    ---       ?_PRINTF?BYTE
      0200004FH   PUBLIC    XDATA    ---       ?_SPRINTF?BYTE
      01000B34H   PUBLIC    CODE     ---       _PRINTF
      01000B2EH   PUBLIC    CODE     ---       _SPRINTF
LX51 LINKER/LOCATER V4.66.87.0                                                        06/02/2018  22:09:22  PAGE 236



      ---         MODULE    ---      ---       VPRINTF
      02010049H   PUBLIC    XDATA    ---       ?_VPRINTF?BYTE
      01006DE6H   PUBLIC    CODE     ---       _VPRINTF

      ---         MODULE    ---      ---       ?C?FPGETOPN
      01000249H   PUBLIC    CODE     ---       ?C?FPGETOPN2
      0100027EH   PUBLIC    CODE     ---       ?C?FPNANRESULT
      01000288H   PUBLIC    CODE     ---       ?C?FPOVERFLOW
      01000260H   PUBLIC    CODE     ---       ?C?FPRESULT
      01000274H   PUBLIC    CODE     ---       ?C?FPRESULT2
      01000285H   PUBLIC    CODE     ---       ?C?FPUNDERFLOW

      ---         MODULE    ---      ---       ?C?FPROUND
      01000293H   PUBLIC    CODE     ---       ?C?FPROUND

      ---         MODULE    ---      ---       ?C?FPCONVERT
      010002D0H   PUBLIC    CODE     ---       ?C?FPCONVERT

      ---         MODULE    ---      ---       ?C?FPADD
      010003DCH   PUBLIC    CODE     ---       ?C?FPADD
      010003D8H   PUBLIC    CODE     ---       ?C?FPSUB

      ---         MODULE    ---      ---       ?C?FTNPWR
      010004FDH   PUBLIC    CODE     ---       ?C?FTNPWR

      ---         MODULE    ---      ---       ?C?SCDIV
      0100053DH   PUBLIC    CODE     ---       ?C?SCDIV

      ---         MODULE    ---      ---       ?C?CLDPTR
      0100055FH   PUBLIC    CODE     ---       ?C?CLDPTR

      ---         MODULE    ---      ---       ?C?CLDOPTR
      01000578H   PUBLIC    CODE     ---       ?C?CLDOPTR

      ---         MODULE    ---      ---       ?C?CSTPTR
      010005A5H   PUBLIC    CODE     ---       ?C?CSTPTR

      ---         MODULE    ---      ---       ?C?IMUL
      010005B7H   PUBLIC    CODE     ---       ?C?IMUL

      ---         MODULE    ---      ---       ?C?UIDIV
      010005C9H   PUBLIC    CODE     ---       ?C?UIDIV

      ---         MODULE    ---      ---       ?C?IILDX
      0100061EH   PUBLIC    CODE     ---       ?C?IILDX

      ---         MODULE    ---      ---       ?C?ILDOPTR
      01000634H   PUBLIC    CODE     ---       ?C?ILDOPTR

      ---         MODULE    ---      ---       ?C?LADD
      0100066CH   PUBLIC    CODE     ---       ?C?LADD

      ---         MODULE    ---      ---       ?C?LSUB
      01000679H   PUBLIC    CODE     ---       ?C?LSUB

      ---         MODULE    ---      ---       ?C?LNEG
      01000687H   PUBLIC    CODE     ---       ?C?LNEG

      ---         MODULE    ---      ---       ?C?SLCMP
      01000695H   PUBLIC    CODE     ---       ?C?SLCMP

      ---         MODULE    ---      ---       ?C?LLDXDATA
      010006ABH   PUBLIC    CODE     ---       ?C?LLDXDATA

LX51 LINKER/LOCATER V4.66.87.0                                                        06/02/2018  22:09:22  PAGE 237


      ---         MODULE    ---      ---       ?C?LLDXDATA0
      010006B7H   PUBLIC    CODE     ---       ?C?LLDXDATA0

      ---         MODULE    ---      ---       ?C?LSTXDATA
      010006C3H   PUBLIC    CODE     ---       ?C?LSTXDATA

      ---         MODULE    ---      ---       ?C?LSTKXDATA
      010006CFH   PUBLIC    CODE     ---       ?C?LSTKXDATA

      ---         MODULE    ---      ---       ?C?OFFX256
      01000700H   PUBLIC    CODE     ---       ?C?OFFX256

      ---         MODULE    ---      ---       ?C?OFFXADD
      01000711H   PUBLIC    CODE     ---       ?C?OFFXADD

      ---         MODULE    ---      ---       ?C?PLDXDATA
      0100071DH   PUBLIC    CODE     ---       ?C?PLDXDATA

      ---         MODULE    ---      ---       ?C?PLDIXDATA
      01000726H   PUBLIC    CODE     ---       ?C?PLDIXDATA

      ---         MODULE    ---      ---       ?C?PSTXDATA
      0100073DH   PUBLIC    CODE     ---       ?C?PSTXDATA

      ---         MODULE    ---      ---       ?C?PLDCODE
      01000746H   PUBLIC    CODE     ---       ?C?PLDCODE

      ---         MODULE    ---      ---       ?C?PLDPTR
      01000752H   PUBLIC    CODE     ---       ?C?PLDPTR

      ---         MODULE    ---      ---       ?C?PLDOPTR
      01000772H   PUBLIC    CODE     ---       ?C?PLDOPTR

      ---         MODULE    ---      ---       ?C?CCASE
      010007A2H   PUBLIC    CODE     ---       ?C?CCASE

      ---         MODULE    ---      ---       ?C?ICALL
      010007C8H   PUBLIC    CODE     ---       ?C?ICALL
      010007CCH   PUBLIC    CODE     ---       ?C?ICALL2

      ---         MODULE    ---      ---       ?C_XBP
      0000001DH   PUBLIC    DATA     ---       ?C_XBP

      ---         MODULE    ---      ---       GETS
      01003230H   PUBLIC    CODE     ---       _GETS

      ---         MODULE    ---      ---       ATOI
      010033FBH   PUBLIC    CODE     ---       _ATOI

      ---         MODULE    ---      ---       ?C?MEMSET
      010007CEH   PUBLIC    CODE     ---       ?C?MEMSET

      ---         MODULE    ---      ---       ?C?COPYP2
      010008C6H   PUBLIC    CODE     ---       ?C?COPYP2

      ---         MODULE    ---      ---       ?C?STRCMPP2
      01000A62H   PUBLIC    CODE     ---       ?C?STRCMPP2

      ---         MODULE    ---      ---       ?C?CSTOPTR
      01000A7FH   PUBLIC    CODE     ---       ?C?CSTOPTR

      ---         MODULE    ---      ---       ?C?ILDIX
      01000AA1H   PUBLIC    CODE     ---       ?C?ILDIX

      ---         MODULE    ---      ---       ?C?PLDIDATA
LX51 LINKER/LOCATER V4.66.87.0                                                        06/02/2018  22:09:22  PAGE 238


      01000AB7H   PUBLIC    CODE     ---       ?C?PLDIDATA

      ---         MODULE    ---      ---       ?C?PLDPDATA
      01000AC0H   PUBLIC    CODE     ---       ?C?PLDPDATA

      ---         MODULE    ---      ---       GETCHAR
      00000025H.5 PUBLIC    BIT      ---       ?C?CHARLOADED
      020000ECH   PUBLIC    XDATA    ---       ?_UNGETCHAR?BYTE
      010085E2H   PUBLIC    CODE     ---       GETCHAR

      ---         MODULE    ---      ---       ISDIGIT
      01008910H   PUBLIC    CODE     ---       _ISDIGIT

      ---         MODULE    ---      ---       ISSPACE
      010085F6H   PUBLIC    CODE     ---       _ISSPACE



FUNCTION REGISTER MASKS


FUNCTION . . . . . . . . . . . . . . REG MASK
==============================================

_clock_get_mon_date. . . . . . . . . @0x1e000ca0
_clock_is_leap_year. . . . . . . . . @0x1e000c80
_clock_switch_display_mode . . . . . @0x0e000800
_clock_yymmdd_to_day . . . . . . . . @0x1e000cfd
_delay_10us. . . . . . . . . . . . . @0x080008c0
_delay_ms. . . . . . . . . . . . . . @0x080008e0
_getkey. . . . . . . . . . . . . . . @0x1e000881
_I2C_Write . . . . . . . . . . . . . @0x180008e0
_int_hub_test_bit. . . . . . . . . . @0x180008c1
_isdigit . . . . . . . . . . . . . . @0x18000800
_isspace . . . . . . . . . . . . . . @0x18000800
_led_clr_blink . . . . . . . . . . . @0x18000801
_led_clr_dp. . . . . . . . . . . . . @0x18000801
_led_set_blink . . . . . . . . . . . @0x18000801
_led_set_code. . . . . . . . . . . . @0x1e0008c3
_led_set_dp. . . . . . . . . . . . . @0x18000801
_mpu_threshold_inc . . . . . . . . . @0x18000880
_putbuf. . . . . . . . . . . . . . . @0x1e0008c1
_putchar . . . . . . . . . . . . . . @0x1e0008e1
_rtc_alarm_set_date. . . . . . . . . @0x1e000cce
_rtc_alarm_set_day . . . . . . . . . @0x1e000800
_rtc_alarm_set_hour. . . . . . . . . @0x1e000cce
_rtc_alarm_set_min . . . . . . . . . @0x1e000cce
_rtc_alarm_set_mode. . . . . . . . . @0x1e000820
_rtc_alarm_set_sec . . . . . . . . . @0x1e000cc0
_rtc_clr_alarm_int_flag. . . . . . . @0x1e000800
_rtc_date_set_day. . . . . . . . . . @0x1e000800
_rtc_date_set_month. . . . . . . . . @0x1e000cc0
_rtc_date_set_year . . . . . . . . . @0x1e000cc0
_rtc_enable_alarm_int. . . . . . . . @0x1e000800
_rtc_set_square_rate . . . . . . . . @0x1e000840
_rtc_test_alarm_int. . . . . . . . . @0x1e000800
_rtc_test_alarm_int_flag . . . . . . @0x1e000800
_rtc_time_set_hour . . . . . . . . . @0x1e000cce
_rtc_time_set_min. . . . . . . . . . @0x1e000cce
_rtc_time_set_sec. . . . . . . . . . @0x1e000cce
_scan_key_proc . . . . . . . . . . . @0x1e0008c1
_serial_set_ctl_bit. . . . . . . . . @0x1e000861
_serial_test_ctl_bit . . . . . . . . @0x1e0008f1
_timer_get_hour. . . . . . . . . . . @0x1e000880
_timer_get_min . . . . . . . . . . . @0x1e000880
LX51 LINKER/LOCATER V4.66.87.0                                                        06/02/2018  22:09:22  PAGE 239


_timer_get_sec . . . . . . . . . . . @0x1e000880
_timer_inc_hour. . . . . . . . . . . @0x1e000c00
_timer_inc_min . . . . . . . . . . . @0x1e000c00
_timer_inc_sec . . . . . . . . . . . @0x1e000c00
_timer_set_mode. . . . . . . . . . . @0x0e000800
alarm0_get_day_mask. . . . . . . . . @0x0e000880
alarm0_get_hour. . . . . . . . . . . @0x0e000880
alarm0_get_hour_12 . . . . . . . . . @0x18000000
alarm0_get_min . . . . . . . . . . . @0x0e000880
alarm0_inc_hour. . . . . . . . . . . @0x1e000c00
alarm0_inc_min . . . . . . . . . . . @0x1e000c00
alarm0_set_hour_12 . . . . . . . . . @0x18000000
alarm1_set_enable. . . . . . . . . . @0x18000000
alarm1_test_enable . . . . . . . . . @0x18000000
beeper_get_beep_enable . . . . . . . @0x18000000
beeper_get_music_index . . . . . . . @0x0e000880
beeper_get_music_to. . . . . . . . . @0x0e000880
beeper_inc_music_to. . . . . . . . . @0x1e000cf1
beeper_set_beep_enable . . . . . . . @0x18000000
beeper_stop_music. . . . . . . . . . @0x0e000800
clock_clr_sec. . . . . . . . . . . . @0x08000801
clock_display. . . . . . . . . . . . @0x18000000
clock_enable_interrupt . . . . . . . @0x18000000
clock_enter_shell. . . . . . . . . . @0x80000000
clock_get_date . . . . . . . . . . . @0x08000881
clock_get_day. . . . . . . . . . . . @0x08000881
clock_get_hour . . . . . . . . . . . @0x08000881
clock_get_hour_12. . . . . . . . . . @0x18000000
clock_get_min. . . . . . . . . . . . @0x08000881
clock_get_month. . . . . . . . . . . @0x08000881
clock_get_ms39 . . . . . . . . . . . @0x08000881
clock_get_sec. . . . . . . . . . . . @0x08000881
clock_get_sec_256. . . . . . . . . . @0x08000881
clock_get_year . . . . . . . . . . . @0x08000881
clock_inc_hour . . . . . . . . . . . @0x18000c01
clock_inc_min. . . . . . . . . . . . @0x18000c01
clock_inc_month. . . . . . . . . . . @0x1e000cfd
clock_inc_year . . . . . . . . . . . @0x1e000cfd
clock_set_hour_12. . . . . . . . . . @0x18000000
com_initialize . . . . . . . . . . . @0x0e000800
com_try_get_key. . . . . . . . . . . @0x1e000881
debug_initialize . . . . . . . . . . @0x80000000
debug_onoff. . . . . . . . . . . . . @0x18000000
I2C_Delay. . . . . . . . . . . . . . @0x18000880
I2C_GetAck . . . . . . . . . . . . . @0x180008c0
I2C_Init . . . . . . . . . . . . . . @0x18000880
I2C_PutAck . . . . . . . . . . . . . @0x18000880
I2C_Read . . . . . . . . . . . . . . @0x180008e0
I2C_Start. . . . . . . . . . . . . . @0x18000880
I2C_Stop . . . . . . . . . . . . . . @0x180008b0
lt_timer_dec_sec . . . . . . . . . . @0x1e000c81
lt_timer_get_date. . . . . . . . . . @0x08000881
lt_timer_get_hour. . . . . . . . . . @0x08000881
lt_timer_get_hour_12 . . . . . . . . @0x18000000
lt_timer_get_min . . . . . . . . . . @0x08000881
lt_timer_get_month . . . . . . . . . @0x08000881
lt_timer_get_sec . . . . . . . . . . @0x08000881
lt_timer_get_year. . . . . . . . . . @0x08000881
lt_timer_inc_date. . . . . . . . . . @0x1e000ca1
lt_timer_inc_hour. . . . . . . . . . @0x18000c01
lt_timer_inc_min . . . . . . . . . . @0x18000c01
lt_timer_inc_month . . . . . . . . . @0x18000c01
lt_timer_inc_sec . . . . . . . . . . @0x18000c01
lt_timer_inc_year. . . . . . . . . . @0x18000c01
lt_timer_set_hour_12 . . . . . . . . @0x18000000
LX51 LINKER/LOCATER V4.66.87.0                                                        06/02/2018  22:09:22  PAGE 240


power_5v_get_enable. . . . . . . . . @0x18000000
power_clr_flag . . . . . . . . . . . @0x80000000
power_get_powersave_to . . . . . . . @0x1e000880
power_get_powersave_to_s . . . . . . @0x0e000880
power_get_volume . . . . . . . . . . @0x08000080
power_inc_powersave_to . . . . . . . @0x1e000800
power_reset_powersave_to . . . . . . @0x0e000881
power_set_flag . . . . . . . . . . . @0x80000000
power_test_flag. . . . . . . . . . . @0x18000000
refresh_led. . . . . . . . . . . . . @0x1e0008e9
rom_is_factory_reset . . . . . . . . @0x18000000
rtc_alarm_get_date . . . . . . . . . @0x1e000cc0
rtc_alarm_get_day. . . . . . . . . . @0x1e000880
rtc_alarm_get_hour . . . . . . . . . @0x1e000ce0
rtc_alarm_get_hour_12. . . . . . . . @0x1e000880
rtc_alarm_get_min. . . . . . . . . . @0x1e000cc0
rtc_alarm_get_mod_str. . . . . . . . @0x1e000cfe
rtc_alarm_get_mode . . . . . . . . . @0x0e0008fa
rtc_alarm_get_sec. . . . . . . . . . @0x1e000cc0
rtc_alarm_set_hour_12. . . . . . . . @0x1e000cee
rtc_date_get_date. . . . . . . . . . @0x1e000cc0
rtc_date_get_day . . . . . . . . . . @0x0e000880
rtc_date_get_month . . . . . . . . . @0x1e000cc0
rtc_date_get_year. . . . . . . . . . @0x1e000cc0
rtc_get_square_rate. . . . . . . . . @0x1e000880
rtc_get_square_rate_str. . . . . . . @0x1e000c8e
rtc_is_lt_timer. . . . . . . . . . . @0x18000000
rtc_set_bbsqw. . . . . . . . . . . . @0x0e000800
rtc_set_conv . . . . . . . . . . . . @0x0e000800
rtc_set_en32khz. . . . . . . . . . . @0x0e000800
rtc_set_eosc . . . . . . . . . . . . @0x0e000800
rtc_set_intcn. . . . . . . . . . . . @0x0e000800
rtc_set_lt_timer . . . . . . . . . . @0x18000000
rtc_set_osf. . . . . . . . . . . . . @0x0e000800
rtc_test_bbsqw . . . . . . . . . . . @0x1e000800
rtc_test_bsy . . . . . . . . . . . . @0x1e000800
rtc_test_conv. . . . . . . . . . . . @0x1e000800
rtc_test_en32khz . . . . . . . . . . @0x1e000800
rtc_test_eosc. . . . . . . . . . . . @0x1e000800
rtc_test_intcn . . . . . . . . . . . @0x1e000800
rtc_test_osf . . . . . . . . . . . . @0x1e000800
rtc_time_get_hour. . . . . . . . . . @0x1e000ce0
rtc_time_get_hour_12 . . . . . . . . @0x1e000880
rtc_time_get_min . . . . . . . . . . @0x1e000cc0
rtc_time_get_sec . . . . . . . . . . @0x1e000cc0
rtc_time_set_hour_12 . . . . . . . . @0x1e000cee
timer_set_led_autorefresh. . . . . . @0x1e000800
timer_stop . . . . . . . . . . . . . @0x80000000



*** WARNING L13: RECURSIVE CALL TO FUNCTION
    CALLED:  ?CO?TASK
    CALLER:  _RUN_STATE_MACHINE/SM

*** WARNING L13: RECURSIVE CALL TO FUNCTION
    CALLED:  ?CO?SHELL
    CALLER:  SHELL

*** WARNING L13: RECURSIVE CALL TO FUNCTION
    CALLED:  ?CO?SHELL
    CALLER:  SHELL_DUMP_CMD/SHELL

*** WARNING L13: RECURSIVE CALL TO FUNCTION
    CALLED:  ?CO?SHELL
LX51 LINKER/LOCATER V4.66.87.0                                                        06/02/2018  22:09:22  PAGE 241


    CALLER:  _CMD_HELP/CMD_HELP

*** WARNING L57: UNCALLED FUNCTION, IGNORED FOR OVERLAY PROCESS
    NAME:    _RTC_ALARM_SET_DAY/RTC

*** WARNING L57: UNCALLED FUNCTION, IGNORED FOR OVERLAY PROCESS
    NAME:    RTC_SET_EOSC/RTC

*** WARNING L57: UNCALLED FUNCTION, IGNORED FOR OVERLAY PROCESS
    NAME:    RTC_SET_BBSQW/RTC

*** WARNING L57: UNCALLED FUNCTION, IGNORED FOR OVERLAY PROCESS
    NAME:    RTC_SET_CONV/RTC

*** WARNING L57: UNCALLED FUNCTION, IGNORED FOR OVERLAY PROCESS
    NAME:    _RTC_SET_SQUARE_RATE/RTC

*** WARNING L57: UNCALLED FUNCTION, IGNORED FOR OVERLAY PROCESS
    NAME:    RTC_SET_OSF/RTC

*** WARNING L16: UNCALLED SEGMENT, IGNORED FOR OVERLAY PROCESS
    NAME:    ALARM_SAVE_ROM/ALARM

*** WARNING L57: UNCALLED FUNCTION, IGNORED FOR OVERLAY PROCESS
    NAME:    CLOCK_GET_MS39/CLOCK

*** WARNING L57: UNCALLED FUNCTION, IGNORED FOR OVERLAY PROCESS
    NAME:    THERMO_HI_THRESHOLD_REACH_TOP/THERMO

*** WARNING L57: UNCALLED FUNCTION, IGNORED FOR OVERLAY PROCESS
    NAME:    THERMO_LO_THRESHOLD_REACH_BOTTOM/THERMO

Program Size: data=81.6 xdata=237 const=18362 code=36259
LX51 RUN COMPLETE.  14 WARNING(S),  0 ERROR(S)
