LX51 LINKER/LOCATER V4.66.87.0                                                          05/30/2018  17:25:18  PAGE 1


LX51 LINKER/LOCATER V4.66.87.0, INVOKED BY:
C:\KEIL\C51\BIN\LX51.EXE sm.obj, main.obj, STARTUP.obj, com.obj, rtc.obj, i2c.obj, key.obj, task.obj, led.obj, alarm.obj
>> , power.obj, misc.obj, mod_common.obj, beeper.obj, clock.obj, timer.obj, int_hub.obj, fuse.obj, hg.obj, lt_timer.obj,
>>  serial_hub.obj, thermo.obj, rom.obj, delay_task.obj, shell.obj, debug.obj, mpu.obj, sm_clock_timer.obj, sm_clock_cou
>> nter.obj, sm_clock_display.obj, sm_clock_powersave.obj, sm_clock_mod_alarm.obj, sm_clock_alarm.obj, sm_clock_mod_time
>> .obj, sm_power_pack_display.obj, sm_power_pack_powersave.obj, sm_fuse_test.obj, sm_fuse_param.obj, sm_fuse_timer.obj,
>>  sm_fuse_detonate.obj, sm_fuse_powersave.obj, sm_global_flag_mod.obj, cmd_help.obj, cmd_serial.obj, cmd_int.obj, cmd_
>> i2c.obj, cmd_dbg.obj, cmd_reboot.obj, cmd_task.obj, cmd_sm.obj, cmd_beeper.obj, cmd_thermo.obj, cmd_mpu.obj TO Clock 
>> REGFILE (.\Clock.ORC) CLASSES (XDATA (X:0X0-X:0X3FF), HDATA (X:0X0-X:0X3FF), ECODE (C:0X0-C:0XFFFF), HCONST (C:0X0-C:
>> 0XFFFF))




PROGRAM RECURSIONS REMOVED FROM CALL TREE
=========================================
+--> ?CO?TASK
|  | _TIME_PROC/SM
<--+ _RUN_STATE_MACHINE/SM


+--> ?CO?SHELL
|  | _CMD_HELP/CMD_HELP
|  | SHELL_DUMP_CMD/SHELL
<--+ SHELL


+--> ?CO?SHELL
|  | _CMD_HELP/CMD_HELP
<--+ SHELL_DUMP_CMD/SHELL


+--> ?CO?SHELL
<--+ _CMD_HELP/CMD_HELP



CPU MODE:     8051 MODE
MEMORY MODEL: LARGE WITH FLOATING POINT ARITHMETIC


INPUT MODULES INCLUDED:
  sm.obj (SM)
         COMMENT TYPE 0: C51 V9.57.0.0
  main.obj (MAIN)
         COMMENT TYPE 0: C51 V9.57.0.0
  STARTUP.obj (?C_STARTUP)
         COMMENT TYPE 0: AX51 V3.15.3.0
  com.obj (COM)
         COMMENT TYPE 0: C51 V9.57.0.0
  rtc.obj (RTC)
         COMMENT TYPE 0: C51 V9.57.0.0
  i2c.obj (I2C)
         COMMENT TYPE 0: C51 V9.57.0.0
  key.obj (KEY)
         COMMENT TYPE 0: C51 V9.57.0.0
  task.obj (TASK)
         COMMENT TYPE 0: C51 V9.57.0.0
  led.obj (LED)
         COMMENT TYPE 0: C51 V9.57.0.0
  alarm.obj (ALARM)
         COMMENT TYPE 0: C51 V9.57.0.0
  power.obj (POWER)
         COMMENT TYPE 0: C51 V9.57.0.0
  misc.obj (MISC)
         COMMENT TYPE 0: C51 V9.57.0.0
LX51 LINKER/LOCATER V4.66.87.0                                                        05/30/2018  17:25:18  PAGE 2


  mod_common.obj (MOD_COMMON)
         COMMENT TYPE 0: C51 V9.57.0.0
  beeper.obj (BEEPER)
         COMMENT TYPE 0: C51 V9.57.0.0
  clock.obj (CLOCK)
         COMMENT TYPE 0: C51 V9.57.0.0
  timer.obj (TIMER)
         COMMENT TYPE 0: C51 V9.57.0.0
  int_hub.obj (INT_HUB)
         COMMENT TYPE 0: C51 V9.57.0.0
  fuse.obj (FUSE)
         COMMENT TYPE 0: C51 V9.57.0.0
  hg.obj (HG)
         COMMENT TYPE 0: C51 V9.57.0.0
  lt_timer.obj (LT_TIMER)
         COMMENT TYPE 0: C51 V9.57.0.0
  serial_hub.obj (SERIAL_HUB)
         COMMENT TYPE 0: C51 V9.57.0.0
  thermo.obj (THERMO)
         COMMENT TYPE 0: C51 V9.57.0.0
  rom.obj (ROM)
         COMMENT TYPE 0: C51 V9.57.0.0
  delay_task.obj (DELAY_TASK)
         COMMENT TYPE 0: C51 V9.57.0.0
  shell.obj (SHELL)
         COMMENT TYPE 0: C51 V9.57.0.0
  debug.obj (DEBUG)
         COMMENT TYPE 0: C51 V9.57.0.0
  mpu.obj (MPU)
         COMMENT TYPE 0: C51 V9.57.0.0
  sm_clock_timer.obj (SM_CLOCK_TIMER)
         COMMENT TYPE 0: C51 V9.57.0.0
  sm_clock_counter.obj (SM_CLOCK_COUNTER)
         COMMENT TYPE 0: C51 V9.57.0.0
  sm_clock_display.obj (SM_CLOCK_DISPLAY)
         COMMENT TYPE 0: C51 V9.57.0.0
  sm_clock_powersave.obj (SM_CLOCK_POWERSAVE)
         COMMENT TYPE 0: C51 V9.57.0.0
  sm_clock_mod_alarm.obj (SM_CLOCK_MOD_ALARM)
         COMMENT TYPE 0: C51 V9.57.0.0
  sm_clock_alarm.obj (SM_CLOCK_ALARM)
         COMMENT TYPE 0: C51 V9.57.0.0
  sm_clock_mod_time.obj (SM_CLOCK_MOD_TIME)
         COMMENT TYPE 0: C51 V9.57.0.0
  sm_power_pack_display.obj (SM_POWER_PACK_DISPLAY)
         COMMENT TYPE 0: C51 V9.57.0.0
  sm_power_pack_powersave.obj (SM_POWER_PACK_POWERSAVE)
         COMMENT TYPE 0: C51 V9.57.0.0
  sm_fuse_test.obj (SM_FUSE_TEST)
         COMMENT TYPE 0: C51 V9.57.0.0
  sm_fuse_param.obj (SM_FUSE_PARAM)
         COMMENT TYPE 0: C51 V9.57.0.0
  sm_fuse_timer.obj (SM_FUSE_TIMER)
         COMMENT TYPE 0: C51 V9.57.0.0
  sm_fuse_detonate.obj (SM_FUSE_DETONATE)
         COMMENT TYPE 0: C51 V9.57.0.0
  sm_fuse_powersave.obj (SM_FUSE_POWERSAVE)
         COMMENT TYPE 0: C51 V9.57.0.0
  sm_global_flag_mod.obj (SM_GLOBAL_FLAG_MOD)
         COMMENT TYPE 0: C51 V9.57.0.0
  cmd_help.obj (CMD_HELP)
         COMMENT TYPE 0: C51 V9.57.0.0
  cmd_serial.obj (CMD_SERIAL)
         COMMENT TYPE 0: C51 V9.57.0.0
  cmd_int.obj (CMD_INT)
LX51 LINKER/LOCATER V4.66.87.0                                                        05/30/2018  17:25:18  PAGE 3


         COMMENT TYPE 0: C51 V9.57.0.0
  cmd_i2c.obj (CMD_I2C)
         COMMENT TYPE 0: C51 V9.57.0.0
  cmd_dbg.obj (CMD_DBG)
         COMMENT TYPE 0: C51 V9.57.0.0
  cmd_reboot.obj (CMD_REBOOT)
         COMMENT TYPE 0: C51 V9.57.0.0
  cmd_task.obj (CMD_TASK)
         COMMENT TYPE 0: C51 V9.57.0.0
  cmd_sm.obj (CMD_SM)
         COMMENT TYPE 0: C51 V9.57.0.0
  cmd_beeper.obj (CMD_BEEPER)
         COMMENT TYPE 0: C51 V9.57.0.0
  cmd_thermo.obj (CMD_THERMO)
         COMMENT TYPE 0: C51 V9.57.0.0
  cmd_mpu.obj (CMD_MPU)
         COMMENT TYPE 0: C51 V9.57.0.0
  C:\KEIL\C51\LIB\C51FPL.LIB (?C?FPMUL)
         COMMENT TYPE 1: A51 / ASM51 Assembler
  C:\KEIL\C51\LIB\C51FPL.LIB (?C?FPDIV)
         COMMENT TYPE 1: A51 / ASM51 Assembler
  C:\KEIL\C51\LIB\C51FPL.LIB (?C?FCAST)
         COMMENT TYPE 1: A51 / ASM51 Assembler
  C:\KEIL\C51\LIB\C51FPL.LIB (?C?CASTF)
         COMMENT TYPE 1: A51 / ASM51 Assembler
  C:\KEIL\C51\LIB\C51FPL.LIB (PRINTF)
         COMMENT TYPE 1: A51 / ASM51 Assembler
  C:\KEIL\C51\LIB\C51FPL.LIB (VPRINTF)
         COMMENT TYPE 1: A51 / ASM51 Assembler
  C:\KEIL\C51\LIB\C51FPL.LIB (?C?FPGETOPN)
         COMMENT TYPE 1: A51 / ASM51 Assembler
  C:\KEIL\C51\LIB\C51FPL.LIB (?C?FPROUND)
         COMMENT TYPE 1: A51 / ASM51 Assembler
  C:\KEIL\C51\LIB\C51FPL.LIB (?C?FPCONVERT)
         COMMENT TYPE 1: A51 / ASM51 Assembler
  C:\KEIL\C51\LIB\C51FPL.LIB (?C?FPADD)
         COMMENT TYPE 1: A51 / ASM51 Assembler
  C:\KEIL\C51\LIB\C51FPL.LIB (?C?FTNPWR)
         COMMENT TYPE 1: A51 / ASM51 Assembler
  C:\KEIL\C51\LIB\C51L.LIB (?C?SCDIV)
         COMMENT TYPE 1: A51 / ASM51 Assembler
  C:\KEIL\C51\LIB\C51L.LIB (?C?CLDPTR)
         COMMENT TYPE 1: A51 / ASM51 Assembler
  C:\KEIL\C51\LIB\C51L.LIB (?C?CLDOPTR)
         COMMENT TYPE 1: A51 / ASM51 Assembler
  C:\KEIL\C51\LIB\C51L.LIB (?C?CSTPTR)
         COMMENT TYPE 1: A51 / ASM51 Assembler
  C:\KEIL\C51\LIB\C51L.LIB (?C?IMUL)
         COMMENT TYPE 1: A51 / ASM51 Assembler
  C:\KEIL\C51\LIB\C51L.LIB (?C?UIDIV)
         COMMENT TYPE 1: A51 / ASM51 Assembler
  C:\KEIL\C51\LIB\C51L.LIB (?C?IILDX)
         COMMENT TYPE 1: A51 / ASM51 Assembler
  C:\KEIL\C51\LIB\C51L.LIB (?C?ILDOPTR)
         COMMENT TYPE 1: A51 / ASM51 Assembler
  C:\KEIL\C51\LIB\C51L.LIB (?C?LADD)
         COMMENT TYPE 1: A51 / ASM51 Assembler
  C:\KEIL\C51\LIB\C51L.LIB (?C?LSUB)
         COMMENT TYPE 1: A51 / ASM51 Assembler
  C:\KEIL\C51\LIB\C51L.LIB (?C?LNEG)
         COMMENT TYPE 1: A51 / ASM51 Assembler
  C:\KEIL\C51\LIB\C51L.LIB (?C?SLCMP)
         COMMENT TYPE 1: A51 / ASM51 Assembler
  C:\KEIL\C51\LIB\C51L.LIB (?C?LLDXDATA)
         COMMENT TYPE 1: A51 / ASM51 Assembler
LX51 LINKER/LOCATER V4.66.87.0                                                        05/30/2018  17:25:18  PAGE 4


  C:\KEIL\C51\LIB\C51L.LIB (?C?LLDXDATA0)
         COMMENT TYPE 1: A51 / ASM51 Assembler
  C:\KEIL\C51\LIB\C51L.LIB (?C?LSTXDATA)
         COMMENT TYPE 1: A51 / ASM51 Assembler
  C:\KEIL\C51\LIB\C51L.LIB (?C?LSTKXDATA)
         COMMENT TYPE 1: A51 / ASM51 Assembler
  C:\KEIL\C51\LIB\C51L.LIB (?C?OFFX256)
         COMMENT TYPE 1: A51 / ASM51 Assembler
  C:\KEIL\C51\LIB\C51L.LIB (?C?OFFXADD)
         COMMENT TYPE 1: A51 / ASM51 Assembler
  C:\KEIL\C51\LIB\C51L.LIB (?C?PLDXDATA)
         COMMENT TYPE 1: A51 / ASM51 Assembler
  C:\KEIL\C51\LIB\C51L.LIB (?C?PLDIXDATA)
         COMMENT TYPE 1: A51 / ASM51 Assembler
  C:\KEIL\C51\LIB\C51L.LIB (?C?PSTXDATA)
         COMMENT TYPE 1: A51 / ASM51 Assembler
  C:\KEIL\C51\LIB\C51L.LIB (?C?PLDCODE)
         COMMENT TYPE 1: A51 / ASM51 Assembler
  C:\KEIL\C51\LIB\C51L.LIB (?C?PLDPTR)
         COMMENT TYPE 1: A51 / ASM51 Assembler
  C:\KEIL\C51\LIB\C51L.LIB (?C?PLDOPTR)
         COMMENT TYPE 1: A51 / ASM51 Assembler
  C:\KEIL\C51\LIB\C51L.LIB (?C?CCASE)
         COMMENT TYPE 1: A51 / ASM51 Assembler
  C:\KEIL\C51\LIB\C51L.LIB (?C?ICALL)
         COMMENT TYPE 1: A51 / ASM51 Assembler
  C:\KEIL\C51\LIB\C51L.LIB (?C_XBP)
         COMMENT TYPE 1: A51 / ASM51 Assembler
  C:\KEIL\C51\LIB\C51L.LIB (GETS)
         COMMENT TYPE 1: C51 Compiler
  C:\KEIL\C51\LIB\C51L.LIB (ATOI)
         COMMENT TYPE 1: C51 Compiler
  C:\KEIL\C51\LIB\C51L.LIB (?C?MEMSET)
         COMMENT TYPE 1: A51 / ASM51 Assembler
  C:\KEIL\C51\LIB\C51L.LIB (?C?COPYP2)
         COMMENT TYPE 1: A51 / ASM51 Assembler
  C:\KEIL\C51\LIB\C51L.LIB (?C?STRCMPP2)
         COMMENT TYPE 1: A51 / ASM51 Assembler
  C:\KEIL\C51\LIB\C51L.LIB (?C?CSTOPTR)
         COMMENT TYPE 1: A51 / ASM51 Assembler
  C:\KEIL\C51\LIB\C51L.LIB (?C?ILDIX)
         COMMENT TYPE 1: A51 / ASM51 Assembler
  C:\KEIL\C51\LIB\C51L.LIB (?C?PLDIDATA)
         COMMENT TYPE 1: A51 / ASM51 Assembler
  C:\KEIL\C51\LIB\C51L.LIB (?C?PLDPDATA)
         COMMENT TYPE 1: A51 / ASM51 Assembler
  C:\KEIL\C51\LIB\C51L.LIB (GETCHAR)
         COMMENT TYPE 1: A51 / ASM51 Assembler
  C:\KEIL\C51\LIB\C51L.LIB (ISDIGIT)
         COMMENT TYPE 1: C51 Compiler
  C:\KEIL\C51\LIB\C51L.LIB (ISSPACE)
         COMMENT TYPE 1: C51 Compiler


ACTIVE MEMORY CLASSES OF MODULE:  Clock (SM)

BASE        START       END         USED      MEMORY CLASS
==========================================================
X:000000H   X:000000H   X:0003FFH   0000EBH   XDATA
X:000000H   X:000000H   X:0003FFH             HDATA
C:000000H   C:000000H   C:00FFFFH             ECODE
B00:0000H   C:000000H   C:00FFFFH             HCONST
C:000000H   C:000000H   C:00FFFFH   008C4AH   CODE
C:000000H   C:000000H   C:00FFFFH   004759H   CONST
I:000000H   I:000000H   I:0000FFH   00002DH   IDATA
LX51 LINKER/LOCATER V4.66.87.0                                                        05/30/2018  17:25:18  PAGE 5


I:000020H.0 I:000020H.0 I:00002FH.7 000005H.6 BIT
I:000000H   I:000000H   I:00007FH   00001FH   DATA


MEMORY MAP OF MODULE:  Clock (SM)


START     STOP      LENGTH    ALIGN  RELOC    MEMORY CLASS   SEGMENT NAME
=========================================================================

* * * * * * * * * * *   D A T A   M E M O R Y   * * * * * * * * * * * * *
000000H   000007H   000008H   ---    AT..     DATA           "REG BANK 0"
000008H   00000FH   000008H   ---    AT..     DATA           "REG BANK 1"
000010H   000017H   000008H   ---    AT..     DATA           "REG BANK 2"
000018H   00001CH   000005H   BYTE   UNIT     DATA           _DATA_GROUP_
00001DH   00001EH   000002H   BYTE   UNIT     DATA           ?C?LIB_DATA
00001FH.0 00001FH.7 000001H.0 ---    ---      **GAP**
000020H.0 000021H.3 000001H.4 BIT    UNIT     BIT            _BIT_GROUP_
000021H.4 000022H.0 000000H.5 BIT    UNIT     BIT            ?BI?LT_TIMER
000022H.1 000022H.4 000000H.4 BIT    UNIT     BIT            ?BI?TIMER
000022H.5 000022H.7 000000H.3 BIT    UNIT     BIT            ?BI?MOD_COMMON
000023H.0 000023H.2 000000H.3 BIT    UNIT     BIT            ?BI?CLOCK
000023H.3 000023H.4 000000H.2 BIT    UNIT     BIT            ?BI?COM
000023H.5 000023H.6 000000H.2 BIT    UNIT     BIT            ?BI?KEY
000023H.7 000024H.0 000000H.2 BIT    UNIT     BIT            ?BI?ALARM
000024H.1 000024H.2 000000H.2 BIT    UNIT     BIT            ?BI?BEEPER
000024H.3 000024H.3 000000H.1 BIT    UNIT     BIT            ?BI?RTC_SET_EOSC?RTC
000024H.4 000024H.4 000000H.1 BIT    UNIT     BIT            ?BI?RTC_SET_BBSQW?RTC
000024H.5 000024H.5 000000H.1 BIT    UNIT     BIT            ?BI?RTC_SET_CONV?RTC
000024H.6 000024H.6 000000H.1 BIT    UNIT     BIT            ?BI?RTC_SET_OSF?RTC
000024H.7 000024H.7 000000H.1 BIT    UNIT     BIT            ?BI?RTC
000025H.0 000025H.0 000000H.1 BIT    UNIT     BIT            ?BI?LED
000025H.1 000025H.1 000000H.1 BIT    UNIT     BIT            ?BI?POWER
000025H.2 000025H.2 000000H.1 BIT    UNIT     BIT            ?BI?FUSE
000025H.3 000025H.3 000000H.1 BIT    UNIT     BIT            ?BI?HG
000025H.4 000025H.4 000000H.1 BIT    UNIT     BIT            ?BI?DEBUG
000025H.5 000025H.5 000000H.1 BIT    UNIT     BIT            ?BI?GETCHAR
000025H.6 000025H   000000H.2 ---    ---      **GAP**
000026H   000035H   000010H   BYTE   UNIT     IDATA          ?ID?COM
000036H   00003EH   000009H   BYTE   UNIT     IDATA          ?ID?LED
00003FH   000047H   000009H   BYTE   UNIT     IDATA          ?ID?CLOCK
000048H   00004DH   000006H   BYTE   UNIT     IDATA          ?ID?LT_TIMER
00004EH   000051H   000004H   BYTE   UNIT     IDATA          ?ID?TASK
000052H   000052H   000001H   BYTE   UNIT     IDATA          ?STACK

* * * * * * * * * * *   C O D E   M E M O R Y   * * * * * * * * * * * * *
000000H   000002H   000003H   ---    OFFS..   CODE           ?CO?STARTUP?3
000003H   000005H   000003H   BYTE   OFFS..   CODE           ?KEY?00003
000006H   00000AH   000005H   BYTE   UNIT     CODE           ?PR?RTC_SET_LT_TIMER?RTC
00000BH   00000DH   000003H   BYTE   OFFS..   CODE           ?CLOCK?0000B
00000EH   000012H   000005H   BYTE   UNIT     CODE           ?PR?__RTC_GET_DATE?RTC
000013H   000015H   000003H   BYTE   OFFS..   CODE           ?INT_HUB?00013
000016H   000022H   00000DH   BYTE   UNIT     CODE           ?PR?COM_LEAVE_POWERSAVE?COM
000023H   000025H   000003H   BYTE   OFFS..   CODE           ?COM?00023
000026H   00002AH   000005H   BYTE   UNIT     CODE           ?PR?ALARM0_SET_HOUR_12?ALARM
00002BH   00002DH   000003H   BYTE   OFFS..   CODE           ?BEEPER?0002B
00002EH   000AC8H   000A9BH   BYTE   UNIT     CODE           ?C?LIB_CODE
000AC9H   000F4BH   000483H   BYTE   UNIT     CODE           ?PR?PRINTF?PRINTF
000F4CH   0011B1H   000266H   BYTE   UNIT     CODE           ?PR?_INT_HUB_DUMP_EXT_STATUS?INT_HUB
0011B2H   0013FBH   00024AH   BYTE   UNIT     CODE           ?PR?RTC_DUMP?RTC
0013FCH   00162AH   00022FH   BYTE   UNIT     CODE           ?PR?SERIAL_DUMP?SERIAL_HUB
00162BH   001836H   00020CH   BYTE   UNIT     CODE           ?PR?_DISPLAY_TEST?SM_FUSE_TEST
001837H   0019FEH   0001C8H   BYTE   UNIT     CODE           ?PR?_SM_FUSE_TEST_HG_MPU?SM_FUSE_TEST
0019FFH   001BADH   0001AFH   BYTE   UNIT     CODE           ?PR?_SM_FUSE_TEST_THERMO?SM_FUSE_TEST
001BAEH   001D47H   00019AH   BYTE   UNIT     CODE           ?PR?_UPDATE_ALARM?SM_CLOCK_MOD_ALARM
LX51 LINKER/LOCATER V4.66.87.0                                                        05/30/2018  17:25:18  PAGE 6


001D48H   001ED9H   000192H   BYTE   UNIT     CODE           ?PR?_RUN_STATE_MACHINE?SM
001EDAH   00204DH   000174H   BYTE   UNIT     CODE           ?PR?_UPDATE_TIME?SM_FUSE_PARAM
00204EH   0021BCH   00016FH   BYTE   UNIT     CODE           ?PR?SM
0021BDH   002329H   00016DH   BYTE   UNIT     CODE           ?PR?CLOCK_INC_MS39?CLOCK
00232AH   002492H   000169H   BYTE   UNIT     CODE           ?PR?_SM_FUSE_TEST_SUBMOD0?SM_FUSE_TEST
002493H   0025E5H   000153H   BYTE   UNIT     CODE           ?PR?RUN_SHELL?SHELL
0025E6H   002731H   00014CH   BYTE   UNIT     CODE           ?PR?_CMD_THERMO?CMD_THERMO
002732H   002844H   000113H   BYTE   UNIT     CODE           ?PR?_CMD_SM?CMD_SM
002845H   002955H   000111H   BYTE   UNIT     CODE           ?PR?LT_TIMER_SUB_DATE?LT_TIMER
002956H   002A61H   00010CH   BYTE   UNIT     CODE           ?PR?_CLOCK_YYMMDD_TO_DAY?CLOCK
002A62H   002B67H   000106H   BYTE   UNIT     CODE           ?PR?_SCAN_KEY_PROC?KEY
002B68H   002C6DH   000106H   BYTE   UNIT     CODE           ?PR?_SM_FUSE_TIMER_SUBMOD0?SM_FUSE_TIMER
002C6EH   002D6AH   0000FDH   BYTE   UNIT     CODE           ?PR?TIMER_INC_MS39?TIMER
002D6BH   002E5EH   0000F4H   BYTE   UNIT     CODE           ?PR?SM_DUMP?SM
002E5FH   002F4FH   0000F1H   BYTE   UNIT     CODE           ?PR?RTC_INITIALIZE?RTC
002F50H   00303DH   0000EEH   BYTE   UNIT     CODE           ?PR?_CMD_BEEPER?CMD_BEEPER
00303EH   00312AH   0000EDH   BYTE   UNIT     CODE           ?PR?_GETS?GETS
00312BH   00320DH   0000E3H   BYTE   UNIT     CODE           ?PR?_DISPLAY_GLOBAL_FLAG?SM_GLOBAL_FLAG_MOD
00320EH   0032EBH   0000DEH   BYTE   UNIT     CODE           ?PR?_DISPLAY_ALARM?SM_CLOCK_ALARM
0032ECH   0033C6H   0000DBH   BYTE   UNIT     CODE           ?PR?_ATOI?ATOI
0033C7H   003494H   0000CEH   BYTE   UNIT     CODE           ?PR?_SM_SET_STATE_BY_NAME?SM
003495H   003560H   0000CCH   BYTE   UNIT     CODE           ?PR?RTC_ALARM_GET_MODE?RTC
003561H   003627H   0000C7H   BYTE   UNIT     CODE           ?PR?_CHECK_AND_SET?SM_FUSE_TIMER
003628H   0036EEH   0000C7H   BYTE   UNIT     CODE           ?PR?_SM_FUSE_TIMER_SUBMOD2?SM_FUSE_TIMER
0036EFH   0037B3H   0000C5H   BYTE   UNIT     CODE           ?PR?RTC
0037B4H   003878H   0000C5H   BYTE   UNIT     CODE           ?PR?_I2C_WRITE?CMD_I2C
003879H   00393AH   0000C2H   BYTE   UNIT     CODE           ?PR?UPDATE_HHMMSS?SM_CLOCK_MOD_TIME
00393BH   0039F6H   0000BCH   BYTE   UNIT     CODE           ?PR?_UPDATE_SET?SM_FUSE_TEST
0039F7H   003AB2H   0000BCH   BYTE   UNIT     CODE           ?PR?_CMD_TASK?CMD_TASK
003AB3H   003B6CH   0000BAH   BYTE   UNIT     CODE           ?PR?_SM_CLOCK_MOD_TIME?SM_CLOCK_MOD_TIME
003B6DH   003C24H   0000B8H   BYTE   UNIT     CODE           ?PR?_SM_SET_TABLE_BY_NAME?SM
003C25H   003CD3H   0000AFH   BYTE   UNIT     CODE           ?PR?ROM_RESET?ROM
003CD4H   003D7AH   0000A7H   BYTE   UNIT     CODE           ?PR?RUN_TASK?TASK
003D7BH   003E20H   0000A6H   BYTE   UNIT     CODE           ?PR?_CMD_SERIAL?CMD_SERIAL
003E21H   003EC5H   0000A5H   BYTE   UNIT     CODE           ?PR?_DISPLAY_PREARM?SM_FUSE_TIMER
003EC6H   003F65H   0000A0H   BYTE   UNIT     CODE           ?PR?__BEEPLER_PLAY?BEEPER
003F66H   004003H   00009EH   BYTE   UNIT     CODE           ?PR?_RTC_DATE_SET_DATE?RTC
004004H   0040A0H   00009DH   BYTE   UNIT     CODE           ?PR?UPDATE_HHMMSS?SM_CLOCK_COUNTER
0040A1H   00413CH   00009CH   BYTE   UNIT     CODE           ?PR?LT_TIMER_DEC_SEC?LT_TIMER
00413DH   0041D6H   00009AH   BYTE   UNIT     CODE           ?PR?_INC_ONLY?SM_CLOCK_MOD_TIME
0041D7H   00426CH   000096H   BYTE   UNIT     CODE           ?PR?_RTC_GET_TEMPERATURE?RTC
00426DH   0042FFH   000093H   BYTE   UNIT     CODE           ?PR?CLOCK_DUMP?CLOCK
004300H   004391H   000092H   BYTE   UNIT     CODE           ?PR?_SM_CLOCK_COUNTER_SUBMOD0?SM_CLOCK_COUNTER
004392H   004421H   000090H   BYTE   UNIT     CODE           ?PR?_ENTER_SET?SM_FUSE_TEST
004422H   0044B1H   000090H   BYTE   UNIT     CODE           ?PR?_SM_FUSE_PARAM_SUBMOD6?SM_FUSE_PARAM
0044B2H   00453FH   00008EH   BYTE   UNIT     CODE           ?PR?LT_TIMER
004540H   0045CBH   00008CH   BYTE   UNIT     CODE           ?PR?UPDATE_YYMMDD?SM_CLOCK_MOD_TIME
0045CCH   004656H   00008BH   BYTE   UNIT     CODE           ?PR?_RTC_ALARM_SET_MODE?RTC
004657H   0046E1H   00008BH   BYTE   UNIT     CODE           ?PR?DISPLAY_TEMP?SM_CLOCK_DISPLAY
0046E2H   00476AH   000089H   BYTE   UNIT     CODE           ?PR?_I2C_READ?CMD_I2C
00476BH   0047F1H   000087H   BYTE   UNIT     CODE           ?PR?_SM_SET_SUB_STATE_BY_NAME?SM
0047F2H   004875H   000084H   BYTE   UNIT     CODE           ?PR?LT_TIMER_GET_RELATIVE?LT_TIMER
004876H   0048F8H   000083H   BYTE   UNIT     CODE           ?PR?SM_FUSE_TEST
0048F9H   004977H   00007FH   BYTE   UNIT     CODE           ?PR?_DISPLAY_SLOT?SM_CLOCK_TIMER
004978H   0049F5H   00007EH   BYTE   UNIT     CODE           ?PR?_SCAN_FUSE?FUSE
0049F6H   004A72H   00007DH   BYTE   UNIT     CODE           ?PR?ROM_DUMP?ROM
004A73H   004AEEH   00007CH   BYTE   UNIT     CODE           ?PR?_CALL_CMD?SHELL
004AEFH   004B69H   00007BH   BYTE   UNIT     CODE           ?PR?_WRITE_ONLY?SM_FUSE_PARAM
004B6AH   004BE3H   00007AH   BYTE   UNIT     CODE           ?PR?TASK_DUMP?TASK
004BE4H   004C5DH   00007AH   BYTE   UNIT     CODE           ?PR?CLOCK
004C5EH   004CD5H   000078H   BYTE   UNIT     CODE           ?PR?SCAN_ALARM?ALARM
004CD6H   004D4DH   000078H   BYTE   UNIT     CODE           ?PR?_INC_ONLY?SM_FUSE_PARAM
004D4EH   004DC5H   000078H   BYTE   UNIT     CODE           ?PR?_CMD_MPU?CMD_MPU
004DC6H   004E3AH   000075H   BYTE   UNIT     CODE           ?PR?_SCAN_HG?HG
004E3BH   004EAFH   000075H   BYTE   UNIT     CODE           ?PR?_SM_CLOCK_ALARM?SM_CLOCK_ALARM
LX51 LINKER/LOCATER V4.66.87.0                                                        05/30/2018  17:25:18  PAGE 7


004EB0H   004F20H   000071H   BYTE   UNIT     CODE           ?PR?_SM_CLOCK_TIMER_SUBMOD1?SM_CLOCK_TIMER
004F21H   004F91H   000071H   BYTE   UNIT     CODE           ?PR?VERIFY_PASSWORD?SM_FUSE_TIMER
004F92H   004FFFH   00006EH   BYTE   UNIT     CODE           ?PR?_I2C_GETS?I2C
005000H   00506CH   00006DH   BYTE   UNIT     CODE           ?PR?COM_ISR?COM
00506DH   0050D8H   00006CH   BYTE   UNIT     CODE           ?PR?INT_HUB_INITIALIZE?INT_HUB
0050D9H   005144H   00006CH   BYTE   UNIT     CODE           ?PR?SCAN_THERMO?THERMO
005145H   0051AFH   00006BH   BYTE   UNIT     CODE           ?PR?_CLOCK_SYNC_TO_RTC?CLOCK
0051B0H   00521AH   00006BH   BYTE   UNIT     CODE           ?PR?_SM_FUSE_PARAM_SET_TIME?SM_FUSE_PARAM
00521BH   005284H   00006AH   BYTE   UNIT     CODE           ?PR?TIMER
005285H   0052EDH   000069H   BYTE   UNIT     CODE           ?PR?_THERMO_LO_THRESHOLD_SET?THERMO
0052EEH   005354H   000067H   BYTE   UNIT     CODE           ?PR?_WRITE_ONLY?SM_CLOCK_MOD_TIME
005355H   0053B9H   000065H   BYTE   UNIT     CODE           ?PR?ALARM_DUMP?ALARM
0053BAH   00541EH   000065H   BYTE   UNIT     CODE           ?PR?_DISPLAY_LOGO?MOD_COMMON
00541FH   005481H   000063H   BYTE   UNIT     CODE           ?PR?INT_HUB_GET_STATUS?INT_HUB
005482H   0054E3H   000062H   BYTE   UNIT     CODE           ?PR?_INC_WRITE?SM_GLOBAL_FLAG_MOD
0054E4H   005544H   000061H   BYTE   UNIT     CODE           ?PR?_ALARM0_SET_ENABLE?ALARM
005545H   0055A5H   000061H   BYTE   UNIT     CODE           ?PR?_CLOCK_SYNC_FROM_RTC?CLOCK
0055A6H   005605H   000060H   BYTE   UNIT     CODE           ?PR?INT_HUB_DUMP?INT_HUB
005606H   005665H   000060H   BYTE   UNIT     CODE           ?PR?_SM_CLOCK_MOD_ALARM_SUBMOD0?SM_CLOCK_MOD_ALARM
005666H   0056C5H   000060H   BYTE   UNIT     CODE           ?PR?_INC_ONLY?SM_FUSE_TEST
0056C6H   005725H   000060H   BYTE   UNIT     CODE           ?PR?_SM_FUSE_DETONATE_SUBMOD0?SM_FUSE_DETONATE
005726H   005784H   00005FH   BYTE   UNIT     CODE           ?PR?_SCAN_INT_HUB_PROC?INT_HUB
005785H   0057E3H   00005FH   BYTE   UNIT     CODE           ?PR?_SM_CLOCK_COUNTER_SUBMOD2?SM_CLOCK_COUNTER
0057E4H   00583FH   00005CH   BYTE   UNIT     CODE           ?PR?_THERMO_HI_THRESHOLD_SET?THERMO
005840H   00589BH   00005CH   BYTE   UNIT     CODE           ?PR?_SM_CLOCK_TIMER_SUBMOD2?SM_CLOCK_TIMER
00589CH   0058F7H   00005CH   BYTE   UNIT     CODE           ?PR?_SM_CLOCK_COUNTER_SUBMOD1?SM_CLOCK_COUNTER
0058F8H   005953H   00005CH   BYTE   UNIT     CODE           ?PR?_SM_CLOCK_MOD_ALARM_SUBMOD1?SM_CLOCK_MOD_ALARM
005954H   0059AFH   00005CH   BYTE   UNIT     CODE           ?PR?_SM_FUSE_SET?SM_FUSE_TEST
0059B0H   005A09H   00005AH   BYTE   UNIT     CODE           ?PR?REFRESH_LED?LED
005A0AH   005A62H   000059H   BYTE   UNIT     CODE           ?PR?SM_DUMP_SUB_STATE?SM
005A63H   005ABBH   000059H   BYTE   UNIT     CODE           ?PR?_RTC_READ_DATA?RTC
005ABCH   005B14H   000059H   BYTE   UNIT     CODE           ?PR?_WRITE_ONLY?SM_FUSE_TEST
005B15H   005B6CH   000058H   BYTE   UNIT     CODE           ?PR?_LT_TIMER_SAVE_TO_ROM?LT_TIMER
005B6DH   005BC3H   000057H   BYTE   UNIT     CODE           ?PR?_RTC_WRITE_DATA?RTC
005BC4H   005C1AH   000057H   BYTE   UNIT     CODE           ?PR?THERMO_POWER_ON?THERMO
005C1BH   005C71H   000057H   BYTE   UNIT     CODE           ?PR?_SM_CLOCK_MOD_ALARM_SUBMOD2?SM_CLOCK_MOD_ALARM
005C72H   005CC8H   000057H   BYTE   UNIT     CODE           ?PR?_SM_FUSE_TIMER_SUBMOD1?SM_FUSE_TIMER
005CC9H   005D1EH   000056H   BYTE   UNIT     CODE           ?PR?THERMO
005D1FH   005D73H   000055H   BYTE   UNIT     CODE           ?PR?_I2C_PUTS?I2C
005D74H   005DC8H   000055H   BYTE   UNIT     CODE           ?PR?DISPLAY_POWER_VOLUME?SM_POWER_PACK_DISPLAY
005DC9H   005E1CH   000054H   BYTE   UNIT     CODE           ?PR?_CMD_HELP?CMD_HELP
005E1DH   005E6FH   000053H   BYTE   UNIT     CODE           ?PR?_SM_POWER_PACK_DISPLAY_SUBMOD0?SM_POWER_PACK_DISPLAY
005E70H   005EC2H   000053H   BYTE   UNIT     CODE           ?PR?_UPDATE_HG_MASK?SM_FUSE_TEST
005EC3H   005F13H   000051H   BYTE   UNIT     CODE           ?PR?ALARM0_SYNC_TO_RTC?ALARM
005F14H   005F64H   000051H   BYTE   UNIT     CODE           ?PR?DELAY_TASK_CALL?DELAY_TASK
005F65H   005FB4H   000050H   BYTE   UNIT     CODE           ?PR?SM_DUMP_STATE?SM
005FB5H   006004H   000050H   BYTE   UNIT     CODE           ?PR?_MOD_PROC?KEY
006005H   006054H   000050H   BYTE   UNIT     CODE           ?PR?_SET_PROC?KEY
006055H   0060A4H   000050H   BYTE   UNIT     CODE           ?PR?_LED_SET_CODE?LED
0060A5H   0060F2H   00004EH   BYTE   UNIT     CODE           ?PR?SHELL
0060F3H   00613EH   00004CH   BYTE   UNIT     CODE           ?PR?MAIN?MAIN
00613FH   00618AH   00004CH   BYTE   UNIT     CODE           ?PR?POWER_ENTER_POWERSAVE?POWER
00618BH   0061D6H   00004CH   BYTE   UNIT     CODE           ?PR?_WRITE_ONLY?SM_CLOCK_MOD_ALARM
0061D7H   006220H   00004AH   BYTE   UNIT     CODE           ?PR?SCAN_LT_TIMER?LT_TIMER
006221H   006269H   000049H   BYTE   UNIT     CODE           ?PR?THERMO_POWER_OFF?THERMO
00626AH   0062B2H   000049H   BYTE   UNIT     CODE           ?PR?_DELAY_TASK_REG?DELAY_TASK
0062B3H   0062FBH   000049H   BYTE   UNIT     CODE           ?PR?_SHELL_SEARCH_CMD_BY_NAME?SHELL
0062FCH   006344H   000049H   BYTE   UNIT     CODE           ?PR?_SM_CLOCK_DISPLAY_SUBMOD0?SM_CLOCK_DISPLAY
006345H   00638DH   000049H   BYTE   UNIT     CODE           ?PR?_SM_FUSE_PARAM_SUBMOD0?SM_FUSE_PARAM
00638EH   0063D5H   000048H   BYTE   UNIT     CODE           ?PR?_SM_CLOCK_TIMER_SUBMOD0?SM_CLOCK_TIMER
0063D6H   00641CH   000047H   BYTE   UNIT     CODE           ?PR?_CMD_DBG?CMD_DBG
00641DH   006461H   000045H   BYTE   UNIT     CODE           ?PR?RTC_DUMP_RAW?RTC
006462H   0064A6H   000045H   BYTE   UNIT     CODE           ?PR?_INC_ONLY?SM_CLOCK_COUNTER
0064A7H   0064EAH   000044H   BYTE   UNIT     CODE           ?PR?_THERMO_TEMP_TO_HEX?THERMO
0064EBH   00652EH   000044H   BYTE   UNIT     CODE           ?PR?_CMD_REBOOT?CMD_REBOOT
LX51 LINKER/LOCATER V4.66.87.0                                                        05/30/2018  17:25:18  PAGE 8


00652FH   006571H   000043H   BYTE   UNIT     CODE           ?PR?BEEPER_INITIALIZE?BEEPER
006572H   0065B3H   000042H   BYTE   UNIT     CODE           ?PR?BEEPER_BEEP_BEEP?BEEPER
0065B4H   0065F5H   000042H   BYTE   UNIT     CODE           ?PR?LT_TIMER_SYNC_TO_RTC?LT_TIMER
0065F6H   006636H   000041H   BYTE   UNIT     CODE           ?PR?LT_TIMER_LOAD_FROM_ROM?LT_TIMER
006637H   006677H   000041H   BYTE   UNIT     CODE           ?PR?_THERMO_THRESHOLD_INC?THERMO
006678H   0066B7H   000040H   BYTE   UNIT     CODE           ?PR?_SM_CLOCK_COUNTER_SUBMOD3?SM_CLOCK_COUNTER
0066B8H   0066F6H   00003FH   BYTE   UNIT     CODE           ?PR?SM_SHOW_CURRENT?SM
0066F7H   006735H   00003FH   BYTE   UNIT     CODE           ?PR?ALARM1_SYNC_TO_RTC?ALARM
006736H   006774H   00003FH   BYTE   UNIT     CODE           ?PR?BEEPER_BEEP_BEEP_ALWAYS?BEEPER
006775H   0067B2H   00003EH   BYTE   UNIT     CODE           ?PR?__RTC_SET_HOUR?RTC
0067B3H   0067F0H   00003EH   BYTE   UNIT     CODE           ?PR?_FUSE_SET_FUSE_BROKE?FUSE
0067F1H   00682EH   00003EH   BYTE   UNIT     CODE           ?PR?ROM_INITIALIZE?ROM
00682FH   00686BH   00003DH   BYTE   UNIT     CODE           ?PR?THERMO_LOAD_CONFIG?THERMO
00686CH   0068A8H   00003DH   BYTE   UNIT     CODE           ?PR?_DISPLAY_TIMER?SM_FUSE_TIMER
0068A9H   0068E4H   00003CH   BYTE   UNIT     CODE           ?PR?_SM_FUSE_TEST_INIT?SM_FUSE_TEST
0068E5H   00691FH   00003BH   BYTE   UNIT     CODE           ?PR?CMD_SM
006920H   006959H   00003AH   BYTE   UNIT     CODE           ?PR?LED_INITIALIZE?LED
00695AH   006993H   00003AH   BYTE   UNIT     CODE           ?PR?LT_TIMER_SUB_MIN_HOUR?LT_TIMER
006994H   0069CDH   00003AH   BYTE   UNIT     CODE           ?PR?LT_TIMER_SUB_HOUR_DATE?LT_TIMER
0069CEH   006A07H   00003AH   BYTE   UNIT     CODE           ?PR?SERIAL_HUB_INITIALIZE?SERIAL_HUB
006A08H   006A41H   00003AH   BYTE   UNIT     CODE           ?PR?_ENTER_ALARM?SM_CLOCK_MOD_ALARM
006A42H   006A7AH   000039H   BYTE   UNIT     CODE           ?PR?_SHOW_SLOT_TITLE?SM_CLOCK_TIMER
006A7BH   006AB3H   000039H   BYTE   UNIT     CODE           ?PR?_UPDATE_PASSWORD?SM_FUSE_PARAM
006AB4H   006AECH   000039H   BYTE   UNIT     CODE           ?PR?_CMD_INT?CMD_INT
006AEDH   006B24H   000038H   BYTE   UNIT     CODE           ?PR?SM_DUMP_TABLE?SM
006B25H   006B5CH   000038H   BYTE   UNIT     CODE           ?PR?CLOCK0_ISR?CLOCK
006B5DH   006B94H   000038H   BYTE   UNIT     CODE           ?PR?_ENTER_TIME?SM_FUSE_PARAM
006B95H   006BCBH   000037H   BYTE   UNIT     CODE           ?PR?_DEBUG_PRINTF?DEBUG
006BCCH   006C01H   000036H   BYTE   UNIT     CODE           ?PR?_MOD_SET_PROC?KEY
006C02H   006C37H   000036H   BYTE   UNIT     CODE           ?PR?FUSE_TRIGGER?FUSE
006C38H   006C6CH   000035H   BYTE   UNIT     CODE           ?PR?SHELL_DUMP_CMD?SHELL
006C6DH   006CA1H   000035H   BYTE   UNIT     CODE           ?PR?_VPRINTF?VPRINTF
006CA2H   006CD5H   000034H   BYTE   UNIT     CODE           ?PR?ALARM_SAVE_ROM?ALARM
006CD6H   006D09H   000034H   BYTE   UNIT     CODE           ?PR?_ROM_READ?ROM
006D0AH   006D3DH   000034H   BYTE   UNIT     CODE           ?PR?_INC_ONLY?SM_CLOCK_MOD_ALARM
006D3EH   006D70H   000033H   BYTE   UNIT     CODE           ?PR?ALARM_LOAD_ROM?ALARM
006D71H   006DA3H   000033H   BYTE   UNIT     CODE           ?PR?POWER_INITIALIZE?POWER
006DA4H   006DD6H   000033H   BYTE   UNIT     CODE           ?PR?_CMD_I2C?CMD_I2C
006DD7H   006E08H   000032H   BYTE   UNIT     CODE           ?PR?INT0_ISR?KEY
006E09H   006E3AH   000032H   BYTE   UNIT     CODE           ?PR?_SM_CLOCK_POWERSAVE?SM_CLOCK_POWERSAVE
006E3BH   006E6BH   000031H   BYTE   UNIT     CODE           ?PR?THERMO_GET_CURRENT?THERMO
006E6CH   006E9CH   000031H   BYTE   UNIT     CODE           ?PR?_ROM_WRITE?ROM
006E9DH   006ECDH   000031H   BYTE   UNIT     CODE           ?PR?MPU_POWER_ON?MPU
006ECEH   006EFDH   000030H   BYTE   UNIT     CODE           ?PR?POWER_LEAVE_POWERSAVE?POWER
006EFEH   006F2DH   000030H   BYTE   UNIT     CODE           ?PR?POWER_TEST_POWERSAVE_TO?POWER
006F2EH   006F5DH   000030H   BYTE   UNIT     CODE           ?PR?_SERIAL_SET_CTL_BIT?SERIAL_HUB
006F5EH   006F8DH   000030H   BYTE   UNIT     CODE           ?PR?ROLL_BACK?SM_FUSE_TIMER
006F8EH   006FBDH   000030H   BYTE   UNIT     CODE           ?PR?DISPLAY_PASSWORD?SM_FUSE_TIMER
006FBEH   006FECH   00002FH   BYTE   UNIT     CODE           ?PR?_PUTBUF?COM
006FEDH   00701BH   00002FH   BYTE   UNIT     CODE           ?PR?I2C_READ?I2C
00701CH   00704AH   00002FH   BYTE   UNIT     CODE           ?PR?_ALARM0_TEST_ENABLE?ALARM
00704BH   007079H   00002FH   BYTE   UNIT     CODE           ?PR?SCAN_MPU?MPU
00707AH   0070A7H   00002EH   BYTE   UNIT     CODE           ?PR?SHOW_VERSION?MAIN
0070A8H   0070D5H   00002EH   BYTE   UNIT     CODE           ?PR?_SERIAL_TEST_CTL_BIT?SERIAL_HUB
0070D6H   007103H   00002EH   BYTE   UNIT     CODE           ?PR?MPU_POWER_OFF?MPU
007104H   007131H   00002EH   BYTE   UNIT     CODE           ?PR?SM_FUSE_TIMER
007132H   00715EH   00002DH   BYTE   UNIT     CODE           ?PR?BEEPER_ISR?BEEPER
00715FH   00718BH   00002DH   BYTE   UNIT     CODE           ?PR?CLOCK_INITIALIZE?CLOCK
00718CH   0071B8H   00002DH   BYTE   UNIT     CODE           ?PR?_SM_CLOCK_DISPLAY_SUBMOD1?SM_CLOCK_DISPLAY
0071B9H   0071E4H   00002CH   BYTE   UNIT     CODE           ?PR?__RTC_SET_MIN_SEC?RTC
0071E5H   007210H   00002CH   BYTE   UNIT     CODE           ?PR?__RTC_SET_DATE?RTC
007211H   00723CH   00002CH   BYTE   UNIT     CODE           ?PR?_ALARM_PROC?ALARM
00723DH   007268H   00002CH   BYTE   UNIT     CODE           ?PR?_WRITE_ONLY?SM_CLOCK_COUNTER
007269H   007294H   00002CH   BYTE   UNIT     CODE           ?PR?_SM_CLOCK_MOD_TIME_SUBMOD0?SM_CLOCK_MOD_TIME
007295H   0072BFH   00002BH   BYTE   UNIT     CODE           ?PR?_SM_CLOCK_MOD_ALARM_SUBMOD3?SM_CLOCK_MOD_ALARM
LX51 LINKER/LOCATER V4.66.87.0                                                        05/30/2018  17:25:18  PAGE 9


0072C0H   0072EAH   00002BH   BYTE   UNIT     CODE           ?PR?_SM_CLOCK_MOD_ALARM_SUBMOD4?SM_CLOCK_MOD_ALARM
0072EBH   007315H   00002BH   BYTE   UNIT     CODE           ?PR?_ENTER_YYMMDD?SM_CLOCK_MOD_TIME
007316H   00733FH   00002AH   BYTE   UNIT     CODE           ?PR?BEEPER_BEEP?BEEPER
007340H   007369H   00002AH   BYTE   UNIT     CODE           ?PR?_TIMER_SAVE?TIMER
00736AH   007393H   00002AH   BYTE   UNIT     CODE           ?PR?_ENTER_HHMMSS?SM_CLOCK_COUNTER
007394H   0073BDH   00002AH   BYTE   UNIT     CODE           ?PR?SM_CLOCK_COUNTER
0073BEH   0073E7H   00002AH   BYTE   UNIT     CODE           ?PR?_ENTER_HHMMSS?SM_CLOCK_MOD_TIME
0073E8H   007411H   00002AH   BYTE   UNIT     CODE           ?PR?_SM_GLOBAL_FLAG_MOD?SM_GLOBAL_FLAG_MOD
007412H   00743AH   000029H   BYTE   UNIT     CODE           ?PR?_SM_CLOCK_DISPLAY_SUBMOD3?SM_CLOCK_DISPLAY
00743BH   007462H   000028H   BYTE   UNIT     CODE           ?PR?COM_INITIALIZE?COM
007463H   00748AH   000028H   BYTE   UNIT     CODE           ?PR?_RTC_SET_HOUR_12?RTC
00748BH   0074B2H   000028H   BYTE   UNIT     CODE           ?PR?FUSE_ENABLE?FUSE
0074B3H   0074DAH   000028H   BYTE   UNIT     CODE           ?PR?HG_ENABLE?HG
0074DBH   007501H   000027H   BYTE   UNIT     CODE           ?PR?_INT_HUB_TEST_BIT?INT_HUB
007502H   007528H   000027H   BYTE   UNIT     CODE           ?PR?FUSE_POWER_ON?FUSE
007529H   00754FH   000027H   BYTE   UNIT     CODE           ?PR?FUSE_POWER_OFF?FUSE
007550H   007576H   000027H   BYTE   UNIT     CODE           ?PR?_SM_FUSE_TIMER_SUBMOD3?SM_FUSE_TIMER
007577H   00759CH   000026H   BYTE   UNIT     CODE           ?PR?LED_SAVE?LED
00759DH   0075C2H   000026H   BYTE   UNIT     CODE           ?PR?LED_RESTORE?LED
0075C3H   0075E8H   000026H   BYTE   UNIT     CODE           ?PR?FUSE_SET_TRIPWIRE_BROKE?FUSE
0075E9H   00760EH   000026H   BYTE   UNIT     CODE           ?PR?_SM_CLOCK_COUNTER_SUBMOD5?SM_CLOCK_COUNTER
00760FH   007634H   000026H   BYTE   UNIT     CODE           ?PR?CMD_BEEPER
007635H   007659H   000025H   BYTE   UNIT     CODE           ?PR?SM_INITIALIZE?SM
00765AH   00767EH   000025H   BYTE   UNIT     CODE           ?PR?_RTC_ENABLE_ALARM_INT?RTC
00767FH   0076A2H   000024H   BYTE   UNIT     CODE           ?PR?__RTC_GET_HOUR?RTC
0076A3H   0076C6H   000024H   BYTE   UNIT     CODE           ?PR?POWER_INC_POWERSAVE_TO?POWER
0076C7H   0076EAH   000024H   BYTE   UNIT     CODE           ?PR?LT_TIMER_LEAVE_POWERSAVE?LT_TIMER
0076EBH   00770EH   000024H   BYTE   UNIT     CODE           ?PR?_THERMO_HEX_TO_TEMP?THERMO
00770FH   007732H   000024H   BYTE   UNIT     CODE           ?PR?MPU_READ_INT_STATUS?MPU
007733H   007756H   000024H   BYTE   UNIT     CODE           ?PR?_SM_CLOCK_DISPLAY_INIT?SM_CLOCK_DISPLAY
007757H   00777AH   000024H   BYTE   UNIT     CODE           ?PR?_SM_CLOCK_DISPLAY_SUBMOD2?SM_CLOCK_DISPLAY
00777BH   00779EH   000024H   BYTE   UNIT     CODE           ?PR?_SM_FUSE_PARAM_INIT?SM_FUSE_PARAM
00779FH   0077C1H   000023H   BYTE   UNIT     CODE           ?PR?ALARM_SWITCH_OFF?ALARM
0077C2H   0077E4H   000023H   BYTE   UNIT     CODE           ?PR?LT_TIMER_SWITCH_OFF?LT_TIMER
0077E5H   007807H   000023H   BYTE   UNIT     CODE           ?PR?THERMO_LO_THRESHOLD_GET?THERMO
007808H   00782AH   000023H   BYTE   UNIT     CODE           ?PR?_SM_CLOCK_COUNTER_SUBMOD4?SM_CLOCK_COUNTER
00782BH   00784DH   000023H   BYTE   UNIT     CODE           ?PR?SM_CLOCK_MOD_TIME
00784EH   00786FH   000022H   BYTE   UNIT     CODE           ?PR?I2C_GETACK?I2C
007870H   007891H   000022H   BYTE   UNIT     CODE           ?PR?BEEPER_PLAY_MUSIC?BEEPER
007892H   0078B3H   000022H   BYTE   UNIT     CODE           ?PR?_TIMER_GET_MS10?TIMER
0078B4H   0078D5H   000022H   BYTE   UNIT     CODE           ?PR?_TOGGLE_ALARM?SM_CLOCK_MOD_ALARM
0078D6H   0078F7H   000022H   BYTE   UNIT     CODE           ?PR?_INC_WRITE?SM_FUSE_TEST
0078F8H   007918H   000021H   BYTE   UNIT     CODE           ?PR?THERMO_HI_THRESHOLD_GET?THERMO
007919H   007939H   000021H   BYTE   UNIT     CODE           ?PR?SM_CLOCK_TIMER
00793AH   00795AH   000021H   BYTE   UNIT     CODE           ?PR?TOGGLE_ALARM_BS?SM_CLOCK_MOD_ALARM
00795BH   00797BH   000021H   BYTE   UNIT     CODE           ?PR?CMD_I2C
00797CH   00799BH   000020H   BYTE   UNIT     CODE           ?C_C51STARTUP
00799CH   0079BBH   000020H   BYTE   UNIT     CODE           ?PR?CLOCK_INC_DATE?CLOCK
0079BCH   0079DBH   000020H   BYTE   UNIT     CODE           ?PR?DELAY_TASK
0079DCH   0079FBH   000020H   BYTE   UNIT     CODE           ?PR?MPU_LOAD_CONFIG?MPU
0079FCH   007A1BH   000020H   BYTE   UNIT     CODE           ?PR?TEST_AUTOSWITCH?SM_CLOCK_DISPLAY
007A1CH   007A3BH   000020H   BYTE   UNIT     CODE           ?PR?SM_CLOCK_DISPLAY
007A3CH   007A5BH   000020H   BYTE   UNIT     CODE           ?PR?CMD_THERMO
007A5CH   007A7AH   00001FH   BYTE   UNIT     CODE           ?PR?_I2C_WRITE?I2C
007A7BH   007A99H   00001FH   BYTE   UNIT     CODE           ?PR?MPU_ENABLE?MPU
007A9AH   007AB8H   00001FH   BYTE   UNIT     CODE           ?PR?_SM_FUSE_POWERSAVE_SUBMOD0?SM_FUSE_POWERSAVE
007AB9H   007AD6H   00001EH   BYTE   UNIT     CODE           ?PR?LT_TIMER_START_RTC?LT_TIMER
007AD7H   007AF4H   00001EH   BYTE   UNIT     CODE           ?PR?LT_TIMER_STOP_RTC?LT_TIMER
007AF5H   007B12H   00001EH   BYTE   UNIT     CODE           ?PR?LT_TIMER_SUB_SEC_MIN?LT_TIMER
007B13H   007B2FH   00001DH   BYTE   UNIT     CODE           ?PR?RTC_ALARM_SET_HOUR_12?RTC
007B30H   007B4CH   00001DH   BYTE   UNIT     CODE           ?PR?_RTC_TEST_ALARM_INT?RTC
007B4DH   007B69H   00001DH   BYTE   UNIT     CODE           ?PR?_RTC_TEST_ALARM_INT_FLAG?RTC
007B6AH   007B86H   00001DH   BYTE   UNIT     CODE           ?PR?LED
007B87H   007BA3H   00001DH   BYTE   UNIT     CODE           ?PR?_CLOCK_GET_MON_DATE?CLOCK
007BA4H   007BC0H   00001DH   BYTE   UNIT     CODE           ?PR?_SM_POWER_PACK_POWERSAVE_SUBMOD0?SM_POWER_PACK_POWERSA
LX51 LINKER/LOCATER V4.66.87.0                                                        05/30/2018  17:25:18  PAGE 10


                                                             -VE
007BC1H   007BDDH   00001DH   BYTE   UNIT     CODE           ?PR?_SM_FUSE_TIMER_INIT?SM_FUSE_TIMER
007BDEH   007BF9H   00001CH   BYTE   UNIT     CODE           ?PR?_TIMER_INC_HOUR?TIMER
007BFAH   007C15H   00001CH   BYTE   UNIT     CODE           ?PR?_SM_CLOCK_MOD_TIME_SUBMOD2?SM_CLOCK_MOD_TIME
007C16H   007C31H   00001CH   BYTE   UNIT     CODE           ?PR?_SM_CLOCK_MOD_TIME_SUBMOD3?SM_CLOCK_MOD_TIME
007C32H   007C4DH   00001CH   BYTE   UNIT     CODE           ?PR?_SM_CLOCK_MOD_TIME_SUBMOD4?SM_CLOCK_MOD_TIME
007C4EH   007C69H   00001CH   BYTE   UNIT     CODE           ?PR?_SM_CLOCK_MOD_TIME_SUBMOD5?SM_CLOCK_MOD_TIME
007C6AH   007C85H   00001CH   BYTE   UNIT     CODE           ?PR?_SM_FUSE_TEST_SUBMOD1?SM_FUSE_TEST
007C86H   007CA1H   00001CH   BYTE   UNIT     CODE           ?PR?_SM_FUSE_TEST_SUBMOD2?SM_FUSE_TEST
007CA2H   007CBDH   00001CH   BYTE   UNIT     CODE           ?PR?_SM_FUSE_TEST_SUBMOD3?SM_FUSE_TEST
007CBEH   007CD9H   00001CH   BYTE   UNIT     CODE           ?PR?_SM_FUSE_TEST_SUBMOD4?SM_FUSE_TEST
007CDAH   007CF5H   00001CH   BYTE   UNIT     CODE           ?PR?_SM_FUSE_TEST_SUBMOD5?SM_FUSE_TEST
007CF6H   007D11H   00001CH   BYTE   UNIT     CODE           ?PR?_SM_FUSE_TEST_SUBMOD6?SM_FUSE_TEST
007D12H   007D2DH   00001CH   BYTE   UNIT     CODE           ?PR?_SM_FUSE_TEST_SUBMOD7?SM_FUSE_TEST
007D2EH   007D49H   00001CH   BYTE   UNIT     CODE           ?PR?_SM_FUSE_TEST_SUBMOD8?SM_FUSE_TEST
007D4AH   007D65H   00001CH   BYTE   UNIT     CODE           ?PR?_SM_FUSE_PARAM_SUBMOD1?SM_FUSE_PARAM
007D66H   007D81H   00001CH   BYTE   UNIT     CODE           ?PR?_SM_FUSE_PARAM_SUBMOD2?SM_FUSE_PARAM
007D82H   007D9DH   00001CH   BYTE   UNIT     CODE           ?PR?_SM_FUSE_PARAM_SUBMOD3?SM_FUSE_PARAM
007D9EH   007DB9H   00001CH   BYTE   UNIT     CODE           ?PR?_SM_FUSE_PARAM_SUBMOD4?SM_FUSE_PARAM
007DBAH   007DD5H   00001CH   BYTE   UNIT     CODE           ?PR?_SM_FUSE_PARAM_SUBMOD5?SM_FUSE_PARAM
007DD6H   007DF1H   00001CH   BYTE   UNIT     CODE           ?PR?_SM_FUSE_TIMER_SUBMOD4?SM_FUSE_TIMER
007DF2H   007E0DH   00001CH   BYTE   UNIT     CODE           ?PR?_SM_GLOBAL_FLAG_MOD_SUBMOD2?SM_GLOBAL_FLAG_MOD
007E0EH   007E28H   00001BH   BYTE   UNIT     CODE           ?PR?POWER_5V_ENABLE?POWER
007E29H   007E43H   00001BH   BYTE   UNIT     CODE           ?PR?BEEPER
007E44H   007E5EH   00001BH   BYTE   UNIT     CODE           ?PR?HG_POWER_ON?HG
007E5FH   007E79H   00001BH   BYTE   UNIT     CODE           ?PR?SERIAL_CTL_OUT?SERIAL_HUB
007E7AH   007E94H   00001BH   BYTE   UNIT     CODE           ?PR?_SM_POWER_PACK_DISPLAY_INIT?SM_POWER_PACK_DISPLAY
007E95H   007EAEH   00001AH   BYTE   UNIT     CODE           ?PR?_RTC_ALARM_SET_DATE?RTC
007EAFH   007EC8H   00001AH   BYTE   UNIT     CODE           ?PR?_POWER_PROC?POWER
007EC9H   007EE2H   00001AH   BYTE   UNIT     CODE           ?PR?_FUSE_PROC?FUSE
007EE3H   007EFCH   00001AH   BYTE   UNIT     CODE           ?PR?LT_TIMER_DISPLAY?LT_TIMER
007EFDH   007F16H   00001AH   BYTE   UNIT     CODE           ?PR?_SM_CLOCK_TIMER_INIT?SM_CLOCK_TIMER
007F17H   007F30H   00001AH   BYTE   UNIT     CODE           ?PR?_SM_CLOCK_MOD_TIME_INIT?SM_CLOCK_MOD_TIME
007F31H   007F4AH   00001AH   BYTE   UNIT     CODE           ?PR?_ENTER_PASSWORD?SM_FUSE_PARAM
007F4BH   007F63H   000019H   BYTE   UNIT     CODE           ?PR?_PUTCHAR?COM
007F64H   007F7CH   000019H   BYTE   UNIT     CODE           ?PR?KEY_INITIALIZE?KEY
007F7DH   007F95H   000019H   BYTE   UNIT     CODE           ?PR?SERIAL_HUB
007F96H   007FAEH   000019H   BYTE   UNIT     CODE           ?PR?_SM_CLOCK_MOD_TIME_SUBMOD1?SM_CLOCK_MOD_TIME
007FAFH   007FC7H   000019H   BYTE   UNIT     CODE           ?PR?_SM_GLOBAL_FLAG_MOD_SUBMOD0?SM_GLOBAL_FLAG_MOD
007FC8H   007FE0H   000019H   BYTE   UNIT     CODE           ?PR?_SM_GLOBAL_FLAG_MOD_SUBMOD1?SM_GLOBAL_FLAG_MOD
007FE1H   007FF8H   000018H   BYTE   UNIT     CODE           ?PR?RTC_ENTER_POWERSAVE?RTC
007FF9H   008010H   000018H   BYTE   UNIT     CODE           ?PR?RTC_LEAVE_POWERSAVE?RTC
008011H   008028H   000018H   BYTE   UNIT     CODE           ?PR?ALARM_SWITCH_ON?ALARM
008029H   008040H   000018H   BYTE   UNIT     CODE           ?PR?CLOCK_LEAVE_POWERSAVE?CLOCK
008041H   008058H   000018H   BYTE   UNIT     CODE           ?PR?_TIMER_INC_MIN?TIMER
008059H   008070H   000018H   BYTE   UNIT     CODE           ?PR?_TIMER_INC_SEC?TIMER
008071H   008088H   000018H   BYTE   UNIT     CODE           ?PR?TIMER_CLR?TIMER
008089H   0080A0H   000018H   BYTE   UNIT     CODE           ?PR?_SM_GLOBAL_FLAG_MOD_INIT?SM_GLOBAL_FLAG_MOD
0080A1H   0080B8H   000018H   BYTE   UNIT     CODE           ?PR?CMD_DBG
0080B9H   0080CFH   000017H   BYTE   UNIT     CODE           ?PR?COM
0080D0H   0080E6H   000017H   BYTE   UNIT     CODE           ?PR?_RTC_CLR_ALARM_INT_FLAG?RTC
0080E7H   0080FDH   000017H   BYTE   UNIT     CODE           ?PR?_I2C_GET?I2C
0080FEH   008114H   000017H   BYTE   UNIT     CODE           ?PR?_LED_CLR_BLINK?LED
008115H   00812BH   000017H   BYTE   UNIT     CODE           ?PR?POWER_GET_POWERSAVE_TO?POWER
00812CH   008142H   000017H   BYTE   UNIT     CODE           ?PR?BEEPER_INC_MUSIC_INDEX?BEEPER
008143H   008159H   000017H   BYTE   UNIT     CODE           ?PR?_CLOCK_IS_LEAP_YEAR?CLOCK
00815AH   008170H   000017H   BYTE   UNIT     CODE           ?PR?LT_TIMER_SWITCH_DISPLAY?LT_TIMER
008171H   008187H   000017H   BYTE   UNIT     CODE           ?PR?SM_FUSE_PARAM
008188H   00819EH   000017H   BYTE   UNIT     CODE           ?PR?DISPLAY_DETONATE?SM_FUSE_DETONATE
00819FH   0081B4H   000016H   BYTE   UNIT     CODE           ?PR?RTC_ALARM_GET_HOUR?RTC
0081B5H   0081CAH   000016H   BYTE   UNIT     CODE           ?PR?RTC_ALARM_GET_HOUR_12?RTC
0081CBH   0081E0H   000016H   BYTE   UNIT     CODE           ?PR?RTC_ALARM_GET_MIN?RTC
0081E1H   0081F6H   000016H   BYTE   UNIT     CODE           ?PR?_RTC_ALARM_SET_DAY?RTC
0081F7H   00820CH   000016H   BYTE   UNIT     CODE           ?PR?_RTC_ALARM_SET_SEC?RTC
00820DH   008222H   000016H   BYTE   UNIT     CODE           ?PR?I2C_STOP?I2C
LX51 LINKER/LOCATER V4.66.87.0                                                        05/30/2018  17:25:18  PAGE 11


008223H   008238H   000016H   BYTE   UNIT     CODE           ?PR?_LED_SET_BLINK?LED
008239H   00824EH   000016H   BYTE   UNIT     CODE           ?PR?CLOCK_INC_MONTH?CLOCK
00824FH   008264H   000016H   BYTE   UNIT     CODE           ?PR?CLOCK_LEAVE_SHELL?CLOCK
008265H   00827AH   000016H   BYTE   UNIT     CODE           ?PR?TIMER_START?TIMER
00827BH   008290H   000016H   BYTE   UNIT     CODE           ?PR?_THERMO_PROC?THERMO
008291H   0082A6H   000016H   BYTE   UNIT     CODE           ?PR?CMD_MPU
0082A7H   0082BBH   000015H   BYTE   UNIT     CODE           ?PR?RTC_ALARM_GET_DATE?RTC
0082BCH   0082D0H   000015H   BYTE   UNIT     CODE           ?PR?LED_LEAVE_POWERSAVE?LED
0082D1H   0082E5H   000015H   BYTE   UNIT     CODE           ?PR?ALARM
0082E6H   0082FAH   000015H   BYTE   UNIT     CODE           ?PR?CLOCK_INC_YEAR?CLOCK
0082FBH   00830FH   000015H   BYTE   UNIT     CODE           ?PR?LT_TIMER_ENTER_POWERSAVE?LT_TIMER
008310H   008324H   000015H   BYTE   UNIT     CODE           ?PR?LT_TIMER_SWITCH_ON?LT_TIMER
008325H   008339H   000015H   BYTE   UNIT     CODE           ?PR?_SM_CLOCK_COUNTER_INIT?SM_CLOCK_COUNTER
00833AH   00834DH   000014H   BYTE   UNIT     CODE           ?PR?COM_TRY_GET_KEY?COM
00834EH   008361H   000014H   BYTE   UNIT     CODE           ?PR?RTC_ALARM_GET_DAY?RTC
008362H   008375H   000014H   BYTE   UNIT     CODE           ?PR?RTC_ALARM_GET_SEC?RTC
008376H   008389H   000014H   BYTE   UNIT     CODE           ?PR?RTC_ALARM_GET_MOD_STR?RTC
00838AH   00839DH   000014H   BYTE   UNIT     CODE           ?PR?RTC_GET_SQUARE_RATE_STR?RTC
00839EH   0083B1H   000014H   BYTE   UNIT     CODE           ?PR?_I2C_PUT?I2C
0083B2H   0083C5H   000014H   BYTE   UNIT     CODE           ?PR?TASK_INITIALIZE?TASK
0083C6H   0083D9H   000014H   BYTE   UNIT     CODE           ?PR?BEEPER_INC_MUSIC_TO?BEEPER
0083DAH   0083EDH   000014H   BYTE   UNIT     CODE           ?PR?_TIMER_GET_HOUR?TIMER
0083EEH   008401H   000014H   BYTE   UNIT     CODE           ?PR?_TIMER_GET_MIN?TIMER
008402H   008415H   000014H   BYTE   UNIT     CODE           ?PR?_TIMER_GET_SEC?TIMER
008416H   008429H   000014H   BYTE   UNIT     CODE           ?PR?LT_TIMER_INITIALIZE?LT_TIMER
00842AH   00843DH   000014H   BYTE   UNIT     CODE           ?PR?TOGGLE_ALARM_MUSIC?SM_CLOCK_MOD_ALARM
00843EH   008451H   000014H   BYTE   UNIT     CODE           ?PR?_SM_FUSE_POWERSAVE_SUBMOD1?SM_FUSE_POWERSAVE
008452H   008465H   000014H   BYTE   UNIT     CODE           ?PR?CMD_HELP
008466H   008479H   000014H   BYTE   UNIT     CODE           ?PR?GETCHAR?GETCHAR
00847AH   00848DH   000014H   BYTE   UNIT     CODE           ?PR?_ISSPACE?ISSPACE
00848EH   0084A0H   000013H   BYTE   UNIT     CODE           ?PR?_TIME_PROC?SM
0084A1H   0084B3H   000013H   BYTE   UNIT     CODE           ?PR?SCAN_RTC?RTC
0084B4H   0084C6H   000013H   BYTE   UNIT     CODE           ?PR?_RTC_ALARM_SET_HOUR?RTC
0084C7H   0084D9H   000013H   BYTE   UNIT     CODE           ?PR?_RTC_ALARM_SET_MIN?RTC
0084DAH   0084ECH   000013H   BYTE   UNIT     CODE           ?PR?INT_HUB
0084EDH   0084FFH   000013H   BYTE   UNIT     CODE           ?PR?LT_TIMER_INC_DATE?LT_TIMER
008500H   008512H   000013H   BYTE   UNIT     CODE           ?PR?MPU
008513H   008524H   000012H   BYTE   UNIT     CODE           ?PR?_RTC_DATE_SET_DAY?RTC
008525H   008536H   000012H   BYTE   UNIT     CODE           ?PR?I2C_PUTACK?I2C
008537H   008548H   000012H   BYTE   UNIT     CODE           ?PR?TIMER_INITIALIZE?TIMER
008549H   00855AH   000012H   BYTE   UNIT     CODE           ?PR?__HG_GET_STATE?HG
00855BH   00856CH   000012H   BYTE   UNIT     CODE           ?PR?HG_GET_STATE?HG
00856DH   00857EH   000012H   BYTE   UNIT     CODE           ?PR?THERMO_HI_THRESHOLD_DEC?THERMO
00857FH   008590H   000012H   BYTE   UNIT     CODE           ?PR?THERMO_HI_THRESHOLD_INC?THERMO
008591H   0085A2H   000012H   BYTE   UNIT     CODE           ?PR?THERMO_LO_THRESHOLD_DEC?THERMO
0085A3H   0085B4H   000012H   BYTE   UNIT     CODE           ?PR?THERMO_LO_THRESHOLD_INC?THERMO
0085B5H   0085C6H   000012H   BYTE   UNIT     CODE           ?PR?_MPU_THRESHOLD_INC?MPU
0085C7H   0085D8H   000012H   BYTE   UNIT     CODE           ?PR?SM_CLOCK_MOD_ALARM
0085D9H   0085EAH   000012H   BYTE   UNIT     CODE           ?PR?ROLL_BACK?SM_FUSE_POWERSAVE
0085EBH   0085FBH   000011H   BYTE   UNIT     CODE           ?PR?_SM_SET_STATE?SM
0085FCH   00860CH   000011H   BYTE   UNIT     CODE           ?PR?_RTC_SET_SQUARE_RATE?RTC
00860DH   00861DH   000011H   BYTE   UNIT     CODE           ?PR?I2C_DELAY?I2C
00861EH   00862EH   000011H   BYTE   UNIT     CODE           ?PR?KEY
00862FH   00863FH   000011H   BYTE   UNIT     CODE           ?PR?LED_CLEAR?LED
008640H   008650H   000011H   BYTE   UNIT     CODE           ?PR?LED_ENTER_POWERSAVE?LED
008651H   008661H   000011H   BYTE   UNIT     CODE           ?PR?INT1_ISR?INT_HUB
008662H   008671H   000010H   BYTE   UNIT     CODE           ?PR?_GETKEY?COM
008672H   008681H   000010H   BYTE   UNIT     CODE           ?PR?RTC_TIME_SET_HOUR_12?RTC
008682H   008691H   000010H   BYTE   UNIT     CODE           ?PR?TIMER_SET_LED_AUTOREFRESH?TIMER
008692H   0086A1H   000010H   BYTE   UNIT     CODE           ?PR?_INC_WRITE?SM_CLOCK_MOD_ALARM
0086A2H   0086B1H   000010H   BYTE   UNIT     CODE           ?PR?_INC_AND_WRITE?SM_CLOCK_MOD_TIME
0086B2H   0086C1H   000010H   BYTE   UNIT     CODE           ?PR?SM_FUSE_POWERSAVE
0086C2H   0086D0H   00000FH   BYTE   UNIT     CODE           ?PR?RTC_SET_EOSC?RTC
0086D1H   0086DFH   00000FH   BYTE   UNIT     CODE           ?PR?RTC_SET_BBSQW?RTC
0086E0H   0086EEH   00000FH   BYTE   UNIT     CODE           ?PR?RTC_SET_CONV?RTC
LX51 LINKER/LOCATER V4.66.87.0                                                        05/30/2018  17:25:18  PAGE 12


0086EFH   0086FDH   00000FH   BYTE   UNIT     CODE           ?PR?RTC_SET_INTCN?RTC
0086FEH   00870CH   00000FH   BYTE   UNIT     CODE           ?PR?RTC_SET_OSF?RTC
00870DH   00871BH   00000FH   BYTE   UNIT     CODE           ?PR?RTC_SET_EN32KHZ?RTC
00871CH   00872AH   00000FH   BYTE   UNIT     CODE           ?PR?TASK
00872BH   008739H   00000FH   BYTE   UNIT     CODE           ?PR?_LED_CLR_DP?LED
00873AH   008748H   00000FH   BYTE   UNIT     CODE           ?PR?_LED_SET_DP?LED
008749H   008757H   00000FH   BYTE   UNIT     CODE           ?PR?LT_TIMER_RESET?LT_TIMER
008758H   008766H   00000FH   BYTE   UNIT     CODE           ?PR?MPU_INITIALIZE?MPU
008767H   008775H   00000FH   BYTE   UNIT     CODE           ?PR?_SM_CLOCK_MOD_ALARM_INIT?SM_CLOCK_MOD_ALARM
008776H   008784H   00000FH   BYTE   UNIT     CODE           ?PR?_SM_FUSE_DETONATE_INIT?SM_FUSE_DETONATE
008785H   008793H   00000FH   BYTE   UNIT     CODE           ?PR?SM_GLOBAL_FLAG_MOD
008794H   0087A2H   00000FH   BYTE   UNIT     CODE           ?PR?CMD_TASK
0087A3H   0087B1H   00000FH   BYTE   UNIT     CODE           ?PR?_ISDIGIT?ISDIGIT
0087B2H   0087BFH   00000EH   BYTE   UNIT     CODE           ?PR?COM_ENTER_POWERSAVE?COM
0087C0H   0087CDH   00000EH   BYTE   UNIT     CODE           ?PR?ALARM0_INC_MIN?ALARM
0087CEH   0087DBH   00000EH   BYTE   UNIT     CODE           ?PR?ALARM0_INC_HOUR?ALARM
0087DCH   0087E9H   00000EH   BYTE   UNIT     CODE           ?PR?_DELAY_10US?MISC
0087EAH   0087F7H   00000EH   BYTE   UNIT     CODE           ?PR?_DELAY_MS?MISC
0087F8H   008805H   00000EH   BYTE   UNIT     CODE           ?PR?_BEEPER_STOP_PLAY?BEEPER
008806H   008813H   00000EH   BYTE   UNIT     CODE           ?PR?CLOCK_ENTER_POWERSAVE?CLOCK
008814H   008821H   00000EH   BYTE   UNIT     CODE           ?PR?LT_TIMER_START_RAM?LT_TIMER
008822H   00882FH   00000EH   BYTE   UNIT     CODE           ?PR?_MPU_THRESHOLD_SET?MPU
008830H   00883DH   00000EH   BYTE   UNIT     CODE           ?PR?SM_POWER_PACK_DISPLAY
00883EH   00884BH   00000EH   BYTE   UNIT     CODE           ?PR?SM_POWER_PACK_POWERSAVE
00884CH   008859H   00000EH   BYTE   UNIT     CODE           ?PR?INC_PASSWORD?SM_FUSE_TIMER
00885AH   008867H   00000EH   BYTE   UNIT     CODE           ?PR?SM_FUSE_DETONATE
008868H   008874H   00000DH   BYTE   UNIT     CODE           ?PR?RTC_GET_SQUARE_RATE?RTC
008875H   008881H   00000DH   BYTE   UNIT     CODE           ?PR?HG_POWER_OFF?HG
008882H   00888DH   00000CH   BYTE   UNIT     CODE           ?PR?RTC_DATE_GET_YEAR?RTC
00888EH   008899H   00000CH   BYTE   UNIT     CODE           ?PR?RTC_DATE_GET_MONTH?RTC
00889AH   0088A5H   00000CH   BYTE   UNIT     CODE           ?PR?TIMER_ENTER_POWERSAVE?TIMER
0088A6H   0088B1H   00000CH   BYTE   UNIT     CODE           ?PR?FUSE_INITIALIZE?FUSE
0088B2H   0088BDH   00000CH   BYTE   UNIT     CODE           ?PR?HG_CB_SET_ENABLE?HG
0088BEH   0088C9H   00000CH   BYTE   UNIT     CODE           ?PR?HG_INITIALIZE?HG
0088CAH   0088D5H   00000CH   BYTE   UNIT     CODE           ?PR?LT_TIMER_STOP_RAM?LT_TIMER
0088D6H   0088E1H   00000CH   BYTE   UNIT     CODE           ?PR?THERMO_INITIALIZE?THERMO
0088E2H   0088EDH   00000CH   BYTE   UNIT     CODE           ?PR?THERMO_HI_THRESHOLD_REACH_TOP?THERMO
0088EEH   0088F9H   00000CH   BYTE   UNIT     CODE           ?PR?THERMO_LO_THRESHOLD_REACH_TOP?THERMO
0088FAH   008905H   00000CH   BYTE   UNIT     CODE           ?PR?_CMD_NULL?SHELL
008906H   008911H   00000CH   BYTE   UNIT     CODE           ?PR?_SM_POWER_PACK_POWERSAVE_INIT?SM_POWER_PACK_POWERSAVE
008912H   00891CH   00000BH   BYTE   UNIT     CODE           ?PR?_SM_SET_SUB_STATE?SM
00891DH   008927H   00000BH   BYTE   UNIT     CODE           ?PR?I2C_START?I2C
008928H   008932H   00000BH   BYTE   UNIT     CODE           ?PR?CLOCK_INC_MIN?CLOCK
008933H   00893DH   00000BH   BYTE   UNIT     CODE           ?PR?CLOCK_INC_HOUR?CLOCK
00893EH   008948H   00000BH   BYTE   UNIT     CODE           ?PR?HG
008949H   008953H   00000BH   BYTE   UNIT     CODE           ?PR?LT_TIMER_INC_YEAR?LT_TIMER
008954H   00895EH   00000BH   BYTE   UNIT     CODE           ?PR?LT_TIMER_INC_MONTH?LT_TIMER
00895FH   008969H   00000BH   BYTE   UNIT     CODE           ?PR?LT_TIMER_INC_HOUR?LT_TIMER
00896AH   008974H   00000BH   BYTE   UNIT     CODE           ?PR?LT_TIMER_INC_MIN?LT_TIMER
008975H   00897FH   00000BH   BYTE   UNIT     CODE           ?PR?LT_TIMER_INC_SEC?LT_TIMER
008980H   00898AH   00000BH   BYTE   UNIT     CODE           ?PR?THERMO_HI_THRESHOLD_REACH_BOTTOM?THERMO
00898BH   008995H   00000BH   BYTE   UNIT     CODE           ?PR?THERMO_LO_THRESHOLD_REACH_BOTTOM?THERMO
008996H   0089A0H   00000BH   BYTE   UNIT     CODE           ?PR?CMD_SERIAL
0089A1H   0089AAH   00000AH   BYTE   UNIT     CODE           ?PR?RTC_TEST_EOSC?RTC
0089ABH   0089B4H   00000AH   BYTE   UNIT     CODE           ?PR?RTC_TEST_BBSQW?RTC
0089B5H   0089BEH   00000AH   BYTE   UNIT     CODE           ?PR?RTC_TEST_CONV?RTC
0089BFH   0089C8H   00000AH   BYTE   UNIT     CODE           ?PR?RTC_TEST_INTCN?RTC
0089C9H   0089D2H   00000AH   BYTE   UNIT     CODE           ?PR?RTC_TEST_OSF?RTC
0089D3H   0089DCH   00000AH   BYTE   UNIT     CODE           ?PR?RTC_TEST_EN32KHZ?RTC
0089DDH   0089E6H   00000AH   BYTE   UNIT     CODE           ?PR?RTC_TEST_BSY?RTC
0089E7H   0089F0H   00000AH   BYTE   UNIT     CODE           ?PR?I2C_INIT?I2C
0089F1H   0089FAH   00000AH   BYTE   UNIT     CODE           ?PR?I2C
0089FBH   008A04H   00000AH   BYTE   UNIT     CODE           ?PR?INTERNAL_DELAY_MS?MISC
008A05H   008A0EH   00000AH   BYTE   UNIT     CODE           ?PR?THERMO_ENABLE?THERMO
008A0FH   008A18H   00000AH   BYTE   UNIT     CODE           ?PR?_INC_AND_WRITE?SM_CLOCK_COUNTER
LX51 LINKER/LOCATER V4.66.87.0                                                        05/30/2018  17:25:18  PAGE 13


008A19H   008A22H   00000AH   BYTE   UNIT     CODE           ?PR?_INC_AND_WRITE?SM_FUSE_PARAM
008A23H   008A2CH   00000AH   BYTE   UNIT     CODE           ?PR?_SM_FUSE_POWERSAVE_INIT?SM_FUSE_POWERSAVE
008A2DH   008A35H   000009H   BYTE   UNIT     CODE           ?PR?_RTC_TIME_SET_MIN?RTC
008A36H   008A3EH   000009H   BYTE   UNIT     CODE           ?PR?KEY_ENTER_POWERSAVE?KEY
008A3FH   008A47H   000009H   BYTE   UNIT     CODE           ?PR?KEY_LEAVE_POWERSAVE?KEY
008A48H   008A50H   000009H   BYTE   UNIT     CODE           ?PR?ALARM_INITIALIZE?ALARM
008A51H   008A59H   000009H   BYTE   UNIT     CODE           ?PR?ALARM_ENTER_POWERSAVE?ALARM
008A5AH   008A62H   000009H   BYTE   UNIT     CODE           ?PR?ALARM_LEAVE_POWERSAVE?ALARM
008A63H   008A6BH   000009H   BYTE   UNIT     CODE           ?PR?POWER_RESET_POWERSAVE_TO?POWER
008A6CH   008A74H   000009H   BYTE   UNIT     CODE           ?PR?BEEPER_ENTER_POWERSAVE?BEEPER
008A75H   008A7DH   000009H   BYTE   UNIT     CODE           ?PR?BEEPER_LEAVE_POWERSAVE?BEEPER
008A7EH   008A86H   000009H   BYTE   UNIT     CODE           ?PR?CLOCK_ENABLE_INTERRUPT?CLOCK
008A87H   008A8FH   000009H   BYTE   UNIT     CODE           ?PR?TIMER_LEAVE_POWERSAVE?TIMER
008A90H   008A98H   000009H   BYTE   UNIT     CODE           ?PR?FUSE_ENTER_POWERSAVE?FUSE
008A99H   008AA1H   000009H   BYTE   UNIT     CODE           ?PR?FUSE_LEAVE_POWERSAVE?FUSE
008AA2H   008AAAH   000009H   BYTE   UNIT     CODE           ?PR?HG_ENTER_POWERSAVE?HG
008AABH   008AB3H   000009H   BYTE   UNIT     CODE           ?PR?HG_LEAVE_POWERSAVE?HG
008AB4H   008ABCH   000009H   BYTE   UNIT     CODE           ?PR?THERMO_ENTER_POWERSAVE?THERMO
008ABDH   008AC5H   000009H   BYTE   UNIT     CODE           ?PR?THERMO_LEAVE_POWERSAVE?THERMO
008AC6H   008ACEH   000009H   BYTE   UNIT     CODE           ?PR?DELAY_TASK_INITIALIZE?DELAY_TASK
008ACFH   008AD7H   000009H   BYTE   UNIT     CODE           ?PR?MPU_ENTER_POWERSAVE?MPU
008AD8H   008AE0H   000009H   BYTE   UNIT     CODE           ?PR?MPU_LEAVE_POWERSAVE?MPU
008AE1H   008AE9H   000009H   BYTE   UNIT     CODE           ?PR?RESET_AUTO_SWITCH?SM_CLOCK_DISPLAY
008AEAH   008AF1H   000008H   BYTE   UNIT     CODE           ?PR?__RTC_GET_MIN_SEC?RTC
008AF2H   008AF9H   000008H   BYTE   UNIT     CODE           ?PR?RTC_TIME_GET_HOUR?RTC
008AFAH   008B01H   000008H   BYTE   UNIT     CODE           ?PR?RTC_TIME_GET_HOUR_12?RTC
008B02H   008B09H   000008H   BYTE   UNIT     CODE           ?PR?RTC_TIME_GET_MIN?RTC
008B0AH   008B11H   000008H   BYTE   UNIT     CODE           ?PR?RTC_TIME_GET_SEC?RTC
008B12H   008B19H   000008H   BYTE   UNIT     CODE           ?PR?_RTC_DATE_SET_YEAR?RTC
008B1AH   008B21H   000008H   BYTE   UNIT     CODE           ?PR?_RTC_DATE_SET_MONTH?RTC
008B22H   008B29H   000008H   BYTE   UNIT     CODE           ?PR?RTC_DATE_GET_DATE?RTC
008B2AH   008B31H   000008H   BYTE   UNIT     CODE           ?PR?THERMO_HI_THRESHOLD_RESET?THERMO
008B32H   008B39H   000008H   BYTE   UNIT     CODE           ?PR?THERMO_LO_THRESHOLD_RESET?THERMO
008B3AH   008B41H   000008H   BYTE   UNIT     CODE           ?PR?ROM_IS_FACTORY_RESET?ROM
008B42H   008B49H   000008H   BYTE   UNIT     CODE           ?PR?MPU_THRESHOLD_RESET?MPU
008B4AH   008B50H   000007H   BYTE   UNIT     CODE           ?PR?__RTC_GET_HOUR_12?RTC
008B51H   008B57H   000007H   BYTE   UNIT     CODE           ?PR?SM_CLOCK_ALARM
008B58H   008B5DH   000006H   BYTE   UNIT     CODE           ?PR?_RTC_TIME_SET_HOUR?RTC
008B5EH   008B63H   000006H   BYTE   UNIT     CODE           ?PR?_RTC_TIME_SET_SEC?RTC
008B64H   008B69H   000006H   BYTE   UNIT     CODE           ?PR?RTC_DATE_GET_DAY?RTC
008B6AH   008B6FH   000006H   BYTE   UNIT     CODE           ?PR?ALARM0_GET_DAY_MASK?ALARM
008B70H   008B75H   000006H   BYTE   UNIT     CODE           ?PR?ALARM0_GET_MIN?ALARM
008B76H   008B7BH   000006H   BYTE   UNIT     CODE           ?PR?ALARM0_GET_HOUR?ALARM
008B7CH   008B81H   000006H   BYTE   UNIT     CODE           ?PR?POWER_GET_POWERSAVE_TO_S?POWER
008B82H   008B87H   000006H   BYTE   UNIT     CODE           ?PR?INTERNAL_DELAY_10US?MISC
008B88H   008B8DH   000006H   BYTE   UNIT     CODE           ?PR?BEEPER_GET_MUSIC_TO?BEEPER
008B8EH   008B93H   000006H   BYTE   UNIT     CODE           ?PR?BEEPER_GET_MUSIC_INDEX?BEEPER
008B94H   008B99H   000006H   BYTE   UNIT     CODE           ?PR?_CLOCK_SWITCH_DISPLAY_MODE?CLOCK
008B9AH   008B9FH   000006H   BYTE   UNIT     CODE           ?PR?CLOCK_GET_DATE?CLOCK
008BA0H   008BA5H   000006H   BYTE   UNIT     CODE           ?PR?CLOCK_GET_DAY?CLOCK
008BA6H   008BABH   000006H   BYTE   UNIT     CODE           ?PR?CLOCK_GET_MONTH?CLOCK
008BACH   008BB1H   000006H   BYTE   UNIT     CODE           ?PR?_TIMER_SET_MODE?TIMER
008BB2H   008BB7H   000006H   BYTE   UNIT     CODE           ?PR?LT_TIMER_GET_MONTH?LT_TIMER
008BB8H   008BBDH   000006H   BYTE   UNIT     CODE           ?PR?LT_TIMER_GET_DATE?LT_TIMER
008BBEH   008BC3H   000006H   BYTE   UNIT     CODE           ?PR?MPU_THRESHOLD_GET?MPU
008BC4H   008BC8H   000005H   BYTE   UNIT     CODE           ?PR?ALARM1_SET_ENABLE?ALARM
008BC9H   008BCDH   000005H   BYTE   UNIT     CODE           ?PR?BEEPER_SET_BEEP_ENABLE?BEEPER
008BCEH   008BD2H   000005H   BYTE   UNIT     CODE           ?PR?CLOCK_DISPLAY?CLOCK
008BD3H   008BD7H   000005H   BYTE   UNIT     CODE           ?PR?CLOCK_SET_HOUR_12?CLOCK
008BD8H   008BDCH   000005H   BYTE   UNIT     CODE           ?PR?CLOCK_GET_MS39?CLOCK
008BDDH   008BE1H   000005H   BYTE   UNIT     CODE           ?PR?CLOCK_GET_SEC_256?CLOCK
008BE2H   008BE6H   000005H   BYTE   UNIT     CODE           ?PR?CLOCK_GET_SEC?CLOCK
008BE7H   008BEBH   000005H   BYTE   UNIT     CODE           ?PR?CLOCK_CLR_SEC?CLOCK
008BECH   008BF0H   000005H   BYTE   UNIT     CODE           ?PR?CLOCK_GET_MIN?CLOCK
008BF1H   008BF5H   000005H   BYTE   UNIT     CODE           ?PR?CLOCK_GET_HOUR?CLOCK
LX51 LINKER/LOCATER V4.66.87.0                                                        05/30/2018  17:25:18  PAGE 14


008BF6H   008BFAH   000005H   BYTE   UNIT     CODE           ?PR?CLOCK_GET_YEAR?CLOCK
008BFBH   008BFFH   000005H   BYTE   UNIT     CODE           ?PR?LT_TIMER_SET_HOUR_12?LT_TIMER
008C00H   008C04H   000005H   BYTE   UNIT     CODE           ?PR?LT_TIMER_GET_YEAR?LT_TIMER
008C05H   008C09H   000005H   BYTE   UNIT     CODE           ?PR?LT_TIMER_GET_HOUR?LT_TIMER
008C0AH   008C0EH   000005H   BYTE   UNIT     CODE           ?PR?LT_TIMER_GET_MIN?LT_TIMER
008C0FH   008C13H   000005H   BYTE   UNIT     CODE           ?PR?LT_TIMER_GET_SEC?LT_TIMER
008C14H   008C18H   000005H   BYTE   UNIT     CODE           ?PR?DEBUG_ONOFF?DEBUG
008C19H   008C1CH   000004H   BYTE   UNIT     CODE           ?PR?POWER_5V_GET_ENABLE?POWER
008C1DH   008C1FH   000003H   BYTE   UNIT     CODE           ?PR?_NULL_PROC?SM
008C20H   008C22H   000003H   BYTE   UNIT     CODE           ?PR?RTC_IS_LT_TIMER?RTC
008C23H   008C25H   000003H   BYTE   UNIT     CODE           ?PR?ALARM0_GET_HOUR_12?ALARM
008C26H   008C28H   000003H   BYTE   UNIT     CODE           ?PR?ALARM1_TEST_ENABLE?ALARM
008C29H   008C2BH   000003H   BYTE   UNIT     CODE           ?PR?POWER_TEST_FLAG?POWER
008C2CH   008C2EH   000003H   BYTE   UNIT     CODE           ?PR?POWER_SET_FLAG?POWER
008C2FH   008C31H   000003H   BYTE   UNIT     CODE           ?PR?POWER_CLR_FLAG?POWER
008C32H   008C34H   000003H   BYTE   UNIT     CODE           ?PR?POWER_GET_VOLUME?POWER
008C35H   008C37H   000003H   BYTE   UNIT     CODE           ?PR?BEEPER_GET_BEEP_ENABLE?BEEPER
008C38H   008C3AH   000003H   BYTE   UNIT     CODE           ?PR?BEEPER_STOP_MUSIC?BEEPER
008C3BH   008C3DH   000003H   BYTE   UNIT     CODE           ?PR?CLOCK_GET_HOUR_12?CLOCK
008C3EH   008C40H   000003H   BYTE   UNIT     CODE           ?PR?CLOCK_ENTER_SHELL?CLOCK
008C41H   008C43H   000003H   BYTE   UNIT     CODE           ?PR?TIMER_STOP?TIMER
008C44H   008C46H   000003H   BYTE   UNIT     CODE           ?PR?LT_TIMER_GET_HOUR_12?LT_TIMER
008C47H   008C49H   000003H   BYTE   UNIT     CODE           ?PR?DEBUG_INITIALIZE?DEBUG
008C4AH   0096A2H   000A59H   BYTE   UNIT     CONST          ?CO?SM
0096A3H   009D49H   0006A7H   BYTE   UNIT     CONST          ?CO?SHELL
009D4AH   00A303H   0005BAH   BYTE   UNIT     CONST          ?CO?CLOCK
00A304H   00A753H   000450H   BYTE   UNIT     CONST          ?CO?RTC
00A754H   00AAA4H   000351H   BYTE   UNIT     CONST          ?CO?BEEPER
00AAA5H   00ADF0H   00034CH   BYTE   UNIT     CONST          ?CO?SM_FUSE_TEST
00ADF1H   00B088H   000298H   BYTE   UNIT     CONST          ?CO?INT_HUB
00B089H   00B2D5H   00024DH   BYTE   UNIT     CONST          ?CO?LT_TIMER
00B2D6H   00B506H   000231H   BYTE   UNIT     CONST          ?CO?TASK
00B507H   00B72CH   000226H   BYTE   UNIT     CONST          ?CO?SM_FUSE_TIMER
00B72DH   00B932H   000206H   BYTE   UNIT     CONST          ?CO?SM_CLOCK_MOD_TIME
00B933H   00BB28H   0001F6H   BYTE   UNIT     CONST          ?CO?SM_FUSE_PARAM
00BB29H   00BD0FH   0001E7H   BYTE   UNIT     CONST          ?CO?SM_CLOCK_COUNTER
00BD10H   00BEE9H   0001DAH   BYTE   UNIT     CONST          ?CO?SERIAL_HUB
00BEEAH   00C0B0H   0001C7H   BYTE   UNIT     CONST          ?CO?SM_CLOCK_MOD_ALARM
00C0B1H   00C24CH   00019CH   BYTE   UNIT     CONST          ?CO?THERMO
00C24DH   00C3CDH   000181H   BYTE   UNIT     CONST          ?CO?KEY
00C3CEH   00C53EH   000171H   BYTE   UNIT     CONST          ?CO?ALARM
00C53FH   00C68AH   00014CH   BYTE   UNIT     CONST          ?CO?SM_CLOCK_DISPLAY
00C68BH   00C7B9H   00012FH   BYTE   UNIT     CONST          ?CO?SM_GLOBAL_FLAG_MOD
00C7BAH   00C8A9H   0000F0H   BYTE   UNIT     CONST          ?CO?SM_CLOCK_TIMER
00C8AAH   00C996H   0000EDH   BYTE   UNIT     CONST          ?CO?FUSE
00C997H   00CA81H   0000EBH   BYTE   UNIT     CONST          ?CO?MPU
00CA82H   00CB5FH   0000DEH   BYTE   UNIT     CONST          ?CO?HG
00CB60H   00CC27H   0000C8H   BYTE   UNIT     CONST          ?CO?SM_FUSE_POWERSAVE
00CC28H   00CCC2H   00009BH   BYTE   UNIT     CONST          ?CO?SM_POWER_PACK_POWERSAVE
00CCC3H   00CD55H   000093H   BYTE   UNIT     CONST          ?CO?SM_POWER_PACK_DISPLAY
00CD56H   00CDD7H   000082H   BYTE   UNIT     CONST          ?CO?POWER
00CDD8H   00CE58H   000081H   BYTE   UNIT     CONST          ?CO?MAIN
00CE59H   00CED8H   000080H   BYTE   UNIT     CONST          ?CO?SM_FUSE_DETONATE
00CED9H   00CF55H   00007DH   BYTE   UNIT     CONST          ?CO?CMD_I2C
00CF56H   00CFD1H   00007CH   BYTE   UNIT     CONST          ?CO?ROM
00CFD2H   00D044H   000073H   BYTE   UNIT     CONST          ?CO?CMD_BEEPER
00D045H   00D0B3H   00006FH   BYTE   UNIT     CONST          ?CO?LED
00D0B4H   00D115H   000062H   BYTE   UNIT     CONST          ?CO?CMD_THERMO
00D116H   00D16FH   00005AH   BYTE   UNIT     CONST          ?CO?DELAY_TASK
00D170H   00D1C8H   000059H   BYTE   UNIT     CONST          ?CO?TIMER
00D1C9H   00D221H   000059H   BYTE   UNIT     CONST          ?CO?SM_CLOCK_ALARM
00D222H   00D278H   000057H   BYTE   UNIT     CONST          ?CO?SM_CLOCK_POWERSAVE
00D279H   00D2BDH   000045H   BYTE   UNIT     CONST          ?CO?CMD_SM
00D2BEH   00D2E7H   00002AH   BYTE   UNIT     CONST          ?CO?COM
00D2E8H   00D30CH   000025H   BYTE   UNIT     CONST          ?CO?CMD_REBOOT
LX51 LINKER/LOCATER V4.66.87.0                                                        05/30/2018  17:25:18  PAGE 15


00D30DH   00D331H   000025H   BYTE   UNIT     CONST          ?CO?CMD_MPU
00D332H   00D34FH   00001EH   BYTE   UNIT     CONST          ?CO?CMD_SERIAL
00D350H   00D36CH   00001DH   BYTE   UNIT     CONST          ?CO?CMD_HELP
00D36DH   00D388H   00001CH   BYTE   UNIT     CONST          ?CO?CMD_DBG
00D389H   00D39EH   000016H   BYTE   UNIT     CONST          ?CO?MOD_COMMON
00D39FH   00D3A2H   000004H   BYTE   UNIT     CONST          ?CO?CMD_INT

* * * * * * * * * * *  X D A T A   M E M O R Y  * * * * * * * * * * * * *
000000H   00007CH   00007DH   BYTE   UNIT     XDATA          _XDATA_GROUP_
00007DH   0000A5H   000029H   BYTE   UNIT     XDATA          ?XD?SHELL
0000A6H   0000BAH   000015H   BYTE   UNIT     XDATA          ?XD?TIMER
0000BBH   0000C3H   000009H   BYTE   UNIT     XDATA          ?XD?LED
0000C4H   0000C8H   000005H   BYTE   UNIT     XDATA          ?XD?RTC
0000C9H   0000CDH   000005H   BYTE   UNIT     XDATA          ?XD?DELAY_TASK
0000CEH   0000D1H   000004H   BYTE   UNIT     XDATA          ?XD?COM
0000D2H   0000D4H   000003H   BYTE   UNIT     XDATA          ?XD?SM
0000D5H   0000D7H   000003H   BYTE   UNIT     XDATA          ?XD?ALARM
0000D8H   0000DAH   000003H   BYTE   UNIT     XDATA          ?XD?MOD_COMMON
0000DBH   0000DDH   000003H   BYTE   UNIT     XDATA          ?XD?BEEPER
0000DEH   0000DFH   000002H   BYTE   UNIT     XDATA          ?XD?KEY
0000E0H   0000E1H   000002H   BYTE   UNIT     XDATA          ?XD?POWER
0000E2H   0000E3H   000002H   BYTE   UNIT     XDATA          ?XD?SERIAL_HUB
0000E4H   0000E5H   000002H   BYTE   UNIT     XDATA          ?XD?THERMO
0000E6H   0000E6H   000001H   BYTE   UNIT     XDATA          ?XD?CLOCK
0000E7H   0000E7H   000001H   BYTE   UNIT     XDATA          ?XD?HG
0000E8H   0000E8H   000001H   BYTE   UNIT     XDATA          ?XD?MPU
0000E9H   0000E9H   000001H   BYTE   UNIT     XDATA          ?XD?CMD_I2C
0000EAH   0000EAH   000001H   BYTE   UNIT     XDATA          ?XD?GETCHAR



OVERLAY MAP OF MODULE:   Clock (SM)


FUNCTION/MODULE                                BIT_GROUP   DATA_GROUP   XDATA_GROUP
--> CALLED FUNCTION/MODULE                    START  STOP  START  STOP  START  STOP
===================================================================================
?C_C51STARTUP                                 ----- -----  ----- -----  ----- -----
  +--> MAIN/MAIN

MAIN/MAIN                                     ----- -----  ----- -----  ----- -----
  +--> DEBUG_INITIALIZE/DEBUG
  +--> COM_INITIALIZE/COM
  +--> SHOW_VERSION/MAIN
  +--> ROM_INITIALIZE/ROM
  +--> SERIAL_HUB_INITIALIZE/SERIAL_HUB
  +--> RTC_INITIALIZE/RTC
  +--> CLOCK_INITIALIZE/CLOCK
  +--> KEY_INITIALIZE/KEY
  +--> LED_INITIALIZE/LED
  +--> POWER_INITIALIZE/POWER
  +--> ALARM_INITIALIZE/ALARM
  +--> LT_TIMER_INITIALIZE/LT_TIMER
  +--> TIMER_INITIALIZE/TIMER
  +--> BEEPER_INITIALIZE/BEEPER
  +--> THERMO_INITIALIZE/THERMO
  +--> FUSE_INITIALIZE/FUSE
  +--> MPU_INITIALIZE/MPU
  +--> HG_INITIALIZE/HG
  +--> INT_HUB_INITIALIZE/INT_HUB
  +--> TASK_INITIALIZE/TASK
  +--> SM_INITIALIZE/SM
  +--> DELAY_TASK_INITIALIZE/DELAY_TASK
  +--> RUN_TASK/TASK
  +--> RUN_SHELL/SHELL
LX51 LINKER/LOCATER V4.66.87.0                                                        05/30/2018  17:25:18  PAGE 16



DEBUG_INITIALIZE/DEBUG                        ----- -----  ----- -----  ----- -----

COM_INITIALIZE/COM                            ----- -----  ----- -----  ----- -----

SHOW_VERSION/MAIN                             ----- -----  ----- -----  ----- -----
  +--> _DEBUG_PRINTF/DEBUG

_DEBUG_PRINTF/DEBUG                           ----- -----  ----- -----  001CH 0049H
  +--> _VPRINTF/VPRINTF

_VPRINTF/VPRINTF                              ----- -----  ----- -----  004AH 004CH
  +--> PRINTF/PRINTF

PRINTF/PRINTF                                 20H.2 21H.2  0018H 001CH  004DH 007CH
  +--> _PUTCHAR/COM

_PUTCHAR/COM                                  ----- -----  ----- -----  ----- -----
  +--> _PUTBUF/COM

_PUTBUF/COM                                   ----- -----  ----- -----  ----- -----

ROM_INITIALIZE/ROM                            ----- -----  ----- -----  ----- -----
  +--> _DEBUG_PRINTF/DEBUG
  +--> ROM_IS_FACTORY_RESET/ROM
  +--> ROM_RESET/ROM
  +--> ROM_DUMP/ROM

ROM_IS_FACTORY_RESET/ROM                      ----- -----  ----- -----  ----- -----

ROM_RESET/ROM                                 ----- -----  ----- -----  ----- -----
  +--> _ROM_WRITE/ROM

_ROM_WRITE/ROM                                ----- -----  ----- -----  0017H 0018H
  +--> I2C_INIT/I2C
  +--> _I2C_PUT/I2C
  +--> _DEBUG_PRINTF/DEBUG

I2C_INIT/I2C                                  ----- -----  ----- -----  ----- -----
  +--> I2C_DELAY/I2C

I2C_DELAY/I2C                                 ----- -----  ----- -----  ----- -----

_I2C_PUT/I2C                                  ----- -----  ----- -----  0019H 0019H
  +--> _I2C_PUTS/I2C

_I2C_PUTS/I2C                                 ----- -----  ----- -----  001AH 001FH
  +--> I2C_START/I2C
  +--> _I2C_WRITE/I2C
  +--> I2C_GETACK/I2C
  +--> I2C_STOP/I2C

I2C_START/I2C                                 ----- -----  ----- -----  ----- -----
  +--> I2C
  +--> I2C_DELAY/I2C

I2C                                           ----- -----  ----- -----  ----- -----
  +--> I2C_DELAY/I2C

_I2C_WRITE/I2C                                ----- -----  ----- -----  ----- -----
  +--> I2C_DELAY/I2C

I2C_GETACK/I2C                                20H.2 20H.2  ----- -----  ----- -----
  +--> I2C
  +--> I2C_DELAY/I2C
LX51 LINKER/LOCATER V4.66.87.0                                                        05/30/2018  17:25:18  PAGE 17



I2C_STOP/I2C                                  ----- -----  ----- -----  ----- -----
  +--> I2C_DELAY/I2C
  +--> I2C

ROM_DUMP/ROM                                  ----- -----  ----- -----  ----- -----
  +--> _ROM_READ/ROM

_ROM_READ/ROM                                 ----- -----  ----- -----  0016H 0017H
  +--> I2C_INIT/I2C
  +--> _I2C_GET/I2C
  +--> _DEBUG_PRINTF/DEBUG

_I2C_GET/I2C                                  ----- -----  ----- -----  001AH 001CH
  +--> _I2C_GETS/I2C

_I2C_GETS/I2C                                 ----- -----  ----- -----  001DH 0022H
  +--> I2C_START/I2C
  +--> _I2C_WRITE/I2C
  +--> I2C_GETACK/I2C
  +--> I2C_STOP/I2C
  +--> I2C_READ/I2C
  +--> I2C_PUTACK/I2C

I2C_READ/I2C                                  20H.2 20H.2  ----- -----  ----- -----
  +--> I2C_DELAY/I2C
  +--> I2C

I2C_PUTACK/I2C                                20H.2 20H.2  ----- -----  ----- -----
  +--> I2C_DELAY/I2C

SERIAL_HUB_INITIALIZE/SERIAL_HUB              ----- -----  ----- -----  ----- -----
  +--> _DEBUG_PRINTF/DEBUG
  +--> _I2C_PUT/I2C
  +--> SERIAL_CTL_OUT/SERIAL_HUB

SERIAL_CTL_OUT/SERIAL_HUB                     ----- -----  ----- -----  ----- -----
  +--> _I2C_PUT/I2C
  +--> SERIAL_DUMP/SERIAL_HUB

SERIAL_DUMP/SERIAL_HUB                        ----- -----  ----- -----  ----- -----
  +--> _DEBUG_PRINTF/DEBUG
  +--> _SERIAL_TEST_CTL_BIT/SERIAL_HUB
  +--> SERIAL_HUB

_SERIAL_TEST_CTL_BIT/SERIAL_HUB               ----- -----  ----- -----  ----- -----
  +--> SERIAL_HUB

SERIAL_HUB                                    ----- -----  ----- -----  ----- -----

RTC_INITIALIZE/RTC                            ----- -----  ----- -----  0000H 0001H
  +--> _DEBUG_PRINTF/DEBUG
  +--> RTC_DUMP_RAW/RTC
  +--> RTC_DUMP/RTC
  +--> RTC
  +--> _ROM_READ/ROM
  +--> I2C_INIT/I2C
  +--> _RTC_READ_DATA/RTC
  +--> RTC_TIME_GET_HOUR/RTC
  +--> RTC_TIME_SET_HOUR_12/RTC
  +--> _RTC_TIME_SET_HOUR/RTC
  +--> ROM_IS_FACTORY_RESET/ROM
  +--> _RTC_WRITE_DATA/RTC
  +--> RTC_DATE_GET_YEAR/RTC
  +--> RTC_DATE_GET_MONTH/RTC
LX51 LINKER/LOCATER V4.66.87.0                                                        05/30/2018  17:25:18  PAGE 18


  +--> RTC_DATE_GET_DATE/RTC
  +--> _CLOCK_YYMMDD_TO_DAY/CLOCK
  +--> _RTC_DATE_SET_DAY/RTC
  +--> _RTC_ENABLE_ALARM_INT/RTC
  +--> _RTC_CLR_ALARM_INT_FLAG/RTC
  +--> RTC_SET_INTCN/RTC
  +--> RTC_SET_EN32KHZ/RTC
  +--> _RTC_TIME_SET_MIN/RTC
  +--> _RTC_TIME_SET_SEC/RTC
  +--> _RTC_DATE_SET_YEAR/RTC
  +--> _RTC_DATE_SET_MONTH/RTC
  +--> _RTC_DATE_SET_DATE/RTC

RTC_DUMP_RAW/RTC                              ----- -----  ----- -----  0002H 0003H
  +--> _DEBUG_PRINTF/DEBUG
  +--> _I2C_GET/I2C

RTC_DUMP/RTC                                  ----- -----  ----- -----  ----- -----
  +--> _RTC_READ_DATA/RTC
  +--> RTC_DATE_GET_YEAR/RTC
  +--> RTC_DATE_GET_MONTH/RTC
  +--> RTC_DATE_GET_DATE/RTC
  +--> RTC_DATE_GET_DAY/RTC
  +--> _DEBUG_PRINTF/DEBUG
  +--> RTC_TIME_GET_HOUR/RTC
  +--> RTC_TIME_GET_MIN/RTC
  +--> RTC_TIME_GET_SEC/RTC
  +--> RTC_TIME_GET_HOUR_12/RTC
  +--> RTC_ALARM_GET_SEC/RTC
  +--> RTC
  +--> RTC_ALARM_GET_HOUR_12/RTC
  +--> _RTC_TEST_ALARM_INT/RTC
  +--> _RTC_TEST_ALARM_INT_FLAG/RTC
  +--> RTC_TEST_EOSC/RTC
  +--> RTC_TEST_BBSQW/RTC
  +--> RTC_TEST_CONV/RTC
  +--> RTC_GET_SQUARE_RATE_STR/RTC
  +--> RTC_TEST_INTCN/RTC
  +--> RTC_TEST_OSF/RTC
  +--> RTC_TEST_EN32KHZ/RTC
  +--> RTC_TEST_BSY/RTC
  +--> RTC_ALARM_GET_DAY/RTC
  +--> RTC_ALARM_GET_DATE/RTC
  +--> RTC_ALARM_GET_HOUR/RTC
  +--> RTC_ALARM_GET_MIN/RTC
  +--> RTC_ALARM_GET_MOD_STR/RTC

_RTC_READ_DATA/RTC                            ----- -----  ----- -----  0017H 0017H
  +--> RTC
  +--> _I2C_GETS/I2C

RTC                                           ----- -----  ----- -----  ----- -----

RTC_DATE_GET_YEAR/RTC                         ----- -----  ----- -----  ----- -----
  +--> RTC

RTC_DATE_GET_MONTH/RTC                        ----- -----  ----- -----  ----- -----
  +--> RTC

RTC_DATE_GET_DATE/RTC                         ----- -----  ----- -----  ----- -----
  +--> __RTC_GET_DATE/RTC

__RTC_GET_DATE/RTC                            ----- -----  ----- -----  ----- -----
  +--> RTC

LX51 LINKER/LOCATER V4.66.87.0                                                        05/30/2018  17:25:18  PAGE 19


RTC_DATE_GET_DAY/RTC                          ----- -----  ----- -----  ----- -----

RTC_TIME_GET_HOUR/RTC                         ----- -----  ----- -----  ----- -----
  +--> __RTC_GET_HOUR/RTC

__RTC_GET_HOUR/RTC                            ----- -----  ----- -----  ----- -----
  +--> RTC

RTC_TIME_GET_MIN/RTC                          ----- -----  ----- -----  ----- -----
  +--> __RTC_GET_MIN_SEC/RTC

__RTC_GET_MIN_SEC/RTC                         ----- -----  ----- -----  ----- -----
  +--> RTC

RTC_TIME_GET_SEC/RTC                          ----- -----  ----- -----  ----- -----
  +--> __RTC_GET_MIN_SEC/RTC

RTC_TIME_GET_HOUR_12/RTC                      ----- -----  ----- -----  ----- -----
  +--> __RTC_GET_HOUR_12/RTC

__RTC_GET_HOUR_12/RTC                         ----- -----  ----- -----  ----- -----

RTC_ALARM_GET_SEC/RTC                         ----- -----  ----- -----  ----- -----
  +--> RTC

RTC_ALARM_GET_HOUR_12/RTC                     ----- -----  ----- -----  ----- -----
  +--> __RTC_GET_HOUR_12/RTC

_RTC_TEST_ALARM_INT/RTC                       ----- -----  ----- -----  ----- -----

_RTC_TEST_ALARM_INT_FLAG/RTC                  ----- -----  ----- -----  ----- -----

RTC_TEST_EOSC/RTC                             ----- -----  ----- -----  ----- -----

RTC_TEST_BBSQW/RTC                            ----- -----  ----- -----  ----- -----

RTC_TEST_CONV/RTC                             ----- -----  ----- -----  ----- -----

RTC_GET_SQUARE_RATE_STR/RTC                   ----- -----  ----- -----  ----- -----
  +--> RTC_GET_SQUARE_RATE/RTC

RTC_GET_SQUARE_RATE/RTC                       ----- -----  ----- -----  ----- -----

RTC_TEST_INTCN/RTC                            ----- -----  ----- -----  ----- -----

RTC_TEST_OSF/RTC                              ----- -----  ----- -----  ----- -----

RTC_TEST_EN32KHZ/RTC                          ----- -----  ----- -----  ----- -----

RTC_TEST_BSY/RTC                              ----- -----  ----- -----  ----- -----

RTC_ALARM_GET_DAY/RTC                         ----- -----  ----- -----  ----- -----

RTC_ALARM_GET_DATE/RTC                        ----- -----  ----- -----  ----- -----
  +--> __RTC_GET_DATE/RTC

RTC_ALARM_GET_HOUR/RTC                        ----- -----  ----- -----  ----- -----
  +--> __RTC_GET_HOUR/RTC

RTC_ALARM_GET_MIN/RTC                         ----- -----  ----- -----  ----- -----
  +--> __RTC_GET_MIN_SEC/RTC

RTC_ALARM_GET_MOD_STR/RTC                     ----- -----  ----- -----  ----- -----
  +--> RTC_ALARM_GET_MODE/RTC

LX51 LINKER/LOCATER V4.66.87.0                                                        05/30/2018  17:25:18  PAGE 20


RTC_ALARM_GET_MODE/RTC                        ----- -----  ----- -----  ----- -----
  +--> RTC

RTC_TIME_SET_HOUR_12/RTC                      20H.1 20H.1  ----- -----  ----- -----
  +--> RTC
  +--> _RTC_SET_HOUR_12/RTC

_RTC_SET_HOUR_12/RTC                          20H.2 20H.2  ----- -----  0017H 0019H
  +--> RTC
  +--> __RTC_GET_HOUR/RTC
  +--> __RTC_SET_HOUR/RTC

__RTC_SET_HOUR/RTC                            ----- -----  ----- -----  001AH 001CH
  +--> RTC

_RTC_TIME_SET_HOUR/RTC                        ----- -----  ----- -----  ----- -----
  +--> RTC
  +--> __RTC_SET_HOUR/RTC

_RTC_WRITE_DATA/RTC                           ----- -----  ----- -----  0017H 0017H
  +--> I2C_INIT/I2C
  +--> RTC
  +--> _I2C_PUTS/I2C

_CLOCK_YYMMDD_TO_DAY/CLOCK                    ----- -----  ----- -----  0017H 001EH
  +--> CLOCK

CLOCK                                         ----- -----  ----- -----  ----- -----

_RTC_DATE_SET_DAY/RTC                         ----- -----  ----- -----  ----- -----

_RTC_ENABLE_ALARM_INT/RTC                     20H.1 20H.1  ----- -----  ----- -----

_RTC_CLR_ALARM_INT_FLAG/RTC                   ----- -----  ----- -----  ----- -----

RTC_SET_INTCN/RTC                             20H.0 20H.0  ----- -----  ----- -----

RTC_SET_EN32KHZ/RTC                           20H.0 20H.0  ----- -----  ----- -----

_RTC_TIME_SET_MIN/RTC                         ----- -----  ----- -----  ----- -----
  +--> __RTC_SET_MIN_SEC/RTC

__RTC_SET_MIN_SEC/RTC                         ----- -----  ----- -----  0017H 0019H
  +--> RTC

_RTC_TIME_SET_SEC/RTC                         ----- -----  ----- -----  ----- -----
  +--> RTC
  +--> __RTC_SET_MIN_SEC/RTC

_RTC_DATE_SET_YEAR/RTC                        ----- -----  ----- -----  ----- -----
  +--> RTC

_RTC_DATE_SET_MONTH/RTC                       ----- -----  ----- -----  ----- -----
  +--> RTC

_RTC_DATE_SET_DATE/RTC                        ----- -----  ----- -----  0017H 0018H
  +--> RTC_DATE_GET_MONTH/RTC
  +--> _DEBUG_PRINTF/DEBUG
  +--> RTC_DATE_GET_YEAR/RTC
  +--> _CLOCK_IS_LEAP_YEAR/CLOCK
  +--> __RTC_SET_DATE/RTC

_CLOCK_IS_LEAP_YEAR/CLOCK                     ----- -----  ----- -----  ----- -----
  +--> CLOCK

LX51 LINKER/LOCATER V4.66.87.0                                                        05/30/2018  17:25:18  PAGE 21


__RTC_SET_DATE/RTC                            ----- -----  ----- -----  0019H 001BH
  +--> RTC

CLOCK_INITIALIZE/CLOCK                        ----- -----  ----- -----  ----- -----
  +--> _DEBUG_PRINTF/DEBUG
  +--> _CLOCK_SYNC_FROM_RTC/CLOCK
  +--> CLOCK_ENABLE_INTERRUPT/CLOCK
  +--> CLOCK_DUMP/CLOCK

_CLOCK_SYNC_FROM_RTC/CLOCK                    ----- -----  ----- -----  0013H 0013H
  +--> _DEBUG_PRINTF/DEBUG
  +--> _RTC_READ_DATA/RTC
  +--> RTC_TIME_GET_HOUR/RTC
  +--> RTC_TIME_GET_MIN/RTC
  +--> RTC_TIME_GET_SEC/RTC
  +--> RTC_TIME_GET_HOUR_12/RTC
  +--> RTC_DATE_GET_YEAR/RTC
  +--> RTC_DATE_GET_MONTH/RTC
  +--> RTC_DATE_GET_DATE/RTC
  +--> RTC_DATE_GET_DAY/RTC

CLOCK_ENABLE_INTERRUPT/CLOCK                  20H.2 20H.2  ----- -----  ----- -----

CLOCK_DUMP/CLOCK                              ----- -----  ----- -----  ----- -----
  +--> _DEBUG_PRINTF/DEBUG

KEY_INITIALIZE/KEY                            ----- -----  ----- -----  ----- -----
  +--> _DEBUG_PRINTF/DEBUG

LED_INITIALIZE/LED                            ----- -----  ----- -----  ----- -----
  +--> _DEBUG_PRINTF/DEBUG
  +--> LED
  +--> REFRESH_LED/LED
  +--> _DELAY_MS/MISC

LED                                           ----- -----  ----- -----  ----- -----

REFRESH_LED/LED                               ----- -----  ----- -----  ----- -----

_DELAY_MS/MISC                                ----- -----  ----- -----  ----- -----
  +--> INTERNAL_DELAY_MS/MISC

INTERNAL_DELAY_MS/MISC                        ----- -----  ----- -----  ----- -----

POWER_INITIALIZE/POWER                        ----- -----  ----- -----  ----- -----
  +--> _DEBUG_PRINTF/DEBUG
  +--> _ROM_READ/ROM

ALARM_INITIALIZE/ALARM                        ----- -----  ----- -----  ----- -----
  +--> _DEBUG_PRINTF/DEBUG

LT_TIMER_INITIALIZE/LT_TIMER                  ----- -----  ----- -----  ----- -----
  +--> _DEBUG_PRINTF/DEBUG

TIMER_INITIALIZE/TIMER                        ----- -----  ----- -----  ----- -----
  +--> _DEBUG_PRINTF/DEBUG

BEEPER_INITIALIZE/BEEPER                      ----- -----  ----- -----  ----- -----
  +--> _DEBUG_PRINTF/DEBUG
  +--> _ROM_READ/ROM

THERMO_INITIALIZE/THERMO                      ----- -----  ----- -----  ----- -----
  +--> _DEBUG_PRINTF/DEBUG
  +--> THERMO_POWER_OFF/THERMO

LX51 LINKER/LOCATER V4.66.87.0                                                        05/30/2018  17:25:18  PAGE 22


THERMO_POWER_OFF/THERMO                       ----- -----  ----- -----  0015H 0015H
  +--> THERMO_LOAD_CONFIG/THERMO
  +--> _I2C_PUT/I2C
  +--> THERMO_HI_THRESHOLD_RESET/THERMO
  +--> THERMO_LO_THRESHOLD_RESET/THERMO
  +--> THERMO
  +--> _I2C_GET/I2C

THERMO_LOAD_CONFIG/THERMO                     ----- -----  ----- -----  ----- -----
  +--> _DEBUG_PRINTF/DEBUG
  +--> _ROM_READ/ROM

THERMO_HI_THRESHOLD_RESET/THERMO              ----- -----  ----- -----  ----- -----
  +--> _THERMO_HI_THRESHOLD_SET/THERMO

_THERMO_HI_THRESHOLD_SET/THERMO               ----- -----  ----- -----  0016H 0018H
  +--> THERMO
  +--> _DEBUG_PRINTF/DEBUG
  +--> _THERMO_TEMP_TO_HEX/THERMO
  +--> _I2C_PUTS/I2C

THERMO                                        ----- -----  ----- -----  ----- -----

_THERMO_TEMP_TO_HEX/THERMO                    ----- -----  ----- -----  0019H 001AH
  +--> _DEBUG_PRINTF/DEBUG

THERMO_LO_THRESHOLD_RESET/THERMO              ----- -----  ----- -----  ----- -----
  +--> _THERMO_LO_THRESHOLD_SET/THERMO

_THERMO_LO_THRESHOLD_SET/THERMO               ----- -----  ----- -----  0016H 0018H
  +--> _DEBUG_PRINTF/DEBUG
  +--> _THERMO_TEMP_TO_HEX/THERMO
  +--> THERMO
  +--> _I2C_PUTS/I2C

FUSE_INITIALIZE/FUSE                          ----- -----  ----- -----  ----- -----
  +--> _DEBUG_PRINTF/DEBUG
  +--> FUSE_POWER_OFF/FUSE

FUSE_POWER_OFF/FUSE                           ----- -----  ----- -----  ----- -----
  +--> _SERIAL_SET_CTL_BIT/SERIAL_HUB
  +--> SERIAL_CTL_OUT/SERIAL_HUB

_SERIAL_SET_CTL_BIT/SERIAL_HUB                20H.2 20H.2  ----- -----  ----- -----
  +--> SERIAL_HUB

MPU_INITIALIZE/MPU                            ----- -----  ----- -----  ----- -----
  +--> _DEBUG_PRINTF/DEBUG
  +--> MPU_LOAD_CONFIG/MPU
  +--> MPU_POWER_OFF/MPU

MPU_LOAD_CONFIG/MPU                           ----- -----  ----- -----  ----- -----
  +--> _DEBUG_PRINTF/DEBUG
  +--> _ROM_READ/ROM

MPU_POWER_OFF/MPU                             ----- -----  ----- -----  0015H 0015H
  +--> _DEBUG_PRINTF/DEBUG
  +--> _I2C_PUT/I2C
  +--> MPU
  +--> _I2C_GET/I2C

MPU                                           ----- -----  ----- -----  ----- -----

HG_INITIALIZE/HG                              ----- -----  ----- -----  ----- -----
  +--> _DEBUG_PRINTF/DEBUG
LX51 LINKER/LOCATER V4.66.87.0                                                        05/30/2018  17:25:18  PAGE 23


  +--> HG_POWER_OFF/HG

HG_POWER_OFF/HG                               ----- -----  ----- -----  ----- -----
  +--> _SERIAL_SET_CTL_BIT/SERIAL_HUB
  +--> SERIAL_CTL_OUT/SERIAL_HUB

INT_HUB_INITIALIZE/INT_HUB                    ----- -----  ----- -----  0000H 0000H
  +--> _DEBUG_PRINTF/DEBUG
  +--> _I2C_PUT/I2C
  +--> _I2C_GET/I2C

TASK_INITIALIZE/TASK                          ----- -----  ----- -----  ----- -----
  +--> _DEBUG_PRINTF/DEBUG

_TIME_PROC/SM                                 ----- -----  ----- -----  000CH 000CH
  +--> DELAY_TASK_CALL/DELAY_TASK
  +--> _RUN_STATE_MACHINE/SM

DELAY_TASK_CALL/DELAY_TASK                    ----- -----  ----- -----  000DH 000DH
  +--> DELAY_TASK
  +--> _DEBUG_PRINTF/DEBUG

DELAY_TASK                                    ----- -----  ----- -----  ----- -----

_RUN_STATE_MACHINE/SM                         ----- -----  ----- -----  000DH 0010H
  +--> SM
  +--> _DEBUG_PRINTF/DEBUG

SM                                            ----- -----  ----- -----  ----- -----

_SM_CLOCK_DISPLAY_SUBMOD0/SM_CLOCK_DISPL+     ----- -----  ----- -----  0011H 0012H
... AY
  +--> SM_CLOCK_DISPLAY
  +--> _DEBUG_PRINTF/DEBUG
  +--> LED_CLEAR/LED
  +--> CLOCK_DISPLAY/CLOCK
  +--> _CLOCK_SWITCH_DISPLAY_MODE/CLOCK
  +--> POWER_RESET_POWERSAVE_TO/POWER
  +--> POWER_TEST_POWERSAVE_TO/POWER

SM_CLOCK_DISPLAY                              ----- -----  ----- -----  ----- -----

LED_CLEAR/LED                                 ----- -----  ----- -----  ----- -----

CLOCK_DISPLAY/CLOCK                           20H.0 20H.0  ----- -----  ----- -----

_CLOCK_SWITCH_DISPLAY_MODE/CLOCK              ----- -----  ----- -----  ----- -----

POWER_RESET_POWERSAVE_TO/POWER                ----- -----  ----- -----  ----- -----
  +--> CLOCK_GET_SEC_256/CLOCK

CLOCK_GET_SEC_256/CLOCK                       ----- -----  ----- -----  ----- -----

POWER_TEST_POWERSAVE_TO/POWER                 ----- -----  ----- -----  ----- -----
  +--> CLOCK_GET_SEC_256/CLOCK
  +--> _DEBUG_PRINTF/DEBUG

_SM_CLOCK_DISPLAY_SUBMOD1/SM_CLOCK_DISPL+     ----- -----  ----- -----  0011H 0011H
... AY
  +--> SM_CLOCK_DISPLAY
  +--> _DEBUG_PRINTF/DEBUG
  +--> _CLOCK_SWITCH_DISPLAY_MODE/CLOCK
  +--> RESET_AUTO_SWITCH/SM_CLOCK_DISPLAY
  +--> POWER_RESET_POWERSAVE_TO/POWER
  +--> TEST_AUTOSWITCH/SM_CLOCK_DISPLAY
LX51 LINKER/LOCATER V4.66.87.0                                                        05/30/2018  17:25:18  PAGE 24



RESET_AUTO_SWITCH/SM_CLOCK_DISPLAY            ----- -----  ----- -----  ----- -----
  +--> CLOCK_GET_SEC_256/CLOCK

TEST_AUTOSWITCH/SM_CLOCK_DISPLAY              ----- -----  ----- -----  ----- -----
  +--> CLOCK_GET_SEC_256/CLOCK
  +--> _DEBUG_PRINTF/DEBUG

_SM_CLOCK_MOD_TIME_INIT/SM_CLOCK_MOD_TIM+     ----- -----  ----- -----  ----- -----
... E
  +--> SM_CLOCK_MOD_TIME
  +--> _DEBUG_PRINTF/DEBUG
  +--> CLOCK_DISPLAY/CLOCK
  +--> _DISPLAY_LOGO/MOD_COMMON

SM_CLOCK_MOD_TIME                             ----- -----  ----- -----  ----- -----

_DISPLAY_LOGO/MOD_COMMON                      ----- -----  ----- -----  0012H 0013H
  +--> _DEBUG_PRINTF/DEBUG
  +--> LED_CLEAR/LED
  +--> _LED_SET_CODE/LED
  +--> BEEPER_BEEP_BEEP_ALWAYS/BEEPER

_LED_SET_CODE/LED                             ----- -----  ----- -----  ----- -----

BEEPER_BEEP_BEEP_ALWAYS/BEEPER                ----- -----  ----- -----  0014H 0014H
  +--> _DEBUG_PRINTF/DEBUG
  +--> _DELAY_10US/MISC
  +--> _DELAY_MS/MISC

_DELAY_10US/MISC                              ----- -----  ----- -----  ----- -----
  +--> INTERNAL_DELAY_10US/MISC

INTERNAL_DELAY_10US/MISC                      ----- -----  ----- -----  ----- -----

_SM_CLOCK_ALARM/SM_CLOCK_ALARM                ----- -----  ----- -----  0011H 0012H
  +--> _DEBUG_PRINTF/DEBUG
  +--> SM_CLOCK_ALARM
  +--> CLOCK_DISPLAY/CLOCK
  +--> _DISPLAY_ALARM/SM_CLOCK_ALARM
  +--> BEEPER_PLAY_MUSIC/BEEPER
  +--> BEEPER_BEEP_BEEP_ALWAYS/BEEPER

SM_CLOCK_ALARM                                ----- -----  ----- -----  ----- -----

_DISPLAY_ALARM/SM_CLOCK_ALARM                 20H.0 20H.0  ----- -----  0013H 0015H
  +--> LED_CLEAR/LED
  +--> _LED_SET_CODE/LED
  +--> ALARM0_GET_HOUR/ALARM
  +--> ALARM0_GET_MIN/ALARM
  +--> ALARM0_GET_HOUR_12/ALARM
  +--> CLOCK_GET_HOUR/CLOCK
  +--> CLOCK_GET_MIN/CLOCK
  +--> CLOCK_GET_HOUR_12/CLOCK
  +--> _LED_SET_DP/LED
  +--> _LED_CLR_DP/LED

ALARM0_GET_HOUR/ALARM                         ----- -----  ----- -----  ----- -----

ALARM0_GET_MIN/ALARM                          ----- -----  ----- -----  ----- -----

ALARM0_GET_HOUR_12/ALARM                      ----- -----  ----- -----  ----- -----

CLOCK_GET_HOUR/CLOCK                          ----- -----  ----- -----  ----- -----

LX51 LINKER/LOCATER V4.66.87.0                                                        05/30/2018  17:25:18  PAGE 25


CLOCK_GET_MIN/CLOCK                           ----- -----  ----- -----  ----- -----

CLOCK_GET_HOUR_12/CLOCK                       ----- -----  ----- -----  ----- -----

_LED_SET_DP/LED                               ----- -----  ----- -----  ----- -----

_LED_CLR_DP/LED                               ----- -----  ----- -----  ----- -----

BEEPER_PLAY_MUSIC/BEEPER                      ----- -----  ----- -----  ----- -----
  +--> _DEBUG_PRINTF/DEBUG
  +--> __BEEPLER_PLAY/BEEPER

__BEEPLER_PLAY/BEEPER                         20H.0 20H.0  ----- -----  0013H 0018H
  +--> BEEPER
  +--> CLOCK_GET_SEC_256/CLOCK
  +--> _BEEPER_STOP_PLAY/BEEPER
  +--> _DELAY_MS/MISC
  +--> _DELAY_10US/MISC

BEEPER                                        ----- -----  ----- -----  ----- -----

_BEEPER_STOP_PLAY/BEEPER                      ----- -----  ----- -----  ----- -----

_SM_CLOCK_POWERSAVE/SM_CLOCK_POWERSAVE        ----- -----  ----- -----  0011H 0012H
  +--> _DEBUG_PRINTF/DEBUG
  +--> POWER_ENTER_POWERSAVE/POWER
  +--> POWER_LEAVE_POWERSAVE/POWER

POWER_ENTER_POWERSAVE/POWER                   ----- -----  ----- -----  ----- -----
  +--> _DEBUG_PRINTF/DEBUG
  +--> POWER_SET_FLAG/POWER
  +--> LED_ENTER_POWERSAVE/LED
  +--> TIMER_ENTER_POWERSAVE/TIMER
  +--> LT_TIMER_ENTER_POWERSAVE/LT_TIMER
  +--> CLOCK_ENTER_POWERSAVE/CLOCK
  +--> RTC_ENTER_POWERSAVE/RTC
  +--> KEY_ENTER_POWERSAVE/KEY
  +--> ALARM_ENTER_POWERSAVE/ALARM
  +--> BEEPER_ENTER_POWERSAVE/BEEPER
  +--> FUSE_ENTER_POWERSAVE/FUSE
  +--> HG_ENTER_POWERSAVE/HG
  +--> MPU_ENTER_POWERSAVE/MPU
  +--> THERMO_ENTER_POWERSAVE/THERMO
  +--> COM_ENTER_POWERSAVE/COM
  +--> POWER_TEST_FLAG/POWER
  +--> COM_LEAVE_POWERSAVE/COM
  +--> _SCAN_INT_HUB_PROC/INT_HUB

POWER_SET_FLAG/POWER                          ----- -----  ----- -----  ----- -----

LED_ENTER_POWERSAVE/LED                       ----- -----  ----- -----  ----- -----
  +--> _DEBUG_PRINTF/DEBUG
  +--> LED
  +--> LED_CLEAR/LED

TIMER_ENTER_POWERSAVE/TIMER                   ----- -----  ----- -----  ----- -----
  +--> _DEBUG_PRINTF/DEBUG
  +--> TIMER_CLR/TIMER

TIMER_CLR/TIMER                               ----- -----  ----- -----  ----- -----

LT_TIMER_ENTER_POWERSAVE/LT_TIMER             ----- -----  ----- -----  ----- -----
  +--> _DEBUG_PRINTF/DEBUG
  +--> RTC_IS_LT_TIMER/RTC
  +--> LT_TIMER_STOP_RAM/LT_TIMER
LX51 LINKER/LOCATER V4.66.87.0                                                        05/30/2018  17:25:18  PAGE 26


  +--> LT_TIMER_START_RTC/LT_TIMER

RTC_IS_LT_TIMER/RTC                           ----- -----  ----- -----  ----- -----

LT_TIMER_STOP_RAM/LT_TIMER                    ----- -----  ----- -----  ----- -----
  +--> _DEBUG_PRINTF/DEBUG

LT_TIMER_START_RTC/LT_TIMER                   ----- -----  ----- -----  ----- -----
  +--> _DEBUG_PRINTF/DEBUG
  +--> _RTC_READ_DATA/RTC
  +--> _RTC_ENABLE_ALARM_INT/RTC
  +--> _RTC_CLR_ALARM_INT_FLAG/RTC
  +--> _RTC_WRITE_DATA/RTC

CLOCK_ENTER_POWERSAVE/CLOCK                   ----- -----  ----- -----  ----- -----
  +--> _DEBUG_PRINTF/DEBUG
  +--> CLOCK_ENABLE_INTERRUPT/CLOCK

RTC_ENTER_POWERSAVE/RTC                       ----- -----  ----- -----  ----- -----
  +--> _DEBUG_PRINTF/DEBUG
  +--> _RTC_READ_DATA/RTC
  +--> RTC_SET_EN32KHZ/RTC
  +--> _RTC_WRITE_DATA/RTC

KEY_ENTER_POWERSAVE/KEY                       ----- -----  ----- -----  ----- -----
  +--> _DEBUG_PRINTF/DEBUG

ALARM_ENTER_POWERSAVE/ALARM                   ----- -----  ----- -----  ----- -----
  +--> _DEBUG_PRINTF/DEBUG

BEEPER_ENTER_POWERSAVE/BEEPER                 ----- -----  ----- -----  ----- -----
  +--> _DEBUG_PRINTF/DEBUG

FUSE_ENTER_POWERSAVE/FUSE                     ----- -----  ----- -----  ----- -----
  +--> _DEBUG_PRINTF/DEBUG

HG_ENTER_POWERSAVE/HG                         ----- -----  ----- -----  ----- -----
  +--> _DEBUG_PRINTF/DEBUG

MPU_ENTER_POWERSAVE/MPU                       ----- -----  ----- -----  ----- -----
  +--> _DEBUG_PRINTF/DEBUG

THERMO_ENTER_POWERSAVE/THERMO                 ----- -----  ----- -----  ----- -----
  +--> _DEBUG_PRINTF/DEBUG

COM_ENTER_POWERSAVE/COM                       ----- -----  ----- -----  ----- -----
  +--> _DEBUG_PRINTF/DEBUG

POWER_TEST_FLAG/POWER                         ----- -----  ----- -----  ----- -----

COM_LEAVE_POWERSAVE/COM                       ----- -----  ----- -----  ----- -----
  +--> _DEBUG_PRINTF/DEBUG

_SCAN_INT_HUB_PROC/INT_HUB                    ----- -----  ----- -----  0013H 0015H
  +--> _DEBUG_PRINTF/DEBUG
  +--> INT_HUB_DUMP/INT_HUB
  +--> SCAN_RTC/RTC
  +--> INT_HUB_GET_STATUS/INT_HUB
  +--> _INT_HUB_DUMP_EXT_STATUS/INT_HUB
  +--> _SCAN_HG/HG
  +--> _SCAN_FUSE/FUSE
  +--> SCAN_THERMO/THERMO
  +--> SCAN_MPU/MPU
  +--> INT_HUB

LX51 LINKER/LOCATER V4.66.87.0                                                        05/30/2018  17:25:18  PAGE 27


INT_HUB_DUMP/INT_HUB                          ----- -----  ----- -----  ----- -----
  +--> _DEBUG_PRINTF/DEBUG

SCAN_RTC/RTC                                  ----- -----  ----- -----  ----- -----
  +--> _DEBUG_PRINTF/DEBUG
  +--> SCAN_ALARM/ALARM
  +--> SCAN_LT_TIMER/LT_TIMER

SCAN_ALARM/ALARM                              20H.0 20H.1  ----- -----  ----- -----
  +--> _RTC_READ_DATA/RTC
  +--> _RTC_TEST_ALARM_INT_FLAG/RTC
  +--> _RTC_CLR_ALARM_INT_FLAG/RTC
  +--> _RTC_WRITE_DATA/RTC
  +--> CLOCK_GET_DAY/CLOCK
  +--> ALARM
  +--> POWER_TEST_FLAG/POWER
  +--> POWER_CLR_FLAG/POWER
  +--> RTC_TIME_GET_MIN/RTC
  +--> RTC_TIME_GET_SEC/RTC

CLOCK_GET_DAY/CLOCK                           ----- -----  ----- -----  ----- -----

ALARM                                         ----- -----  ----- -----  ----- -----

POWER_CLR_FLAG/POWER                          ----- -----  ----- -----  ----- -----

SCAN_LT_TIMER/LT_TIMER                        20H.0 20H.0  ----- -----  ----- -----
  +--> _DEBUG_PRINTF/DEBUG
  +--> _RTC_READ_DATA/RTC
  +--> _RTC_TEST_ALARM_INT_FLAG/RTC
  +--> _RTC_CLR_ALARM_INT_FLAG/RTC
  +--> _RTC_WRITE_DATA/RTC
  +--> LT_TIMER_GET_YEAR/LT_TIMER
  +--> RTC_DATE_GET_YEAR/RTC
  +--> LT_TIMER_GET_MONTH/LT_TIMER
  +--> RTC_DATE_GET_MONTH/RTC
  +--> POWER_TEST_FLAG/POWER
  +--> POWER_CLR_FLAG/POWER
  +--> LT_TIMER

LT_TIMER_GET_YEAR/LT_TIMER                    ----- -----  ----- -----  ----- -----

LT_TIMER_GET_MONTH/LT_TIMER                   ----- -----  ----- -----  ----- -----

LT_TIMER                                      ----- -----  ----- -----  ----- -----

INT_HUB_GET_STATUS/INT_HUB                    ----- -----  ----- -----  0016H 0018H
  +--> _I2C_GET/I2C
  +--> _DEBUG_PRINTF/DEBUG

_INT_HUB_DUMP_EXT_STATUS/INT_HUB              ----- -----  ----- -----  0016H 0017H
  +--> _DEBUG_PRINTF/DEBUG
  +--> _INT_HUB_TEST_BIT/INT_HUB
  +--> INT_HUB

_INT_HUB_TEST_BIT/INT_HUB                     ----- -----  ----- -----  ----- -----

INT_HUB                                       ----- -----  ----- -----  ----- -----

_SCAN_HG/HG                                   ----- -----  ----- -----  0016H 0018H
  +--> _DEBUG_PRINTF/DEBUG
  +--> __HG_GET_STATE/HG
  +--> HG
  +--> POWER_TEST_FLAG/POWER
  +--> POWER_CLR_FLAG/POWER
LX51 LINKER/LOCATER V4.66.87.0                                                        05/30/2018  17:25:18  PAGE 28



__HG_GET_STATE/HG                             ----- -----  ----- -----  ----- -----

HG                                            ----- -----  ----- -----  ----- -----

_SCAN_FUSE/FUSE                               20H.0 20H.0  ----- -----  0016H 0017H
  +--> _DEBUG_PRINTF/DEBUG
  +--> POWER_TEST_FLAG/POWER
  +--> POWER_CLR_FLAG/POWER

SCAN_THERMO/THERMO                            20H.0 20H.0  ----- -----  0016H 0019H
  +--> _DEBUG_PRINTF/DEBUG
  +--> _I2C_GET/I2C
  +--> THERMO
  +--> POWER_TEST_FLAG/POWER
  +--> POWER_CLR_FLAG/POWER

SCAN_MPU/MPU                                  20H.0 20H.0  ----- -----  ----- -----
  +--> _DEBUG_PRINTF/DEBUG
  +--> MPU_READ_INT_STATUS/MPU
  +--> POWER_TEST_FLAG/POWER
  +--> POWER_CLR_FLAG/POWER

MPU_READ_INT_STATUS/MPU                       ----- -----  ----- -----  0016H 0016H
  +--> _I2C_GET/I2C
  +--> _DEBUG_PRINTF/DEBUG

POWER_LEAVE_POWERSAVE/POWER                   ----- -----  ----- -----  ----- -----
  +--> COM_LEAVE_POWERSAVE/COM
  +--> THERMO_LEAVE_POWERSAVE/THERMO
  +--> MPU_LEAVE_POWERSAVE/MPU
  +--> HG_LEAVE_POWERSAVE/HG
  +--> FUSE_LEAVE_POWERSAVE/FUSE
  +--> BEEPER_LEAVE_POWERSAVE/BEEPER
  +--> ALARM_LEAVE_POWERSAVE/ALARM
  +--> KEY_LEAVE_POWERSAVE/KEY
  +--> RTC_LEAVE_POWERSAVE/RTC
  +--> CLOCK_LEAVE_POWERSAVE/CLOCK
  +--> LT_TIMER_LEAVE_POWERSAVE/LT_TIMER
  +--> TIMER_LEAVE_POWERSAVE/TIMER
  +--> LED_LEAVE_POWERSAVE/LED
  +--> _DEBUG_PRINTF/DEBUG

THERMO_LEAVE_POWERSAVE/THERMO                 ----- -----  ----- -----  ----- -----
  +--> _DEBUG_PRINTF/DEBUG

MPU_LEAVE_POWERSAVE/MPU                       ----- -----  ----- -----  ----- -----
  +--> _DEBUG_PRINTF/DEBUG

HG_LEAVE_POWERSAVE/HG                         ----- -----  ----- -----  ----- -----
  +--> _DEBUG_PRINTF/DEBUG

FUSE_LEAVE_POWERSAVE/FUSE                     ----- -----  ----- -----  ----- -----
  +--> _DEBUG_PRINTF/DEBUG

BEEPER_LEAVE_POWERSAVE/BEEPER                 ----- -----  ----- -----  ----- -----
  +--> _DEBUG_PRINTF/DEBUG

ALARM_LEAVE_POWERSAVE/ALARM                   ----- -----  ----- -----  ----- -----
  +--> _DEBUG_PRINTF/DEBUG

KEY_LEAVE_POWERSAVE/KEY                       ----- -----  ----- -----  ----- -----
  +--> _DEBUG_PRINTF/DEBUG

RTC_LEAVE_POWERSAVE/RTC                       ----- -----  ----- -----  ----- -----
LX51 LINKER/LOCATER V4.66.87.0                                                        05/30/2018  17:25:18  PAGE 29


  +--> _DEBUG_PRINTF/DEBUG
  +--> _RTC_READ_DATA/RTC
  +--> RTC_SET_EN32KHZ/RTC
  +--> _RTC_WRITE_DATA/RTC

CLOCK_LEAVE_POWERSAVE/CLOCK                   ----- -----  ----- -----  ----- -----
  +--> _DEBUG_PRINTF/DEBUG
  +--> _CLOCK_SYNC_FROM_RTC/CLOCK
  +--> CLOCK_ENABLE_INTERRUPT/CLOCK

LT_TIMER_LEAVE_POWERSAVE/LT_TIMER             ----- -----  ----- -----  ----- -----
  +--> _DEBUG_PRINTF/DEBUG
  +--> RTC_IS_LT_TIMER/RTC
  +--> LT_TIMER_STOP_RTC/LT_TIMER
  +--> LT_TIMER_LOAD_FROM_ROM/LT_TIMER
  +--> LT_TIMER_GET_RELATIVE/LT_TIMER
  +--> LT_TIMER
  +--> LT_TIMER_START_RAM/LT_TIMER

LT_TIMER_STOP_RTC/LT_TIMER                    ----- -----  ----- -----  ----- -----
  +--> _DEBUG_PRINTF/DEBUG
  +--> _RTC_READ_DATA/RTC
  +--> _RTC_ENABLE_ALARM_INT/RTC
  +--> _RTC_CLR_ALARM_INT_FLAG/RTC
  +--> _RTC_WRITE_DATA/RTC

LT_TIMER_LOAD_FROM_ROM/LT_TIMER               ----- -----  ----- -----  ----- -----
  +--> _ROM_READ/ROM

LT_TIMER_GET_RELATIVE/LT_TIMER                20H.0 20H.1  ----- -----  ----- -----
  +--> CLOCK_ENABLE_INTERRUPT/CLOCK
  +--> LT_TIMER_SUB_SEC_MIN/LT_TIMER
  +--> LT_TIMER_SUB_MIN_HOUR/LT_TIMER
  +--> LT_TIMER_SUB_HOUR_DATE/LT_TIMER
  +--> LT_TIMER_SUB_DATE/LT_TIMER
  +--> LT_TIMER
  +--> _DEBUG_PRINTF/DEBUG

LT_TIMER_SUB_SEC_MIN/LT_TIMER                 20H.2 20H.2  ----- -----  ----- -----
  +--> CLOCK_GET_SEC/CLOCK

CLOCK_GET_SEC/CLOCK                           ----- -----  ----- -----  ----- -----

LT_TIMER_SUB_MIN_HOUR/LT_TIMER                20H.2 20H.3  ----- -----  ----- -----
  +--> CLOCK_GET_MIN/CLOCK
  +--> LT_TIMER

LT_TIMER_SUB_HOUR_DATE/LT_TIMER               20H.2 20H.3  ----- -----  ----- -----
  +--> CLOCK_GET_HOUR/CLOCK
  +--> LT_TIMER

LT_TIMER_SUB_DATE/LT_TIMER                    20H.2 20H.2  ----- -----  0015H 001AH
  +--> CLOCK_GET_YEAR/CLOCK
  +--> LT_TIMER
  +--> _CLOCK_IS_LEAP_YEAR/CLOCK
  +--> CLOCK_GET_MONTH/CLOCK
  +--> CLOCK_GET_DATE/CLOCK

CLOCK_GET_YEAR/CLOCK                          ----- -----  ----- -----  ----- -----

CLOCK_GET_MONTH/CLOCK                         ----- -----  ----- -----  ----- -----

CLOCK_GET_DATE/CLOCK                          ----- -----  ----- -----  ----- -----

LT_TIMER_START_RAM/LT_TIMER                   ----- -----  ----- -----  ----- -----
LX51 LINKER/LOCATER V4.66.87.0                                                        05/30/2018  17:25:18  PAGE 30


  +--> _DEBUG_PRINTF/DEBUG

TIMER_LEAVE_POWERSAVE/TIMER                   ----- -----  ----- -----  ----- -----
  +--> _DEBUG_PRINTF/DEBUG

LED_LEAVE_POWERSAVE/LED                       ----- -----  ----- -----  ----- -----
  +--> _DEBUG_PRINTF/DEBUG
  +--> LED_CLEAR/LED

_SM_CLOCK_TIMER_INIT/SM_CLOCK_TIMER           ----- -----  ----- -----  ----- -----
  +--> SM_CLOCK_TIMER
  +--> _DEBUG_PRINTF/DEBUG
  +--> CLOCK_DISPLAY/CLOCK
  +--> _DISPLAY_LOGO/MOD_COMMON

SM_CLOCK_TIMER                                ----- -----  ----- -----  ----- -----

_SM_POWER_PACK_DISPLAY_INIT/SM_POWER_PAC+     ----- -----  ----- -----  ----- -----
... K_DISPLAY
  +--> SM_POWER_PACK_DISPLAY
  +--> _DEBUG_PRINTF/DEBUG
  +--> CLOCK_DISPLAY/CLOCK
  +--> ALARM_SWITCH_OFF/ALARM
  +--> _DISPLAY_LOGO/MOD_COMMON

SM_POWER_PACK_DISPLAY                         ----- -----  ----- -----  ----- -----

ALARM_SWITCH_OFF/ALARM                        ----- -----  ----- -----  ----- -----
  +--> _DEBUG_PRINTF/DEBUG
  +--> _RTC_READ_DATA/RTC
  +--> _RTC_ENABLE_ALARM_INT/RTC
  +--> _RTC_WRITE_DATA/RTC
  +--> RTC_DUMP/RTC

_SM_CLOCK_DISPLAY_SUBMOD2/SM_CLOCK_DISPL+     ----- -----  ----- -----  0011H 0011H
... AY
  +--> SM_CLOCK_DISPLAY
  +--> _DEBUG_PRINTF/DEBUG
  +--> _CLOCK_SWITCH_DISPLAY_MODE/CLOCK
  +--> RESET_AUTO_SWITCH/SM_CLOCK_DISPLAY
  +--> POWER_RESET_POWERSAVE_TO/POWER
  +--> TEST_AUTOSWITCH/SM_CLOCK_DISPLAY

_SM_CLOCK_DISPLAY_SUBMOD3/SM_CLOCK_DISPL+     ----- -----  ----- -----  0011H 0011H
... AY
  +--> SM_CLOCK_DISPLAY
  +--> _DEBUG_PRINTF/DEBUG
  +--> CLOCK_DISPLAY/CLOCK
  +--> DISPLAY_TEMP/SM_CLOCK_DISPLAY
  +--> RESET_AUTO_SWITCH/SM_CLOCK_DISPLAY
  +--> POWER_RESET_POWERSAVE_TO/POWER
  +--> TEST_AUTOSWITCH/SM_CLOCK_DISPLAY

DISPLAY_TEMP/SM_CLOCK_DISPLAY                 20H.0 20H.0  ----- -----  0012H 0013H
  +--> _RTC_READ_DATA/RTC
  +--> _RTC_GET_TEMPERATURE/RTC
  +--> _DEBUG_PRINTF/DEBUG
  +--> LED_CLEAR/LED
  +--> _LED_SET_DP/LED
  +--> _LED_SET_CODE/LED
  +--> SM_CLOCK_DISPLAY

_RTC_GET_TEMPERATURE/RTC                      20H.1 20H.1  ----- -----  0014H 001DH
  +--> RTC

LX51 LINKER/LOCATER V4.66.87.0                                                        05/30/2018  17:25:18  PAGE 31


_SM_CLOCK_MOD_TIME_SUBMOD0/SM_CLOCK_MOD_+     ----- -----  ----- -----  0011H 0012H
... TIME
  +--> SM_CLOCK_MOD_TIME
  +--> _DEBUG_PRINTF/DEBUG
  +--> _SM_CLOCK_MOD_TIME/SM_CLOCK_MOD_TIME

_SM_CLOCK_MOD_TIME/SM_CLOCK_MOD_TIME          ----- -----  ----- -----  0013H 0014H
  +--> _ENTER_HHMMSS/SM_CLOCK_MOD_TIME
  +--> _ENTER_YYMMDD/SM_CLOCK_MOD_TIME
  +--> _INC_AND_WRITE/SM_CLOCK_MOD_TIME
  +--> _INC_ONLY/SM_CLOCK_MOD_TIME
  +--> _WRITE_ONLY/SM_CLOCK_MOD_TIME
  +--> UPDATE_HHMMSS/SM_CLOCK_MOD_TIME
  +--> UPDATE_YYMMDD/SM_CLOCK_MOD_TIME

_ENTER_HHMMSS/SM_CLOCK_MOD_TIME               ----- -----  ----- -----  0015H 0015H
  +--> LED_CLEAR/LED
  +--> _LED_SET_BLINK/LED
  +--> UPDATE_HHMMSS/SM_CLOCK_MOD_TIME

_LED_SET_BLINK/LED                            ----- -----  ----- -----  ----- -----

UPDATE_HHMMSS/SM_CLOCK_MOD_TIME               ----- -----  ----- -----  0017H 0019H
  +--> CLOCK_GET_HOUR/CLOCK
  +--> CLOCK_GET_MIN/CLOCK
  +--> CLOCK_GET_SEC/CLOCK
  +--> _LED_SET_DP/LED
  +--> CLOCK_GET_HOUR_12/CLOCK
  +--> _LED_CLR_DP/LED
  +--> _DEBUG_PRINTF/DEBUG
  +--> _LED_SET_CODE/LED
  +--> SM_CLOCK_MOD_TIME

_ENTER_YYMMDD/SM_CLOCK_MOD_TIME               ----- -----  ----- -----  0015H 0015H
  +--> LED_CLEAR/LED
  +--> _LED_SET_BLINK/LED
  +--> UPDATE_YYMMDD/SM_CLOCK_MOD_TIME

UPDATE_YYMMDD/SM_CLOCK_MOD_TIME               ----- -----  ----- -----  0017H 0019H
  +--> CLOCK_GET_YEAR/CLOCK
  +--> CLOCK_GET_MONTH/CLOCK
  +--> CLOCK_GET_DATE/CLOCK
  +--> _LED_SET_DP/LED
  +--> _DEBUG_PRINTF/DEBUG
  +--> _LED_SET_CODE/LED
  +--> SM_CLOCK_MOD_TIME

_INC_AND_WRITE/SM_CLOCK_MOD_TIME              ----- -----  ----- -----  0015H 0015H
  +--> _INC_ONLY/SM_CLOCK_MOD_TIME
  +--> _WRITE_ONLY/SM_CLOCK_MOD_TIME

_INC_ONLY/SM_CLOCK_MOD_TIME                   ----- -----  ----- -----  0016H 0016H
  +--> CLOCK_INC_HOUR/CLOCK
  +--> CLOCK_INC_YEAR/CLOCK
  +--> CLOCK_INC_MIN/CLOCK
  +--> CLOCK_INC_MONTH/CLOCK
  +--> _LED_CLR_BLINK/LED
  +--> CLOCK_CLR_SEC/CLOCK
  +--> CLOCK_INC_DATE/CLOCK
  +--> UPDATE_HHMMSS/SM_CLOCK_MOD_TIME
  +--> UPDATE_YYMMDD/SM_CLOCK_MOD_TIME

CLOCK_INC_HOUR/CLOCK                          ----- -----  ----- -----  ----- -----

CLOCK_INC_YEAR/CLOCK                          ----- -----  ----- -----  ----- -----
LX51 LINKER/LOCATER V4.66.87.0                                                        05/30/2018  17:25:18  PAGE 32


  +--> CLOCK
  +--> _CLOCK_YYMMDD_TO_DAY/CLOCK

CLOCK_INC_MIN/CLOCK                           ----- -----  ----- -----  ----- -----

CLOCK_INC_MONTH/CLOCK                         ----- -----  ----- -----  ----- -----
  +--> CLOCK
  +--> _CLOCK_YYMMDD_TO_DAY/CLOCK

_LED_CLR_BLINK/LED                            ----- -----  ----- -----  ----- -----

CLOCK_CLR_SEC/CLOCK                           ----- -----  ----- -----  ----- -----

CLOCK_INC_DATE/CLOCK                          ----- -----  ----- -----  ----- -----
  +--> _CLOCK_GET_MON_DATE/CLOCK
  +--> CLOCK
  +--> _CLOCK_YYMMDD_TO_DAY/CLOCK

_CLOCK_GET_MON_DATE/CLOCK                     ----- -----  ----- -----  ----- -----
  +--> CLOCK

_WRITE_ONLY/SM_CLOCK_MOD_TIME                 ----- -----  ----- -----  ----- -----
  +--> _CLOCK_SYNC_TO_RTC/CLOCK
  +--> _LED_SET_BLINK/LED

_CLOCK_SYNC_TO_RTC/CLOCK                      ----- -----  ----- -----  0016H 0016H
  +--> _DEBUG_PRINTF/DEBUG
  +--> CLOCK_ENABLE_INTERRUPT/CLOCK
  +--> _RTC_READ_DATA/RTC
  +--> RTC_TIME_SET_HOUR_12/RTC
  +--> _RTC_TIME_SET_HOUR/RTC
  +--> _RTC_TIME_SET_MIN/RTC
  +--> _RTC_TIME_SET_SEC/RTC
  +--> _RTC_DATE_SET_YEAR/RTC
  +--> _RTC_DATE_SET_MONTH/RTC
  +--> _RTC_DATE_SET_DATE/RTC
  +--> _RTC_WRITE_DATA/RTC

_SM_CLOCK_MOD_TIME_SUBMOD1/SM_CLOCK_MOD_+     ----- -----  ----- -----  0011H 0011H
... TIME
  +--> SM_CLOCK_MOD_TIME
  +--> _DEBUG_PRINTF/DEBUG
  +--> _SM_CLOCK_MOD_TIME/SM_CLOCK_MOD_TIME

_SM_CLOCK_MOD_ALARM_INIT/SM_CLOCK_MOD_AL+     ----- -----  ----- -----  ----- -----
... ARM
  +--> SM_CLOCK_MOD_ALARM
  +--> _DEBUG_PRINTF/DEBUG
  +--> _DISPLAY_LOGO/MOD_COMMON

SM_CLOCK_MOD_ALARM                            ----- -----  ----- -----  ----- -----

_SM_CLOCK_MOD_TIME_SUBMOD2/SM_CLOCK_MOD_+     ----- -----  ----- -----  0011H 0011H
... TIME
  +--> SM_CLOCK_MOD_TIME
  +--> _DEBUG_PRINTF/DEBUG
  +--> _SM_CLOCK_MOD_TIME/SM_CLOCK_MOD_TIME

_SM_CLOCK_MOD_TIME_SUBMOD3/SM_CLOCK_MOD_+     ----- -----  ----- -----  0011H 0011H
... TIME
  +--> SM_CLOCK_MOD_TIME
  +--> _DEBUG_PRINTF/DEBUG
  +--> _SM_CLOCK_MOD_TIME/SM_CLOCK_MOD_TIME

_SM_CLOCK_MOD_TIME_SUBMOD4/SM_CLOCK_MOD_+     ----- -----  ----- -----  0011H 0011H
LX51 LINKER/LOCATER V4.66.87.0                                                        05/30/2018  17:25:18  PAGE 33


... TIME
  +--> SM_CLOCK_MOD_TIME
  +--> _DEBUG_PRINTF/DEBUG
  +--> _SM_CLOCK_MOD_TIME/SM_CLOCK_MOD_TIME

_SM_CLOCK_MOD_TIME_SUBMOD5/SM_CLOCK_MOD_+     ----- -----  ----- -----  0011H 0011H
... TIME
  +--> SM_CLOCK_MOD_TIME
  +--> _DEBUG_PRINTF/DEBUG
  +--> _SM_CLOCK_MOD_TIME/SM_CLOCK_MOD_TIME

_SM_CLOCK_MOD_ALARM_SUBMOD0/SM_CLOCK_MOD+     ----- -----  ----- -----  0011H 0012H
... _ALARM
  +--> SM_CLOCK_MOD_ALARM
  +--> _DEBUG_PRINTF/DEBUG
  +--> _ENTER_ALARM/SM_CLOCK_MOD_ALARM
  +--> _INC_WRITE/SM_CLOCK_MOD_ALARM
  +--> _INC_ONLY/SM_CLOCK_MOD_ALARM
  +--> _WRITE_ONLY/SM_CLOCK_MOD_ALARM

_ENTER_ALARM/SM_CLOCK_MOD_ALARM               ----- -----  ----- -----  0013H 0014H
  +--> LED_CLEAR/LED
  +--> _LED_SET_BLINK/LED
  +--> _UPDATE_ALARM/SM_CLOCK_MOD_ALARM

_UPDATE_ALARM/SM_CLOCK_MOD_ALARM              ----- -----  ----- -----  0015H 0018H
  +--> ALARM0_GET_HOUR/ALARM
  +--> ALARM0_GET_MIN/ALARM
  +--> _LED_SET_DP/LED
  +--> ALARM0_GET_HOUR_12/ALARM
  +--> _LED_CLR_DP/LED
  +--> _DEBUG_PRINTF/DEBUG
  +--> _LED_SET_CODE/LED
  +--> _ALARM0_TEST_ENABLE/ALARM
  +--> ALARM1_TEST_ENABLE/ALARM
  +--> BEEPER_GET_MUSIC_INDEX/BEEPER

_ALARM0_TEST_ENABLE/ALARM                     ----- -----  ----- -----  0019H 0019H
  +--> ALARM
  +--> _DEBUG_PRINTF/DEBUG

ALARM1_TEST_ENABLE/ALARM                      ----- -----  ----- -----  ----- -----

BEEPER_GET_MUSIC_INDEX/BEEPER                 ----- -----  ----- -----  ----- -----

_INC_WRITE/SM_CLOCK_MOD_ALARM                 ----- -----  ----- -----  0013H 0013H
  +--> _INC_ONLY/SM_CLOCK_MOD_ALARM
  +--> _WRITE_ONLY/SM_CLOCK_MOD_ALARM

_INC_ONLY/SM_CLOCK_MOD_ALARM                  ----- -----  ----- -----  ----- -----
  +--> _LED_CLR_BLINK/LED
  +--> ALARM0_INC_HOUR/ALARM
  +--> ALARM0_INC_MIN/ALARM
  +--> _UPDATE_ALARM/SM_CLOCK_MOD_ALARM

ALARM0_INC_HOUR/ALARM                         ----- -----  ----- -----  ----- -----

ALARM0_INC_MIN/ALARM                          ----- -----  ----- -----  ----- -----

_WRITE_ONLY/SM_CLOCK_MOD_ALARM                ----- -----  ----- -----  0014H 0014H
  +--> ALARM0_SYNC_TO_RTC/ALARM
  +--> _LED_SET_BLINK/LED
  +--> ALARM0_GET_HOUR/ALARM
  +--> ALARM0_GET_MIN/ALARM
  +--> ALARM0_GET_DAY_MASK/ALARM
LX51 LINKER/LOCATER V4.66.87.0                                                        05/30/2018  17:25:18  PAGE 34


  +--> _ROM_WRITE/ROM

ALARM0_SYNC_TO_RTC/ALARM                      ----- -----  ----- -----  ----- -----
  +--> _DEBUG_PRINTF/DEBUG
  +--> _RTC_READ_DATA/RTC
  +--> _RTC_ALARM_SET_MODE/RTC
  +--> RTC_ALARM_SET_HOUR_12/RTC
  +--> _RTC_ALARM_SET_HOUR/RTC
  +--> _RTC_ALARM_SET_MIN/RTC
  +--> _RTC_ALARM_SET_SEC/RTC
  +--> _RTC_WRITE_DATA/RTC
  +--> _RTC_ENABLE_ALARM_INT/RTC
  +--> _RTC_CLR_ALARM_INT_FLAG/RTC

_RTC_ALARM_SET_MODE/RTC                       ----- -----  ----- -----  ----- -----
  +--> RTC

RTC_ALARM_SET_HOUR_12/RTC                     20H.0 20H.0  ----- -----  ----- -----
  +--> RTC
  +--> _RTC_SET_HOUR_12/RTC

_RTC_ALARM_SET_HOUR/RTC                       ----- -----  ----- -----  ----- -----
  +--> RTC
  +--> __RTC_SET_HOUR/RTC

_RTC_ALARM_SET_MIN/RTC                        ----- -----  ----- -----  ----- -----
  +--> RTC
  +--> __RTC_SET_MIN_SEC/RTC

_RTC_ALARM_SET_SEC/RTC                        ----- -----  ----- -----  ----- -----
  +--> RTC

ALARM0_GET_DAY_MASK/ALARM                     ----- -----  ----- -----  ----- -----

_SM_CLOCK_MOD_ALARM_SUBMOD1/SM_CLOCK_MOD+     ----- -----  ----- -----  0011H 0011H
... _ALARM
  +--> SM_CLOCK_MOD_ALARM
  +--> _DEBUG_PRINTF/DEBUG
  +--> _ENTER_ALARM/SM_CLOCK_MOD_ALARM
  +--> _INC_WRITE/SM_CLOCK_MOD_ALARM
  +--> _INC_ONLY/SM_CLOCK_MOD_ALARM
  +--> _WRITE_ONLY/SM_CLOCK_MOD_ALARM

_SM_CLOCK_DISPLAY_INIT/SM_CLOCK_DISPLAY       ----- -----  ----- -----  ----- -----
  +--> SM_CLOCK_DISPLAY
  +--> _DEBUG_PRINTF/DEBUG
  +--> LT_TIMER_SWITCH_OFF/LT_TIMER
  +--> ALARM_SWITCH_ON/ALARM
  +--> RTC_SET_LT_TIMER/RTC
  +--> POWER_5V_ENABLE/POWER
  +--> _DISPLAY_LOGO/MOD_COMMON

LT_TIMER_SWITCH_OFF/LT_TIMER                  ----- -----  ----- -----  ----- -----
  +--> _DEBUG_PRINTF/DEBUG
  +--> _RTC_READ_DATA/RTC
  +--> _RTC_ENABLE_ALARM_INT/RTC
  +--> _RTC_WRITE_DATA/RTC
  +--> RTC_DUMP/RTC

ALARM_SWITCH_ON/ALARM                         ----- -----  ----- -----  ----- -----
  +--> _DEBUG_PRINTF/DEBUG
  +--> ALARM_LOAD_ROM/ALARM
  +--> ALARM_DUMP/ALARM
  +--> ALARM0_SYNC_TO_RTC/ALARM
  +--> ALARM1_SYNC_TO_RTC/ALARM
LX51 LINKER/LOCATER V4.66.87.0                                                        05/30/2018  17:25:18  PAGE 35


  +--> RTC_DUMP/RTC

ALARM_LOAD_ROM/ALARM                          ----- -----  ----- -----  ----- -----
  +--> _ROM_READ/ROM

ALARM_DUMP/ALARM                              ----- -----  ----- -----  ----- -----
  +--> ALARM
  +--> _DEBUG_PRINTF/DEBUG

ALARM1_SYNC_TO_RTC/ALARM                      ----- -----  ----- -----  ----- -----
  +--> _DEBUG_PRINTF/DEBUG
  +--> _RTC_READ_DATA/RTC
  +--> _RTC_ALARM_SET_MODE/RTC
  +--> RTC_ALARM_SET_HOUR_12/RTC
  +--> _RTC_ALARM_SET_HOUR/RTC
  +--> _RTC_ALARM_SET_MIN/RTC
  +--> _RTC_WRITE_DATA/RTC
  +--> _RTC_ENABLE_ALARM_INT/RTC
  +--> _RTC_CLR_ALARM_INT_FLAG/RTC

RTC_SET_LT_TIMER/RTC                          20H.0 20H.0  ----- -----  ----- -----

POWER_5V_ENABLE/POWER                         20H.1 20H.1  ----- -----  ----- -----
  +--> _DEBUG_PRINTF/DEBUG

_SM_CLOCK_MOD_ALARM_SUBMOD2/SM_CLOCK_MOD+     ----- -----  ----- -----  0011H 0012H
... _ALARM
  +--> SM_CLOCK_MOD_ALARM
  +--> _DEBUG_PRINTF/DEBUG
  +--> _TOGGLE_ALARM/SM_CLOCK_MOD_ALARM
  +--> _ENTER_ALARM/SM_CLOCK_MOD_ALARM

_TOGGLE_ALARM/SM_CLOCK_MOD_ALARM              ----- -----  ----- -----  0013H 0013H
  +--> _ALARM0_TEST_ENABLE/ALARM
  +--> _ALARM0_SET_ENABLE/ALARM
  +--> _UPDATE_ALARM/SM_CLOCK_MOD_ALARM
  +--> _WRITE_ONLY/SM_CLOCK_MOD_ALARM

_ALARM0_SET_ENABLE/ALARM                      20H.0 20H.0  ----- -----  0014H 0014H
  +--> _DEBUG_PRINTF/DEBUG
  +--> ALARM

_SM_CLOCK_MOD_ALARM_SUBMOD3/SM_CLOCK_MOD+     ----- -----  ----- -----  0011H 0011H
... _ALARM
  +--> SM_CLOCK_MOD_ALARM
  +--> _DEBUG_PRINTF/DEBUG
  +--> _ENTER_ALARM/SM_CLOCK_MOD_ALARM
  +--> TOGGLE_ALARM_BS/SM_CLOCK_MOD_ALARM

TOGGLE_ALARM_BS/SM_CLOCK_MOD_ALARM            ----- -----  ----- -----  ----- -----
  +--> ALARM1_TEST_ENABLE/ALARM
  +--> ALARM1_SET_ENABLE/ALARM
  +--> ALARM1_SYNC_TO_RTC/ALARM
  +--> _ROM_WRITE/ROM
  +--> _UPDATE_ALARM/SM_CLOCK_MOD_ALARM

ALARM1_SET_ENABLE/ALARM                       20H.0 20H.0  ----- -----  ----- -----

_SM_CLOCK_MOD_ALARM_SUBMOD4/SM_CLOCK_MOD+     ----- -----  ----- -----  0011H 0011H
... _ALARM
  +--> SM_CLOCK_MOD_ALARM
  +--> _DEBUG_PRINTF/DEBUG
  +--> _ENTER_ALARM/SM_CLOCK_MOD_ALARM
  +--> TOGGLE_ALARM_MUSIC/SM_CLOCK_MOD_ALARM

LX51 LINKER/LOCATER V4.66.87.0                                                        05/30/2018  17:25:18  PAGE 36


TOGGLE_ALARM_MUSIC/SM_CLOCK_MOD_ALARM         ----- -----  ----- -----  ----- -----
  +--> BEEPER_INC_MUSIC_INDEX/BEEPER
  +--> BEEPER_GET_MUSIC_INDEX/BEEPER
  +--> _ROM_WRITE/ROM
  +--> _UPDATE_ALARM/SM_CLOCK_MOD_ALARM

BEEPER_INC_MUSIC_INDEX/BEEPER                 ----- -----  ----- -----  ----- -----
  +--> _DEBUG_PRINTF/DEBUG

_SM_CLOCK_TIMER_SUBMOD0/SM_CLOCK_TIMER        ----- -----  ----- -----  0011H 0013H
  +--> SM_CLOCK_TIMER
  +--> _DEBUG_PRINTF/DEBUG
  +--> _DISPLAY_SLOT/SM_CLOCK_TIMER
  +--> _TIMER_SET_MODE/TIMER
  +--> TIMER_CLR/TIMER

_DISPLAY_SLOT/SM_CLOCK_TIMER                  ----- -----  ----- -----  0014H 0014H
  +--> LED_CLEAR/LED
  +--> _LED_SET_DP/LED
  +--> _TIMER_GET_MIN/TIMER
  +--> _TIMER_GET_SEC/TIMER
  +--> SM_CLOCK_TIMER
  +--> _LED_SET_CODE/LED
  +--> _TIMER_GET_MS10/TIMER

_TIMER_GET_MIN/TIMER                          ----- -----  ----- -----  ----- -----
  +--> TIMER

TIMER                                         ----- -----  ----- -----  ----- -----

_TIMER_GET_SEC/TIMER                          ----- -----  ----- -----  ----- -----
  +--> TIMER

_TIMER_GET_MS10/TIMER                         ----- -----  ----- -----  ----- -----
  +--> TIMER

_TIMER_SET_MODE/TIMER                         ----- -----  ----- -----  ----- -----

_SM_CLOCK_COUNTER_INIT/SM_CLOCK_COUNTER       ----- -----  ----- -----  ----- -----
  +--> SM_CLOCK_COUNTER
  +--> _DEBUG_PRINTF/DEBUG
  +--> _DISPLAY_LOGO/MOD_COMMON

SM_CLOCK_COUNTER                              ----- -----  ----- -----  ----- -----

_SM_CLOCK_TIMER_SUBMOD1/SM_CLOCK_TIMER        ----- -----  ----- -----  0011H 0011H
  +--> SM_CLOCK_TIMER
  +--> _DEBUG_PRINTF/DEBUG
  +--> TIMER_START/TIMER
  +--> TIMER_SET_LED_AUTOREFRESH/TIMER
  +--> _SHOW_SLOT_TITLE/SM_CLOCK_TIMER
  +--> _TIMER_SAVE/TIMER

TIMER_START/TIMER                             ----- -----  ----- -----  ----- -----
  +--> _DEBUG_PRINTF/DEBUG

TIMER_SET_LED_AUTOREFRESH/TIMER               20H.0 20H.0  ----- -----  0014H 0014H

_SHOW_SLOT_TITLE/SM_CLOCK_TIMER               ----- -----  ----- -----  0012H 0012H
  +--> LED_CLEAR/LED
  +--> _LED_SET_CODE/LED
  +--> SM_CLOCK_TIMER

_TIMER_SAVE/TIMER                             ----- -----  ----- -----  ----- -----

LX51 LINKER/LOCATER V4.66.87.0                                                        05/30/2018  17:25:18  PAGE 37


_SM_CLOCK_TIMER_SUBMOD2/SM_CLOCK_TIMER        ----- -----  ----- -----  0011H 0011H
  +--> SM_CLOCK_TIMER
  +--> _DEBUG_PRINTF/DEBUG
  +--> TIMER_STOP/TIMER
  +--> TIMER_SET_LED_AUTOREFRESH/TIMER
  +--> _DISPLAY_SLOT/SM_CLOCK_TIMER
  +--> _SHOW_SLOT_TITLE/SM_CLOCK_TIMER

TIMER_STOP/TIMER                              ----- -----  ----- -----  ----- -----

_SM_CLOCK_COUNTER_SUBMOD0/SM_CLOCK_COUNT+     ----- -----  ----- -----  0011H 0013H
... ER
  +--> SM_CLOCK_COUNTER
  +--> _DEBUG_PRINTF/DEBUG
  +--> _ENTER_HHMMSS/SM_CLOCK_COUNTER
  +--> TIMER_CLR/TIMER
  +--> _TIMER_SET_MODE/TIMER
  +--> TIMER_SET_LED_AUTOREFRESH/TIMER
  +--> UPDATE_HHMMSS/SM_CLOCK_COUNTER
  +--> _INC_AND_WRITE/SM_CLOCK_COUNTER
  +--> _INC_ONLY/SM_CLOCK_COUNTER
  +--> _WRITE_ONLY/SM_CLOCK_COUNTER

_ENTER_HHMMSS/SM_CLOCK_COUNTER                ----- -----  ----- -----  0014H 0014H
  +--> LED_CLEAR/LED
  +--> _LED_SET_BLINK/LED
  +--> UPDATE_HHMMSS/SM_CLOCK_COUNTER

UPDATE_HHMMSS/SM_CLOCK_COUNTER                ----- -----  ----- -----  0015H 0017H
  +--> _TIMER_GET_HOUR/TIMER
  +--> _TIMER_GET_MIN/TIMER
  +--> _TIMER_GET_SEC/TIMER
  +--> _LED_SET_DP/LED
  +--> _DEBUG_PRINTF/DEBUG
  +--> SM_CLOCK_COUNTER
  +--> _LED_SET_CODE/LED

_TIMER_GET_HOUR/TIMER                         ----- -----  ----- -----  ----- -----
  +--> TIMER

_INC_AND_WRITE/SM_CLOCK_COUNTER               ----- -----  ----- -----  ----- -----
  +--> _INC_ONLY/SM_CLOCK_COUNTER
  +--> _WRITE_ONLY/SM_CLOCK_COUNTER

_INC_ONLY/SM_CLOCK_COUNTER                    ----- -----  ----- -----  ----- -----
  +--> _TIMER_INC_HOUR/TIMER
  +--> _TIMER_INC_MIN/TIMER
  +--> _LED_CLR_BLINK/LED
  +--> _TIMER_INC_SEC/TIMER

_TIMER_INC_HOUR/TIMER                         ----- -----  ----- -----  ----- -----
  +--> TIMER

_TIMER_INC_MIN/TIMER                          ----- -----  ----- -----  ----- -----
  +--> TIMER

_TIMER_INC_SEC/TIMER                          ----- -----  ----- -----  ----- -----
  +--> TIMER

_WRITE_ONLY/SM_CLOCK_COUNTER                  ----- -----  ----- -----  ----- -----
  +--> _LED_SET_BLINK/LED

_SM_CLOCK_COUNTER_SUBMOD1/SM_CLOCK_COUNT+     ----- -----  ----- -----  0011H 0011H
... ER
  +--> SM_CLOCK_COUNTER
LX51 LINKER/LOCATER V4.66.87.0                                                        05/30/2018  17:25:18  PAGE 38


  +--> _DEBUG_PRINTF/DEBUG
  +--> UPDATE_HHMMSS/SM_CLOCK_COUNTER
  +--> _ENTER_HHMMSS/SM_CLOCK_COUNTER
  +--> _INC_AND_WRITE/SM_CLOCK_COUNTER
  +--> _INC_ONLY/SM_CLOCK_COUNTER
  +--> _WRITE_ONLY/SM_CLOCK_COUNTER

_SM_CLOCK_COUNTER_SUBMOD2/SM_CLOCK_COUNT+     ----- -----  ----- -----  0011H 0011H
... ER
  +--> SM_CLOCK_COUNTER
  +--> _DEBUG_PRINTF/DEBUG
  +--> UPDATE_HHMMSS/SM_CLOCK_COUNTER
  +--> _ENTER_HHMMSS/SM_CLOCK_COUNTER
  +--> _INC_AND_WRITE/SM_CLOCK_COUNTER
  +--> _INC_ONLY/SM_CLOCK_COUNTER
  +--> _WRITE_ONLY/SM_CLOCK_COUNTER

_SM_CLOCK_COUNTER_SUBMOD3/SM_CLOCK_COUNT+     ----- -----  ----- -----  0011H 0011H
... ER
  +--> SM_CLOCK_COUNTER
  +--> _DEBUG_PRINTF/DEBUG
  +--> _LED_CLR_BLINK/LED
  +--> TIMER_START/TIMER
  +--> TIMER_SET_LED_AUTOREFRESH/TIMER

_SM_CLOCK_COUNTER_SUBMOD4/SM_CLOCK_COUNT+     ----- -----  ----- -----  0011H 0011H
... ER
  +--> SM_CLOCK_COUNTER
  +--> _DEBUG_PRINTF/DEBUG
  +--> TIMER_STOP/TIMER
  +--> TIMER_SET_LED_AUTOREFRESH/TIMER

_SM_CLOCK_COUNTER_SUBMOD5/SM_CLOCK_COUNT+     ----- -----  ----- -----  0011H 0011H
... ER
  +--> SM_CLOCK_COUNTER
  +--> _DEBUG_PRINTF/DEBUG
  +--> TIMER_SET_LED_AUTOREFRESH/TIMER
  +--> TIMER_CLR/TIMER
  +--> BEEPER_BEEP_BEEP_ALWAYS/BEEPER

_SM_POWER_PACK_DISPLAY_SUBMOD0/SM_POWER_+     ----- -----  ----- -----  0011H 0011H
... PACK_DISPLAY
  +--> SM_POWER_PACK_DISPLAY
  +--> _DEBUG_PRINTF/DEBUG
  +--> POWER_5V_ENABLE/POWER
  +--> POWER_RESET_POWERSAVE_TO/POWER
  +--> POWER_5V_GET_ENABLE/POWER
  +--> DISPLAY_POWER_VOLUME/SM_POWER_PACK_DISPLAY
  +--> POWER_TEST_POWERSAVE_TO/POWER

POWER_5V_GET_ENABLE/POWER                     ----- -----  ----- -----  ----- -----

DISPLAY_POWER_VOLUME/SM_POWER_PACK_DISPL+     ----- -----  ----- -----  0012H 0012H
... AY
  +--> POWER_GET_VOLUME/POWER
  +--> LED_CLEAR/LED
  +--> _LED_SET_CODE/LED

POWER_GET_VOLUME/POWER                        ----- -----  ----- -----  ----- -----

_SM_FUSE_TEST_INIT/SM_FUSE_TEST               ----- -----  ----- -----  0011H 0011H
  +--> SM_FUSE_TEST
  +--> _DEBUG_PRINTF/DEBUG
  +--> CLOCK_DISPLAY/CLOCK
  +--> _DISPLAY_LOGO/MOD_COMMON
LX51 LINKER/LOCATER V4.66.87.0                                                        05/30/2018  17:25:18  PAGE 39


  +--> LT_TIMER_SWITCH_ON/LT_TIMER
  +--> RTC_SET_LT_TIMER/RTC
  +--> POWER_5V_ENABLE/POWER

SM_FUSE_TEST                                  ----- -----  ----- -----  ----- -----

LT_TIMER_SWITCH_ON/LT_TIMER                   ----- -----  ----- -----  ----- -----
  +--> _DEBUG_PRINTF/DEBUG
  +--> LT_TIMER_LOAD_FROM_ROM/LT_TIMER
  +--> LT_TIMER_SYNC_TO_RTC/LT_TIMER
  +--> LT_TIMER_STOP_RTC/LT_TIMER
  +--> RTC_DUMP/RTC

LT_TIMER_SYNC_TO_RTC/LT_TIMER                 ----- -----  ----- -----  ----- -----
  +--> LT_TIMER
  +--> _DEBUG_PRINTF/DEBUG
  +--> _RTC_READ_DATA/RTC
  +--> _RTC_ALARM_SET_MODE/RTC
  +--> RTC_ALARM_SET_HOUR_12/RTC
  +--> _RTC_ALARM_SET_DATE/RTC
  +--> _RTC_ALARM_SET_HOUR/RTC
  +--> _RTC_ALARM_SET_MIN/RTC
  +--> _RTC_ALARM_SET_SEC/RTC
  +--> _RTC_WRITE_DATA/RTC

_RTC_ALARM_SET_DATE/RTC                       ----- -----  ----- -----  ----- -----
  +--> RTC
  +--> __RTC_SET_DATE/RTC

_SM_POWER_PACK_POWERSAVE_INIT/SM_POWER_P+     ----- -----  ----- -----  ----- -----
... ACK_POWERSAVE
  +--> SM_POWER_PACK_POWERSAVE
  +--> _DEBUG_PRINTF/DEBUG

SM_POWER_PACK_POWERSAVE                       ----- -----  ----- -----  ----- -----

_SM_POWER_PACK_POWERSAVE_SUBMOD0/SM_POWE+     ----- -----  ----- -----  0011H 0011H
... R_PACK_POWERSAVE
  +--> SM_POWER_PACK_POWERSAVE
  +--> _DEBUG_PRINTF/DEBUG
  +--> POWER_ENTER_POWERSAVE/POWER
  +--> POWER_LEAVE_POWERSAVE/POWER

_SM_FUSE_TEST_SUBMOD0/SM_FUSE_TEST            ----- -----  ----- -----  0011H 0011H
  +--> SM_FUSE_TEST
  +--> _DEBUG_PRINTF/DEBUG
  +--> CLOCK_GET_SEC_256/CLOCK
  +--> FUSE_ENABLE/FUSE
  +--> _FUSE_SET_FUSE_BROKE/FUSE
  +--> FUSE_SET_TRIPWIRE_BROKE/FUSE
  +--> _DISPLAY_TEST/SM_FUSE_TEST

FUSE_ENABLE/FUSE                              20H.1 20H.1  ----- -----  ----- -----
  +--> _DEBUG_PRINTF/DEBUG
  +--> FUSE_POWER_ON/FUSE
  +--> FUSE_POWER_OFF/FUSE

FUSE_POWER_ON/FUSE                            ----- -----  ----- -----  ----- -----
  +--> _SERIAL_SET_CTL_BIT/SERIAL_HUB
  +--> SERIAL_CTL_OUT/SERIAL_HUB

_FUSE_SET_FUSE_BROKE/FUSE                     20H.0 20H.0  ----- -----  0012H 0012H
  +--> _DEBUG_PRINTF/DEBUG
  +--> _SERIAL_SET_CTL_BIT/SERIAL_HUB
  +--> SERIAL_CTL_OUT/SERIAL_HUB
LX51 LINKER/LOCATER V4.66.87.0                                                        05/30/2018  17:25:18  PAGE 40



FUSE_SET_TRIPWIRE_BROKE/FUSE                  20H.0 20H.0  ----- -----  ----- -----
  +--> _DEBUG_PRINTF/DEBUG
  +--> _SERIAL_SET_CTL_BIT/SERIAL_HUB
  +--> SERIAL_CTL_OUT/SERIAL_HUB

_DISPLAY_TEST/SM_FUSE_TEST                    ----- -----  ----- -----  0015H 0018H
  +--> SM_FUSE_TEST
  +--> _DEBUG_PRINTF/DEBUG
  +--> LED_CLEAR/LED
  +--> _LED_SET_DP/LED
  +--> _LED_SET_CODE/LED
  +--> _LED_SET_BLINK/LED

_SM_FUSE_TEST_SUBMOD1/SM_FUSE_TEST            ----- -----  ----- -----  0011H 0011H
  +--> SM_FUSE_TEST
  +--> _DEBUG_PRINTF/DEBUG
  +--> _SM_FUSE_SET/SM_FUSE_TEST

_SM_FUSE_SET/SM_FUSE_TEST                     ----- -----  ----- -----  0012H 0013H
  +--> _ENTER_SET/SM_FUSE_TEST
  +--> _INC_WRITE/SM_FUSE_TEST
  +--> _INC_ONLY/SM_FUSE_TEST
  +--> _WRITE_ONLY/SM_FUSE_TEST

_ENTER_SET/SM_FUSE_TEST                       ----- -----  ----- -----  0014H 0014H
  +--> SM_FUSE_TEST
  +--> _DEBUG_PRINTF/DEBUG
  +--> LED_CLEAR/LED
  +--> _LED_SET_DP/LED
  +--> _LED_SET_BLINK/LED
  +--> _LED_SET_CODE/LED
  +--> _ROM_READ/ROM
  +--> _UPDATE_SET/SM_FUSE_TEST

_UPDATE_SET/SM_FUSE_TEST                      ----- -----  ----- -----  ----- -----
  +--> _LED_SET_CODE/LED
  +--> SM_FUSE_TEST

_INC_WRITE/SM_FUSE_TEST                       ----- -----  ----- -----  0014H 0014H
  +--> _DEBUG_PRINTF/DEBUG
  +--> _INC_ONLY/SM_FUSE_TEST
  +--> _WRITE_ONLY/SM_FUSE_TEST

_INC_ONLY/SM_FUSE_TEST                        ----- -----  ----- -----  0015H 0015H
  +--> SM_FUSE_TEST
  +--> _DEBUG_PRINTF/DEBUG
  +--> _LED_CLR_BLINK/LED
  +--> _THERMO_THRESHOLD_INC/THERMO
  +--> _MPU_THRESHOLD_INC/MPU
  +--> _UPDATE_SET/SM_FUSE_TEST

_THERMO_THRESHOLD_INC/THERMO                  ----- -----  ----- -----  0016H 0016H
  +--> _DEBUG_PRINTF/DEBUG

_MPU_THRESHOLD_INC/MPU                        ----- -----  ----- -----  ----- -----

_WRITE_ONLY/SM_FUSE_TEST                      ----- -----  ----- -----  0015H 0015H
  +--> SM_FUSE_TEST
  +--> _DEBUG_PRINTF/DEBUG
  +--> _LED_SET_BLINK/LED
  +--> _ROM_WRITE/ROM

_SM_FUSE_PARAM_INIT/SM_FUSE_PARAM             ----- -----  ----- -----  0011H 0011H
  +--> SM_FUSE_PARAM
LX51 LINKER/LOCATER V4.66.87.0                                                        05/30/2018  17:25:18  PAGE 41


  +--> _DEBUG_PRINTF/DEBUG
  +--> _DISPLAY_LOGO/MOD_COMMON

SM_FUSE_PARAM                                 ----- -----  ----- -----  ----- -----

_SM_GLOBAL_FLAG_MOD_INIT/SM_GLOBAL_FLAG_+     ----- -----  ----- -----  ----- -----
... MOD
  +--> SM_GLOBAL_FLAG_MOD
  +--> _DEBUG_PRINTF/DEBUG
  +--> LT_TIMER_SWITCH_OFF/LT_TIMER
  +--> _DISPLAY_LOGO/MOD_COMMON

SM_GLOBAL_FLAG_MOD                            ----- -----  ----- -----  ----- -----

_SM_FUSE_TEST_SUBMOD2/SM_FUSE_TEST            ----- -----  ----- -----  0011H 0011H
  +--> SM_FUSE_TEST
  +--> _DEBUG_PRINTF/DEBUG
  +--> _SM_FUSE_TEST_THERMO/SM_FUSE_TEST

_SM_FUSE_TEST_THERMO/SM_FUSE_TEST             ----- -----  ----- -----  0012H 0014H
  +--> SM_FUSE_TEST
  +--> THERMO_ENABLE/THERMO
  +--> THERMO_HI_THRESHOLD_GET/THERMO
  +--> THERMO_LO_THRESHOLD_GET/THERMO
  +--> _ROM_READ/ROM
  +--> _DEBUG_PRINTF/DEBUG
  +--> CLOCK_GET_SEC_256/CLOCK
  +--> THERMO_HI_THRESHOLD_REACH_BOTTOM/THERMO
  +--> THERMO_HI_THRESHOLD_DEC/THERMO
  +--> THERMO_LO_THRESHOLD_REACH_TOP/THERMO
  +--> THERMO_LO_THRESHOLD_INC/THERMO
  +--> _DISPLAY_TEST/SM_FUSE_TEST

THERMO_ENABLE/THERMO                          20H.1 20H.1  ----- -----  ----- -----
  +--> THERMO_POWER_ON/THERMO
  +--> THERMO_POWER_OFF/THERMO

THERMO_POWER_ON/THERMO                        ----- -----  ----- -----  0015H 0015H
  +--> THERMO_LOAD_CONFIG/THERMO
  +--> _I2C_PUT/I2C
  +--> THERMO_HI_THRESHOLD_RESET/THERMO
  +--> THERMO_LO_THRESHOLD_RESET/THERMO
  +--> _DELAY_MS/MISC
  +--> THERMO
  +--> _I2C_GET/I2C
  +--> _DEBUG_PRINTF/DEBUG

THERMO_HI_THRESHOLD_GET/THERMO                ----- -----  ----- -----  0015H 0016H
  +--> THERMO
  +--> _I2C_GETS/I2C
  +--> _THERMO_HEX_TO_TEMP/THERMO

_THERMO_HEX_TO_TEMP/THERMO                    ----- -----  ----- -----  0017H 0017H
  +--> THERMO
  +--> _DEBUG_PRINTF/DEBUG

THERMO_LO_THRESHOLD_GET/THERMO                ----- -----  ----- -----  0015H 0016H
  +--> THERMO
  +--> _I2C_GETS/I2C
  +--> _THERMO_HEX_TO_TEMP/THERMO

THERMO_HI_THRESHOLD_REACH_BOTTOM/THERMO       ----- -----  ----- -----  ----- -----
  +--> THERMO_HI_THRESHOLD_GET/THERMO
  +--> THERMO

LX51 LINKER/LOCATER V4.66.87.0                                                        05/30/2018  17:25:18  PAGE 42


THERMO_HI_THRESHOLD_DEC/THERMO                ----- -----  ----- -----  ----- -----
  +--> THERMO_HI_THRESHOLD_GET/THERMO
  +--> THERMO
  +--> _THERMO_HI_THRESHOLD_SET/THERMO

THERMO_LO_THRESHOLD_REACH_TOP/THERMO          ----- -----  ----- -----  ----- -----
  +--> THERMO_LO_THRESHOLD_GET/THERMO
  +--> THERMO

THERMO_LO_THRESHOLD_INC/THERMO                ----- -----  ----- -----  ----- -----
  +--> THERMO_LO_THRESHOLD_GET/THERMO
  +--> THERMO
  +--> _THERMO_LO_THRESHOLD_SET/THERMO

_SM_FUSE_TEST_SUBMOD3/SM_FUSE_TEST            ----- -----  ----- -----  0011H 0011H
  +--> SM_FUSE_TEST
  +--> _DEBUG_PRINTF/DEBUG
  +--> _SM_FUSE_SET/SM_FUSE_TEST

_SM_FUSE_TEST_SUBMOD4/SM_FUSE_TEST            ----- -----  ----- -----  0011H 0011H
  +--> SM_FUSE_TEST
  +--> _DEBUG_PRINTF/DEBUG
  +--> _SM_FUSE_TEST_THERMO/SM_FUSE_TEST

_SM_FUSE_TEST_SUBMOD5/SM_FUSE_TEST            ----- -----  ----- -----  0011H 0011H
  +--> SM_FUSE_TEST
  +--> _DEBUG_PRINTF/DEBUG
  +--> _SM_FUSE_SET/SM_FUSE_TEST

_SM_FUSE_TEST_SUBMOD6/SM_FUSE_TEST            ----- -----  ----- -----  0011H 0011H
  +--> SM_FUSE_TEST
  +--> _DEBUG_PRINTF/DEBUG
  +--> _SM_FUSE_TEST_HG_MPU/SM_FUSE_TEST

_SM_FUSE_TEST_HG_MPU/SM_FUSE_TEST             ----- -----  ----- -----  0012H 0014H
  +--> HG_ENABLE/HG
  +--> MPU_ENABLE/MPU
  +--> SM_FUSE_TEST
  +--> _ROM_READ/ROM
  +--> MPU_THRESHOLD_GET/MPU
  +--> HG_GET_STATE/HG
  +--> _UPDATE_HG_MASK/SM_FUSE_TEST
  +--> _DISPLAY_TEST/SM_FUSE_TEST
  +--> CLOCK_GET_SEC_256/CLOCK

HG_ENABLE/HG                                  20H.1 20H.1  ----- -----  ----- -----
  +--> _DEBUG_PRINTF/DEBUG
  +--> HG_POWER_ON/HG
  +--> HG_POWER_OFF/HG

HG_POWER_ON/HG                                ----- -----  ----- -----  ----- -----
  +--> _SERIAL_SET_CTL_BIT/SERIAL_HUB
  +--> SERIAL_CTL_OUT/SERIAL_HUB
  +--> HG_CB_SET_ENABLE/HG
  +--> _DELAY_TASK_REG/DELAY_TASK

HG_CB_SET_ENABLE/HG                           ----- -----  ----- -----  ----- -----
  +--> _DEBUG_PRINTF/DEBUG

_DELAY_TASK_REG/DELAY_TASK                    ----- -----  ----- -----  0015H 0018H
  +--> _DEBUG_PRINTF/DEBUG
  +--> DELAY_TASK

MPU_ENABLE/MPU                                20H.1 20H.1  ----- -----  ----- -----
  +--> _DEBUG_PRINTF/DEBUG
LX51 LINKER/LOCATER V4.66.87.0                                                        05/30/2018  17:25:18  PAGE 43


  +--> MPU_POWER_ON/MPU
  +--> MPU_POWER_OFF/MPU

MPU_POWER_ON/MPU                              ----- -----  ----- -----  0015H 0015H
  +--> _DEBUG_PRINTF/DEBUG
  +--> MPU_LOAD_CONFIG/MPU
  +--> _I2C_PUT/I2C
  +--> MPU
  +--> _I2C_GET/I2C

MPU_THRESHOLD_GET/MPU                         ----- -----  ----- -----  ----- -----

HG_GET_STATE/HG                               ----- -----  ----- -----  ----- -----
  +--> HG
  +--> _DEBUG_PRINTF/DEBUG

_UPDATE_HG_MASK/SM_FUSE_TEST                  ----- -----  ----- -----  0015H 0016H
  +--> SM_FUSE_TEST
  +--> _DEBUG_PRINTF/DEBUG

_SM_FUSE_TEST_SUBMOD7/SM_FUSE_TEST            ----- -----  ----- -----  0011H 0011H
  +--> SM_FUSE_TEST
  +--> _DEBUG_PRINTF/DEBUG
  +--> _SM_FUSE_SET/SM_FUSE_TEST

_SM_FUSE_TEST_SUBMOD8/SM_FUSE_TEST            ----- -----  ----- -----  0011H 0011H
  +--> SM_FUSE_TEST
  +--> _DEBUG_PRINTF/DEBUG
  +--> _SM_FUSE_TEST_HG_MPU/SM_FUSE_TEST

_SM_FUSE_PARAM_SUBMOD0/SM_FUSE_PARAM          ----- -----  ----- -----  0011H 0012H
  +--> SM_FUSE_PARAM
  +--> _DEBUG_PRINTF/DEBUG
  +--> LT_TIMER_LOAD_FROM_ROM/LT_TIMER
  +--> _SM_FUSE_PARAM_SET_TIME/SM_FUSE_PARAM

_SM_FUSE_PARAM_SET_TIME/SM_FUSE_PARAM         ----- -----  ----- -----  0013H 0014H
  +--> _ENTER_TIME/SM_FUSE_PARAM
  +--> _INC_AND_WRITE/SM_FUSE_PARAM
  +--> _UPDATE_TIME/SM_FUSE_PARAM
  +--> _INC_ONLY/SM_FUSE_PARAM
  +--> _WRITE_ONLY/SM_FUSE_PARAM

_ENTER_TIME/SM_FUSE_PARAM                     ----- -----  ----- -----  0015H 0015H
  +--> LED_CLEAR/LED
  +--> _LED_SET_BLINK/LED
  +--> _UPDATE_TIME/SM_FUSE_PARAM

_UPDATE_TIME/SM_FUSE_PARAM                    ----- -----  ----- -----  0016H 001BH
  +--> LT_TIMER_GET_YEAR/LT_TIMER
  +--> LT_TIMER_GET_MONTH/LT_TIMER
  +--> LT_TIMER_GET_DATE/LT_TIMER
  +--> _LED_SET_DP/LED
  +--> _DEBUG_PRINTF/DEBUG
  +--> _LED_SET_CODE/LED
  +--> LT_TIMER_GET_HOUR/LT_TIMER
  +--> LT_TIMER_GET_MIN/LT_TIMER
  +--> LT_TIMER_GET_SEC/LT_TIMER
  +--> LT_TIMER_GET_HOUR_12/LT_TIMER
  +--> _LED_CLR_DP/LED

LT_TIMER_GET_DATE/LT_TIMER                    ----- -----  ----- -----  ----- -----

LT_TIMER_GET_HOUR/LT_TIMER                    ----- -----  ----- -----  ----- -----

LX51 LINKER/LOCATER V4.66.87.0                                                        05/30/2018  17:25:18  PAGE 44


LT_TIMER_GET_MIN/LT_TIMER                     ----- -----  ----- -----  ----- -----

LT_TIMER_GET_SEC/LT_TIMER                     ----- -----  ----- -----  ----- -----

LT_TIMER_GET_HOUR_12/LT_TIMER                 ----- -----  ----- -----  ----- -----

_INC_AND_WRITE/SM_FUSE_PARAM                  ----- -----  ----- -----  ----- -----
  +--> _INC_ONLY/SM_FUSE_PARAM
  +--> _WRITE_ONLY/SM_FUSE_PARAM

_INC_ONLY/SM_FUSE_PARAM                       ----- -----  ----- -----  ----- -----
  +--> LT_TIMER_INC_HOUR/LT_TIMER
  +--> LT_TIMER_INC_YEAR/LT_TIMER
  +--> LT_TIMER_INC_MIN/LT_TIMER
  +--> LT_TIMER_INC_MONTH/LT_TIMER
  +--> _LED_CLR_BLINK/LED
  +--> LT_TIMER_INC_SEC/LT_TIMER
  +--> LT_TIMER_INC_DATE/LT_TIMER

LT_TIMER_INC_HOUR/LT_TIMER                    ----- -----  ----- -----  ----- -----

LT_TIMER_INC_YEAR/LT_TIMER                    ----- -----  ----- -----  ----- -----

LT_TIMER_INC_MIN/LT_TIMER                     ----- -----  ----- -----  ----- -----

LT_TIMER_INC_MONTH/LT_TIMER                   ----- -----  ----- -----  ----- -----

LT_TIMER_INC_SEC/LT_TIMER                     ----- -----  ----- -----  ----- -----

LT_TIMER_INC_DATE/LT_TIMER                    ----- -----  ----- -----  ----- -----
  +--> _CLOCK_GET_MON_DATE/CLOCK

_WRITE_ONLY/SM_FUSE_PARAM                     ----- -----  ----- -----  0015H 0015H
  +--> _ROM_WRITE/ROM
  +--> _LT_TIMER_SAVE_TO_ROM/LT_TIMER
  +--> _LED_SET_BLINK/LED

_LT_TIMER_SAVE_TO_ROM/LT_TIMER                ----- -----  ----- -----  0016H 0016H
  +--> LT_TIMER
  +--> _DEBUG_PRINTF/DEBUG
  +--> _ROM_WRITE/ROM

_SM_FUSE_PARAM_SUBMOD1/SM_FUSE_PARAM          ----- -----  ----- -----  0011H 0011H
  +--> SM_FUSE_PARAM
  +--> _DEBUG_PRINTF/DEBUG
  +--> _SM_FUSE_PARAM_SET_TIME/SM_FUSE_PARAM

_SM_FUSE_TIMER_INIT/SM_FUSE_TIMER             ----- -----  ----- -----  ----- -----
  +--> SM_FUSE_TIMER
  +--> _DEBUG_PRINTF/DEBUG
  +--> _DISPLAY_LOGO/MOD_COMMON

SM_FUSE_TIMER                                 ----- -----  ----- -----  ----- -----

_SM_FUSE_PARAM_SUBMOD2/SM_FUSE_PARAM          ----- -----  ----- -----  0011H 0011H
  +--> SM_FUSE_PARAM
  +--> _DEBUG_PRINTF/DEBUG
  +--> _SM_FUSE_PARAM_SET_TIME/SM_FUSE_PARAM

_SM_FUSE_PARAM_SUBMOD3/SM_FUSE_PARAM          ----- -----  ----- -----  0011H 0011H
  +--> SM_FUSE_PARAM
  +--> _DEBUG_PRINTF/DEBUG
  +--> _SM_FUSE_PARAM_SET_TIME/SM_FUSE_PARAM

_SM_FUSE_PARAM_SUBMOD4/SM_FUSE_PARAM          ----- -----  ----- -----  0011H 0011H
LX51 LINKER/LOCATER V4.66.87.0                                                        05/30/2018  17:25:18  PAGE 45


  +--> SM_FUSE_PARAM
  +--> _DEBUG_PRINTF/DEBUG
  +--> _SM_FUSE_PARAM_SET_TIME/SM_FUSE_PARAM

_SM_FUSE_PARAM_SUBMOD5/SM_FUSE_PARAM          ----- -----  ----- -----  0011H 0011H
  +--> SM_FUSE_PARAM
  +--> _DEBUG_PRINTF/DEBUG
  +--> _SM_FUSE_PARAM_SET_TIME/SM_FUSE_PARAM

_SM_FUSE_PARAM_SUBMOD6/SM_FUSE_PARAM          ----- -----  ----- -----  0011H 0012H
  +--> SM_FUSE_PARAM
  +--> _DEBUG_PRINTF/DEBUG
  +--> _ENTER_PASSWORD/SM_FUSE_PARAM
  +--> _INC_AND_WRITE/SM_FUSE_PARAM
  +--> _UPDATE_PASSWORD/SM_FUSE_PARAM
  +--> _INC_ONLY/SM_FUSE_PARAM
  +--> _WRITE_ONLY/SM_FUSE_PARAM

_ENTER_PASSWORD/SM_FUSE_PARAM                 ----- -----  ----- -----  0013H 0013H
  +--> _ROM_READ/ROM
  +--> _UPDATE_PASSWORD/SM_FUSE_PARAM

_UPDATE_PASSWORD/SM_FUSE_PARAM                ----- -----  ----- -----  0014H 0014H
  +--> LED_CLEAR/LED
  +--> _LED_SET_CODE/LED

_SM_FUSE_TIMER_SUBMOD0/SM_FUSE_TIMER          ----- -----  ----- -----  0011H 0012H
  +--> SM_FUSE_TIMER
  +--> _DEBUG_PRINTF/DEBUG
  +--> _DISPLAY_PREARM/SM_FUSE_TIMER
  +--> _CHECK_AND_SET/SM_FUSE_TIMER
  +--> ROLL_BACK/SM_FUSE_TIMER

_DISPLAY_PREARM/SM_FUSE_TIMER                 ----- -----  ----- -----  0013H 0014H
  +--> LED_CLEAR/LED
  +--> _LED_SET_CODE/LED
  +--> SM_FUSE_TIMER

_CHECK_AND_SET/SM_FUSE_TIMER                  ----- -----  ----- -----  0013H 0014H
  +--> FUSE_ENABLE/FUSE
  +--> MPU_ENABLE/MPU
  +--> HG_ENABLE/HG
  +--> _ROM_READ/ROM
  +--> THERMO_ENABLE/THERMO
  +--> LT_TIMER_LOAD_FROM_ROM/LT_TIMER
  +--> LT_TIMER_SYNC_TO_RTC/LT_TIMER
  +--> LT_TIMER_GET_RELATIVE/LT_TIMER
  +--> LT_TIMER_START_RAM/LT_TIMER

ROLL_BACK/SM_FUSE_TIMER                       20H.0 20H.0  ----- -----  ----- -----
  +--> _DEBUG_PRINTF/DEBUG
  +--> THERMO_ENABLE/THERMO
  +--> MPU_ENABLE/MPU
  +--> HG_ENABLE/HG
  +--> LT_TIMER_RESET/LT_TIMER
  +--> FUSE_ENABLE/FUSE

LT_TIMER_RESET/LT_TIMER                       ----- -----  ----- -----  ----- -----
  +--> LT_TIMER_STOP_RTC/LT_TIMER
  +--> LT_TIMER_STOP_RAM/LT_TIMER

_SM_FUSE_TIMER_SUBMOD1/SM_FUSE_TIMER          ----- -----  ----- -----  0011H 0012H
  +--> SM_FUSE_TIMER
  +--> _DEBUG_PRINTF/DEBUG
  +--> LT_TIMER_DISPLAY/LT_TIMER
LX51 LINKER/LOCATER V4.66.87.0                                                        05/30/2018  17:25:18  PAGE 46


  +--> POWER_TEST_POWERSAVE_TO/POWER
  +--> POWER_RESET_POWERSAVE_TO/POWER
  +--> LT_TIMER_SWITCH_DISPLAY/LT_TIMER

LT_TIMER_DISPLAY/LT_TIMER                     20H.0 20H.0  ----- -----  ----- -----
  +--> _DEBUG_PRINTF/DEBUG

LT_TIMER_SWITCH_DISPLAY/LT_TIMER              ----- -----  ----- -----  ----- -----
  +--> _DEBUG_PRINTF/DEBUG

_SM_FUSE_TIMER_SUBMOD2/SM_FUSE_TIMER          ----- -----  ----- -----  0011H 0012H
  +--> SM_FUSE_TIMER
  +--> _DEBUG_PRINTF/DEBUG
  +--> LT_TIMER_DISPLAY/LT_TIMER
  +--> VERIFY_PASSWORD/SM_FUSE_TIMER
  +--> DISPLAY_PASSWORD/SM_FUSE_TIMER
  +--> INC_PASSWORD/SM_FUSE_TIMER

VERIFY_PASSWORD/SM_FUSE_TIMER                 ----- -----  ----- -----  0013H 0013H
  +--> _ROM_READ/ROM
  +--> SM_FUSE_TIMER
  +--> _DEBUG_PRINTF/DEBUG

DISPLAY_PASSWORD/SM_FUSE_TIMER                ----- -----  ----- -----  ----- -----
  +--> LED_CLEAR/LED
  +--> _LED_SET_CODE/LED

INC_PASSWORD/SM_FUSE_TIMER                    ----- -----  ----- -----  ----- -----

_SM_FUSE_TIMER_SUBMOD3/SM_FUSE_TIMER          ----- -----  ----- -----  0011H 0011H
  +--> SM_FUSE_TIMER
  +--> _DEBUG_PRINTF/DEBUG
  +--> ROLL_BACK/SM_FUSE_TIMER
  +--> _DISPLAY_TIMER/SM_FUSE_TIMER

_DISPLAY_TIMER/SM_FUSE_TIMER                  ----- -----  ----- -----  0012H 0012H
  +--> LED_CLEAR/LED
  +--> _LED_SET_CODE/LED

_SM_FUSE_TIMER_SUBMOD4/SM_FUSE_TIMER          ----- -----  ----- -----  ----- -----
  +--> SM_FUSE_TIMER
  +--> _DEBUG_PRINTF/DEBUG
  +--> ROLL_BACK/SM_FUSE_TIMER
  +--> _DISPLAY_TIMER/SM_FUSE_TIMER

_SM_FUSE_DETONATE_INIT/SM_FUSE_DETONATE       ----- -----  ----- -----  ----- -----
  +--> SM_FUSE_DETONATE
  +--> _DEBUG_PRINTF/DEBUG
  +--> DISPLAY_DETONATE/SM_FUSE_DETONATE

SM_FUSE_DETONATE                              ----- -----  ----- -----  ----- -----

DISPLAY_DETONATE/SM_FUSE_DETONATE             ----- -----  ----- -----  ----- -----
  +--> LED_CLEAR/LED
  +--> _LED_SET_CODE/LED
  +--> _LED_SET_BLINK/LED

_SM_FUSE_POWERSAVE_INIT/SM_FUSE_POWERSAV+     ----- -----  ----- -----  ----- -----
... E
  +--> SM_FUSE_POWERSAVE
  +--> _DEBUG_PRINTF/DEBUG

SM_FUSE_POWERSAVE                             ----- -----  ----- -----  ----- -----

_SM_FUSE_DETONATE_SUBMOD0/SM_FUSE_DETONA+     ----- -----  ----- -----  0011H 0011H
LX51 LINKER/LOCATER V4.66.87.0                                                        05/30/2018  17:25:18  PAGE 47


... TE
  +--> SM_FUSE_DETONATE
  +--> _DEBUG_PRINTF/DEBUG
  +--> FUSE_TRIGGER/FUSE
  +--> FUSE_ENABLE/FUSE

FUSE_TRIGGER/FUSE                             20H.0 20H.0  ----- -----  ----- -----
  +--> _DEBUG_PRINTF/DEBUG
  +--> POWER_5V_ENABLE/POWER
  +--> _SERIAL_SET_CTL_BIT/SERIAL_HUB
  +--> SERIAL_CTL_OUT/SERIAL_HUB

_SM_FUSE_POWERSAVE_SUBMOD0/SM_FUSE_POWER+     ----- -----  ----- -----  0011H 0011H
... SAVE
  +--> SM_FUSE_POWERSAVE
  +--> _DEBUG_PRINTF/DEBUG
  +--> POWER_ENTER_POWERSAVE/POWER
  +--> POWER_LEAVE_POWERSAVE/POWER

_SM_FUSE_POWERSAVE_SUBMOD1/SM_FUSE_POWER+     ----- -----  ----- -----  ----- -----
... SAVE
  +--> SM_FUSE_POWERSAVE
  +--> _DEBUG_PRINTF/DEBUG
  +--> ROLL_BACK/SM_FUSE_POWERSAVE

ROLL_BACK/SM_FUSE_POWERSAVE                   ----- -----  ----- -----  ----- -----
  +--> THERMO_ENABLE/THERMO
  +--> MPU_ENABLE/MPU
  +--> HG_ENABLE/HG
  +--> LT_TIMER_RESET/LT_TIMER

_SM_GLOBAL_FLAG_MOD_SUBMOD0/SM_GLOBAL_FL+     ----- -----  ----- -----  0011H 0011H
... AG_MOD
  +--> SM_GLOBAL_FLAG_MOD
  +--> _DEBUG_PRINTF/DEBUG
  +--> _SM_GLOBAL_FLAG_MOD/SM_GLOBAL_FLAG_MOD

_SM_GLOBAL_FLAG_MOD/SM_GLOBAL_FLAG_MOD        ----- -----  ----- -----  0012H 0013H
  +--> _INC_WRITE/SM_GLOBAL_FLAG_MOD
  +--> _DISPLAY_GLOBAL_FLAG/SM_GLOBAL_FLAG_MOD

_INC_WRITE/SM_GLOBAL_FLAG_MOD                 20H.0 20H.0  ----- -----  ----- -----
  +--> POWER_INC_POWERSAVE_TO/POWER
  +--> POWER_GET_POWERSAVE_TO/POWER
  +--> BEEPER_GET_BEEP_ENABLE/BEEPER
  +--> BEEPER_SET_BEEP_ENABLE/BEEPER
  +--> _ROM_READ/ROM
  +--> CLOCK_SET_HOUR_12/CLOCK
  +--> _CLOCK_SYNC_TO_RTC/CLOCK
  +--> ALARM0_SET_HOUR_12/ALARM
  +--> LT_TIMER_SET_HOUR_12/LT_TIMER
  +--> _ROM_WRITE/ROM

POWER_INC_POWERSAVE_TO/POWER                  ----- -----  ----- -----  ----- -----

POWER_GET_POWERSAVE_TO/POWER                  ----- -----  ----- -----  ----- -----

BEEPER_GET_BEEP_ENABLE/BEEPER                 ----- -----  ----- -----  ----- -----

BEEPER_SET_BEEP_ENABLE/BEEPER                 20H.1 20H.1  ----- -----  ----- -----

CLOCK_SET_HOUR_12/CLOCK                       20H.1 20H.1  ----- -----  ----- -----

ALARM0_SET_HOUR_12/ALARM                      20H.1 20H.1  ----- -----  ----- -----

LX51 LINKER/LOCATER V4.66.87.0                                                        05/30/2018  17:25:18  PAGE 48


LT_TIMER_SET_HOUR_12/LT_TIMER                 20H.1 20H.1  ----- -----  ----- -----

_DISPLAY_GLOBAL_FLAG/SM_GLOBAL_FLAG_MOD       ----- -----  ----- -----  0014H 0014H
  +--> LED_CLEAR/LED
  +--> _DEBUG_PRINTF/DEBUG
  +--> _LED_SET_CODE/LED
  +--> POWER_GET_POWERSAVE_TO_S/POWER
  +--> BEEPER_GET_BEEP_ENABLE/BEEPER
  +--> _ROM_READ/ROM

POWER_GET_POWERSAVE_TO_S/POWER                ----- -----  ----- -----  ----- -----

_SM_GLOBAL_FLAG_MOD_SUBMOD1/SM_GLOBAL_FL+     ----- -----  ----- -----  0011H 0011H
... AG_MOD
  +--> SM_GLOBAL_FLAG_MOD
  +--> _DEBUG_PRINTF/DEBUG
  +--> _SM_GLOBAL_FLAG_MOD/SM_GLOBAL_FLAG_MOD

_SM_GLOBAL_FLAG_MOD_SUBMOD2/SM_GLOBAL_FL+     ----- -----  ----- -----  0011H 0011H
... AG_MOD
  +--> SM_GLOBAL_FLAG_MOD
  +--> _DEBUG_PRINTF/DEBUG
  +--> _SM_GLOBAL_FLAG_MOD/SM_GLOBAL_FLAG_MOD

_SCAN_KEY_PROC/KEY                            ----- -----  ----- -----  ----- -----
  +--> _DELAY_10US/MISC
  +--> CLOCK_GET_SEC_256/CLOCK
  +--> KEY

KEY                                           ----- -----  ----- -----  ----- -----

_SET_PROC/KEY                                 ----- -----  ----- -----  000CH 000CH
  +--> KEY
  +--> _DEBUG_PRINTF/DEBUG
  +--> BEEPER_BEEP/BEEPER
  +--> _RUN_STATE_MACHINE/SM

BEEPER_BEEP/BEEPER                            ----- -----  ----- -----  000DH 000DH
  +--> _DEBUG_PRINTF/DEBUG
  +--> _DELAY_10US/MISC

_MOD_PROC/KEY                                 ----- -----  ----- -----  000CH 000CH
  +--> KEY
  +--> _DEBUG_PRINTF/DEBUG
  +--> BEEPER_BEEP/BEEPER
  +--> _RUN_STATE_MACHINE/SM

_MOD_SET_PROC/KEY                             ----- -----  ----- -----  000CH 000CH
  +--> _DEBUG_PRINTF/DEBUG
  +--> _RUN_STATE_MACHINE/SM

_FUSE_PROC/FUSE                               ----- -----  ----- -----  000CH 000CH
  +--> _DEBUG_PRINTF/DEBUG
  +--> _RUN_STATE_MACHINE/SM

_NULL_PROC/SM                                 ----- -----  ----- -----  ----- -----
  +--> _RUN_STATE_MACHINE/SM

_THERMO_PROC/THERMO                           ----- -----  ----- -----  000CH 000CH
  +--> _DEBUG_PRINTF/DEBUG
  +--> _RUN_STATE_MACHINE/SM

_ALARM_PROC/ALARM                             ----- -----  ----- -----  000CH 000CH
  +--> _DEBUG_PRINTF/DEBUG
  +--> _RUN_STATE_MACHINE/SM
LX51 LINKER/LOCATER V4.66.87.0                                                        05/30/2018  17:25:18  PAGE 49



_POWER_PROC/POWER                             ----- -----  ----- -----  000CH 000CH
  +--> _DEBUG_PRINTF/DEBUG
  +--> _RUN_STATE_MACHINE/SM

SM_INITIALIZE/SM                              ----- -----  ----- -----  ----- -----
  +--> _DEBUG_PRINTF/DEBUG
  +--> LT_TIMER_SWITCH_OFF/LT_TIMER
  +--> ALARM_SWITCH_ON/ALARM
  +--> RTC_SET_LT_TIMER/RTC

DELAY_TASK_INITIALIZE/DELAY_TASK              ----- -----  ----- -----  ----- -----
  +--> _DEBUG_PRINTF/DEBUG

RUN_TASK/TASK                                 ----- -----  ----- -----  0000H 0000H
  +--> COM_TRY_GET_KEY/COM
  +--> TASK

COM_TRY_GET_KEY/COM                           ----- -----  ----- -----  ----- -----
  +--> COM

COM                                           ----- -----  ----- -----  ----- -----

TASK                                          ----- -----  ----- -----  ----- -----

RUN_SHELL/SHELL                               ----- -----  ----- -----  0000H 0001H
  +--> PRINTF/PRINTF
  +--> CLOCK_ENTER_SHELL/CLOCK
  +--> LED_SAVE/LED
  +--> LED_CLEAR/LED
  +--> _LED_SET_CODE/LED
  +--> _GETS/GETS
  +--> SHELL
  +--> _CALL_CMD/SHELL
  +--> LED_RESTORE/LED
  +--> CLOCK_LEAVE_SHELL/CLOCK

_CMD_HELP/CMD_HELP                            ----- -----  ----- -----  0008H 0008H
  +--> SHELL_DUMP_CMD/SHELL
  +--> CMD_HELP
  +--> _SHELL_SEARCH_CMD_BY_NAME/SHELL
  +--> PRINTF/PRINTF

SHELL_DUMP_CMD/SHELL                          ----- -----  ----- -----  0009H 0009H
  +--> SHELL
  +--> PRINTF/PRINTF

SHELL                                         ----- -----  ----- -----  ----- -----

CMD_HELP                                      ----- -----  ----- -----  ----- -----

_SHELL_SEARCH_CMD_BY_NAME/SHELL               ----- -----  ----- -----  0009H 000CH
  +--> SHELL

_CMD_DBG/CMD_DBG                              ----- -----  ----- -----  0008H 0008H
  +--> CMD_DBG
  +--> PRINTF/PRINTF
  +--> DEBUG_ONOFF/DEBUG

CMD_DBG                                       ----- -----  ----- -----  ----- -----

DEBUG_ONOFF/DEBUG                             20H.0 20H.0  ----- -----  ----- -----

_CMD_SERIAL/CMD_SERIAL                        ----- -----  ----- -----  0008H 000BH
  +--> SERIAL_DUMP/SERIAL_HUB
LX51 LINKER/LOCATER V4.66.87.0                                                        05/30/2018  17:25:18  PAGE 50


  +--> _SERIAL_TEST_CTL_BIT/SERIAL_HUB
  +--> CMD_SERIAL
  +--> PRINTF/PRINTF
  +--> _SERIAL_SET_CTL_BIT/SERIAL_HUB
  +--> SERIAL_CTL_OUT/SERIAL_HUB
  +--> _ATOI/ATOI

CMD_SERIAL                                    ----- -----  ----- -----  ----- -----

_ATOI/ATOI                                    20H.1 20H.1  ----- -----  000FH 0013H
  +--> _ISSPACE/ISSPACE
  +--> _ISDIGIT/ISDIGIT

_ISSPACE/ISSPACE                              ----- -----  ----- -----  ----- -----

_ISDIGIT/ISDIGIT                              ----- -----  ----- -----  ----- -----

_CMD_INT/CMD_INT                              ----- -----  ----- -----  0008H 0008H
  +--> INT_HUB_DUMP/INT_HUB
  +--> INT_HUB_GET_STATUS/INT_HUB
  +--> _INT_HUB_DUMP_EXT_STATUS/INT_HUB

_CMD_I2C/CMD_I2C                              ----- -----  ----- -----  0008H 0009H
  +--> CMD_I2C
  +--> _I2C_READ/CMD_I2C
  +--> _I2C_WRITE/CMD_I2C

CMD_I2C                                       ----- -----  ----- -----  ----- -----

_I2C_READ/CMD_I2C                             20H.0 20H.0  ----- -----  000AH 000DH
  +--> CMD_I2C
  +--> _ATOI/ATOI
  +--> I2C_INIT/I2C
  +--> _I2C_GET/I2C
  +--> PRINTF/PRINTF

_I2C_WRITE/CMD_I2C                            20H.0 20H.0  ----- -----  000AH 000EH
  +--> CMD_I2C
  +--> _ATOI/ATOI
  +--> PRINTF/PRINTF
  +--> I2C_INIT/I2C
  +--> _I2C_PUT/I2C

_CMD_REBOOT/CMD_REBOOT                        ----- -----  ----- -----  0008H 0008H
  +--> PRINTF/PRINTF

_CMD_TASK/CMD_TASK                            ----- -----  ----- -----  0008H 000AH
  +--> TASK_DUMP/TASK
  +--> CMD_TASK
  +--> _ATOI/ATOI

TASK_DUMP/TASK                                ----- -----  ----- -----  000BH 000BH
  +--> TASK
  +--> PRINTF/PRINTF

CMD_TASK                                      ----- -----  ----- -----  ----- -----

_CMD_SM/CMD_SM                                ----- -----  ----- -----  0008H 0009H
  +--> SM_SHOW_CURRENT/SM
  +--> CMD_SM
  +--> SM_DUMP/SM
  +--> SM_DUMP_TABLE/SM
  +--> _SM_SET_TABLE_BY_NAME/SM
  +--> SM_DUMP_STATE/SM
  +--> _SM_SET_STATE_BY_NAME/SM
LX51 LINKER/LOCATER V4.66.87.0                                                        05/30/2018  17:25:18  PAGE 51


  +--> SM_DUMP_SUB_STATE/SM
  +--> _SM_SET_SUB_STATE_BY_NAME/SM
  +--> PRINTF/PRINTF

SM_SHOW_CURRENT/SM                            ----- -----  ----- -----  ----- -----
  +--> SM
  +--> PRINTF/PRINTF

CMD_SM                                        ----- -----  ----- -----  ----- -----

SM_DUMP/SM                                    ----- -----  ----- -----  000AH 000CH
  +--> SM
  +--> PRINTF/PRINTF

SM_DUMP_TABLE/SM                              ----- -----  ----- -----  000AH 000AH
  +--> SM
  +--> PRINTF/PRINTF

_SM_SET_TABLE_BY_NAME/SM                      ----- -----  ----- -----  000AH 000DH
  +--> SM
  +--> PRINTF/PRINTF

SM_DUMP_STATE/SM                              ----- -----  ----- -----  000AH 000AH
  +--> SM
  +--> PRINTF/PRINTF

_SM_SET_STATE_BY_NAME/SM                      ----- -----  ----- -----  000AH 000DH
  +--> SM
  +--> PRINTF/PRINTF
  +--> _SM_SET_STATE/SM
  +--> _SM_SET_SUB_STATE/SM

_SM_SET_STATE/SM                              ----- -----  ----- -----  ----- -----

_SM_SET_SUB_STATE/SM                          ----- -----  ----- -----  ----- -----
  +--> SM

SM_DUMP_SUB_STATE/SM                          ----- -----  ----- -----  000AH 000AH
  +--> SM
  +--> PRINTF/PRINTF

_SM_SET_SUB_STATE_BY_NAME/SM                  ----- -----  ----- -----  000AH 000DH
  +--> SM
  +--> PRINTF/PRINTF
  +--> _SM_SET_SUB_STATE/SM

_CMD_BEEPER/CMD_BEEPER                        ----- -----  ----- -----  0008H 000AH
  +--> CMD_BEEPER
  +--> BEEPER_BEEP/BEEPER
  +--> BEEPER_BEEP_BEEP/BEEPER
  +--> BEEPER_SET_BEEP_ENABLE/BEEPER
  +--> BEEPER_GET_MUSIC_INDEX/BEEPER
  +--> BEEPER_INC_MUSIC_INDEX/BEEPER
  +--> PRINTF/PRINTF
  +--> BEEPER_PLAY_MUSIC/BEEPER

CMD_BEEPER                                    ----- -----  ----- -----  ----- -----

BEEPER_BEEP_BEEP/BEEPER                       ----- -----  ----- -----  000BH 000BH
  +--> _DEBUG_PRINTF/DEBUG
  +--> _DELAY_10US/MISC
  +--> _DELAY_MS/MISC

_CMD_THERMO/CMD_THERMO                        ----- -----  ----- -----  0008H 000AH
  +--> THERMO_GET_CURRENT/THERMO
LX51 LINKER/LOCATER V4.66.87.0                                                        05/30/2018  17:25:18  PAGE 52


  +--> CMD_THERMO
  +--> THERMO_ENABLE/THERMO
  +--> THERMO_HI_THRESHOLD_GET/THERMO
  +--> THERMO_LO_THRESHOLD_GET/THERMO
  +--> PRINTF/PRINTF
  +--> THERMO_HI_THRESHOLD_INC/THERMO
  +--> THERMO_HI_THRESHOLD_DEC/THERMO
  +--> THERMO_HI_THRESHOLD_RESET/THERMO
  +--> _THERMO_HI_THRESHOLD_SET/THERMO
  +--> THERMO_LO_THRESHOLD_INC/THERMO
  +--> THERMO_LO_THRESHOLD_DEC/THERMO
  +--> THERMO_LO_THRESHOLD_RESET/THERMO
  +--> _THERMO_LO_THRESHOLD_SET/THERMO
  +--> _ATOI/ATOI

THERMO_GET_CURRENT/THERMO                     ----- -----  ----- -----  000BH 000DH
  +--> THERMO
  +--> _I2C_GETS/I2C
  +--> _DEBUG_PRINTF/DEBUG
  +--> _THERMO_HEX_TO_TEMP/THERMO

CMD_THERMO                                    ----- -----  ----- -----  ----- -----

THERMO_HI_THRESHOLD_INC/THERMO                ----- -----  ----- -----  ----- -----
  +--> THERMO_HI_THRESHOLD_GET/THERMO
  +--> THERMO
  +--> _THERMO_HI_THRESHOLD_SET/THERMO

THERMO_LO_THRESHOLD_DEC/THERMO                ----- -----  ----- -----  ----- -----
  +--> THERMO_LO_THRESHOLD_GET/THERMO
  +--> THERMO
  +--> _THERMO_LO_THRESHOLD_SET/THERMO

_CMD_MPU/CMD_MPU                              ----- -----  ----- -----  0008H 0009H
  +--> CMD_MPU
  +--> MPU_ENABLE/MPU
  +--> MPU_READ_INT_STATUS/MPU
  +--> PRINTF/PRINTF

CMD_MPU                                       ----- -----  ----- -----  ----- -----

_CMD_NULL/SHELL                               ----- -----  ----- -----  ----- -----
  +--> PRINTF/PRINTF

CLOCK_ENTER_SHELL/CLOCK                       ----- -----  ----- -----  ----- -----

LED_SAVE/LED                                  ----- -----  ----- -----  ----- -----

_GETS/GETS                                    ----- -----  ----- -----  0002H 0008H
  +--> GETCHAR/GETCHAR
  +--> _PUTCHAR/COM

GETCHAR/GETCHAR                               ----- -----  ----- -----  ----- -----
  +--> _GETKEY/COM
  +--> _PUTCHAR/COM

_GETKEY/COM                                   ----- -----  ----- -----  ----- -----
  +--> COM

_CALL_CMD/SHELL                               ----- -----  ----- -----  0002H 0007H
  +--> SHELL
  +--> PRINTF/PRINTF
  +--> _SHELL_SEARCH_CMD_BY_NAME/SHELL

LED_RESTORE/LED                               ----- -----  ----- -----  ----- -----
LX51 LINKER/LOCATER V4.66.87.0                                                        05/30/2018  17:25:18  PAGE 53



CLOCK_LEAVE_SHELL/CLOCK                       ----- -----  ----- -----  ----- -----
  +--> CLOCK_ENABLE_INTERRUPT/CLOCK
  +--> _CLOCK_SYNC_FROM_RTC/CLOCK

*** NEW ROOT ********************************

COM_ISR/COM                                   ----- -----  ----- -----  ----- -----

*** NEW ROOT ********************************

INT0_ISR/KEY                                  ----- -----  ----- -----  ----- -----
  +--> POWER_TEST_FLAG/POWER
  +--> POWER_CLR_FLAG/POWER
  +--> KEY
  +--> BEEPER_STOP_MUSIC/BEEPER

BEEPER_STOP_MUSIC/BEEPER                      ----- -----  ----- -----  ----- -----
  +--> _BEEPER_STOP_PLAY/BEEPER

*** NEW ROOT ********************************

BEEPER_ISR/BEEPER                             ----- -----  ----- -----  ----- -----

*** NEW ROOT ********************************

CLOCK0_ISR/CLOCK                              ----- -----  ----- -----  ----- -----
  +--> CLOCK_INC_MS39/CLOCK
  +--> TIMER_INC_MS39/TIMER
  +--> REFRESH_LED/LED

CLOCK_INC_MS39/CLOCK                          21H.3 21H.3  ----- -----  ----- -----
  +--> LT_TIMER_DEC_SEC/LT_TIMER
  +--> CLOCK

LT_TIMER_DEC_SEC/LT_TIMER                     ----- -----  ----- -----  ----- -----
  +--> LT_TIMER

TIMER_INC_MS39/TIMER                          ----- -----  ----- -----  ----- -----
  +--> TIMER

*** NEW ROOT ********************************

INT1_ISR/INT_HUB                              ----- -----  ----- -----  ----- -----
  +--> INT_HUB



PUBLIC SYMBOLS OF MODULE:  Clock (SM)


      VALUE       CLASS    TYPE      PUBLIC SYMBOL NAME
      =================================================
      00000020H.0 BIT      BIT       ?_alarm0_set_enable?BIT
      0200001CH   XDATA    BYTE      ?_debug_printf?BYTE
      00000020H.0 BIT      BIT       ?_fuse_set_fuse_broke?BIT
      0200001DH   XDATA    BYTE      ?_I2C_Gets?BYTE
      0200001AH   XDATA    BYTE      ?_I2C_Puts?BYTE
      0200004DH   XDATA    ---       ?_PRINTF?BYTE
      00000020H.1 BIT      BIT       ?_rtc_enable_alarm_int?BIT
      02000014H   XDATA    BYTE      ?_rtc_get_temperature?BYTE
      00000020H.2 BIT      BIT       ?_serial_set_ctl_bit?BIT
      0200004DH   XDATA    ---       ?_SPRINTF?BYTE
      020000EAH   XDATA    ---       ?_UNGETCHAR?BYTE
      02010047H   XDATA    ---       ?_VPRINTF?BYTE
LX51 LINKER/LOCATER V4.66.87.0                                                        05/30/2018  17:25:18  PAGE 54


      00000020H.1 BIT      BIT       ?alarm0_set_hour_12?BIT
      00000020H.0 BIT      BIT       ?alarm1_set_enable?BIT
      00000020H.1 BIT      BIT       ?beeper_set_beep_enable?BIT
      01000212H   CODE     ---       ?C?CASTF
      010007A2H   CODE     ---       ?C?CCASE
      00000025H.5 BIT      ---       ?C?CHARLOADED
      01000578H   CODE     ---       ?C?CLDOPTR
      0100055FH   CODE     ---       ?C?CLDPTR
      00000000H   NUMBER   ---       ?C?CODESEG
      010008C6H   CODE     ---       ?C?COPYP2
      01000A7FH   CODE     ---       ?C?CSTOPTR
      010005A5H   CODE     ---       ?C?CSTPTR
      010001DEH   CODE     ---       ?C?FCASTC
      010001D9H   CODE     ---       ?C?FCASTI
      010001D4H   CODE     ---       ?C?FCASTL
      010003DCH   CODE     ---       ?C?FPADD
      010002D0H   CODE     ---       ?C?FPCONVERT
      01000137H   CODE     ---       ?C?FPDIV
      01000249H   CODE     ---       ?C?FPGETOPN2
      0100002EH   CODE     ---       ?C?FPMUL
      0100027EH   CODE     ---       ?C?FPNANRESULT
      01000288H   CODE     ---       ?C?FPOVERFLOW
      01000260H   CODE     ---       ?C?FPRESULT
      01000274H   CODE     ---       ?C?FPRESULT2
      01000293H   CODE     ---       ?C?FPROUND
      010003D8H   CODE     ---       ?C?FPSUB
      01000285H   CODE     ---       ?C?FPUNDERFLOW
      010004FDH   CODE     ---       ?C?FTNPWR
      010007C8H   CODE     ---       ?C?ICALL
      010007CCH   CODE     ---       ?C?ICALL2
      0100061EH   CODE     ---       ?C?IILDX
      01000AA1H   CODE     ---       ?C?ILDIX
      01000634H   CODE     ---       ?C?ILDOPTR
      010005B7H   CODE     ---       ?C?IMUL
      0100066CH   CODE     ---       ?C?LADD
      010006ABH   CODE     ---       ?C?LLDXDATA
      010006B7H   CODE     ---       ?C?LLDXDATA0
      01000687H   CODE     ---       ?C?LNEG
      010006CFH   CODE     ---       ?C?LSTKXDATA
      010006C3H   CODE     ---       ?C?LSTXDATA
      01000679H   CODE     ---       ?C?LSUB
      010007CEH   CODE     ---       ?C?MEMSET
      01000700H   CODE     ---       ?C?OFFX256
      01000711H   CODE     ---       ?C?OFFXADD
      01000746H   CODE     ---       ?C?PLDCODE
      01000AB7H   CODE     ---       ?C?PLDIDATA
      01000726H   CODE     ---       ?C?PLDIXDATA
      01000772H   CODE     ---       ?C?PLDOPTR
      01000AC0H   CODE     ---       ?C?PLDPDATA
      01000752H   CODE     ---       ?C?PLDPTR
      0100071DH   CODE     ---       ?C?PLDXDATA
      0100073DH   CODE     ---       ?C?PSTXDATA
      0100053DH   CODE     ---       ?C?SCDIV
      01000695H   CODE     ---       ?C?SLCMP
      01000A62H   CODE     ---       ?C?STRCMPP2
      010005C9H   CODE     ---       ?C?UIDIV
      00000000H   NUMBER   ---       ?C?XDATASEG
      010060F3H   CODE     ---       ?C_START
      01000000H   CODE     NEAR LAB  ?C_STARTUP
      0000001DH   DATA     ---       ?C_XBP
      00000020H.0 BIT      BIT       ?clock_display?BIT
      00000020H.2 BIT      BIT       ?clock_enable_interrupt?BIT
      00000020H.1 BIT      BIT       ?clock_set_hour_12?BIT
      00000020H.0 BIT      BIT       ?debug_onoff?BIT
      00000020H.1 BIT      BIT       ?fuse_enable?BIT
LX51 LINKER/LOCATER V4.66.87.0                                                        05/30/2018  17:25:18  PAGE 55


      00000020H.0 BIT      BIT       ?fuse_set_tripwire_broke?BIT
      00000020H.0 BIT      BIT       ?fuse_trigger?BIT
      00000020H.1 BIT      BIT       ?hg_enable?BIT
      00000020H.2 BIT      BIT       ?I2C_PutAck?BIT
      00000020H.0 BIT      BIT       ?lt_timer_display?BIT
      00000020H.0 BIT      BIT       ?lt_timer_get_relative?BIT
      00000020H.1 BIT      BIT       ?lt_timer_set_hour_12?BIT
      00000020H.1 BIT      BIT       ?mpu_enable?BIT
      00000020H.1 BIT      BIT       ?power_5v_enable?BIT
      00000020H.0 BIT      BIT       ?rtc_alarm_set_hour_12?BIT
      00000024H.4 BIT      BIT       ?rtc_set_bbsqw?BIT
      00000024H.5 BIT      BIT       ?rtc_set_conv?BIT
      00000020H.0 BIT      BIT       ?rtc_set_en32khz?BIT
      00000024H.3 BIT      BIT       ?rtc_set_eosc?BIT
      00000020H.0 BIT      BIT       ?rtc_set_intcn?BIT
      00000020H.0 BIT      BIT       ?rtc_set_lt_timer?BIT
      00000024H.6 BIT      BIT       ?rtc_set_osf?BIT
      00000020H.1 BIT      BIT       ?rtc_time_set_hour_12?BIT
      00000020H.1 BIT      BIT       ?thermo_enable?BIT
      00000020H.0 BIT      BIT       ?timer_set_led_autorefresh?BIT
      02000014H   XDATA    BYTE      ?timer_set_led_autorefresh?BYTE
      010054E4H   CODE     ---       _alarm0_set_enable
      0100701CH   CODE     ---       _alarm0_test_enable
      01007211H   CODE     ---       _alarm_proc
      010032ECH   CODE     ---       _atoi
      01007B87H   CODE     ---       _clock_get_mon_date
      01008143H   CODE     ---       _clock_is_leap_year
      01008B94H   CODE     ---       _clock_switch_display_mode
      01005545H   CODE     ---       _clock_sync_from_rtc
      01005145H   CODE     ---       _clock_sync_to_rtc
      01002956H   CODE     ---       _clock_yymmdd_to_day
      01002F50H   CODE     ---       _cmd_beeper
      010063D6H   CODE     ---       _cmd_dbg
      01005DC9H   CODE     ---       _cmd_help
      01006DA4H   CODE     ---       _cmd_i2c
      01006AB4H   CODE     ---       _cmd_int
      01004D4EH   CODE     ---       _cmd_mpu
      010064EBH   CODE     ---       _cmd_reboot
      01003D7BH   CODE     ---       _cmd_serial
      01002732H   CODE     ---       _cmd_sm
      010039F7H   CODE     ---       _cmd_task
      010025E6H   CODE     ---       _cmd_thermo
      01006B95H   CODE     ---       _debug_printf
      010087DCH   CODE     ---       _delay_10us
      010087EAH   CODE     ---       _delay_ms
      0100626AH   CODE     ---       _delay_task_reg
      010053BAH   CODE     ---       _display_logo
      01007EC9H   CODE     ---       _fuse_proc
      010067B3H   CODE     ---       _fuse_set_fuse_broke
      01008662H   CODE     ---       _getkey
      0100303EH   CODE     ---       _gets
      010080E7H   CODE     ---       _I2C_Get
      01004F92H   CODE     ---       _I2C_Gets
      0100839EH   CODE     ---       _I2C_Put
      01005D1FH   CODE     ---       _I2C_Puts
      01007A5CH   CODE     ---       _I2C_Write
      01000F4CH   CODE     ---       _int_hub_dump_ext_status
      010074DBH   CODE     ---       _int_hub_test_bit
      010087A3H   CODE     ---       _isdigit
      0100847AH   CODE     ---       _isspace
      010080FEH   CODE     ---       _led_clr_blink
      0100872BH   CODE     ---       _led_clr_dp
      01008223H   CODE     ---       _led_set_blink
      01006055H   CODE     ---       _led_set_code
      0100873AH   CODE     ---       _led_set_dp
LX51 LINKER/LOCATER V4.66.87.0                                                        05/30/2018  17:25:18  PAGE 56


      01005B15H   CODE     ---       _lt_timer_save_to_rom
      01005FB5H   CODE     ---       _mod_proc
      01006BCCH   CODE     ---       _mod_set_proc
      010085B5H   CODE     ---       _mpu_threshold_inc
      01008822H   CODE     ---       _mpu_threshold_set
      01008C1DH   CODE     ---       _null_proc
      01007EAFH   CODE     ---       _power_proc
      01000B34H   CODE     ---       _PRINTF
      01006FBEH   CODE     ---       _putbuf
      01007F4BH   CODE     ---       _putchar
      01006CD6H   CODE     ---       _rom_read
      01006E6CH   CODE     ---       _rom_write
      01007E95H   CODE     ---       _rtc_alarm_set_date
      010081E1H   CODE     ---       _rtc_alarm_set_day
      010084B4H   CODE     ---       _rtc_alarm_set_hour
      010084C7H   CODE     ---       _rtc_alarm_set_min
      010045CCH   CODE     ---       _rtc_alarm_set_mode
      010081F7H   CODE     ---       _rtc_alarm_set_sec
      010080D0H   CODE     ---       _rtc_clr_alarm_int_flag
      01003F66H   CODE     ---       _rtc_date_set_date
      01008513H   CODE     ---       _rtc_date_set_day
      01008B1AH   CODE     ---       _rtc_date_set_month
      01008B12H   CODE     ---       _rtc_date_set_year
      0100765AH   CODE     ---       _rtc_enable_alarm_int
      010041D7H   CODE     ---       _rtc_get_temperature
      01005A63H   CODE     ---       _rtc_read_data
      010085FCH   CODE     ---       _rtc_set_square_rate
      01007B30H   CODE     ---       _rtc_test_alarm_int
      01007B4DH   CODE     ---       _rtc_test_alarm_int_flag
      01008B58H   CODE     ---       _rtc_time_set_hour
      01008A2DH   CODE     ---       _rtc_time_set_min
      01008B5EH   CODE     ---       _rtc_time_set_sec
      01005B6DH   CODE     ---       _rtc_write_data
      01001D48H   CODE     ---       _run_state_machine
      01004978H   CODE     ---       _scan_fuse
      01004DC6H   CODE     ---       _scan_hg
      01005726H   CODE     ---       _scan_int_hub_proc
      01002A62H   CODE     ---       _scan_key_proc
      01006F2EH   CODE     ---       _serial_set_ctl_bit
      010070A8H   CODE     ---       _serial_test_ctl_bit
      01006005H   CODE     ---       _set_proc
      010062B3H   CODE     ---       _shell_search_cmd_by_name
      01004E3BH   CODE     ---       _sm_clock_alarm
      01008325H   CODE     ---       _sm_clock_counter_init
      01004300H   CODE     ---       _sm_clock_counter_submod0
      0100589CH   CODE     ---       _sm_clock_counter_submod1
      01005785H   CODE     ---       _sm_clock_counter_submod2
      01006678H   CODE     ---       _sm_clock_counter_submod3
      01007808H   CODE     ---       _sm_clock_counter_submod4
      010075E9H   CODE     ---       _sm_clock_counter_submod5
      01007733H   CODE     ---       _sm_clock_display_init
      010062FCH   CODE     ---       _sm_clock_display_submod0
      0100718CH   CODE     ---       _sm_clock_display_submod1
      01007757H   CODE     ---       _sm_clock_display_submod2
      01007412H   CODE     ---       _sm_clock_display_submod3
      01008767H   CODE     ---       _sm_clock_mod_alarm_init
      01005606H   CODE     ---       _sm_clock_mod_alarm_submod0
      010058F8H   CODE     ---       _sm_clock_mod_alarm_submod1
      01005C1BH   CODE     ---       _sm_clock_mod_alarm_submod2
      01007295H   CODE     ---       _sm_clock_mod_alarm_submod3
      010072C0H   CODE     ---       _sm_clock_mod_alarm_submod4
      01007F17H   CODE     ---       _sm_clock_mod_time_init
      01007269H   CODE     ---       _sm_clock_mod_time_submod0
      01007F96H   CODE     ---       _sm_clock_mod_time_submod1
      01007BFAH   CODE     ---       _sm_clock_mod_time_submod2
LX51 LINKER/LOCATER V4.66.87.0                                                        05/30/2018  17:25:18  PAGE 57


      01007C16H   CODE     ---       _sm_clock_mod_time_submod3
      01007C32H   CODE     ---       _sm_clock_mod_time_submod4
      01007C4EH   CODE     ---       _sm_clock_mod_time_submod5
      01006E09H   CODE     ---       _sm_clock_powersave
      01007EFDH   CODE     ---       _sm_clock_timer_init
      0100638EH   CODE     ---       _sm_clock_timer_submod0
      01004EB0H   CODE     ---       _sm_clock_timer_submod1
      01005840H   CODE     ---       _sm_clock_timer_submod2
      01008776H   CODE     ---       _sm_fuse_detonate_init
      010056C6H   CODE     ---       _sm_fuse_detonate_submod0
      0100777BH   CODE     ---       _sm_fuse_param_init
      01006345H   CODE     ---       _sm_fuse_param_submod0
      01007D4AH   CODE     ---       _sm_fuse_param_submod1
      01007D66H   CODE     ---       _sm_fuse_param_submod2
      01007D82H   CODE     ---       _sm_fuse_param_submod3
      01007D9EH   CODE     ---       _sm_fuse_param_submod4
      01007DBAH   CODE     ---       _sm_fuse_param_submod5
      01004422H   CODE     ---       _sm_fuse_param_submod6
      01008A23H   CODE     ---       _sm_fuse_powersave_init
      01007A9AH   CODE     ---       _sm_fuse_powersave_submod0
      0100843EH   CODE     ---       _sm_fuse_powersave_submod1
      010068A9H   CODE     ---       _sm_fuse_test_init
      0100232AH   CODE     ---       _sm_fuse_test_submod0
      01007C6AH   CODE     ---       _sm_fuse_test_submod1
      01007C86H   CODE     ---       _sm_fuse_test_submod2
      01007CA2H   CODE     ---       _sm_fuse_test_submod3
      01007CBEH   CODE     ---       _sm_fuse_test_submod4
      01007CDAH   CODE     ---       _sm_fuse_test_submod5
      01007CF6H   CODE     ---       _sm_fuse_test_submod6
      01007D12H   CODE     ---       _sm_fuse_test_submod7
      01007D2EH   CODE     ---       _sm_fuse_test_submod8
      01007BC1H   CODE     ---       _sm_fuse_timer_init
      01002B68H   CODE     ---       _sm_fuse_timer_submod0
      01005C72H   CODE     ---       _sm_fuse_timer_submod1
      01003628H   CODE     ---       _sm_fuse_timer_submod2
      01007550H   CODE     ---       _sm_fuse_timer_submod3
      01007DD6H   CODE     ---       _sm_fuse_timer_submod4
      01008089H   CODE     ---       _sm_global_flag_mod_init
      01007FAFH   CODE     ---       _sm_global_flag_mod_submod0
      01007FC8H   CODE     ---       _sm_global_flag_mod_submod1
      01007DF2H   CODE     ---       _sm_global_flag_mod_submod2
      01007E7AH   CODE     ---       _sm_power_pack_display_init
      01005E1DH   CODE     ---       _sm_power_pack_display_submod0
      01008906H   CODE     ---       _sm_power_pack_powersave_init
      01007BA4H   CODE     ---       _sm_power_pack_powersave_submod0
      010033C7H   CODE     ---       _sm_set_state_by_name
      0100476BH   CODE     ---       _sm_set_sub_state_by_name
      01003B6DH   CODE     ---       _sm_set_table_by_name
      01000B2EH   CODE     ---       _SPRINTF
      010057E4H   CODE     ---       _thermo_hi_threshold_set
      01005285H   CODE     ---       _thermo_lo_threshold_set
      0100827BH   CODE     ---       _thermo_proc
      01006637H   CODE     ---       _thermo_threshold_inc
      0100848EH   CODE     ---       _time_proc
      010083DAH   CODE     ---       _timer_get_hour
      010083EEH   CODE     ---       _timer_get_min
      01007892H   CODE     ---       _timer_get_ms10
      01008402H   CODE     ---       _timer_get_sec
      01007BDEH   CODE     ---       _timer_inc_hour
      01008041H   CODE     ---       _timer_inc_min
      01008059H   CODE     ---       _timer_inc_sec
      01007340H   CODE     ---       _timer_save
      01008BACH   CODE     ---       _timer_set_mode
      01006C6DH   CODE     ---       _VPRINTF
*SFR* 000000D0H.6 DATA     BIT       AC
LX51 LINKER/LOCATER V4.66.87.0                                                        05/30/2018  17:25:18  PAGE 58


*SFR* 000000E0H   DATA     BYTE      ACC
      01008B6AH   CODE     ---       alarm0_get_day_mask
      01008B76H   CODE     ---       alarm0_get_hour
      01008C23H   CODE     ---       alarm0_get_hour_12
      01008B70H   CODE     ---       alarm0_get_min
      010087CEH   CODE     ---       alarm0_inc_hour
      010087C0H   CODE     ---       alarm0_inc_min
      01000026H   CODE     ---       alarm0_set_hour_12
      01005EC3H   CODE     ---       alarm0_sync_to_rtc
      01008BC4H   CODE     ---       alarm1_set_enable
      010066F7H   CODE     ---       alarm1_sync_to_rtc
      01008C26H   CODE     ---       alarm1_test_enable
      01005355H   CODE     ---       alarm_dump
      01008A51H   CODE     ---       alarm_enter_powersave
      01008A48H   CODE     ---       alarm_initialize
      01008A5AH   CODE     ---       alarm_leave_powersave
      0100779FH   CODE     ---       alarm_switch_off
      01008011H   CODE     ---       alarm_switch_on
*SFR* 0000008EH   DATA     BYTE      AUXR
*SFR* 000000A2H   DATA     BYTE      AUXR1
*SFR* 000000F0H   DATA     BYTE      B
      01007316H   CODE     ---       beeper_beep
      01006572H   CODE     ---       beeper_beep_beep
      01006736H   CODE     ---       beeper_beep_beep_always
      01008A6CH   CODE     ---       beeper_enter_powersave
      01008C35H   CODE     ---       beeper_get_beep_enable
      01008B8EH   CODE     ---       beeper_get_music_index
      01008B88H   CODE     ---       beeper_get_music_to
      0100812CH   CODE     ---       beeper_inc_music_index
      010083C6H   CODE     ---       beeper_inc_music_to
      0100652FH   CODE     ---       beeper_initialize
      01008A75H   CODE     ---       beeper_leave_powersave
*SFR* 00000090H.0 DATA     BIT       beeper_out
      01007870H   CODE     ---       beeper_play_music
      01008BC9H   CODE     ---       beeper_set_beep_enable
      01008C38H   CODE     ---       beeper_stop_music
*SFR* 000000C8H.1 DATA     BIT       C_T2
      01008BE7H   CODE     ---       clock_clr_sec
      01008BCEH   CODE     ---       clock_display
      0100426DH   CODE     ---       clock_dump
      01008A7EH   CODE     ---       clock_enable_interrupt
      01008806H   CODE     ---       clock_enter_powersave
      01008C3EH   CODE     ---       clock_enter_shell
      01008B9AH   CODE     ---       clock_get_date
      01008BA0H   CODE     ---       clock_get_day
      01008BF1H   CODE     ---       clock_get_hour
      01008C3BH   CODE     ---       clock_get_hour_12
      01008BECH   CODE     ---       clock_get_min
      01008BA6H   CODE     ---       clock_get_month
      01008BD8H   CODE     ---       clock_get_ms39
      01008BE2H   CODE     ---       clock_get_sec
      01008BDDH   CODE     ---       clock_get_sec_256
      01008BF6H   CODE     ---       clock_get_year
      0100799CH   CODE     ---       clock_inc_date
      01008933H   CODE     ---       clock_inc_hour
      01008928H   CODE     ---       clock_inc_min
      01008239H   CODE     ---       clock_inc_month
      010082E6H   CODE     ---       clock_inc_year
      0100715FH   CODE     ---       clock_initialize
      01008029H   CODE     ---       clock_leave_powersave
      0100824FH   CODE     ---       clock_leave_shell
      01008BD3H   CODE     ---       clock_set_hour_12
      01009CBBH   CONST    ---       cmds
      010087B2H   CODE     ---       com_enter_powersave
      0100743BH   CODE     ---       com_initialize
LX51 LINKER/LOCATER V4.66.87.0                                                        05/30/2018  17:25:18  PAGE 59


      01000016H   CODE     ---       com_leave_powersave
      0100833AH   CODE     ---       com_try_get_key
      020000D8H   XDATA    BYTE      common_state
*SFR* 000000C8H.0 DATA     BIT       CP_RL2
*SFR* 000000D0H.7 DATA     BIT       CY
      01008C47H   CODE     ---       debug_initialize
      01008C14H   CODE     ---       debug_onoff
      01005F14H   CODE     ---       delay_task_call
      01008AC6H   CODE     ---       delay_task_initialize
*SFR* 00000083H   DATA     BYTE      DPH
*SFR* 00000082H   DATA     BYTE      DPL
*SFR* 000000A8H.7 DATA     BIT       EA
*SFR* 000000A8H.6 DATA     BIT       EC
*SFR* 000000A8H.4 DATA     BIT       ES
*SFR* 000000A8H.1 DATA     BIT       ET0
*SFR* 000000A8H.3 DATA     BIT       ET1
*SFR* 000000A8H.5 DATA     BIT       ET2
      0000004EH   IDATA    WORD      ev_bits0
      00000050H   IDATA    WORD      ev_bits1
*SFR* 000000A8H.0 DATA     BIT       EX0
*SFR* 000000A8H.2 DATA     BIT       EX1
*SFR* 000000C8H.3 DATA     BIT       EXEN2
*SFR* 000000C8H.6 DATA     BIT       EXF2
*SFR* 00000090H.4 DATA     BIT       EXT_INT
*SFR* 000000D0H.5 DATA     BIT       F0
*SFR* 00000098H.7 DATA     BIT       FE
      0100748BH   CODE     ---       fuse_enable
      01008A90H   CODE     ---       fuse_enter_powersave
      010088A6H   CODE     ---       fuse_initialize
      01008A99H   CODE     ---       fuse_leave_powersave
      010075C3H   CODE     ---       fuse_set_tripwire_broke
      01006C02H   CODE     ---       fuse_trigger
      01008466H   CODE     ---       GETCHAR
      010074B3H   CODE     ---       hg_enable
      01008AA2H   CODE     ---       hg_enter_powersave
      0100855BH   CODE     ---       hg_get_state
      010088BEH   CODE     ---       hg_initialize
      01008AABH   CODE     ---       hg_leave_powersave
      01008615H   CODE     ---       I2C_Delay
      0100784EH   CODE     ---       I2C_GetAck
      010089E7H   CODE     ---       I2C_Init
      01008525H   CODE     ---       I2C_PutAck
      01006FEDH   CODE     ---       I2C_Read
*SFR* 00000090H.7 DATA     BIT       I2C_SCL
*SFR* 00000090H.6 DATA     BIT       I2C_SDA
      0100891DH   CODE     ---       I2C_Start
      0100820DH   CODE     ---       I2C_Stop
*SFR* 000000A8H   DATA     BYTE      IE
*SFR* 00000088H.1 DATA     BIT       IE0
*SFR* 00000088H.3 DATA     BIT       IE1
*SFR* 000000B0H.2 DATA     BIT       INT0
*SFR* 000000B0H.3 DATA     BIT       INT1
*SFR* 000000B0H.3 DATA     BIT       INT_BIT
      010055A6H   CODE     ---       int_hub_dump
      0100541FH   CODE     ---       int_hub_get_status
      0100506DH   CODE     ---       int_hub_initialize
*SFR* 000000B8H   DATA     BYTE      IP
*SFR* 000000B7H   DATA     BYTE      IPH
*SFR* 000000E3H   DATA     BYTE      ISP_ADDRH
*SFR* 000000E4H   DATA     BYTE      ISP_ADDRL
*SFR* 000000E5H   DATA     BYTE      ISP_CMD
*SFR* 000000E7H   DATA     BYTE      ISP_CONTR
*SFR* 000000E2H   DATA     BYTE      ISP_DATA
*SFR* 000000E6H   DATA     BYTE      ISP_TRIG
*SFR* 00000088H.0 DATA     BIT       IT0
LX51 LINKER/LOCATER V4.66.87.0                                                        05/30/2018  17:25:18  PAGE 60


*SFR* 00000088H.2 DATA     BIT       IT1
      01008A36H   CODE     ---       key_enter_powersave
      01007F64H   CODE     ---       key_initialize
      01008A3FH   CODE     ---       key_leave_powersave
      020000DAH   XDATA    BYTE      last_display_s
      00000036H   IDATA    BYTE      led_blink
      0100862FH   CODE     ---       led_clear
      0100D07FH   CONST    ---       led_code
      00000038H   IDATA    ---       led_data
      01008640H   CODE     ---       led_enter_powersave
      01006920H   CODE     ---       led_initialize
      010082BCH   CODE     ---       led_leave_powersave
      00000025H.0 BIT      BIT       led_powersave
      0100759DH   CODE     ---       led_restore
      01007577H   CODE     ---       led_save
      00000022H.7 BIT      BIT       lpress_lock_day_sec
      00000022H.5 BIT      BIT       lpress_lock_month_min
      00000022H.6 BIT      BIT       lpress_lock_year_hour
      020000D9H   XDATA    BYTE      lpress_start
      010040A1H   CODE     ---       lt_timer_dec_sec
      01007EE3H   CODE     ---       lt_timer_display
      010082FBH   CODE     ---       lt_timer_enter_powersave
      01008BB8H   CODE     ---       lt_timer_get_date
      01008C05H   CODE     ---       lt_timer_get_hour
      01008C44H   CODE     ---       lt_timer_get_hour_12
      01008C0AH   CODE     ---       lt_timer_get_min
      01008BB2H   CODE     ---       lt_timer_get_month
      010047F2H   CODE     ---       lt_timer_get_relative
      01008C0FH   CODE     ---       lt_timer_get_sec
      01008C00H   CODE     ---       lt_timer_get_year
      010084EDH   CODE     ---       lt_timer_inc_date
      0100895FH   CODE     ---       lt_timer_inc_hour
      0100896AH   CODE     ---       lt_timer_inc_min
      01008954H   CODE     ---       lt_timer_inc_month
      01008975H   CODE     ---       lt_timer_inc_sec
      01008949H   CODE     ---       lt_timer_inc_year
      01008416H   CODE     ---       lt_timer_initialize
      010076C7H   CODE     ---       lt_timer_leave_powersave
      010065F6H   CODE     ---       lt_timer_load_from_rom
      01008749H   CODE     ---       lt_timer_reset
      01008BFBH   CODE     ---       lt_timer_set_hour_12
      01008814H   CODE     ---       lt_timer_start_ram
      01007AB9H   CODE     ---       lt_timer_start_rtc
      010088CAH   CODE     ---       lt_timer_stop_ram
      01007AD7H   CODE     ---       lt_timer_stop_rtc
      0100815AH   CODE     ---       lt_timer_switch_display
      010077C2H   CODE     ---       lt_timer_switch_off
      01008310H   CODE     ---       lt_timer_switch_on
      010065B4H   CODE     ---       lt_timer_sync_to_rtc
      010060F3H   CODE     ---       main
*SFR* 000000A0H.6 DATA     BIT       MOD_KEY
      01007A7BH   CODE     ---       mpu_enable
      01008ACFH   CODE     ---       mpu_enter_powersave
      01008758H   CODE     ---       mpu_initialize
*SFR* 00000090H.2 DATA     BIT       MPU_INT
      01008AD8H   CODE     ---       mpu_leave_powersave
      0100770FH   CODE     ---       mpu_read_int_status
      01008BBEH   CODE     ---       mpu_threshold_get
      01008B42H   CODE     ---       mpu_threshold_reset
*SFR* 000000D0H.2 DATA     BIT       OV
*SFR* 000000D0H.0 DATA     BIT       P
*SFR* 00000080H   DATA     BYTE      P0
*SFR* 00000080H.0 DATA     BIT       P00
*SFR* 00000080H.1 DATA     BIT       P01
*SFR* 00000080H.2 DATA     BIT       P02
LX51 LINKER/LOCATER V4.66.87.0                                                        05/30/2018  17:25:18  PAGE 61


*SFR* 00000080H.3 DATA     BIT       P03
*SFR* 00000080H.4 DATA     BIT       P04
*SFR* 00000080H.5 DATA     BIT       P05
*SFR* 00000080H.6 DATA     BIT       P06
*SFR* 00000080H.7 DATA     BIT       P07
*SFR* 00000090H   DATA     BYTE      P1
*SFR* 00000090H.0 DATA     BIT       P10
*SFR* 00000090H.1 DATA     BIT       P11
*SFR* 00000090H.2 DATA     BIT       P12
*SFR* 00000090H.3 DATA     BIT       P13
*SFR* 00000090H.4 DATA     BIT       P14
*SFR* 00000090H.5 DATA     BIT       P15
*SFR* 00000090H.6 DATA     BIT       P16
*SFR* 00000090H.7 DATA     BIT       P17
*SFR* 000000A0H   DATA     BYTE      P2
*SFR* 000000A0H.0 DATA     BIT       P20
*SFR* 000000A0H.1 DATA     BIT       P21
*SFR* 000000A0H.2 DATA     BIT       P22
*SFR* 000000A0H.3 DATA     BIT       P23
*SFR* 000000A0H.4 DATA     BIT       P24
*SFR* 000000A0H.5 DATA     BIT       P25
*SFR* 000000A0H.6 DATA     BIT       P26
*SFR* 000000A0H.7 DATA     BIT       P27
*SFR* 000000B0H   DATA     BYTE      P3
*SFR* 000000B0H.0 DATA     BIT       P30
*SFR* 000000B0H.1 DATA     BIT       P31
*SFR* 000000B0H.2 DATA     BIT       P32
*SFR* 000000B0H.3 DATA     BIT       P33
*SFR* 000000B0H.4 DATA     BIT       P34
*SFR* 000000B0H.5 DATA     BIT       P35
*SFR* 000000B0H.6 DATA     BIT       P36
*SFR* 000000B0H.7 DATA     BIT       P37
*SFR* 000000E8H   DATA     BYTE      P4
*SFR* 000000E8H.0 DATA     BIT       P40
*SFR* 000000E8H.1 DATA     BIT       P41
*SFR* 000000E8H.2 DATA     BIT       P42
*SFR* 000000E8H.3 DATA     BIT       P43
*SFR* 000000E8H.4 DATA     BIT       P44
*SFR* 000000E8H.5 DATA     BIT       P45
*SFR* 000000E8H.6 DATA     BIT       P46
*SFR* 00000087H   DATA     BYTE      PCON
*SFR* 000000B0H.6 DATA     BIT       POWER_5V_EN
      01007E0EH   CODE     ---       power_5v_enable
      01008C19H   CODE     ---       power_5v_get_enable
      01008C2FH   CODE     ---       power_clr_flag
      0100613FH   CODE     ---       power_enter_powersave
      01008115H   CODE     ---       power_get_powersave_to
      01008B7CH   CODE     ---       power_get_powersave_to_s
      01008C32H   CODE     ---       power_get_volume
      010076A3H   CODE     ---       power_inc_powersave_to
      01006D71H   CODE     ---       power_initialize
      01006ECEH   CODE     ---       power_leave_powersave
      01008A63H   CODE     ---       power_reset_powersave_to
      01008C2CH   CODE     ---       power_set_flag
      01008C29H   CODE     ---       power_test_flag
      01006EFEH   CODE     ---       power_test_powersave_to
      00000025H.1 BIT      BIT       powersave_flag
*SFR* 000000A0H   DATA     BYTE      PPAGE_SFR
*SFR* 000000B8H.4 DATA     BIT       PS
*SFR* 000000D0H   DATA     BYTE      PSW
*SFR* 000000B8H.1 DATA     BIT       PT0
*SFR* 000000B8H.3 DATA     BIT       PT1
*SFR* 000000B8H.5 DATA     BIT       PT2
*SFR* 000000B8H.0 DATA     BIT       PX0
*SFR* 000000B8H.2 DATA     BIT       PX1
LX51 LINKER/LOCATER V4.66.87.0                                                        05/30/2018  17:25:18  PAGE 62


*SFR* 00000098H.2 DATA     BIT       RB8
*SFR* 000000CBH   DATA     BYTE      RCAP2H
*SFR* 000000CAH   DATA     BYTE      RCAP2L
*SFR* 000000C8H.5 DATA     BIT       RCLK
*SFR* 000000B0H.7 DATA     BIT       RD
      010059B0H   CODE     ---       refresh_led
*SFR* 00000098H.4 DATA     BIT       REN
*SFR* 00000098H.0 DATA     BIT       RI
      010067F1H   CODE     ---       rom_initialize
      01008B3AH   CODE     ---       rom_is_factory_reset
*SFR* 000000B0H.7 DATA     BIT       ROM_RESET
*SFR* 000000D0H.3 DATA     BIT       RS0
*SFR* 000000D0H.4 DATA     BIT       RS1
      010082A7H   CODE     ---       rtc_alarm_get_date
      0100834EH   CODE     ---       rtc_alarm_get_day
      0100819FH   CODE     ---       rtc_alarm_get_hour
      010081B5H   CODE     ---       rtc_alarm_get_hour_12
      010081CBH   CODE     ---       rtc_alarm_get_min
      01008376H   CODE     ---       rtc_alarm_get_mod_str
      01003495H   CODE     ---       rtc_alarm_get_mode
      01008362H   CODE     ---       rtc_alarm_get_sec
      01007B13H   CODE     ---       rtc_alarm_set_hour_12
      01008B22H   CODE     ---       rtc_date_get_date
      01008B64H   CODE     ---       rtc_date_get_day
      0100888EH   CODE     ---       rtc_date_get_month
      01008882H   CODE     ---       rtc_date_get_year
      010011B2H   CODE     ---       rtc_dump
      01007FE1H   CODE     ---       rtc_enter_powersave
      01008868H   CODE     ---       rtc_get_square_rate
      0100838AH   CODE     ---       rtc_get_square_rate_str
      01002E5FH   CODE     ---       rtc_initialize
*SFR* 00000090H.1 DATA     BIT       RTC_INT
      01008C20H   CODE     ---       rtc_is_lt_timer
      01007FF9H   CODE     ---       rtc_leave_powersave
      010086D1H   CODE     ---       rtc_set_bbsqw
      010086E0H   CODE     ---       rtc_set_conv
      0100870DH   CODE     ---       rtc_set_en32khz
      010086C2H   CODE     ---       rtc_set_eosc
      010086EFH   CODE     ---       rtc_set_intcn
      01000006H   CODE     ---       rtc_set_lt_timer
      010086FEH   CODE     ---       rtc_set_osf
      010089ABH   CODE     ---       rtc_test_bbsqw
      010089DDH   CODE     ---       rtc_test_bsy
      010089B5H   CODE     ---       rtc_test_conv
      010089D3H   CODE     ---       rtc_test_en32khz
      010089A1H   CODE     ---       rtc_test_eosc
      010089BFH   CODE     ---       rtc_test_intcn
      010089C9H   CODE     ---       rtc_test_osf
      01008AF2H   CODE     ---       rtc_time_get_hour
      01008AFAH   CODE     ---       rtc_time_get_hour_12
      01008B02H   CODE     ---       rtc_time_get_min
      01008B0AH   CODE     ---       rtc_time_get_sec
      01008672H   CODE     ---       rtc_time_set_hour_12
      01002493H   CODE     ---       run_shell
      01003CD4H   CODE     ---       run_task
*SFR* 000000B0H.0 DATA     BIT       RXD
*SFR* 000000A9H   DATA     BYTE      SADDR
*SFR* 000000B9H   DATA     BYTE      SADEN
      020000BBH   XDATA    BYTE      saved_led_blink
      020000BDH   XDATA    ---       saved_led_data
*SFR* 00000099H   DATA     BYTE      SBUF
      01004C5EH   CODE     ---       scan_alarm
      010061D7H   CODE     ---       scan_lt_timer
      0100704BH   CODE     ---       scan_mpu
      010084A1H   CODE     ---       scan_rtc
LX51 LINKER/LOCATER V4.66.87.0                                                        05/30/2018  17:25:18  PAGE 63


      010050D9H   CODE     ---       scan_thermo
*SFR* 00000098H   DATA     BYTE      SCON
      00000023H.3 BIT      BIT       sendactive
      00000023H.4 BIT      BIT       sendfull
      01007E5FH   CODE     ---       serial_ctl_out
      010013FCH   CODE     ---       serial_dump
      010069CEH   CODE     ---       serial_hub_initialize
*SFR* 000000A0H.7 DATA     BIT       SET_KEY
      0200007DH   XDATA    ---       shell_buf
      01006C38H   CODE     ---       shell_dump_cmd
*SFR* 00000098H.7 DATA     BIT       SM0
*SFR* 00000098H.6 DATA     BIT       SM1
*SFR* 00000098H.5 DATA     BIT       SM2
      0100D219H   CONST    ---       sm_clock_alarm_ss_name
      0100BCF8H   CONST    ---       sm_clock_counter_ss_name
      0100C679H   CONST    ---       sm_clock_display_ss_name
      0100C09CH   CONST    ---       sm_clock_mod_alarm_ss_name
      0100B91BH   CONST    ---       sm_clock_mod_time_name
      0100D270H   CONST    ---       sm_clock_powersave_ss_name
      0100C89BH   CONST    ---       sm_clock_timer_ss_name
      020000D3H   XDATA    BYTE      sm_curr_table
      01002D6BH   CODE     ---       sm_dump
      01005F65H   CODE     ---       sm_dump_state
      01005A0AH   CODE     ---       sm_dump_sub_state
      01006AEDH   CODE     ---       sm_dump_table
      0100CED0H   CONST    ---       sm_fuse_detonate_ss_name
      0100BB0EH   CONST    ---       sm_fuse_param_ss_name
      0100CC1CH   CONST    ---       sm_fuse_powersave_ss_name
      0100ADD0H   CONST    ---       sm_fuse_test_ss_name
      0100B718H   CONST    ---       sm_fuse_timer_ss_name
      0100C7ABH   CONST    ---       sm_global_flag_mod_ss_name
      01007635H   CODE     ---       sm_initialize
      020000D4H   XDATA    BYTE      sm_new_table
      0100CD4DH   CONST    ---       sm_power_pack_display_ss_name
      0100CCBAH   CONST    ---       sm_power_pack_powersave_ss_name
      010066B8H   CODE     ---       sm_show_current
*SFR* 00000081H   DATA     BYTE      SP
*SFR* 000000B0H.4 DATA     BIT       T0
*SFR* 000000B0H.5 DATA     BIT       T1
*SFR* 00000090H.0 DATA     BIT       T2
*SFR* 000000C8H   DATA     BYTE      T2CON
*SFR* 00000090H.1 DATA     BIT       T2EX
*SFR* 000000C9H   DATA     BYTE      T2MOD
      01004B6AH   CODE     ---       task_dump
      010083B2H   CODE     ---       task_initialize
      0100B47BH   CONST    ---       task_name
*SFR* 00000098H.3 DATA     BIT       TB8
*SFR* 000000C8H.4 DATA     BIT       TCLK
*SFR* 00000088H   DATA     BYTE      TCON
*SFR* 00000088H.5 DATA     BIT       TF0
*SFR* 00000088H.7 DATA     BIT       TF1
*SFR* 000000C8H.7 DATA     BIT       TF2
*SFR* 0000008CH   DATA     BYTE      TH0
*SFR* 0000008DH   DATA     BYTE      TH1
*SFR* 000000CDH   DATA     BYTE      TH2
      01008A05H   CODE     ---       thermo_enable
      01008AB4H   CODE     ---       thermo_enter_powersave
      01006E3BH   CODE     ---       thermo_get_current
      0100856DH   CODE     ---       thermo_hi_threshold_dec
      010078F8H   CODE     ---       thermo_hi_threshold_get
      0100857FH   CODE     ---       thermo_hi_threshold_inc
      01008980H   CODE     ---       thermo_hi_threshold_reach_bottom
      010088E2H   CODE     ---       thermo_hi_threshold_reach_top
      01008B2AH   CODE     ---       thermo_hi_threshold_reset
      010088D6H   CODE     ---       thermo_initialize
LX51 LINKER/LOCATER V4.66.87.0                                                        05/30/2018  17:25:18  PAGE 64


*SFR* 00000090H.3 DATA     BIT       THERMO_INT
      01008ABDH   CODE     ---       thermo_leave_powersave
      01008591H   CODE     ---       thermo_lo_threshold_dec
      010077E5H   CODE     ---       thermo_lo_threshold_get
      010085A3H   CODE     ---       thermo_lo_threshold_inc
      0100898BH   CODE     ---       thermo_lo_threshold_reach_bottom
      010088EEH   CODE     ---       thermo_lo_threshold_reach_top
      01008B32H   CODE     ---       thermo_lo_threshold_reset
*SFR* 00000098H.1 DATA     BIT       TI
      01008071H   CODE     ---       timer_clr
      0100889AH   CODE     ---       timer_enter_powersave
      01002C6EH   CODE     ---       timer_inc_ms39
      01008537H   CODE     ---       timer_initialize
      01008A87H   CODE     ---       timer_leave_powersave
      01008682H   CODE     ---       timer_set_led_autorefresh
      01008265H   CODE     ---       timer_start
      01008C41H   CODE     ---       timer_stop
*SFR* 0000008AH   DATA     BYTE      TL0
*SFR* 0000008BH   DATA     BYTE      TL1
*SFR* 000000CCH   DATA     BYTE      TL2
*SFR* 00000089H   DATA     BYTE      TMOD
*SFR* 00000088H.4 DATA     BIT       TR0
*SFR* 00000088H.6 DATA     BIT       TR1
*SFR* 000000C8H.2 DATA     BIT       TR2
*SFR* 000000B0H.1 DATA     BIT       TXD
*SFR* 000000E1H   DATA     BYTE      WDT_CONTR
*SFR* 000000B0H.6 DATA     BIT       WR
*SFR* 000000C0H   DATA     BYTE      XICON



SYMBOL TABLE OF MODULE:  Clock (SM)

      VALUE       REP       CLASS    TYPE      SYMBOL NAME
      ====================================================
      ---         MODULE    ---      ---       SM
      020000D4H   PUBLIC    XDATA    BYTE      sm_new_table
      020000D3H   PUBLIC    XDATA    BYTE      sm_curr_table
      0100476BH   PUBLIC    CODE     ---       _sm_set_sub_state_by_name
      010033C7H   PUBLIC    CODE     ---       _sm_set_state_by_name
      01003B6DH   PUBLIC    CODE     ---       _sm_set_table_by_name
      01005A0AH   PUBLIC    CODE     ---       sm_dump_sub_state
      01005F65H   PUBLIC    CODE     ---       sm_dump_state
      01006AEDH   PUBLIC    CODE     ---       sm_dump_table
      01002D6BH   PUBLIC    CODE     ---       sm_dump
      010066B8H   PUBLIC    CODE     ---       sm_show_current
      01007635H   PUBLIC    CODE     ---       sm_initialize
      01001D48H   PUBLIC    CODE     ---       _run_state_machine
      01008C1DH   PUBLIC    CODE     ---       _null_proc
      0100848EH   PUBLIC    CODE     ---       _time_proc
      010095E7H   SYMBOL    CONST    ---       sm_group_power_pack
      010095EFH   SYMBOL    CONST    ---       sm_group_fuse
      01009404H   SYMBOL    CONST    ---       sm_trans_fuse_timer
      01008F26H   SYMBOL    CONST    ---       sm_trans_clock_mod_time
      010085EBH   SYMBOL    CODE     ---       _sm_set_state
      01009099H   SYMBOL    CONST    ---       sm_trans_clock_powersave
      0100920CH   SYMBOL    CONST    ---       sm_trans_fuse_test
      01009667H   SYMBOL    CONST    ---       sm_global_flag_names
      01008E7EH   SYMBOL    CONST    ---       sm_trans_clock_display
      0100951CH   SYMBOL    CONST    ---       sm_trans_fuse_detonate
      01008912H   SYMBOL    CODE     ---       _sm_set_sub_state
      0100911EH   SYMBOL    CONST    ---       sm_trans_clock_counter
      010091F7H   SYMBOL    CONST    ---       sm_trans_power_pack_powersave
      01009603H   SYMBOL    CONST    ---       sm_group_global_flag
      0100953FH   SYMBOL    CONST    ---       sm_trans_fuse_powersave
LX51 LINKER/LOCATER V4.66.87.0                                                        05/30/2018  17:25:18  PAGE 65


      01009613H   SYMBOL    CONST    ---       sm_clock_names
      010090BCH   SYMBOL    CONST    ---       sm_trans_clock_alarm
      01009685H   SYMBOL    CONST    ---       sm_names
      01009607H   SYMBOL    CONST    ---       sm_trans_table
      010091C6H   SYMBOL    CONST    ---       sm_trans_power_pack_display
      010095CBH   SYMBOL    CONST    ---       sm_group_clock
      01009593H   SYMBOL    CONST    ---       sm_trans_global_flag_mod
      010090DFH   SYMBOL    CONST    ---       sm_trans_clock_timer
      020000D2H   SYMBOL    XDATA    BYTE      sm_state
      01009673H   SYMBOL    CONST    ---       sm_power_pack_names
      01009643H   SYMBOL    CONST    ---       sm_fuse_names
      0100901BH   SYMBOL    CONST    ---       sm_trans_clock_mod_alarm
      01009324H   SYMBOL    CONST    ---       sm_trans_fuse_param

      0100204EH   BLOCK     CODE     ---       LVL=0
      ---         BLOCKEND  ---      ---       LVL=0

      0100848EH   BLOCK     CODE     ---       LVL=0
      0200000CH   SYMBOL    XDATA    BYTE      ev
      0100848EH   LINE      CODE     ---       #729
      01008493H   LINE      CODE     ---       #730
      01008493H   LINE      CODE     ---       #731
      01008496H   LINE      CODE     ---       #732
      01008499H   LINE      CODE     ---       #734
      ---         BLOCKEND  ---      ---       LVL=0

      01008C1DH   BLOCK     CODE     ---       LVL=0
      00000007H   SYMBOL    DATA     BYTE      ev
      01008C1DH   LINE      CODE     ---       #738
      01008C1DH   LINE      CODE     ---       #739
      01008C1DH   LINE      CODE     ---       #740
      ---         BLOCKEND  ---      ---       LVL=0

      01001D48H   BLOCK     CODE     ---       LVL=0
      0200000DH   SYMBOL    XDATA    BYTE      ev
      01001D4DH   BLOCK     CODE     NEAR LAB  LVL=1
      0200000EH   SYMBOL    XDATA    BYTE      c
      0200000FH   SYMBOL    XDATA    BYTE      newstate
      02000010H   SYMBOL    XDATA    BYTE      index
      ---         BLOCKEND  ---      ---       LVL=1
      01001D48H   LINE      CODE     ---       #743
      01001D4DH   LINE      CODE     ---       #744
      01001D4DH   LINE      CODE     ---       #749
      01001D58H   LINE      CODE     ---       #750
      01001D8FH   LINE      CODE     ---       #751
      01001DD6H   LINE      CODE     ---       #753
      01001DD6H   LINE      CODE     ---       #754
      01001DE7H   LINE      CODE     ---       #755
      01001DF1H   LINE      CODE     ---       #756
      01001E8DH   LINE      CODE     ---       #765
      01001EBFH   LINE      CODE     ---       #766
      01001EC7H   LINE      CODE     ---       #767
      01001ECFH   LINE      CODE     ---       #768
      01001ED0H   LINE      CODE     ---       #769
      01001ED0H   LINE      CODE     ---       #770
      01001ED9H   LINE      CODE     ---       #772
      ---         BLOCKEND  ---      ---       LVL=0

      01007635H   BLOCK     CODE     ---       LVL=0
      01007635H   LINE      CODE     ---       #775
      01007635H   LINE      CODE     ---       #776
      01007635H   LINE      CODE     ---       #777
      0100763EH   LINE      CODE     ---       #778
      01007643H   LINE      CODE     ---       #779
      01007645H   LINE      CODE     ---       #781
LX51 LINKER/LOCATER V4.66.87.0                                                        05/30/2018  17:25:18  PAGE 66


      01007648H   LINE      CODE     ---       #782
      0100764BH   LINE      CODE     ---       #783
      01007650H   LINE      CODE     ---       #785
      01007659H   LINE      CODE     ---       #786
      ---         BLOCKEND  ---      ---       LVL=0

      010066B8H   BLOCK     CODE     ---       LVL=0
      010066B8H   LINE      CODE     ---       #788
      010066B8H   LINE      CODE     ---       #789
      010066B8H   LINE      CODE     ---       #790
      ---         BLOCKEND  ---      ---       LVL=0

      01002D6BH   BLOCK     CODE     ---       LVL=0
      01002D6BH   BLOCK     CODE     NEAR LAB  LVL=1
      0200000AH   SYMBOL    XDATA    CHAR      i
      0200000BH   SYMBOL    XDATA    CHAR      j
      0200000CH   SYMBOL    XDATA    CHAR      k
      ---         BLOCKEND  ---      ---       LVL=1
      01002D6BH   LINE      CODE     ---       #797
      01002D6BH   LINE      CODE     ---       #798
      01002D6BH   LINE      CODE     ---       #801
      01002D7EH   LINE      CODE     ---       #802
      01002D9DH   LINE      CODE     ---       #803
      01002DBDH   LINE      CODE     ---       #804
      01002DF8H   LINE      CODE     ---       #805
      01002E05H   LINE      CODE     ---       #806
      01002E44H   LINE      CODE     ---       #808
      01002E4CH   LINE      CODE     ---       #809
      01002E55H   LINE      CODE     ---       #810
      01002E5EH   LINE      CODE     ---       #811
      ---         BLOCKEND  ---      ---       LVL=0

      01006AEDH   BLOCK     CODE     ---       LVL=0
      01006AEDH   BLOCK     CODE     NEAR LAB  LVL=1
      0200000AH   SYMBOL    XDATA    CHAR      i
      ---         BLOCKEND  ---      ---       LVL=1
      01006AEDH   LINE      CODE     ---       #813
      01006AEDH   LINE      CODE     ---       #814
      01006AEDH   LINE      CODE     ---       #816
      01006AFDH   LINE      CODE     ---       #817
      01006B1CH   LINE      CODE     ---       #818
      01006B24H   LINE      CODE     ---       #819
      ---         BLOCKEND  ---      ---       LVL=0

      01005F65H   BLOCK     CODE     ---       LVL=0
      01005F65H   BLOCK     CODE     NEAR LAB  LVL=1
      0200000AH   SYMBOL    XDATA    CHAR      i
      ---         BLOCKEND  ---      ---       LVL=1
      01005F65H   LINE      CODE     ---       #821
      01005F65H   LINE      CODE     ---       #822
      01005F65H   LINE      CODE     ---       #824
      01005F80H   LINE      CODE     ---       #825
      01005FACH   LINE      CODE     ---       #826
      01005FB4H   LINE      CODE     ---       #827
      ---         BLOCKEND  ---      ---       LVL=0

      01005A0AH   BLOCK     CODE     ---       LVL=0
      01005A0AH   BLOCK     CODE     NEAR LAB  LVL=1
      0200000AH   SYMBOL    XDATA    CHAR      i
      ---         BLOCKEND  ---      ---       LVL=1
      01005A0AH   LINE      CODE     ---       #829
      01005A0AH   LINE      CODE     ---       #830
      01005A0AH   LINE      CODE     ---       #832
      01005A28H   LINE      CODE     ---       #833
      01005A5AH   LINE      CODE     ---       #835
LX51 LINKER/LOCATER V4.66.87.0                                                        05/30/2018  17:25:18  PAGE 67


      01005A62H   LINE      CODE     ---       #836
      ---         BLOCKEND  ---      ---       LVL=0

      01003B6DH   BLOCK     CODE     ---       LVL=0
      0200000AH   SYMBOL    XDATA    ---       table_name
      01003B73H   BLOCK     CODE     NEAR LAB  LVL=1
      0200000DH   SYMBOL    XDATA    CHAR      i
      ---         BLOCKEND  ---      ---       LVL=1
      01003B6DH   LINE      CODE     ---       #839
      01003B73H   LINE      CODE     ---       #840
      01003B73H   LINE      CODE     ---       #842
      01003B8DH   LINE      CODE     ---       #843
      01003BA5H   LINE      CODE     ---       #844
      01003BBFH   LINE      CODE     ---       #845
      01003BE5H   LINE      CODE     ---       #849
      01003C07H   LINE      CODE     ---       #853
      01003C13H   LINE      CODE     ---       #854
      01003C18H   LINE      CODE     ---       #855
      01003C1AH   LINE      CODE     ---       #856
      01003C1AH   LINE      CODE     ---       #857
      01003C23H   LINE      CODE     ---       #858
      01003C24H   LINE      CODE     ---       #859
      ---         BLOCKEND  ---      ---       LVL=0

      010085EBH   BLOCK     CODE     ---       LVL=0
      00000007H   SYMBOL    DATA     BYTE      state
      010085EBH   LINE      CODE     ---       #861
      010085EBH   LINE      CODE     ---       #862
      010085EBH   LINE      CODE     ---       #863
      010085F3H   LINE      CODE     ---       #864
      010085FBH   LINE      CODE     ---       #865
      ---         BLOCKEND  ---      ---       LVL=0

      01008912H   BLOCK     CODE     ---       LVL=0
      00000007H   SYMBOL    DATA     BYTE      sub_state
      01008912H   LINE      CODE     ---       #867
      01008912H   LINE      CODE     ---       #868
      01008912H   LINE      CODE     ---       #869
      01008917H   LINE      CODE     ---       #870
      0100891CH   LINE      CODE     ---       #871
      ---         BLOCKEND  ---      ---       LVL=0

      010033C7H   BLOCK     CODE     ---       LVL=0
      0200000AH   SYMBOL    XDATA    ---       state_name
      010033CDH   BLOCK     CODE     NEAR LAB  LVL=1
      0200000DH   SYMBOL    XDATA    CHAR      i
      ---         BLOCKEND  ---      ---       LVL=1
      010033C7H   LINE      CODE     ---       #873
      010033CDH   LINE      CODE     ---       #874
      010033CDH   LINE      CODE     ---       #876
      010033EFH   LINE      CODE     ---       #877
      01003416H   LINE      CODE     ---       #878
      01003445H   LINE      CODE     ---       #881
      0100347BH   LINE      CODE     ---       #885
      01003483H   LINE      CODE     ---       #886
      01003488H   LINE      CODE     ---       #887
      0100348AH   LINE      CODE     ---       #888
      0100348AH   LINE      CODE     ---       #889
      01003493H   LINE      CODE     ---       #890
      01003494H   LINE      CODE     ---       #891
      ---         BLOCKEND  ---      ---       LVL=0

      0100476BH   BLOCK     CODE     ---       LVL=0
      0200000AH   SYMBOL    XDATA    ---       sub_state_name
      01004771H   BLOCK     CODE     NEAR LAB  LVL=1
LX51 LINKER/LOCATER V4.66.87.0                                                        05/30/2018  17:25:18  PAGE 68


      0200000DH   SYMBOL    XDATA    CHAR      i
      ---         BLOCKEND  ---      ---       LVL=1
      0100476BH   LINE      CODE     ---       #893
      01004771H   LINE      CODE     ---       #894
      01004771H   LINE      CODE     ---       #896
      01004787H   LINE      CODE     ---       #897
      010047ABH   LINE      CODE     ---       #898
      010047DEH   LINE      CODE     ---       #902
      010047E6H   LINE      CODE     ---       #903
      010047E8H   LINE      CODE     ---       #904
      010047E8H   LINE      CODE     ---       #905
      010047F0H   LINE      CODE     ---       #906
      010047F1H   LINE      CODE     ---       #907
      ---         BLOCKEND  ---      ---       LVL=0

      ---         MODULE    ---      ---       MAIN
      010060F3H   PUBLIC    CODE     ---       main
      00000080H   SFRSYM    DATA     BYTE      P0
      00000090H   SFRSYM    DATA     BYTE      P1
      000000A0H   SFRSYM    DATA     BYTE      P2
      000000B0H   SFRSYM    DATA     BYTE      P3
      000000C0H   SFRSYM    DATA     BYTE      XICON
      000000B0H.4 SFRSYM    DATA     BIT       T0
      000000D0H.6 SFRSYM    DATA     BIT       AC
      000000E8H   SFRSYM    DATA     BYTE      P4
      000000B0H.5 SFRSYM    DATA     BIT       T1
      000000E6H   SFRSYM    DATA     BYTE      ISP_TRIG
      00000090H.0 SFRSYM    DATA     BIT       T2
      000000A8H.7 SFRSYM    DATA     BIT       EA
      000000A8H.6 SFRSYM    DATA     BIT       EC
      00000098H.7 SFRSYM    DATA     BIT       FE
      000000A8H   SFRSYM    DATA     BYTE      IE
      000000C8H.6 SFRSYM    DATA     BIT       EXF2
      000000B0H.7 SFRSYM    DATA     BIT       RD
      000000A8H.4 SFRSYM    DATA     BIT       ES
      000000B8H   SFRSYM    DATA     BYTE      IP
      00000098H.0 SFRSYM    DATA     BIT       RI
      000000B0H.2 SFRSYM    DATA     BIT       INT0
      000000D0H.7 SFRSYM    DATA     BIT       CY
      00000098H.1 SFRSYM    DATA     BIT       TI
      000000B0H.3 SFRSYM    DATA     BIT       INT1
      000000CBH   SFRSYM    DATA     BYTE      RCAP2H
      000000E5H   SFRSYM    DATA     BYTE      ISP_CMD
      000000B8H.4 SFRSYM    DATA     BIT       PS
      00000081H   SFRSYM    DATA     BYTE      SP
      00000090H.1 SFRSYM    DATA     BIT       T2EX
      000000D0H.2 SFRSYM    DATA     BIT       OV
      000000CAH   SFRSYM    DATA     BYTE      RCAP2L
      000000C8H.1 SFRSYM    DATA     BIT       C_T2
      000000B0H.6 SFRSYM    DATA     BIT       WR
      000000C8H.5 SFRSYM    DATA     BIT       RCLK
      000000C8H.4 SFRSYM    DATA     BIT       TCLK
      00000080H.0 SFRSYM    DATA     BIT       P00
      00000099H   SFRSYM    DATA     BYTE      SBUF
      00000087H   SFRSYM    DATA     BYTE      PCON
      00000090H.0 SFRSYM    DATA     BIT       P10
      00000080H.1 SFRSYM    DATA     BIT       P01
      000000A0H.0 SFRSYM    DATA     BIT       P20
      00000090H.1 SFRSYM    DATA     BIT       P11
      00000080H.2 SFRSYM    DATA     BIT       P02
      000000E3H   SFRSYM    DATA     BYTE      ISP_ADDRH
      000000B0H.0 SFRSYM    DATA     BIT       P30
      000000A0H.1 SFRSYM    DATA     BIT       P21
      00000090H.2 SFRSYM    DATA     BIT       P12
      00000080H.3 SFRSYM    DATA     BIT       P03
LX51 LINKER/LOCATER V4.66.87.0                                                        05/30/2018  17:25:18  PAGE 69


      00000098H   SFRSYM    DATA     BYTE      SCON
      000000B0H.1 SFRSYM    DATA     BIT       P31
      000000A0H.2 SFRSYM    DATA     BIT       P22
      00000090H.3 SFRSYM    DATA     BIT       P13
      00000080H.4 SFRSYM    DATA     BIT       P04
      000000E8H.0 SFRSYM    DATA     BIT       P40
      00000089H   SFRSYM    DATA     BYTE      TMOD
      00000088H   SFRSYM    DATA     BYTE      TCON
      000000B0H.2 SFRSYM    DATA     BIT       P32
      000000A0H.3 SFRSYM    DATA     BIT       P23
      00000090H.4 SFRSYM    DATA     BIT       P14
      00000080H.5 SFRSYM    DATA     BIT       P05
      000000E8H.1 SFRSYM    DATA     BIT       P41
      000000B0H.3 SFRSYM    DATA     BIT       P33
      000000A0H.4 SFRSYM    DATA     BIT       P24
      00000090H.5 SFRSYM    DATA     BIT       P15
      00000080H.6 SFRSYM    DATA     BIT       P06
      000000E4H   SFRSYM    DATA     BYTE      ISP_ADDRL
      000000E8H.2 SFRSYM    DATA     BIT       P42
      000000B0H.4 SFRSYM    DATA     BIT       P34
      000000A0H.5 SFRSYM    DATA     BIT       P25
      00000090H.6 SFRSYM    DATA     BIT       P16
      00000080H.7 SFRSYM    DATA     BIT       P07
      000000E8H.3 SFRSYM    DATA     BIT       P43
      000000B0H.5 SFRSYM    DATA     BIT       P35
      000000A0H.6 SFRSYM    DATA     BIT       P26
      00000090H.7 SFRSYM    DATA     BIT       P17
      000000E8H.4 SFRSYM    DATA     BIT       P44
      000000B0H.6 SFRSYM    DATA     BIT       P36
      000000A0H.7 SFRSYM    DATA     BIT       P27
      000000E8H.5 SFRSYM    DATA     BIT       P45
      000000B0H.7 SFRSYM    DATA     BIT       P37
      000000E8H.6 SFRSYM    DATA     BIT       P46
      00000088H.1 SFRSYM    DATA     BIT       IE0
      00000088H.3 SFRSYM    DATA     BIT       IE1
      0000008EH   SFRSYM    DATA     BYTE      AUXR
      000000F0H   SFRSYM    DATA     BYTE      B
      000000C8H.0 SFRSYM    DATA     BIT       CP_RL2
      000000E0H   SFRSYM    DATA     BYTE      ACC
      000000A8H.1 SFRSYM    DATA     BIT       ET0
      000000A8H.3 SFRSYM    DATA     BIT       ET1
      00000088H.5 SFRSYM    DATA     BIT       TF0
      000000A8H.5 SFRSYM    DATA     BIT       ET2
      00000088H.7 SFRSYM    DATA     BIT       TF1
      000000C8H.7 SFRSYM    DATA     BIT       TF2
      00000098H.2 SFRSYM    DATA     BIT       RB8
      0000008CH   SFRSYM    DATA     BYTE      TH0
      000000A8H.0 SFRSYM    DATA     BIT       EX0
      00000088H.0 SFRSYM    DATA     BIT       IT0
      0000008DH   SFRSYM    DATA     BYTE      TH1
      00000098H.3 SFRSYM    DATA     BIT       TB8
      000000A8H.2 SFRSYM    DATA     BIT       EX1
      00000088H.2 SFRSYM    DATA     BIT       IT1
      000000CDH   SFRSYM    DATA     BYTE      TH2
      000000D0H.0 SFRSYM    DATA     BIT       P
      00000098H.7 SFRSYM    DATA     BIT       SM0
      0000008AH   SFRSYM    DATA     BYTE      TL0
      00000098H.6 SFRSYM    DATA     BIT       SM1
      0000008BH   SFRSYM    DATA     BYTE      TL1
      00000098H.5 SFRSYM    DATA     BIT       SM2
      000000CCH   SFRSYM    DATA     BYTE      TL2
      000000B8H.1 SFRSYM    DATA     BIT       PT0
      000000B8H.3 SFRSYM    DATA     BIT       PT1
      000000D0H.3 SFRSYM    DATA     BIT       RS0
      000000E7H   SFRSYM    DATA     BYTE      ISP_CONTR
LX51 LINKER/LOCATER V4.66.87.0                                                        05/30/2018  17:25:18  PAGE 70


      000000B8H.5 SFRSYM    DATA     BIT       PT2
      00000088H.4 SFRSYM    DATA     BIT       TR0
      000000D0H.4 SFRSYM    DATA     BIT       RS1
      00000088H.6 SFRSYM    DATA     BIT       TR1
      000000C8H.2 SFRSYM    DATA     BIT       TR2
      000000B8H.0 SFRSYM    DATA     BIT       PX0
      000000E1H   SFRSYM    DATA     BYTE      WDT_CONTR
      000000B8H.2 SFRSYM    DATA     BIT       PX1
      00000083H   SFRSYM    DATA     BYTE      DPH
      00000082H   SFRSYM    DATA     BYTE      DPL
      000000B7H   SFRSYM    DATA     BYTE      IPH
      000000C8H.3 SFRSYM    DATA     BIT       EXEN2
      00000098H.4 SFRSYM    DATA     BIT       REN
      000000C9H   SFRSYM    DATA     BYTE      T2MOD
      000000C8H   SFRSYM    DATA     BYTE      T2CON
      000000E2H   SFRSYM    DATA     BYTE      ISP_DATA
      000000B9H   SFRSYM    DATA     BYTE      SADEN
      000000B0H.0 SFRSYM    DATA     BIT       RXD
      000000A9H   SFRSYM    DATA     BYTE      SADDR
      000000B0H.1 SFRSYM    DATA     BIT       TXD
      000000A2H   SFRSYM    DATA     BYTE      AUXR1
      000000D0H.5 SFRSYM    DATA     BIT       F0
      000000D0H   SFRSYM    DATA     BYTE      PSW
      0100707AH   SYMBOL    CODE     ---       show_version

      0100707AH   BLOCK     CODE     ---       LVL=0
      0100707AH   LINE      CODE     ---       #32
      0100707AH   LINE      CODE     ---       #33
      0100707AH   LINE      CODE     ---       #35
      01007083H   LINE      CODE     ---       #36
      01007096H   LINE      CODE     ---       #37
      0100709FH   LINE      CODE     ---       #38
      ---         BLOCKEND  ---      ---       LVL=0

      010060F3H   BLOCK     CODE     ---       LVL=0
      010060F3H   LINE      CODE     ---       #42
      010060F3H   LINE      CODE     ---       #43
      010060F3H   LINE      CODE     ---       #44
      010060F5H   LINE      CODE     ---       #45
      010060F8H   LINE      CODE     ---       #46
      010060FBH   LINE      CODE     ---       #47
      010060FEH   LINE      CODE     ---       #48
      01006101H   LINE      CODE     ---       #49
      01006104H   LINE      CODE     ---       #50
      01006107H   LINE      CODE     ---       #51
      0100610AH   LINE      CODE     ---       #52
      0100610DH   LINE      CODE     ---       #53
      01006110H   LINE      CODE     ---       #54
      01006113H   LINE      CODE     ---       #55
      01006116H   LINE      CODE     ---       #56
      01006119H   LINE      CODE     ---       #57
      0100611CH   LINE      CODE     ---       #58
      0100611FH   LINE      CODE     ---       #59
      01006122H   LINE      CODE     ---       #60
      01006125H   LINE      CODE     ---       #61
      01006128H   LINE      CODE     ---       #62
      0100612BH   LINE      CODE     ---       #63
      0100612EH   LINE      CODE     ---       #64
      01006131H   LINE      CODE     ---       #65
      01006134H   LINE      CODE     ---       #66
      01006137H   LINE      CODE     ---       #67
      01006137H   LINE      CODE     ---       #68
      0100613AH   LINE      CODE     ---       #69
      0100613DH   LINE      CODE     ---       #70
      ---         BLOCKEND  ---      ---       LVL=0
LX51 LINKER/LOCATER V4.66.87.0                                                        05/30/2018  17:25:18  PAGE 71



      ---         MODULE    ---      ---       ?C_STARTUP
      01000000H   PUBLIC    CODE     NEAR LAB  ?C_STARTUP
      000000E0H   SFRSYM    DATA     BYTE      ACC
      000000F0H   SFRSYM    DATA     BYTE      B
      00000083H   SFRSYM    DATA     BYTE      DPH
      00000082H   SFRSYM    DATA     BYTE      DPL
      000000A0H   SFRSYM    DATA     BYTE      PPAGE_SFR
      00000081H   SFRSYM    DATA     BYTE      SP
      00000000H   SYMBOL    NUMBER   ---       IBPSTACK
      00000100H   SYMBOL    NUMBER   ---       IBPSTACKTOP
      00000080H   SYMBOL    NUMBER   ---       IDATALEN
      0100797FH   SYMBOL    CODE     NEAR LAB  IDATALOOP
      00000000H   SYMBOL    NUMBER   ---       PBPSTACK
      00000100H   SYMBOL    NUMBER   ---       PBPSTACKTOP
      00000000H   SYMBOL    NUMBER   ---       PDATALEN
      00000000H   SYMBOL    NUMBER   ---       PDATASTART
      00000000H   SYMBOL    NUMBER   ---       PPAGE
      00000000H   SYMBOL    NUMBER   ---       PPAGEENABLE
      0100797CH   SYMBOL    CODE     NEAR LAB  STARTUP1
      00000001H   SYMBOL    NUMBER   ---       XBPSTACK
      00010000H   SYMBOL    NUMBER   ---       XBPSTACKTOP
      00000400H   SYMBOL    NUMBER   ---       XDATALEN
      0100798AH   SYMBOL    CODE     NEAR LAB  XDATALOOP
      00000000H   SYMBOL    NUMBER   ---       XDATASTART

      01000000H   BLOCK     CODE     NEAR LAB  LVL=0
      01000000H   LINE      CODE     ---       #126
      ---         BLOCKEND  ---      ---       LVL=0

      0100797CH   BLOCK     CODE     NEAR LAB  LVL=0
      0100797CH   LINE      CODE     ---       #133
      0100797EH   LINE      CODE     ---       #134
      0100797FH   LINE      CODE     ---       #135
      01007980H   LINE      CODE     ---       #136
      01007982H   LINE      CODE     ---       #140
      01007985H   LINE      CODE     ---       #141
      01007987H   LINE      CODE     ---       #145
      01007989H   LINE      CODE     ---       #147
      0100798AH   LINE      CODE     ---       #148
      0100798BH   LINE      CODE     ---       #149
      0100798CH   LINE      CODE     ---       #150
      0100798EH   LINE      CODE     ---       #151
      01007990H   LINE      CODE     ---       #176
      01007993H   LINE      CODE     ---       #177
      01007996H   LINE      CODE     ---       #185
      01007999H   LINE      CODE     ---       #196
      ---         BLOCKEND  ---      ---       LVL=0

      ---         MODULE    ---      ---       COM
      00000023H.4 PUBLIC    BIT      BIT       sendfull
      00000023H.3 PUBLIC    BIT      BIT       sendactive
      01000016H   PUBLIC    CODE     ---       com_leave_powersave
      010087B2H   PUBLIC    CODE     ---       com_enter_powersave
      0100833AH   PUBLIC    CODE     ---       com_try_get_key
      01008662H   PUBLIC    CODE     ---       _getkey
      01007F4BH   PUBLIC    CODE     ---       _putchar
      01006FBEH   PUBLIC    CODE     ---       _putbuf
      0100743BH   PUBLIC    CODE     ---       com_initialize
      00000080H   SFRSYM    DATA     BYTE      P0
      00000090H   SFRSYM    DATA     BYTE      P1
      000000A0H   SFRSYM    DATA     BYTE      P2
      000000B0H   SFRSYM    DATA     BYTE      P3
      000000C0H   SFRSYM    DATA     BYTE      XICON
      000000B0H.4 SFRSYM    DATA     BIT       T0
LX51 LINKER/LOCATER V4.66.87.0                                                        05/30/2018  17:25:18  PAGE 72


      000000D0H.6 SFRSYM    DATA     BIT       AC
      000000E8H   SFRSYM    DATA     BYTE      P4
      000000B0H.5 SFRSYM    DATA     BIT       T1
      000000E6H   SFRSYM    DATA     BYTE      ISP_TRIG
      00000090H.0 SFRSYM    DATA     BIT       T2
      000000A8H.7 SFRSYM    DATA     BIT       EA
      000000A8H.6 SFRSYM    DATA     BIT       EC
      00000098H.7 SFRSYM    DATA     BIT       FE
      000000A8H   SFRSYM    DATA     BYTE      IE
      000000C8H.6 SFRSYM    DATA     BIT       EXF2
      000000B0H.7 SFRSYM    DATA     BIT       RD
      000000A8H.4 SFRSYM    DATA     BIT       ES
      000000B8H   SFRSYM    DATA     BYTE      IP
      00000098H.0 SFRSYM    DATA     BIT       RI
      000000B0H.2 SFRSYM    DATA     BIT       INT0
      000000D0H.7 SFRSYM    DATA     BIT       CY
      00000098H.1 SFRSYM    DATA     BIT       TI
      000000B0H.3 SFRSYM    DATA     BIT       INT1
      000000CBH   SFRSYM    DATA     BYTE      RCAP2H
      000000E5H   SFRSYM    DATA     BYTE      ISP_CMD
      000000B8H.4 SFRSYM    DATA     BIT       PS
      00000081H   SFRSYM    DATA     BYTE      SP
      00000090H.1 SFRSYM    DATA     BIT       T2EX
      000000D0H.2 SFRSYM    DATA     BIT       OV
      000000CAH   SFRSYM    DATA     BYTE      RCAP2L
      000000C8H.1 SFRSYM    DATA     BIT       C_T2
      000000B0H.6 SFRSYM    DATA     BIT       WR
      000000C8H.5 SFRSYM    DATA     BIT       RCLK
      000000C8H.4 SFRSYM    DATA     BIT       TCLK
      00000080H.0 SFRSYM    DATA     BIT       P00
      00000099H   SFRSYM    DATA     BYTE      SBUF
      00000087H   SFRSYM    DATA     BYTE      PCON
      00000090H.0 SFRSYM    DATA     BIT       P10
      00000080H.1 SFRSYM    DATA     BIT       P01
      000000A0H.0 SFRSYM    DATA     BIT       P20
      00000090H.1 SFRSYM    DATA     BIT       P11
      00000080H.2 SFRSYM    DATA     BIT       P02
      000000E3H   SFRSYM    DATA     BYTE      ISP_ADDRH
      000000B0H.0 SFRSYM    DATA     BIT       P30
      000000A0H.1 SFRSYM    DATA     BIT       P21
      00000090H.2 SFRSYM    DATA     BIT       P12
      00000080H.3 SFRSYM    DATA     BIT       P03
      00000098H   SFRSYM    DATA     BYTE      SCON
      000000B0H.1 SFRSYM    DATA     BIT       P31
      000000A0H.2 SFRSYM    DATA     BIT       P22
      00000090H.3 SFRSYM    DATA     BIT       P13
      00000080H.4 SFRSYM    DATA     BIT       P04
      000000E8H.0 SFRSYM    DATA     BIT       P40
      00000089H   SFRSYM    DATA     BYTE      TMOD
      00000088H   SFRSYM    DATA     BYTE      TCON
      000000B0H.2 SFRSYM    DATA     BIT       P32
      000000A0H.3 SFRSYM    DATA     BIT       P23
      00000090H.4 SFRSYM    DATA     BIT       P14
      00000080H.5 SFRSYM    DATA     BIT       P05
      000000E8H.1 SFRSYM    DATA     BIT       P41
      000000B0H.3 SFRSYM    DATA     BIT       P33
      000000A0H.4 SFRSYM    DATA     BIT       P24
      00000090H.5 SFRSYM    DATA     BIT       P15
      00000080H.6 SFRSYM    DATA     BIT       P06
      000000E4H   SFRSYM    DATA     BYTE      ISP_ADDRL
      000000E8H.2 SFRSYM    DATA     BIT       P42
      000000B0H.4 SFRSYM    DATA     BIT       P34
      000000A0H.5 SFRSYM    DATA     BIT       P25
      00000090H.6 SFRSYM    DATA     BIT       P16
      00000080H.7 SFRSYM    DATA     BIT       P07
LX51 LINKER/LOCATER V4.66.87.0                                                        05/30/2018  17:25:18  PAGE 73


      000000E8H.3 SFRSYM    DATA     BIT       P43
      000000B0H.5 SFRSYM    DATA     BIT       P35
      000000A0H.6 SFRSYM    DATA     BIT       P26
      00000090H.7 SFRSYM    DATA     BIT       P17
      000000E8H.4 SFRSYM    DATA     BIT       P44
      000000B0H.6 SFRSYM    DATA     BIT       P36
      000000A0H.7 SFRSYM    DATA     BIT       P27
      000000E8H.5 SFRSYM    DATA     BIT       P45
      000000B0H.7 SFRSYM    DATA     BIT       P37
      000000E8H.6 SFRSYM    DATA     BIT       P46
      00000088H.1 SFRSYM    DATA     BIT       IE0
      00000088H.3 SFRSYM    DATA     BIT       IE1
      0000008EH   SFRSYM    DATA     BYTE      AUXR
      000000F0H   SFRSYM    DATA     BYTE      B
      000000C8H.0 SFRSYM    DATA     BIT       CP_RL2
      000000E0H   SFRSYM    DATA     BYTE      ACC
      000000A8H.1 SFRSYM    DATA     BIT       ET0
      000000A8H.3 SFRSYM    DATA     BIT       ET1
      00000088H.5 SFRSYM    DATA     BIT       TF0
      000000A8H.5 SFRSYM    DATA     BIT       ET2
      00000088H.7 SFRSYM    DATA     BIT       TF1
      000000C8H.7 SFRSYM    DATA     BIT       TF2
      00000098H.2 SFRSYM    DATA     BIT       RB8
      0000008CH   SFRSYM    DATA     BYTE      TH0
      000000A8H.0 SFRSYM    DATA     BIT       EX0
      00000088H.0 SFRSYM    DATA     BIT       IT0
      0000008DH   SFRSYM    DATA     BYTE      TH1
      00000098H.3 SFRSYM    DATA     BIT       TB8
      000000A8H.2 SFRSYM    DATA     BIT       EX1
      00000088H.2 SFRSYM    DATA     BIT       IT1
      000000CDH   SFRSYM    DATA     BYTE      TH2
      000000D0H.0 SFRSYM    DATA     BIT       P
      00000098H.7 SFRSYM    DATA     BIT       SM0
      0000008AH   SFRSYM    DATA     BYTE      TL0
      00000098H.6 SFRSYM    DATA     BIT       SM1
      0000008BH   SFRSYM    DATA     BYTE      TL1
      00000098H.5 SFRSYM    DATA     BIT       SM2
      000000CCH   SFRSYM    DATA     BYTE      TL2
      000000B8H.1 SFRSYM    DATA     BIT       PT0
      000000B8H.3 SFRSYM    DATA     BIT       PT1
      000000D0H.3 SFRSYM    DATA     BIT       RS0
      000000E7H   SFRSYM    DATA     BYTE      ISP_CONTR
      000000B8H.5 SFRSYM    DATA     BIT       PT2
      00000088H.4 SFRSYM    DATA     BIT       TR0
      000000D0H.4 SFRSYM    DATA     BIT       RS1
      00000088H.6 SFRSYM    DATA     BIT       TR1
      000000C8H.2 SFRSYM    DATA     BIT       TR2
      000000B8H.0 SFRSYM    DATA     BIT       PX0
      000000E1H   SFRSYM    DATA     BYTE      WDT_CONTR
      000000B8H.2 SFRSYM    DATA     BIT       PX1
      00000083H   SFRSYM    DATA     BYTE      DPH
      00000082H   SFRSYM    DATA     BYTE      DPL
      000000B7H   SFRSYM    DATA     BYTE      IPH
      000000C8H.3 SFRSYM    DATA     BIT       EXEN2
      00000098H.4 SFRSYM    DATA     BIT       REN
      000000C9H   SFRSYM    DATA     BYTE      T2MOD
      000000C8H   SFRSYM    DATA     BYTE      T2CON
      000000E2H   SFRSYM    DATA     BYTE      ISP_DATA
      000000B9H   SFRSYM    DATA     BYTE      SADEN
      000000B0H.0 SFRSYM    DATA     BIT       RXD
      000000A9H   SFRSYM    DATA     BYTE      SADDR
      000000B0H.1 SFRSYM    DATA     BIT       TXD
      000000A2H   SFRSYM    DATA     BYTE      AUXR1
      000000D0H.5 SFRSYM    DATA     BIT       F0
      000000D0H   SFRSYM    DATA     BYTE      PSW
LX51 LINKER/LOCATER V4.66.87.0                                                        05/30/2018  17:25:18  PAGE 74


      00000026H   SYMBOL    IDATA    ---       inbuf
      0000002EH   SYMBOL    IDATA    ---       outbuf
      020000CEH   SYMBOL    XDATA    BYTE      istart
      020000CFH   SYMBOL    XDATA    BYTE      ostart
      020000D0H   SYMBOL    XDATA    BYTE      iend
      020000D1H   SYMBOL    XDATA    BYTE      oend
      01005000H   SYMBOL    CODE     ---       com_isr

      010080B9H   BLOCK     CODE     ---       LVL=0
      ---         BLOCKEND  ---      ---       LVL=0

      01005000H   BLOCK     CODE     ---       LVL=0
      01005012H   BLOCK     CODE     NEAR LAB  LVL=1
      00000017H   SYMBOL    DATA     CHAR      c
      ---         BLOCKEND  ---      ---       LVL=1
      01005000H   LINE      CODE     ---       #31
      01005012H   LINE      CODE     ---       #36
      01005015H   LINE      CODE     ---       #37
      01005017H   LINE      CODE     ---       #38
      01005019H   LINE      CODE     ---       #39
      0100502DH   LINE      CODE     ---       #40
      01005039H   LINE      CODE     ---       #41
      01005039H   LINE      CODE     ---       #42
      01005039H   LINE      CODE     ---       #45
      0100503CH   LINE      CODE     ---       #46
      0100503EH   LINE      CODE     ---       #47
      0100504AH   LINE      CODE     ---       #48
      01005057H   LINE      CODE     ---       #49
      01005059H   LINE      CODE     ---       #50
      0100505BH   LINE      CODE     ---       #51
      0100505BH   LINE      CODE     ---       #52
      0100505DH   LINE      CODE     ---       #53
      0100505DH   LINE      CODE     ---       #54
      0100505DH   LINE      CODE     ---       #55
      ---         BLOCKEND  ---      ---       LVL=0

      0100743BH   BLOCK     CODE     ---       LVL=0
      0100743BH   LINE      CODE     ---       #61
      0100743BH   LINE      CODE     ---       #62
      01007440H   LINE      CODE     ---       #63
      01007444H   LINE      CODE     ---       #64
      01007448H   LINE      CODE     ---       #65
      0100744CH   LINE      CODE     ---       #66
      0100744EH   LINE      CODE     ---       #67
      01007450H   LINE      CODE     ---       #69
      01007453H   LINE      CODE     ---       #71
      01007456H   LINE      CODE     ---       #72
      01007459H   LINE      CODE     ---       #74
      0100745CH   LINE      CODE     ---       #75
      0100745EH   LINE      CODE     ---       #76
      01007460H   LINE      CODE     ---       #77
      01007462H   LINE      CODE     ---       #78
      ---         BLOCKEND  ---      ---       LVL=0

      01006FBEH   BLOCK     CODE     ---       LVL=0
      00000007H   SYMBOL    DATA     CHAR      c
      01006FBEH   LINE      CODE     ---       #89
      01006FBEH   LINE      CODE     ---       #90
      01006FC1H   LINE      CODE     ---       #91
      01006FC4H   LINE      CODE     ---       #92
      01006FC6H   LINE      CODE     ---       #93
      01006FC8H   LINE      CODE     ---       #94
      01006FC9H   LINE      CODE     ---       #95
      01006FC9H   LINE      CODE     ---       #96
      01006FCBH   LINE      CODE     ---       #97
LX51 LINKER/LOCATER V4.66.87.0                                                        05/30/2018  17:25:18  PAGE 75


      01006FDAH   LINE      CODE     ---       #98
      01006FE8H   LINE      CODE     ---       #99
      01006FEAH   LINE      CODE     ---       #100
      01006FEAH   LINE      CODE     ---       #101
      01006FECH   LINE      CODE     ---       #102
      01006FECH   LINE      CODE     ---       #103
      01006FECH   LINE      CODE     ---       #104
      ---         BLOCKEND  ---      ---       LVL=0

      01007F4BH   BLOCK     CODE     ---       LVL=0
      00000005H   SYMBOL    DATA     CHAR      c
      01007F4BH   LINE      CODE     ---       #111
      01007F4DH   LINE      CODE     ---       #112
      01007F51H   LINE      CODE     ---       #113
      01007F54H   LINE      CODE     ---       #114
      01007F59H   LINE      CODE     ---       #115
      01007F59H   LINE      CODE     ---       #116
      01007F5CH   LINE      CODE     ---       #117
      01007F61H   LINE      CODE     ---       #118
      01007F63H   LINE      CODE     ---       #119
      ---         BLOCKEND  ---      ---       LVL=0

      01008662H   BLOCK     CODE     ---       LVL=0
      01008662H   BLOCK     CODE     NEAR LAB  LVL=1
      00000007H   SYMBOL    DATA     CHAR      c
      ---         BLOCKEND  ---      ---       LVL=1
      01008662H   LINE      CODE     ---       #126
      01008662H   LINE      CODE     ---       #128
      01008668H   LINE      CODE     ---       #130
      01008668H   LINE      CODE     ---       #131
      0100866AH   LINE      CODE     ---       #132
      0100866EH   LINE      CODE     ---       #133
      01008671H   LINE      CODE     ---       #134
      01008671H   LINE      CODE     ---       #135
      ---         BLOCKEND  ---      ---       LVL=0

      0100833AH   BLOCK     CODE     ---       LVL=0
      0100833AH   BLOCK     CODE     NEAR LAB  LVL=1
      00000007H   SYMBOL    DATA     CHAR      c
      ---         BLOCKEND  ---      ---       LVL=1
      0100833AH   LINE      CODE     ---       #137
      0100833AH   LINE      CODE     ---       #138
      0100833AH   LINE      CODE     ---       #140
      01008340H   LINE      CODE     ---       #141
      01008343H   LINE      CODE     ---       #142
      01008343H   LINE      CODE     ---       #143
      01008345H   LINE      CODE     ---       #144
      0100834AH   LINE      CODE     ---       #145
      0100834DH   LINE      CODE     ---       #146
      0100834DH   LINE      CODE     ---       #147
      ---         BLOCKEND  ---      ---       LVL=0

      010087B2H   BLOCK     CODE     ---       LVL=0
      010087B2H   LINE      CODE     ---       #149
      010087B2H   LINE      CODE     ---       #150
      010087B2H   LINE      CODE     ---       #151
      010087BBH   LINE      CODE     ---       #152
      010087BDH   LINE      CODE     ---       #153
      010087BFH   LINE      CODE     ---       #154
      ---         BLOCKEND  ---      ---       LVL=0

      01000016H   BLOCK     CODE     ---       LVL=0
      01000016H   LINE      CODE     ---       #156
      01000016H   LINE      CODE     ---       #157
      01000016H   LINE      CODE     ---       #158
LX51 LINKER/LOCATER V4.66.87.0                                                        05/30/2018  17:25:18  PAGE 76


      01000018H   LINE      CODE     ---       #159
      0100001AH   LINE      CODE     ---       #160
      ---         BLOCKEND  ---      ---       LVL=0

      ---         MODULE    ---      ---       RTC
      01007FF9H   PUBLIC    CODE     ---       rtc_leave_powersave
      01007FE1H   PUBLIC    CODE     ---       rtc_enter_powersave
      010089DDH   PUBLIC    CODE     ---       rtc_test_bsy
      00000020H.0 PUBLIC    BIT      BIT       ?rtc_set_en32khz?BIT
      0100870DH   PUBLIC    CODE     ---       rtc_set_en32khz
      010089D3H   PUBLIC    CODE     ---       rtc_test_en32khz
      00000024H.6 PUBLIC    BIT      BIT       ?rtc_set_osf?BIT
      010086FEH   PUBLIC    CODE     ---       rtc_set_osf
      010089C9H   PUBLIC    CODE     ---       rtc_test_osf
      00000020H.0 PUBLIC    BIT      BIT       ?rtc_set_intcn?BIT
      010086EFH   PUBLIC    CODE     ---       rtc_set_intcn
      010089BFH   PUBLIC    CODE     ---       rtc_test_intcn
      0100838AH   PUBLIC    CODE     ---       rtc_get_square_rate_str
      010085FCH   PUBLIC    CODE     ---       _rtc_set_square_rate
      01008868H   PUBLIC    CODE     ---       rtc_get_square_rate
      00000024H.5 PUBLIC    BIT      BIT       ?rtc_set_conv?BIT
      010086E0H   PUBLIC    CODE     ---       rtc_set_conv
      010089B5H   PUBLIC    CODE     ---       rtc_test_conv
      00000024H.4 PUBLIC    BIT      BIT       ?rtc_set_bbsqw?BIT
      010086D1H   PUBLIC    CODE     ---       rtc_set_bbsqw
      010089ABH   PUBLIC    CODE     ---       rtc_test_bbsqw
      00000024H.3 PUBLIC    BIT      BIT       ?rtc_set_eosc?BIT
      010086C2H   PUBLIC    CODE     ---       rtc_set_eosc
      010089A1H   PUBLIC    CODE     ---       rtc_test_eosc
      01007B4DH   PUBLIC    CODE     ---       _rtc_test_alarm_int_flag
      010080D0H   PUBLIC    CODE     ---       _rtc_clr_alarm_int_flag
      01007B30H   PUBLIC    CODE     ---       _rtc_test_alarm_int
      00000020H.1 PUBLIC    BIT      BIT       ?_rtc_enable_alarm_int?BIT
      0100765AH   PUBLIC    CODE     ---       _rtc_enable_alarm_int
      02000014H   PUBLIC    XDATA    BYTE      ?_rtc_get_temperature?BYTE
      010041D7H   PUBLIC    CODE     ---       _rtc_get_temperature
      01008376H   PUBLIC    CODE     ---       rtc_alarm_get_mod_str
      010045CCH   PUBLIC    CODE     ---       _rtc_alarm_set_mode
      01003495H   PUBLIC    CODE     ---       rtc_alarm_get_mode
      010081F7H   PUBLIC    CODE     ---       _rtc_alarm_set_sec
      01008362H   PUBLIC    CODE     ---       rtc_alarm_get_sec
      01007E95H   PUBLIC    CODE     ---       _rtc_alarm_set_date
      010082A7H   PUBLIC    CODE     ---       rtc_alarm_get_date
      010081E1H   PUBLIC    CODE     ---       _rtc_alarm_set_day
      0100834EH   PUBLIC    CODE     ---       rtc_alarm_get_day
      010084C7H   PUBLIC    CODE     ---       _rtc_alarm_set_min
      010081CBH   PUBLIC    CODE     ---       rtc_alarm_get_min
      010084B4H   PUBLIC    CODE     ---       _rtc_alarm_set_hour
      00000020H.0 PUBLIC    BIT      BIT       ?rtc_alarm_set_hour_12?BIT
      01007B13H   PUBLIC    CODE     ---       rtc_alarm_set_hour_12
      010081B5H   PUBLIC    CODE     ---       rtc_alarm_get_hour_12
      0100819FH   PUBLIC    CODE     ---       rtc_alarm_get_hour
      01008513H   PUBLIC    CODE     ---       _rtc_date_set_day
      01008B64H   PUBLIC    CODE     ---       rtc_date_get_day
      01003F66H   PUBLIC    CODE     ---       _rtc_date_set_date
      01008B22H   PUBLIC    CODE     ---       rtc_date_get_date
      01008B1AH   PUBLIC    CODE     ---       _rtc_date_set_month
      0100888EH   PUBLIC    CODE     ---       rtc_date_get_month
      01008B12H   PUBLIC    CODE     ---       _rtc_date_set_year
      01008882H   PUBLIC    CODE     ---       rtc_date_get_year
      01008B5EH   PUBLIC    CODE     ---       _rtc_time_set_sec
      01008B0AH   PUBLIC    CODE     ---       rtc_time_get_sec
      01008A2DH   PUBLIC    CODE     ---       _rtc_time_set_min
      01008B02H   PUBLIC    CODE     ---       rtc_time_get_min
      01008AFAH   PUBLIC    CODE     ---       rtc_time_get_hour_12
LX51 LINKER/LOCATER V4.66.87.0                                                        05/30/2018  17:25:18  PAGE 77


      00000020H.1 PUBLIC    BIT      BIT       ?rtc_time_set_hour_12?BIT
      01008672H   PUBLIC    CODE     ---       rtc_time_set_hour_12
      01008B58H   PUBLIC    CODE     ---       _rtc_time_set_hour
      01008AF2H   PUBLIC    CODE     ---       rtc_time_get_hour
      01005B6DH   PUBLIC    CODE     ---       _rtc_write_data
      01005A63H   PUBLIC    CODE     ---       _rtc_read_data
      01002E5FH   PUBLIC    CODE     ---       rtc_initialize
      010084A1H   PUBLIC    CODE     ---       scan_rtc
      00000020H.0 PUBLIC    BIT      BIT       ?rtc_set_lt_timer?BIT
      01000006H   PUBLIC    CODE     ---       rtc_set_lt_timer
      01008C20H   PUBLIC    CODE     ---       rtc_is_lt_timer
      010011B2H   PUBLIC    CODE     ---       rtc_dump
      00000080H   SFRSYM    DATA     BYTE      P0
      00000090H   SFRSYM    DATA     BYTE      P1
      000000A0H   SFRSYM    DATA     BYTE      P2
      000000B0H   SFRSYM    DATA     BYTE      P3
      000000C0H   SFRSYM    DATA     BYTE      XICON
      000000B0H.4 SFRSYM    DATA     BIT       T0
      000000D0H.6 SFRSYM    DATA     BIT       AC
      000000E8H   SFRSYM    DATA     BYTE      P4
      000000B0H.5 SFRSYM    DATA     BIT       T1
      000000E6H   SFRSYM    DATA     BYTE      ISP_TRIG
      00000090H.0 SFRSYM    DATA     BIT       T2
      000000A8H.7 SFRSYM    DATA     BIT       EA
      000000A8H.6 SFRSYM    DATA     BIT       EC
      00000098H.7 SFRSYM    DATA     BIT       FE
      000000A8H   SFRSYM    DATA     BYTE      IE
      000000C8H.6 SFRSYM    DATA     BIT       EXF2
      000000B0H.7 SFRSYM    DATA     BIT       RD
      000000A8H.4 SFRSYM    DATA     BIT       ES
      000000B8H   SFRSYM    DATA     BYTE      IP
      00000098H.0 SFRSYM    DATA     BIT       RI
      000000B0H.2 SFRSYM    DATA     BIT       INT0
      000000D0H.7 SFRSYM    DATA     BIT       CY
      00000098H.1 SFRSYM    DATA     BIT       TI
      000000B0H.3 SFRSYM    DATA     BIT       INT1
      000000CBH   SFRSYM    DATA     BYTE      RCAP2H
      000000E5H   SFRSYM    DATA     BYTE      ISP_CMD
      000000B8H.4 SFRSYM    DATA     BIT       PS
      00000081H   SFRSYM    DATA     BYTE      SP
      00000090H.1 SFRSYM    DATA     BIT       T2EX
      000000D0H.2 SFRSYM    DATA     BIT       OV
      000000CAH   SFRSYM    DATA     BYTE      RCAP2L
      000000C8H.1 SFRSYM    DATA     BIT       C_T2
      000000B0H.6 SFRSYM    DATA     BIT       WR
      000000C8H.5 SFRSYM    DATA     BIT       RCLK
      000000C8H.4 SFRSYM    DATA     BIT       TCLK
      00000080H.0 SFRSYM    DATA     BIT       P00
      00000099H   SFRSYM    DATA     BYTE      SBUF
      00000087H   SFRSYM    DATA     BYTE      PCON
      00000090H.0 SFRSYM    DATA     BIT       P10
      00000080H.1 SFRSYM    DATA     BIT       P01
      000000A0H.0 SFRSYM    DATA     BIT       P20
      00000090H.1 SFRSYM    DATA     BIT       P11
      00000080H.2 SFRSYM    DATA     BIT       P02
      000000E3H   SFRSYM    DATA     BYTE      ISP_ADDRH
      000000B0H.0 SFRSYM    DATA     BIT       P30
      000000A0H.1 SFRSYM    DATA     BIT       P21
      00000090H.2 SFRSYM    DATA     BIT       P12
      00000080H.3 SFRSYM    DATA     BIT       P03
      00000098H   SFRSYM    DATA     BYTE      SCON
      000000B0H.1 SFRSYM    DATA     BIT       P31
      000000A0H.2 SFRSYM    DATA     BIT       P22
      00000090H.3 SFRSYM    DATA     BIT       P13
      00000080H.4 SFRSYM    DATA     BIT       P04
LX51 LINKER/LOCATER V4.66.87.0                                                        05/30/2018  17:25:18  PAGE 78


      000000E8H.0 SFRSYM    DATA     BIT       P40
      00000089H   SFRSYM    DATA     BYTE      TMOD
      00000088H   SFRSYM    DATA     BYTE      TCON
      000000B0H.2 SFRSYM    DATA     BIT       P32
      000000A0H.3 SFRSYM    DATA     BIT       P23
      00000090H.4 SFRSYM    DATA     BIT       P14
      00000080H.5 SFRSYM    DATA     BIT       P05
      000000E8H.1 SFRSYM    DATA     BIT       P41
      000000B0H.3 SFRSYM    DATA     BIT       P33
      000000A0H.4 SFRSYM    DATA     BIT       P24
      00000090H.5 SFRSYM    DATA     BIT       P15
      00000080H.6 SFRSYM    DATA     BIT       P06
      000000E4H   SFRSYM    DATA     BYTE      ISP_ADDRL
      000000E8H.2 SFRSYM    DATA     BIT       P42
      000000B0H.4 SFRSYM    DATA     BIT       P34
      000000A0H.5 SFRSYM    DATA     BIT       P25
      00000090H.6 SFRSYM    DATA     BIT       P16
      00000080H.7 SFRSYM    DATA     BIT       P07
      000000E8H.3 SFRSYM    DATA     BIT       P43
      000000B0H.5 SFRSYM    DATA     BIT       P35
      000000A0H.6 SFRSYM    DATA     BIT       P26
      00000090H.7 SFRSYM    DATA     BIT       P17
      000000E8H.4 SFRSYM    DATA     BIT       P44
      000000B0H.6 SFRSYM    DATA     BIT       P36
      000000A0H.7 SFRSYM    DATA     BIT       P27
      000000E8H.5 SFRSYM    DATA     BIT       P45
      000000B0H.7 SFRSYM    DATA     BIT       P37
      000000E8H.6 SFRSYM    DATA     BIT       P46
      00000088H.1 SFRSYM    DATA     BIT       IE0
      00000088H.3 SFRSYM    DATA     BIT       IE1
      0000008EH   SFRSYM    DATA     BYTE      AUXR
      000000F0H   SFRSYM    DATA     BYTE      B
      000000C8H.0 SFRSYM    DATA     BIT       CP_RL2
      000000E0H   SFRSYM    DATA     BYTE      ACC
      000000A8H.1 SFRSYM    DATA     BIT       ET0
      000000A8H.3 SFRSYM    DATA     BIT       ET1
      00000088H.5 SFRSYM    DATA     BIT       TF0
      000000A8H.5 SFRSYM    DATA     BIT       ET2
      00000088H.7 SFRSYM    DATA     BIT       TF1
      000000C8H.7 SFRSYM    DATA     BIT       TF2
      00000098H.2 SFRSYM    DATA     BIT       RB8
      0000008CH   SFRSYM    DATA     BYTE      TH0
      000000A8H.0 SFRSYM    DATA     BIT       EX0
      00000088H.0 SFRSYM    DATA     BIT       IT0
      0000008DH   SFRSYM    DATA     BYTE      TH1
      00000098H.3 SFRSYM    DATA     BIT       TB8
      000000A8H.2 SFRSYM    DATA     BIT       EX1
      00000088H.2 SFRSYM    DATA     BIT       IT1
      000000CDH   SFRSYM    DATA     BYTE      TH2
      000000D0H.0 SFRSYM    DATA     BIT       P
      00000098H.7 SFRSYM    DATA     BIT       SM0
      0000008AH   SFRSYM    DATA     BYTE      TL0
      00000098H.6 SFRSYM    DATA     BIT       SM1
      0000008BH   SFRSYM    DATA     BYTE      TL1
      00000098H.5 SFRSYM    DATA     BIT       SM2
      000000CCH   SFRSYM    DATA     BYTE      TL2
      000000B8H.1 SFRSYM    DATA     BIT       PT0
      000000B8H.3 SFRSYM    DATA     BIT       PT1
      000000D0H.3 SFRSYM    DATA     BIT       RS0
      000000E7H   SFRSYM    DATA     BYTE      ISP_CONTR
      000000B8H.5 SFRSYM    DATA     BIT       PT2
      00000088H.4 SFRSYM    DATA     BIT       TR0
      000000D0H.4 SFRSYM    DATA     BIT       RS1
      00000088H.6 SFRSYM    DATA     BIT       TR1
      000000C8H.2 SFRSYM    DATA     BIT       TR2
LX51 LINKER/LOCATER V4.66.87.0                                                        05/30/2018  17:25:18  PAGE 79


      000000B8H.0 SFRSYM    DATA     BIT       PX0
      000000E1H   SFRSYM    DATA     BYTE      WDT_CONTR
      000000B8H.2 SFRSYM    DATA     BIT       PX1
      00000083H   SFRSYM    DATA     BYTE      DPH
      00000082H   SFRSYM    DATA     BYTE      DPL
      000000B7H   SFRSYM    DATA     BYTE      IPH
      000000C8H.3 SFRSYM    DATA     BIT       EXEN2
      00000098H.4 SFRSYM    DATA     BIT       REN
      000000C9H   SFRSYM    DATA     BYTE      T2MOD
      000000C8H   SFRSYM    DATA     BYTE      T2CON
      000000E2H   SFRSYM    DATA     BYTE      ISP_DATA
      000000B9H   SFRSYM    DATA     BYTE      SADEN
      000000B0H.0 SFRSYM    DATA     BIT       RXD
      000000A9H   SFRSYM    DATA     BYTE      SADDR
      000000B0H.1 SFRSYM    DATA     BIT       TXD
      000000A2H   SFRSYM    DATA     BYTE      AUXR1
      000000D0H.5 SFRSYM    DATA     BIT       F0
      000000D0H   SFRSYM    DATA     BYTE      PSW
      0100A724H   SYMBOL    CONST    ---       rtc_alarm_mode_str
      0100A748H   SYMBOL    CONST    ---       rtc_square_rate_str
      01008AEAH   SYMBOL    CODE     ---       __rtc_get_min_sec
      0100641DH   SYMBOL    CODE     ---       rtc_dump_raw
      010071B9H   SYMBOL    CODE     ---       __rtc_set_min_sec
      00000024H.7 SYMBOL    BIT      BIT       is_lt_timer_mode
      01008B4AH   SYMBOL    CODE     ---       __rtc_get_hour_12
      020000C4H   SYMBOL    XDATA    BYTE      last_read
      01007463H   SYMBOL    CODE     ---       _rtc_set_hour_12
      020000C5H   SYMBOL    XDATA    ---       rtc_data
      0100000EH   SYMBOL    CODE     ---       __rtc_get_date
      010071E5H   SYMBOL    CODE     ---       __rtc_set_date
      0100767FH   SYMBOL    CODE     ---       __rtc_get_hour
      01006775H   SYMBOL    CODE     ---       __rtc_set_hour

      010036EFH   BLOCK     CODE     ---       LVL=0
      ---         BLOCKEND  ---      ---       LVL=0

      0100641DH   BLOCK     CODE     ---       LVL=0
      0100641DH   BLOCK     CODE     NEAR LAB  LVL=1
      02000002H   SYMBOL    XDATA    BYTE      addr
      02000003H   SYMBOL    XDATA    BYTE      c
      ---         BLOCKEND  ---      ---       LVL=1
      0100641DH   LINE      CODE     ---       #54
      0100641DH   LINE      CODE     ---       #55
      0100641DH   LINE      CODE     ---       #58
      01006426H   LINE      CODE     ---       #59
      01006435H   LINE      CODE     ---       #60
      01006440H   LINE      CODE     ---       #61
      01006459H   LINE      CODE     ---       #62
      01006461H   LINE      CODE     ---       #63
      ---         BLOCKEND  ---      ---       LVL=0

      010011B2H   BLOCK     CODE     ---       LVL=0
      010011B2H   LINE      CODE     ---       #65
      010011B2H   LINE      CODE     ---       #66
      010011B2H   LINE      CODE     ---       #67
      010011B7H   LINE      CODE     ---       #68
      010011E9H   LINE      CODE     ---       #73
      010011EEH   LINE      CODE     ---       #74
      0100122FH   LINE      CODE     ---       #79
      01001231H   LINE      CODE     ---       #80
      01001238H   LINE      CODE     ---       #81
      01001238H   LINE      CODE     ---       #82
      01001238H   LINE      CODE     ---       #83
      01001238H   LINE      CODE     ---       #84
      01001242H   LINE      CODE     ---       #85
LX51 LINKER/LOCATER V4.66.87.0                                                        05/30/2018  17:25:18  PAGE 80


      0100124FH   LINE      CODE     ---       #86
      0100126AH   LINE      CODE     ---       #88
      0100126CH   LINE      CODE     ---       #89
      01001273H   LINE      CODE     ---       #90
      01001273H   LINE      CODE     ---       #91
      01001273H   LINE      CODE     ---       #92
      01001273H   LINE      CODE     ---       #93
      0100127DH   LINE      CODE     ---       #94
      01001298H   LINE      CODE     ---       #96
      0100129DH   LINE      CODE     ---       #97
      010012A6H   LINE      CODE     ---       #98
      010012C3H   LINE      CODE     ---       #99
      010012E0H   LINE      CODE     ---       #100
      010012FDH   LINE      CODE     ---       #101
      0100131AH   LINE      CODE     ---       #102
      0100132DH   LINE      CODE     ---       #103
      01001340H   LINE      CODE     ---       #104
      01001353H   LINE      CODE     ---       #105
      01001360H   LINE      CODE     ---       #106
      01001373H   LINE      CODE     ---       #107
      01001386H   LINE      CODE     ---       #108
      01001399H   LINE      CODE     ---       #109
      010013ACH   LINE      CODE     ---       #110
      ---         BLOCKEND  ---      ---       LVL=0

      01008C20H   BLOCK     CODE     ---       LVL=0
      01008C20H   LINE      CODE     ---       #112
      01008C20H   LINE      CODE     ---       #113
      01008C20H   LINE      CODE     ---       #114
      01008C22H   LINE      CODE     ---       #115
      ---         BLOCKEND  ---      ---       LVL=0

      01000006H   BLOCK     CODE     ---       LVL=0
      00000020H.0 SYMBOL    BIT      BIT       enable
      01000006H   LINE      CODE     ---       #117
      01000006H   LINE      CODE     ---       #118
      01000006H   LINE      CODE     ---       #119
      0100000AH   LINE      CODE     ---       #120
      ---         BLOCKEND  ---      ---       LVL=0

      010084A1H   BLOCK     CODE     ---       LVL=0
      010084A1H   LINE      CODE     ---       #122
      010084A1H   LINE      CODE     ---       #123
      010084A1H   LINE      CODE     ---       #124
      010084AAH   LINE      CODE     ---       #126
      010084ADH   LINE      CODE     ---       #127
      010084B0H   LINE      CODE     ---       #128
      010084B0H   LINE      CODE     ---       #129
      010084B3H   LINE      CODE     ---       #130
      010084B3H   LINE      CODE     ---       #131
      ---         BLOCKEND  ---      ---       LVL=0

      01002E5FH   BLOCK     CODE     ---       LVL=0
      01002E5FH   BLOCK     CODE     NEAR LAB  LVL=1
      02000000H   SYMBOL    XDATA    BYTE      count
      02000001H   SYMBOL    XDATA    BYTE      is12
      ---         BLOCKEND  ---      ---       LVL=1
      01002E5FH   LINE      CODE     ---       #133
      01002E5FH   LINE      CODE     ---       #134
      01002E5FH   LINE      CODE     ---       #138
      01002E68H   LINE      CODE     ---       #140
      01002E71H   LINE      CODE     ---       #141
      01002E74H   LINE      CODE     ---       #142
      01002E77H   LINE      CODE     ---       #144
      01002E79H   LINE      CODE     ---       #146
LX51 LINKER/LOCATER V4.66.87.0                                                        05/30/2018  17:25:18  PAGE 81


      01002E85H   LINE      CODE     ---       #149
      01002E8FH   LINE      CODE     ---       #151
      01002E92H   LINE      CODE     ---       #152
      01002E97H   LINE      CODE     ---       #155
      01002E9FH   LINE      CODE     ---       #156
      01002EA8H   LINE      CODE     ---       #157
      01002EB0H   LINE      CODE     ---       #160
      01002EB0H   LINE      CODE     ---       #161
      01002EB0H   LINE      CODE     ---       #162
      01002EB3H   LINE      CODE     ---       #165
      01002EB8H   LINE      CODE     ---       #166
      01002EB8H   LINE      CODE     ---       #167
      01002EB8H   LINE      CODE     ---       #168
      01002EBBH   LINE      CODE     ---       #169
      01002EBBH   LINE      CODE     ---       #170
      01002EC0H   LINE      CODE     ---       #173
      01002EC5H   LINE      CODE     ---       #176
      01002EC5H   LINE      CODE     ---       #177
      01002EC5H   LINE      CODE     ---       #178
      01002EC8H   LINE      CODE     ---       #181
      01002ECDH   LINE      CODE     ---       #182
      01002ECDH   LINE      CODE     ---       #183
      01002ECDH   LINE      CODE     ---       #184
      01002ED0H   LINE      CODE     ---       #185
      01002ED0H   LINE      CODE     ---       #187
      01002EF0H   LINE      CODE     ---       #192
      01002EF5H   LINE      CODE     ---       #195
      01002EFAH   LINE      CODE     ---       #196
      01002F01H   LINE      CODE     ---       #197
      01002F06H   LINE      CODE     ---       #198
      01002F0DH   LINE      CODE     ---       #199
      01002F12H   LINE      CODE     ---       #201
      01002F17H   LINE      CODE     ---       #203
      01002F1CH   LINE      CODE     ---       #204
      01002F21H   LINE      CODE     ---       #206
      01002F2AH   LINE      CODE     ---       #207
      01002F2DH   LINE      CODE     ---       #208
      01002F30H   LINE      CODE     ---       #209
      ---         BLOCKEND  ---      ---       LVL=0

      01005A63H   BLOCK     CODE     ---       LVL=0
      00000007H   SYMBOL    DATA     BYTE      type
      01005A63H   BLOCK     CODE     NEAR LAB  LVL=1
      02000017H   SYMBOL    XDATA    BYTE      offset
      ---         BLOCKEND  ---      ---       LVL=1
      01005A63H   LINE      CODE     ---       #212
      01005A63H   LINE      CODE     ---       #213
      01005A63H   LINE      CODE     ---       #215
      01005A77H   LINE      CODE     ---       #216
      01005A77H   LINE      CODE     ---       #217
      01005A7EH   LINE      CODE     ---       #218
      01005A7EH   LINE      CODE     ---       #219
      01005A86H   LINE      CODE     ---       #220
      01005A86H   LINE      CODE     ---       #221
      01005A8EH   LINE      CODE     ---       #222
      01005A8EH   LINE      CODE     ---       #223
      01005A96H   LINE      CODE     ---       #224
      01005A96H   LINE      CODE     ---       #225
      01005A9EH   LINE      CODE     ---       #226
      01005A9EH   LINE      CODE     ---       #227
      01005AA4H   LINE      CODE     ---       #228
      01005AA4H   LINE      CODE     ---       #230
      01005AA9H   LINE      CODE     ---       #232
      ---         BLOCKEND  ---      ---       LVL=0

LX51 LINKER/LOCATER V4.66.87.0                                                        05/30/2018  17:25:18  PAGE 82


      01005B6DH   BLOCK     CODE     ---       LVL=0
      00000007H   SYMBOL    DATA     BYTE      type
      01005B6DH   BLOCK     CODE     NEAR LAB  LVL=1
      02000017H   SYMBOL    XDATA    BYTE      offset
      ---         BLOCKEND  ---      ---       LVL=1
      01005B6DH   LINE      CODE     ---       #236
      01005B6DH   LINE      CODE     ---       #237
      01005B6DH   LINE      CODE     ---       #239
      01005B81H   LINE      CODE     ---       #240
      01005B81H   LINE      CODE     ---       #241
      01005B88H   LINE      CODE     ---       #242
      01005B88H   LINE      CODE     ---       #243
      01005B90H   LINE      CODE     ---       #244
      01005B90H   LINE      CODE     ---       #245
      01005B98H   LINE      CODE     ---       #246
      01005B98H   LINE      CODE     ---       #247
      01005BA0H   LINE      CODE     ---       #248
      01005BA0H   LINE      CODE     ---       #249
      01005BA8H   LINE      CODE     ---       #250
      01005BA8H   LINE      CODE     ---       #251
      01005BAEH   LINE      CODE     ---       #252
      01005BAEH   LINE      CODE     ---       #253
      01005BB1H   LINE      CODE     ---       #254
      ---         BLOCKEND  ---      ---       LVL=0

      0100767FH   BLOCK     CODE     ---       LVL=0
      00000007H   SYMBOL    DATA     BYTE      hour
      0100767FH   BLOCK     CODE     NEAR LAB  LVL=1
      00000006H   SYMBOL    DATA     BYTE      ret
      ---         BLOCKEND  ---      ---       LVL=1
      0100767FH   LINE      CODE     ---       #257
      0100767FH   LINE      CODE     ---       #258
      0100767FH   LINE      CODE     ---       #260
      01007683H   LINE      CODE     ---       #261
      01007692H   LINE      CODE     ---       #262
      01007696H   LINE      CODE     ---       #263
      0100769AH   LINE      CODE     ---       #264
      0100769AH   LINE      CODE     ---       #265
      0100769CH   LINE      CODE     ---       #266
      010076A0H   LINE      CODE     ---       #267
      010076A0H   LINE      CODE     ---       #268
      010076A2H   LINE      CODE     ---       #269
      ---         BLOCKEND  ---      ---       LVL=0

      01006775H   BLOCK     CODE     ---       LVL=0
      00000007H   SYMBOL    DATA     BYTE      hour
      0200001AH   SYMBOL    XDATA    ---       dat
      01006775H   LINE      CODE     ---       #272
      0100677BH   LINE      CODE     ---       #273
      0100677BH   LINE      CODE     ---       #274
      01006782H   LINE      CODE     ---       #275
      01006788H   LINE      CODE     ---       #276
      0100678EH   LINE      CODE     ---       #277
      01006792H   LINE      CODE     ---       #278
      01006794H   LINE      CODE     ---       #279
      0100679CH   LINE      CODE     ---       #280
      0100679CH   LINE      CODE     ---       #281
      0100679CH   LINE      CODE     ---       #282
      0100679CH   LINE      CODE     ---       #283
      010067A1H   LINE      CODE     ---       #284
      010067A1H   LINE      CODE     ---       #285
      010067A3H   LINE      CODE     ---       #287
      010067A3H   LINE      CODE     ---       #288
      010067A3H   LINE      CODE     ---       #289
      010067A8H   LINE      CODE     ---       #290
LX51 LINKER/LOCATER V4.66.87.0                                                        05/30/2018  17:25:18  PAGE 83


      010067B2H   LINE      CODE     ---       #291
      010067B2H   LINE      CODE     ---       #292
      ---         BLOCKEND  ---      ---       LVL=0

      01007463H   BLOCK     CODE     ---       LVL=0
      00000020H.2 SYMBOL    BIT      BIT       enable
      02000017H   SYMBOL    XDATA    ---       dat
      01007463H   BLOCK     CODE     NEAR LAB  LVL=1
      00000007H   SYMBOL    DATA     BYTE      hour
      ---         BLOCKEND  ---      ---       LVL=1
      01007463H   LINE      CODE     ---       #294
      01007463H   LINE      CODE     ---       #295
      01007463H   LINE      CODE     ---       #297
      0100746DH   LINE      CODE     ---       #298
      01007473H   LINE      CODE     ---       #299
      01007478H   LINE      CODE     ---       #300
      0100747AH   LINE      CODE     ---       #301
      01007482H   LINE      CODE     ---       #302
      01007482H   LINE      CODE     ---       #303
      ---         BLOCKEND  ---      ---       LVL=0

      01008B4AH   BLOCK     CODE     ---       LVL=0
      00000007H   SYMBOL    DATA     BYTE      hour
      01008B4AH   LINE      CODE     ---       #306
      01008B4AH   LINE      CODE     ---       #307
      01008B4AH   LINE      CODE     ---       #308
      01008B50H   LINE      CODE     ---       #309
      ---         BLOCKEND  ---      ---       LVL=0

      01008AEAH   BLOCK     CODE     ---       LVL=0
      00000007H   SYMBOL    DATA     BYTE      min
      01008AEAH   LINE      CODE     ---       #311
      01008AEAH   LINE      CODE     ---       #312
      01008AEAH   LINE      CODE     ---       #313
      01008AF1H   LINE      CODE     ---       #314
      ---         BLOCKEND  ---      ---       LVL=0

      010071B9H   BLOCK     CODE     ---       LVL=0
      00000007H   SYMBOL    DATA     BYTE      min
      02000017H   SYMBOL    XDATA    ---       dat
      010071B9H   LINE      CODE     ---       #316
      010071BFH   LINE      CODE     ---       #317
      010071BFH   LINE      CODE     ---       #318
      010071C7H   LINE      CODE     ---       #319
      010071D0H   LINE      CODE     ---       #320
      010071D8H   LINE      CODE     ---       #321
      ---         BLOCKEND  ---      ---       LVL=0

      01008AF2H   BLOCK     CODE     ---       LVL=0
      01008AF2H   LINE      CODE     ---       #326
      01008AF2H   LINE      CODE     ---       #327
      01008AF2H   LINE      CODE     ---       #328
      ---         BLOCKEND  ---      ---       LVL=0

      01008B58H   BLOCK     CODE     ---       LVL=0
      00000007H   SYMBOL    DATA     BYTE      hour
      01008B58H   LINE      CODE     ---       #333
      01008B58H   LINE      CODE     ---       #334
      01008B58H   LINE      CODE     ---       #335
      ---         BLOCKEND  ---      ---       LVL=0

      01008672H   BLOCK     CODE     ---       LVL=0
      00000020H.1 SYMBOL    BIT      BIT       enable
      01008672H   LINE      CODE     ---       #338
      01008672H   LINE      CODE     ---       #339
LX51 LINKER/LOCATER V4.66.87.0                                                        05/30/2018  17:25:18  PAGE 84


      01008672H   LINE      CODE     ---       #340
      ---         BLOCKEND  ---      ---       LVL=0

      01008AFAH   BLOCK     CODE     ---       LVL=0
      01008AFAH   LINE      CODE     ---       #343
      01008AFAH   LINE      CODE     ---       #344
      01008AFAH   LINE      CODE     ---       #345
      ---         BLOCKEND  ---      ---       LVL=0

      01008B02H   BLOCK     CODE     ---       LVL=0
      01008B02H   LINE      CODE     ---       #348
      01008B02H   LINE      CODE     ---       #349
      01008B02H   LINE      CODE     ---       #350
      ---         BLOCKEND  ---      ---       LVL=0

      01008A2DH   BLOCK     CODE     ---       LVL=0
      00000007H   SYMBOL    DATA     BYTE      min
      01008A2DH   LINE      CODE     ---       #353
      01008A2DH   LINE      CODE     ---       #354
      01008A2DH   LINE      CODE     ---       #355
      ---         BLOCKEND  ---      ---       LVL=0

      01008B0AH   BLOCK     CODE     ---       LVL=0
      01008B0AH   LINE      CODE     ---       #358
      01008B0AH   LINE      CODE     ---       #359
      01008B0AH   LINE      CODE     ---       #360
      ---         BLOCKEND  ---      ---       LVL=0

      01008B5EH   BLOCK     CODE     ---       LVL=0
      00000007H   SYMBOL    DATA     BYTE      sec
      01008B5EH   LINE      CODE     ---       #363
      01008B5EH   LINE      CODE     ---       #364
      01008B5EH   LINE      CODE     ---       #365
      ---         BLOCKEND  ---      ---       LVL=0

      01008882H   BLOCK     CODE     ---       LVL=0
      01008882H   LINE      CODE     ---       #369
      01008882H   LINE      CODE     ---       #370
      01008882H   LINE      CODE     ---       #371
      0100888DH   LINE      CODE     ---       #372
      ---         BLOCKEND  ---      ---       LVL=0

      01008B12H   BLOCK     CODE     ---       LVL=0
      00000007H   SYMBOL    DATA     BYTE      year
      01008B12H   LINE      CODE     ---       #374
      01008B12H   LINE      CODE     ---       #375
      01008B12H   LINE      CODE     ---       #376
      01008B15H   LINE      CODE     ---       #377
      01008B15H   LINE      CODE     ---       #378
      01008B15H   LINE      CODE     ---       #379
      01008B19H   LINE      CODE     ---       #380
      ---         BLOCKEND  ---      ---       LVL=0

      0100888EH   BLOCK     CODE     ---       LVL=0
      0100888EH   LINE      CODE     ---       #382
      0100888EH   LINE      CODE     ---       #383
      0100888EH   LINE      CODE     ---       #384
      01008899H   LINE      CODE     ---       #385
      ---         BLOCKEND  ---      ---       LVL=0

      01008B1AH   BLOCK     CODE     ---       LVL=0
      00000007H   SYMBOL    DATA     BYTE      month
      01008B1AH   LINE      CODE     ---       #387
      01008B1AH   LINE      CODE     ---       #388
      01008B1AH   LINE      CODE     ---       #389
LX51 LINKER/LOCATER V4.66.87.0                                                        05/30/2018  17:25:18  PAGE 85


      01008B1DH   LINE      CODE     ---       #390
      01008B1DH   LINE      CODE     ---       #391
      01008B1DH   LINE      CODE     ---       #392
      01008B21H   LINE      CODE     ---       #393
      ---         BLOCKEND  ---      ---       LVL=0

      0100000EH   BLOCK     CODE     ---       LVL=0
      00000007H   SYMBOL    DATA     BYTE      date
      0100000EH   LINE      CODE     ---       #395
      0100000EH   LINE      CODE     ---       #396
      0100000EH   LINE      CODE     ---       #397
      01000012H   LINE      CODE     ---       #398
      ---         BLOCKEND  ---      ---       LVL=0

      010071E5H   BLOCK     CODE     ---       LVL=0
      00000007H   SYMBOL    DATA     BYTE      date
      02000019H   SYMBOL    XDATA    ---       dat
      010071E5H   LINE      CODE     ---       #400
      010071EBH   LINE      CODE     ---       #401
      010071EBH   LINE      CODE     ---       #402
      010071F3H   LINE      CODE     ---       #403
      010071FCH   LINE      CODE     ---       #404
      01007204H   LINE      CODE     ---       #405
      ---         BLOCKEND  ---      ---       LVL=0

      01008B22H   BLOCK     CODE     ---       LVL=0
      01008B22H   LINE      CODE     ---       #408
      01008B22H   LINE      CODE     ---       #409
      01008B22H   LINE      CODE     ---       #410
      ---         BLOCKEND  ---      ---       LVL=0

      01003F66H   BLOCK     CODE     ---       LVL=0
      02000017H   SYMBOL    XDATA    BYTE      date
      01003F6BH   BLOCK     CODE     NEAR LAB  LVL=1
      02000018H   SYMBOL    XDATA    CHAR      mon
      ---         BLOCKEND  ---      ---       LVL=1
      01003F66H   LINE      CODE     ---       #414
      01003F6BH   LINE      CODE     ---       #415
      01003F6BH   LINE      CODE     ---       #416
      01003F73H   LINE      CODE     ---       #418
      01003F7CH   LINE      CODE     ---       #419
      01003FA2H   LINE      CODE     ---       #420
      01003FA2H   LINE      CODE     ---       #421
      01003FADH   LINE      CODE     ---       #422
      01003FADH   LINE      CODE     ---       #423
      01003FB8H   LINE      CODE     ---       #424
      01003FC7H   LINE      CODE     ---       #425
      01003FD1H   LINE      CODE     ---       #426
      01003FE0H   LINE      CODE     ---       #427
      01003FEBH   LINE      CODE     ---       #428
      01003FEBH   LINE      CODE     ---       #429
      01003FEBH   LINE      CODE     ---       #431
      01003FF4H   LINE      CODE     ---       #432
      01004002H   LINE      CODE     ---       #434
      01004003H   LINE      CODE     ---       #435
      ---         BLOCKEND  ---      ---       LVL=0

      01008B64H   BLOCK     CODE     ---       LVL=0
      01008B64H   LINE      CODE     ---       #437
      01008B64H   LINE      CODE     ---       #438
      01008B64H   LINE      CODE     ---       #439
      01008B69H   LINE      CODE     ---       #440
      ---         BLOCKEND  ---      ---       LVL=0

      01008513H   BLOCK     CODE     ---       LVL=0
LX51 LINKER/LOCATER V4.66.87.0                                                        05/30/2018  17:25:18  PAGE 86


      00000007H   SYMBOL    DATA     BYTE      day
      01008513H   LINE      CODE     ---       #442
      01008513H   LINE      CODE     ---       #443
      01008513H   LINE      CODE     ---       #444
      0100851FH   LINE      CODE     ---       #445
      01008524H   LINE      CODE     ---       #446
      01008524H   LINE      CODE     ---       #447
      ---         BLOCKEND  ---      ---       LVL=0

      0100819FH   BLOCK     CODE     ---       LVL=0
      0100819FH   LINE      CODE     ---       #450
      0100819FH   LINE      CODE     ---       #451
      0100819FH   LINE      CODE     ---       #452
      ---         BLOCKEND  ---      ---       LVL=0

      010081B5H   BLOCK     CODE     ---       LVL=0
      010081B5H   LINE      CODE     ---       #455
      010081B5H   LINE      CODE     ---       #456
      010081B5H   LINE      CODE     ---       #457
      ---         BLOCKEND  ---      ---       LVL=0

      01007B13H   BLOCK     CODE     ---       LVL=0
      00000020H.0 SYMBOL    BIT      BIT       enable
      01007B13H   LINE      CODE     ---       #460
      01007B13H   LINE      CODE     ---       #461
      01007B13H   LINE      CODE     ---       #462
      ---         BLOCKEND  ---      ---       LVL=0

      010084B4H   BLOCK     CODE     ---       LVL=0
      00000007H   SYMBOL    DATA     BYTE      hour
      010084B4H   LINE      CODE     ---       #465
      010084B4H   LINE      CODE     ---       #466
      010084B4H   LINE      CODE     ---       #467
      ---         BLOCKEND  ---      ---       LVL=0

      010081CBH   BLOCK     CODE     ---       LVL=0
      010081CBH   LINE      CODE     ---       #470
      010081CBH   LINE      CODE     ---       #471
      010081CBH   LINE      CODE     ---       #472
      ---         BLOCKEND  ---      ---       LVL=0

      010084C7H   BLOCK     CODE     ---       LVL=0
      00000007H   SYMBOL    DATA     BYTE      min
      010084C7H   LINE      CODE     ---       #475
      010084C7H   LINE      CODE     ---       #476
      010084C7H   LINE      CODE     ---       #477
      ---         BLOCKEND  ---      ---       LVL=0

      0100834EH   BLOCK     CODE     ---       LVL=0
      0100834EH   LINE      CODE     ---       #480
      0100834EH   LINE      CODE     ---       #481
      0100834EH   LINE      CODE     ---       #482
      01008361H   LINE      CODE     ---       #483
      ---         BLOCKEND  ---      ---       LVL=0

      010081E1H   BLOCK     CODE     ---       LVL=0
      00000007H   SYMBOL    DATA     BYTE      day
      010081E1H   LINE      CODE     ---       #485
      010081E1H   LINE      CODE     ---       #486
      010081E1H   LINE      CODE     ---       #487
      010081E8H   LINE      CODE     ---       #488
      010081EBH   LINE      CODE     ---       #489
      010081EBH   LINE      CODE     ---       #490
      010081EDH   LINE      CODE     ---       #491
      010081F4H   LINE      CODE     ---       #492
LX51 LINKER/LOCATER V4.66.87.0                                                        05/30/2018  17:25:18  PAGE 87


      010081F6H   LINE      CODE     ---       #493
      010081F6H   LINE      CODE     ---       #494
      ---         BLOCKEND  ---      ---       LVL=0

      010082A7H   BLOCK     CODE     ---       LVL=0
      010082A7H   LINE      CODE     ---       #496
      010082A7H   LINE      CODE     ---       #497
      010082A7H   LINE      CODE     ---       #498
      010082BBH   LINE      CODE     ---       #500
      ---         BLOCKEND  ---      ---       LVL=0

      01007E95H   BLOCK     CODE     ---       LVL=0
      00000006H   SYMBOL    DATA     BYTE      date
      01007E95H   LINE      CODE     ---       #502
      01007E97H   LINE      CODE     ---       #503
      01007E97H   LINE      CODE     ---       #504
      01007EAEH   LINE      CODE     ---       #506
      ---         BLOCKEND  ---      ---       LVL=0

      01008362H   BLOCK     CODE     ---       LVL=0
      01008362H   LINE      CODE     ---       #508
      01008362H   LINE      CODE     ---       #509
      01008362H   LINE      CODE     ---       #510
      01008369H   LINE      CODE     ---       #511
      01008373H   LINE      CODE     ---       #512
      01008373H   LINE      CODE     ---       #513
      01008375H   LINE      CODE     ---       #514
      ---         BLOCKEND  ---      ---       LVL=0

      010081F7H   BLOCK     CODE     ---       LVL=0
      00000007H   SYMBOL    DATA     BYTE      sec
      010081F7H   LINE      CODE     ---       #517
      010081F7H   LINE      CODE     ---       #518
      010081F7H   LINE      CODE     ---       #519
      010081FCH   LINE      CODE     ---       #520
      01008202H   LINE      CODE     ---       #521
      01008206H   LINE      CODE     ---       #522
      01008208H   LINE      CODE     ---       #523
      0100820CH   LINE      CODE     ---       #524
      0100820CH   LINE      CODE     ---       #525
      ---         BLOCKEND  ---      ---       LVL=0

      01003495H   BLOCK     CODE     ---       LVL=0
      01003495H   BLOCK     CODE     NEAR LAB  LVL=1
      00000003H   SYMBOL    DATA     BYTE      dy
      00000007H   SYMBOL    DATA     BYTE      a1m1
      00000004H   SYMBOL    DATA     BYTE      a1m2
      00000005H   SYMBOL    DATA     BYTE      a1m3
      00000006H   SYMBOL    DATA     BYTE      a1m4
      ---         BLOCKEND  ---      ---       LVL=1
      01003495H   LINE      CODE     ---       #541
      01003495H   LINE      CODE     ---       #542
      01003495H   LINE      CODE     ---       #544
      0100349AH   LINE      CODE     ---       #545
      0100349FH   LINE      CODE     ---       #546
      010034A3H   LINE      CODE     ---       #547
      010034A8H   LINE      CODE     ---       #548
      010034ADH   LINE      CODE     ---       #549
      010034B1H   LINE      CODE     ---       #550
      010034BDH   LINE      CODE     ---       #551
      010034C0H   LINE      CODE     ---       #552
      010034CCH   LINE      CODE     ---       #553
      010034CFH   LINE      CODE     ---       #554
      010034DBH   LINE      CODE     ---       #555
      010034DEH   LINE      CODE     ---       #556
LX51 LINKER/LOCATER V4.66.87.0                                                        05/30/2018  17:25:18  PAGE 88


      010034EAH   LINE      CODE     ---       #557
      010034EDH   LINE      CODE     ---       #558
      010034FCH   LINE      CODE     ---       #559
      010034FFH   LINE      CODE     ---       #560
      010034FFH   LINE      CODE     ---       #561
      01003502H   LINE      CODE     ---       #562
      01003502H   LINE      CODE     ---       #563
      0100350AH   LINE      CODE     ---       #564
      0100350FH   LINE      CODE     ---       #565
      01003513H   LINE      CODE     ---       #566
      01003518H   LINE      CODE     ---       #567
      0100351CH   LINE      CODE     ---       #568
      01003525H   LINE      CODE     ---       #569
      01003528H   LINE      CODE     ---       #570
      01003531H   LINE      CODE     ---       #571
      01003534H   LINE      CODE     ---       #572
      0100353DH   LINE      CODE     ---       #573
      01003540H   LINE      CODE     ---       #574
      01003549H   LINE      CODE     ---       #575
      0100354CH   LINE      CODE     ---       #576
      01003558H   LINE      CODE     ---       #577
      0100355BH   LINE      CODE     ---       #578
      0100355BH   LINE      CODE     ---       #579
      0100355EH   LINE      CODE     ---       #580
      0100355EH   LINE      CODE     ---       #581
      0100355EH   LINE      CODE     ---       #582
      01003560H   LINE      CODE     ---       #583
      ---         BLOCKEND  ---      ---       LVL=0

      010045CCH   BLOCK     CODE     ---       LVL=0
      00000005H   SYMBOL    DATA     BYTE      mode
      010045CCH   LINE      CODE     ---       #584
      010045CEH   LINE      CODE     ---       #585
      010045CEH   LINE      CODE     ---       #586
      010045D9H   LINE      CODE     ---       #587
      010045D9H   LINE      CODE     ---       #588
      010045D9H   LINE      CODE     ---       #589
      010045DCH   LINE      CODE     ---       #590
      010045E1H   LINE      CODE     ---       #591
      010045E4H   LINE      CODE     ---       #592
      010045F6H   LINE      CODE     ---       #593
      010045F6H   LINE      CODE     ---       #594
      010045FDH   LINE      CODE     ---       #595
      010045FDH   LINE      CODE     ---       #596
      01004604H   LINE      CODE     ---       #597
      01004604H   LINE      CODE     ---       #598
      0100460BH   LINE      CODE     ---       #599
      0100460BH   LINE      CODE     ---       #600
      0100460EH   LINE      CODE     ---       #601
      0100460EH   LINE      CODE     ---       #602
      01004610H   LINE      CODE     ---       #603
      01004610H   LINE      CODE     ---       #604
      01004613H   LINE      CODE     ---       #605
      01004613H   LINE      CODE     ---       #606
      01004623H   LINE      CODE     ---       #607
      01004623H   LINE      CODE     ---       #608
      01004623H   LINE      CODE     ---       #609
      01004626H   LINE      CODE     ---       #610
      01004629H   LINE      CODE     ---       #611
      01004639H   LINE      CODE     ---       #612
      01004639H   LINE      CODE     ---       #613
      01004640H   LINE      CODE     ---       #614
      01004640H   LINE      CODE     ---       #615
      01004647H   LINE      CODE     ---       #616
      01004647H   LINE      CODE     ---       #617
LX51 LINKER/LOCATER V4.66.87.0                                                        05/30/2018  17:25:18  PAGE 89


      0100464EH   LINE      CODE     ---       #618
      0100464EH   LINE      CODE     ---       #619
      0100464FH   LINE      CODE     ---       #620
      0100464FH   LINE      CODE     ---       #621
      01004656H   LINE      CODE     ---       #622
      01004656H   LINE      CODE     ---       #623
      01004656H   LINE      CODE     ---       #624
      ---         BLOCKEND  ---      ---       LVL=0

      01008376H   BLOCK     CODE     ---       LVL=0
      01008376H   LINE      CODE     ---       #626
      01008376H   LINE      CODE     ---       #627
      01008376H   LINE      CODE     ---       #628
      ---         BLOCKEND  ---      ---       LVL=0

      010041D7H   BLOCK     CODE     ---       LVL=0
      02000014H   SYMBOL    XDATA    ---       integer
      02000017H   SYMBOL    XDATA    ---       flt
      010041DDH   BLOCK     CODE     NEAR LAB  LVL=1
      0200001AH   SYMBOL    XDATA    FLOAT     ret
      00000020H.1 SYMBOL    BIT      BIT       sign
      ---         BLOCKEND  ---      ---       LVL=1
      010041D7H   LINE      CODE     ---       #632
      010041DDH   LINE      CODE     ---       #633
      010041DDH   LINE      CODE     ---       #634
      010041E7H   LINE      CODE     ---       #635
      010041F3H   LINE      CODE     ---       #638
      010041F6H   LINE      CODE     ---       #639
      010041FCH   LINE      CODE     ---       #640
      010041FDH   LINE      CODE     ---       #641
      01004200H   LINE      CODE     ---       #642
      01004203H   LINE      CODE     ---       #643
      01004206H   LINE      CODE     ---       #644
      01004208H   LINE      CODE     ---       #645
      0100420EH   LINE      CODE     ---       #646
      0100420EH   LINE      CODE     ---       #647
      01004210H   LINE      CODE     ---       #648
      01004213H   LINE      CODE     ---       #649
      01004216H   LINE      CODE     ---       #650
      01004216H   LINE      CODE     ---       #652
      01004225H   LINE      CODE     ---       #654
      0100422FH   LINE      CODE     ---       #655
      01004237H   LINE      CODE     ---       #656
      0100423CH   LINE      CODE     ---       #657
      01004244H   LINE      CODE     ---       #658
      0100424CH   LINE      CODE     ---       #659
      01004251H   LINE      CODE     ---       #660
      01004253H   LINE      CODE     ---       #661
      0100425AH   LINE      CODE     ---       #662
      0100425AH   LINE      CODE     ---       #664
      0100426AH   LINE      CODE     ---       #666
      0100426CH   LINE      CODE     ---       #667
      ---         BLOCKEND  ---      ---       LVL=0

      0100765AH   BLOCK     CODE     ---       LVL=0
      00000007H   SYMBOL    DATA     BYTE      index
      00000020H.1 SYMBOL    BIT      BIT       enable
      0100765AH   LINE      CODE     ---       #670
      0100765AH   LINE      CODE     ---       #671
      0100765AH   LINE      CODE     ---       #672
      0100765DH   LINE      CODE     ---       #673
      01007664H   LINE      CODE     ---       #674
      01007668H   LINE      CODE     ---       #676
      0100766BH   LINE      CODE     ---       #677
      01007670H   LINE      CODE     ---       #678
LX51 LINKER/LOCATER V4.66.87.0                                                        05/30/2018  17:25:18  PAGE 90


      01007677H   LINE      CODE     ---       #679
      0100767BH   LINE      CODE     ---       #681
      0100767EH   LINE      CODE     ---       #682
      0100767EH   LINE      CODE     ---       #683
      ---         BLOCKEND  ---      ---       LVL=0

      01007B30H   BLOCK     CODE     ---       LVL=0
      00000007H   SYMBOL    DATA     BYTE      index
      01007B30H   LINE      CODE     ---       #685
      01007B30H   LINE      CODE     ---       #686
      01007B30H   LINE      CODE     ---       #687
      01007B33H   LINE      CODE     ---       #688
      01007B3DH   LINE      CODE     ---       #689
      01007B41H   LINE      CODE     ---       #690
      01007B4BH   LINE      CODE     ---       #691
      01007B4BH   LINE      CODE     ---       #692
      01007B4CH   LINE      CODE     ---       #693
      ---         BLOCKEND  ---      ---       LVL=0

      010080D0H   BLOCK     CODE     ---       LVL=0
      00000007H   SYMBOL    DATA     BYTE      index
      010080D0H   LINE      CODE     ---       #695
      010080D0H   LINE      CODE     ---       #696
      010080D0H   LINE      CODE     ---       #697
      010080D3H   LINE      CODE     ---       #698
      010080DAH   LINE      CODE     ---       #699
      010080DFH   LINE      CODE     ---       #700
      010080E6H   LINE      CODE     ---       #701
      010080E6H   LINE      CODE     ---       #702
      ---         BLOCKEND  ---      ---       LVL=0

      01007B4DH   BLOCK     CODE     ---       LVL=0
      00000007H   SYMBOL    DATA     BYTE      index
      01007B4DH   LINE      CODE     ---       #704
      01007B4DH   LINE      CODE     ---       #705
      01007B4DH   LINE      CODE     ---       #706
      01007B50H   LINE      CODE     ---       #707
      01007B5AH   LINE      CODE     ---       #708
      01007B5EH   LINE      CODE     ---       #709
      01007B68H   LINE      CODE     ---       #710
      01007B68H   LINE      CODE     ---       #711
      01007B69H   LINE      CODE     ---       #712
      ---         BLOCKEND  ---      ---       LVL=0

      010089A1H   BLOCK     CODE     ---       LVL=0
      010089A1H   LINE      CODE     ---       #714
      010089A1H   LINE      CODE     ---       #715
      010089A1H   LINE      CODE     ---       #716
      010089AAH   LINE      CODE     ---       #717
      ---         BLOCKEND  ---      ---       LVL=0

      010086C2H   BLOCK     CODE     ---       LVL=0
      00000024H.3 SYMBOL    BIT      BIT       val
      010086C2H   LINE      CODE     ---       #719
      010086C2H   LINE      CODE     ---       #720
      010086C2H   LINE      CODE     ---       #721
      010086C9H   LINE      CODE     ---       #722
      010086CCH   LINE      CODE     ---       #723
      010086D0H   LINE      CODE     ---       #724
      ---         BLOCKEND  ---      ---       LVL=0

      010089ABH   BLOCK     CODE     ---       LVL=0
      010089ABH   LINE      CODE     ---       #726
      010089ABH   LINE      CODE     ---       #727
      010089ABH   LINE      CODE     ---       #728
LX51 LINKER/LOCATER V4.66.87.0                                                        05/30/2018  17:25:18  PAGE 91


      010089B4H   LINE      CODE     ---       #729
      ---         BLOCKEND  ---      ---       LVL=0

      010086D1H   BLOCK     CODE     ---       LVL=0
      00000024H.4 SYMBOL    BIT      BIT       val
      010086D1H   LINE      CODE     ---       #731
      010086D1H   LINE      CODE     ---       #732
      010086D1H   LINE      CODE     ---       #733
      010086D8H   LINE      CODE     ---       #734
      010086DBH   LINE      CODE     ---       #735
      010086DFH   LINE      CODE     ---       #736
      ---         BLOCKEND  ---      ---       LVL=0

      010089B5H   BLOCK     CODE     ---       LVL=0
      010089B5H   LINE      CODE     ---       #738
      010089B5H   LINE      CODE     ---       #739
      010089B5H   LINE      CODE     ---       #740
      010089BEH   LINE      CODE     ---       #741
      ---         BLOCKEND  ---      ---       LVL=0

      010086E0H   BLOCK     CODE     ---       LVL=0
      00000024H.5 SYMBOL    BIT      BIT       val
      010086E0H   LINE      CODE     ---       #743
      010086E0H   LINE      CODE     ---       #744
      010086E0H   LINE      CODE     ---       #745
      010086E7H   LINE      CODE     ---       #746
      010086EAH   LINE      CODE     ---       #747
      010086EEH   LINE      CODE     ---       #748
      ---         BLOCKEND  ---      ---       LVL=0

      01008868H   BLOCK     CODE     ---       LVL=0
      01008868H   LINE      CODE     ---       #750
      01008868H   LINE      CODE     ---       #751
      01008868H   LINE      CODE     ---       #752
      01008874H   LINE      CODE     ---       #753
      ---         BLOCKEND  ---      ---       LVL=0

      010085FCH   BLOCK     CODE     ---       LVL=0
      00000007H   SYMBOL    DATA     BYTE      rt
      010085FCH   BLOCK     CODE     NEAR LAB  LVL=1
      00000007H   SYMBOL    DATA     BYTE      val
      ---         BLOCKEND  ---      ---       LVL=1
      010085FCH   LINE      CODE     ---       #755
      010085FCH   LINE      CODE     ---       #756
      010085FCH   LINE      CODE     ---       #757
      010085FCH   LINE      CODE     ---       #758
      01008604H   LINE      CODE     ---       #759
      0100860CH   LINE      CODE     ---       #760
      ---         BLOCKEND  ---      ---       LVL=0

      0100838AH   BLOCK     CODE     ---       LVL=0
      0100838AH   LINE      CODE     ---       #762
      0100838AH   LINE      CODE     ---       #763
      0100838AH   LINE      CODE     ---       #764
      ---         BLOCKEND  ---      ---       LVL=0

      010089BFH   BLOCK     CODE     ---       LVL=0
      010089BFH   LINE      CODE     ---       #767
      010089BFH   LINE      CODE     ---       #768
      010089BFH   LINE      CODE     ---       #769
      010089C8H   LINE      CODE     ---       #770
      ---         BLOCKEND  ---      ---       LVL=0

      010086EFH   BLOCK     CODE     ---       LVL=0
      00000020H.0 SYMBOL    BIT      BIT       val
LX51 LINKER/LOCATER V4.66.87.0                                                        05/30/2018  17:25:18  PAGE 92


      010086EFH   LINE      CODE     ---       #772
      010086EFH   LINE      CODE     ---       #773
      010086EFH   LINE      CODE     ---       #774
      010086F6H   LINE      CODE     ---       #775
      010086F9H   LINE      CODE     ---       #776
      010086FDH   LINE      CODE     ---       #777
      ---         BLOCKEND  ---      ---       LVL=0

      010089C9H   BLOCK     CODE     ---       LVL=0
      010089C9H   LINE      CODE     ---       #779
      010089C9H   LINE      CODE     ---       #780
      010089C9H   LINE      CODE     ---       #781
      010089D2H   LINE      CODE     ---       #782
      ---         BLOCKEND  ---      ---       LVL=0

      010086FEH   BLOCK     CODE     ---       LVL=0
      00000024H.6 SYMBOL    BIT      BIT       val
      010086FEH   LINE      CODE     ---       #784
      010086FEH   LINE      CODE     ---       #785
      010086FEH   LINE      CODE     ---       #786
      01008705H   LINE      CODE     ---       #787
      01008708H   LINE      CODE     ---       #788
      0100870CH   LINE      CODE     ---       #789
      ---         BLOCKEND  ---      ---       LVL=0

      010089D3H   BLOCK     CODE     ---       LVL=0
      010089D3H   LINE      CODE     ---       #791
      010089D3H   LINE      CODE     ---       #792
      010089D3H   LINE      CODE     ---       #793
      010089DCH   LINE      CODE     ---       #794
      ---         BLOCKEND  ---      ---       LVL=0

      0100870DH   BLOCK     CODE     ---       LVL=0
      00000020H.0 SYMBOL    BIT      BIT       val
      0100870DH   LINE      CODE     ---       #796
      0100870DH   LINE      CODE     ---       #797
      0100870DH   LINE      CODE     ---       #798
      01008714H   LINE      CODE     ---       #799
      01008717H   LINE      CODE     ---       #800
      0100871BH   LINE      CODE     ---       #801
      ---         BLOCKEND  ---      ---       LVL=0

      010089DDH   BLOCK     CODE     ---       LVL=0
      010089DDH   LINE      CODE     ---       #803
      010089DDH   LINE      CODE     ---       #804
      010089DDH   LINE      CODE     ---       #805
      010089E6H   LINE      CODE     ---       #806
      ---         BLOCKEND  ---      ---       LVL=0

      01007FE1H   BLOCK     CODE     ---       LVL=0
      01007FE1H   LINE      CODE     ---       #808
      01007FE1H   LINE      CODE     ---       #809
      01007FE1H   LINE      CODE     ---       #811
      01007FEAH   LINE      CODE     ---       #813
      01007FEFH   LINE      CODE     ---       #814
      01007FF4H   LINE      CODE     ---       #815
      ---         BLOCKEND  ---      ---       LVL=0

      01007FF9H   BLOCK     CODE     ---       LVL=0
      01007FF9H   LINE      CODE     ---       #819
      01007FF9H   LINE      CODE     ---       #820
      01007FF9H   LINE      CODE     ---       #821
      01008002H   LINE      CODE     ---       #823
      01008007H   LINE      CODE     ---       #824
      0100800CH   LINE      CODE     ---       #825
LX51 LINKER/LOCATER V4.66.87.0                                                        05/30/2018  17:25:18  PAGE 93


      ---         BLOCKEND  ---      ---       LVL=0

      ---         MODULE    ---      ---       I2C
      010080E7H   PUBLIC    CODE     ---       _I2C_Get
      0200001DH   PUBLIC    XDATA    BYTE      ?_I2C_Gets?BYTE
      01004F92H   PUBLIC    CODE     ---       _I2C_Gets
      0100839EH   PUBLIC    CODE     ---       _I2C_Put
      0200001AH   PUBLIC    XDATA    BYTE      ?_I2C_Puts?BYTE
      01005D1FH   PUBLIC    CODE     ---       _I2C_Puts
      00000020H.2 PUBLIC    BIT      BIT       ?I2C_PutAck?BIT
      01008525H   PUBLIC    CODE     ---       I2C_PutAck
      0100784EH   PUBLIC    CODE     ---       I2C_GetAck
      01006FEDH   PUBLIC    CODE     ---       I2C_Read
      01007A5CH   PUBLIC    CODE     ---       _I2C_Write
      0100820DH   PUBLIC    CODE     ---       I2C_Stop
      0100891DH   PUBLIC    CODE     ---       I2C_Start
      010089E7H   PUBLIC    CODE     ---       I2C_Init
      01008615H   PUBLIC    CODE     ---       I2C_Delay
      00000080H   SFRSYM    DATA     BYTE      P0
      00000090H   SFRSYM    DATA     BYTE      P1
      00000090H.7 SFRSYM    DATA     BIT       I2C_SCL
      000000A0H   SFRSYM    DATA     BYTE      P2
      000000B0H   SFRSYM    DATA     BYTE      P3
      000000C0H   SFRSYM    DATA     BYTE      XICON
      000000B0H.4 SFRSYM    DATA     BIT       T0
      000000D0H.6 SFRSYM    DATA     BIT       AC
      000000E8H   SFRSYM    DATA     BYTE      P4
      000000B0H.5 SFRSYM    DATA     BIT       T1
      000000E6H   SFRSYM    DATA     BYTE      ISP_TRIG
      00000090H.0 SFRSYM    DATA     BIT       T2
      000000A8H.7 SFRSYM    DATA     BIT       EA
      000000A8H.6 SFRSYM    DATA     BIT       EC
      00000098H.7 SFRSYM    DATA     BIT       FE
      000000A8H   SFRSYM    DATA     BYTE      IE
      000000C8H.6 SFRSYM    DATA     BIT       EXF2
      000000B0H.7 SFRSYM    DATA     BIT       RD
      000000A8H.4 SFRSYM    DATA     BIT       ES
      000000B8H   SFRSYM    DATA     BYTE      IP
      00000098H.0 SFRSYM    DATA     BIT       RI
      000000B0H.2 SFRSYM    DATA     BIT       INT0
      000000D0H.7 SFRSYM    DATA     BIT       CY
      00000098H.1 SFRSYM    DATA     BIT       TI
      000000B0H.3 SFRSYM    DATA     BIT       INT1
      000000CBH   SFRSYM    DATA     BYTE      RCAP2H
      000000E5H   SFRSYM    DATA     BYTE      ISP_CMD
      000000B8H.4 SFRSYM    DATA     BIT       PS
      00000081H   SFRSYM    DATA     BYTE      SP
      00000090H.1 SFRSYM    DATA     BIT       T2EX
      000000D0H.2 SFRSYM    DATA     BIT       OV
      000000CAH   SFRSYM    DATA     BYTE      RCAP2L
      000000C8H.1 SFRSYM    DATA     BIT       C_T2
      000000B0H.6 SFRSYM    DATA     BIT       WR
      000000C8H.5 SFRSYM    DATA     BIT       RCLK
      000000C8H.4 SFRSYM    DATA     BIT       TCLK
      00000080H.0 SFRSYM    DATA     BIT       P00
      00000099H   SFRSYM    DATA     BYTE      SBUF
      00000087H   SFRSYM    DATA     BYTE      PCON
      00000090H.0 SFRSYM    DATA     BIT       P10
      00000080H.1 SFRSYM    DATA     BIT       P01
      000000A0H.0 SFRSYM    DATA     BIT       P20
      00000090H.1 SFRSYM    DATA     BIT       P11
      00000080H.2 SFRSYM    DATA     BIT       P02
      000000E3H   SFRSYM    DATA     BYTE      ISP_ADDRH
      000000B0H.0 SFRSYM    DATA     BIT       P30
      000000A0H.1 SFRSYM    DATA     BIT       P21
LX51 LINKER/LOCATER V4.66.87.0                                                        05/30/2018  17:25:18  PAGE 94


      00000090H.2 SFRSYM    DATA     BIT       P12
      00000080H.3 SFRSYM    DATA     BIT       P03
      00000098H   SFRSYM    DATA     BYTE      SCON
      000000B0H.1 SFRSYM    DATA     BIT       P31
      000000A0H.2 SFRSYM    DATA     BIT       P22
      00000090H.3 SFRSYM    DATA     BIT       P13
      00000080H.4 SFRSYM    DATA     BIT       P04
      000000E8H.0 SFRSYM    DATA     BIT       P40
      00000089H   SFRSYM    DATA     BYTE      TMOD
      00000088H   SFRSYM    DATA     BYTE      TCON
      000000B0H.2 SFRSYM    DATA     BIT       P32
      000000A0H.3 SFRSYM    DATA     BIT       P23
      00000090H.4 SFRSYM    DATA     BIT       P14
      00000080H.5 SFRSYM    DATA     BIT       P05
      000000E8H.1 SFRSYM    DATA     BIT       P41
      000000B0H.3 SFRSYM    DATA     BIT       P33
      000000A0H.4 SFRSYM    DATA     BIT       P24
      00000090H.5 SFRSYM    DATA     BIT       P15
      00000080H.6 SFRSYM    DATA     BIT       P06
      000000E4H   SFRSYM    DATA     BYTE      ISP_ADDRL
      000000E8H.2 SFRSYM    DATA     BIT       P42
      000000B0H.4 SFRSYM    DATA     BIT       P34
      000000A0H.5 SFRSYM    DATA     BIT       P25
      00000090H.6 SFRSYM    DATA     BIT       P16
      00000080H.7 SFRSYM    DATA     BIT       P07
      000000E8H.3 SFRSYM    DATA     BIT       P43
      000000B0H.5 SFRSYM    DATA     BIT       P35
      000000A0H.6 SFRSYM    DATA     BIT       P26
      00000090H.7 SFRSYM    DATA     BIT       P17
      000000E8H.4 SFRSYM    DATA     BIT       P44
      000000B0H.6 SFRSYM    DATA     BIT       P36
      000000A0H.7 SFRSYM    DATA     BIT       P27
      000000E8H.5 SFRSYM    DATA     BIT       P45
      000000B0H.7 SFRSYM    DATA     BIT       P37
      000000E8H.6 SFRSYM    DATA     BIT       P46
      00000088H.1 SFRSYM    DATA     BIT       IE0
      00000088H.3 SFRSYM    DATA     BIT       IE1
      0000008EH   SFRSYM    DATA     BYTE      AUXR
      000000F0H   SFRSYM    DATA     BYTE      B
      000000C8H.0 SFRSYM    DATA     BIT       CP_RL2
      000000E0H   SFRSYM    DATA     BYTE      ACC
      000000A8H.1 SFRSYM    DATA     BIT       ET0
      000000A8H.3 SFRSYM    DATA     BIT       ET1
      00000088H.5 SFRSYM    DATA     BIT       TF0
      000000A8H.5 SFRSYM    DATA     BIT       ET2
      00000088H.7 SFRSYM    DATA     BIT       TF1
      000000C8H.7 SFRSYM    DATA     BIT       TF2
      00000098H.2 SFRSYM    DATA     BIT       RB8
      0000008CH   SFRSYM    DATA     BYTE      TH0
      000000A8H.0 SFRSYM    DATA     BIT       EX0
      00000088H.0 SFRSYM    DATA     BIT       IT0
      0000008DH   SFRSYM    DATA     BYTE      TH1
      00000098H.3 SFRSYM    DATA     BIT       TB8
      000000A8H.2 SFRSYM    DATA     BIT       EX1
      00000088H.2 SFRSYM    DATA     BIT       IT1
      000000CDH   SFRSYM    DATA     BYTE      TH2
      000000D0H.0 SFRSYM    DATA     BIT       P
      00000098H.7 SFRSYM    DATA     BIT       SM0
      0000008AH   SFRSYM    DATA     BYTE      TL0
      00000098H.6 SFRSYM    DATA     BIT       SM1
      0000008BH   SFRSYM    DATA     BYTE      TL1
      00000098H.5 SFRSYM    DATA     BIT       SM2
      000000CCH   SFRSYM    DATA     BYTE      TL2
      000000B8H.1 SFRSYM    DATA     BIT       PT0
      000000B8H.3 SFRSYM    DATA     BIT       PT1
LX51 LINKER/LOCATER V4.66.87.0                                                        05/30/2018  17:25:18  PAGE 95


      000000D0H.3 SFRSYM    DATA     BIT       RS0
      000000E7H   SFRSYM    DATA     BYTE      ISP_CONTR
      000000B8H.5 SFRSYM    DATA     BIT       PT2
      00000088H.4 SFRSYM    DATA     BIT       TR0
      000000D0H.4 SFRSYM    DATA     BIT       RS1
      00000088H.6 SFRSYM    DATA     BIT       TR1
      000000C8H.2 SFRSYM    DATA     BIT       TR2
      000000B8H.0 SFRSYM    DATA     BIT       PX0
      000000E1H   SFRSYM    DATA     BYTE      WDT_CONTR
      000000B8H.2 SFRSYM    DATA     BIT       PX1
      00000083H   SFRSYM    DATA     BYTE      DPH
      00000082H   SFRSYM    DATA     BYTE      DPL
      000000B7H   SFRSYM    DATA     BYTE      IPH
      000000C8H.3 SFRSYM    DATA     BIT       EXEN2
      00000098H.4 SFRSYM    DATA     BIT       REN
      000000C9H   SFRSYM    DATA     BYTE      T2MOD
      000000C8H   SFRSYM    DATA     BYTE      T2CON
      000000E2H   SFRSYM    DATA     BYTE      ISP_DATA
      000000B9H   SFRSYM    DATA     BYTE      SADEN
      000000B0H.0 SFRSYM    DATA     BIT       RXD
      000000A9H   SFRSYM    DATA     BYTE      SADDR
      000000B0H.1 SFRSYM    DATA     BIT       TXD
      000000A2H   SFRSYM    DATA     BYTE      AUXR1
      000000D0H.5 SFRSYM    DATA     BIT       F0
      00000090H.6 SFRSYM    DATA     BIT       I2C_SDA
      000000D0H   SFRSYM    DATA     BYTE      PSW

      010089F1H   BLOCK     CODE     ---       LVL=0
      ---         BLOCKEND  ---      ---       LVL=0

      0100860DH   BLOCK     CODE     ---       LVL=0
      ---         BLOCKEND  ---      ---       LVL=0

      01008615H   BLOCK     CODE     ---       LVL=0
      00000007H   SYMBOL    DATA     BYTE      c
      01008615H   BLOCK     CODE     NEAR LAB  LVL=1
      00000007H   SYMBOL    DATA     BYTE      c
      ---         BLOCKEND  ---      ---       LVL=1
      01008615H   LINE      CODE     ---       #5
      01008615H   LINE      CODE     ---       #6
      01008615H   LINE      CODE     ---       #8
      01008617H   LINE      CODE     ---       #9
      0100861DH   LINE      CODE     ---       #10
      ---         BLOCKEND  ---      ---       LVL=0

      010089E7H   BLOCK     CODE     ---       LVL=0
      010089E7H   LINE      CODE     ---       #15
      010089E7H   LINE      CODE     ---       #16
      010089E7H   LINE      CODE     ---       #17
      010089E9H   LINE      CODE     ---       #18
      010089ECH   LINE      CODE     ---       #19
      010089EEH   LINE      CODE     ---       #20
      ---         BLOCKEND  ---      ---       LVL=0

      0100891DH   BLOCK     CODE     ---       LVL=0
      0100891DH   LINE      CODE     ---       #24
      0100891DH   LINE      CODE     ---       #25
      0100891DH   LINE      CODE     ---       #28
      0100891DH   LINE      CODE     ---       #29
      0100891DH   LINE      CODE     ---       #30
      0100891DH   LINE      CODE     ---       #31
      01008920H   LINE      CODE     ---       #32
      01008922H   LINE      CODE     ---       #33
      01008922H   LINE      CODE     ---       #34
      01008922H   LINE      CODE     ---       #35
LX51 LINKER/LOCATER V4.66.87.0                                                        05/30/2018  17:25:18  PAGE 96


      01008922H   LINE      CODE     ---       #36
      01008925H   LINE      CODE     ---       #37
      ---         BLOCKEND  ---      ---       LVL=0

      0100820DH   BLOCK     CODE     ---       LVL=0
      0100820DH   BLOCK     CODE     NEAR LAB  LVL=1
      00000004H   SYMBOL    DATA     WORD      t
      ---         BLOCKEND  ---      ---       LVL=1
      0100820DH   LINE      CODE     ---       #40
      0100820DH   LINE      CODE     ---       #41
      0100820DH   LINE      CODE     ---       #42
      01008211H   LINE      CODE     ---       #44
      01008213H   LINE      CODE     ---       #45
      01008216H   LINE      CODE     ---       #47
      01008216H   LINE      CODE     ---       #48
      01008216H   LINE      CODE     ---       #49
      01008216H   LINE      CODE     ---       #50
      01008219H   LINE      CODE     ---       #54
      01008222H   LINE      CODE     ---       #55
      ---         BLOCKEND  ---      ---       LVL=0

      01007A5CH   BLOCK     CODE     ---       LVL=0
      00000006H   SYMBOL    DATA     BYTE      dat
      01007A5EH   BLOCK     CODE     NEAR LAB  LVL=1
      00000005H   SYMBOL    DATA     BYTE      t
      ---         BLOCKEND  ---      ---       LVL=1
      01007A5CH   LINE      CODE     ---       #59
      01007A5EH   LINE      CODE     ---       #60
      01007A5EH   LINE      CODE     ---       #63
      01007A60H   LINE      CODE     ---       #64
      01007A60H   LINE      CODE     ---       #66
      01007A64H   LINE      CODE     ---       #67
      01007A67H   LINE      CODE     ---       #68
      01007A69H   LINE      CODE     ---       #69
      01007A6CH   LINE      CODE     ---       #70
      01007A6EH   LINE      CODE     ---       #71
      01007A71H   LINE      CODE     ---       #72
      01007A75H   LINE      CODE     ---       #73
      01007A7AH   LINE      CODE     ---       #76
      ---         BLOCKEND  ---      ---       LVL=0

      01006FEDH   BLOCK     CODE     ---       LVL=0
      01006FEDH   BLOCK     CODE     NEAR LAB  LVL=1
      00000006H   SYMBOL    DATA     BYTE      dat
      00000005H   SYMBOL    DATA     BYTE      t
      00000020H.2 SYMBOL    BIT      BIT       temp
      ---         BLOCKEND  ---      ---       LVL=1
      01006FEDH   LINE      CODE     ---       #78
      01006FEDH   LINE      CODE     ---       #79
      01006FEDH   LINE      CODE     ---       #80
      01006FEFH   LINE      CODE     ---       #83
      01006FF2H   LINE      CODE     ---       #84
      01006FF2H   LINE      CODE     ---       #85
      01006FF2H   LINE      CODE     ---       #87
      01006FF5H   LINE      CODE     ---       #89
      01006FF7H   LINE      CODE     ---       #90
      01006FF7H   LINE      CODE     ---       #91
      01006FF9H   LINE      CODE     ---       #92
      01006FFCH   LINE      CODE     ---       #93
      01006FFEH   LINE      CODE     ---       #94
      01007001H   LINE      CODE     ---       #95
      01007005H   LINE      CODE     ---       #96
      01007009H   LINE      CODE     ---       #97
      0100700FH   LINE      CODE     ---       #98
      01007014H   LINE      CODE     ---       #100
LX51 LINKER/LOCATER V4.66.87.0                                                        05/30/2018  17:25:18  PAGE 97


      01007016H   LINE      CODE     ---       #101
      01007019H   LINE      CODE     ---       #103
      0100701BH   LINE      CODE     ---       #104
      ---         BLOCKEND  ---      ---       LVL=0

      0100784EH   BLOCK     CODE     ---       LVL=0
      0100784EH   BLOCK     CODE     NEAR LAB  LVL=1
      00000020H.2 SYMBOL    BIT      BIT       ack
      00000006H   SYMBOL    DATA     BYTE      Error_time
      ---         BLOCKEND  ---      ---       LVL=1
      0100784EH   LINE      CODE     ---       #108
      0100784EH   LINE      CODE     ---       #109
      0100784EH   LINE      CODE     ---       #111
      01007850H   LINE      CODE     ---       #113
      01007850H   LINE      CODE     ---       #114
      01007850H   LINE      CODE     ---       #115
      01007853H   LINE      CODE     ---       #116
      01007855H   LINE      CODE     ---       #117
      01007858H   LINE      CODE     ---       #119
      01007858H   LINE      CODE     ---       #120
      0100785CH   LINE      CODE     ---       #121
      0100785EH   LINE      CODE     ---       #122
      0100785EH   LINE      CODE     ---       #123
      0100785EH   LINE      CODE     ---       #124
      01007860H   LINE      CODE     ---       #125
      01007863H   LINE      CODE     ---       #126
      01007865H   LINE      CODE     ---       #127
      01007865H   LINE      CODE     ---       #128
      01007868H   LINE      CODE     ---       #131
      01007868H   LINE      CODE     ---       #132
      01007868H   LINE      CODE     ---       #133
      0100786BH   LINE      CODE     ---       #134
      0100786EH   LINE      CODE     ---       #135
      0100786FH   LINE      CODE     ---       #136
      ---         BLOCKEND  ---      ---       LVL=0

      01008525H   BLOCK     CODE     ---       LVL=0
      00000020H.2 SYMBOL    BIT      BIT       ack
      01008525H   LINE      CODE     ---       #138
      01008525H   LINE      CODE     ---       #139
      01008525H   LINE      CODE     ---       #141
      01008529H   LINE      CODE     ---       #142
      0100852CH   LINE      CODE     ---       #143
      0100852EH   LINE      CODE     ---       #144
      0100852EH   LINE      CODE     ---       #146
      0100852EH   LINE      CODE     ---       #147
      0100852EH   LINE      CODE     ---       #148
      01008531H   LINE      CODE     ---       #149
      01008534H   LINE      CODE     ---       #150
      ---         BLOCKEND  ---      ---       LVL=0

      01005D1FH   BLOCK     CODE     ---       LVL=0
      00000006H   SYMBOL    DATA     BYTE      SlaveAddr
      00000004H   SYMBOL    DATA     BYTE      SubAddr
      0200001CH   SYMBOL    XDATA    BYTE      Size
      0200001DH   SYMBOL    XDATA    ---       dat
      01005D1FH   LINE      CODE     ---       #219
      01005D28H   LINE      CODE     ---       #220
      01005D28H   LINE      CODE     ---       #222
      01005D2CH   LINE      CODE     ---       #224
      01005D30H   LINE      CODE     ---       #226
      01005D33H   LINE      CODE     ---       #228
      01005D35H   LINE      CODE     ---       #229
      01005D3AH   LINE      CODE     ---       #230
      01005D3AH   LINE      CODE     ---       #231
LX51 LINKER/LOCATER V4.66.87.0                                                        05/30/2018  17:25:18  PAGE 98


      01005D3AH   LINE      CODE     ---       #232
      01005D3CH   LINE      CODE     ---       #233
      01005D3CH   LINE      CODE     ---       #235
      01005D3EH   LINE      CODE     ---       #236
      01005D43H   LINE      CODE     ---       #237
      01005D43H   LINE      CODE     ---       #238
      01005D43H   LINE      CODE     ---       #239
      01005D45H   LINE      CODE     ---       #240
      01005D45H   LINE      CODE     ---       #243
      01005D45H   LINE      CODE     ---       #244
      01005D56H   LINE      CODE     ---       #245
      01005D5BH   LINE      CODE     ---       #246
      01005D5BH   LINE      CODE     ---       #247
      01005D5EH   LINE      CODE     ---       #248
      01005D60H   LINE      CODE     ---       #249
      01005D60H   LINE      CODE     ---       #250
      01005D68H   LINE      CODE     ---       #252
      01005D6BH   LINE      CODE     ---       #253
      01005D6CH   LINE      CODE     ---       #254
      ---         BLOCKEND  ---      ---       LVL=0

      0100839EH   BLOCK     CODE     ---       LVL=0
      00000007H   SYMBOL    DATA     BYTE      SlaveAddr
      00000005H   SYMBOL    DATA     BYTE      SubAddr
      02000019H   SYMBOL    XDATA    CHAR      dat
      0100839EH   LINE      CODE     ---       #256
      010083A3H   LINE      CODE     ---       #257
      010083A3H   LINE      CODE     ---       #258
      ---         BLOCKEND  ---      ---       LVL=0

      01004F92H   BLOCK     CODE     ---       LVL=0
      00000004H   SYMBOL    DATA     BYTE      SlaveAddr
      00000001H   SYMBOL    DATA     BYTE      SubAddr
      0200001FH   SYMBOL    XDATA    BYTE      Size
      02000020H   SYMBOL    XDATA    ---       dat
      01004F92H   LINE      CODE     ---       #262
      01004F9BH   LINE      CODE     ---       #263
      01004F9BH   LINE      CODE     ---       #264
      01004F9FH   LINE      CODE     ---       #266
      01004FA3H   LINE      CODE     ---       #268
      01004FA6H   LINE      CODE     ---       #270
      01004FA8H   LINE      CODE     ---       #271
      01004FADH   LINE      CODE     ---       #272
      01004FADH   LINE      CODE     ---       #273
      01004FADH   LINE      CODE     ---       #274
      01004FAFH   LINE      CODE     ---       #275
      01004FAFH   LINE      CODE     ---       #277
      01004FB1H   LINE      CODE     ---       #278
      01004FB6H   LINE      CODE     ---       #279
      01004FB6H   LINE      CODE     ---       #280
      01004FB6H   LINE      CODE     ---       #281
      01004FB8H   LINE      CODE     ---       #282
      01004FB8H   LINE      CODE     ---       #284
      01004FBBH   LINE      CODE     ---       #286
      01004FBFH   LINE      CODE     ---       #287
      01004FC3H   LINE      CODE     ---       #288
      01004FC8H   LINE      CODE     ---       #289
      01004FC8H   LINE      CODE     ---       #290
      01004FCBH   LINE      CODE     ---       #291
      01004FCDH   LINE      CODE     ---       #292
      01004FCDH   LINE      CODE     ---       #294
      01004FCDH   LINE      CODE     ---       #295
      01004FCDH   LINE      CODE     ---       #296
      01004FDEH   LINE      CODE     ---       #297
      01004FE6H   LINE      CODE     ---       #298
LX51 LINKER/LOCATER V4.66.87.0                                                        05/30/2018  17:25:18  PAGE 99


      01004FE6H   LINE      CODE     ---       #299
      01004FEBH   LINE      CODE     ---       #300
      01004FEDH   LINE      CODE     ---       #301
      01004FEDH   LINE      CODE     ---       #302
      01004FF2H   LINE      CODE     ---       #303
      01004FF4H   LINE      CODE     ---       #305
      01004FF7H   LINE      CODE     ---       #306
      01004FF8H   LINE      CODE     ---       #307
      ---         BLOCKEND  ---      ---       LVL=0

      010080E7H   BLOCK     CODE     ---       LVL=0
      00000007H   SYMBOL    DATA     BYTE      SlaveAddr
      00000005H   SYMBOL    DATA     BYTE      SubAddr
      0200001AH   SYMBOL    XDATA    ---       dat
      010080E7H   LINE      CODE     ---       #309
      010080EDH   LINE      CODE     ---       #310
      010080EDH   LINE      CODE     ---       #311
      ---         BLOCKEND  ---      ---       LVL=0

      ---         MODULE    ---      ---       KEY
      01008A3FH   PUBLIC    CODE     ---       key_leave_powersave
      01008A36H   PUBLIC    CODE     ---       key_enter_powersave
      01007F64H   PUBLIC    CODE     ---       key_initialize
      01006BCCH   PUBLIC    CODE     ---       _mod_set_proc
      01006005H   PUBLIC    CODE     ---       _set_proc
      01005FB5H   PUBLIC    CODE     ---       _mod_proc
      01002A62H   PUBLIC    CODE     ---       _scan_key_proc
      00000080H   SFRSYM    DATA     BYTE      P0
      00000090H   SFRSYM    DATA     BYTE      P1
      000000A0H   SFRSYM    DATA     BYTE      P2
      000000B0H   SFRSYM    DATA     BYTE      P3
      000000C0H   SFRSYM    DATA     BYTE      XICON
      000000B0H.4 SFRSYM    DATA     BIT       T0
      000000D0H.6 SFRSYM    DATA     BIT       AC
      000000E8H   SFRSYM    DATA     BYTE      P4
      000000B0H.5 SFRSYM    DATA     BIT       T1
      000000E6H   SFRSYM    DATA     BYTE      ISP_TRIG
      00000090H.0 SFRSYM    DATA     BIT       T2
      000000A8H.7 SFRSYM    DATA     BIT       EA
      000000A8H.6 SFRSYM    DATA     BIT       EC
      00000098H.7 SFRSYM    DATA     BIT       FE
      000000A8H   SFRSYM    DATA     BYTE      IE
      000000C8H.6 SFRSYM    DATA     BIT       EXF2
      000000B0H.7 SFRSYM    DATA     BIT       RD
      000000A8H.4 SFRSYM    DATA     BIT       ES
      000000B8H   SFRSYM    DATA     BYTE      IP
      00000098H.0 SFRSYM    DATA     BIT       RI
      000000B0H.2 SFRSYM    DATA     BIT       INT0
      000000D0H.7 SFRSYM    DATA     BIT       CY
      00000098H.1 SFRSYM    DATA     BIT       TI
      000000B0H.3 SFRSYM    DATA     BIT       INT1
      000000CBH   SFRSYM    DATA     BYTE      RCAP2H
      000000E5H   SFRSYM    DATA     BYTE      ISP_CMD
      000000B8H.4 SFRSYM    DATA     BIT       PS
      00000081H   SFRSYM    DATA     BYTE      SP
      00000090H.1 SFRSYM    DATA     BIT       T2EX
      000000D0H.2 SFRSYM    DATA     BIT       OV
      000000CAH   SFRSYM    DATA     BYTE      RCAP2L
      000000C8H.1 SFRSYM    DATA     BIT       C_T2
      000000B0H.6 SFRSYM    DATA     BIT       WR
      000000A0H.6 SFRSYM    DATA     BIT       MOD_KEY
      000000C8H.5 SFRSYM    DATA     BIT       RCLK
      000000C8H.4 SFRSYM    DATA     BIT       TCLK
      00000080H.0 SFRSYM    DATA     BIT       P00
      00000099H   SFRSYM    DATA     BYTE      SBUF
LX51 LINKER/LOCATER V4.66.87.0                                                        05/30/2018  17:25:18  PAGE 100


      00000087H   SFRSYM    DATA     BYTE      PCON
      00000090H.0 SFRSYM    DATA     BIT       P10
      00000080H.1 SFRSYM    DATA     BIT       P01
      000000A0H.0 SFRSYM    DATA     BIT       P20
      00000090H.1 SFRSYM    DATA     BIT       P11
      00000080H.2 SFRSYM    DATA     BIT       P02
      000000E3H   SFRSYM    DATA     BYTE      ISP_ADDRH
      000000B0H.0 SFRSYM    DATA     BIT       P30
      000000A0H.1 SFRSYM    DATA     BIT       P21
      00000090H.2 SFRSYM    DATA     BIT       P12
      00000080H.3 SFRSYM    DATA     BIT       P03
      00000098H   SFRSYM    DATA     BYTE      SCON
      000000B0H.1 SFRSYM    DATA     BIT       P31
      000000A0H.2 SFRSYM    DATA     BIT       P22
      00000090H.3 SFRSYM    DATA     BIT       P13
      00000080H.4 SFRSYM    DATA     BIT       P04
      000000E8H.0 SFRSYM    DATA     BIT       P40
      00000089H   SFRSYM    DATA     BYTE      TMOD
      00000088H   SFRSYM    DATA     BYTE      TCON
      000000B0H.2 SFRSYM    DATA     BIT       P32
      000000A0H.3 SFRSYM    DATA     BIT       P23
      00000090H.4 SFRSYM    DATA     BIT       P14
      00000080H.5 SFRSYM    DATA     BIT       P05
      000000E8H.1 SFRSYM    DATA     BIT       P41
      000000B0H.3 SFRSYM    DATA     BIT       P33
      000000A0H.4 SFRSYM    DATA     BIT       P24
      00000090H.5 SFRSYM    DATA     BIT       P15
      00000080H.6 SFRSYM    DATA     BIT       P06
      000000E4H   SFRSYM    DATA     BYTE      ISP_ADDRL
      000000E8H.2 SFRSYM    DATA     BIT       P42
      000000A0H.7 SFRSYM    DATA     BIT       SET_KEY
      000000B0H.4 SFRSYM    DATA     BIT       P34
      000000A0H.5 SFRSYM    DATA     BIT       P25
      00000090H.6 SFRSYM    DATA     BIT       P16
      00000080H.7 SFRSYM    DATA     BIT       P07
      000000E8H.3 SFRSYM    DATA     BIT       P43
      000000B0H.5 SFRSYM    DATA     BIT       P35
      000000A0H.6 SFRSYM    DATA     BIT       P26
      00000090H.7 SFRSYM    DATA     BIT       P17
      000000E8H.4 SFRSYM    DATA     BIT       P44
      000000B0H.6 SFRSYM    DATA     BIT       P36
      000000A0H.7 SFRSYM    DATA     BIT       P27
      000000E8H.5 SFRSYM    DATA     BIT       P45
      000000B0H.7 SFRSYM    DATA     BIT       P37
      000000E8H.6 SFRSYM    DATA     BIT       P46
      00000088H.1 SFRSYM    DATA     BIT       IE0
      00000088H.3 SFRSYM    DATA     BIT       IE1
      0000008EH   SFRSYM    DATA     BYTE      AUXR
      000000F0H   SFRSYM    DATA     BYTE      B
      000000C8H.0 SFRSYM    DATA     BIT       CP_RL2
      000000E0H   SFRSYM    DATA     BYTE      ACC
      000000A8H.1 SFRSYM    DATA     BIT       ET0
      000000A8H.3 SFRSYM    DATA     BIT       ET1
      00000088H.5 SFRSYM    DATA     BIT       TF0
      000000A8H.5 SFRSYM    DATA     BIT       ET2
      00000088H.7 SFRSYM    DATA     BIT       TF1
      000000C8H.7 SFRSYM    DATA     BIT       TF2
      00000098H.2 SFRSYM    DATA     BIT       RB8
      0000008CH   SFRSYM    DATA     BYTE      TH0
      000000A8H.0 SFRSYM    DATA     BIT       EX0
      00000088H.0 SFRSYM    DATA     BIT       IT0
      0000008DH   SFRSYM    DATA     BYTE      TH1
      00000098H.3 SFRSYM    DATA     BIT       TB8
      000000A8H.2 SFRSYM    DATA     BIT       EX1
      00000088H.2 SFRSYM    DATA     BIT       IT1
LX51 LINKER/LOCATER V4.66.87.0                                                        05/30/2018  17:25:18  PAGE 101


      000000CDH   SFRSYM    DATA     BYTE      TH2
      000000D0H.0 SFRSYM    DATA     BIT       P
      00000098H.7 SFRSYM    DATA     BIT       SM0
      0000008AH   SFRSYM    DATA     BYTE      TL0
      00000098H.6 SFRSYM    DATA     BIT       SM1
      0000008BH   SFRSYM    DATA     BYTE      TL1
      00000098H.5 SFRSYM    DATA     BIT       SM2
      000000CCH   SFRSYM    DATA     BYTE      TL2
      000000B8H.1 SFRSYM    DATA     BIT       PT0
      000000B8H.3 SFRSYM    DATA     BIT       PT1
      000000D0H.3 SFRSYM    DATA     BIT       RS0
      000000E7H   SFRSYM    DATA     BYTE      ISP_CONTR
      000000B8H.5 SFRSYM    DATA     BIT       PT2
      00000088H.4 SFRSYM    DATA     BIT       TR0
      000000D0H.4 SFRSYM    DATA     BIT       RS1
      00000088H.6 SFRSYM    DATA     BIT       TR1
      000000C8H.2 SFRSYM    DATA     BIT       TR2
      000000B8H.0 SFRSYM    DATA     BIT       PX0
      000000E1H   SFRSYM    DATA     BYTE      WDT_CONTR
      000000B8H.2 SFRSYM    DATA     BIT       PX1
      00000083H   SFRSYM    DATA     BYTE      DPH
      00000082H   SFRSYM    DATA     BYTE      DPL
      000000B7H   SFRSYM    DATA     BYTE      IPH
      000000C8H.3 SFRSYM    DATA     BIT       EXEN2
      00000098H.4 SFRSYM    DATA     BIT       REN
      000000C9H   SFRSYM    DATA     BYTE      T2MOD
      000000C8H   SFRSYM    DATA     BYTE      T2CON
      000000E2H   SFRSYM    DATA     BYTE      ISP_DATA
      000000B9H   SFRSYM    DATA     BYTE      SADEN
      000000B0H.0 SFRSYM    DATA     BIT       RXD
      000000A9H   SFRSYM    DATA     BYTE      SADDR
      000000B0H.1 SFRSYM    DATA     BIT       TXD
      000000A2H   SFRSYM    DATA     BYTE      AUXR1
      000000D0H.5 SFRSYM    DATA     BIT       F0
      000000D0H   SFRSYM    DATA     BYTE      PSW
      020000DEH   SYMBOL    XDATA    BYTE      last_mod_tmr_count
      020000DFH   SYMBOL    XDATA    BYTE      last_set_tmr_count
      01006DD7H   SYMBOL    CODE     ---       int0_ISR
      00000023H.5 SYMBOL    BIT      BIT       mod_press
      00000023H.6 SYMBOL    BIT      BIT       set_press

      0100861EH   BLOCK     CODE     ---       LVL=0
      ---         BLOCKEND  ---      ---       LVL=0

      01006DD7H   BLOCK     CODE     ---       LVL=0
      01006DD7H   LINE      CODE     ---       #26
      01006DE9H   LINE      CODE     ---       #28
      01006DEBH   LINE      CODE     ---       #29
      01006DF0H   LINE      CODE     ---       #30
      01006DF3H   LINE      CODE     ---       #31
      01006DF6H   LINE      CODE     ---       #32
      01006DF6H   LINE      CODE     ---       #33
      01006DF9H   LINE      CODE     ---       #35
      ---         BLOCKEND  ---      ---       LVL=0

      01002A62H   BLOCK     CODE     ---       LVL=0
      02000000H   SYMBOL    XDATA    BYTE      ev
      01002A62H   LINE      CODE     ---       #37
      01002A62H   LINE      CODE     ---       #38
      01002A62H   LINE      CODE     ---       #39
      01002A62H   LINE      CODE     ---       #40
      01002A68H   LINE      CODE     ---       #41
      01002A6DH   LINE      CODE     ---       #42
      01002A70H   LINE      CODE     ---       #43
      01002A76H   LINE      CODE     ---       #44
LX51 LINKER/LOCATER V4.66.87.0                                                        05/30/2018  17:25:18  PAGE 102


      01002A78H   LINE      CODE     ---       #45
      01002A80H   LINE      CODE     ---       #46
      01002A80H   LINE      CODE     ---       #47
      01002A88H   LINE      CODE     ---       #48
      01002A8FH   LINE      CODE     ---       #49
      01002A97H   LINE      CODE     ---       #50
      01002A97H   LINE      CODE     ---       #51
      01002A9DH   LINE      CODE     ---       #52
      01002AA3H   LINE      CODE     ---       #53
      01002AA5H   LINE      CODE     ---       #54
      01002AACH   LINE      CODE     ---       #55
      01002AB2H   LINE      CODE     ---       #56
      01002AB5H   LINE      CODE     ---       #57
      01002ABDH   LINE      CODE     ---       #58
      01002ABDH   LINE      CODE     ---       #59
      01002ABDH   LINE      CODE     ---       #60
      01002ABDH   LINE      CODE     ---       #62
      01002AC3H   LINE      CODE     ---       #63
      01002AC8H   LINE      CODE     ---       #64
      01002ACBH   LINE      CODE     ---       #65
      01002AD1H   LINE      CODE     ---       #66
      01002AD3H   LINE      CODE     ---       #67
      01002ADBH   LINE      CODE     ---       #68
      01002ADBH   LINE      CODE     ---       #69
      01002AE3H   LINE      CODE     ---       #70
      01002AEAH   LINE      CODE     ---       #71
      01002AF5H   LINE      CODE     ---       #72
      01002AF5H   LINE      CODE     ---       #73
      01002AFBH   LINE      CODE     ---       #74
      01002B04H   LINE      CODE     ---       #75
      01002B0BH   LINE      CODE     ---       #76
      01002B0EH   LINE      CODE     ---       #77
      01002B11H   LINE      CODE     ---       #78
      01002B19H   LINE      CODE     ---       #79
      01002B19H   LINE      CODE     ---       #80
      01002B19H   LINE      CODE     ---       #81
      01002B1BH   LINE      CODE     ---       #82
      01002B1BH   LINE      CODE     ---       #84
      01002B27H   LINE      CODE     ---       #85
      01002B27H   LINE      CODE     ---       #87
      01002B44H   LINE      CODE     ---       #88
      01002B4DH   LINE      CODE     ---       #89
      01002B4DH   LINE      CODE     ---       #90
      01002B4DH   LINE      CODE     ---       #91
      ---         BLOCKEND  ---      ---       LVL=0

      01005FB5H   BLOCK     CODE     ---       LVL=0
      0200000CH   SYMBOL    XDATA    BYTE      ev
      01005FB5H   LINE      CODE     ---       #93
      01005FBAH   LINE      CODE     ---       #94
      01005FBAH   LINE      CODE     ---       #95
      01005FC4H   LINE      CODE     ---       #97
      01005FD6H   LINE      CODE     ---       #98
      01005FD6H   LINE      CODE     ---       #99
      01005FDFH   LINE      CODE     ---       #100
      01005FE2H   LINE      CODE     ---       #101
      01005FE4H   LINE      CODE     ---       #102
      01005FE4H   LINE      CODE     ---       #103
      01005FEAH   LINE      CODE     ---       #104
      01005FECH   LINE      CODE     ---       #105
      01005FECH   LINE      CODE     ---       #106
      01005FF2H   LINE      CODE     ---       #107
      01005FF4H   LINE      CODE     ---       #108
      01005FF4H   LINE      CODE     ---       #109
      01005FFDH   LINE      CODE     ---       #110
LX51 LINKER/LOCATER V4.66.87.0                                                        05/30/2018  17:25:18  PAGE 103


      01005FFDH   LINE      CODE     ---       #111
      01005FFDH   LINE      CODE     ---       #113
      ---         BLOCKEND  ---      ---       LVL=0

      01006005H   BLOCK     CODE     ---       LVL=0
      0200000CH   SYMBOL    XDATA    BYTE      ev
      01006005H   LINE      CODE     ---       #117
      0100600AH   LINE      CODE     ---       #118
      0100600AH   LINE      CODE     ---       #119
      01006014H   LINE      CODE     ---       #121
      01006026H   LINE      CODE     ---       #122
      01006026H   LINE      CODE     ---       #123
      0100602FH   LINE      CODE     ---       #124
      01006032H   LINE      CODE     ---       #125
      01006034H   LINE      CODE     ---       #126
      01006034H   LINE      CODE     ---       #127
      0100603AH   LINE      CODE     ---       #128
      0100603CH   LINE      CODE     ---       #129
      0100603CH   LINE      CODE     ---       #130
      01006042H   LINE      CODE     ---       #131
      01006044H   LINE      CODE     ---       #132
      01006044H   LINE      CODE     ---       #133
      0100604DH   LINE      CODE     ---       #134
      0100604DH   LINE      CODE     ---       #135
      0100604DH   LINE      CODE     ---       #137
      ---         BLOCKEND  ---      ---       LVL=0

      01006BCCH   BLOCK     CODE     ---       LVL=0
      0200000CH   SYMBOL    XDATA    BYTE      ev
      01006BCCH   LINE      CODE     ---       #140
      01006BD1H   LINE      CODE     ---       #141
      01006BD1H   LINE      CODE     ---       #142
      01006BDEH   LINE      CODE     ---       #144
      01006BE9H   LINE      CODE     ---       #145
      01006BE9H   LINE      CODE     ---       #146
      01006BEFH   LINE      CODE     ---       #147
      01006BF1H   LINE      CODE     ---       #148
      01006BF1H   LINE      CODE     ---       #149
      01006BFAH   LINE      CODE     ---       #150
      01006BFAH   LINE      CODE     ---       #151
      01006BFAH   LINE      CODE     ---       #153
      ---         BLOCKEND  ---      ---       LVL=0

      01007F64H   BLOCK     CODE     ---       LVL=0
      01007F64H   LINE      CODE     ---       #156
      01007F64H   LINE      CODE     ---       #157
      01007F64H   LINE      CODE     ---       #158
      01007F6DH   LINE      CODE     ---       #160
      01007F72H   LINE      CODE     ---       #161
      01007F74H   LINE      CODE     ---       #163
      01007F76H   LINE      CODE     ---       #164
      01007F78H   LINE      CODE     ---       #166
      01007F7AH   LINE      CODE     ---       #167
      01007F7CH   LINE      CODE     ---       #168
      ---         BLOCKEND  ---      ---       LVL=0

      01008A36H   BLOCK     CODE     ---       LVL=0
      01008A36H   LINE      CODE     ---       #170
      01008A36H   LINE      CODE     ---       #171
      01008A36H   LINE      CODE     ---       #172
      ---         BLOCKEND  ---      ---       LVL=0

      01008A3FH   BLOCK     CODE     ---       LVL=0
      01008A3FH   LINE      CODE     ---       #175
      01008A3FH   LINE      CODE     ---       #176
LX51 LINKER/LOCATER V4.66.87.0                                                        05/30/2018  17:25:18  PAGE 104


      01008A3FH   LINE      CODE     ---       #177
      ---         BLOCKEND  ---      ---       LVL=0

      ---         MODULE    ---      ---       TASK
      00000050H   PUBLIC    IDATA    WORD      ev_bits1
      0000004EH   PUBLIC    IDATA    WORD      ev_bits0
      0100B47BH   PUBLIC    CONST    ---       task_name
      01004B6AH   PUBLIC    CODE     ---       task_dump
      01003CD4H   PUBLIC    CODE     ---       run_task
      010083B2H   PUBLIC    CODE     ---       task_initialize
      0100B4CFH   SYMBOL    CONST    ---       task_procs

      0100871CH   BLOCK     CODE     ---       LVL=0
      ---         BLOCKEND  ---      ---       LVL=0

      010083B2H   BLOCK     CODE     ---       LVL=0
      010083B2H   LINE      CODE     ---       #143
      010083B2H   LINE      CODE     ---       #144
      010083B2H   LINE      CODE     ---       #145
      010083BBH   LINE      CODE     ---       #146
      010083C1H   LINE      CODE     ---       #147
      010083C5H   LINE      CODE     ---       #148
      ---         BLOCKEND  ---      ---       LVL=0

      01003CD4H   BLOCK     CODE     ---       LVL=0
      01003CD4H   BLOCK     CODE     NEAR LAB  LVL=1
      02000000H   SYMBOL    XDATA    BYTE      c
      ---         BLOCKEND  ---      ---       LVL=1
      01003CD4H   LINE      CODE     ---       #150
      01003CD4H   LINE      CODE     ---       #151
      01003CD4H   LINE      CODE     ---       #154
      01003CDDH   LINE      CODE     ---       #155
      01003CEBH   LINE      CODE     ---       #156
      01003D1DH   LINE      CODE     ---       #157
      01003D53H   LINE      CODE     ---       #158
      01003D71H   LINE      CODE     ---       #159
      01003D71H   LINE      CODE     ---       #160
      01003D7AH   LINE      CODE     ---       #161
      01003D7AH   LINE      CODE     ---       #163
      ---         BLOCKEND  ---      ---       LVL=0

      01004B6AH   BLOCK     CODE     ---       LVL=0
      01004B6AH   BLOCK     CODE     NEAR LAB  LVL=1
      0200000BH   SYMBOL    XDATA    BYTE      i
      ---         BLOCKEND  ---      ---       LVL=1
      01004B6AH   LINE      CODE     ---       #165
      01004B6AH   LINE      CODE     ---       #166
      01004B6AH   LINE      CODE     ---       #168
      01004B79H   LINE      CODE     ---       #169
      01004BDBH   LINE      CODE     ---       #170
      01004BE3H   LINE      CODE     ---       #171
      ---         BLOCKEND  ---      ---       LVL=0

      ---         MODULE    ---      ---       LED
      00000025H.0 PUBLIC    BIT      BIT       led_powersave
      00000038H   PUBLIC    IDATA    ---       led_data
      00000036H   PUBLIC    IDATA    BYTE      led_blink
      020000BDH   PUBLIC    XDATA    ---       saved_led_data
      020000BBH   PUBLIC    XDATA    BYTE      saved_led_blink
      0100D07FH   PUBLIC    CONST    ---       led_code
      0100759DH   PUBLIC    CODE     ---       led_restore
      01007577H   PUBLIC    CODE     ---       led_save
      010082BCH   PUBLIC    CODE     ---       led_leave_powersave
      01008640H   PUBLIC    CODE     ---       led_enter_powersave
      01006055H   PUBLIC    CODE     ---       _led_set_code
LX51 LINKER/LOCATER V4.66.87.0                                                        05/30/2018  17:25:18  PAGE 105


      0100873AH   PUBLIC    CODE     ---       _led_set_dp
      0100872BH   PUBLIC    CODE     ---       _led_clr_dp
      010080FEH   PUBLIC    CODE     ---       _led_clr_blink
      01008223H   PUBLIC    CODE     ---       _led_set_blink
      0100862FH   PUBLIC    CODE     ---       led_clear
      01006920H   PUBLIC    CODE     ---       led_initialize
      010059B0H   PUBLIC    CODE     ---       refresh_led
      00000080H   SFRSYM    DATA     BYTE      P0
      00000090H   SFRSYM    DATA     BYTE      P1
      000000A0H   SFRSYM    DATA     BYTE      P2
      000000B0H   SFRSYM    DATA     BYTE      P3
      000000C0H   SFRSYM    DATA     BYTE      XICON
      000000B0H.4 SFRSYM    DATA     BIT       T0
      000000D0H.6 SFRSYM    DATA     BIT       AC
      000000E8H   SFRSYM    DATA     BYTE      P4
      000000B0H.5 SFRSYM    DATA     BIT       T1
      000000E6H   SFRSYM    DATA     BYTE      ISP_TRIG
      00000090H.0 SFRSYM    DATA     BIT       T2
      000000A8H.7 SFRSYM    DATA     BIT       EA
      000000A8H.6 SFRSYM    DATA     BIT       EC
      00000098H.7 SFRSYM    DATA     BIT       FE
      000000A8H   SFRSYM    DATA     BYTE      IE
      000000C8H.6 SFRSYM    DATA     BIT       EXF2
      000000B0H.7 SFRSYM    DATA     BIT       RD
      000000A8H.4 SFRSYM    DATA     BIT       ES
      000000B8H   SFRSYM    DATA     BYTE      IP
      00000098H.0 SFRSYM    DATA     BIT       RI
      000000B0H.2 SFRSYM    DATA     BIT       INT0
      000000D0H.7 SFRSYM    DATA     BIT       CY
      00000098H.1 SFRSYM    DATA     BIT       TI
      000000B0H.3 SFRSYM    DATA     BIT       INT1
      000000CBH   SFRSYM    DATA     BYTE      RCAP2H
      000000E5H   SFRSYM    DATA     BYTE      ISP_CMD
      000000B8H.4 SFRSYM    DATA     BIT       PS
      00000081H   SFRSYM    DATA     BYTE      SP
      00000090H.1 SFRSYM    DATA     BIT       T2EX
      000000D0H.2 SFRSYM    DATA     BIT       OV
      000000CAH   SFRSYM    DATA     BYTE      RCAP2L
      000000C8H.1 SFRSYM    DATA     BIT       C_T2
      000000B0H.6 SFRSYM    DATA     BIT       WR
      000000C8H.5 SFRSYM    DATA     BIT       RCLK
      000000C8H.4 SFRSYM    DATA     BIT       TCLK
      00000080H.0 SFRSYM    DATA     BIT       P00
      00000099H   SFRSYM    DATA     BYTE      SBUF
      00000087H   SFRSYM    DATA     BYTE      PCON
      00000090H.0 SFRSYM    DATA     BIT       P10
      00000080H.1 SFRSYM    DATA     BIT       P01
      000000A0H.0 SFRSYM    DATA     BIT       P20
      00000090H.1 SFRSYM    DATA     BIT       P11
      00000080H.2 SFRSYM    DATA     BIT       P02
      000000E3H   SFRSYM    DATA     BYTE      ISP_ADDRH
      000000B0H.0 SFRSYM    DATA     BIT       P30
      000000A0H.1 SFRSYM    DATA     BIT       P21
      00000090H.2 SFRSYM    DATA     BIT       P12
      00000080H.3 SFRSYM    DATA     BIT       P03
      00000098H   SFRSYM    DATA     BYTE      SCON
      000000B0H.1 SFRSYM    DATA     BIT       P31
      000000A0H.2 SFRSYM    DATA     BIT       P22
      00000090H.3 SFRSYM    DATA     BIT       P13
      00000080H.4 SFRSYM    DATA     BIT       P04
      000000E8H.0 SFRSYM    DATA     BIT       P40
      00000089H   SFRSYM    DATA     BYTE      TMOD
      00000088H   SFRSYM    DATA     BYTE      TCON
      000000B0H.2 SFRSYM    DATA     BIT       P32
      000000A0H.3 SFRSYM    DATA     BIT       P23
LX51 LINKER/LOCATER V4.66.87.0                                                        05/30/2018  17:25:18  PAGE 106


      00000090H.4 SFRSYM    DATA     BIT       P14
      00000080H.5 SFRSYM    DATA     BIT       P05
      000000E8H.1 SFRSYM    DATA     BIT       P41
      000000B0H.3 SFRSYM    DATA     BIT       P33
      000000A0H.4 SFRSYM    DATA     BIT       P24
      00000090H.5 SFRSYM    DATA     BIT       P15
      00000080H.6 SFRSYM    DATA     BIT       P06
      000000E4H   SFRSYM    DATA     BYTE      ISP_ADDRL
      000000E8H.2 SFRSYM    DATA     BIT       P42
      000000B0H.4 SFRSYM    DATA     BIT       P34
      000000A0H.5 SFRSYM    DATA     BIT       P25
      00000090H.6 SFRSYM    DATA     BIT       P16
      00000080H.7 SFRSYM    DATA     BIT       P07
      000000E8H.3 SFRSYM    DATA     BIT       P43
      000000B0H.5 SFRSYM    DATA     BIT       P35
      000000A0H.6 SFRSYM    DATA     BIT       P26
      00000090H.7 SFRSYM    DATA     BIT       P17
      000000E8H.4 SFRSYM    DATA     BIT       P44
      000000B0H.6 SFRSYM    DATA     BIT       P36
      000000A0H.7 SFRSYM    DATA     BIT       P27
      000000E8H.5 SFRSYM    DATA     BIT       P45
      000000B0H.7 SFRSYM    DATA     BIT       P37
      000000E8H.6 SFRSYM    DATA     BIT       P46
      00000088H.1 SFRSYM    DATA     BIT       IE0
      00000088H.3 SFRSYM    DATA     BIT       IE1
      0000008EH   SFRSYM    DATA     BYTE      AUXR
      000000F0H   SFRSYM    DATA     BYTE      B
      000000C8H.0 SFRSYM    DATA     BIT       CP_RL2
      000000E0H   SFRSYM    DATA     BYTE      ACC
      000000A8H.1 SFRSYM    DATA     BIT       ET0
      000000A8H.3 SFRSYM    DATA     BIT       ET1
      00000088H.5 SFRSYM    DATA     BIT       TF0
      000000A8H.5 SFRSYM    DATA     BIT       ET2
      00000088H.7 SFRSYM    DATA     BIT       TF1
      000000C8H.7 SFRSYM    DATA     BIT       TF2
      00000098H.2 SFRSYM    DATA     BIT       RB8
      0000008CH   SFRSYM    DATA     BYTE      TH0
      000000A8H.0 SFRSYM    DATA     BIT       EX0
      00000088H.0 SFRSYM    DATA     BIT       IT0
      0000008DH   SFRSYM    DATA     BYTE      TH1
      00000098H.3 SFRSYM    DATA     BIT       TB8
      000000A8H.2 SFRSYM    DATA     BIT       EX1
      00000088H.2 SFRSYM    DATA     BIT       IT1
      000000CDH   SFRSYM    DATA     BYTE      TH2
      000000D0H.0 SFRSYM    DATA     BIT       P
      00000098H.7 SFRSYM    DATA     BIT       SM0
      0000008AH   SFRSYM    DATA     BYTE      TL0
      00000098H.6 SFRSYM    DATA     BIT       SM1
      0000008BH   SFRSYM    DATA     BYTE      TL1
      00000098H.5 SFRSYM    DATA     BIT       SM2
      000000CCH   SFRSYM    DATA     BYTE      TL2
      000000B8H.1 SFRSYM    DATA     BIT       PT0
      000000B8H.3 SFRSYM    DATA     BIT       PT1
      000000D0H.3 SFRSYM    DATA     BIT       RS0
      000000E7H   SFRSYM    DATA     BYTE      ISP_CONTR
      000000B8H.5 SFRSYM    DATA     BIT       PT2
      00000088H.4 SFRSYM    DATA     BIT       TR0
      000000D0H.4 SFRSYM    DATA     BIT       RS1
      00000088H.6 SFRSYM    DATA     BIT       TR1
      000000C8H.2 SFRSYM    DATA     BIT       TR2
      000000B8H.0 SFRSYM    DATA     BIT       PX0
      000000E1H   SFRSYM    DATA     BYTE      WDT_CONTR
      000000B8H.2 SFRSYM    DATA     BIT       PX1
      00000083H   SFRSYM    DATA     BYTE      DPH
      00000082H   SFRSYM    DATA     BYTE      DPL
LX51 LINKER/LOCATER V4.66.87.0                                                        05/30/2018  17:25:18  PAGE 107


      000000B7H   SFRSYM    DATA     BYTE      IPH
      000000C8H.3 SFRSYM    DATA     BIT       EXEN2
      00000098H.4 SFRSYM    DATA     BIT       REN
      000000C9H   SFRSYM    DATA     BYTE      T2MOD
      000000C8H   SFRSYM    DATA     BYTE      T2CON
      000000E2H   SFRSYM    DATA     BYTE      ISP_DATA
      000000B9H   SFRSYM    DATA     BYTE      SADEN
      000000B0H.0 SFRSYM    DATA     BIT       RXD
      000000A9H   SFRSYM    DATA     BYTE      SADDR
      000000B0H.1 SFRSYM    DATA     BIT       TXD
      000000A2H   SFRSYM    DATA     BYTE      AUXR1
      000000D0H.5 SFRSYM    DATA     BIT       F0
      000000D0H   SFRSYM    DATA     BYTE      PSW
      020000BCH   SYMBOL    XDATA    BYTE      saved_led_index
      00000037H   SYMBOL    IDATA    BYTE      led_index
      0100D0AEH   SYMBOL    CONST    ---       led_scan
      020000C3H   SYMBOL    XDATA    BYTE      saved_scan_loop_cnt
      0000003EH   SYMBOL    IDATA    BYTE      scan_loop_cnt

      01007B6AH   BLOCK     CODE     ---       LVL=0
      ---         BLOCKEND  ---      ---       LVL=0

      010059B0H   BLOCK     CODE     ---       LVL=0
      010059B0H   LINE      CODE     ---       #94
      010059B0H   LINE      CODE     ---       #95
      010059B0H   LINE      CODE     ---       #96
      010059B3H   LINE      CODE     ---       #98
      010059B6H   LINE      CODE     ---       #100
      010059D4H   LINE      CODE     ---       #101
      010059DCH   LINE      CODE     ---       #102
      010059E7H   LINE      CODE     ---       #103
      010059E9H   LINE      CODE     ---       #107
      010059F2H   LINE      CODE     ---       #108
      010059F2H   LINE      CODE     ---       #110
      010059FBH   LINE      CODE     ---       #112
      010059FCH   LINE      CODE     ---       #113
      01005A00H   LINE      CODE     ---       #114
      01005A02H   LINE      CODE     ---       #115
      01005A09H   LINE      CODE     ---       #116
      01005A09H   LINE      CODE     ---       #117
      ---         BLOCKEND  ---      ---       LVL=0

      01006920H   BLOCK     CODE     ---       LVL=0
      01006920H   BLOCK     CODE     NEAR LAB  LVL=1
      00000004H   SYMBOL    DATA     BYTE      i
      00000002H   SYMBOL    DATA     BYTE      j
      ---         BLOCKEND  ---      ---       LVL=1
      01006920H   LINE      CODE     ---       #120
      01006920H   LINE      CODE     ---       #121
      01006920H   LINE      CODE     ---       #123
      01006929H   LINE      CODE     ---       #125
      0100692BH   LINE      CODE     ---       #126
      0100692BH   LINE      CODE     ---       #127
      0100692BH   LINE      CODE     ---       #128
      0100692BH   LINE      CODE     ---       #129
      0100692BH   LINE      CODE     ---       #131
      0100692BH   LINE      CODE     ---       #132
      0100692EH   LINE      CODE     ---       #134
      01006930H   LINE      CODE     ---       #135
      01006938H   LINE      CODE     ---       #136
      0100693AH   LINE      CODE     ---       #137
      0100693CH   LINE      CODE     ---       #138
      0100693EH   LINE      CODE     ---       #139
      01006940H   LINE      CODE     ---       #140
      01006942H   LINE      CODE     ---       #141
LX51 LINKER/LOCATER V4.66.87.0                                                        05/30/2018  17:25:18  PAGE 108


      01006944H   LINE      CODE     ---       #142
      01006947H   LINE      CODE     ---       #143
      0100694CH   LINE      CODE     ---       #144
      01006951H   LINE      CODE     ---       #145
      01006956H   LINE      CODE     ---       #147
      01006956H   LINE      CODE     ---       #148
      01006956H   LINE      CODE     ---       #149
      01006956H   LINE      CODE     ---       #150
      01006956H   LINE      CODE     ---       #152
      01006956H   LINE      CODE     ---       #153
      01006959H   LINE      CODE     ---       #154
      ---         BLOCKEND  ---      ---       LVL=0

      0100862FH   BLOCK     CODE     ---       LVL=0
      0100862FH   LINE      CODE     ---       #156
      0100862FH   LINE      CODE     ---       #157
      0100862FH   LINE      CODE     ---       #158
      01008633H   LINE      CODE     ---       #159
      ---         BLOCKEND  ---      ---       LVL=0

      01008223H   BLOCK     CODE     ---       LVL=0
      00000007H   SYMBOL    DATA     BYTE      i
      01008223H   LINE      CODE     ---       #162
      01008223H   LINE      CODE     ---       #163
      01008223H   LINE      CODE     ---       #164
      01008229H   LINE      CODE     ---       #165
      01008238H   LINE      CODE     ---       #166
      01008238H   LINE      CODE     ---       #167
      ---         BLOCKEND  ---      ---       LVL=0

      010080FEH   BLOCK     CODE     ---       LVL=0
      00000007H   SYMBOL    DATA     BYTE      i
      010080FEH   LINE      CODE     ---       #169
      010080FEH   LINE      CODE     ---       #170
      010080FEH   LINE      CODE     ---       #171
      01008104H   LINE      CODE     ---       #172
      01008114H   LINE      CODE     ---       #173
      01008114H   LINE      CODE     ---       #174
      ---         BLOCKEND  ---      ---       LVL=0

      0100872BH   BLOCK     CODE     ---       LVL=0
      00000007H   SYMBOL    DATA     BYTE      i
      0100872BH   LINE      CODE     ---       #176
      0100872BH   LINE      CODE     ---       #177
      0100872BH   LINE      CODE     ---       #178
      01008731H   LINE      CODE     ---       #179
      01008739H   LINE      CODE     ---       #180
      01008739H   LINE      CODE     ---       #181
      ---         BLOCKEND  ---      ---       LVL=0

      0100873AH   BLOCK     CODE     ---       LVL=0
      00000007H   SYMBOL    DATA     BYTE      i
      0100873AH   LINE      CODE     ---       #183
      0100873AH   LINE      CODE     ---       #184
      0100873AH   LINE      CODE     ---       #185
      01008740H   LINE      CODE     ---       #186
      01008748H   LINE      CODE     ---       #187
      01008748H   LINE      CODE     ---       #188
      ---         BLOCKEND  ---      ---       LVL=0

      01006055H   BLOCK     CODE     ---       LVL=0
      00000007H   SYMBOL    DATA     BYTE      i
      00000005H   SYMBOL    DATA     CHAR      c
      01006055H   LINE      CODE     ---       #192
      01006055H   LINE      CODE     ---       #193
LX51 LINKER/LOCATER V4.66.87.0                                                        05/30/2018  17:25:18  PAGE 109


      01006055H   LINE      CODE     ---       #194
      0100605BH   LINE      CODE     ---       #195
      01006063H   LINE      CODE     ---       #196
      01006066H   LINE      CODE     ---       #197
      01006071H   LINE      CODE     ---       #198
      01006072H   LINE      CODE     ---       #199
      01006082H   LINE      CODE     ---       #200
      0100609BH   LINE      CODE     ---       #201
      0100609CH   LINE      CODE     ---       #202
      010060A4H   LINE      CODE     ---       #203
      010060A4H   LINE      CODE     ---       #204
      010060A4H   LINE      CODE     ---       #205
      ---         BLOCKEND  ---      ---       LVL=0

      01008640H   BLOCK     CODE     ---       LVL=0
      01008640H   LINE      CODE     ---       #207
      01008640H   LINE      CODE     ---       #208
      01008640H   LINE      CODE     ---       #209
      01008649H   LINE      CODE     ---       #211
      0100864BH   LINE      CODE     ---       #213
      0100864BH   LINE      CODE     ---       #214
      0100864EH   LINE      CODE     ---       #215
      ---         BLOCKEND  ---      ---       LVL=0

      010082BCH   BLOCK     CODE     ---       LVL=0
      010082BCH   LINE      CODE     ---       #218
      010082BCH   LINE      CODE     ---       #219
      010082BCH   LINE      CODE     ---       #220
      010082C5H   LINE      CODE     ---       #222
      010082C8H   LINE      CODE     ---       #223
      010082CBH   LINE      CODE     ---       #224
      010082CEH   LINE      CODE     ---       #226
      010082D0H   LINE      CODE     ---       #227
      ---         BLOCKEND  ---      ---       LVL=0

      01007577H   BLOCK     CODE     ---       LVL=0
      01007577H   LINE      CODE     ---       #229
      01007577H   LINE      CODE     ---       #230
      01007577H   LINE      CODE     ---       #231
      0100758AH   LINE      CODE     ---       #232
      01007591H   LINE      CODE     ---       #233
      01007595H   LINE      CODE     ---       #234
      0100759CH   LINE      CODE     ---       #235
      ---         BLOCKEND  ---      ---       LVL=0

      0100759DH   BLOCK     CODE     ---       LVL=0
      0100759DH   LINE      CODE     ---       #237
      0100759DH   LINE      CODE     ---       #238
      0100759DH   LINE      CODE     ---       #239
      010075B0H   LINE      CODE     ---       #240
      010075B7H   LINE      CODE     ---       #241
      010075BBH   LINE      CODE     ---       #242
      010075C2H   LINE      CODE     ---       #243
      ---         BLOCKEND  ---      ---       LVL=0

      ---         MODULE    ---      ---       ALARM
      010066F7H   PUBLIC    CODE     ---       alarm1_sync_to_rtc
      00000020H.0 PUBLIC    BIT      BIT       ?alarm1_set_enable?BIT
      01008BC4H   PUBLIC    CODE     ---       alarm1_set_enable
      01008C26H   PUBLIC    CODE     ---       alarm1_test_enable
      01005EC3H   PUBLIC    CODE     ---       alarm0_sync_to_rtc
      010087CEH   PUBLIC    CODE     ---       alarm0_inc_hour
      01008B76H   PUBLIC    CODE     ---       alarm0_get_hour
      010087C0H   PUBLIC    CODE     ---       alarm0_inc_min
      01008B70H   PUBLIC    CODE     ---       alarm0_get_min
LX51 LINKER/LOCATER V4.66.87.0                                                        05/30/2018  17:25:18  PAGE 110


      00000020H.1 PUBLIC    BIT      BIT       ?alarm0_set_hour_12?BIT
      01000026H   PUBLIC    CODE     ---       alarm0_set_hour_12
      01008C23H   PUBLIC    CODE     ---       alarm0_get_hour_12
      01008B6AH   PUBLIC    CODE     ---       alarm0_get_day_mask
      00000020H.0 PUBLIC    BIT      BIT       ?_alarm0_set_enable?BIT
      010054E4H   PUBLIC    CODE     ---       _alarm0_set_enable
      0100701CH   PUBLIC    CODE     ---       _alarm0_test_enable
      01008A5AH   PUBLIC    CODE     ---       alarm_leave_powersave
      01008A51H   PUBLIC    CODE     ---       alarm_enter_powersave
      01005355H   PUBLIC    CODE     ---       alarm_dump
      0100779FH   PUBLIC    CODE     ---       alarm_switch_off
      01008011H   PUBLIC    CODE     ---       alarm_switch_on
      01008A48H   PUBLIC    CODE     ---       alarm_initialize
      01004C5EH   PUBLIC    CODE     ---       scan_alarm
      01007211H   PUBLIC    CODE     ---       _alarm_proc
      00000023H.7 SYMBOL    BIT      BIT       alarm1_enable
      020000D5H   SYMBOL    XDATA    ---       alarm0
      01006D3EH   SYMBOL    CODE     ---       alarm_load_rom
      01006CA2H   SYMBOL    CODE     ---       alarm_save_rom
      00000024H.0 SYMBOL    BIT      BIT       alarm0_is12

      010082D1H   BLOCK     CODE     ---       LVL=0
      ---         BLOCKEND  ---      ---       LVL=0

      01007211H   BLOCK     CODE     ---       LVL=0
      0200000CH   SYMBOL    XDATA    BYTE      ev
      01007211H   LINE      CODE     ---       #15
      01007216H   LINE      CODE     ---       #16
      01007216H   LINE      CODE     ---       #18
      01007219H   LINE      CODE     ---       #19
      01007222H   LINE      CODE     ---       #20
      01007227H   LINE      CODE     ---       #21
      01007227H   LINE      CODE     ---       #23
      0100722EH   LINE      CODE     ---       #24
      01007237H   LINE      CODE     ---       #25
      0100723CH   LINE      CODE     ---       #26
      0100723CH   LINE      CODE     ---       #27
      ---         BLOCKEND  ---      ---       LVL=0

      01004C5EH   BLOCK     CODE     ---       LVL=0
      01004C5EH   BLOCK     CODE     NEAR LAB  LVL=1
      00000020H.0 SYMBOL    BIT      BIT       alarm0_hit
      00000020H.1 SYMBOL    BIT      BIT       alarm1_hit
      ---         BLOCKEND  ---      ---       LVL=1
      01004C5EH   LINE      CODE     ---       #29
      01004C5EH   LINE      CODE     ---       #30
      01004C5EH   LINE      CODE     ---       #33
      01004C63H   LINE      CODE     ---       #34
      01004C6AH   LINE      CODE     ---       #35
      01004C70H   LINE      CODE     ---       #36
      01004C74H   LINE      CODE     ---       #37
      01004C78H   LINE      CODE     ---       #38
      01004C7DH   LINE      CODE     ---       #40
      01004C80H   LINE      CODE     ---       #41
      01004C9AH   LINE      CODE     ---       #42
      01004C9FH   LINE      CODE     ---       #43
      01004CA2H   LINE      CODE     ---       #44
      01004CA2H   LINE      CODE     ---       #45
      01004CABH   LINE      CODE     ---       #46
      01004CAEH   LINE      CODE     ---       #47
      01004CB0H   LINE      CODE     ---       #48
      01004CB0H   LINE      CODE     ---       #49
      01004CB0H   LINE      CODE     ---       #50
      01004CB0H   LINE      CODE     ---       #53
      01004CB3H   LINE      CODE     ---       #54
LX51 LINKER/LOCATER V4.66.87.0                                                        05/30/2018  17:25:18  PAGE 111


      01004CB8H   LINE      CODE     ---       #55
      01004CC4H   LINE      CODE     ---       #56
      01004CC4H   LINE      CODE     ---       #57
      01004CC9H   LINE      CODE     ---       #58
      01004CCCH   LINE      CODE     ---       #59
      01004CCCH   LINE      CODE     ---       #60
      01004CD5H   LINE      CODE     ---       #61
      01004CD5H   LINE      CODE     ---       #62
      01004CD5H   LINE      CODE     ---       #63
      ---         BLOCKEND  ---      ---       LVL=0

      01006D3EH   BLOCK     CODE     ---       LVL=0
      01006D3EH   LINE      CODE     ---       #65
      01006D3EH   LINE      CODE     ---       #66
      01006D3EH   LINE      CODE     ---       #67
      01006D48H   LINE      CODE     ---       #68
      01006D52H   LINE      CODE     ---       #69
      01006D5CH   LINE      CODE     ---       #70
      01006D66H   LINE      CODE     ---       #71
      01006D70H   LINE      CODE     ---       #72
      ---         BLOCKEND  ---      ---       LVL=0

      01006CA2H   BLOCK     CODE     ---       LVL=0
      01006CA2H   LINE      CODE     ---       #74
      01006CA2H   LINE      CODE     ---       #75
      01006CA2H   LINE      CODE     ---       #76
      01006CACH   LINE      CODE     ---       #77
      01006CB6H   LINE      CODE     ---       #78
      01006CC0H   LINE      CODE     ---       #79
      01006CCCH   LINE      CODE     ---       #80
      ---         BLOCKEND  ---      ---       LVL=0

      01008A48H   BLOCK     CODE     ---       LVL=0
      01008A48H   LINE      CODE     ---       #83
      01008A48H   LINE      CODE     ---       #84
      01008A48H   LINE      CODE     ---       #85
      ---         BLOCKEND  ---      ---       LVL=0

      01008011H   BLOCK     CODE     ---       LVL=0
      01008011H   LINE      CODE     ---       #88
      01008011H   LINE      CODE     ---       #89
      01008011H   LINE      CODE     ---       #90
      0100801AH   LINE      CODE     ---       #91
      0100801DH   LINE      CODE     ---       #92
      01008020H   LINE      CODE     ---       #93
      01008023H   LINE      CODE     ---       #94
      01008026H   LINE      CODE     ---       #95
      ---         BLOCKEND  ---      ---       LVL=0

      0100779FH   BLOCK     CODE     ---       LVL=0
      0100779FH   LINE      CODE     ---       #98
      0100779FH   LINE      CODE     ---       #99
      0100779FH   LINE      CODE     ---       #100
      010077A8H   LINE      CODE     ---       #101
      010077ADH   LINE      CODE     ---       #102
      010077B4H   LINE      CODE     ---       #103
      010077BAH   LINE      CODE     ---       #104
      010077BFH   LINE      CODE     ---       #105
      ---         BLOCKEND  ---      ---       LVL=0

      01005355H   BLOCK     CODE     ---       LVL=0
      01005355H   LINE      CODE     ---       #108
      01005355H   LINE      CODE     ---       #109
      01005355H   LINE      CODE     ---       #110
      0100535FH   LINE      CODE     ---       #111
LX51 LINKER/LOCATER V4.66.87.0                                                        05/30/2018  17:25:18  PAGE 112


      01005369H   LINE      CODE     ---       #112
      01005373H   LINE      CODE     ---       #113
      01005391H   LINE      CODE     ---       #114
      010053AFH   LINE      CODE     ---       #115
      ---         BLOCKEND  ---      ---       LVL=0

      01008A51H   BLOCK     CODE     ---       LVL=0
      01008A51H   LINE      CODE     ---       #117
      01008A51H   LINE      CODE     ---       #118
      01008A51H   LINE      CODE     ---       #119
      ---         BLOCKEND  ---      ---       LVL=0

      01008A5AH   BLOCK     CODE     ---       LVL=0
      01008A5AH   LINE      CODE     ---       #122
      01008A5AH   LINE      CODE     ---       #123
      01008A5AH   LINE      CODE     ---       #124
      ---         BLOCKEND  ---      ---       LVL=0

      0100701CH   BLOCK     CODE     ---       LVL=0
      02000019H   SYMBOL    XDATA    BYTE      day
      0100701CH   LINE      CODE     ---       #128
      01007021H   LINE      CODE     ---       #129
      01007021H   LINE      CODE     ---       #130
      0100702EH   LINE      CODE     ---       #131
      0100704AH   LINE      CODE     ---       #132
      ---         BLOCKEND  ---      ---       LVL=0

      010054E4H   BLOCK     CODE     ---       LVL=0
      02000014H   SYMBOL    XDATA    BYTE      day
      00000020H.0 SYMBOL    BIT      BIT       enable
      010054E4H   LINE      CODE     ---       #135
      010054E9H   LINE      CODE     ---       #136
      010054E9H   LINE      CODE     ---       #137
      0100550BH   LINE      CODE     ---       #138
      01005520H   LINE      CODE     ---       #139
      0100552CH   LINE      CODE     ---       #140
      0100552FH   LINE      CODE     ---       #141
      01005531H   LINE      CODE     ---       #142
      01005539H   LINE      CODE     ---       #143
      01005539H   LINE      CODE     ---       #144
      ---         BLOCKEND  ---      ---       LVL=0

      01008B6AH   BLOCK     CODE     ---       LVL=0
      01008B6AH   LINE      CODE     ---       #148
      01008B6AH   LINE      CODE     ---       #149
      01008B6AH   LINE      CODE     ---       #150
      01008B6FH   LINE      CODE     ---       #151
      ---         BLOCKEND  ---      ---       LVL=0

      01008C23H   BLOCK     CODE     ---       LVL=0
      01008C23H   LINE      CODE     ---       #153
      01008C23H   LINE      CODE     ---       #154
      01008C23H   LINE      CODE     ---       #155
      01008C25H   LINE      CODE     ---       #156
      ---         BLOCKEND  ---      ---       LVL=0

      01000026H   BLOCK     CODE     ---       LVL=0
      00000020H.1 SYMBOL    BIT      BIT       enable
      01000026H   LINE      CODE     ---       #158
      01000026H   LINE      CODE     ---       #159
      01000026H   LINE      CODE     ---       #160
      0100002AH   LINE      CODE     ---       #161
      ---         BLOCKEND  ---      ---       LVL=0

      01008B70H   BLOCK     CODE     ---       LVL=0
LX51 LINKER/LOCATER V4.66.87.0                                                        05/30/2018  17:25:18  PAGE 113


      01008B70H   LINE      CODE     ---       #164
      01008B70H   LINE      CODE     ---       #165
      01008B70H   LINE      CODE     ---       #166
      01008B75H   LINE      CODE     ---       #167
      ---         BLOCKEND  ---      ---       LVL=0

      010087C0H   BLOCK     CODE     ---       LVL=0
      010087C0H   LINE      CODE     ---       #169
      010087C0H   LINE      CODE     ---       #170
      010087C0H   LINE      CODE     ---       #171
      010087CDH   LINE      CODE     ---       #172
      ---         BLOCKEND  ---      ---       LVL=0

      01008B76H   BLOCK     CODE     ---       LVL=0
      01008B76H   LINE      CODE     ---       #174
      01008B76H   LINE      CODE     ---       #175
      01008B76H   LINE      CODE     ---       #176
      01008B7BH   LINE      CODE     ---       #177
      ---         BLOCKEND  ---      ---       LVL=0

      010087CEH   BLOCK     CODE     ---       LVL=0
      010087CEH   LINE      CODE     ---       #179
      010087CEH   LINE      CODE     ---       #180
      010087CEH   LINE      CODE     ---       #181
      010087DBH   LINE      CODE     ---       #182
      ---         BLOCKEND  ---      ---       LVL=0

      01005EC3H   BLOCK     CODE     ---       LVL=0
      01005EC3H   LINE      CODE     ---       #184
      01005EC3H   LINE      CODE     ---       #185
      01005EC3H   LINE      CODE     ---       #186
      01005ECCH   LINE      CODE     ---       #187
      01005ED1H   LINE      CODE     ---       #188
      01005ED6H   LINE      CODE     ---       #189
      01005EDDH   LINE      CODE     ---       #190
      01005EE5H   LINE      CODE     ---       #191
      01005EEDH   LINE      CODE     ---       #192
      01005EF2H   LINE      CODE     ---       #193
      01005EF7H   LINE      CODE     ---       #195
      01005EFCH   LINE      CODE     ---       #196
      01005F0BH   LINE      CODE     ---       #197
      01005F0FH   LINE      CODE     ---       #198
      ---         BLOCKEND  ---      ---       LVL=0

      01008C26H   BLOCK     CODE     ---       LVL=0
      01008C26H   LINE      CODE     ---       #201
      01008C26H   LINE      CODE     ---       #202
      01008C26H   LINE      CODE     ---       #203
      01008C28H   LINE      CODE     ---       #204
      ---         BLOCKEND  ---      ---       LVL=0

      01008BC4H   BLOCK     CODE     ---       LVL=0
      00000020H.0 SYMBOL    BIT      BIT       enable
      01008BC4H   LINE      CODE     ---       #206
      01008BC4H   LINE      CODE     ---       #207
      01008BC4H   LINE      CODE     ---       #208
      01008BC8H   LINE      CODE     ---       #209
      ---         BLOCKEND  ---      ---       LVL=0

      010066F7H   BLOCK     CODE     ---       LVL=0
      010066F7H   LINE      CODE     ---       #211
      010066F7H   LINE      CODE     ---       #212
      010066F7H   LINE      CODE     ---       #213
      01006700H   LINE      CODE     ---       #214
      01006705H   LINE      CODE     ---       #215
LX51 LINKER/LOCATER V4.66.87.0                                                        05/30/2018  17:25:18  PAGE 114


      0100670AH   LINE      CODE     ---       #216
      01006711H   LINE      CODE     ---       #217
      01006716H   LINE      CODE     ---       #218
      0100671BH   LINE      CODE     ---       #219
      01006720H   LINE      CODE     ---       #221
      01006725H   LINE      CODE     ---       #222
      0100672EH   LINE      CODE     ---       #223
      01006731H   LINE      CODE     ---       #224
      ---         BLOCKEND  ---      ---       LVL=0

      ---         MODULE    ---      ---       POWER
      00000025H.1 PUBLIC    BIT      BIT       powersave_flag
      01008C32H   PUBLIC    CODE     ---       power_get_volume
      01008C19H   PUBLIC    CODE     ---       power_5v_get_enable
      00000020H.1 PUBLIC    BIT      BIT       ?power_5v_enable?BIT
      01007E0EH   PUBLIC    CODE     ---       power_5v_enable
      01008A63H   PUBLIC    CODE     ---       power_reset_powersave_to
      01008C2FH   PUBLIC    CODE     ---       power_clr_flag
      01008C2CH   PUBLIC    CODE     ---       power_set_flag
      01008C29H   PUBLIC    CODE     ---       power_test_flag
      01006EFEH   PUBLIC    CODE     ---       power_test_powersave_to
      010076A3H   PUBLIC    CODE     ---       power_inc_powersave_to
      01008115H   PUBLIC    CODE     ---       power_get_powersave_to
      01008B7CH   PUBLIC    CODE     ---       power_get_powersave_to_s
      01006ECEH   PUBLIC    CODE     ---       power_leave_powersave
      0100613FH   PUBLIC    CODE     ---       power_enter_powersave
      01007EAFH   PUBLIC    CODE     ---       _power_proc
      01006D71H   PUBLIC    CODE     ---       power_initialize
      00000080H   SFRSYM    DATA     BYTE      P0
      00000090H   SFRSYM    DATA     BYTE      P1
      000000A0H   SFRSYM    DATA     BYTE      P2
      000000B0H   SFRSYM    DATA     BYTE      P3
      000000C0H   SFRSYM    DATA     BYTE      XICON
      000000B0H.4 SFRSYM    DATA     BIT       T0
      000000D0H.6 SFRSYM    DATA     BIT       AC
      000000E8H   SFRSYM    DATA     BYTE      P4
      000000B0H.5 SFRSYM    DATA     BIT       T1
      000000E6H   SFRSYM    DATA     BYTE      ISP_TRIG
      00000090H.0 SFRSYM    DATA     BIT       T2
      000000A8H.7 SFRSYM    DATA     BIT       EA
      000000A8H.6 SFRSYM    DATA     BIT       EC
      00000098H.7 SFRSYM    DATA     BIT       FE
      000000A8H   SFRSYM    DATA     BYTE      IE
      000000C8H.6 SFRSYM    DATA     BIT       EXF2
      000000B0H.7 SFRSYM    DATA     BIT       RD
      000000A8H.4 SFRSYM    DATA     BIT       ES
      000000B8H   SFRSYM    DATA     BYTE      IP
      00000098H.0 SFRSYM    DATA     BIT       RI
      000000B0H.2 SFRSYM    DATA     BIT       INT0
      000000D0H.7 SFRSYM    DATA     BIT       CY
      00000098H.1 SFRSYM    DATA     BIT       TI
      000000B0H.3 SFRSYM    DATA     BIT       INT1
      000000CBH   SFRSYM    DATA     BYTE      RCAP2H
      000000E5H   SFRSYM    DATA     BYTE      ISP_CMD
      000000B8H.4 SFRSYM    DATA     BIT       PS
      00000081H   SFRSYM    DATA     BYTE      SP
      00000090H.1 SFRSYM    DATA     BIT       T2EX
      000000D0H.2 SFRSYM    DATA     BIT       OV
      000000CAH   SFRSYM    DATA     BYTE      RCAP2L
      000000C8H.1 SFRSYM    DATA     BIT       C_T2
      000000B0H.6 SFRSYM    DATA     BIT       WR
      000000C8H.5 SFRSYM    DATA     BIT       RCLK
      000000C8H.4 SFRSYM    DATA     BIT       TCLK
      00000080H.0 SFRSYM    DATA     BIT       P00
      00000099H   SFRSYM    DATA     BYTE      SBUF
LX51 LINKER/LOCATER V4.66.87.0                                                        05/30/2018  17:25:18  PAGE 115


      00000087H   SFRSYM    DATA     BYTE      PCON
      00000090H.0 SFRSYM    DATA     BIT       P10
      00000080H.1 SFRSYM    DATA     BIT       P01
      000000A0H.0 SFRSYM    DATA     BIT       P20
      00000090H.1 SFRSYM    DATA     BIT       P11
      00000080H.2 SFRSYM    DATA     BIT       P02
      000000E3H   SFRSYM    DATA     BYTE      ISP_ADDRH
      000000B0H.0 SFRSYM    DATA     BIT       P30
      000000A0H.1 SFRSYM    DATA     BIT       P21
      00000090H.2 SFRSYM    DATA     BIT       P12
      00000080H.3 SFRSYM    DATA     BIT       P03
      00000098H   SFRSYM    DATA     BYTE      SCON
      000000B0H.1 SFRSYM    DATA     BIT       P31
      000000A0H.2 SFRSYM    DATA     BIT       P22
      00000090H.3 SFRSYM    DATA     BIT       P13
      00000080H.4 SFRSYM    DATA     BIT       P04
      000000E8H.0 SFRSYM    DATA     BIT       P40
      00000089H   SFRSYM    DATA     BYTE      TMOD
      00000088H   SFRSYM    DATA     BYTE      TCON
      000000B0H.2 SFRSYM    DATA     BIT       P32
      000000A0H.3 SFRSYM    DATA     BIT       P23
      00000090H.4 SFRSYM    DATA     BIT       P14
      00000080H.5 SFRSYM    DATA     BIT       P05
      000000E8H.1 SFRSYM    DATA     BIT       P41
      000000B0H.3 SFRSYM    DATA     BIT       P33
      000000A0H.4 SFRSYM    DATA     BIT       P24
      00000090H.5 SFRSYM    DATA     BIT       P15
      00000080H.6 SFRSYM    DATA     BIT       P06
      000000E4H   SFRSYM    DATA     BYTE      ISP_ADDRL
      000000E8H.2 SFRSYM    DATA     BIT       P42
      000000B0H.4 SFRSYM    DATA     BIT       P34
      000000A0H.5 SFRSYM    DATA     BIT       P25
      00000090H.6 SFRSYM    DATA     BIT       P16
      00000080H.7 SFRSYM    DATA     BIT       P07
      000000E8H.3 SFRSYM    DATA     BIT       P43
      000000B0H.5 SFRSYM    DATA     BIT       P35
      000000A0H.6 SFRSYM    DATA     BIT       P26
      00000090H.7 SFRSYM    DATA     BIT       P17
      000000E8H.4 SFRSYM    DATA     BIT       P44
      000000B0H.6 SFRSYM    DATA     BIT       P36
      000000A0H.7 SFRSYM    DATA     BIT       P27
      000000E8H.5 SFRSYM    DATA     BIT       P45
      000000B0H.7 SFRSYM    DATA     BIT       P37
      000000E8H.6 SFRSYM    DATA     BIT       P46
      00000088H.1 SFRSYM    DATA     BIT       IE0
      00000088H.3 SFRSYM    DATA     BIT       IE1
      0000008EH   SFRSYM    DATA     BYTE      AUXR
      000000F0H   SFRSYM    DATA     BYTE      B
      000000C8H.0 SFRSYM    DATA     BIT       CP_RL2
      000000E0H   SFRSYM    DATA     BYTE      ACC
      000000A8H.1 SFRSYM    DATA     BIT       ET0
      000000A8H.3 SFRSYM    DATA     BIT       ET1
      00000088H.5 SFRSYM    DATA     BIT       TF0
      000000A8H.5 SFRSYM    DATA     BIT       ET2
      00000088H.7 SFRSYM    DATA     BIT       TF1
      000000C8H.7 SFRSYM    DATA     BIT       TF2
      00000098H.2 SFRSYM    DATA     BIT       RB8
      0000008CH   SFRSYM    DATA     BYTE      TH0
      000000A8H.0 SFRSYM    DATA     BIT       EX0
      00000088H.0 SFRSYM    DATA     BIT       IT0
      0000008DH   SFRSYM    DATA     BYTE      TH1
      00000098H.3 SFRSYM    DATA     BIT       TB8
      000000A8H.2 SFRSYM    DATA     BIT       EX1
      00000088H.2 SFRSYM    DATA     BIT       IT1
      000000CDH   SFRSYM    DATA     BYTE      TH2
LX51 LINKER/LOCATER V4.66.87.0                                                        05/30/2018  17:25:18  PAGE 116


      000000D0H.0 SFRSYM    DATA     BIT       P
      00000098H.7 SFRSYM    DATA     BIT       SM0
      0000008AH   SFRSYM    DATA     BYTE      TL0
      00000098H.6 SFRSYM    DATA     BIT       SM1
      0000008BH   SFRSYM    DATA     BYTE      TL1
      00000098H.5 SFRSYM    DATA     BIT       SM2
      000000CCH   SFRSYM    DATA     BYTE      TL2
      000000B8H.1 SFRSYM    DATA     BIT       PT0
      000000B8H.3 SFRSYM    DATA     BIT       PT1
      000000D0H.3 SFRSYM    DATA     BIT       RS0
      000000E7H   SFRSYM    DATA     BYTE      ISP_CONTR
      000000B8H.5 SFRSYM    DATA     BIT       PT2
      00000088H.4 SFRSYM    DATA     BIT       TR0
      000000D0H.4 SFRSYM    DATA     BIT       RS1
      00000088H.6 SFRSYM    DATA     BIT       TR1
      000000C8H.2 SFRSYM    DATA     BIT       TR2
      000000B8H.0 SFRSYM    DATA     BIT       PX0
      000000E1H   SFRSYM    DATA     BYTE      WDT_CONTR
      000000B8H.2 SFRSYM    DATA     BIT       PX1
      00000083H   SFRSYM    DATA     BYTE      DPH
      00000082H   SFRSYM    DATA     BYTE      DPL
      000000B7H   SFRSYM    DATA     BYTE      IPH
      000000C8H.3 SFRSYM    DATA     BIT       EXEN2
      00000098H.4 SFRSYM    DATA     BIT       REN
      000000C9H   SFRSYM    DATA     BYTE      T2MOD
      000000C8H   SFRSYM    DATA     BYTE      T2CON
      000000E2H   SFRSYM    DATA     BYTE      ISP_DATA
      000000B9H   SFRSYM    DATA     BYTE      SADEN
      000000B0H.6 SFRSYM    DATA     BIT       POWER_5V_EN
      000000B0H.0 SFRSYM    DATA     BIT       RXD
      000000A9H   SFRSYM    DATA     BYTE      SADDR
      000000B0H.1 SFRSYM    DATA     BIT       TXD
      000000A2H   SFRSYM    DATA     BYTE      AUXR1
      000000D0H.5 SFRSYM    DATA     BIT       F0
      000000D0H   SFRSYM    DATA     BYTE      PSW
      020000E0H   SYMBOL    XDATA    BYTE      last_ps_s
      020000E1H   SYMBOL    XDATA    BYTE      powersave_to_s

      01006D71H   BLOCK     CODE     ---       LVL=0
      01006D71H   BLOCK     CODE     NEAR LAB  LVL=1
      00000007H   SYMBOL    DATA     BYTE      powersave_to
      ---         BLOCKEND  ---      ---       LVL=1
      01006D71H   LINE      CODE     ---       #31
      01006D71H   LINE      CODE     ---       #32
      01006D71H   LINE      CODE     ---       #34
      01006D7AH   LINE      CODE     ---       #35
      01006D7FH   LINE      CODE     ---       #36
      01006D8AH   LINE      CODE     ---       #37
      01006D91H   LINE      CODE     ---       #38
      01006D99H   LINE      CODE     ---       #39
      01006D9FH   LINE      CODE     ---       #40
      01006D9FH   LINE      CODE     ---       #41
      01006DA1H   LINE      CODE     ---       #42
      01006DA3H   LINE      CODE     ---       #43
      ---         BLOCKEND  ---      ---       LVL=0

      01007EAFH   BLOCK     CODE     ---       LVL=0
      0200000CH   SYMBOL    XDATA    BYTE      ev
      01007EAFH   LINE      CODE     ---       #45
      01007EB4H   LINE      CODE     ---       #46
      01007EB4H   LINE      CODE     ---       #47
      01007EC1H   LINE      CODE     ---       #48
      ---         BLOCKEND  ---      ---       LVL=0

      0100613FH   BLOCK     CODE     ---       LVL=0
LX51 LINKER/LOCATER V4.66.87.0                                                        05/30/2018  17:25:18  PAGE 117


      0100613FH   LINE      CODE     ---       #51
      0100613FH   LINE      CODE     ---       #52
      0100613FH   LINE      CODE     ---       #53
      01006148H   LINE      CODE     ---       #54
      0100614BH   LINE      CODE     ---       #55
      0100614EH   LINE      CODE     ---       #56
      01006151H   LINE      CODE     ---       #57
      01006154H   LINE      CODE     ---       #58
      01006157H   LINE      CODE     ---       #59
      0100615AH   LINE      CODE     ---       #60
      0100615DH   LINE      CODE     ---       #61
      01006160H   LINE      CODE     ---       #62
      01006163H   LINE      CODE     ---       #63
      01006166H   LINE      CODE     ---       #64
      01006169H   LINE      CODE     ---       #65
      0100616CH   LINE      CODE     ---       #66
      0100616FH   LINE      CODE     ---       #67
      01006172H   LINE      CODE     ---       #68
      01006177H   LINE      CODE     ---       #70
      0100617AH   LINE      CODE     ---       #74
      0100617DH   LINE      CODE     ---       #75
      01006182H   LINE      CODE     ---       #76
      01006185H   LINE      CODE     ---       #77
      0100618AH   LINE      CODE     ---       #78
      0100618AH   LINE      CODE     ---       #79
      0100618AH   LINE      CODE     ---       #80
      0100618AH   LINE      CODE     ---       #81
      ---         BLOCKEND  ---      ---       LVL=0

      01006ECEH   BLOCK     CODE     ---       LVL=0
      01006ECEH   LINE      CODE     ---       #83
      01006ECEH   LINE      CODE     ---       #84
      01006ECEH   LINE      CODE     ---       #86
      01006ED1H   LINE      CODE     ---       #87
      01006ED4H   LINE      CODE     ---       #88
      01006ED7H   LINE      CODE     ---       #89
      01006EDAH   LINE      CODE     ---       #90
      01006EDDH   LINE      CODE     ---       #91
      01006EE0H   LINE      CODE     ---       #92
      01006EE3H   LINE      CODE     ---       #93
      01006EE6H   LINE      CODE     ---       #94
      01006EE9H   LINE      CODE     ---       #95
      01006EECH   LINE      CODE     ---       #96
      01006EEFH   LINE      CODE     ---       #97
      01006EF2H   LINE      CODE     ---       #98
      01006EF5H   LINE      CODE     ---       #99
      ---         BLOCKEND  ---      ---       LVL=0

      01008B7CH   BLOCK     CODE     ---       LVL=0
      01008B7CH   LINE      CODE     ---       #102
      01008B7CH   LINE      CODE     ---       #103
      01008B7CH   LINE      CODE     ---       #104
      01008B81H   LINE      CODE     ---       #105
      ---         BLOCKEND  ---      ---       LVL=0

      01008115H   BLOCK     CODE     ---       LVL=0
      01008115H   LINE      CODE     ---       #107
      01008115H   LINE      CODE     ---       #108
      01008115H   LINE      CODE     ---       #109
      01008123H   LINE      CODE     ---       #110
      01008126H   LINE      CODE     ---       #111
      01008129H   LINE      CODE     ---       #112
      0100812CH   LINE      CODE     ---       #113
      ---         BLOCKEND  ---      ---       LVL=0

LX51 LINKER/LOCATER V4.66.87.0                                                        05/30/2018  17:25:18  PAGE 118


      010076A3H   BLOCK     CODE     ---       LVL=0
      010076A3H   LINE      CODE     ---       #117
      010076A3H   LINE      CODE     ---       #118
      010076A3H   LINE      CODE     ---       #119
      010076B3H   LINE      CODE     ---       #120
      010076B3H   LINE      CODE     ---       #121
      010076BAH   LINE      CODE     ---       #122
      010076BAH   LINE      CODE     ---       #123
      010076C1H   LINE      CODE     ---       #124
      010076C1H   LINE      CODE     ---       #125
      010076C6H   LINE      CODE     ---       #126
      010076C6H   LINE      CODE     ---       #127
      ---         BLOCKEND  ---      ---       LVL=0

      01006EFEH   BLOCK     CODE     ---       LVL=0
      01006EFEH   LINE      CODE     ---       #129
      01006EFEH   LINE      CODE     ---       #130
      01006EFEH   LINE      CODE     ---       #132
      01006F18H   LINE      CODE     ---       #133
      01006F21H   LINE      CODE     ---       #134
      01006F2AH   LINE      CODE     ---       #135
      01006F2CH   LINE      CODE     ---       #136
      01006F2CH   LINE      CODE     ---       #137
      01006F2DH   LINE      CODE     ---       #138
      ---         BLOCKEND  ---      ---       LVL=0

      01008C29H   BLOCK     CODE     ---       LVL=0
      01008C29H   LINE      CODE     ---       #140
      01008C29H   LINE      CODE     ---       #141
      01008C29H   LINE      CODE     ---       #142
      01008C2BH   LINE      CODE     ---       #143
      ---         BLOCKEND  ---      ---       LVL=0

      01008C2CH   BLOCK     CODE     ---       LVL=0
      01008C2CH   LINE      CODE     ---       #145
      01008C2CH   LINE      CODE     ---       #146
      01008C2CH   LINE      CODE     ---       #147
      01008C2EH   LINE      CODE     ---       #148
      ---         BLOCKEND  ---      ---       LVL=0

      01008C2FH   BLOCK     CODE     ---       LVL=0
      01008C2FH   LINE      CODE     ---       #150
      01008C2FH   LINE      CODE     ---       #151
      01008C2FH   LINE      CODE     ---       #152
      01008C31H   LINE      CODE     ---       #153
      ---         BLOCKEND  ---      ---       LVL=0

      01008A63H   BLOCK     CODE     ---       LVL=0
      01008A63H   LINE      CODE     ---       #155
      01008A63H   LINE      CODE     ---       #156
      01008A63H   LINE      CODE     ---       #157
      01008A6BH   LINE      CODE     ---       #158
      ---         BLOCKEND  ---      ---       LVL=0

      01007E0EH   BLOCK     CODE     ---       LVL=0
      00000020H.1 SYMBOL    BIT      BIT       enable
      01007E0EH   LINE      CODE     ---       #160
      01007E0EH   LINE      CODE     ---       #161
      01007E0EH   LINE      CODE     ---       #162
      01007E23H   LINE      CODE     ---       #164
      01007E28H   LINE      CODE     ---       #165
      ---         BLOCKEND  ---      ---       LVL=0

      01008C19H   BLOCK     CODE     ---       LVL=0
      01008C19H   LINE      CODE     ---       #167
LX51 LINKER/LOCATER V4.66.87.0                                                        05/30/2018  17:25:18  PAGE 119


      01008C19H   LINE      CODE     ---       #168
      01008C19H   LINE      CODE     ---       #169
      01008C1CH   LINE      CODE     ---       #170
      ---         BLOCKEND  ---      ---       LVL=0

      01008C32H   BLOCK     CODE     ---       LVL=0
      01008C32H   LINE      CODE     ---       #173
      01008C32H   LINE      CODE     ---       #174
      01008C32H   LINE      CODE     ---       #176
      01008C34H   LINE      CODE     ---       #181
      ---         BLOCKEND  ---      ---       LVL=0

      ---         MODULE    ---      ---       MISC
      010087EAH   PUBLIC    CODE     ---       _delay_ms
      010087DCH   PUBLIC    CODE     ---       _delay_10us
      01008B82H   SYMBOL    CODE     ---       internal_delay_10us
      010089FBH   SYMBOL    CODE     ---       internal_delay_ms

      01008B82H   BLOCK     CODE     ---       LVL=0
      01008B82H   BLOCK     CODE     NEAR LAB  LVL=1
      00000007H   SYMBOL    DATA     BYTE      i
      ---         BLOCKEND  ---      ---       LVL=1
      01008B82H   LINE      CODE     ---       #7
      01008B82H   LINE      CODE     ---       #8
      01008B82H   LINE      CODE     ---       #11
      01008B83H   LINE      CODE     ---       #12
      01008B85H   LINE      CODE     ---       #13
      01008B87H   LINE      CODE     ---       #14
      ---         BLOCKEND  ---      ---       LVL=0

      010089FBH   BLOCK     CODE     ---       LVL=0
      010089FBH   BLOCK     CODE     NEAR LAB  LVL=1
      00000007H   SYMBOL    DATA     BYTE      i
      00000006H   SYMBOL    DATA     BYTE      j
      ---         BLOCKEND  ---      ---       LVL=1
      010089FBH   LINE      CODE     ---       #16
      010089FBH   LINE      CODE     ---       #17
      010089FBH   LINE      CODE     ---       #20
      010089FCH   LINE      CODE     ---       #21
      010089FEH   LINE      CODE     ---       #22
      01008A00H   LINE      CODE     ---       #24
      01008A00H   LINE      CODE     ---       #25
      01008A02H   LINE      CODE     ---       #26
      01008A04H   LINE      CODE     ---       #27
      ---         BLOCKEND  ---      ---       LVL=0

      010087DCH   BLOCK     CODE     ---       LVL=0
      00000006H   SYMBOL    DATA     BYTE      t
      010087DCH   LINE      CODE     ---       #53
      010087DEH   LINE      CODE     ---       #54
      010087DEH   LINE      CODE     ---       #55
      010087E4H   LINE      CODE     ---       #56
      010087E7H   LINE      CODE     ---       #57
      010087E9H   LINE      CODE     ---       #58
      ---         BLOCKEND  ---      ---       LVL=0

      010087EAH   BLOCK     CODE     ---       LVL=0
      00000005H   SYMBOL    DATA     BYTE      t
      010087EAH   LINE      CODE     ---       #60
      010087ECH   LINE      CODE     ---       #61
      010087ECH   LINE      CODE     ---       #62
      010087F2H   LINE      CODE     ---       #63
      010087F5H   LINE      CODE     ---       #64
      010087F7H   LINE      CODE     ---       #65
      ---         BLOCKEND  ---      ---       LVL=0
LX51 LINKER/LOCATER V4.66.87.0                                                        05/30/2018  17:25:18  PAGE 120



      ---         MODULE    ---      ---       MOD_COMMON
      00000022H.7 PUBLIC    BIT      BIT       lpress_lock_day_sec
      020000DAH   PUBLIC    XDATA    BYTE      last_display_s
      00000022H.6 PUBLIC    BIT      BIT       lpress_lock_year_hour
      00000022H.5 PUBLIC    BIT      BIT       lpress_lock_month_min
      020000D9H   PUBLIC    XDATA    BYTE      lpress_start
      020000D8H   PUBLIC    XDATA    BYTE      common_state
      010053BAH   PUBLIC    CODE     ---       _display_logo

      010053BAH   BLOCK     CODE     ---       LVL=0
      02000012H   SYMBOL    XDATA    BYTE      type
      02000013H   SYMBOL    XDATA    BYTE      num
      010053BAH   LINE      CODE     ---       #16
      010053C2H   LINE      CODE     ---       #17
      010053C2H   LINE      CODE     ---       #18
      010053D3H   LINE      CODE     ---       #20
      010053D6H   LINE      CODE     ---       #22
      010053E7H   LINE      CODE     ---       #23
      010053E7H   LINE      CODE     ---       #24
      010053E9H   LINE      CODE     ---       #25
      010053EBH   LINE      CODE     ---       #26
      010053EBH   LINE      CODE     ---       #27
      010053EDH   LINE      CODE     ---       #28
      010053EFH   LINE      CODE     ---       #29
      010053EFH   LINE      CODE     ---       #30
      010053F1H   LINE      CODE     ---       #31
      010053F3H   LINE      CODE     ---       #32
      010053F3H   LINE      CODE     ---       #33
      010053FAH   LINE      CODE     ---       #34
      010053FAH   LINE      CODE     ---       #35
      010053FAH   LINE      CODE     ---       #36
      0100540AH   LINE      CODE     ---       #37
      0100541CH   LINE      CODE     ---       #38
      ---         BLOCKEND  ---      ---       LVL=0

      ---         MODULE    ---      ---       BEEPER
      01008C38H   PUBLIC    CODE     ---       beeper_stop_music
      01007870H   PUBLIC    CODE     ---       beeper_play_music
      01006572H   PUBLIC    CODE     ---       beeper_beep_beep
      01006736H   PUBLIC    CODE     ---       beeper_beep_beep_always
      01007316H   PUBLIC    CODE     ---       beeper_beep
      01008B8EH   PUBLIC    CODE     ---       beeper_get_music_index
      0100812CH   PUBLIC    CODE     ---       beeper_inc_music_index
      010083C6H   PUBLIC    CODE     ---       beeper_inc_music_to
      01008B88H   PUBLIC    CODE     ---       beeper_get_music_to
      00000020H.1 PUBLIC    BIT      BIT       ?beeper_set_beep_enable?BIT
      01008BC9H   PUBLIC    CODE     ---       beeper_set_beep_enable
      01008C35H   PUBLIC    CODE     ---       beeper_get_beep_enable
      01008A75H   PUBLIC    CODE     ---       beeper_leave_powersave
      01008A6CH   PUBLIC    CODE     ---       beeper_enter_powersave
      0100652FH   PUBLIC    CODE     ---       beeper_initialize
      00000080H   SFRSYM    DATA     BYTE      P0
      00000090H   SFRSYM    DATA     BYTE      P1
      000000A0H   SFRSYM    DATA     BYTE      P2
      000000B0H   SFRSYM    DATA     BYTE      P3
      000000C0H   SFRSYM    DATA     BYTE      XICON
      000000B0H.4 SFRSYM    DATA     BIT       T0
      000000D0H.6 SFRSYM    DATA     BIT       AC
      000000E8H   SFRSYM    DATA     BYTE      P4
      000000B0H.5 SFRSYM    DATA     BIT       T1
      000000E6H   SFRSYM    DATA     BYTE      ISP_TRIG
      00000090H.0 SFRSYM    DATA     BIT       T2
      000000A8H.7 SFRSYM    DATA     BIT       EA
      000000A8H.6 SFRSYM    DATA     BIT       EC
LX51 LINKER/LOCATER V4.66.87.0                                                        05/30/2018  17:25:18  PAGE 121


      00000098H.7 SFRSYM    DATA     BIT       FE
      000000A8H   SFRSYM    DATA     BYTE      IE
      000000C8H.6 SFRSYM    DATA     BIT       EXF2
      000000B0H.7 SFRSYM    DATA     BIT       RD
      000000A8H.4 SFRSYM    DATA     BIT       ES
      000000B8H   SFRSYM    DATA     BYTE      IP
      00000098H.0 SFRSYM    DATA     BIT       RI
      000000B0H.2 SFRSYM    DATA     BIT       INT0
      000000D0H.7 SFRSYM    DATA     BIT       CY
      00000098H.1 SFRSYM    DATA     BIT       TI
      000000B0H.3 SFRSYM    DATA     BIT       INT1
      000000CBH   SFRSYM    DATA     BYTE      RCAP2H
      000000E5H   SFRSYM    DATA     BYTE      ISP_CMD
      000000B8H.4 SFRSYM    DATA     BIT       PS
      00000081H   SFRSYM    DATA     BYTE      SP
      00000090H.1 SFRSYM    DATA     BIT       T2EX
      000000D0H.2 SFRSYM    DATA     BIT       OV
      000000CAH   SFRSYM    DATA     BYTE      RCAP2L
      000000C8H.1 SFRSYM    DATA     BIT       C_T2
      000000B0H.6 SFRSYM    DATA     BIT       WR
      000000C8H.5 SFRSYM    DATA     BIT       RCLK
      000000C8H.4 SFRSYM    DATA     BIT       TCLK
      00000080H.0 SFRSYM    DATA     BIT       P00
      00000090H.0 SFRSYM    DATA     BIT       beeper_out
      00000099H   SFRSYM    DATA     BYTE      SBUF
      00000087H   SFRSYM    DATA     BYTE      PCON
      00000090H.0 SFRSYM    DATA     BIT       P10
      00000080H.1 SFRSYM    DATA     BIT       P01
      000000A0H.0 SFRSYM    DATA     BIT       P20
      00000090H.1 SFRSYM    DATA     BIT       P11
      00000080H.2 SFRSYM    DATA     BIT       P02
      000000E3H   SFRSYM    DATA     BYTE      ISP_ADDRH
      000000B0H.0 SFRSYM    DATA     BIT       P30
      000000A0H.1 SFRSYM    DATA     BIT       P21
      00000090H.2 SFRSYM    DATA     BIT       P12
      00000080H.3 SFRSYM    DATA     BIT       P03
      00000098H   SFRSYM    DATA     BYTE      SCON
      000000B0H.1 SFRSYM    DATA     BIT       P31
      000000A0H.2 SFRSYM    DATA     BIT       P22
      00000090H.3 SFRSYM    DATA     BIT       P13
      00000080H.4 SFRSYM    DATA     BIT       P04
      000000E8H.0 SFRSYM    DATA     BIT       P40
      00000089H   SFRSYM    DATA     BYTE      TMOD
      00000088H   SFRSYM    DATA     BYTE      TCON
      000000B0H.2 SFRSYM    DATA     BIT       P32
      000000A0H.3 SFRSYM    DATA     BIT       P23
      00000090H.4 SFRSYM    DATA     BIT       P14
      00000080H.5 SFRSYM    DATA     BIT       P05
      000000E8H.1 SFRSYM    DATA     BIT       P41
      000000B0H.3 SFRSYM    DATA     BIT       P33
      000000A0H.4 SFRSYM    DATA     BIT       P24
      00000090H.5 SFRSYM    DATA     BIT       P15
      00000080H.6 SFRSYM    DATA     BIT       P06
      000000E4H   SFRSYM    DATA     BYTE      ISP_ADDRL
      000000E8H.2 SFRSYM    DATA     BIT       P42
      000000B0H.4 SFRSYM    DATA     BIT       P34
      000000A0H.5 SFRSYM    DATA     BIT       P25
      00000090H.6 SFRSYM    DATA     BIT       P16
      00000080H.7 SFRSYM    DATA     BIT       P07
      000000E8H.3 SFRSYM    DATA     BIT       P43
      000000B0H.5 SFRSYM    DATA     BIT       P35
      000000A0H.6 SFRSYM    DATA     BIT       P26
      00000090H.7 SFRSYM    DATA     BIT       P17
      000000E8H.4 SFRSYM    DATA     BIT       P44
      000000B0H.6 SFRSYM    DATA     BIT       P36
LX51 LINKER/LOCATER V4.66.87.0                                                        05/30/2018  17:25:18  PAGE 122


      000000A0H.7 SFRSYM    DATA     BIT       P27
      000000E8H.5 SFRSYM    DATA     BIT       P45
      000000B0H.7 SFRSYM    DATA     BIT       P37
      000000E8H.6 SFRSYM    DATA     BIT       P46
      00000088H.1 SFRSYM    DATA     BIT       IE0
      00000088H.3 SFRSYM    DATA     BIT       IE1
      0000008EH   SFRSYM    DATA     BYTE      AUXR
      000000F0H   SFRSYM    DATA     BYTE      B
      000000C8H.0 SFRSYM    DATA     BIT       CP_RL2
      000000E0H   SFRSYM    DATA     BYTE      ACC
      000000A8H.1 SFRSYM    DATA     BIT       ET0
      000000A8H.3 SFRSYM    DATA     BIT       ET1
      00000088H.5 SFRSYM    DATA     BIT       TF0
      000000A8H.5 SFRSYM    DATA     BIT       ET2
      00000088H.7 SFRSYM    DATA     BIT       TF1
      000000C8H.7 SFRSYM    DATA     BIT       TF2
      00000098H.2 SFRSYM    DATA     BIT       RB8
      0000008CH   SFRSYM    DATA     BYTE      TH0
      000000A8H.0 SFRSYM    DATA     BIT       EX0
      00000088H.0 SFRSYM    DATA     BIT       IT0
      0000008DH   SFRSYM    DATA     BYTE      TH1
      00000098H.3 SFRSYM    DATA     BIT       TB8
      000000A8H.2 SFRSYM    DATA     BIT       EX1
      00000088H.2 SFRSYM    DATA     BIT       IT1
      000000CDH   SFRSYM    DATA     BYTE      TH2
      000000D0H.0 SFRSYM    DATA     BIT       P
      00000098H.7 SFRSYM    DATA     BIT       SM0
      0000008AH   SFRSYM    DATA     BYTE      TL0
      00000098H.6 SFRSYM    DATA     BIT       SM1
      0000008BH   SFRSYM    DATA     BYTE      TL1
      00000098H.5 SFRSYM    DATA     BIT       SM2
      000000CCH   SFRSYM    DATA     BYTE      TL2
      000000B8H.1 SFRSYM    DATA     BIT       PT0
      000000B8H.3 SFRSYM    DATA     BIT       PT1
      000000D0H.3 SFRSYM    DATA     BIT       RS0
      000000E7H   SFRSYM    DATA     BYTE      ISP_CONTR
      000000B8H.5 SFRSYM    DATA     BIT       PT2
      00000088H.4 SFRSYM    DATA     BIT       TR0
      000000D0H.4 SFRSYM    DATA     BIT       RS1
      00000088H.6 SFRSYM    DATA     BIT       TR1
      000000C8H.2 SFRSYM    DATA     BIT       TR2
      000000B8H.0 SFRSYM    DATA     BIT       PX0
      000000E1H   SFRSYM    DATA     BYTE      WDT_CONTR
      000000B8H.2 SFRSYM    DATA     BIT       PX1
      00000083H   SFRSYM    DATA     BYTE      DPH
      00000082H   SFRSYM    DATA     BYTE      DPL
      000000B7H   SFRSYM    DATA     BYTE      IPH
      000000C8H.3 SFRSYM    DATA     BIT       EXEN2
      00000098H.4 SFRSYM    DATA     BIT       REN
      000000C9H   SFRSYM    DATA     BYTE      T2MOD
      000000C8H   SFRSYM    DATA     BYTE      T2CON
      000000E2H   SFRSYM    DATA     BYTE      ISP_DATA
      000000B9H   SFRSYM    DATA     BYTE      SADEN
      000000B0H.0 SFRSYM    DATA     BIT       RXD
      000000A9H   SFRSYM    DATA     BYTE      SADDR
      000000B0H.1 SFRSYM    DATA     BIT       TXD
      000000A2H   SFRSYM    DATA     BYTE      AUXR1
      000000D0H.5 SFRSYM    DATA     BIT       F0
      000000D0H   SFRSYM    DATA     BYTE      PSW
      0100AA99H   SYMBOL    CONST    ---       music_table
      010087F8H   SYMBOL    CODE     ---       _beeper_stop_play
      00000024H.1 SYMBOL    BIT      BIT       beeper_stop
      020000DBH   SYMBOL    XDATA    BYTE      pai
      020000DCH   SYMBOL    XDATA    BYTE      beeper_music_to
      0100A801H   SYMBOL    CONST    ---       music_table0
LX51 LINKER/LOCATER V4.66.87.0                                                        05/30/2018  17:25:18  PAGE 123


      0100A8C3H   SYMBOL    CONST    ---       music_table1
      0100A99DH   SYMBOL    CONST    ---       music_table2
      0100AA55H   SYMBOL    CONST    ---       music_table3
      01007132H   SYMBOL    CODE     ---       beeper_ISR
      01003EC6H   SYMBOL    CODE     ---       __beepler_play
      00000024H.2 SYMBOL    BIT      BIT       beep_enable
      020000DDH   SYMBOL    XDATA    BYTE      beeper_music_index

      01007E29H   BLOCK     CODE     ---       LVL=0
      ---         BLOCKEND  ---      ---       LVL=0

      01007132H   BLOCK     CODE     ---       LVL=0
      01007132H   LINE      CODE     ---       #115
      01007141H   LINE      CODE     ---       #118
      0100714AH   LINE      CODE     ---       #119
      0100714DH   LINE      CODE     ---       #120
      0100714FH   LINE      CODE     ---       #121
      ---         BLOCKEND  ---      ---       LVL=0

      0100652FH   BLOCK     CODE     ---       LVL=0
      0100652FH   LINE      CODE     ---       #124
      0100652FH   LINE      CODE     ---       #125
      0100652FH   LINE      CODE     ---       #126
      01006538H   LINE      CODE     ---       #133
      0100653BH   LINE      CODE     ---       #137
      0100653EH   LINE      CODE     ---       #138
      01006541H   LINE      CODE     ---       #139
      01006544H   LINE      CODE     ---       #140
      01006547H   LINE      CODE     ---       #149
      01006549H   LINE      CODE     ---       #151
      0100654BH   LINE      CODE     ---       #153
      0100654DH   LINE      CODE     ---       #155
      01006559H   LINE      CODE     ---       #156
      0100655BH   LINE      CODE     ---       #157
      01006565H   LINE      CODE     ---       #158
      0100656FH   LINE      CODE     ---       #159
      01006571H   LINE      CODE     ---       #160
      ---         BLOCKEND  ---      ---       LVL=0

      01008A6CH   BLOCK     CODE     ---       LVL=0
      01008A6CH   LINE      CODE     ---       #162
      01008A6CH   LINE      CODE     ---       #163
      01008A6CH   LINE      CODE     ---       #164
      ---         BLOCKEND  ---      ---       LVL=0

      01008A75H   BLOCK     CODE     ---       LVL=0
      01008A75H   LINE      CODE     ---       #167
      01008A75H   LINE      CODE     ---       #168
      01008A75H   LINE      CODE     ---       #169
      ---         BLOCKEND  ---      ---       LVL=0

      01008C35H   BLOCK     CODE     ---       LVL=0
      01008C35H   LINE      CODE     ---       #172
      01008C35H   LINE      CODE     ---       #173
      01008C35H   LINE      CODE     ---       #174
      01008C37H   LINE      CODE     ---       #175
      ---         BLOCKEND  ---      ---       LVL=0

      01008BC9H   BLOCK     CODE     ---       LVL=0
      00000020H.1 SYMBOL    BIT      BIT       enable
      01008BC9H   LINE      CODE     ---       #177
      01008BC9H   LINE      CODE     ---       #178
      01008BC9H   LINE      CODE     ---       #179
      01008BCDH   LINE      CODE     ---       #180
      ---         BLOCKEND  ---      ---       LVL=0
LX51 LINKER/LOCATER V4.66.87.0                                                        05/30/2018  17:25:18  PAGE 124



      01008B88H   BLOCK     CODE     ---       LVL=0
      01008B88H   LINE      CODE     ---       #182
      01008B88H   LINE      CODE     ---       #183
      01008B88H   LINE      CODE     ---       #184
      01008B8DH   LINE      CODE     ---       #185
      ---         BLOCKEND  ---      ---       LVL=0

      010083C6H   BLOCK     CODE     ---       LVL=0
      010083C6H   LINE      CODE     ---       #188
      010083C6H   LINE      CODE     ---       #189
      010083C6H   LINE      CODE     ---       #190
      010083D9H   LINE      CODE     ---       #191
      ---         BLOCKEND  ---      ---       LVL=0

      0100812CH   BLOCK     CODE     ---       LVL=0
      0100812CH   LINE      CODE     ---       #193
      0100812CH   LINE      CODE     ---       #194
      0100812CH   LINE      CODE     ---       #195
      01008135H   LINE      CODE     ---       #196
      ---         BLOCKEND  ---      ---       LVL=0

      01008B8EH   BLOCK     CODE     ---       LVL=0
      01008B8EH   LINE      CODE     ---       #199
      01008B8EH   LINE      CODE     ---       #200
      01008B8EH   LINE      CODE     ---       #201
      01008B93H   LINE      CODE     ---       #202
      ---         BLOCKEND  ---      ---       LVL=0

      010087F8H   BLOCK     CODE     ---       LVL=0
      010087F8H   LINE      CODE     ---       #204
      010087F8H   LINE      CODE     ---       #205
      010087F8H   LINE      CODE     ---       #206
      010087FAH   LINE      CODE     ---       #207
      010087FCH   LINE      CODE     ---       #208
      01008801H   LINE      CODE     ---       #209
      01008803H   LINE      CODE     ---       #210
      01008805H   LINE      CODE     ---       #211
      ---         BLOCKEND  ---      ---       LVL=0

      01003EC6H   BLOCK     CODE     ---       LVL=0
      02000013H   SYMBOL    XDATA    ---       music
      00000020H.0 SYMBOL    BIT      BIT       once
      01003ECCH   BLOCK     CODE     NEAR LAB  LVL=1
      02000016H   SYMBOL    XDATA    BYTE      cm
      02000017H   SYMBOL    XDATA    BYTE      tune
      02000018H   SYMBOL    XDATA    BYTE      start_s
      ---         BLOCKEND  ---      ---       LVL=1
      01003EC6H   LINE      CODE     ---       #213
      01003ECCH   LINE      CODE     ---       #214
      01003ECCH   LINE      CODE     ---       #219
      01003ECCH   LINE      CODE     ---       #220
      01003ECCH   LINE      CODE     ---       #221
      01003ECFH   LINE      CODE     ---       #222
      01003ED1H   LINE      CODE     ---       #223
      01003ED7H   LINE      CODE     ---       #225
      01003EDAH   LINE      CODE     ---       #226
      01003EDAH   LINE      CODE     ---       #227
      01003EEFH   LINE      CODE     ---       #228
      01003EEFH   LINE      CODE     ---       #229
      01003EEFH   LINE      CODE     ---       #230
      01003EEFH   LINE      CODE     ---       #231
      01003EF2H   LINE      CODE     ---       #232
      01003EF5H   LINE      CODE     ---       #233
      01003EF8H   LINE      CODE     ---       #234
LX51 LINKER/LOCATER V4.66.87.0                                                        05/30/2018  17:25:18  PAGE 125


      01003EFAH   LINE      CODE     ---       #235
      01003EFAH   LINE      CODE     ---       #237
      01003EFFH   LINE      CODE     ---       #238
      01003EFFH   LINE      CODE     ---       #239
      01003F01H   LINE      CODE     ---       #240
      01003F01H   LINE      CODE     ---       #241
      01003F01H   LINE      CODE     ---       #242
      01003F01H   LINE      CODE     ---       #243
      01003F06H   LINE      CODE     ---       #244
      01003F09H   LINE      CODE     ---       #245
      01003F09H   LINE      CODE     ---       #246
      01003F09H   LINE      CODE     ---       #247
      01003F10H   LINE      CODE     ---       #248
      01003F15H   LINE      CODE     ---       #249
      01003F17H   LINE      CODE     ---       #250
      01003F17H   LINE      CODE     ---       #251
      01003F24H   LINE      CODE     ---       #252
      01003F2BH   LINE      CODE     ---       #253
      01003F2DH   LINE      CODE     ---       #254
      01003F2FH   LINE      CODE     ---       #255
      01003F31H   LINE      CODE     ---       #256
      01003F3AH   LINE      CODE     ---       #257
      01003F3CH   LINE      CODE     ---       #258
      01003F46H   LINE      CODE     ---       #259
      01003F48H   LINE      CODE     ---       #260
      01003F4AH   LINE      CODE     ---       #261
      01003F4AH   LINE      CODE     ---       #262
      01003F4CH   LINE      CODE     ---       #263
      01003F4FH   LINE      CODE     ---       #264
      01003F50H   LINE      CODE     ---       #265
      ---         BLOCKEND  ---      ---       LVL=0

      01007316H   BLOCK     CODE     ---       LVL=0
      01007316H   BLOCK     CODE     NEAR LAB  LVL=1
      0200000DH   SYMBOL    XDATA    BYTE      c
      ---         BLOCKEND  ---      ---       LVL=1
      01007316H   LINE      CODE     ---       #267
      01007316H   LINE      CODE     ---       #268
      01007316H   LINE      CODE     ---       #269
      0100731CH   LINE      CODE     ---       #270
      01007325H   LINE      CODE     ---       #271
      01007328H   LINE      CODE     ---       #273
      0100732AH   LINE      CODE     ---       #274
      01007334H   LINE      CODE     ---       #275
      01007336H   LINE      CODE     ---       #276
      0100733BH   LINE      CODE     ---       #277
      0100733DH   LINE      CODE     ---       #278
      0100733FH   LINE      CODE     ---       #279
      ---         BLOCKEND  ---      ---       LVL=0

      01006736H   BLOCK     CODE     ---       LVL=0
      01006736H   BLOCK     CODE     NEAR LAB  LVL=1
      02000014H   SYMBOL    XDATA    BYTE      c
      ---         BLOCKEND  ---      ---       LVL=1
      01006736H   LINE      CODE     ---       #281
      01006736H   LINE      CODE     ---       #282
      01006736H   LINE      CODE     ---       #283
      0100673CH   LINE      CODE     ---       #284
      01006745H   LINE      CODE     ---       #285
      01006747H   LINE      CODE     ---       #286
      01006751H   LINE      CODE     ---       #287
      01006753H   LINE      CODE     ---       #288
      01006758H   LINE      CODE     ---       #289
      0100675AH   LINE      CODE     ---       #291
      0100675FH   LINE      CODE     ---       #293
LX51 LINKER/LOCATER V4.66.87.0                                                        05/30/2018  17:25:18  PAGE 126


      01006769H   LINE      CODE     ---       #294
      0100676BH   LINE      CODE     ---       #295
      01006770H   LINE      CODE     ---       #296
      01006772H   LINE      CODE     ---       #297
      01006774H   LINE      CODE     ---       #298
      ---         BLOCKEND  ---      ---       LVL=0

      01006572H   BLOCK     CODE     ---       LVL=0
      01006572H   BLOCK     CODE     NEAR LAB  LVL=1
      0200000BH   SYMBOL    XDATA    BYTE      c
      ---         BLOCKEND  ---      ---       LVL=1
      01006572H   LINE      CODE     ---       #300
      01006572H   LINE      CODE     ---       #301
      01006572H   LINE      CODE     ---       #302
      01006578H   LINE      CODE     ---       #303
      01006581H   LINE      CODE     ---       #304
      01006584H   LINE      CODE     ---       #306
      01006586H   LINE      CODE     ---       #307
      01006590H   LINE      CODE     ---       #308
      01006592H   LINE      CODE     ---       #309
      01006597H   LINE      CODE     ---       #310
      01006599H   LINE      CODE     ---       #312
      0100659EH   LINE      CODE     ---       #314
      010065A8H   LINE      CODE     ---       #315
      010065AAH   LINE      CODE     ---       #316
      010065AFH   LINE      CODE     ---       #317
      010065B1H   LINE      CODE     ---       #318
      010065B3H   LINE      CODE     ---       #319
      ---         BLOCKEND  ---      ---       LVL=0

      01007870H   BLOCK     CODE     ---       LVL=0
      01007870H   LINE      CODE     ---       #321
      01007870H   LINE      CODE     ---       #322
      01007870H   LINE      CODE     ---       #324
      01007879H   LINE      CODE     ---       #325
      ---         BLOCKEND  ---      ---       LVL=0

      01008C38H   BLOCK     CODE     ---       LVL=0
      01008C38H   LINE      CODE     ---       #328
      01008C38H   LINE      CODE     ---       #329
      01008C38H   LINE      CODE     ---       #330
      ---         BLOCKEND  ---      ---       LVL=0

      ---         MODULE    ---      ---       CLOCK
      0100824FH   PUBLIC    CODE     ---       clock_leave_shell
      01008C3EH   PUBLIC    CODE     ---       clock_enter_shell
      01008029H   PUBLIC    CODE     ---       clock_leave_powersave
      01008806H   PUBLIC    CODE     ---       clock_enter_powersave
      0100715FH   PUBLIC    CODE     ---       clock_initialize
      00000020H.2 PUBLIC    BIT      BIT       ?clock_enable_interrupt?BIT
      01008A7EH   PUBLIC    CODE     ---       clock_enable_interrupt
      01007B87H   PUBLIC    CODE     ---       _clock_get_mon_date
      01008143H   PUBLIC    CODE     ---       _clock_is_leap_year
      01005145H   PUBLIC    CODE     ---       _clock_sync_to_rtc
      01005545H   PUBLIC    CODE     ---       _clock_sync_from_rtc
      010082E6H   PUBLIC    CODE     ---       clock_inc_year
      01008BF6H   PUBLIC    CODE     ---       clock_get_year
      01008239H   PUBLIC    CODE     ---       clock_inc_month
      01008BA6H   PUBLIC    CODE     ---       clock_get_month
      01008BA0H   PUBLIC    CODE     ---       clock_get_day
      0100799CH   PUBLIC    CODE     ---       clock_inc_date
      01008B9AH   PUBLIC    CODE     ---       clock_get_date
      01008933H   PUBLIC    CODE     ---       clock_inc_hour
      01008BF1H   PUBLIC    CODE     ---       clock_get_hour
      01008928H   PUBLIC    CODE     ---       clock_inc_min
LX51 LINKER/LOCATER V4.66.87.0                                                        05/30/2018  17:25:18  PAGE 127


      01008BECH   PUBLIC    CODE     ---       clock_get_min
      01008BE7H   PUBLIC    CODE     ---       clock_clr_sec
      01008BE2H   PUBLIC    CODE     ---       clock_get_sec
      01008BDDH   PUBLIC    CODE     ---       clock_get_sec_256
      01008BD8H   PUBLIC    CODE     ---       clock_get_ms39
      00000020H.1 PUBLIC    BIT      BIT       ?clock_set_hour_12?BIT
      01008BD3H   PUBLIC    CODE     ---       clock_set_hour_12
      01008C3BH   PUBLIC    CODE     ---       clock_get_hour_12
      01002956H   PUBLIC    CODE     ---       _clock_yymmdd_to_day
      0100426DH   PUBLIC    CODE     ---       clock_dump
      01008B94H   PUBLIC    CODE     ---       _clock_switch_display_mode
      00000020H.0 PUBLIC    BIT      BIT       ?clock_display?BIT
      01008BCEH   PUBLIC    CODE     ---       clock_display
      00000080H   SFRSYM    DATA     BYTE      P0
      00000090H   SFRSYM    DATA     BYTE      P1
      000000A0H   SFRSYM    DATA     BYTE      P2
      000000B0H   SFRSYM    DATA     BYTE      P3
      000000C0H   SFRSYM    DATA     BYTE      XICON
      000000B0H.4 SFRSYM    DATA     BIT       T0
      000000D0H.6 SFRSYM    DATA     BIT       AC
      000000E8H   SFRSYM    DATA     BYTE      P4
      000000B0H.5 SFRSYM    DATA     BIT       T1
      000000E6H   SFRSYM    DATA     BYTE      ISP_TRIG
      00000090H.0 SFRSYM    DATA     BIT       T2
      000000A8H.7 SFRSYM    DATA     BIT       EA
      000000A8H.6 SFRSYM    DATA     BIT       EC
      00000098H.7 SFRSYM    DATA     BIT       FE
      000000A8H   SFRSYM    DATA     BYTE      IE
      000000C8H.6 SFRSYM    DATA     BIT       EXF2
      000000B0H.7 SFRSYM    DATA     BIT       RD
      000000A8H.4 SFRSYM    DATA     BIT       ES
      000000B8H   SFRSYM    DATA     BYTE      IP
      00000098H.0 SFRSYM    DATA     BIT       RI
      000000B0H.2 SFRSYM    DATA     BIT       INT0
      000000D0H.7 SFRSYM    DATA     BIT       CY
      00000098H.1 SFRSYM    DATA     BIT       TI
      000000B0H.3 SFRSYM    DATA     BIT       INT1
      000000CBH   SFRSYM    DATA     BYTE      RCAP2H
      000000E5H   SFRSYM    DATA     BYTE      ISP_CMD
      000000B8H.4 SFRSYM    DATA     BIT       PS
      00000081H   SFRSYM    DATA     BYTE      SP
      00000090H.1 SFRSYM    DATA     BIT       T2EX
      000000D0H.2 SFRSYM    DATA     BIT       OV
      000000CAH   SFRSYM    DATA     BYTE      RCAP2L
      000000C8H.1 SFRSYM    DATA     BIT       C_T2
      000000B0H.6 SFRSYM    DATA     BIT       WR
      000000C8H.5 SFRSYM    DATA     BIT       RCLK
      000000C8H.4 SFRSYM    DATA     BIT       TCLK
      00000080H.0 SFRSYM    DATA     BIT       P00
      00000099H   SFRSYM    DATA     BYTE      SBUF
      00000087H   SFRSYM    DATA     BYTE      PCON
      00000090H.0 SFRSYM    DATA     BIT       P10
      00000080H.1 SFRSYM    DATA     BIT       P01
      000000A0H.0 SFRSYM    DATA     BIT       P20
      00000090H.1 SFRSYM    DATA     BIT       P11
      00000080H.2 SFRSYM    DATA     BIT       P02
      000000E3H   SFRSYM    DATA     BYTE      ISP_ADDRH
      000000B0H.0 SFRSYM    DATA     BIT       P30
      000000A0H.1 SFRSYM    DATA     BIT       P21
      00000090H.2 SFRSYM    DATA     BIT       P12
      00000080H.3 SFRSYM    DATA     BIT       P03
      00000098H   SFRSYM    DATA     BYTE      SCON
      000000B0H.1 SFRSYM    DATA     BIT       P31
      000000A0H.2 SFRSYM    DATA     BIT       P22
      00000090H.3 SFRSYM    DATA     BIT       P13
LX51 LINKER/LOCATER V4.66.87.0                                                        05/30/2018  17:25:18  PAGE 128


      00000080H.4 SFRSYM    DATA     BIT       P04
      000000E8H.0 SFRSYM    DATA     BIT       P40
      00000089H   SFRSYM    DATA     BYTE      TMOD
      00000088H   SFRSYM    DATA     BYTE      TCON
      000000B0H.2 SFRSYM    DATA     BIT       P32
      000000A0H.3 SFRSYM    DATA     BIT       P23
      00000090H.4 SFRSYM    DATA     BIT       P14
      00000080H.5 SFRSYM    DATA     BIT       P05
      000000E8H.1 SFRSYM    DATA     BIT       P41
      000000B0H.3 SFRSYM    DATA     BIT       P33
      000000A0H.4 SFRSYM    DATA     BIT       P24
      00000090H.5 SFRSYM    DATA     BIT       P15
      00000080H.6 SFRSYM    DATA     BIT       P06
      000000E4H   SFRSYM    DATA     BYTE      ISP_ADDRL
      000000E8H.2 SFRSYM    DATA     BIT       P42
      000000B0H.4 SFRSYM    DATA     BIT       P34
      000000A0H.5 SFRSYM    DATA     BIT       P25
      00000090H.6 SFRSYM    DATA     BIT       P16
      00000080H.7 SFRSYM    DATA     BIT       P07
      000000E8H.3 SFRSYM    DATA     BIT       P43
      000000B0H.5 SFRSYM    DATA     BIT       P35
      000000A0H.6 SFRSYM    DATA     BIT       P26
      00000090H.7 SFRSYM    DATA     BIT       P17
      000000E8H.4 SFRSYM    DATA     BIT       P44
      000000B0H.6 SFRSYM    DATA     BIT       P36
      000000A0H.7 SFRSYM    DATA     BIT       P27
      000000E8H.5 SFRSYM    DATA     BIT       P45
      000000B0H.7 SFRSYM    DATA     BIT       P37
      000000E8H.6 SFRSYM    DATA     BIT       P46
      00000088H.1 SFRSYM    DATA     BIT       IE0
      00000088H.3 SFRSYM    DATA     BIT       IE1
      0000008EH   SFRSYM    DATA     BYTE      AUXR
      000000F0H   SFRSYM    DATA     BYTE      B
      000000C8H.0 SFRSYM    DATA     BIT       CP_RL2
      000000E0H   SFRSYM    DATA     BYTE      ACC
      000000A8H.1 SFRSYM    DATA     BIT       ET0
      000000A8H.3 SFRSYM    DATA     BIT       ET1
      00000088H.5 SFRSYM    DATA     BIT       TF0
      000000A8H.5 SFRSYM    DATA     BIT       ET2
      00000088H.7 SFRSYM    DATA     BIT       TF1
      000000C8H.7 SFRSYM    DATA     BIT       TF2
      00000098H.2 SFRSYM    DATA     BIT       RB8
      0000008CH   SFRSYM    DATA     BYTE      TH0
      000000A8H.0 SFRSYM    DATA     BIT       EX0
      00000088H.0 SFRSYM    DATA     BIT       IT0
      0000008DH   SFRSYM    DATA     BYTE      TH1
      00000098H.3 SFRSYM    DATA     BIT       TB8
      000000A8H.2 SFRSYM    DATA     BIT       EX1
      00000088H.2 SFRSYM    DATA     BIT       IT1
      000000CDH   SFRSYM    DATA     BYTE      TH2
      000000D0H.0 SFRSYM    DATA     BIT       P
      00000098H.7 SFRSYM    DATA     BIT       SM0
      0000008AH   SFRSYM    DATA     BYTE      TL0
      00000098H.6 SFRSYM    DATA     BIT       SM1
      0000008BH   SFRSYM    DATA     BYTE      TL1
      00000098H.5 SFRSYM    DATA     BIT       SM2
      000000CCH   SFRSYM    DATA     BYTE      TL2
      000000B8H.1 SFRSYM    DATA     BIT       PT0
      000000B8H.3 SFRSYM    DATA     BIT       PT1
      000000D0H.3 SFRSYM    DATA     BIT       RS0
      000000E7H   SFRSYM    DATA     BYTE      ISP_CONTR
      000000B8H.5 SFRSYM    DATA     BIT       PT2
      00000088H.4 SFRSYM    DATA     BIT       TR0
      000000D0H.4 SFRSYM    DATA     BIT       RS1
      00000088H.6 SFRSYM    DATA     BIT       TR1
LX51 LINKER/LOCATER V4.66.87.0                                                        05/30/2018  17:25:18  PAGE 129


      000000C8H.2 SFRSYM    DATA     BIT       TR2
      000000B8H.0 SFRSYM    DATA     BIT       PX0
      000000E1H   SFRSYM    DATA     BYTE      WDT_CONTR
      000000B8H.2 SFRSYM    DATA     BIT       PX1
      00000083H   SFRSYM    DATA     BYTE      DPH
      00000082H   SFRSYM    DATA     BYTE      DPL
      000000B7H   SFRSYM    DATA     BYTE      IPH
      000000C8H.3 SFRSYM    DATA     BIT       EXEN2
      00000098H.4 SFRSYM    DATA     BIT       REN
      000000C9H   SFRSYM    DATA     BYTE      T2MOD
      000000C8H   SFRSYM    DATA     BYTE      T2CON
      000000E2H   SFRSYM    DATA     BYTE      ISP_DATA
      000000B9H   SFRSYM    DATA     BYTE      SADEN
      000000B0H.0 SFRSYM    DATA     BIT       RXD
      000000A9H   SFRSYM    DATA     BYTE      SADDR
      000000B0H.1 SFRSYM    DATA     BIT       TXD
      000000A2H   SFRSYM    DATA     BYTE      AUXR1
      000000D0H.5 SFRSYM    DATA     BIT       F0
      000000D0H   SFRSYM    DATA     BYTE      PSW
      020000E6H   SYMBOL    XDATA    BYTE      display_mode
      01009E54H   SYMBOL    CONST    ---       date_table
      01006B25H   SYMBOL    CODE     ---       clock0_ISR
      0000003FH   SYMBOL    IDATA    BYTE      sec_256
      00000040H   SYMBOL    IDATA    ---       clk
      00000023H.0 SYMBOL    BIT      BIT       display_enable
      00000023H.1 SYMBOL    BIT      BIT       in_shell
      010021BDH   SYMBOL    CODE     ---       clock_inc_ms39
      00000023H.2 SYMBOL    BIT      BIT       clk_is12

      01004BE4H   BLOCK     CODE     ---       LVL=0
      ---         BLOCKEND  ---      ---       LVL=0

      01008BCEH   BLOCK     CODE     ---       LVL=0
      00000020H.0 SYMBOL    BIT      BIT       enable
      01008BCEH   LINE      CODE     ---       #129
      01008BCEH   LINE      CODE     ---       #130
      01008BCEH   LINE      CODE     ---       #131
      01008BD2H   LINE      CODE     ---       #132
      ---         BLOCKEND  ---      ---       LVL=0

      01008B94H   BLOCK     CODE     ---       LVL=0
      00000007H   SYMBOL    DATA     BYTE      mode
      01008B94H   LINE      CODE     ---       #134
      01008B94H   LINE      CODE     ---       #135
      01008B94H   LINE      CODE     ---       #136
      01008B99H   LINE      CODE     ---       #137
      ---         BLOCKEND  ---      ---       LVL=0

      010021BDH   BLOCK     CODE     ---       LVL=0
      010021BDH   BLOCK     CODE     NEAR LAB  LVL=1
      00000005H   SYMBOL    DATA     BYTE      hour
      00000021H.3 SYMBOL    BIT      BIT       is_pm
      ---         BLOCKEND  ---      ---       LVL=1
      010021BDH   LINE      CODE     ---       #140
      010021BDH   LINE      CODE     ---       #141
      010021BDH   LINE      CODE     ---       #145
      010021C0H   LINE      CODE     ---       #147
      010021CAH   LINE      CODE     ---       #148
      010021D0H   LINE      CODE     ---       #149
      010021D0H   LINE      CODE     ---       #151
      010021D5H   LINE      CODE     ---       #152
      010021DBH   LINE      CODE     ---       #153
      010021DBH   LINE      CODE     ---       #155
      010021E0H   LINE      CODE     ---       #156
      010021EAH   LINE      CODE     ---       #157
LX51 LINKER/LOCATER V4.66.87.0                                                        05/30/2018  17:25:18  PAGE 130


      010021EDH   LINE      CODE     ---       #158
      010021F0H   LINE      CODE     ---       #159
      010021F6H   LINE      CODE     ---       #160
      010021FBH   LINE      CODE     ---       #161
      01002200H   LINE      CODE     ---       #162
      01002205H   LINE      CODE     ---       #163
      0100220AH   LINE      CODE     ---       #164
      0100220FH   LINE      CODE     ---       #165
      0100222BH   LINE      CODE     ---       #166
      01002235H   LINE      CODE     ---       #167
      01002238H   LINE      CODE     ---       #168
      01002243H   LINE      CODE     ---       #169
      01002246H   LINE      CODE     ---       #170
      01002250H   LINE      CODE     ---       #171
      01002250H   LINE      CODE     ---       #172
      01002250H   LINE      CODE     ---       #173
      01002250H   LINE      CODE     ---       #174
      01002250H   LINE      CODE     ---       #175
      01002250H   LINE      CODE     ---       #176
      01002250H   LINE      CODE     ---       #177
      0100225CH   LINE      CODE     ---       #178
      01002263H   LINE      CODE     ---       #179
      01002268H   LINE      CODE     ---       #180
      0100226AH   LINE      CODE     ---       #181
      01002272H   LINE      CODE     ---       #182
      01002276H   LINE      CODE     ---       #183
      01002278H   LINE      CODE     ---       #184
      01002281H   LINE      CODE     ---       #185
      01002283H   LINE      CODE     ---       #186
      01002283H   LINE      CODE     ---       #188
      0100228AH   LINE      CODE     ---       #189
      01002298H   LINE      CODE     ---       #190
      0100229AH   LINE      CODE     ---       #191
      010022A7H   LINE      CODE     ---       #192
      010022A7H   LINE      CODE     ---       #193
      010022B2H   LINE      CODE     ---       #194
      010022B7H   LINE      CODE     ---       #195
      010022BDH   LINE      CODE     ---       #196
      010022C2H   LINE      CODE     ---       #197
      010022CAH   LINE      CODE     ---       #198
      010022D0H   LINE      CODE     ---       #199
      010022E1H   LINE      CODE     ---       #200
      010022E8H   LINE      CODE     ---       #201
      010022EFH   LINE      CODE     ---       #202
      010022F9H   LINE      CODE     ---       #203
      010022FBH   LINE      CODE     ---       #204
      010022FBH   LINE      CODE     ---       #205
      010022FDH   LINE      CODE     ---       #206
      01002307H   LINE      CODE     ---       #207
      0100230DH   LINE      CODE     ---       #208
      01002313H   LINE      CODE     ---       #209
      01002319H   LINE      CODE     ---       #210
      01002320H   LINE      CODE     ---       #211
      01002329H   LINE      CODE     ---       #212
      01002329H   LINE      CODE     ---       #213
      01002329H   LINE      CODE     ---       #214
      ---         BLOCKEND  ---      ---       LVL=0

      0100426DH   BLOCK     CODE     ---       LVL=0
      0100426DH   LINE      CODE     ---       #217
      0100426DH   LINE      CODE     ---       #218
      0100426DH   LINE      CODE     ---       #219
      01004273H   LINE      CODE     ---       #220
      0100427FH   LINE      CODE     ---       #221
      01004285H   LINE      CODE     ---       #222
LX51 LINKER/LOCATER V4.66.87.0                                                        05/30/2018  17:25:18  PAGE 131


      01004291H   LINE      CODE     ---       #223
      01004297H   LINE      CODE     ---       #224
      010042A8H   LINE      CODE     ---       #225
      010042AEH   LINE      CODE     ---       #226
      010042BFH   LINE      CODE     ---       #227
      010042DDH   LINE      CODE     ---       #228
      ---         BLOCKEND  ---      ---       LVL=0

      01002956H   BLOCK     CODE     ---       LVL=0
      00000004H   SYMBOL    DATA     BYTE      year
      00000005H   SYMBOL    DATA     BYTE      mon
      00000003H   SYMBOL    DATA     BYTE      date
      01002958H   BLOCK     CODE     NEAR LAB  LVL=1
      02000017H   SYMBOL    XDATA    WORD      d
      02000019H   SYMBOL    XDATA    WORD      m
      0200001BH   SYMBOL    XDATA    WORD      y
      0200001DH   SYMBOL    XDATA    WORD      c
      ---         BLOCKEND  ---      ---       LVL=1
      01002956H   LINE      CODE     ---       #235
      01002958H   LINE      CODE     ---       #236
      01002958H   LINE      CODE     ---       #238
      01002965H   LINE      CODE     ---       #239
      01002972H   LINE      CODE     ---       #240
      0100297EH   LINE      CODE     ---       #242
      01002987H   LINE      CODE     ---       #243
      01002991H   LINE      CODE     ---       #244
      0100299BH   LINE      CODE     ---       #245
      0100299BH   LINE      CODE     ---       #247
      010029AAH   LINE      CODE     ---       #248
      010029C0H   LINE      CODE     ---       #250
      01002A37H   LINE      CODE     ---       #251
      01002A54H   LINE      CODE     ---       #253
      01002A57H   LINE      CODE     ---       #254
      01002A5AH   LINE      CODE     ---       #255
      01002A5AH   LINE      CODE     ---       #257
      01002A61H   LINE      CODE     ---       #258
      ---         BLOCKEND  ---      ---       LVL=0

      01008C3BH   BLOCK     CODE     ---       LVL=0
      01008C3BH   LINE      CODE     ---       #260
      01008C3BH   LINE      CODE     ---       #261
      01008C3BH   LINE      CODE     ---       #262
      01008C3DH   LINE      CODE     ---       #263
      ---         BLOCKEND  ---      ---       LVL=0

      01008BD3H   BLOCK     CODE     ---       LVL=0
      00000020H.1 SYMBOL    BIT      BIT       enable
      01008BD3H   LINE      CODE     ---       #264
      01008BD3H   LINE      CODE     ---       #265
      01008BD3H   LINE      CODE     ---       #266
      01008BD7H   LINE      CODE     ---       #267
      ---         BLOCKEND  ---      ---       LVL=0

      01008BD8H   BLOCK     CODE     ---       LVL=0
      01008BD8H   LINE      CODE     ---       #269
      01008BD8H   LINE      CODE     ---       #270
      01008BD8H   LINE      CODE     ---       #271
      01008BDCH   LINE      CODE     ---       #272
      ---         BLOCKEND  ---      ---       LVL=0

      01008BDDH   BLOCK     CODE     ---       LVL=0
      01008BDDH   LINE      CODE     ---       #274
      01008BDDH   LINE      CODE     ---       #275
      01008BDDH   LINE      CODE     ---       #276
      01008BE1H   LINE      CODE     ---       #277
LX51 LINKER/LOCATER V4.66.87.0                                                        05/30/2018  17:25:18  PAGE 132


      ---         BLOCKEND  ---      ---       LVL=0

      01008BE2H   BLOCK     CODE     ---       LVL=0
      01008BE2H   LINE      CODE     ---       #279
      01008BE2H   LINE      CODE     ---       #280
      01008BE2H   LINE      CODE     ---       #281
      01008BE6H   LINE      CODE     ---       #282
      ---         BLOCKEND  ---      ---       LVL=0

      01008BE7H   BLOCK     CODE     ---       LVL=0
      01008BE7H   LINE      CODE     ---       #283
      01008BE7H   LINE      CODE     ---       #284
      01008BE7H   LINE      CODE     ---       #285
      01008BEBH   LINE      CODE     ---       #286
      ---         BLOCKEND  ---      ---       LVL=0

      01008BECH   BLOCK     CODE     ---       LVL=0
      01008BECH   LINE      CODE     ---       #288
      01008BECH   LINE      CODE     ---       #289
      01008BECH   LINE      CODE     ---       #290
      01008BF0H   LINE      CODE     ---       #291
      ---         BLOCKEND  ---      ---       LVL=0

      01008928H   BLOCK     CODE     ---       LVL=0
      01008928H   LINE      CODE     ---       #292
      01008928H   LINE      CODE     ---       #293
      01008928H   LINE      CODE     ---       #294
      01008932H   LINE      CODE     ---       #295
      ---         BLOCKEND  ---      ---       LVL=0

      01008BF1H   BLOCK     CODE     ---       LVL=0
      01008BF1H   LINE      CODE     ---       #297
      01008BF1H   LINE      CODE     ---       #298
      01008BF1H   LINE      CODE     ---       #299
      01008BF5H   LINE      CODE     ---       #300
      ---         BLOCKEND  ---      ---       LVL=0

      01008933H   BLOCK     CODE     ---       LVL=0
      01008933H   LINE      CODE     ---       #301
      01008933H   LINE      CODE     ---       #302
      01008933H   LINE      CODE     ---       #303
      0100893DH   LINE      CODE     ---       #304
      ---         BLOCKEND  ---      ---       LVL=0

      01008B9AH   BLOCK     CODE     ---       LVL=0
      01008B9AH   LINE      CODE     ---       #307
      01008B9AH   LINE      CODE     ---       #308
      01008B9AH   LINE      CODE     ---       #309
      01008B9FH   LINE      CODE     ---       #310
      ---         BLOCKEND  ---      ---       LVL=0

      0100799CH   BLOCK     CODE     ---       LVL=0
      0100799CH   LINE      CODE     ---       #311
      0100799CH   LINE      CODE     ---       #312
      0100799CH   LINE      CODE     ---       #313
      010079AFH   LINE      CODE     ---       #314
      010079BBH   LINE      CODE     ---       #315
      ---         BLOCKEND  ---      ---       LVL=0

      01008BA0H   BLOCK     CODE     ---       LVL=0
      01008BA0H   LINE      CODE     ---       #317
      01008BA0H   LINE      CODE     ---       #318
      01008BA0H   LINE      CODE     ---       #319
      01008BA5H   LINE      CODE     ---       #320
      ---         BLOCKEND  ---      ---       LVL=0
LX51 LINKER/LOCATER V4.66.87.0                                                        05/30/2018  17:25:18  PAGE 133



      01008BA6H   BLOCK     CODE     ---       LVL=0
      01008BA6H   LINE      CODE     ---       #322
      01008BA6H   LINE      CODE     ---       #323
      01008BA6H   LINE      CODE     ---       #324
      01008BABH   LINE      CODE     ---       #325
      ---         BLOCKEND  ---      ---       LVL=0

      01008239H   BLOCK     CODE     ---       LVL=0
      01008239H   LINE      CODE     ---       #326
      01008239H   LINE      CODE     ---       #327
      01008239H   LINE      CODE     ---       #328
      01008243H   LINE      CODE     ---       #329
      0100824EH   LINE      CODE     ---       #330
      ---         BLOCKEND  ---      ---       LVL=0

      01008BF6H   BLOCK     CODE     ---       LVL=0
      01008BF6H   LINE      CODE     ---       #332
      01008BF6H   LINE      CODE     ---       #333
      01008BF6H   LINE      CODE     ---       #334
      01008BFAH   LINE      CODE     ---       #335
      ---         BLOCKEND  ---      ---       LVL=0

      010082E6H   BLOCK     CODE     ---       LVL=0
      010082E6H   LINE      CODE     ---       #336
      010082E6H   LINE      CODE     ---       #337
      010082E6H   LINE      CODE     ---       #338
      010082F0H   LINE      CODE     ---       #339
      010082FAH   LINE      CODE     ---       #340
      ---         BLOCKEND  ---      ---       LVL=0

      01005545H   BLOCK     CODE     ---       LVL=0
      02000013H   SYMBOL    XDATA    BYTE      type
      01005545H   LINE      CODE     ---       #342
      0100554AH   LINE      CODE     ---       #343
      0100554AH   LINE      CODE     ---       #344
      01005557H   LINE      CODE     ---       #345
      0100555DH   LINE      CODE     ---       #346
      01005561H   LINE      CODE     ---       #347
      01005568H   LINE      CODE     ---       #348
      0100556EH   LINE      CODE     ---       #349
      01005574H   LINE      CODE     ---       #350
      01005577H   LINE      CODE     ---       #351
      0100557CH   LINE      CODE     ---       #352
      01005584H   LINE      CODE     ---       #353
      01005589H   LINE      CODE     ---       #354
      01005590H   LINE      CODE     ---       #355
      01005597H   LINE      CODE     ---       #356
      0100559EH   LINE      CODE     ---       #357
      010055A5H   LINE      CODE     ---       #358
      010055A5H   LINE      CODE     ---       #359
      ---         BLOCKEND  ---      ---       LVL=0

      01005145H   BLOCK     CODE     ---       LVL=0
      02000016H   SYMBOL    XDATA    BYTE      type
      01005145H   LINE      CODE     ---       #361
      0100514AH   LINE      CODE     ---       #362
      0100514AH   LINE      CODE     ---       #363
      01005157H   LINE      CODE     ---       #364
      0100515CH   LINE      CODE     ---       #365
      01005162H   LINE      CODE     ---       #366
      01005166H   LINE      CODE     ---       #367
      0100516DH   LINE      CODE     ---       #368
      01005174H   LINE      CODE     ---       #369
      0100517AH   LINE      CODE     ---       #370
LX51 LINKER/LOCATER V4.66.87.0                                                        05/30/2018  17:25:18  PAGE 134


      01005180H   LINE      CODE     ---       #371
      01005182H   LINE      CODE     ---       #372
      0100518CH   LINE      CODE     ---       #373
      01005191H   LINE      CODE     ---       #374
      01005198H   LINE      CODE     ---       #375
      0100519FH   LINE      CODE     ---       #376
      010051A6H   LINE      CODE     ---       #377
      010051ABH   LINE      CODE     ---       #378
      010051ABH   LINE      CODE     ---       #379
      ---         BLOCKEND  ---      ---       LVL=0

      01006B25H   BLOCK     CODE     ---       LVL=0
      01006B25H   LINE      CODE     ---       #382
      01006B39H   LINE      CODE     ---       #384
      01006B3CH   LINE      CODE     ---       #385
      01006B40H   LINE      CODE     ---       #387
      01006B40H   LINE      CODE     ---       #389
      01006B43H   LINE      CODE     ---       #390
      01006B46H   LINE      CODE     ---       #392
      01006B49H   LINE      CODE     ---       #394
      01006B4BH   LINE      CODE     ---       #395
      ---         BLOCKEND  ---      ---       LVL=0

      01008143H   BLOCK     CODE     ---       LVL=0
      00000007H   SYMBOL    DATA     BYTE      year
      01008143H   LINE      CODE     ---       #399
      01008143H   LINE      CODE     ---       #400
      01008143H   LINE      CODE     ---       #401
      0100814BH   LINE      CODE     ---       #402
      01008159H   LINE      CODE     ---       #403
      ---         BLOCKEND  ---      ---       LVL=0

      01007B87H   BLOCK     CODE     ---       LVL=0
      00000007H   SYMBOL    DATA     BYTE      year
      00000005H   SYMBOL    DATA     BYTE      mon
      01007B87H   LINE      CODE     ---       #405
      01007B87H   LINE      CODE     ---       #406
      01007B87H   LINE      CODE     ---       #407
      01007B8FH   LINE      CODE     ---       #408
      01007B97H   LINE      CODE     ---       #409
      01007BA3H   LINE      CODE     ---       #410
      ---         BLOCKEND  ---      ---       LVL=0

      01008A7EH   BLOCK     CODE     ---       LVL=0
      00000020H.2 SYMBOL    BIT      BIT       enable
      01008A7EH   LINE      CODE     ---       #412
      01008A7EH   LINE      CODE     ---       #413
      01008A7EH   LINE      CODE     ---       #414
      01008A82H   LINE      CODE     ---       #415
      01008A86H   LINE      CODE     ---       #416
      ---         BLOCKEND  ---      ---       LVL=0

      0100715FH   BLOCK     CODE     ---       LVL=0
      0100715FH   LINE      CODE     ---       #418
      0100715FH   LINE      CODE     ---       #419
      0100715FH   LINE      CODE     ---       #420
      01007168H   LINE      CODE     ---       #421
      0100716DH   LINE      CODE     ---       #422
      01007172H   LINE      CODE     ---       #427
      01007175H   LINE      CODE     ---       #428
      01007178H   LINE      CODE     ---       #429
      0100717BH   LINE      CODE     ---       #430
      0100717DH   LINE      CODE     ---       #431
      01007182H   LINE      CODE     ---       #432
      01007184H   LINE      CODE     ---       #434
LX51 LINKER/LOCATER V4.66.87.0                                                        05/30/2018  17:25:18  PAGE 135


      01007189H   LINE      CODE     ---       #436
      ---         BLOCKEND  ---      ---       LVL=0

      01008806H   BLOCK     CODE     ---       LVL=0
      01008806H   LINE      CODE     ---       #440
      01008806H   LINE      CODE     ---       #441
      01008806H   LINE      CODE     ---       #442
      0100880FH   LINE      CODE     ---       #443
      ---         BLOCKEND  ---      ---       LVL=0

      01008029H   BLOCK     CODE     ---       LVL=0
      01008029H   LINE      CODE     ---       #446
      01008029H   LINE      CODE     ---       #447
      01008029H   LINE      CODE     ---       #448
      01008032H   LINE      CODE     ---       #449
      01008037H   LINE      CODE     ---       #450
      0100803CH   LINE      CODE     ---       #451
      ---         BLOCKEND  ---      ---       LVL=0

      01008C3EH   BLOCK     CODE     ---       LVL=0
      01008C3EH   LINE      CODE     ---       #454
      01008C3EH   LINE      CODE     ---       #455
      01008C3EH   LINE      CODE     ---       #456
      01008C40H   LINE      CODE     ---       #457
      ---         BLOCKEND  ---      ---       LVL=0

      0100824FH   BLOCK     CODE     ---       LVL=0
      0100824FH   LINE      CODE     ---       #459
      0100824FH   LINE      CODE     ---       #460
      0100824FH   LINE      CODE     ---       #461
      01008251H   LINE      CODE     ---       #462
      01008256H   LINE      CODE     ---       #463
      0100825BH   LINE      CODE     ---       #464
      01008260H   LINE      CODE     ---       #465
      ---         BLOCKEND  ---      ---       LVL=0

      ---         MODULE    ---      ---       TIMER
      01008071H   PUBLIC    CODE     ---       timer_clr
      01008C41H   PUBLIC    CODE     ---       timer_stop
      01007892H   PUBLIC    CODE     ---       _timer_get_ms10
      01008059H   PUBLIC    CODE     ---       _timer_inc_sec
      01008402H   PUBLIC    CODE     ---       _timer_get_sec
      01008041H   PUBLIC    CODE     ---       _timer_inc_min
      010083EEH   PUBLIC    CODE     ---       _timer_get_min
      01007BDEH   PUBLIC    CODE     ---       _timer_inc_hour
      010083DAH   PUBLIC    CODE     ---       _timer_get_hour
      01007340H   PUBLIC    CODE     ---       _timer_save
      01008265H   PUBLIC    CODE     ---       timer_start
      01008BACH   PUBLIC    CODE     ---       _timer_set_mode
      00000020H.0 PUBLIC    BIT      BIT       ?timer_set_led_autorefresh?BIT
      02000014H   PUBLIC    XDATA    BYTE      ?timer_set_led_autorefresh?BYTE
      01008682H   PUBLIC    CODE     ---       timer_set_led_autorefresh
      01008A87H   PUBLIC    CODE     ---       timer_leave_powersave
      0100889AH   PUBLIC    CODE     ---       timer_enter_powersave
      01008537H   PUBLIC    CODE     ---       timer_initialize
      01002C6EH   PUBLIC    CODE     ---       timer_inc_ms39
      00000022H.1 SYMBOL    BIT      BIT       tmr_display
      00000022H.2 SYMBOL    BIT      BIT       tmr_countdown_stop
      020000A6H   SYMBOL    XDATA    ---       tmr
      020000BAH   SYMBOL    XDATA    BYTE      tmr_mode
      00000022H.3 SYMBOL    BIT      BIT       tmr_start
      00000022H.4 SYMBOL    BIT      BIT       tmr_disp_mmssms

      0100521BH   BLOCK     CODE     ---       LVL=0
      ---         BLOCKEND  ---      ---       LVL=0
LX51 LINKER/LOCATER V4.66.87.0                                                        05/30/2018  17:25:18  PAGE 136



      01002C6EH   BLOCK     CODE     ---       LVL=0
      01002C6EH   BLOCK     CODE     NEAR LAB  LVL=1
      00000007H   SYMBOL    DATA     BYTE      ms10
      ---         BLOCKEND  ---      ---       LVL=1
      01002C6EH   LINE      CODE     ---       #18
      01002C6EH   LINE      CODE     ---       #19
      01002C6EH   LINE      CODE     ---       #22
      01002C74H   LINE      CODE     ---       #25
      01002C7AH   LINE      CODE     ---       #26
      01002C80H   LINE      CODE     ---       #27
      01002C86H   LINE      CODE     ---       #28
      01002C8FH   LINE      CODE     ---       #29
      01002C92H   LINE      CODE     ---       #30
      01002C9BH   LINE      CODE     ---       #31
      01002C9EH   LINE      CODE     ---       #32
      01002CABH   LINE      CODE     ---       #33
      01002CABH   LINE      CODE     ---       #34
      01002CABH   LINE      CODE     ---       #35
      01002CABH   LINE      CODE     ---       #36
      01002CADH   LINE      CODE     ---       #37
      01002CB0H   LINE      CODE     ---       #38
      01002CC8H   LINE      CODE     ---       #41
      01002CC8H   LINE      CODE     ---       #42
      01002CCEH   LINE      CODE     ---       #43
      01002CD2H   LINE      CODE     ---       #44
      01002CD8H   LINE      CODE     ---       #45
      01002CDCH   LINE      CODE     ---       #46
      01002CDFH   LINE      CODE     ---       #47
      01002CE5H   LINE      CODE     ---       #48
      01002CE9H   LINE      CODE     ---       #49
      01002CECH   LINE      CODE     ---       #50
      01002CF5H   LINE      CODE     ---       #51
      01002CF8H   LINE      CODE     ---       #52
      01002CF8H   LINE      CODE     ---       #53
      01002CF8H   LINE      CODE     ---       #54
      01002CF8H   LINE      CODE     ---       #55
      01002CF8H   LINE      CODE     ---       #56
      01002CFAH   LINE      CODE     ---       #57
      01002CFCH   LINE      CODE     ---       #58
      01002D05H   LINE      CODE     ---       #59
      01002D05H   LINE      CODE     ---       #60
      01002D05H   LINE      CODE     ---       #61
      01002D05H   LINE      CODE     ---       #62
      01002D08H   LINE      CODE     ---       #63
      01002D11H   LINE      CODE     ---       #64
      01002D14H   LINE      CODE     ---       #65
      01002D1EH   LINE      CODE     ---       #66
      01002D22H   LINE      CODE     ---       #67
      01002D2BH   LINE      CODE     ---       #68
      01002D2FH   LINE      CODE     ---       #69
      01002D34H   LINE      CODE     ---       #70
      01002D34H   LINE      CODE     ---       #71
      01002D36H   LINE      CODE     ---       #72
      01002D41H   LINE      CODE     ---       #73
      01002D44H   LINE      CODE     ---       #74
      01002D4EH   LINE      CODE     ---       #75
      01002D51H   LINE      CODE     ---       #76
      01002D5BH   LINE      CODE     ---       #77
      01002D5EH   LINE      CODE     ---       #78
      01002D5EH   LINE      CODE     ---       #79
      01002D64H   LINE      CODE     ---       #80
      01002D6AH   LINE      CODE     ---       #81
      01002D6AH   LINE      CODE     ---       #82
      ---         BLOCKEND  ---      ---       LVL=0
LX51 LINKER/LOCATER V4.66.87.0                                                        05/30/2018  17:25:18  PAGE 137



      01008537H   BLOCK     CODE     ---       LVL=0
      01008537H   LINE      CODE     ---       #85
      01008537H   LINE      CODE     ---       #86
      01008537H   LINE      CODE     ---       #87
      01008540H   LINE      CODE     ---       #89
      01008542H   LINE      CODE     ---       #90
      01008544H   LINE      CODE     ---       #91
      01008546H   LINE      CODE     ---       #92
      01008548H   LINE      CODE     ---       #93
      ---         BLOCKEND  ---      ---       LVL=0

      0100889AH   BLOCK     CODE     ---       LVL=0
      0100889AH   LINE      CODE     ---       #95
      0100889AH   LINE      CODE     ---       #96
      0100889AH   LINE      CODE     ---       #97
      010088A3H   LINE      CODE     ---       #98
      ---         BLOCKEND  ---      ---       LVL=0

      01008A87H   BLOCK     CODE     ---       LVL=0
      01008A87H   LINE      CODE     ---       #101
      01008A87H   LINE      CODE     ---       #102
      01008A87H   LINE      CODE     ---       #103
      ---         BLOCKEND  ---      ---       LVL=0

      01008682H   BLOCK     CODE     ---       LVL=0
      00000020H.0 SYMBOL    BIT      BIT       enable
      02000014H   SYMBOL    XDATA    BYTE      mode
      01008682H   LINE      CODE     ---       #106
      01008682H   LINE      CODE     ---       #107
      01008682H   LINE      CODE     ---       #108
      01008686H   LINE      CODE     ---       #109
      0100868CH   LINE      CODE     ---       #110
      0100868EH   LINE      CODE     ---       #111
      0100868FH   LINE      CODE     ---       #112
      01008691H   LINE      CODE     ---       #113
      01008691H   LINE      CODE     ---       #114
      ---         BLOCKEND  ---      ---       LVL=0

      01008BACH   BLOCK     CODE     ---       LVL=0
      00000007H   SYMBOL    DATA     BYTE      mode
      01008BACH   LINE      CODE     ---       #116
      01008BACH   LINE      CODE     ---       #117
      01008BACH   LINE      CODE     ---       #118
      01008BB1H   LINE      CODE     ---       #119
      ---         BLOCKEND  ---      ---       LVL=0

      01008265H   BLOCK     CODE     ---       LVL=0
      01008265H   LINE      CODE     ---       #121
      01008265H   LINE      CODE     ---       #122
      01008265H   LINE      CODE     ---       #123
      01008276H   LINE      CODE     ---       #124
      01008278H   LINE      CODE     ---       #125
      0100827AH   LINE      CODE     ---       #126
      ---         BLOCKEND  ---      ---       LVL=0

      01007340H   BLOCK     CODE     ---       LVL=0
      00000007H   SYMBOL    DATA     BYTE      slot
      01007340H   LINE      CODE     ---       #128
      01007340H   LINE      CODE     ---       #129
      01007340H   LINE      CODE     ---       #130
      0100734BH   LINE      CODE     ---       #131
      01007369H   LINE      CODE     ---       #132
      01007369H   LINE      CODE     ---       #133
      ---         BLOCKEND  ---      ---       LVL=0
LX51 LINKER/LOCATER V4.66.87.0                                                        05/30/2018  17:25:18  PAGE 138



      010083DAH   BLOCK     CODE     ---       LVL=0
      00000007H   SYMBOL    DATA     BYTE      slot
      010083DAH   LINE      CODE     ---       #135
      010083DAH   LINE      CODE     ---       #136
      010083DAH   LINE      CODE     ---       #137
      010083E5H   LINE      CODE     ---       #138
      010083EBH   LINE      CODE     ---       #139
      010083EBH   LINE      CODE     ---       #140
      010083EDH   LINE      CODE     ---       #141
      ---         BLOCKEND  ---      ---       LVL=0

      01007BDEH   BLOCK     CODE     ---       LVL=0
      00000007H   SYMBOL    DATA     BYTE      slot
      01007BDEH   LINE      CODE     ---       #142
      01007BDEH   LINE      CODE     ---       #143
      01007BDEH   LINE      CODE     ---       #144
      01007BE9H   LINE      CODE     ---       #145
      01007BF9H   LINE      CODE     ---       #146
      01007BF9H   LINE      CODE     ---       #147
      ---         BLOCKEND  ---      ---       LVL=0

      010083EEH   BLOCK     CODE     ---       LVL=0
      00000007H   SYMBOL    DATA     BYTE      slot
      010083EEH   LINE      CODE     ---       #149
      010083EEH   LINE      CODE     ---       #150
      010083EEH   LINE      CODE     ---       #151
      010083F9H   LINE      CODE     ---       #152
      010083FFH   LINE      CODE     ---       #153
      010083FFH   LINE      CODE     ---       #154
      01008401H   LINE      CODE     ---       #155
      ---         BLOCKEND  ---      ---       LVL=0

      01008041H   BLOCK     CODE     ---       LVL=0
      00000007H   SYMBOL    DATA     BYTE      slot
      01008041H   LINE      CODE     ---       #156
      01008041H   LINE      CODE     ---       #157
      01008041H   LINE      CODE     ---       #158
      0100804CH   LINE      CODE     ---       #159
      01008058H   LINE      CODE     ---       #160
      01008058H   LINE      CODE     ---       #161
      ---         BLOCKEND  ---      ---       LVL=0

      01008402H   BLOCK     CODE     ---       LVL=0
      00000007H   SYMBOL    DATA     BYTE      slot
      01008402H   LINE      CODE     ---       #164
      01008402H   LINE      CODE     ---       #165
      01008402H   LINE      CODE     ---       #166
      0100840DH   LINE      CODE     ---       #167
      01008413H   LINE      CODE     ---       #168
      01008413H   LINE      CODE     ---       #169
      01008415H   LINE      CODE     ---       #170
      ---         BLOCKEND  ---      ---       LVL=0

      01008059H   BLOCK     CODE     ---       LVL=0
      00000007H   SYMBOL    DATA     BYTE      slot
      01008059H   LINE      CODE     ---       #171
      01008059H   LINE      CODE     ---       #172
      01008059H   LINE      CODE     ---       #173
      01008064H   LINE      CODE     ---       #174
      01008070H   LINE      CODE     ---       #175
      01008070H   LINE      CODE     ---       #176
      ---         BLOCKEND  ---      ---       LVL=0

      01007892H   BLOCK     CODE     ---       LVL=0
LX51 LINKER/LOCATER V4.66.87.0                                                        05/30/2018  17:25:18  PAGE 139


      00000007H   SYMBOL    DATA     BYTE      slot
      01007892H   LINE      CODE     ---       #178
      01007892H   LINE      CODE     ---       #179
      01007892H   LINE      CODE     ---       #181
      0100789DH   LINE      CODE     ---       #182
      010078B1H   LINE      CODE     ---       #183
      010078B1H   LINE      CODE     ---       #184
      010078B3H   LINE      CODE     ---       #185
      ---         BLOCKEND  ---      ---       LVL=0

      01008C41H   BLOCK     CODE     ---       LVL=0
      01008C41H   LINE      CODE     ---       #187
      01008C41H   LINE      CODE     ---       #188
      01008C41H   LINE      CODE     ---       #189
      01008C43H   LINE      CODE     ---       #190
      ---         BLOCKEND  ---      ---       LVL=0

      01008071H   BLOCK     CODE     ---       LVL=0
      01008071H   LINE      CODE     ---       #192
      01008071H   LINE      CODE     ---       #193
      01008071H   LINE      CODE     ---       #194
      01008080H   LINE      CODE     ---       #196
      01008082H   LINE      CODE     ---       #197
      01008084H   LINE      CODE     ---       #198
      01008086H   LINE      CODE     ---       #199
      01008088H   LINE      CODE     ---       #200
      ---         BLOCKEND  ---      ---       LVL=0

      ---         MODULE    ---      ---       INT_HUB
      01005726H   PUBLIC    CODE     ---       _scan_int_hub_proc
      01000F4CH   PUBLIC    CODE     ---       _int_hub_dump_ext_status
      0100541FH   PUBLIC    CODE     ---       int_hub_get_status
      010055A6H   PUBLIC    CODE     ---       int_hub_dump
      010074DBH   PUBLIC    CODE     ---       _int_hub_test_bit
      0100506DH   PUBLIC    CODE     ---       int_hub_initialize
      00000080H   SFRSYM    DATA     BYTE      P0
      00000090H   SFRSYM    DATA     BYTE      P1
      000000A0H   SFRSYM    DATA     BYTE      P2
      000000B0H   SFRSYM    DATA     BYTE      P3
      000000C0H   SFRSYM    DATA     BYTE      XICON
      000000B0H.4 SFRSYM    DATA     BIT       T0
      000000D0H.6 SFRSYM    DATA     BIT       AC
      000000E8H   SFRSYM    DATA     BYTE      P4
      000000B0H.5 SFRSYM    DATA     BIT       T1
      000000E6H   SFRSYM    DATA     BYTE      ISP_TRIG
      00000090H.0 SFRSYM    DATA     BIT       T2
      000000A8H.7 SFRSYM    DATA     BIT       EA
      000000A8H.6 SFRSYM    DATA     BIT       EC
      00000098H.7 SFRSYM    DATA     BIT       FE
      000000A8H   SFRSYM    DATA     BYTE      IE
      000000C8H.6 SFRSYM    DATA     BIT       EXF2
      000000B0H.7 SFRSYM    DATA     BIT       RD
      000000A8H.4 SFRSYM    DATA     BIT       ES
      000000B8H   SFRSYM    DATA     BYTE      IP
      00000098H.0 SFRSYM    DATA     BIT       RI
      000000B0H.2 SFRSYM    DATA     BIT       INT0
      000000D0H.7 SFRSYM    DATA     BIT       CY
      00000098H.1 SFRSYM    DATA     BIT       TI
      000000B0H.3 SFRSYM    DATA     BIT       INT1
      00000090H.3 SFRSYM    DATA     BIT       THERMO_INT
      000000CBH   SFRSYM    DATA     BYTE      RCAP2H
      000000E5H   SFRSYM    DATA     BYTE      ISP_CMD
      000000B8H.4 SFRSYM    DATA     BIT       PS
      00000081H   SFRSYM    DATA     BYTE      SP
      00000090H.1 SFRSYM    DATA     BIT       T2EX
LX51 LINKER/LOCATER V4.66.87.0                                                        05/30/2018  17:25:18  PAGE 140


      000000D0H.2 SFRSYM    DATA     BIT       OV
      000000CAH   SFRSYM    DATA     BYTE      RCAP2L
      000000C8H.1 SFRSYM    DATA     BIT       C_T2
      000000B0H.6 SFRSYM    DATA     BIT       WR
      000000B0H.3 SFRSYM    DATA     BIT       INT_BIT
      000000C8H.5 SFRSYM    DATA     BIT       RCLK
      000000C8H.4 SFRSYM    DATA     BIT       TCLK
      00000080H.0 SFRSYM    DATA     BIT       P00
      00000099H   SFRSYM    DATA     BYTE      SBUF
      00000087H   SFRSYM    DATA     BYTE      PCON
      00000090H.0 SFRSYM    DATA     BIT       P10
      00000080H.1 SFRSYM    DATA     BIT       P01
      000000A0H.0 SFRSYM    DATA     BIT       P20
      00000090H.1 SFRSYM    DATA     BIT       P11
      00000080H.2 SFRSYM    DATA     BIT       P02
      000000E3H   SFRSYM    DATA     BYTE      ISP_ADDRH
      000000B0H.0 SFRSYM    DATA     BIT       P30
      000000A0H.1 SFRSYM    DATA     BIT       P21
      00000090H.2 SFRSYM    DATA     BIT       P12
      00000080H.3 SFRSYM    DATA     BIT       P03
      00000098H   SFRSYM    DATA     BYTE      SCON
      000000B0H.1 SFRSYM    DATA     BIT       P31
      000000A0H.2 SFRSYM    DATA     BIT       P22
      00000090H.3 SFRSYM    DATA     BIT       P13
      00000080H.4 SFRSYM    DATA     BIT       P04
      000000E8H.0 SFRSYM    DATA     BIT       P40
      00000089H   SFRSYM    DATA     BYTE      TMOD
      00000088H   SFRSYM    DATA     BYTE      TCON
      000000B0H.2 SFRSYM    DATA     BIT       P32
      000000A0H.3 SFRSYM    DATA     BIT       P23
      00000090H.4 SFRSYM    DATA     BIT       P14
      00000080H.5 SFRSYM    DATA     BIT       P05
      000000E8H.1 SFRSYM    DATA     BIT       P41
      00000090H.1 SFRSYM    DATA     BIT       RTC_INT
      000000B0H.3 SFRSYM    DATA     BIT       P33
      000000A0H.4 SFRSYM    DATA     BIT       P24
      00000090H.5 SFRSYM    DATA     BIT       P15
      00000080H.6 SFRSYM    DATA     BIT       P06
      000000E4H   SFRSYM    DATA     BYTE      ISP_ADDRL
      000000E8H.2 SFRSYM    DATA     BIT       P42
      000000B0H.4 SFRSYM    DATA     BIT       P34
      000000A0H.5 SFRSYM    DATA     BIT       P25
      00000090H.6 SFRSYM    DATA     BIT       P16
      00000080H.7 SFRSYM    DATA     BIT       P07
      000000E8H.3 SFRSYM    DATA     BIT       P43
      000000B0H.5 SFRSYM    DATA     BIT       P35
      000000A0H.6 SFRSYM    DATA     BIT       P26
      00000090H.7 SFRSYM    DATA     BIT       P17
      000000E8H.4 SFRSYM    DATA     BIT       P44
      000000B0H.6 SFRSYM    DATA     BIT       P36
      000000A0H.7 SFRSYM    DATA     BIT       P27
      000000E8H.5 SFRSYM    DATA     BIT       P45
      000000B0H.7 SFRSYM    DATA     BIT       P37
      000000E8H.6 SFRSYM    DATA     BIT       P46
      00000090H.4 SFRSYM    DATA     BIT       EXT_INT
      00000088H.1 SFRSYM    DATA     BIT       IE0
      00000090H.2 SFRSYM    DATA     BIT       MPU_INT
      00000088H.3 SFRSYM    DATA     BIT       IE1
      0000008EH   SFRSYM    DATA     BYTE      AUXR
      000000F0H   SFRSYM    DATA     BYTE      B
      000000C8H.0 SFRSYM    DATA     BIT       CP_RL2
      000000E0H   SFRSYM    DATA     BYTE      ACC
      000000A8H.1 SFRSYM    DATA     BIT       ET0
      000000A8H.3 SFRSYM    DATA     BIT       ET1
      00000088H.5 SFRSYM    DATA     BIT       TF0
LX51 LINKER/LOCATER V4.66.87.0                                                        05/30/2018  17:25:18  PAGE 141


      000000A8H.5 SFRSYM    DATA     BIT       ET2
      00000088H.7 SFRSYM    DATA     BIT       TF1
      000000C8H.7 SFRSYM    DATA     BIT       TF2
      00000098H.2 SFRSYM    DATA     BIT       RB8
      0000008CH   SFRSYM    DATA     BYTE      TH0
      000000A8H.0 SFRSYM    DATA     BIT       EX0
      00000088H.0 SFRSYM    DATA     BIT       IT0
      0000008DH   SFRSYM    DATA     BYTE      TH1
      00000098H.3 SFRSYM    DATA     BIT       TB8
      000000A8H.2 SFRSYM    DATA     BIT       EX1
      00000088H.2 SFRSYM    DATA     BIT       IT1
      000000CDH   SFRSYM    DATA     BYTE      TH2
      000000D0H.0 SFRSYM    DATA     BIT       P
      00000098H.7 SFRSYM    DATA     BIT       SM0
      0000008AH   SFRSYM    DATA     BYTE      TL0
      00000098H.6 SFRSYM    DATA     BIT       SM1
      0000008BH   SFRSYM    DATA     BYTE      TL1
      00000098H.5 SFRSYM    DATA     BIT       SM2
      000000CCH   SFRSYM    DATA     BYTE      TL2
      000000B8H.1 SFRSYM    DATA     BIT       PT0
      000000B8H.3 SFRSYM    DATA     BIT       PT1
      000000D0H.3 SFRSYM    DATA     BIT       RS0
      000000E7H   SFRSYM    DATA     BYTE      ISP_CONTR
      000000B8H.5 SFRSYM    DATA     BIT       PT2
      00000088H.4 SFRSYM    DATA     BIT       TR0
      000000D0H.4 SFRSYM    DATA     BIT       RS1
      00000088H.6 SFRSYM    DATA     BIT       TR1
      000000C8H.2 SFRSYM    DATA     BIT       TR2
      000000B8H.0 SFRSYM    DATA     BIT       PX0
      000000E1H   SFRSYM    DATA     BYTE      WDT_CONTR
      000000B8H.2 SFRSYM    DATA     BIT       PX1
      00000083H   SFRSYM    DATA     BYTE      DPH
      00000082H   SFRSYM    DATA     BYTE      DPL
      000000B7H   SFRSYM    DATA     BYTE      IPH
      000000C8H.3 SFRSYM    DATA     BIT       EXEN2
      00000098H.4 SFRSYM    DATA     BIT       REN
      000000C9H   SFRSYM    DATA     BYTE      T2MOD
      000000C8H   SFRSYM    DATA     BYTE      T2CON
      000000E2H   SFRSYM    DATA     BYTE      ISP_DATA
      000000B9H   SFRSYM    DATA     BYTE      SADEN
      000000B0H.0 SFRSYM    DATA     BIT       RXD
      000000A9H   SFRSYM    DATA     BYTE      SADDR
      000000B0H.1 SFRSYM    DATA     BIT       TXD
      000000A2H   SFRSYM    DATA     BYTE      AUXR1
      000000D0H.5 SFRSYM    DATA     BIT       F0
      000000D0H   SFRSYM    DATA     BYTE      PSW
      01008651H   SYMBOL    CODE     ---       int1_ISR

      010084DAH   BLOCK     CODE     ---       LVL=0
      ---         BLOCKEND  ---      ---       LVL=0

      01008651H   BLOCK     CODE     ---       LVL=0
      01008651H   LINE      CODE     ---       #29
      01008658H   LINE      CODE     ---       #31
      0100865AH   LINE      CODE     ---       #32
      0100865DH   LINE      CODE     ---       #33
      ---         BLOCKEND  ---      ---       LVL=0

      0100506DH   BLOCK     CODE     ---       LVL=0
      0100506DH   BLOCK     CODE     NEAR LAB  LVL=1
      02000000H   SYMBOL    XDATA    BYTE      val
      ---         BLOCKEND  ---      ---       LVL=1
      0100506DH   LINE      CODE     ---       #35
      0100506DH   LINE      CODE     ---       #36
      0100506DH   LINE      CODE     ---       #38
LX51 LINKER/LOCATER V4.66.87.0                                                        05/30/2018  17:25:18  PAGE 142


      01005076H   LINE      CODE     ---       #40
      0100507FH   LINE      CODE     ---       #42
      01005081H   LINE      CODE     ---       #46
      0100508BH   LINE      CODE     ---       #47
      01005092H   LINE      CODE     ---       #50
      0100509BH   LINE      CODE     ---       #52
      0100509DH   LINE      CODE     ---       #55
      010050A7H   LINE      CODE     ---       #56
      010050AEH   LINE      CODE     ---       #58
      010050B0H   LINE      CODE     ---       #59
      010050B2H   LINE      CODE     ---       #60
      010050B4H   LINE      CODE     ---       #61
      010050B6H   LINE      CODE     ---       #62
      010050B8H   LINE      CODE     ---       #64
      010050BAH   LINE      CODE     ---       #65
      010050BCH   LINE      CODE     ---       #66
      ---         BLOCKEND  ---      ---       LVL=0

      010074DBH   BLOCK     CODE     ---       LVL=0
      00000007H   SYMBOL    DATA     BYTE      index
      00000004H   SYMBOL    DATA     WORD      status
      010074DBH   LINE      CODE     ---       #69
      010074DBH   LINE      CODE     ---       #70
      010074DBH   LINE      CODE     ---       #71
      010074E1H   LINE      CODE     ---       #72
      010074E2H   LINE      CODE     ---       #74
      01007501H   LINE      CODE     ---       #75
      ---         BLOCKEND  ---      ---       LVL=0

      010055A6H   BLOCK     CODE     ---       LVL=0
      010055A6H   LINE      CODE     ---       #77
      010055A6H   LINE      CODE     ---       #78
      010055A6H   LINE      CODE     ---       #80
      010055AFH   LINE      CODE     ---       #81
      010055BCH   LINE      CODE     ---       #82
      010055CAH   LINE      CODE     ---       #83
      010055D8H   LINE      CODE     ---       #84
      010055E6H   LINE      CODE     ---       #85
      010055F0H   LINE      CODE     ---       #86
      ---         BLOCKEND  ---      ---       LVL=0

      0100541FH   BLOCK     CODE     ---       LVL=0
      0100541FH   BLOCK     CODE     NEAR LAB  LVL=1
      02000016H   SYMBOL    XDATA    WORD      status
      02000018H   SYMBOL    XDATA    BYTE      val
      ---         BLOCKEND  ---      ---       LVL=1
      0100541FH   LINE      CODE     ---       #88
      0100541FH   LINE      CODE     ---       #89
      0100541FH   LINE      CODE     ---       #90
      01005426H   LINE      CODE     ---       #93
      01005433H   LINE      CODE     ---       #94
      01005437H   LINE      CODE     ---       #95
      0100543FH   LINE      CODE     ---       #97
      01005448H   LINE      CODE     ---       #98
      01005455H   LINE      CODE     ---       #99
      01005459H   LINE      CODE     ---       #100
      0100546BH   LINE      CODE     ---       #102
      0100546BH   LINE      CODE     ---       #103
      ---         BLOCKEND  ---      ---       LVL=0

      01000F4CH   BLOCK     CODE     ---       LVL=0
      02000016H   SYMBOL    XDATA    WORD      status
      01000F4CH   LINE      CODE     ---       #105
      01000F54H   LINE      CODE     ---       #106
      01000F54H   LINE      CODE     ---       #107
LX51 LINKER/LOCATER V4.66.87.0                                                        05/30/2018  17:25:18  PAGE 143


      01000F5DH   LINE      CODE     ---       #108
      01000F7EH   LINE      CODE     ---       #109
      01000F96H   LINE      CODE     ---       #110
      01000FAEH   LINE      CODE     ---       #111
      01000FC6H   LINE      CODE     ---       #112
      01000FDEH   LINE      CODE     ---       #113
      01000FF6H   LINE      CODE     ---       #114
      0100100EH   LINE      CODE     ---       #115
      01001026H   LINE      CODE     ---       #116
      0100103EH   LINE      CODE     ---       #117
      01001056H   LINE      CODE     ---       #118
      0100106EH   LINE      CODE     ---       #119
      01001086H   LINE      CODE     ---       #120
      0100109EH   LINE      CODE     ---       #121
      010010B6H   LINE      CODE     ---       #122
      010010D1H   LINE      CODE     ---       #123
      010010F1H   LINE      CODE     ---       #124
      010010FAH   LINE      CODE     ---       #125
      ---         BLOCKEND  ---      ---       LVL=0

      01005726H   BLOCK     CODE     ---       LVL=0
      02000013H   SYMBOL    XDATA    BYTE      ev
      0100572BH   BLOCK     CODE     NEAR LAB  LVL=1
      02000014H   SYMBOL    XDATA    WORD      status
      ---         BLOCKEND  ---      ---       LVL=1
      01005726H   LINE      CODE     ---       #127
      0100572BH   LINE      CODE     ---       #128
      0100572BH   LINE      CODE     ---       #129
      01005730H   LINE      CODE     ---       #130
      01005739H   LINE      CODE     ---       #132
      01005739H   LINE      CODE     ---       #134
      0100573CH   LINE      CODE     ---       #136
      0100573FH   LINE      CODE     ---       #137
      01005742H   LINE      CODE     ---       #138
      01005742H   LINE      CODE     ---       #141
      01005745H   LINE      CODE     ---       #149
      01005750H   LINE      CODE     ---       #150
      01005753H   LINE      CODE     ---       #151
      0100575EH   LINE      CODE     ---       #152
      01005769H   LINE      CODE     ---       #153
      01005769H   LINE      CODE     ---       #156
      0100576CH   LINE      CODE     ---       #157
      0100576FH   LINE      CODE     ---       #158
      0100576FH   LINE      CODE     ---       #160
      01005772H   LINE      CODE     ---       #161
      01005775H   LINE      CODE     ---       #162
      01005775H   LINE      CODE     ---       #164
      01005781H   LINE      CODE     ---       #165
      01005784H   LINE      CODE     ---       #166
      01005784H   LINE      CODE     ---       #167
      ---         BLOCKEND  ---      ---       LVL=0

      ---         MODULE    ---      ---       FUSE
      00000020H.1 PUBLIC    BIT      BIT       ?fuse_enable?BIT
      0100748BH   PUBLIC    CODE     ---       fuse_enable
      00000020H.0 PUBLIC    BIT      BIT       ?fuse_set_tripwire_broke?BIT
      010075C3H   PUBLIC    CODE     ---       fuse_set_tripwire_broke
      00000020H.0 PUBLIC    BIT      BIT       ?_fuse_set_fuse_broke?BIT
      010067B3H   PUBLIC    CODE     ---       _fuse_set_fuse_broke
      01007EC9H   PUBLIC    CODE     ---       _fuse_proc
      01004978H   PUBLIC    CODE     ---       _scan_fuse
      01008A99H   PUBLIC    CODE     ---       fuse_leave_powersave
      01008A90H   PUBLIC    CODE     ---       fuse_enter_powersave
      00000020H.0 PUBLIC    BIT      BIT       ?fuse_trigger?BIT
      01006C02H   PUBLIC    CODE     ---       fuse_trigger
LX51 LINKER/LOCATER V4.66.87.0                                                        05/30/2018  17:25:18  PAGE 144


      010088A6H   PUBLIC    CODE     ---       fuse_initialize
      00000080H   SFRSYM    DATA     BYTE      P0
      00000090H   SFRSYM    DATA     BYTE      P1
      000000A0H   SFRSYM    DATA     BYTE      P2
      000000B0H   SFRSYM    DATA     BYTE      P3
      000000C0H   SFRSYM    DATA     BYTE      XICON
      000000B0H.4 SFRSYM    DATA     BIT       T0
      000000D0H.6 SFRSYM    DATA     BIT       AC
      000000E8H   SFRSYM    DATA     BYTE      P4
      000000B0H.5 SFRSYM    DATA     BIT       T1
      000000E6H   SFRSYM    DATA     BYTE      ISP_TRIG
      00000090H.0 SFRSYM    DATA     BIT       T2
      000000A8H.7 SFRSYM    DATA     BIT       EA
      000000A8H.6 SFRSYM    DATA     BIT       EC
      00000098H.7 SFRSYM    DATA     BIT       FE
      000000A8H   SFRSYM    DATA     BYTE      IE
      000000C8H.6 SFRSYM    DATA     BIT       EXF2
      000000B0H.7 SFRSYM    DATA     BIT       RD
      000000A8H.4 SFRSYM    DATA     BIT       ES
      000000B8H   SFRSYM    DATA     BYTE      IP
      00000098H.0 SFRSYM    DATA     BIT       RI
      000000B0H.2 SFRSYM    DATA     BIT       INT0
      000000D0H.7 SFRSYM    DATA     BIT       CY
      00000098H.1 SFRSYM    DATA     BIT       TI
      000000B0H.3 SFRSYM    DATA     BIT       INT1
      000000CBH   SFRSYM    DATA     BYTE      RCAP2H
      000000E5H   SFRSYM    DATA     BYTE      ISP_CMD
      000000B8H.4 SFRSYM    DATA     BIT       PS
      00000081H   SFRSYM    DATA     BYTE      SP
      00000090H.1 SFRSYM    DATA     BIT       T2EX
      000000D0H.2 SFRSYM    DATA     BIT       OV
      000000CAH   SFRSYM    DATA     BYTE      RCAP2L
      000000C8H.1 SFRSYM    DATA     BIT       C_T2
      000000B0H.6 SFRSYM    DATA     BIT       WR
      000000C8H.5 SFRSYM    DATA     BIT       RCLK
      000000C8H.4 SFRSYM    DATA     BIT       TCLK
      00000080H.0 SFRSYM    DATA     BIT       P00
      00000099H   SFRSYM    DATA     BYTE      SBUF
      00000087H   SFRSYM    DATA     BYTE      PCON
      00000090H.0 SFRSYM    DATA     BIT       P10
      00000080H.1 SFRSYM    DATA     BIT       P01
      000000A0H.0 SFRSYM    DATA     BIT       P20
      00000090H.1 SFRSYM    DATA     BIT       P11
      00000080H.2 SFRSYM    DATA     BIT       P02
      000000E3H   SFRSYM    DATA     BYTE      ISP_ADDRH
      000000B0H.0 SFRSYM    DATA     BIT       P30
      000000A0H.1 SFRSYM    DATA     BIT       P21
      00000090H.2 SFRSYM    DATA     BIT       P12
      00000080H.3 SFRSYM    DATA     BIT       P03
      00000098H   SFRSYM    DATA     BYTE      SCON
      000000B0H.1 SFRSYM    DATA     BIT       P31
      000000A0H.2 SFRSYM    DATA     BIT       P22
      00000090H.3 SFRSYM    DATA     BIT       P13
      00000080H.4 SFRSYM    DATA     BIT       P04
      000000E8H.0 SFRSYM    DATA     BIT       P40
      00000089H   SFRSYM    DATA     BYTE      TMOD
      00000088H   SFRSYM    DATA     BYTE      TCON
      000000B0H.2 SFRSYM    DATA     BIT       P32
      000000A0H.3 SFRSYM    DATA     BIT       P23
      00000090H.4 SFRSYM    DATA     BIT       P14
      00000080H.5 SFRSYM    DATA     BIT       P05
      000000E8H.1 SFRSYM    DATA     BIT       P41
      000000B0H.3 SFRSYM    DATA     BIT       P33
      000000A0H.4 SFRSYM    DATA     BIT       P24
      00000090H.5 SFRSYM    DATA     BIT       P15
LX51 LINKER/LOCATER V4.66.87.0                                                        05/30/2018  17:25:18  PAGE 145


      00000080H.6 SFRSYM    DATA     BIT       P06
      000000E4H   SFRSYM    DATA     BYTE      ISP_ADDRL
      000000E8H.2 SFRSYM    DATA     BIT       P42
      000000B0H.4 SFRSYM    DATA     BIT       P34
      000000A0H.5 SFRSYM    DATA     BIT       P25
      00000090H.6 SFRSYM    DATA     BIT       P16
      00000080H.7 SFRSYM    DATA     BIT       P07
      000000E8H.3 SFRSYM    DATA     BIT       P43
      000000B0H.5 SFRSYM    DATA     BIT       P35
      000000A0H.6 SFRSYM    DATA     BIT       P26
      00000090H.7 SFRSYM    DATA     BIT       P17
      000000E8H.4 SFRSYM    DATA     BIT       P44
      000000B0H.6 SFRSYM    DATA     BIT       P36
      000000A0H.7 SFRSYM    DATA     BIT       P27
      000000E8H.5 SFRSYM    DATA     BIT       P45
      000000B0H.7 SFRSYM    DATA     BIT       P37
      000000E8H.6 SFRSYM    DATA     BIT       P46
      00000088H.1 SFRSYM    DATA     BIT       IE0
      00000088H.3 SFRSYM    DATA     BIT       IE1
      0000008EH   SFRSYM    DATA     BYTE      AUXR
      000000F0H   SFRSYM    DATA     BYTE      B
      000000C8H.0 SFRSYM    DATA     BIT       CP_RL2
      000000E0H   SFRSYM    DATA     BYTE      ACC
      000000A8H.1 SFRSYM    DATA     BIT       ET0
      000000A8H.3 SFRSYM    DATA     BIT       ET1
      00000088H.5 SFRSYM    DATA     BIT       TF0
      000000A8H.5 SFRSYM    DATA     BIT       ET2
      00000088H.7 SFRSYM    DATA     BIT       TF1
      000000C8H.7 SFRSYM    DATA     BIT       TF2
      00000098H.2 SFRSYM    DATA     BIT       RB8
      0000008CH   SFRSYM    DATA     BYTE      TH0
      000000A8H.0 SFRSYM    DATA     BIT       EX0
      00000088H.0 SFRSYM    DATA     BIT       IT0
      0000008DH   SFRSYM    DATA     BYTE      TH1
      00000098H.3 SFRSYM    DATA     BIT       TB8
      000000A8H.2 SFRSYM    DATA     BIT       EX1
      00000088H.2 SFRSYM    DATA     BIT       IT1
      000000CDH   SFRSYM    DATA     BYTE      TH2
      000000D0H.0 SFRSYM    DATA     BIT       P
      00000098H.7 SFRSYM    DATA     BIT       SM0
      0000008AH   SFRSYM    DATA     BYTE      TL0
      00000098H.6 SFRSYM    DATA     BIT       SM1
      0000008BH   SFRSYM    DATA     BYTE      TL1
      00000098H.5 SFRSYM    DATA     BIT       SM2
      000000CCH   SFRSYM    DATA     BYTE      TL2
      000000B8H.1 SFRSYM    DATA     BIT       PT0
      000000B8H.3 SFRSYM    DATA     BIT       PT1
      000000D0H.3 SFRSYM    DATA     BIT       RS0
      000000E7H   SFRSYM    DATA     BYTE      ISP_CONTR
      000000B8H.5 SFRSYM    DATA     BIT       PT2
      00000088H.4 SFRSYM    DATA     BIT       TR0
      000000D0H.4 SFRSYM    DATA     BIT       RS1
      00000088H.6 SFRSYM    DATA     BIT       TR1
      000000C8H.2 SFRSYM    DATA     BIT       TR2
      000000B8H.0 SFRSYM    DATA     BIT       PX0
      000000E1H   SFRSYM    DATA     BYTE      WDT_CONTR
      000000B8H.2 SFRSYM    DATA     BIT       PX1
      00000083H   SFRSYM    DATA     BYTE      DPH
      00000082H   SFRSYM    DATA     BYTE      DPL
      000000B7H   SFRSYM    DATA     BYTE      IPH
      000000C8H.3 SFRSYM    DATA     BIT       EXEN2
      00000098H.4 SFRSYM    DATA     BIT       REN
      000000C9H   SFRSYM    DATA     BYTE      T2MOD
      000000C8H   SFRSYM    DATA     BYTE      T2CON
      000000E2H   SFRSYM    DATA     BYTE      ISP_DATA
LX51 LINKER/LOCATER V4.66.87.0                                                        05/30/2018  17:25:18  PAGE 146


      000000B9H   SFRSYM    DATA     BYTE      SADEN
      000000B0H.0 SFRSYM    DATA     BIT       RXD
      000000A9H   SFRSYM    DATA     BYTE      SADDR
      000000B0H.1 SFRSYM    DATA     BIT       TXD
      000000A2H   SFRSYM    DATA     BYTE      AUXR1
      000000D0H.5 SFRSYM    DATA     BIT       F0
      000000D0H   SFRSYM    DATA     BYTE      PSW
      01007502H   SYMBOL    CODE     ---       fuse_power_on
      01007529H   SYMBOL    CODE     ---       fuse_power_off
      00000025H.2 SYMBOL    BIT      BIT       fuse_enabled

      01007502H   BLOCK     CODE     ---       LVL=0
      01007502H   LINE      CODE     ---       #17
      01007502H   LINE      CODE     ---       #18
      01007502H   LINE      CODE     ---       #19
      01007509H   LINE      CODE     ---       #20
      01007510H   LINE      CODE     ---       #21
      01007510H   LINE      CODE     ---       #22
      01007513H   LINE      CODE     ---       #23
      01007513H   LINE      CODE     ---       #24
      01007516H   LINE      CODE     ---       #25
      01007519H   LINE      CODE     ---       #26
      0100751BH   LINE      CODE     ---       #27
      ---         BLOCKEND  ---      ---       LVL=0

      01007529H   BLOCK     CODE     ---       LVL=0
      01007529H   LINE      CODE     ---       #29
      01007529H   LINE      CODE     ---       #30
      01007529H   LINE      CODE     ---       #31
      01007530H   LINE      CODE     ---       #32
      01007537H   LINE      CODE     ---       #33
      01007537H   LINE      CODE     ---       #34
      0100753AH   LINE      CODE     ---       #35
      0100753AH   LINE      CODE     ---       #36
      0100753DH   LINE      CODE     ---       #37
      01007540H   LINE      CODE     ---       #38
      01007542H   LINE      CODE     ---       #39
      ---         BLOCKEND  ---      ---       LVL=0

      010088A6H   BLOCK     CODE     ---       LVL=0
      010088A6H   LINE      CODE     ---       #41
      010088A6H   LINE      CODE     ---       #42
      010088A6H   LINE      CODE     ---       #43
      010088AFH   LINE      CODE     ---       #44
      ---         BLOCKEND  ---      ---       LVL=0

      01006C02H   BLOCK     CODE     ---       LVL=0
      00000020H.0 SYMBOL    BIT      BIT       enable
      01006C02H   LINE      CODE     ---       #48
      01006C02H   LINE      CODE     ---       #49
      01006C02H   LINE      CODE     ---       #50
      01006C17H   LINE      CODE     ---       #52
      01006C1AH   LINE      CODE     ---       #55
      01006C21H   LINE      CODE     ---       #58
      01006C2BH   LINE      CODE     ---       #59
      01006C34H   LINE      CODE     ---       #60
      01006C37H   LINE      CODE     ---       #61
      ---         BLOCKEND  ---      ---       LVL=0

      01008A90H   BLOCK     CODE     ---       LVL=0
      01008A90H   LINE      CODE     ---       #63
      01008A90H   LINE      CODE     ---       #64
      01008A90H   LINE      CODE     ---       #65
      ---         BLOCKEND  ---      ---       LVL=0

LX51 LINKER/LOCATER V4.66.87.0                                                        05/30/2018  17:25:18  PAGE 147


      01008A99H   BLOCK     CODE     ---       LVL=0
      01008A99H   LINE      CODE     ---       #68
      01008A99H   LINE      CODE     ---       #69
      01008A99H   LINE      CODE     ---       #70
      ---         BLOCKEND  ---      ---       LVL=0

      01004978H   BLOCK     CODE     ---       LVL=0
      02000016H   SYMBOL    XDATA    WORD      status
      01004980H   BLOCK     CODE     NEAR LAB  LVL=1
      00000020H.0 SYMBOL    BIT      BIT       has_event
      ---         BLOCKEND  ---      ---       LVL=1
      01004978H   LINE      CODE     ---       #73
      01004980H   LINE      CODE     ---       #74
      01004980H   LINE      CODE     ---       #75
      01004982H   LINE      CODE     ---       #76
      01004993H   LINE      CODE     ---       #78
      0100499AH   LINE      CODE     ---       #79
      010049A3H   LINE      CODE     ---       #80
      010049A6H   LINE      CODE     ---       #81
      010049AFH   LINE      CODE     ---       #82
      010049B1H   LINE      CODE     ---       #83
      010049B1H   LINE      CODE     ---       #85
      010049B8H   LINE      CODE     ---       #86
      010049C1H   LINE      CODE     ---       #87
      010049C4H   LINE      CODE     ---       #88
      010049CDH   LINE      CODE     ---       #89
      010049CFH   LINE      CODE     ---       #90
      010049CFH   LINE      CODE     ---       #92
      010049D6H   LINE      CODE     ---       #93
      010049DFH   LINE      CODE     ---       #94
      010049E2H   LINE      CODE     ---       #95
      010049E8H   LINE      CODE     ---       #96
      010049EAH   LINE      CODE     ---       #97
      010049EAH   LINE      CODE     ---       #99
      010049F2H   LINE      CODE     ---       #100
      010049F5H   LINE      CODE     ---       #101
      010049F5H   LINE      CODE     ---       #102
      ---         BLOCKEND  ---      ---       LVL=0

      01007EC9H   BLOCK     CODE     ---       LVL=0
      0200000CH   SYMBOL    XDATA    BYTE      ev
      01007EC9H   LINE      CODE     ---       #104
      01007ECEH   LINE      CODE     ---       #105
      01007ECEH   LINE      CODE     ---       #106
      01007EDBH   LINE      CODE     ---       #107
      ---         BLOCKEND  ---      ---       LVL=0

      010067B3H   BLOCK     CODE     ---       LVL=0
      02000012H   SYMBOL    XDATA    BYTE      index
      00000020H.0 SYMBOL    BIT      BIT       enable
      010067B3H   LINE      CODE     ---       #111
      010067B8H   LINE      CODE     ---       #112
      010067B8H   LINE      CODE     ---       #113
      010067D1H   LINE      CODE     ---       #115
      010067D4H   LINE      CODE     ---       #117
      010067DAH   LINE      CODE     ---       #118
      010067E3H   LINE      CODE     ---       #120
      010067EDH   LINE      CODE     ---       #122
      010067F0H   LINE      CODE     ---       #123
      ---         BLOCKEND  ---      ---       LVL=0

      010075C3H   BLOCK     CODE     ---       LVL=0
      00000020H.0 SYMBOL    BIT      BIT       broke
      010075C3H   LINE      CODE     ---       #125
      010075C3H   LINE      CODE     ---       #126
LX51 LINKER/LOCATER V4.66.87.0                                                        05/30/2018  17:25:18  PAGE 148


      010075C3H   LINE      CODE     ---       #127
      010075D8H   LINE      CODE     ---       #129
      010075DBH   LINE      CODE     ---       #131
      010075E5H   LINE      CODE     ---       #132
      010075E8H   LINE      CODE     ---       #133
      ---         BLOCKEND  ---      ---       LVL=0

      0100748BH   BLOCK     CODE     ---       LVL=0
      00000020H.1 SYMBOL    BIT      BIT       enable
      0100748BH   LINE      CODE     ---       #135
      0100748BH   LINE      CODE     ---       #136
      0100748BH   LINE      CODE     ---       #137
      010074A0H   LINE      CODE     ---       #139
      010074A6H   LINE      CODE     ---       #140
      010074A9H   LINE      CODE     ---       #141
      010074AFH   LINE      CODE     ---       #142
      010074B2H   LINE      CODE     ---       #143
      010074B2H   LINE      CODE     ---       #144
      ---         BLOCKEND  ---      ---       LVL=0

      ---         MODULE    ---      ---       HG
      0100855BH   PUBLIC    CODE     ---       hg_get_state
      00000020H.1 PUBLIC    BIT      BIT       ?hg_enable?BIT
      010074B3H   PUBLIC    CODE     ---       hg_enable
      010088BEH   PUBLIC    CODE     ---       hg_initialize
      01004DC6H   PUBLIC    CODE     ---       _scan_hg
      01008AABH   PUBLIC    CODE     ---       hg_leave_powersave
      01008AA2H   PUBLIC    CODE     ---       hg_enter_powersave
      00000025H.3 SYMBOL    BIT      BIT       hg_enabled
      01007E44H   SYMBOL    CODE     ---       hg_power_on
      020000E7H   SYMBOL    XDATA    BYTE      hg_state
      01008549H   SYMBOL    CODE     ---       __hg_get_state
      010088B2H   SYMBOL    CODE     ---       hg_cb_set_enable
      01008875H   SYMBOL    CODE     ---       hg_power_off

      0100893EH   BLOCK     CODE     ---       LVL=0
      ---         BLOCKEND  ---      ---       LVL=0

      01008AA2H   BLOCK     CODE     ---       LVL=0
      01008AA2H   LINE      CODE     ---       #15
      01008AA2H   LINE      CODE     ---       #16
      01008AA2H   LINE      CODE     ---       #17
      ---         BLOCKEND  ---      ---       LVL=0

      01008AABH   BLOCK     CODE     ---       LVL=0
      01008AABH   LINE      CODE     ---       #20
      01008AABH   LINE      CODE     ---       #21
      01008AABH   LINE      CODE     ---       #22
      ---         BLOCKEND  ---      ---       LVL=0

      01008549H   BLOCK     CODE     ---       LVL=0
      00000006H   SYMBOL    DATA     WORD      status
      01008549H   LINE      CODE     ---       #25
      01008549H   LINE      CODE     ---       #26
      01008549H   LINE      CODE     ---       #27
      0100855AH   LINE      CODE     ---       #28
      ---         BLOCKEND  ---      ---       LVL=0

      010088B2H   BLOCK     CODE     ---       LVL=0
      010088B2H   LINE      CODE     ---       #30
      010088B2H   LINE      CODE     ---       #31
      010088B2H   LINE      CODE     ---       #32
      010088BBH   LINE      CODE     ---       #33
      010088BDH   LINE      CODE     ---       #34
      ---         BLOCKEND  ---      ---       LVL=0
LX51 LINKER/LOCATER V4.66.87.0                                                        05/30/2018  17:25:18  PAGE 149



      01004DC6H   BLOCK     CODE     ---       LVL=0
      02000016H   SYMBOL    XDATA    WORD      status
      01004DCEH   BLOCK     CODE     NEAR LAB  LVL=1
      02000018H   SYMBOL    XDATA    BYTE      hg_new_state
      ---         BLOCKEND  ---      ---       LVL=1
      01004DC6H   LINE      CODE     ---       #36
      01004DCEH   LINE      CODE     ---       #37
      01004DCEH   LINE      CODE     ---       #39
      01004DDFH   LINE      CODE     ---       #41
      01004DEDH   LINE      CODE     ---       #43
      01004DFAH   LINE      CODE     ---       #45
      01004E06H   LINE      CODE     ---       #46
      01004E09H   LINE      CODE     ---       #47
      01004E12H   LINE      CODE     ---       #48
      01004E18H   LINE      CODE     ---       #49
      01004E18H   LINE      CODE     ---       #50
      01004E1DH   LINE      CODE     ---       #51
      01004E20H   LINE      CODE     ---       #52
      01004E20H   LINE      CODE     ---       #54
      01004E32H   LINE      CODE     ---       #55
      01004E3AH   LINE      CODE     ---       #56
      01004E3AH   LINE      CODE     ---       #58
      ---         BLOCKEND  ---      ---       LVL=0

      01007E44H   BLOCK     CODE     ---       LVL=0
      01007E44H   LINE      CODE     ---       #60
      01007E44H   LINE      CODE     ---       #61
      01007E44H   LINE      CODE     ---       #62
      01007E4BH   LINE      CODE     ---       #63
      01007E4EH   LINE      CODE     ---       #64
      01007E54H   LINE      CODE     ---       #65
      ---         BLOCKEND  ---      ---       LVL=0

      01008875H   BLOCK     CODE     ---       LVL=0
      01008875H   LINE      CODE     ---       #68
      01008875H   LINE      CODE     ---       #69
      01008875H   LINE      CODE     ---       #70
      0100887CH   LINE      CODE     ---       #71
      0100887FH   LINE      CODE     ---       #72
      01008881H   LINE      CODE     ---       #73
      ---         BLOCKEND  ---      ---       LVL=0

      010088BEH   BLOCK     CODE     ---       LVL=0
      010088BEH   LINE      CODE     ---       #75
      010088BEH   LINE      CODE     ---       #76
      010088BEH   LINE      CODE     ---       #77
      010088C7H   LINE      CODE     ---       #78
      ---         BLOCKEND  ---      ---       LVL=0

      010074B3H   BLOCK     CODE     ---       LVL=0
      00000020H.1 SYMBOL    BIT      BIT       enable
      010074B3H   LINE      CODE     ---       #81
      010074B3H   LINE      CODE     ---       #82
      010074B3H   LINE      CODE     ---       #83
      010074C8H   LINE      CODE     ---       #84
      010074CEH   LINE      CODE     ---       #85
      010074D1H   LINE      CODE     ---       #87
      010074D7H   LINE      CODE     ---       #88
      010074DAH   LINE      CODE     ---       #89
      010074DAH   LINE      CODE     ---       #90
      ---         BLOCKEND  ---      ---       LVL=0

      0100855BH   BLOCK     CODE     ---       LVL=0
      0100855BH   LINE      CODE     ---       #92
LX51 LINKER/LOCATER V4.66.87.0                                                        05/30/2018  17:25:18  PAGE 150


      0100855BH   LINE      CODE     ---       #93
      0100855BH   LINE      CODE     ---       #94
      01008567H   LINE      CODE     ---       #95
      0100856CH   LINE      CODE     ---       #96
      ---         BLOCKEND  ---      ---       LVL=0

      ---         MODULE    ---      ---       LT_TIMER
      010065B4H   PUBLIC    CODE     ---       lt_timer_sync_to_rtc
      00000020H.0 PUBLIC    BIT      BIT       ?lt_timer_get_relative?BIT
      010047F2H   PUBLIC    CODE     ---       lt_timer_get_relative
      01005B15H   PUBLIC    CODE     ---       _lt_timer_save_to_rom
      010065F6H   PUBLIC    CODE     ---       lt_timer_load_from_rom
      010040A1H   PUBLIC    CODE     ---       lt_timer_dec_sec
      01008749H   PUBLIC    CODE     ---       lt_timer_reset
      00000020H.0 PUBLIC    BIT      BIT       ?lt_timer_display?BIT
      01007EE3H   PUBLIC    CODE     ---       lt_timer_display
      0100815AH   PUBLIC    CODE     ---       lt_timer_switch_display
      010088CAH   PUBLIC    CODE     ---       lt_timer_stop_ram
      01008814H   PUBLIC    CODE     ---       lt_timer_start_ram
      01007AD7H   PUBLIC    CODE     ---       lt_timer_stop_rtc
      01007AB9H   PUBLIC    CODE     ---       lt_timer_start_rtc
      01008BB8H   PUBLIC    CODE     ---       lt_timer_get_date
      01008C0FH   PUBLIC    CODE     ---       lt_timer_get_sec
      01008C0AH   PUBLIC    CODE     ---       lt_timer_get_min
      01008C05H   PUBLIC    CODE     ---       lt_timer_get_hour
      01008BB2H   PUBLIC    CODE     ---       lt_timer_get_month
      01008C00H   PUBLIC    CODE     ---       lt_timer_get_year
      01008975H   PUBLIC    CODE     ---       lt_timer_inc_sec
      0100896AH   PUBLIC    CODE     ---       lt_timer_inc_min
      0100895FH   PUBLIC    CODE     ---       lt_timer_inc_hour
      010084EDH   PUBLIC    CODE     ---       lt_timer_inc_date
      01008954H   PUBLIC    CODE     ---       lt_timer_inc_month
      01008949H   PUBLIC    CODE     ---       lt_timer_inc_year
      010061D7H   PUBLIC    CODE     ---       scan_lt_timer
      010077C2H   PUBLIC    CODE     ---       lt_timer_switch_off
      01008310H   PUBLIC    CODE     ---       lt_timer_switch_on
      010076C7H   PUBLIC    CODE     ---       lt_timer_leave_powersave
      010082FBH   PUBLIC    CODE     ---       lt_timer_enter_powersave
      00000020H.1 PUBLIC    BIT      BIT       ?lt_timer_set_hour_12?BIT
      01008BFBH   PUBLIC    CODE     ---       lt_timer_set_hour_12
      01008C44H   PUBLIC    CODE     ---       lt_timer_get_hour_12
      01008416H   PUBLIC    CODE     ---       lt_timer_initialize
      01002845H   SYMBOL    CODE     ---       lt_timer_sub_date
      00000021H.4 SYMBOL    BIT      BIT       lt_tmr_start
      0100B2BEH   SYMBOL    CONST    ---       leap_month
      01006994H   SYMBOL    CODE     ---       lt_timer_sub_hour_date
      00000021H.5 SYMBOL    BIT      BIT       lt_tmr_disp_day
      00000048H   SYMBOL    IDATA    ---       ltm
      01007AF5H   SYMBOL    CODE     ---       lt_timer_sub_sec_min
      0100695AH   SYMBOL    CODE     ---       lt_timer_sub_min_hour
      00000021H.6 SYMBOL    BIT      BIT       lt_timer_is_12
      00000021H.7 SYMBOL    BIT      BIT       lt_tmr_display
      00000022H.0 SYMBOL    BIT      BIT       lt_tmr_stopped

      010044B2H   BLOCK     CODE     ---       LVL=0
      ---         BLOCKEND  ---      ---       LVL=0

      01008416H   BLOCK     CODE     ---       LVL=0
      01008416H   LINE      CODE     ---       #23
      01008416H   LINE      CODE     ---       #24
      01008416H   LINE      CODE     ---       #25
      0100841FH   LINE      CODE     ---       #26
      01008421H   LINE      CODE     ---       #27
      01008423H   LINE      CODE     ---       #28
      01008425H   LINE      CODE     ---       #29
LX51 LINKER/LOCATER V4.66.87.0                                                        05/30/2018  17:25:18  PAGE 151


      01008427H   LINE      CODE     ---       #30
      01008429H   LINE      CODE     ---       #31
      ---         BLOCKEND  ---      ---       LVL=0

      01008C44H   BLOCK     CODE     ---       LVL=0
      01008C44H   LINE      CODE     ---       #33
      01008C44H   LINE      CODE     ---       #34
      01008C44H   LINE      CODE     ---       #35
      01008C46H   LINE      CODE     ---       #36
      ---         BLOCKEND  ---      ---       LVL=0

      01008BFBH   BLOCK     CODE     ---       LVL=0
      00000020H.1 SYMBOL    BIT      BIT       val
      01008BFBH   LINE      CODE     ---       #38
      01008BFBH   LINE      CODE     ---       #39
      01008BFBH   LINE      CODE     ---       #40
      01008BFFH   LINE      CODE     ---       #41
      ---         BLOCKEND  ---      ---       LVL=0

      010082FBH   BLOCK     CODE     ---       LVL=0
      010082FBH   LINE      CODE     ---       #43
      010082FBH   LINE      CODE     ---       #44
      010082FBH   LINE      CODE     ---       #45
      01008304H   LINE      CODE     ---       #46
      01008309H   LINE      CODE     ---       #47
      0100830CH   LINE      CODE     ---       #48
      0100830FH   LINE      CODE     ---       #49
      0100830FH   LINE      CODE     ---       #50
      ---         BLOCKEND  ---      ---       LVL=0

      010076C7H   BLOCK     CODE     ---       LVL=0
      010076C7H   LINE      CODE     ---       #52
      010076C7H   LINE      CODE     ---       #53
      010076C7H   LINE      CODE     ---       #54
      010076D0H   LINE      CODE     ---       #55
      010076D5H   LINE      CODE     ---       #56
      010076D8H   LINE      CODE     ---       #57
      010076DBH   LINE      CODE     ---       #58
      010076E3H   LINE      CODE     ---       #59
      010076E3H   LINE      CODE     ---       #60
      010076E6H   LINE      CODE     ---       #61
      010076E7H   LINE      CODE     ---       #62
      010076EAH   LINE      CODE     ---       #63
      010076EAH   LINE      CODE     ---       #64
      010076EAH   LINE      CODE     ---       #65
      ---         BLOCKEND  ---      ---       LVL=0

      01008310H   BLOCK     CODE     ---       LVL=0
      01008310H   LINE      CODE     ---       #67
      01008310H   LINE      CODE     ---       #68
      01008310H   LINE      CODE     ---       #69
      01008319H   LINE      CODE     ---       #70
      0100831CH   LINE      CODE     ---       #71
      0100831FH   LINE      CODE     ---       #72
      01008322H   LINE      CODE     ---       #73
      ---         BLOCKEND  ---      ---       LVL=0

      010077C2H   BLOCK     CODE     ---       LVL=0
      010077C2H   LINE      CODE     ---       #76
      010077C2H   LINE      CODE     ---       #77
      010077C2H   LINE      CODE     ---       #78
      010077CBH   LINE      CODE     ---       #79
      010077D0H   LINE      CODE     ---       #80
      010077D7H   LINE      CODE     ---       #81
      010077DDH   LINE      CODE     ---       #82
LX51 LINKER/LOCATER V4.66.87.0                                                        05/30/2018  17:25:18  PAGE 152


      010077E2H   LINE      CODE     ---       #83
      ---         BLOCKEND  ---      ---       LVL=0

      010061D7H   BLOCK     CODE     ---       LVL=0
      010061D7H   BLOCK     CODE     NEAR LAB  LVL=1
      00000020H.0 SYMBOL    BIT      BIT       alarm0_hit
      ---         BLOCKEND  ---      ---       LVL=1
      010061D7H   LINE      CODE     ---       #86
      010061D7H   LINE      CODE     ---       #87
      010061D7H   LINE      CODE     ---       #90
      010061E0H   LINE      CODE     ---       #92
      010061E5H   LINE      CODE     ---       #93
      010061ECH   LINE      CODE     ---       #94
      010061F0H   LINE      CODE     ---       #95
      010061F5H   LINE      CODE     ---       #97
      010061F8H   LINE      CODE     ---       #98
      010061FDH   LINE      CODE     ---       #99
      01006215H   LINE      CODE     ---       #100
      01006215H   LINE      CODE     ---       #101
      0100621AH   LINE      CODE     ---       #102
      0100621DH   LINE      CODE     ---       #103
      0100621DH   LINE      CODE     ---       #104
      01006220H   LINE      CODE     ---       #105
      01006220H   LINE      CODE     ---       #106
      01006220H   LINE      CODE     ---       #107
      ---         BLOCKEND  ---      ---       LVL=0

      01008949H   BLOCK     CODE     ---       LVL=0
      01008949H   LINE      CODE     ---       #109
      01008949H   LINE      CODE     ---       #110
      01008949H   LINE      CODE     ---       #111
      01008953H   LINE      CODE     ---       #112
      ---         BLOCKEND  ---      ---       LVL=0

      01008954H   BLOCK     CODE     ---       LVL=0
      01008954H   LINE      CODE     ---       #114
      01008954H   LINE      CODE     ---       #115
      01008954H   LINE      CODE     ---       #116
      0100895EH   LINE      CODE     ---       #117
      ---         BLOCKEND  ---      ---       LVL=0

      010084EDH   BLOCK     CODE     ---       LVL=0
      010084EDH   LINE      CODE     ---       #119
      010084EDH   LINE      CODE     ---       #120
      010084EDH   LINE      CODE     ---       #121
      010084FFH   LINE      CODE     ---       #122
      ---         BLOCKEND  ---      ---       LVL=0

      0100895FH   BLOCK     CODE     ---       LVL=0
      0100895FH   LINE      CODE     ---       #124
      0100895FH   LINE      CODE     ---       #125
      0100895FH   LINE      CODE     ---       #126
      01008969H   LINE      CODE     ---       #127
      ---         BLOCKEND  ---      ---       LVL=0

      0100896AH   BLOCK     CODE     ---       LVL=0
      0100896AH   LINE      CODE     ---       #129
      0100896AH   LINE      CODE     ---       #130
      0100896AH   LINE      CODE     ---       #131
      01008974H   LINE      CODE     ---       #132
      ---         BLOCKEND  ---      ---       LVL=0

      01008975H   BLOCK     CODE     ---       LVL=0
      01008975H   LINE      CODE     ---       #134
      01008975H   LINE      CODE     ---       #135
LX51 LINKER/LOCATER V4.66.87.0                                                        05/30/2018  17:25:18  PAGE 153


      01008975H   LINE      CODE     ---       #136
      0100897FH   LINE      CODE     ---       #137
      ---         BLOCKEND  ---      ---       LVL=0

      01008C00H   BLOCK     CODE     ---       LVL=0
      01008C00H   LINE      CODE     ---       #139
      01008C00H   LINE      CODE     ---       #140
      01008C00H   LINE      CODE     ---       #141
      01008C04H   LINE      CODE     ---       #142
      ---         BLOCKEND  ---      ---       LVL=0

      01008BB2H   BLOCK     CODE     ---       LVL=0
      01008BB2H   LINE      CODE     ---       #144
      01008BB2H   LINE      CODE     ---       #145
      01008BB2H   LINE      CODE     ---       #146
      01008BB7H   LINE      CODE     ---       #147
      ---         BLOCKEND  ---      ---       LVL=0

      01008C05H   BLOCK     CODE     ---       LVL=0
      01008C05H   LINE      CODE     ---       #149
      01008C05H   LINE      CODE     ---       #150
      01008C05H   LINE      CODE     ---       #151
      01008C09H   LINE      CODE     ---       #152
      ---         BLOCKEND  ---      ---       LVL=0

      01008C0AH   BLOCK     CODE     ---       LVL=0
      01008C0AH   LINE      CODE     ---       #154
      01008C0AH   LINE      CODE     ---       #155
      01008C0AH   LINE      CODE     ---       #156
      01008C0EH   LINE      CODE     ---       #157
      ---         BLOCKEND  ---      ---       LVL=0

      01008C0FH   BLOCK     CODE     ---       LVL=0
      01008C0FH   LINE      CODE     ---       #159
      01008C0FH   LINE      CODE     ---       #160
      01008C0FH   LINE      CODE     ---       #161
      01008C13H   LINE      CODE     ---       #162
      ---         BLOCKEND  ---      ---       LVL=0

      01008BB8H   BLOCK     CODE     ---       LVL=0
      01008BB8H   LINE      CODE     ---       #164
      01008BB8H   LINE      CODE     ---       #165
      01008BB8H   LINE      CODE     ---       #166
      01008BBDH   LINE      CODE     ---       #167
      ---         BLOCKEND  ---      ---       LVL=0

      01007AB9H   BLOCK     CODE     ---       LVL=0
      01007AB9H   LINE      CODE     ---       #169
      01007AB9H   LINE      CODE     ---       #170
      01007AB9H   LINE      CODE     ---       #171
      01007AC2H   LINE      CODE     ---       #172
      01007AC7H   LINE      CODE     ---       #173
      01007ACEH   LINE      CODE     ---       #174
      01007AD2H   LINE      CODE     ---       #175
      ---         BLOCKEND  ---      ---       LVL=0

      01007AD7H   BLOCK     CODE     ---       LVL=0
      01007AD7H   LINE      CODE     ---       #178
      01007AD7H   LINE      CODE     ---       #179
      01007AD7H   LINE      CODE     ---       #180
      01007AE0H   LINE      CODE     ---       #181
      01007AE5H   LINE      CODE     ---       #182
      01007AECH   LINE      CODE     ---       #183
      01007AF0H   LINE      CODE     ---       #184
      ---         BLOCKEND  ---      ---       LVL=0
LX51 LINKER/LOCATER V4.66.87.0                                                        05/30/2018  17:25:18  PAGE 154



      01008814H   BLOCK     CODE     ---       LVL=0
      01008814H   LINE      CODE     ---       #187
      01008814H   LINE      CODE     ---       #188
      01008814H   LINE      CODE     ---       #189
      0100881DH   LINE      CODE     ---       #190
      0100881FH   LINE      CODE     ---       #191
      01008821H   LINE      CODE     ---       #192
      ---         BLOCKEND  ---      ---       LVL=0

      010088CAH   BLOCK     CODE     ---       LVL=0
      010088CAH   LINE      CODE     ---       #194
      010088CAH   LINE      CODE     ---       #195
      010088CAH   LINE      CODE     ---       #196
      010088D3H   LINE      CODE     ---       #197
      010088D5H   LINE      CODE     ---       #198
      ---         BLOCKEND  ---      ---       LVL=0

      0100815AH   BLOCK     CODE     ---       LVL=0
      0100815AH   LINE      CODE     ---       #200
      0100815AH   LINE      CODE     ---       #201
      0100815AH   LINE      CODE     ---       #202
      0100815CH   LINE      CODE     ---       #203
      ---         BLOCKEND  ---      ---       LVL=0

      01007EE3H   BLOCK     CODE     ---       LVL=0
      00000020H.0 SYMBOL    BIT      BIT       enable
      01007EE3H   LINE      CODE     ---       #206
      01007EE3H   LINE      CODE     ---       #207
      01007EE3H   LINE      CODE     ---       #208
      01007EF8H   LINE      CODE     ---       #209
      01007EFCH   LINE      CODE     ---       #210
      ---         BLOCKEND  ---      ---       LVL=0

      01008749H   BLOCK     CODE     ---       LVL=0
      01008749H   LINE      CODE     ---       #212
      01008749H   LINE      CODE     ---       #213
      01008749H   LINE      CODE     ---       #214
      0100874CH   LINE      CODE     ---       #215
      0100874FH   LINE      CODE     ---       #216
      01008751H   LINE      CODE     ---       #217
      01008753H   LINE      CODE     ---       #218
      01008755H   LINE      CODE     ---       #219
      01008757H   LINE      CODE     ---       #220
      ---         BLOCKEND  ---      ---       LVL=0

      01007AF5H   BLOCK     CODE     ---       LVL=0
      01007AF5H   BLOCK     CODE     NEAR LAB  LVL=1
      00000020H.2 SYMBOL    BIT      BIT       borrow_min
      ---         BLOCKEND  ---      ---       LVL=1
      01007AF5H   LINE      CODE     ---       #224
      01007AF5H   LINE      CODE     ---       #225
      01007AF5H   LINE      CODE     ---       #227
      01007AF7H   LINE      CODE     ---       #229
      01007B01H   LINE      CODE     ---       #231
      01007B05H   LINE      CODE     ---       #232
      01007B07H   LINE      CODE     ---       #233
      01007B07H   LINE      CODE     ---       #235
      01007B10H   LINE      CODE     ---       #237
      01007B12H   LINE      CODE     ---       #238
      ---         BLOCKEND  ---      ---       LVL=0

      0100695AH   BLOCK     CODE     ---       LVL=0
      00000020H.2 SYMBOL    BIT      BIT       borrow_min
      0100695AH   BLOCK     CODE     NEAR LAB  LVL=1
LX51 LINKER/LOCATER V4.66.87.0                                                        05/30/2018  17:25:18  PAGE 155


      00000020H.3 SYMBOL    BIT      BIT       borrow_hour
      ---         BLOCKEND  ---      ---       LVL=1
      0100695AH   LINE      CODE     ---       #242
      0100695AH   LINE      CODE     ---       #243
      0100695AH   LINE      CODE     ---       #245
      0100695CH   LINE      CODE     ---       #247
      01006973H   LINE      CODE     ---       #249
      01006979H   LINE      CODE     ---       #250
      0100697BH   LINE      CODE     ---       #251
      0100697BH   LINE      CODE     ---       #253
      01006984H   LINE      CODE     ---       #254
      01006991H   LINE      CODE     ---       #256
      01006993H   LINE      CODE     ---       #257
      ---         BLOCKEND  ---      ---       LVL=0

      01006994H   BLOCK     CODE     ---       LVL=0
      00000020H.2 SYMBOL    BIT      BIT       borrow_hour
      01006994H   BLOCK     CODE     NEAR LAB  LVL=1
      00000020H.3 SYMBOL    BIT      BIT       borrow_date
      ---         BLOCKEND  ---      ---       LVL=1
      01006994H   LINE      CODE     ---       #260
      01006994H   LINE      CODE     ---       #261
      01006994H   LINE      CODE     ---       #263
      01006996H   LINE      CODE     ---       #265
      010069ADH   LINE      CODE     ---       #267
      010069B3H   LINE      CODE     ---       #268
      010069B5H   LINE      CODE     ---       #269
      010069B5H   LINE      CODE     ---       #271
      010069BEH   LINE      CODE     ---       #272
      010069CBH   LINE      CODE     ---       #274
      010069CDH   LINE      CODE     ---       #275
      ---         BLOCKEND  ---      ---       LVL=0

      01002845H   BLOCK     CODE     ---       LVL=0
      00000020H.2 SYMBOL    BIT      BIT       borrow_date
      01002845H   BLOCK     CODE     NEAR LAB  LVL=1
      02000015H   SYMBOL    XDATA    BYTE      i
      02000016H   SYMBOL    XDATA    BYTE      j
      02000017H   SYMBOL    XDATA    LONG      day
      ---         BLOCKEND  ---      ---       LVL=1
      01002845H   LINE      CODE     ---       #279
      01002845H   LINE      CODE     ---       #280
      01002845H   LINE      CODE     ---       #284
      0100284FH   LINE      CODE     ---       #287
      01002862H   LINE      CODE     ---       #288
      0100287AH   LINE      CODE     ---       #290
      0100288CH   LINE      CODE     ---       #292
      0100289BH   LINE      CODE     ---       #293
      010028ABH   LINE      CODE     ---       #295
      010028BEH   LINE      CODE     ---       #296
      010028D5H   LINE      CODE     ---       #298
      0100290DH   LINE      CODE     ---       #300
      01002910H   LINE      CODE     ---       #301
      01002922H   LINE      CODE     ---       #303
      01002929H   LINE      CODE     ---       #304
      0100292DH   LINE      CODE     ---       #305
      0100292FH   LINE      CODE     ---       #306
      01002931H   LINE      CODE     ---       #307
      01002933H   LINE      CODE     ---       #308
      01002944H   LINE      CODE     ---       #309
      0100294EH   LINE      CODE     ---       #310
      0100294EH   LINE      CODE     ---       #312
      01002955H   LINE      CODE     ---       #313
      ---         BLOCKEND  ---      ---       LVL=0

LX51 LINKER/LOCATER V4.66.87.0                                                        05/30/2018  17:25:18  PAGE 156


      010040A1H   BLOCK     CODE     ---       LVL=0
      010040A1H   LINE      CODE     ---       #382
      010040A1H   LINE      CODE     ---       #383
      010040A1H   LINE      CODE     ---       #384
      010040A7H   LINE      CODE     ---       #387
      010040AAH   LINE      CODE     ---       #388
      010040B7H   LINE      CODE     ---       #390
      010040B7H   LINE      CODE     ---       #391
      010040BAH   LINE      CODE     ---       #392
      010040BEH   LINE      CODE     ---       #393
      010040C0H   LINE      CODE     ---       #394
      010040C2H   LINE      CODE     ---       #395
      010040C6H   LINE      CODE     ---       #396
      010040C8H   LINE      CODE     ---       #397
      010040CAH   LINE      CODE     ---       #398
      010040CEH   LINE      CODE     ---       #399
      010040D0H   LINE      CODE     ---       #400
      010040D7H   LINE      CODE     ---       #401
      010040D8H   LINE      CODE     ---       #402
      010040D8H   LINE      CODE     ---       #403
      010040D8H   LINE      CODE     ---       #404
      010040D8H   LINE      CODE     ---       #405
      010040D8H   LINE      CODE     ---       #406
      010040DAH   LINE      CODE     ---       #407
      010040DAH   LINE      CODE     ---       #408
      010040DDH   LINE      CODE     ---       #409
      010040DDH   LINE      CODE     ---       #410
      010040DDH   LINE      CODE     ---       #412
      010040E3H   LINE      CODE     ---       #413
      010040E6H   LINE      CODE     ---       #414
      010040F0H   LINE      CODE     ---       #415
      010040F6H   LINE      CODE     ---       #416
      010040FCH   LINE      CODE     ---       #417
      01004102H   LINE      CODE     ---       #418
      0100410BH   LINE      CODE     ---       #419
      01004112H   LINE      CODE     ---       #420
      01004113H   LINE      CODE     ---       #421
      0100411AH   LINE      CODE     ---       #422
      0100411FH   LINE      CODE     ---       #423
      01004124H   LINE      CODE     ---       #424
      01004129H   LINE      CODE     ---       #425
      0100412EH   LINE      CODE     ---       #426
      01004133H   LINE      CODE     ---       #427
      01004136H   LINE      CODE     ---       #428
      0100413CH   LINE      CODE     ---       #429
      0100413CH   LINE      CODE     ---       #430
      0100413CH   LINE      CODE     ---       #431
      ---         BLOCKEND  ---      ---       LVL=0

      010065F6H   BLOCK     CODE     ---       LVL=0
      010065F6H   LINE      CODE     ---       #436
      010065F6H   LINE      CODE     ---       #437
      010065F6H   LINE      CODE     ---       #438
      010065FFH   LINE      CODE     ---       #439
      01006608H   LINE      CODE     ---       #440
      01006611H   LINE      CODE     ---       #441
      0100661AH   LINE      CODE     ---       #442
      01006623H   LINE      CODE     ---       #443
      0100662CH   LINE      CODE     ---       #444
      01006636H   LINE      CODE     ---       #445
      ---         BLOCKEND  ---      ---       LVL=0

      01005B15H   BLOCK     CODE     ---       LVL=0
      02000016H   SYMBOL    XDATA    BYTE      type
      01005B15H   LINE      CODE     ---       #448
LX51 LINKER/LOCATER V4.66.87.0                                                        05/30/2018  17:25:18  PAGE 157


      01005B1AH   LINE      CODE     ---       #449
      01005B1AH   LINE      CODE     ---       #450
      01005B24H   LINE      CODE     ---       #451
      01005B3BH   LINE      CODE     ---       #452
      01005B3BH   LINE      CODE     ---       #453
      01005B41H   LINE      CODE     ---       #454
      01005B43H   LINE      CODE     ---       #455
      01005B43H   LINE      CODE     ---       #456
      01005B49H   LINE      CODE     ---       #457
      01005B4BH   LINE      CODE     ---       #458
      01005B4BH   LINE      CODE     ---       #459
      01005B51H   LINE      CODE     ---       #460
      01005B53H   LINE      CODE     ---       #461
      01005B53H   LINE      CODE     ---       #462
      01005B59H   LINE      CODE     ---       #463
      01005B5BH   LINE      CODE     ---       #464
      01005B5BH   LINE      CODE     ---       #465
      01005B61H   LINE      CODE     ---       #466
      01005B63H   LINE      CODE     ---       #467
      01005B63H   LINE      CODE     ---       #468
      01005B6CH   LINE      CODE     ---       #469
      01005B6CH   LINE      CODE     ---       #471
      01005B6CH   LINE      CODE     ---       #472
      ---         BLOCKEND  ---      ---       LVL=0

      010047F2H   BLOCK     CODE     ---       LVL=0
      00000020H.0 SYMBOL    BIT      BIT       too_close_check
      010047F2H   BLOCK     CODE     NEAR LAB  LVL=1
      00000020H.1 SYMBOL    BIT      BIT       borrow
      ---         BLOCKEND  ---      ---       LVL=1
      010047F2H   LINE      CODE     ---       #480
      010047F2H   LINE      CODE     ---       #481
      010047F2H   LINE      CODE     ---       #485
      010047F7H   LINE      CODE     ---       #486
      010047FCH   LINE      CODE     ---       #487
      01004805H   LINE      CODE     ---       #488
      0100480EH   LINE      CODE     ---       #489
      01004815H   LINE      CODE     ---       #490
      0100481AH   LINE      CODE     ---       #492
      01004829H   LINE      CODE     ---       #496
      01004836H   LINE      CODE     ---       #497
      0100483AH   LINE      CODE     ---       #498
      01004840H   LINE      CODE     ---       #499
      01004842H   LINE      CODE     ---       #500
      0100484DH   LINE      CODE     ---       #501
      01004856H   LINE      CODE     ---       #502
      01004859H   LINE      CODE     ---       #503
      01004859H   LINE      CODE     ---       #504
      01004859H   LINE      CODE     ---       #506
      01004861H   LINE      CODE     ---       #507
      01004870H   LINE      CODE     ---       #508
      01004873H   LINE      CODE     ---       #509
      01004873H   LINE      CODE     ---       #511
      01004875H   LINE      CODE     ---       #512
      ---         BLOCKEND  ---      ---       LVL=0

      010065B4H   BLOCK     CODE     ---       LVL=0
      010065B4H   LINE      CODE     ---       #515
      010065B4H   LINE      CODE     ---       #516
      010065B4H   LINE      CODE     ---       #517
      010065C6H   LINE      CODE     ---       #520
      010065CBH   LINE      CODE     ---       #521
      010065D0H   LINE      CODE     ---       #522
      010065D7H   LINE      CODE     ---       #523
      010065DFH   LINE      CODE     ---       #524
LX51 LINKER/LOCATER V4.66.87.0                                                        05/30/2018  17:25:18  PAGE 158


      010065E5H   LINE      CODE     ---       #525
      010065EBH   LINE      CODE     ---       #526
      010065F1H   LINE      CODE     ---       #527
      ---         BLOCKEND  ---      ---       LVL=0

      ---         MODULE    ---      ---       SERIAL_HUB
      010069CEH   PUBLIC    CODE     ---       serial_hub_initialize
      010070A8H   PUBLIC    CODE     ---       _serial_test_ctl_bit
      00000020H.2 PUBLIC    BIT      BIT       ?_serial_set_ctl_bit?BIT
      01006F2EH   PUBLIC    CODE     ---       _serial_set_ctl_bit
      01007E5FH   PUBLIC    CODE     ---       serial_ctl_out
      010013FCH   PUBLIC    CODE     ---       serial_dump
      00000080H   SFRSYM    DATA     BYTE      P0
      00000090H   SFRSYM    DATA     BYTE      P1
      000000A0H   SFRSYM    DATA     BYTE      P2
      000000B0H   SFRSYM    DATA     BYTE      P3
      000000C0H   SFRSYM    DATA     BYTE      XICON
      000000B0H.4 SFRSYM    DATA     BIT       T0
      000000D0H.6 SFRSYM    DATA     BIT       AC
      000000E8H   SFRSYM    DATA     BYTE      P4
      000000B0H.5 SFRSYM    DATA     BIT       T1
      000000E6H   SFRSYM    DATA     BYTE      ISP_TRIG
      00000090H.0 SFRSYM    DATA     BIT       T2
      000000A8H.7 SFRSYM    DATA     BIT       EA
      000000A8H.6 SFRSYM    DATA     BIT       EC
      00000098H.7 SFRSYM    DATA     BIT       FE
      000000A8H   SFRSYM    DATA     BYTE      IE
      000000C8H.6 SFRSYM    DATA     BIT       EXF2
      000000B0H.7 SFRSYM    DATA     BIT       RD
      000000A8H.4 SFRSYM    DATA     BIT       ES
      000000B8H   SFRSYM    DATA     BYTE      IP
      00000098H.0 SFRSYM    DATA     BIT       RI
      000000B0H.2 SFRSYM    DATA     BIT       INT0
      000000D0H.7 SFRSYM    DATA     BIT       CY
      00000098H.1 SFRSYM    DATA     BIT       TI
      000000B0H.3 SFRSYM    DATA     BIT       INT1
      000000CBH   SFRSYM    DATA     BYTE      RCAP2H
      000000E5H   SFRSYM    DATA     BYTE      ISP_CMD
      000000B8H.4 SFRSYM    DATA     BIT       PS
      00000081H   SFRSYM    DATA     BYTE      SP
      00000090H.1 SFRSYM    DATA     BIT       T2EX
      000000D0H.2 SFRSYM    DATA     BIT       OV
      000000CAH   SFRSYM    DATA     BYTE      RCAP2L
      000000C8H.1 SFRSYM    DATA     BIT       C_T2
      000000B0H.6 SFRSYM    DATA     BIT       WR
      000000C8H.5 SFRSYM    DATA     BIT       RCLK
      000000C8H.4 SFRSYM    DATA     BIT       TCLK
      00000080H.0 SFRSYM    DATA     BIT       P00
      00000099H   SFRSYM    DATA     BYTE      SBUF
      00000087H   SFRSYM    DATA     BYTE      PCON
      00000090H.0 SFRSYM    DATA     BIT       P10
      00000080H.1 SFRSYM    DATA     BIT       P01
      000000A0H.0 SFRSYM    DATA     BIT       P20
      00000090H.1 SFRSYM    DATA     BIT       P11
      00000080H.2 SFRSYM    DATA     BIT       P02
      000000E3H   SFRSYM    DATA     BYTE      ISP_ADDRH
      000000B0H.0 SFRSYM    DATA     BIT       P30
      000000A0H.1 SFRSYM    DATA     BIT       P21
      00000090H.2 SFRSYM    DATA     BIT       P12
      00000080H.3 SFRSYM    DATA     BIT       P03
      00000098H   SFRSYM    DATA     BYTE      SCON
      000000B0H.1 SFRSYM    DATA     BIT       P31
      000000A0H.2 SFRSYM    DATA     BIT       P22
      00000090H.3 SFRSYM    DATA     BIT       P13
      00000080H.4 SFRSYM    DATA     BIT       P04
LX51 LINKER/LOCATER V4.66.87.0                                                        05/30/2018  17:25:18  PAGE 159


      000000E8H.0 SFRSYM    DATA     BIT       P40
      00000089H   SFRSYM    DATA     BYTE      TMOD
      00000088H   SFRSYM    DATA     BYTE      TCON
      000000B0H.2 SFRSYM    DATA     BIT       P32
      000000A0H.3 SFRSYM    DATA     BIT       P23
      00000090H.4 SFRSYM    DATA     BIT       P14
      00000080H.5 SFRSYM    DATA     BIT       P05
      000000E8H.1 SFRSYM    DATA     BIT       P41
      000000B0H.3 SFRSYM    DATA     BIT       P33
      000000A0H.4 SFRSYM    DATA     BIT       P24
      00000090H.5 SFRSYM    DATA     BIT       P15
      00000080H.6 SFRSYM    DATA     BIT       P06
      000000E4H   SFRSYM    DATA     BYTE      ISP_ADDRL
      000000E8H.2 SFRSYM    DATA     BIT       P42
      000000B0H.4 SFRSYM    DATA     BIT       P34
      000000A0H.5 SFRSYM    DATA     BIT       P25
      00000090H.6 SFRSYM    DATA     BIT       P16
      00000080H.7 SFRSYM    DATA     BIT       P07
      000000E8H.3 SFRSYM    DATA     BIT       P43
      000000B0H.5 SFRSYM    DATA     BIT       P35
      000000A0H.6 SFRSYM    DATA     BIT       P26
      00000090H.7 SFRSYM    DATA     BIT       P17
      000000E8H.4 SFRSYM    DATA     BIT       P44
      000000B0H.6 SFRSYM    DATA     BIT       P36
      000000A0H.7 SFRSYM    DATA     BIT       P27
      000000E8H.5 SFRSYM    DATA     BIT       P45
      000000B0H.7 SFRSYM    DATA     BIT       P37
      000000E8H.6 SFRSYM    DATA     BIT       P46
      00000088H.1 SFRSYM    DATA     BIT       IE0
      00000088H.3 SFRSYM    DATA     BIT       IE1
      0000008EH   SFRSYM    DATA     BYTE      AUXR
      000000F0H   SFRSYM    DATA     BYTE      B
      000000C8H.0 SFRSYM    DATA     BIT       CP_RL2
      000000E0H   SFRSYM    DATA     BYTE      ACC
      000000A8H.1 SFRSYM    DATA     BIT       ET0
      000000A8H.3 SFRSYM    DATA     BIT       ET1
      00000088H.5 SFRSYM    DATA     BIT       TF0
      000000A8H.5 SFRSYM    DATA     BIT       ET2
      00000088H.7 SFRSYM    DATA     BIT       TF1
      000000C8H.7 SFRSYM    DATA     BIT       TF2
      00000098H.2 SFRSYM    DATA     BIT       RB8
      0000008CH   SFRSYM    DATA     BYTE      TH0
      000000A8H.0 SFRSYM    DATA     BIT       EX0
      00000088H.0 SFRSYM    DATA     BIT       IT0
      0000008DH   SFRSYM    DATA     BYTE      TH1
      00000098H.3 SFRSYM    DATA     BIT       TB8
      000000A8H.2 SFRSYM    DATA     BIT       EX1
      00000088H.2 SFRSYM    DATA     BIT       IT1
      000000CDH   SFRSYM    DATA     BYTE      TH2
      000000D0H.0 SFRSYM    DATA     BIT       P
      00000098H.7 SFRSYM    DATA     BIT       SM0
      0000008AH   SFRSYM    DATA     BYTE      TL0
      00000098H.6 SFRSYM    DATA     BIT       SM1
      0000008BH   SFRSYM    DATA     BYTE      TL1
      00000098H.5 SFRSYM    DATA     BIT       SM2
      000000CCH   SFRSYM    DATA     BYTE      TL2
      000000B8H.1 SFRSYM    DATA     BIT       PT0
      000000B8H.3 SFRSYM    DATA     BIT       PT1
      000000D0H.3 SFRSYM    DATA     BIT       RS0
      000000E7H   SFRSYM    DATA     BYTE      ISP_CONTR
      000000B8H.5 SFRSYM    DATA     BIT       PT2
      00000088H.4 SFRSYM    DATA     BIT       TR0
      000000D0H.4 SFRSYM    DATA     BIT       RS1
      00000088H.6 SFRSYM    DATA     BIT       TR1
      000000C8H.2 SFRSYM    DATA     BIT       TR2
LX51 LINKER/LOCATER V4.66.87.0                                                        05/30/2018  17:25:18  PAGE 160


      000000B8H.0 SFRSYM    DATA     BIT       PX0
      000000E1H   SFRSYM    DATA     BYTE      WDT_CONTR
      000000B8H.2 SFRSYM    DATA     BIT       PX1
      00000083H   SFRSYM    DATA     BYTE      DPH
      00000082H   SFRSYM    DATA     BYTE      DPL
      000000B7H   SFRSYM    DATA     BYTE      IPH
      000000C8H.3 SFRSYM    DATA     BIT       EXEN2
      00000098H.4 SFRSYM    DATA     BIT       REN
      000000C9H   SFRSYM    DATA     BYTE      T2MOD
      000000C8H   SFRSYM    DATA     BYTE      T2CON
      000000E2H   SFRSYM    DATA     BYTE      ISP_DATA
      000000B9H   SFRSYM    DATA     BYTE      SADEN
      000000B0H.0 SFRSYM    DATA     BIT       RXD
      000000A9H   SFRSYM    DATA     BYTE      SADDR
      000000B0H.1 SFRSYM    DATA     BIT       TXD
      000000A2H   SFRSYM    DATA     BYTE      AUXR1
      000000D0H.5 SFRSYM    DATA     BIT       F0
      000000D0H   SFRSYM    DATA     BYTE      PSW
      020000E2H   SYMBOL    XDATA    ---       ctl_buffer

      01007F7DH   BLOCK     CODE     ---       LVL=0
      ---         BLOCKEND  ---      ---       LVL=0

      010013FCH   BLOCK     CODE     ---       LVL=0
      010013FCH   LINE      CODE     ---       #15
      010013FCH   LINE      CODE     ---       #16
      010013FCH   LINE      CODE     ---       #17
      01001405H   LINE      CODE     ---       #18
      0100141EH   LINE      CODE     ---       #19
      01001436H   LINE      CODE     ---       #20
      0100144EH   LINE      CODE     ---       #21
      01001466H   LINE      CODE     ---       #22
      0100147EH   LINE      CODE     ---       #23
      01001496H   LINE      CODE     ---       #24
      010014AEH   LINE      CODE     ---       #25
      010014C6H   LINE      CODE     ---       #26
      010014DEH   LINE      CODE     ---       #27
      010014F6H   LINE      CODE     ---       #28
      0100150EH   LINE      CODE     ---       #29
      01001526H   LINE      CODE     ---       #30
      0100153EH   LINE      CODE     ---       #31
      01001556H   LINE      CODE     ---       #32
      0100156EH   LINE      CODE     ---       #33
      01001586H   LINE      CODE     ---       #34
      010015A2H   LINE      CODE     ---       #35
      010015ABH   LINE      CODE     ---       #36
      ---         BLOCKEND  ---      ---       LVL=0

      01007E5FH   BLOCK     CODE     ---       LVL=0
      01007E5FH   LINE      CODE     ---       #38
      01007E5FH   LINE      CODE     ---       #39
      01007E5FH   LINE      CODE     ---       #40
      01007E6BH   LINE      CODE     ---       #41
      01007E77H   LINE      CODE     ---       #43
      ---         BLOCKEND  ---      ---       LVL=0

      01006F2EH   BLOCK     CODE     ---       LVL=0
      00000007H   SYMBOL    DATA     BYTE      index
      00000020H.2 SYMBOL    BIT      BIT       what
      01006F2EH   LINE      CODE     ---       #46
      01006F2EH   LINE      CODE     ---       #47
      01006F2EH   LINE      CODE     ---       #48
      01006F34H   LINE      CODE     ---       #51
      01006F54H   LINE      CODE     ---       #52
      01006F57H   LINE      CODE     ---       #53
LX51 LINKER/LOCATER V4.66.87.0                                                        05/30/2018  17:25:18  PAGE 161


      01006F5DH   LINE      CODE     ---       #54
      ---         BLOCKEND  ---      ---       LVL=0

      010070A8H   BLOCK     CODE     ---       LVL=0
      00000007H   SYMBOL    DATA     BYTE      index
      010070A8H   LINE      CODE     ---       #56
      010070A8H   LINE      CODE     ---       #57
      010070A8H   LINE      CODE     ---       #58
      010070AEH   LINE      CODE     ---       #59
      010070AFH   LINE      CODE     ---       #61
      010070D5H   LINE      CODE     ---       #62
      ---         BLOCKEND  ---      ---       LVL=0

      010069CEH   BLOCK     CODE     ---       LVL=0
      010069CEH   LINE      CODE     ---       #65
      010069CEH   LINE      CODE     ---       #66
      010069CEH   LINE      CODE     ---       #67
      010069D7H   LINE      CODE     ---       #69
      010069E1H   LINE      CODE     ---       #72
      010069EAH   LINE      CODE     ---       #75
      010069F3H   LINE      CODE     ---       #78
      010069FCH   LINE      CODE     ---       #81
      01006A05H   LINE      CODE     ---       #83
      ---         BLOCKEND  ---      ---       LVL=0

      ---         MODULE    ---      ---       THERMO
      01008ABDH   PUBLIC    CODE     ---       thermo_leave_powersave
      01008AB4H   PUBLIC    CODE     ---       thermo_enter_powersave
      0100827BH   PUBLIC    CODE     ---       _thermo_proc
      01008B32H   PUBLIC    CODE     ---       thermo_lo_threshold_reset
      01008B2AH   PUBLIC    CODE     ---       thermo_hi_threshold_reset
      00000020H.1 PUBLIC    BIT      BIT       ?thermo_enable?BIT
      01008A05H   PUBLIC    CODE     ---       thermo_enable
      010088EEH   PUBLIC    CODE     ---       thermo_lo_threshold_reach_top
      0100898BH   PUBLIC    CODE     ---       thermo_lo_threshold_reach_bottom
      010088E2H   PUBLIC    CODE     ---       thermo_hi_threshold_reach_top
      01008980H   PUBLIC    CODE     ---       thermo_hi_threshold_reach_bottom
      01006637H   PUBLIC    CODE     ---       _thermo_threshold_inc
      010085A3H   PUBLIC    CODE     ---       thermo_lo_threshold_inc
      01008591H   PUBLIC    CODE     ---       thermo_lo_threshold_dec
      0100857FH   PUBLIC    CODE     ---       thermo_hi_threshold_inc
      0100856DH   PUBLIC    CODE     ---       thermo_hi_threshold_dec
      01005285H   PUBLIC    CODE     ---       _thermo_lo_threshold_set
      010057E4H   PUBLIC    CODE     ---       _thermo_hi_threshold_set
      010077E5H   PUBLIC    CODE     ---       thermo_lo_threshold_get
      010078F8H   PUBLIC    CODE     ---       thermo_hi_threshold_get
      01006E3BH   PUBLIC    CODE     ---       thermo_get_current
      010050D9H   PUBLIC    CODE     ---       scan_thermo
      010088D6H   PUBLIC    CODE     ---       thermo_initialize
      020000E4H   SYMBOL    XDATA    CHAR      thermo_threshold_lo
      010076EBH   SYMBOL    CODE     ---       _thermo_hex_to_temp
      010064A7H   SYMBOL    CODE     ---       _thermo_temp_to_hex
      01006221H   SYMBOL    CODE     ---       thermo_power_off
      01005BC4H   SYMBOL    CODE     ---       thermo_power_on
      0100682FH   SYMBOL    CODE     ---       thermo_load_config
      020000E5H   SYMBOL    XDATA    CHAR      thermo_threshold_hi

      01005CC9H   BLOCK     CODE     ---       LVL=0
      ---         BLOCKEND  ---      ---       LVL=0

      0100682FH   BLOCK     CODE     ---       LVL=0
      0100682FH   LINE      CODE     ---       #35
      0100682FH   LINE      CODE     ---       #36
      0100682FH   LINE      CODE     ---       #37
      01006838H   LINE      CODE     ---       #39
LX51 LINKER/LOCATER V4.66.87.0                                                        05/30/2018  17:25:18  PAGE 162


      01006842H   LINE      CODE     ---       #40
      0100684CH   LINE      CODE     ---       #41
      0100685BH   LINE      CODE     ---       #42
      ---         BLOCKEND  ---      ---       LVL=0

      01006221H   BLOCK     CODE     ---       LVL=0
      01006221H   BLOCK     CODE     NEAR LAB  LVL=1
      02000015H   SYMBOL    XDATA    BYTE      val
      ---         BLOCKEND  ---      ---       LVL=1
      01006221H   LINE      CODE     ---       #45
      01006221H   LINE      CODE     ---       #46
      01006221H   LINE      CODE     ---       #49
      01006224H   LINE      CODE     ---       #56
      01006229H   LINE      CODE     ---       #59
      01006232H   LINE      CODE     ---       #62
      01006235H   LINE      CODE     ---       #63
      01006238H   LINE      CODE     ---       #66
      0100623DH   LINE      CODE     ---       #67
      01006246H   LINE      CODE     ---       #71
      0100624FH   LINE      CODE     ---       #74
      01006258H   LINE      CODE     ---       #77
      01006262H   LINE      CODE     ---       #92
      ---         BLOCKEND  ---      ---       LVL=0

      010088D6H   BLOCK     CODE     ---       LVL=0
      010088D6H   LINE      CODE     ---       #95
      010088D6H   LINE      CODE     ---       #96
      010088D6H   LINE      CODE     ---       #97
      010088DFH   LINE      CODE     ---       #98
      ---         BLOCKEND  ---      ---       LVL=0

      01005BC4H   BLOCK     CODE     ---       LVL=0
      01005BC4H   BLOCK     CODE     NEAR LAB  LVL=1
      02000015H   SYMBOL    XDATA    BYTE      val
      ---         BLOCKEND  ---      ---       LVL=1
      01005BC4H   LINE      CODE     ---       #101
      01005BC4H   LINE      CODE     ---       #102
      01005BC4H   LINE      CODE     ---       #105
      01005BC7H   LINE      CODE     ---       #111
      01005BCCH   LINE      CODE     ---       #114
      01005BD5H   LINE      CODE     ---       #117
      01005BD8H   LINE      CODE     ---       #118
      01005BDBH   LINE      CODE     ---       #121
      01005BE0H   LINE      CODE     ---       #122
      01005BE9H   LINE      CODE     ---       #124
      01005BEEH   LINE      CODE     ---       #128
      01005BF7H   LINE      CODE     ---       #131
      01005C00H   LINE      CODE     ---       #134
      01005C0AH   LINE      CODE     ---       #136
      01005C13H   LINE      CODE     ---       #156
      ---         BLOCKEND  ---      ---       LVL=0

      010050D9H   BLOCK     CODE     ---       LVL=0
      010050D9H   BLOCK     CODE     NEAR LAB  LVL=1
      02000016H   SYMBOL    XDATA    BYTE      val
      02000017H   SYMBOL    XDATA    CHAR      hi
      02000018H   SYMBOL    XDATA    CHAR      lo
      02000019H   SYMBOL    XDATA    CHAR      current
      00000020H.0 SYMBOL    BIT      BIT       has_event
      ---         BLOCKEND  ---      ---       LVL=1
      010050D9H   LINE      CODE     ---       #158
      010050D9H   LINE      CODE     ---       #159
      010050D9H   LINE      CODE     ---       #163
      010050DBH   LINE      CODE     ---       #166
      010050DBH   LINE      CODE     ---       #167
LX51 LINKER/LOCATER V4.66.87.0                                                        05/30/2018  17:25:18  PAGE 163


      010050DBH   LINE      CODE     ---       #168
      010050DBH   LINE      CODE     ---       #169
      010050E4H   LINE      CODE     ---       #172
      010050F1H   LINE      CODE     ---       #173
      010050FAH   LINE      CODE     ---       #175
      01005109H   LINE      CODE     ---       #176
      01005112H   LINE      CODE     ---       #177
      01005117H   LINE      CODE     ---       #178
      01005117H   LINE      CODE     ---       #179
      01005128H   LINE      CODE     ---       #180
      01005131H   LINE      CODE     ---       #181
      01005137H   LINE      CODE     ---       #182
      01005139H   LINE      CODE     ---       #183
      01005139H   LINE      CODE     ---       #202
      01005141H   LINE      CODE     ---       #203
      01005144H   LINE      CODE     ---       #204
      01005144H   LINE      CODE     ---       #205
      ---         BLOCKEND  ---      ---       LVL=0

      010064A7H   BLOCK     CODE     ---       LVL=0
      00000005H   SYMBOL    DATA     CHAR      temp
      010064A9H   BLOCK     CODE     NEAR LAB  LVL=1
      02000019H   SYMBOL    XDATA    WORD      ret
      ---         BLOCKEND  ---      ---       LVL=1
      010064A7H   LINE      CODE     ---       #207
      010064A9H   LINE      CODE     ---       #208
      010064A9H   LINE      CODE     ---       #209
      010064B4H   LINE      CODE     ---       #210
      010064BCH   LINE      CODE     ---       #211
      010064C5H   LINE      CODE     ---       #212
      010064E2H   LINE      CODE     ---       #213
      010064EAH   LINE      CODE     ---       #214
      ---         BLOCKEND  ---      ---       LVL=0

      010076EBH   BLOCK     CODE     ---       LVL=0
      00000004H   SYMBOL    DATA     WORD      val
      010076EFH   BLOCK     CODE     NEAR LAB  LVL=1
      02000017H   SYMBOL    XDATA    CHAR      temp
      ---         BLOCKEND  ---      ---       LVL=1
      010076EBH   LINE      CODE     ---       #216
      010076EFH   LINE      CODE     ---       #217
      010076EFH   LINE      CODE     ---       #219
      010076F4H   LINE      CODE     ---       #220
      01007709H   LINE      CODE     ---       #221
      0100770EH   LINE      CODE     ---       #222
      ---         BLOCKEND  ---      ---       LVL=0

      01006E3BH   BLOCK     CODE     ---       LVL=0
      01006E3BH   BLOCK     CODE     NEAR LAB  LVL=1
      0200000BH   SYMBOL    XDATA    WORD      val
      0200000DH   SYMBOL    XDATA    BYTE      tmp
      ---         BLOCKEND  ---      ---       LVL=1
      01006E3BH   LINE      CODE     ---       #225
      01006E3BH   LINE      CODE     ---       #226
      01006E3BH   LINE      CODE     ---       #230
      01006E3BH   LINE      CODE     ---       #231
      01006E49H   LINE      CODE     ---       #232
      01006E61H   LINE      CODE     ---       #234
      ---         BLOCKEND  ---      ---       LVL=0

      010078F8H   BLOCK     CODE     ---       LVL=0
      010078F8H   BLOCK     CODE     NEAR LAB  LVL=1
      02000015H   SYMBOL    XDATA    WORD      val
      00000007H   SYMBOL    DATA     CHAR      ret
      ---         BLOCKEND  ---      ---       LVL=1
LX51 LINKER/LOCATER V4.66.87.0                                                        05/30/2018  17:25:18  PAGE 164


      010078F8H   LINE      CODE     ---       #250
      010078F8H   LINE      CODE     ---       #251
      010078F8H   LINE      CODE     ---       #255
      01007906H   LINE      CODE     ---       #259
      01007911H   LINE      CODE     ---       #260
      01007915H   LINE      CODE     ---       #261
      01007918H   LINE      CODE     ---       #263
      01007918H   LINE      CODE     ---       #264
      ---         BLOCKEND  ---      ---       LVL=0

      010077E5H   BLOCK     CODE     ---       LVL=0
      010077E5H   BLOCK     CODE     NEAR LAB  LVL=1
      02000015H   SYMBOL    XDATA    WORD      val
      00000007H   SYMBOL    DATA     CHAR      ret
      ---         BLOCKEND  ---      ---       LVL=1
      010077E5H   LINE      CODE     ---       #266
      010077E5H   LINE      CODE     ---       #267
      010077E5H   LINE      CODE     ---       #271
      010077F5H   LINE      CODE     ---       #275
      01007800H   LINE      CODE     ---       #276
      01007804H   LINE      CODE     ---       #277
      01007807H   LINE      CODE     ---       #279
      01007807H   LINE      CODE     ---       #280
      ---         BLOCKEND  ---      ---       LVL=0

      010057E4H   BLOCK     CODE     ---       LVL=0
      02000016H   SYMBOL    XDATA    CHAR      temp
      010057E9H   BLOCK     CODE     NEAR LAB  LVL=1
      02000017H   SYMBOL    XDATA    WORD      val
      ---         BLOCKEND  ---      ---       LVL=1
      010057E4H   LINE      CODE     ---       #283
      010057E9H   LINE      CODE     ---       #284
      010057E9H   LINE      CODE     ---       #286
      010057F3H   LINE      CODE     ---       #288
      010057FBH   LINE      CODE     ---       #289
      01005800H   LINE      CODE     ---       #290
      01005800H   LINE      CODE     ---       #291
      01005808H   LINE      CODE     ---       #292
      0100580EH   LINE      CODE     ---       #294
      01005819H   LINE      CODE     ---       #295
      0100581CH   LINE      CODE     ---       #296
      0100581CH   LINE      CODE     ---       #297
      0100582CH   LINE      CODE     ---       #299
      01005836H   LINE      CODE     ---       #300
      ---         BLOCKEND  ---      ---       LVL=0

      01005285H   BLOCK     CODE     ---       LVL=0
      02000016H   SYMBOL    XDATA    CHAR      temp
      0100528AH   BLOCK     CODE     NEAR LAB  LVL=1
      02000017H   SYMBOL    XDATA    WORD      val
      ---         BLOCKEND  ---      ---       LVL=1
      01005285H   LINE      CODE     ---       #306
      0100528AH   LINE      CODE     ---       #307
      0100528AH   LINE      CODE     ---       #309
      01005297H   LINE      CODE     ---       #311
      0100529FH   LINE      CODE     ---       #312
      010052A4H   LINE      CODE     ---       #313
      010052A4H   LINE      CODE     ---       #314
      010052ACH   LINE      CODE     ---       #315
      010052B2H   LINE      CODE     ---       #317
      010052BDH   LINE      CODE     ---       #318
      010052C0H   LINE      CODE     ---       #319
      010052C0H   LINE      CODE     ---       #321
      010052D0H   LINE      CODE     ---       #323
      010052DEH   LINE      CODE     ---       #324
LX51 LINKER/LOCATER V4.66.87.0                                                        05/30/2018  17:25:18  PAGE 165


      ---         BLOCKEND  ---      ---       LVL=0

      0100856DH   BLOCK     CODE     ---       LVL=0
      0100856DH   BLOCK     CODE     NEAR LAB  LVL=1
      00000007H   SYMBOL    DATA     CHAR      val
      ---         BLOCKEND  ---      ---       LVL=1
      0100856DH   LINE      CODE     ---       #331
      0100856DH   LINE      CODE     ---       #332
      0100856DH   LINE      CODE     ---       #334
      01008570H   LINE      CODE     ---       #336
      01008575H   LINE      CODE     ---       #339
      0100857AH   LINE      CODE     ---       #340
      0100857BH   LINE      CODE     ---       #341
      0100857EH   LINE      CODE     ---       #342
      0100857EH   LINE      CODE     ---       #343
      ---         BLOCKEND  ---      ---       LVL=0

      0100857FH   BLOCK     CODE     ---       LVL=0
      0100857FH   BLOCK     CODE     NEAR LAB  LVL=1
      00000007H   SYMBOL    DATA     CHAR      val
      ---         BLOCKEND  ---      ---       LVL=1
      0100857FH   LINE      CODE     ---       #345
      0100857FH   LINE      CODE     ---       #346
      0100857FH   LINE      CODE     ---       #348
      01008582H   LINE      CODE     ---       #350
      01008587H   LINE      CODE     ---       #353
      0100858CH   LINE      CODE     ---       #354
      0100858DH   LINE      CODE     ---       #355
      01008590H   LINE      CODE     ---       #356
      01008590H   LINE      CODE     ---       #357
      ---         BLOCKEND  ---      ---       LVL=0

      01008591H   BLOCK     CODE     ---       LVL=0
      01008591H   BLOCK     CODE     NEAR LAB  LVL=1
      00000007H   SYMBOL    DATA     CHAR      val
      ---         BLOCKEND  ---      ---       LVL=1
      01008591H   LINE      CODE     ---       #359
      01008591H   LINE      CODE     ---       #360
      01008591H   LINE      CODE     ---       #362
      01008594H   LINE      CODE     ---       #364
      01008599H   LINE      CODE     ---       #367
      0100859EH   LINE      CODE     ---       #368
      0100859FH   LINE      CODE     ---       #369
      010085A2H   LINE      CODE     ---       #370
      010085A2H   LINE      CODE     ---       #371
      ---         BLOCKEND  ---      ---       LVL=0

      010085A3H   BLOCK     CODE     ---       LVL=0
      010085A3H   BLOCK     CODE     NEAR LAB  LVL=1
      00000007H   SYMBOL    DATA     CHAR      val
      ---         BLOCKEND  ---      ---       LVL=1
      010085A3H   LINE      CODE     ---       #373
      010085A3H   LINE      CODE     ---       #374
      010085A3H   LINE      CODE     ---       #376
      010085A6H   LINE      CODE     ---       #378
      010085ABH   LINE      CODE     ---       #381
      010085B0H   LINE      CODE     ---       #382
      010085B1H   LINE      CODE     ---       #383
      010085B4H   LINE      CODE     ---       #384
      010085B4H   LINE      CODE     ---       #385
      ---         BLOCKEND  ---      ---       LVL=0

      01006637H   BLOCK     CODE     ---       LVL=0
      00000007H   SYMBOL    DATA     BYTE      thres
      01006637H   BLOCK     CODE     NEAR LAB  LVL=1
LX51 LINKER/LOCATER V4.66.87.0                                                        05/30/2018  17:25:18  PAGE 166


      00000006H   SYMBOL    DATA     CHAR      value
      02000016H   SYMBOL    XDATA    BYTE      ret
      ---         BLOCKEND  ---      ---       LVL=1
      01006637H   LINE      CODE     ---       #387
      01006637H   LINE      CODE     ---       #388
      01006637H   LINE      CODE     ---       #391
      0100663CH   LINE      CODE     ---       #392
      0100663EH   LINE      CODE     ---       #393
      01006646H   LINE      CODE     ---       #394
      01006647H   LINE      CODE     ---       #395
      0100664CH   LINE      CODE     ---       #396
      0100664EH   LINE      CODE     ---       #397
      01006654H   LINE      CODE     ---       #398
      01006654H   LINE      CODE     ---       #399
      01006656H   LINE      CODE     ---       #400
      0100665CH   LINE      CODE     ---       #401
      0100665CH   LINE      CODE     ---       #402
      01006672H   LINE      CODE     ---       #403
      01006677H   LINE      CODE     ---       #404
      ---         BLOCKEND  ---      ---       LVL=0

      01008980H   BLOCK     CODE     ---       LVL=0
      01008980H   LINE      CODE     ---       #406
      01008980H   LINE      CODE     ---       #407
      01008980H   LINE      CODE     ---       #408
      0100898AH   LINE      CODE     ---       #409
      ---         BLOCKEND  ---      ---       LVL=0

      010088E2H   BLOCK     CODE     ---       LVL=0
      010088E2H   LINE      CODE     ---       #411
      010088E2H   LINE      CODE     ---       #412
      010088E2H   LINE      CODE     ---       #413
      010088EDH   LINE      CODE     ---       #414
      ---         BLOCKEND  ---      ---       LVL=0

      0100898BH   BLOCK     CODE     ---       LVL=0
      0100898BH   LINE      CODE     ---       #416
      0100898BH   LINE      CODE     ---       #417
      0100898BH   LINE      CODE     ---       #418
      01008995H   LINE      CODE     ---       #419
      ---         BLOCKEND  ---      ---       LVL=0

      010088EEH   BLOCK     CODE     ---       LVL=0
      010088EEH   LINE      CODE     ---       #421
      010088EEH   LINE      CODE     ---       #422
      010088EEH   LINE      CODE     ---       #423
      010088F9H   LINE      CODE     ---       #424
      ---         BLOCKEND  ---      ---       LVL=0

      01008A05H   BLOCK     CODE     ---       LVL=0
      00000020H.1 SYMBOL    BIT      BIT       enable
      01008A05H   LINE      CODE     ---       #426
      01008A05H   LINE      CODE     ---       #427
      01008A05H   LINE      CODE     ---       #428
      01008A08H   LINE      CODE     ---       #429
      01008A0BH   LINE      CODE     ---       #430
      01008A0BH   LINE      CODE     ---       #431
      01008A0EH   LINE      CODE     ---       #432
      01008A0EH   LINE      CODE     ---       #433
      ---         BLOCKEND  ---      ---       LVL=0

      01008B2AH   BLOCK     CODE     ---       LVL=0
      01008B2AH   LINE      CODE     ---       #435
      01008B2AH   LINE      CODE     ---       #436
      01008B2AH   LINE      CODE     ---       #437
LX51 LINKER/LOCATER V4.66.87.0                                                        05/30/2018  17:25:18  PAGE 167


      ---         BLOCKEND  ---      ---       LVL=0

      01008B32H   BLOCK     CODE     ---       LVL=0
      01008B32H   LINE      CODE     ---       #440
      01008B32H   LINE      CODE     ---       #441
      01008B32H   LINE      CODE     ---       #442
      ---         BLOCKEND  ---      ---       LVL=0

      0100827BH   BLOCK     CODE     ---       LVL=0
      0200000CH   SYMBOL    XDATA    BYTE      ev
      0100827BH   LINE      CODE     ---       #445
      01008280H   LINE      CODE     ---       #446
      01008280H   LINE      CODE     ---       #447
      01008289H   LINE      CODE     ---       #448
      ---         BLOCKEND  ---      ---       LVL=0

      01008AB4H   BLOCK     CODE     ---       LVL=0
      01008AB4H   LINE      CODE     ---       #451
      01008AB4H   LINE      CODE     ---       #452
      01008AB4H   LINE      CODE     ---       #453
      ---         BLOCKEND  ---      ---       LVL=0

      01008ABDH   BLOCK     CODE     ---       LVL=0
      01008ABDH   LINE      CODE     ---       #456
      01008ABDH   LINE      CODE     ---       #457
      01008ABDH   LINE      CODE     ---       #458
      ---         BLOCKEND  ---      ---       LVL=0

      ---         MODULE    ---      ---       ROM
      010067F1H   PUBLIC    CODE     ---       rom_initialize
      01008B3AH   PUBLIC    CODE     ---       rom_is_factory_reset
      01006E6CH   PUBLIC    CODE     ---       _rom_write
      01006CD6H   PUBLIC    CODE     ---       _rom_read
      00000080H   SFRSYM    DATA     BYTE      P0
      00000090H   SFRSYM    DATA     BYTE      P1
      000000A0H   SFRSYM    DATA     BYTE      P2
      000000B0H   SFRSYM    DATA     BYTE      P3
      000000C0H   SFRSYM    DATA     BYTE      XICON
      000000B0H.4 SFRSYM    DATA     BIT       T0
      000000D0H.6 SFRSYM    DATA     BIT       AC
      000000E8H   SFRSYM    DATA     BYTE      P4
      000000B0H.5 SFRSYM    DATA     BIT       T1
      000000E6H   SFRSYM    DATA     BYTE      ISP_TRIG
      00000090H.0 SFRSYM    DATA     BIT       T2
      000000A8H.7 SFRSYM    DATA     BIT       EA
      000000A8H.6 SFRSYM    DATA     BIT       EC
      00000098H.7 SFRSYM    DATA     BIT       FE
      000000A8H   SFRSYM    DATA     BYTE      IE
      000000C8H.6 SFRSYM    DATA     BIT       EXF2
      000000B0H.7 SFRSYM    DATA     BIT       RD
      000000A8H.4 SFRSYM    DATA     BIT       ES
      000000B8H   SFRSYM    DATA     BYTE      IP
      00000098H.0 SFRSYM    DATA     BIT       RI
      000000B0H.2 SFRSYM    DATA     BIT       INT0
      000000D0H.7 SFRSYM    DATA     BIT       CY
      00000098H.1 SFRSYM    DATA     BIT       TI
      000000B0H.3 SFRSYM    DATA     BIT       INT1
      000000CBH   SFRSYM    DATA     BYTE      RCAP2H
      000000E5H   SFRSYM    DATA     BYTE      ISP_CMD
      000000B8H.4 SFRSYM    DATA     BIT       PS
      00000081H   SFRSYM    DATA     BYTE      SP
      00000090H.1 SFRSYM    DATA     BIT       T2EX
      000000D0H.2 SFRSYM    DATA     BIT       OV
      000000CAH   SFRSYM    DATA     BYTE      RCAP2L
      000000C8H.1 SFRSYM    DATA     BIT       C_T2
LX51 LINKER/LOCATER V4.66.87.0                                                        05/30/2018  17:25:18  PAGE 168


      000000B0H.6 SFRSYM    DATA     BIT       WR
      000000C8H.5 SFRSYM    DATA     BIT       RCLK
      000000C8H.4 SFRSYM    DATA     BIT       TCLK
      00000080H.0 SFRSYM    DATA     BIT       P00
      00000099H   SFRSYM    DATA     BYTE      SBUF
      00000087H   SFRSYM    DATA     BYTE      PCON
      00000090H.0 SFRSYM    DATA     BIT       P10
      00000080H.1 SFRSYM    DATA     BIT       P01
      000000A0H.0 SFRSYM    DATA     BIT       P20
      00000090H.1 SFRSYM    DATA     BIT       P11
      00000080H.2 SFRSYM    DATA     BIT       P02
      000000E3H   SFRSYM    DATA     BYTE      ISP_ADDRH
      000000B0H.0 SFRSYM    DATA     BIT       P30
      000000A0H.1 SFRSYM    DATA     BIT       P21
      00000090H.2 SFRSYM    DATA     BIT       P12
      00000080H.3 SFRSYM    DATA     BIT       P03
      00000098H   SFRSYM    DATA     BYTE      SCON
      000000B0H.1 SFRSYM    DATA     BIT       P31
      000000A0H.2 SFRSYM    DATA     BIT       P22
      00000090H.3 SFRSYM    DATA     BIT       P13
      00000080H.4 SFRSYM    DATA     BIT       P04
      000000E8H.0 SFRSYM    DATA     BIT       P40
      00000089H   SFRSYM    DATA     BYTE      TMOD
      00000088H   SFRSYM    DATA     BYTE      TCON
      000000B0H.2 SFRSYM    DATA     BIT       P32
      000000A0H.3 SFRSYM    DATA     BIT       P23
      00000090H.4 SFRSYM    DATA     BIT       P14
      00000080H.5 SFRSYM    DATA     BIT       P05
      000000E8H.1 SFRSYM    DATA     BIT       P41
      000000B0H.3 SFRSYM    DATA     BIT       P33
      000000A0H.4 SFRSYM    DATA     BIT       P24
      00000090H.5 SFRSYM    DATA     BIT       P15
      00000080H.6 SFRSYM    DATA     BIT       P06
      000000E4H   SFRSYM    DATA     BYTE      ISP_ADDRL
      000000E8H.2 SFRSYM    DATA     BIT       P42
      000000B0H.4 SFRSYM    DATA     BIT       P34
      000000A0H.5 SFRSYM    DATA     BIT       P25
      00000090H.6 SFRSYM    DATA     BIT       P16
      00000080H.7 SFRSYM    DATA     BIT       P07
      000000E8H.3 SFRSYM    DATA     BIT       P43
      000000B0H.5 SFRSYM    DATA     BIT       P35
      000000A0H.6 SFRSYM    DATA     BIT       P26
      00000090H.7 SFRSYM    DATA     BIT       P17
      000000E8H.4 SFRSYM    DATA     BIT       P44
      000000B0H.6 SFRSYM    DATA     BIT       P36
      000000A0H.7 SFRSYM    DATA     BIT       P27
      000000E8H.5 SFRSYM    DATA     BIT       P45
      000000B0H.7 SFRSYM    DATA     BIT       P37
      000000E8H.6 SFRSYM    DATA     BIT       P46
      00000088H.1 SFRSYM    DATA     BIT       IE0
      00000088H.3 SFRSYM    DATA     BIT       IE1
      0000008EH   SFRSYM    DATA     BYTE      AUXR
      000000F0H   SFRSYM    DATA     BYTE      B
      000000C8H.0 SFRSYM    DATA     BIT       CP_RL2
      000000E0H   SFRSYM    DATA     BYTE      ACC
      000000A8H.1 SFRSYM    DATA     BIT       ET0
      000000A8H.3 SFRSYM    DATA     BIT       ET1
      00000088H.5 SFRSYM    DATA     BIT       TF0
      000000A8H.5 SFRSYM    DATA     BIT       ET2
      00000088H.7 SFRSYM    DATA     BIT       TF1
      000000C8H.7 SFRSYM    DATA     BIT       TF2
      00000098H.2 SFRSYM    DATA     BIT       RB8
      0000008CH   SFRSYM    DATA     BYTE      TH0
      000000A8H.0 SFRSYM    DATA     BIT       EX0
      00000088H.0 SFRSYM    DATA     BIT       IT0
LX51 LINKER/LOCATER V4.66.87.0                                                        05/30/2018  17:25:18  PAGE 169


      0000008DH   SFRSYM    DATA     BYTE      TH1
      00000098H.3 SFRSYM    DATA     BIT       TB8
      000000A8H.2 SFRSYM    DATA     BIT       EX1
      00000088H.2 SFRSYM    DATA     BIT       IT1
      000000CDH   SFRSYM    DATA     BYTE      TH2
      000000D0H.0 SFRSYM    DATA     BIT       P
      00000098H.7 SFRSYM    DATA     BIT       SM0
      0000008AH   SFRSYM    DATA     BYTE      TL0
      00000098H.6 SFRSYM    DATA     BIT       SM1
      0000008BH   SFRSYM    DATA     BYTE      TL1
      00000098H.5 SFRSYM    DATA     BIT       SM2
      000000CCH   SFRSYM    DATA     BYTE      TL2
      000000B0H.7 SFRSYM    DATA     BIT       ROM_RESET
      000000B8H.1 SFRSYM    DATA     BIT       PT0
      000000B8H.3 SFRSYM    DATA     BIT       PT1
      000000D0H.3 SFRSYM    DATA     BIT       RS0
      000000E7H   SFRSYM    DATA     BYTE      ISP_CONTR
      000000B8H.5 SFRSYM    DATA     BIT       PT2
      00000088H.4 SFRSYM    DATA     BIT       TR0
      000000D0H.4 SFRSYM    DATA     BIT       RS1
      00000088H.6 SFRSYM    DATA     BIT       TR1
      000000C8H.2 SFRSYM    DATA     BIT       TR2
      000000B8H.0 SFRSYM    DATA     BIT       PX0
      000000E1H   SFRSYM    DATA     BYTE      WDT_CONTR
      000000B8H.2 SFRSYM    DATA     BIT       PX1
      00000083H   SFRSYM    DATA     BYTE      DPH
      00000082H   SFRSYM    DATA     BYTE      DPL
      000000B7H   SFRSYM    DATA     BYTE      IPH
      000000C8H.3 SFRSYM    DATA     BIT       EXEN2
      00000098H.4 SFRSYM    DATA     BIT       REN
      000000C9H   SFRSYM    DATA     BYTE      T2MOD
      000000C8H   SFRSYM    DATA     BYTE      T2CON
      000000E2H   SFRSYM    DATA     BYTE      ISP_DATA
      000000B9H   SFRSYM    DATA     BYTE      SADEN
      000000B0H.0 SFRSYM    DATA     BIT       RXD
      000000A9H   SFRSYM    DATA     BYTE      SADDR
      000000B0H.1 SFRSYM    DATA     BIT       TXD
      000000A2H   SFRSYM    DATA     BYTE      AUXR1
      000000D0H.5 SFRSYM    DATA     BIT       F0
      000000D0H   SFRSYM    DATA     BYTE      PSW
      01003C25H   SYMBOL    CODE     ---       rom_reset
      010049F6H   SYMBOL    CODE     ---       rom_dump

      01006CD6H   BLOCK     CODE     ---       LVL=0
      02000016H   SYMBOL    XDATA    BYTE      addr
      01006CDBH   BLOCK     CODE     NEAR LAB  LVL=1
      02000017H   SYMBOL    XDATA    BYTE      dat
      ---         BLOCKEND  ---      ---       LVL=1
      01006CD6H   LINE      CODE     ---       #11
      01006CDBH   LINE      CODE     ---       #12
      01006CDBH   LINE      CODE     ---       #14
      01006CDEH   LINE      CODE     ---       #15
      01006CEBH   LINE      CODE     ---       #16
      01006D04H   LINE      CODE     ---       #17
      01006D09H   LINE      CODE     ---       #18
      ---         BLOCKEND  ---      ---       LVL=0

      01006E6CH   BLOCK     CODE     ---       LVL=0
      02000017H   SYMBOL    XDATA    BYTE      addr
      02000018H   SYMBOL    XDATA    BYTE      val
      01006E6CH   LINE      CODE     ---       #20
      01006E74H   LINE      CODE     ---       #21
      01006E74H   LINE      CODE     ---       #22
      01006E77H   LINE      CODE     ---       #23
      01006E84H   LINE      CODE     ---       #24
LX51 LINKER/LOCATER V4.66.87.0                                                        05/30/2018  17:25:18  PAGE 170


      ---         BLOCKEND  ---      ---       LVL=0

      010049F6H   BLOCK     CODE     ---       LVL=0
      010049F6H   LINE      CODE     ---       #27
      010049F6H   LINE      CODE     ---       #28
      010049F6H   LINE      CODE     ---       #29
      010049FBH   LINE      CODE     ---       #30
      01004A00H   LINE      CODE     ---       #31
      01004A05H   LINE      CODE     ---       #32
      01004A0AH   LINE      CODE     ---       #34
      01004A0FH   LINE      CODE     ---       #35
      01004A14H   LINE      CODE     ---       #36
      01004A19H   LINE      CODE     ---       #37
      01004A1EH   LINE      CODE     ---       #38
      01004A23H   LINE      CODE     ---       #40
      01004A28H   LINE      CODE     ---       #41
      01004A2DH   LINE      CODE     ---       #42
      01004A32H   LINE      CODE     ---       #43
      01004A37H   LINE      CODE     ---       #45
      01004A3CH   LINE      CODE     ---       #46
      01004A41H   LINE      CODE     ---       #47
      01004A46H   LINE      CODE     ---       #48
      01004A4BH   LINE      CODE     ---       #49
      01004A50H   LINE      CODE     ---       #50
      01004A55H   LINE      CODE     ---       #52
      01004A5AH   LINE      CODE     ---       #53
      01004A5FH   LINE      CODE     ---       #54
      01004A64H   LINE      CODE     ---       #55
      01004A69H   LINE      CODE     ---       #56
      01004A6EH   LINE      CODE     ---       #57
      ---         BLOCKEND  ---      ---       LVL=0

      01003C25H   BLOCK     CODE     ---       LVL=0
      01003C25H   LINE      CODE     ---       #60
      01003C25H   LINE      CODE     ---       #61
      01003C25H   LINE      CODE     ---       #62
      01003C2CH   LINE      CODE     ---       #63
      01003C33H   LINE      CODE     ---       #64
      01003C3AH   LINE      CODE     ---       #65
      01003C3CH   LINE      CODE     ---       #67
      01003C44H   LINE      CODE     ---       #68
      01003C4BH   LINE      CODE     ---       #69
      01003C52H   LINE      CODE     ---       #70
      01003C59H   LINE      CODE     ---       #73
      01003C5BH   LINE      CODE     ---       #75
      01003C63H   LINE      CODE     ---       #76
      01003C6AH   LINE      CODE     ---       #77
      01003C71H   LINE      CODE     ---       #78
      01003C78H   LINE      CODE     ---       #80
      01003C7FH   LINE      CODE     ---       #81
      01003C86H   LINE      CODE     ---       #82
      01003C8DH   LINE      CODE     ---       #83
      01003C94H   LINE      CODE     ---       #84
      01003C9BH   LINE      CODE     ---       #85
      01003CA2H   LINE      CODE     ---       #87
      01003CA9H   LINE      CODE     ---       #88
      01003CB0H   LINE      CODE     ---       #89
      01003CB7H   LINE      CODE     ---       #90
      01003CBEH   LINE      CODE     ---       #91
      01003CC5H   LINE      CODE     ---       #92
      01003CCCH   LINE      CODE     ---       #93
      ---         BLOCKEND  ---      ---       LVL=0

      01008B3AH   BLOCK     CODE     ---       LVL=0
      01008B3AH   LINE      CODE     ---       #95
LX51 LINKER/LOCATER V4.66.87.0                                                        05/30/2018  17:25:18  PAGE 171


      01008B3AH   LINE      CODE     ---       #96
      01008B3AH   LINE      CODE     ---       #97
      01008B41H   LINE      CODE     ---       #98
      ---         BLOCKEND  ---      ---       LVL=0

      010067F1H   BLOCK     CODE     ---       LVL=0
      010067F1H   LINE      CODE     ---       #100
      010067F1H   LINE      CODE     ---       #101
      010067F1H   LINE      CODE     ---       #102
      0100681BH   LINE      CODE     ---       #103
      01006820H   LINE      CODE     ---       #104
      01006829H   LINE      CODE     ---       #105
      0100682CH   LINE      CODE     ---       #106
      0100682CH   LINE      CODE     ---       #108
      ---         BLOCKEND  ---      ---       LVL=0

      ---         MODULE    ---      ---       DELAY_TASK
      01005F14H   PUBLIC    CODE     ---       delay_task_call
      0100626AH   PUBLIC    CODE     ---       _delay_task_reg
      01008AC6H   PUBLIC    CODE     ---       delay_task_initialize
      020000C9H   SYMBOL    XDATA    ---       delay_tasks
      020000CCH   SYMBOL    XDATA    ---       task

      010079BCH   BLOCK     CODE     ---       LVL=0
      ---         BLOCKEND  ---      ---       LVL=0

      01008AC6H   BLOCK     CODE     ---       LVL=0
      01008AC6H   LINE      CODE     ---       #9
      01008AC6H   LINE      CODE     ---       #10
      01008AC6H   LINE      CODE     ---       #11
      ---         BLOCKEND  ---      ---       LVL=0

      0100626AH   BLOCK     CODE     ---       LVL=0
      02000015H   SYMBOL    XDATA    BYTE      index
      02000016H   SYMBOL    XDATA    ---       task
      02000018H   SYMBOL    XDATA    BYTE      delay_sec
      0100626AH   LINE      CODE     ---       #14
      0100627DH   LINE      CODE     ---       #15
      0100627DH   LINE      CODE     ---       #16
      0100628EH   LINE      CODE     ---       #17
      01006298H   LINE      CODE     ---       #19
      01006298H   LINE      CODE     ---       #21
      010062A7H   LINE      CODE     ---       #22
      010062B2H   LINE      CODE     ---       #23
      ---         BLOCKEND  ---      ---       LVL=0

      01005F14H   BLOCK     CODE     ---       LVL=0
      01005F14H   BLOCK     CODE     NEAR LAB  LVL=1
      0200000DH   SYMBOL    XDATA    BYTE      i
      ---         BLOCKEND  ---      ---       LVL=1
      01005F14H   LINE      CODE     ---       #26
      01005F14H   LINE      CODE     ---       #27
      01005F14H   LINE      CODE     ---       #30
      01005F23H   LINE      CODE     ---       #31
      01005F3AH   LINE      CODE     ---       #32
      01005F48H   LINE      CODE     ---       #33
      01005F55H   LINE      CODE     ---       #34
      01005F5CH   LINE      CODE     ---       #35
      01005F5CH   LINE      CODE     ---       #36
      01005F64H   LINE      CODE     ---       #37
      ---         BLOCKEND  ---      ---       LVL=0

      ---         MODULE    ---      ---       SHELL
      0200007DH   PUBLIC    XDATA    ---       shell_buf
      01009CBBH   PUBLIC    CONST    ---       cmds
LX51 LINKER/LOCATER V4.66.87.0                                                        05/30/2018  17:25:18  PAGE 172


      01002493H   PUBLIC    CODE     ---       run_shell
      01006C38H   PUBLIC    CODE     ---       shell_dump_cmd
      010062B3H   PUBLIC    CODE     ---       _shell_search_cmd_by_name
      01004A73H   SYMBOL    CODE     ---       _call_cmd
      010088FAH   SYMBOL    CODE     ---       _cmd_null

      010060A5H   BLOCK     CODE     ---       LVL=0
      ---         BLOCKEND  ---      ---       LVL=0

      010088FAH   BLOCK     CODE     ---       LVL=0
      02000000H   SYMBOL    XDATA    CHAR      arg1
      02000001H   SYMBOL    XDATA    CHAR      arg2
      010088FAH   LINE      CODE     ---       #26
      010088FAH   LINE      CODE     ---       #27
      010088FAH   LINE      CODE     ---       #28
      010088FAH   LINE      CODE     ---       #29
      010088FAH   LINE      CODE     ---       #30
      01008903H   LINE      CODE     ---       #31
      01008905H   LINE      CODE     ---       #32
      ---         BLOCKEND  ---      ---       LVL=0

      010062B3H   BLOCK     CODE     ---       LVL=0
      02000009H   SYMBOL    XDATA    ---       cmd
      010062B9H   BLOCK     CODE     NEAR LAB  LVL=1
      0200000CH   SYMBOL    XDATA    CHAR      i
      ---         BLOCKEND  ---      ---       LVL=1
      010062B3H   LINE      CODE     ---       #81
      010062B9H   LINE      CODE     ---       #82
      010062B9H   LINE      CODE     ---       #84
      010062CAH   LINE      CODE     ---       #85
      010062EBH   LINE      CODE     ---       #86
      010062F1H   LINE      CODE     ---       #87
      010062F1H   LINE      CODE     ---       #88
      010062F9H   LINE      CODE     ---       #89
      010062FBH   LINE      CODE     ---       #90
      ---         BLOCKEND  ---      ---       LVL=0

      01004A73H   BLOCK     CODE     ---       LVL=0
      02000002H   SYMBOL    XDATA    ---       buf
      02000005H   SYMBOL    XDATA    CHAR      arg1
      02000006H   SYMBOL    XDATA    CHAR      arg2
      01004A7EH   BLOCK     CODE     NEAR LAB  LVL=1
      02000007H   SYMBOL    XDATA    CHAR      i
      ---         BLOCKEND  ---      ---       LVL=1
      01004A73H   LINE      CODE     ---       #92
      01004A7EH   LINE      CODE     ---       #93
      01004A7EH   LINE      CODE     ---       #95
      01004A8AH   LINE      CODE     ---       #96
      01004A98H   LINE      CODE     ---       #97
      01004A9BH   LINE      CODE     ---       #98
      01004AC3H   LINE      CODE     ---       #99
      01004AE0H   LINE      CODE     ---       #100
      01004AE0H   LINE      CODE     ---       #101
      01004AE2H   LINE      CODE     ---       #102
      01004AEEH   LINE      CODE     ---       #103
      01004AEEH   LINE      CODE     ---       #104
      ---         BLOCKEND  ---      ---       LVL=0

      01006C38H   BLOCK     CODE     ---       LVL=0
      01006C38H   BLOCK     CODE     NEAR LAB  LVL=1
      02000009H   SYMBOL    XDATA    CHAR      i
      ---         BLOCKEND  ---      ---       LVL=1
      01006C38H   LINE      CODE     ---       #106
      01006C38H   LINE      CODE     ---       #107
      01006C38H   LINE      CODE     ---       #109
LX51 LINKER/LOCATER V4.66.87.0                                                        05/30/2018  17:25:18  PAGE 173


      01006C49H   LINE      CODE     ---       #110
      01006C64H   LINE      CODE     ---       #111
      01006C6CH   LINE      CODE     ---       #112
      ---         BLOCKEND  ---      ---       LVL=0

      01002493H   BLOCK     CODE     ---       LVL=0
      01002493H   BLOCK     CODE     NEAR LAB  LVL=1
      02000000H   SYMBOL    XDATA    CHAR      arg1_pos
      02000001H   SYMBOL    XDATA    CHAR      arg2_pos
      ---         BLOCKEND  ---      ---       LVL=1
      01002493H   LINE      CODE     ---       #114
      01002493H   LINE      CODE     ---       #115
      01002493H   LINE      CODE     ---       #118
      01002496H   LINE      CODE     ---       #119
      0100249FH   LINE      CODE     ---       #120
      010024A2H   LINE      CODE     ---       #123
      010024A5H   LINE      CODE     ---       #124
      010024A8H   LINE      CODE     ---       #125
      010024ABH   LINE      CODE     ---       #126
      010024B2H   LINE      CODE     ---       #127
      010024B9H   LINE      CODE     ---       #128
      010024C0H   LINE      CODE     ---       #129
      010024C7H   LINE      CODE     ---       #130
      010024CCH   LINE      CODE     ---       #131
      010024CCH   LINE      CODE     ---       #132
      010024D5H   LINE      CODE     ---       #134
      010024E2H   LINE      CODE     ---       #136
      010024E7H   LINE      CODE     ---       #138
      010024F0H   LINE      CODE     ---       #139
      010024F0H   LINE      CODE     ---       #141
      010024F5H   LINE      CODE     ---       #142
      010024F7H   LINE      CODE     ---       #144
      0100250CH   LINE      CODE     ---       #146
      01002517H   LINE      CODE     ---       #147
      01002517H   LINE      CODE     ---       #148
      01002519H   LINE      CODE     ---       #149
      01002519H   LINE      CODE     ---       #151
      01002525H   LINE      CODE     ---       #152
      0100252AH   LINE      CODE     ---       #153
      01002530H   LINE      CODE     ---       #154
      01002532H   LINE      CODE     ---       #156
      0100253DH   LINE      CODE     ---       #157
      01002549H   LINE      CODE     ---       #158
      0100254BH   LINE      CODE     ---       #159
      0100254BH   LINE      CODE     ---       #161
      01002551H   LINE      CODE     ---       #163
      01002569H   LINE      CODE     ---       #165
      01002574H   LINE      CODE     ---       #166
      0100257CH   LINE      CODE     ---       #167
      0100257EH   LINE      CODE     ---       #168
      0100257EH   LINE      CODE     ---       #170
      0100258DH   LINE      CODE     ---       #171
      01002592H   LINE      CODE     ---       #172
      01002598H   LINE      CODE     ---       #173
      0100259AH   LINE      CODE     ---       #175
      010025A8H   LINE      CODE     ---       #176
      010025B0H   LINE      CODE     ---       #177
      010025B2H   LINE      CODE     ---       #178
      010025B2H   LINE      CODE     ---       #180
      010025BEH   LINE      CODE     ---       #182
      010025D3H   LINE      CODE     ---       #184
      010025D6H   LINE      CODE     ---       #185
      010025D9H   LINE      CODE     ---       #186
      010025DCH   LINE      CODE     ---       #187
      ---         BLOCKEND  ---      ---       LVL=0
LX51 LINKER/LOCATER V4.66.87.0                                                        05/30/2018  17:25:18  PAGE 174



      ---         MODULE    ---      ---       DEBUG
      0200001CH   PUBLIC    XDATA    BYTE      ?_debug_printf?BYTE
      01006B95H   PUBLIC    CODE     ---       _debug_printf
      00000020H.0 PUBLIC    BIT      BIT       ?debug_onoff?BIT
      01008C14H   PUBLIC    CODE     ---       debug_onoff
      01008C47H   PUBLIC    CODE     ---       debug_initialize
      00000025H.4 SYMBOL    BIT      BIT       debug_is_on

      01008C47H   BLOCK     CODE     ---       LVL=0
      01008C47H   LINE      CODE     ---       #7
      01008C47H   LINE      CODE     ---       #8
      01008C47H   LINE      CODE     ---       #9
      01008C49H   LINE      CODE     ---       #10
      ---         BLOCKEND  ---      ---       LVL=0

      01008C14H   BLOCK     CODE     ---       LVL=0
      00000020H.0 SYMBOL    BIT      BIT       enable
      01008C14H   LINE      CODE     ---       #12
      01008C14H   LINE      CODE     ---       #13
      01008C14H   LINE      CODE     ---       #14
      01008C18H   LINE      CODE     ---       #15
      ---         BLOCKEND  ---      ---       LVL=0

      01006B95H   BLOCK     CODE     ---       LVL=0
      0200001CH   SYMBOL    XDATA    ---       fmt
      01006B9BH   BLOCK     CODE     NEAR LAB  LVL=1
      0200001FH   SYMBOL    XDATA    ---       ellipsis_40
      02000047H   SYMBOL    XDATA    ---       arg_ptr
      ---         BLOCKEND  ---      ---       LVL=1
      01006B95H   LINE      CODE     ---       #17
      01006B9BH   LINE      CODE     ---       #18
      01006B9BH   LINE      CODE     ---       #21
      01006B9EH   LINE      CODE     ---       #22
      01006BAAH   LINE      CODE     ---       #23
      01006BBFH   LINE      CODE     ---       #24
      01006BCBH   LINE      CODE     ---       #25
      01006BCBH   LINE      CODE     ---       #26
      ---         BLOCKEND  ---      ---       LVL=0

      ---         MODULE    ---      ---       MPU
      0100770FH   PUBLIC    CODE     ---       mpu_read_int_status
      01008822H   PUBLIC    CODE     ---       _mpu_threshold_set
      01008BBEH   PUBLIC    CODE     ---       mpu_threshold_get
      010085B5H   PUBLIC    CODE     ---       _mpu_threshold_inc
      01008B42H   PUBLIC    CODE     ---       mpu_threshold_reset
      00000020H.1 PUBLIC    BIT      BIT       ?mpu_enable?BIT
      01007A7BH   PUBLIC    CODE     ---       mpu_enable
      0100704BH   PUBLIC    CODE     ---       scan_mpu
      01008AD8H   PUBLIC    CODE     ---       mpu_leave_powersave
      01008ACFH   PUBLIC    CODE     ---       mpu_enter_powersave
      01008758H   PUBLIC    CODE     ---       mpu_initialize
      010070D6H   SYMBOL    CODE     ---       mpu_power_off
      020000E8H   SYMBOL    XDATA    BYTE      mpu_threshold
      01006E9DH   SYMBOL    CODE     ---       mpu_power_on
      010079DCH   SYMBOL    CODE     ---       mpu_load_config

      01008500H   BLOCK     CODE     ---       LVL=0
      ---         BLOCKEND  ---      ---       LVL=0

      010079DCH   BLOCK     CODE     ---       LVL=0
      010079DCH   LINE      CODE     ---       #19
      010079DCH   LINE      CODE     ---       #20
      010079DCH   LINE      CODE     ---       #21
      010079E5H   LINE      CODE     ---       #22
LX51 LINKER/LOCATER V4.66.87.0                                                        05/30/2018  17:25:18  PAGE 175


      010079EFH   LINE      CODE     ---       #23
      ---         BLOCKEND  ---      ---       LVL=0

      01006E9DH   BLOCK     CODE     ---       LVL=0
      01006E9DH   BLOCK     CODE     NEAR LAB  LVL=1
      02000015H   SYMBOL    XDATA    BYTE      val
      ---         BLOCKEND  ---      ---       LVL=1
      01006E9DH   LINE      CODE     ---       #26
      01006E9DH   LINE      CODE     ---       #27
      01006E9DH   LINE      CODE     ---       #29
      01006EA6H   LINE      CODE     ---       #31
      01006EA9H   LINE      CODE     ---       #35
      01006EB2H   LINE      CODE     ---       #38
      01006EBBH   LINE      CODE     ---       #41
      01006EC5H   LINE      CODE     ---       #43
      ---         BLOCKEND  ---      ---       LVL=0

      010070D6H   BLOCK     CODE     ---       LVL=0
      010070D6H   BLOCK     CODE     NEAR LAB  LVL=1
      02000015H   SYMBOL    XDATA    BYTE      val
      ---         BLOCKEND  ---      ---       LVL=1
      010070D6H   LINE      CODE     ---       #119
      010070D6H   LINE      CODE     ---       #120
      010070D6H   LINE      CODE     ---       #122
      010070DFH   LINE      CODE     ---       #125
      010070E8H   LINE      CODE     ---       #128
      010070F1H   LINE      CODE     ---       #131
      010070FBH   LINE      CODE     ---       #133
      ---         BLOCKEND  ---      ---       LVL=0

      01008758H   BLOCK     CODE     ---       LVL=0
      01008758H   LINE      CODE     ---       #157
      01008758H   LINE      CODE     ---       #158
      01008758H   LINE      CODE     ---       #159
      01008761H   LINE      CODE     ---       #161
      01008764H   LINE      CODE     ---       #163
      ---         BLOCKEND  ---      ---       LVL=0

      01008ACFH   BLOCK     CODE     ---       LVL=0
      01008ACFH   LINE      CODE     ---       #166
      01008ACFH   LINE      CODE     ---       #167
      01008ACFH   LINE      CODE     ---       #168
      ---         BLOCKEND  ---      ---       LVL=0

      01008AD8H   BLOCK     CODE     ---       LVL=0
      01008AD8H   LINE      CODE     ---       #171
      01008AD8H   LINE      CODE     ---       #172
      01008AD8H   LINE      CODE     ---       #173
      ---         BLOCKEND  ---      ---       LVL=0

      0100704BH   BLOCK     CODE     ---       LVL=0
      0100704BH   BLOCK     CODE     NEAR LAB  LVL=1
      00000007H   SYMBOL    DATA     BYTE      val
      00000020H.0 SYMBOL    BIT      BIT       has_event
      ---         BLOCKEND  ---      ---       LVL=1
      0100704BH   LINE      CODE     ---       #176
      0100704BH   LINE      CODE     ---       #177
      0100704BH   LINE      CODE     ---       #179
      0100704DH   LINE      CODE     ---       #181
      01007056H   LINE      CODE     ---       #182
      01007059H   LINE      CODE     ---       #185
      0100705DH   LINE      CODE     ---       #189
      01007066H   LINE      CODE     ---       #190
      0100706CH   LINE      CODE     ---       #191
      0100706EH   LINE      CODE     ---       #192
LX51 LINKER/LOCATER V4.66.87.0                                                        05/30/2018  17:25:18  PAGE 176


      0100706EH   LINE      CODE     ---       #194
      01007076H   LINE      CODE     ---       #195
      01007079H   LINE      CODE     ---       #196
      01007079H   LINE      CODE     ---       #197
      ---         BLOCKEND  ---      ---       LVL=0

      01007A7BH   BLOCK     CODE     ---       LVL=0
      00000020H.1 SYMBOL    BIT      BIT       enable
      01007A7BH   LINE      CODE     ---       #199
      01007A7BH   LINE      CODE     ---       #200
      01007A7BH   LINE      CODE     ---       #201
      01007A90H   LINE      CODE     ---       #202
      01007A93H   LINE      CODE     ---       #203
      01007A96H   LINE      CODE     ---       #204
      01007A96H   LINE      CODE     ---       #205
      01007A99H   LINE      CODE     ---       #206
      01007A99H   LINE      CODE     ---       #208
      ---         BLOCKEND  ---      ---       LVL=0

      01008B42H   BLOCK     CODE     ---       LVL=0
      01008B42H   LINE      CODE     ---       #210
      01008B42H   LINE      CODE     ---       #211
      01008B42H   LINE      CODE     ---       #212
      ---         BLOCKEND  ---      ---       LVL=0

      010085B5H   BLOCK     CODE     ---       LVL=0
      00000007H   SYMBOL    DATA     BYTE      thres
      010085B5H   LINE      CODE     ---       #216
      010085B5H   LINE      CODE     ---       #217
      010085B5H   LINE      CODE     ---       #218
      010085B9H   LINE      CODE     ---       #219
      010085BFH   LINE      CODE     ---       #220
      010085C0H   LINE      CODE     ---       #221
      010085C1H   LINE      CODE     ---       #222
      010085C1H   LINE      CODE     ---       #223
      010085C4H   LINE      CODE     ---       #224
      010085C4H   LINE      CODE     ---       #225
      010085C4H   LINE      CODE     ---       #226
      010085C6H   LINE      CODE     ---       #227
      010085C6H   LINE      CODE     ---       #228
      ---         BLOCKEND  ---      ---       LVL=0

      01008BBEH   BLOCK     CODE     ---       LVL=0
      01008BBEH   LINE      CODE     ---       #230
      01008BBEH   LINE      CODE     ---       #231
      01008BBEH   LINE      CODE     ---       #233
      01008BC3H   LINE      CODE     ---       #239
      ---         BLOCKEND  ---      ---       LVL=0

      01008822H   BLOCK     CODE     ---       LVL=0
      00000007H   SYMBOL    DATA     BYTE      val
      01008822H   LINE      CODE     ---       #241
      01008822H   LINE      CODE     ---       #242
      01008822H   LINE      CODE     ---       #243
      ---         BLOCKEND  ---      ---       LVL=0

      0100770FH   BLOCK     CODE     ---       LVL=0
      0100770FH   BLOCK     CODE     NEAR LAB  LVL=1
      02000016H   SYMBOL    XDATA    BYTE      val
      ---         BLOCKEND  ---      ---       LVL=1
      0100770FH   LINE      CODE     ---       #261
      0100770FH   LINE      CODE     ---       #262
      0100770FH   LINE      CODE     ---       #265
      0100771CH   LINE      CODE     ---       #269
      0100772DH   LINE      CODE     ---       #270
LX51 LINKER/LOCATER V4.66.87.0                                                        05/30/2018  17:25:18  PAGE 177


      01007732H   LINE      CODE     ---       #271
      ---         BLOCKEND  ---      ---       LVL=0

      ---         MODULE    ---      ---       SM_CLOCK_TIMER
      0100C89BH   PUBLIC    CONST    ---       sm_clock_timer_ss_name
      01005840H   PUBLIC    CODE     ---       _sm_clock_timer_submod2
      01004EB0H   PUBLIC    CODE     ---       _sm_clock_timer_submod1
      0100638EH   PUBLIC    CODE     ---       _sm_clock_timer_submod0
      01007EFDH   PUBLIC    CODE     ---       _sm_clock_timer_init
      010048F9H   SYMBOL    CODE     ---       _display_slot
      01006A42H   SYMBOL    CODE     ---       _show_slot_title

      01007919H   BLOCK     CODE     ---       LVL=0
      ---         BLOCKEND  ---      ---       LVL=0

      01006A42H   BLOCK     CODE     ---       LVL=0
      02000012H   SYMBOL    XDATA    BYTE      slot
      01006A42H   LINE      CODE     ---       #20
      01006A47H   LINE      CODE     ---       #21
      01006A47H   LINE      CODE     ---       #22
      01006A4AH   LINE      CODE     ---       #23
      01006A51H   LINE      CODE     ---       #24
      01006A58H   LINE      CODE     ---       #25
      01006A5FH   LINE      CODE     ---       #26
      01006A6FH   LINE      CODE     ---       #27
      ---         BLOCKEND  ---      ---       LVL=0

      010048F9H   BLOCK     CODE     ---       LVL=0
      02000014H   SYMBOL    XDATA    BYTE      slot
      010048F9H   LINE      CODE     ---       #30
      010048FEH   LINE      CODE     ---       #31
      010048FEH   LINE      CODE     ---       #32
      01004901H   LINE      CODE     ---       #34
      01004906H   LINE      CODE     ---       #35
      0100490AH   LINE      CODE     ---       #36
      0100490EH   LINE      CODE     ---       #37
      01004912H   LINE      CODE     ---       #38
      0100491DH   LINE      CODE     ---       #39
      01004926H   LINE      CODE     ---       #40
      0100492FH   LINE      CODE     ---       #41
      0100493DH   LINE      CODE     ---       #42
      01004948H   LINE      CODE     ---       #43
      01004956H   LINE      CODE     ---       #44
      ---         BLOCKEND  ---      ---       LVL=0

      01007EFDH   BLOCK     CODE     ---       LVL=0
      00000007H   SYMBOL    DATA     BYTE      from
      00000005H   SYMBOL    DATA     BYTE      to
      00000006H   SYMBOL    DATA     BYTE      ev
      01007EFDH   LINE      CODE     ---       #46
      01007EFFH   LINE      CODE     ---       #47
      01007EFFH   LINE      CODE     ---       #48
      01007F0BH   LINE      CODE     ---       #49
      01007F10H   LINE      CODE     ---       #50
      ---         BLOCKEND  ---      ---       LVL=0

      0100638EH   BLOCK     CODE     ---       LVL=0
      02000011H   SYMBOL    XDATA    BYTE      from
      02000012H   SYMBOL    XDATA    BYTE      to
      02000013H   SYMBOL    XDATA    BYTE      ev
      0100638EH   LINE      CODE     ---       #53
      01006399H   LINE      CODE     ---       #54
      01006399H   LINE      CODE     ---       #55
      010063A3H   LINE      CODE     ---       #57
      010063B8H   LINE      CODE     ---       #59
LX51 LINKER/LOCATER V4.66.87.0                                                        05/30/2018  17:25:18  PAGE 178


      010063B8H   LINE      CODE     ---       #60
      010063BDH   LINE      CODE     ---       #61
      010063C2H   LINE      CODE     ---       #62
      010063C6H   LINE      CODE     ---       #64
      010063C6H   LINE      CODE     ---       #67
      010063CDH   LINE      CODE     ---       #68
      010063D0H   LINE      CODE     ---       #69
      010063D5H   LINE      CODE     ---       #71
      010063D5H   LINE      CODE     ---       #72
      ---         BLOCKEND  ---      ---       LVL=0

      01004EB0H   BLOCK     CODE     ---       LVL=0
      00000007H   SYMBOL    DATA     BYTE      from
      00000005H   SYMBOL    DATA     BYTE      to
      02000011H   SYMBOL    XDATA    BYTE      ev
      01004EB0H   LINE      CODE     ---       #74
      01004EB5H   LINE      CODE     ---       #75
      01004EB5H   LINE      CODE     ---       #76
      01004EBFH   LINE      CODE     ---       #78
      01004EC6H   LINE      CODE     ---       #79
      01004EC9H   LINE      CODE     ---       #80
      01004ECCH   LINE      CODE     ---       #81
      01004ED0H   LINE      CODE     ---       #83
      01004ED0H   LINE      CODE     ---       #86
      01004ED7H   LINE      CODE     ---       #87
      01004EE0H   LINE      CODE     ---       #88
      01004EEBH   LINE      CODE     ---       #89
      01004EF3H   LINE      CODE     ---       #90
      01004EF3H   LINE      CODE     ---       #92
      01004EF3H   LINE      CODE     ---       #94
      01004EFAH   LINE      CODE     ---       #95
      01004F03H   LINE      CODE     ---       #96
      01004F06H   LINE      CODE     ---       #97
      01004F0EH   LINE      CODE     ---       #98
      01004F14H   LINE      CODE     ---       #99
      01004F14H   LINE      CODE     ---       #101
      01004F14H   LINE      CODE     ---       #102
      ---         BLOCKEND  ---      ---       LVL=0

      01005840H   BLOCK     CODE     ---       LVL=0
      00000007H   SYMBOL    DATA     BYTE      from
      00000005H   SYMBOL    DATA     BYTE      to
      02000011H   SYMBOL    XDATA    BYTE      ev
      01005840H   LINE      CODE     ---       #104
      01005846H   LINE      CODE     ---       #105
      01005846H   LINE      CODE     ---       #106
      01005852H   LINE      CODE     ---       #108
      01005859H   LINE      CODE     ---       #109
      0100585CH   LINE      CODE     ---       #110
      01005867H   LINE      CODE     ---       #111
      0100586CH   LINE      CODE     ---       #112
      01005870H   LINE      CODE     ---       #114
      01005870H   LINE      CODE     ---       #117
      01005877H   LINE      CODE     ---       #118
      0100587FH   LINE      CODE     ---       #120
      0100587FH   LINE      CODE     ---       #122
      01005886H   LINE      CODE     ---       #123
      0100588EH   LINE      CODE     ---       #124
      0100589BH   LINE      CODE     ---       #126
      0100589BH   LINE      CODE     ---       #127
      ---         BLOCKEND  ---      ---       LVL=0

      ---         MODULE    ---      ---       SM_CLOCK_COUNTER
      0100BCF8H   PUBLIC    CONST    ---       sm_clock_counter_ss_name
      010075E9H   PUBLIC    CODE     ---       _sm_clock_counter_submod5
LX51 LINKER/LOCATER V4.66.87.0                                                        05/30/2018  17:25:18  PAGE 179


      01007808H   PUBLIC    CODE     ---       _sm_clock_counter_submod4
      01006678H   PUBLIC    CODE     ---       _sm_clock_counter_submod3
      01005785H   PUBLIC    CODE     ---       _sm_clock_counter_submod2
      0100589CH   PUBLIC    CODE     ---       _sm_clock_counter_submod1
      01004300H   PUBLIC    CODE     ---       _sm_clock_counter_submod0
      01008325H   PUBLIC    CODE     ---       _sm_clock_counter_init
      0100736AH   SYMBOL    CODE     ---       _enter_hhmmss
      0100723DH   SYMBOL    CODE     ---       _write_only
      01008A0FH   SYMBOL    CODE     ---       _inc_and_write
      01006462H   SYMBOL    CODE     ---       _inc_only
      01004004H   SYMBOL    CODE     ---       update_hhmmss

      01007394H   BLOCK     CODE     ---       LVL=0
      ---         BLOCKEND  ---      ---       LVL=0

      01006462H   BLOCK     CODE     ---       LVL=0
      00000007H   SYMBOL    DATA     BYTE      what
      01006462H   LINE      CODE     ---       #21
      01006462H   LINE      CODE     ---       #22
      01006462H   LINE      CODE     ---       #23
      0100646DH   LINE      CODE     ---       #24
      0100646DH   LINE      CODE     ---       #25
      01006470H   LINE      CODE     ---       #26
      01006472H   LINE      CODE     ---       #27
      01006474H   LINE      CODE     ---       #28
      01006477H   LINE      CODE     ---       #29
      01006477H   LINE      CODE     ---       #30
      0100647CH   LINE      CODE     ---       #31
      0100647CH   LINE      CODE     ---       #32
      0100647CH   LINE      CODE     ---       #33
      0100647FH   LINE      CODE     ---       #34
      01006481H   LINE      CODE     ---       #35
      01006483H   LINE      CODE     ---       #36
      01006486H   LINE      CODE     ---       #37
      01006486H   LINE      CODE     ---       #38
      0100648BH   LINE      CODE     ---       #39
      0100648BH   LINE      CODE     ---       #40
      0100648BH   LINE      CODE     ---       #41
      0100648EH   LINE      CODE     ---       #42
      01006490H   LINE      CODE     ---       #43
      01006495H   LINE      CODE     ---       #44
      01006499H   LINE      CODE     ---       #45
      01006499H   LINE      CODE     ---       #46
      0100649EH   LINE      CODE     ---       #47
      0100649EH   LINE      CODE     ---       #48
      0100649EH   LINE      CODE     ---       #49
      ---         BLOCKEND  ---      ---       LVL=0

      0100723DH   BLOCK     CODE     ---       LVL=0
      00000007H   SYMBOL    DATA     BYTE      what
      0100723DH   LINE      CODE     ---       #51
      0100723DH   LINE      CODE     ---       #52
      0100723DH   LINE      CODE     ---       #53
      01007248H   LINE      CODE     ---       #54
      01007248H   LINE      CODE     ---       #55
      0100724BH   LINE      CODE     ---       #56
      0100724DH   LINE      CODE     ---       #57
      0100724FH   LINE      CODE     ---       #58
      0100724FH   LINE      CODE     ---       #59
      0100724FH   LINE      CODE     ---       #60
      01007251H   LINE      CODE     ---       #61
      01007251H   LINE      CODE     ---       #62
      01007254H   LINE      CODE     ---       #63
      01007256H   LINE      CODE     ---       #64
      01007258H   LINE      CODE     ---       #65
LX51 LINKER/LOCATER V4.66.87.0                                                        05/30/2018  17:25:18  PAGE 180


      01007258H   LINE      CODE     ---       #66
      01007258H   LINE      CODE     ---       #67
      0100725AH   LINE      CODE     ---       #68
      0100725AH   LINE      CODE     ---       #69
      0100725DH   LINE      CODE     ---       #70
      0100725FH   LINE      CODE     ---       #71
      01007264H   LINE      CODE     ---       #72
      01007268H   LINE      CODE     ---       #73
      01007268H   LINE      CODE     ---       #74
      01007268H   LINE      CODE     ---       #75
      01007268H   LINE      CODE     ---       #76
      ---         BLOCKEND  ---      ---       LVL=0

      01008A0FH   BLOCK     CODE     ---       LVL=0
      00000006H   SYMBOL    DATA     BYTE      what
      01008A0FH   LINE      CODE     ---       #78
      01008A11H   LINE      CODE     ---       #79
      01008A11H   LINE      CODE     ---       #80
      01008A14H   LINE      CODE     ---       #81
      ---         BLOCKEND  ---      ---       LVL=0

      01004004H   BLOCK     CODE     ---       LVL=0
      01004004H   BLOCK     CODE     NEAR LAB  LVL=1
      02000015H   SYMBOL    XDATA    BYTE      hour
      02000016H   SYMBOL    XDATA    BYTE      min
      02000017H   SYMBOL    XDATA    BYTE      sec
      ---         BLOCKEND  ---      ---       LVL=1
      01004004H   LINE      CODE     ---       #84
      01004004H   LINE      CODE     ---       #85
      01004004H   LINE      CODE     ---       #88
      0100400EH   LINE      CODE     ---       #89
      01004018H   LINE      CODE     ---       #90
      01004022H   LINE      CODE     ---       #93
      01004027H   LINE      CODE     ---       #94
      0100402BH   LINE      CODE     ---       #95
      0100402FH   LINE      CODE     ---       #96
      01004033H   LINE      CODE     ---       #98
      01004054H   LINE      CODE     ---       #100
      0100405CH   LINE      CODE     ---       #101
      01004067H   LINE      CODE     ---       #102
      0100406FH   LINE      CODE     ---       #103
      0100407AH   LINE      CODE     ---       #104
      0100408AH   LINE      CODE     ---       #105
      01004095H   LINE      CODE     ---       #107
      ---         BLOCKEND  ---      ---       LVL=0

      0100736AH   BLOCK     CODE     ---       LVL=0
      02000014H   SYMBOL    XDATA    BYTE      what
      0100736AH   LINE      CODE     ---       #109
      0100736FH   LINE      CODE     ---       #110
      0100736FH   LINE      CODE     ---       #111
      01007372H   LINE      CODE     ---       #112
      01007380H   LINE      CODE     ---       #113
      01007380H   LINE      CODE     ---       #114
      01007382H   LINE      CODE     ---       #115
      01007382H   LINE      CODE     ---       #116
      01007384H   LINE      CODE     ---       #117
      01007384H   LINE      CODE     ---       #118
      01007386H   LINE      CODE     ---       #119
      01007386H   LINE      CODE     ---       #120
      01007388H   LINE      CODE     ---       #121
      01007388H   LINE      CODE     ---       #122
      0100738DH   LINE      CODE     ---       #123
      01007391H   LINE      CODE     ---       #124
      01007391H   LINE      CODE     ---       #125
LX51 LINKER/LOCATER V4.66.87.0                                                        05/30/2018  17:25:18  PAGE 181


      01007391H   LINE      CODE     ---       #126
      ---         BLOCKEND  ---      ---       LVL=0

      01008325H   BLOCK     CODE     ---       LVL=0
      00000007H   SYMBOL    DATA     BYTE      from
      00000005H   SYMBOL    DATA     BYTE      to
      00000006H   SYMBOL    DATA     BYTE      ev
      01008325H   LINE      CODE     ---       #129
      01008327H   LINE      CODE     ---       #130
      01008327H   LINE      CODE     ---       #131
      01008333H   LINE      CODE     ---       #132
      ---         BLOCKEND  ---      ---       LVL=0

      01004300H   BLOCK     CODE     ---       LVL=0
      02000011H   SYMBOL    XDATA    BYTE      from
      02000012H   SYMBOL    XDATA    BYTE      to
      02000013H   SYMBOL    XDATA    BYTE      ev
      01004300H   LINE      CODE     ---       #135
      0100430BH   LINE      CODE     ---       #136
      0100430BH   LINE      CODE     ---       #137
      01004315H   LINE      CODE     ---       #139
      0100432AH   LINE      CODE     ---       #141
      0100432AH   LINE      CODE     ---       #142
      0100432FH   LINE      CODE     ---       #143
      01004332H   LINE      CODE     ---       #144
      01004337H   LINE      CODE     ---       #145
      0100433DH   LINE      CODE     ---       #147
      0100433DH   LINE      CODE     ---       #150
      01004343H   LINE      CODE     ---       #151
      01004346H   LINE      CODE     ---       #153
      01004346H   LINE      CODE     ---       #156
      0100434EH   LINE      CODE     ---       #157
      01004353H   LINE      CODE     ---       #159
      01004353H   LINE      CODE     ---       #162
      01004357H   LINE      CODE     ---       #163
      0100435EH   LINE      CODE     ---       #164
      01004363H   LINE      CODE     ---       #165
      01004363H   LINE      CODE     ---       #166
      01004363H   LINE      CODE     ---       #167
      0100436CH   LINE      CODE     ---       #169
      0100436CH   LINE      CODE     ---       #172
      01004374H   LINE      CODE     ---       #173
      01004379H   LINE      CODE     ---       #174
      0100437FH   LINE      CODE     ---       #176
      0100437FH   LINE      CODE     ---       #179
      01004383H   LINE      CODE     ---       #180
      01004389H   LINE      CODE     ---       #181
      0100438CH   LINE      CODE     ---       #182
      01004391H   LINE      CODE     ---       #184
      01004391H   LINE      CODE     ---       #185
      ---         BLOCKEND  ---      ---       LVL=0

      0100589CH   BLOCK     CODE     ---       LVL=0
      00000007H   SYMBOL    DATA     BYTE      from
      00000005H   SYMBOL    DATA     BYTE      to
      02000011H   SYMBOL    XDATA    BYTE      ev
      0100589CH   LINE      CODE     ---       #187
      010058A1H   LINE      CODE     ---       #188
      010058A1H   LINE      CODE     ---       #189
      010058ABH   LINE      CODE     ---       #191
      010058B1H   LINE      CODE     ---       #192
      010058B4H   LINE      CODE     ---       #194
      010058B4H   LINE      CODE     ---       #197
      010058BBH   LINE      CODE     ---       #198
      010058C0H   LINE      CODE     ---       #200
LX51 LINKER/LOCATER V4.66.87.0                                                        05/30/2018  17:25:18  PAGE 182


      010058C0H   LINE      CODE     ---       #203
      010058C8H   LINE      CODE     ---       #204
      010058CDH   LINE      CODE     ---       #206
      010058CDH   LINE      CODE     ---       #209
      010058D1H   LINE      CODE     ---       #210
      010058D8H   LINE      CODE     ---       #211
      010058DDH   LINE      CODE     ---       #212
      010058DDH   LINE      CODE     ---       #213
      010058DDH   LINE      CODE     ---       #214
      010058E6H   LINE      CODE     ---       #216
      010058E6H   LINE      CODE     ---       #219
      010058EDH   LINE      CODE     ---       #220
      010058F2H   LINE      CODE     ---       #221
      010058F7H   LINE      CODE     ---       #223
      010058F7H   LINE      CODE     ---       #224
      ---         BLOCKEND  ---      ---       LVL=0

      01005785H   BLOCK     CODE     ---       LVL=0
      00000007H   SYMBOL    DATA     BYTE      from
      00000005H   SYMBOL    DATA     BYTE      to
      02000011H   SYMBOL    XDATA    BYTE      ev
      01005785H   LINE      CODE     ---       #226
      0100578BH   LINE      CODE     ---       #227
      0100578BH   LINE      CODE     ---       #228
      01005797H   LINE      CODE     ---       #230
      0100579DH   LINE      CODE     ---       #231
      010057A0H   LINE      CODE     ---       #233
      010057A0H   LINE      CODE     ---       #236
      010057A7H   LINE      CODE     ---       #237
      010057ACH   LINE      CODE     ---       #239
      010057ACH   LINE      CODE     ---       #242
      010057B4H   LINE      CODE     ---       #243
      010057B9H   LINE      CODE     ---       #245
      010057B9H   LINE      CODE     ---       #248
      010057BDH   LINE      CODE     ---       #249
      010057C4H   LINE      CODE     ---       #250
      010057C9H   LINE      CODE     ---       #251
      010057C9H   LINE      CODE     ---       #252
      010057C9H   LINE      CODE     ---       #253
      010057D2H   LINE      CODE     ---       #255
      010057D2H   LINE      CODE     ---       #258
      010057D9H   LINE      CODE     ---       #259
      010057DEH   LINE      CODE     ---       #260
      010057E3H   LINE      CODE     ---       #262
      010057E3H   LINE      CODE     ---       #263
      ---         BLOCKEND  ---      ---       LVL=0

      01006678H   BLOCK     CODE     ---       LVL=0
      00000007H   SYMBOL    DATA     BYTE      from
      00000005H   SYMBOL    DATA     BYTE      to
      02000011H   SYMBOL    XDATA    BYTE      ev
      01006678H   LINE      CODE     ---       #265
      0100667EH   LINE      CODE     ---       #266
      0100667EH   LINE      CODE     ---       #267
      0100668AH   LINE      CODE     ---       #270
      01006691H   LINE      CODE     ---       #271
      01006694H   LINE      CODE     ---       #272
      01006699H   LINE      CODE     ---       #273
      0100669DH   LINE      CODE     ---       #274
      0100669FH   LINE      CODE     ---       #276
      0100669FH   LINE      CODE     ---       #279
      010066A6H   LINE      CODE     ---       #280
      010066A9H   LINE      CODE     ---       #281
      010066ACH   LINE      CODE     ---       #283
      010066ACH   LINE      CODE     ---       #284
LX51 LINKER/LOCATER V4.66.87.0                                                        05/30/2018  17:25:18  PAGE 183


      ---         BLOCKEND  ---      ---       LVL=0

      01007808H   BLOCK     CODE     ---       LVL=0
      00000007H   SYMBOL    DATA     BYTE      from
      00000005H   SYMBOL    DATA     BYTE      to
      02000011H   SYMBOL    XDATA    BYTE      ev
      01007808H   LINE      CODE     ---       #286
      0100780EH   LINE      CODE     ---       #287
      0100780EH   LINE      CODE     ---       #288
      0100781AH   LINE      CODE     ---       #291
      01007821H   LINE      CODE     ---       #292
      01007824H   LINE      CODE     ---       #293
      0100782AH   LINE      CODE     ---       #295
      0100782AH   LINE      CODE     ---       #296
      ---         BLOCKEND  ---      ---       LVL=0

      010075E9H   BLOCK     CODE     ---       LVL=0
      00000007H   SYMBOL    DATA     BYTE      from
      00000005H   SYMBOL    DATA     BYTE      to
      02000011H   SYMBOL    XDATA    BYTE      ev
      010075E9H   LINE      CODE     ---       #298
      010075EFH   LINE      CODE     ---       #299
      010075EFH   LINE      CODE     ---       #300
      010075FBH   LINE      CODE     ---       #302
      01007602H   LINE      CODE     ---       #303
      01007608H   LINE      CODE     ---       #304
      0100760BH   LINE      CODE     ---       #305
      0100760EH   LINE      CODE     ---       #307
      0100760EH   LINE      CODE     ---       #308
      ---         BLOCKEND  ---      ---       LVL=0

      ---         MODULE    ---      ---       SM_CLOCK_DISPLAY
      0100C679H   PUBLIC    CONST    ---       sm_clock_display_ss_name
      01007412H   PUBLIC    CODE     ---       _sm_clock_display_submod3
      01007757H   PUBLIC    CODE     ---       _sm_clock_display_submod2
      0100718CH   PUBLIC    CODE     ---       _sm_clock_display_submod1
      010062FCH   PUBLIC    CODE     ---       _sm_clock_display_submod0
      01007733H   PUBLIC    CODE     ---       _sm_clock_display_init
      01004657H   SYMBOL    CODE     ---       display_temp
      01008AE1H   SYMBOL    CODE     ---       reset_auto_switch
      010079FCH   SYMBOL    CODE     ---       test_autoswitch

      01007A1CH   BLOCK     CODE     ---       LVL=0
      ---         BLOCKEND  ---      ---       LVL=0

      01004657H   BLOCK     CODE     ---       LVL=0
      01004657H   BLOCK     CODE     NEAR LAB  LVL=1
      02000012H   SYMBOL    XDATA    BYTE      inti
      02000013H   SYMBOL    XDATA    BYTE      flt
      00000020H.0 SYMBOL    BIT      BIT       sign
      ---         BLOCKEND  ---      ---       LVL=1
      01004657H   LINE      CODE     ---       #26
      01004657H   LINE      CODE     ---       #27
      01004657H   LINE      CODE     ---       #31
      0100465CH   LINE      CODE     ---       #32
      01004670H   LINE      CODE     ---       #34
      01004695H   LINE      CODE     ---       #36
      01004698H   LINE      CODE     ---       #38
      0100469DH   LINE      CODE     ---       #40
      010046A4H   LINE      CODE     ---       #41
      010046B0H   LINE      CODE     ---       #42
      010046B8H   LINE      CODE     ---       #43
      010046C3H   LINE      CODE     ---       #44
      010046CBH   LINE      CODE     ---       #45
      010046D6H   LINE      CODE     ---       #46
LX51 LINKER/LOCATER V4.66.87.0                                                        05/30/2018  17:25:18  PAGE 184


      ---         BLOCKEND  ---      ---       LVL=0

      01008AE1H   BLOCK     CODE     ---       LVL=0
      01008AE1H   LINE      CODE     ---       #48
      01008AE1H   LINE      CODE     ---       #49
      01008AE1H   LINE      CODE     ---       #50
      01008AE9H   LINE      CODE     ---       #51
      ---         BLOCKEND  ---      ---       LVL=0

      010079FCH   BLOCK     CODE     ---       LVL=0
      010079FCH   LINE      CODE     ---       #54
      010079FCH   LINE      CODE     ---       #55
      010079FCH   LINE      CODE     ---       #56
      01007A0CH   LINE      CODE     ---       #57
      01007A15H   LINE      CODE     ---       #58
      01007A1BH   LINE      CODE     ---       #59
      01007A1BH   LINE      CODE     ---       #60
      ---         BLOCKEND  ---      ---       LVL=0

      01007733H   BLOCK     CODE     ---       LVL=0
      00000007H   SYMBOL    DATA     BYTE      from
      00000005H   SYMBOL    DATA     BYTE      to
      00000006H   SYMBOL    DATA     BYTE      ev
      01007733H   LINE      CODE     ---       #62
      01007735H   LINE      CODE     ---       #63
      01007735H   LINE      CODE     ---       #64
      01007741H   LINE      CODE     ---       #65
      01007744H   LINE      CODE     ---       #66
      01007747H   LINE      CODE     ---       #67
      0100774CH   LINE      CODE     ---       #68
      01007751H   LINE      CODE     ---       #69
      ---         BLOCKEND  ---      ---       LVL=0

      010062FCH   BLOCK     CODE     ---       LVL=0
      02000011H   SYMBOL    XDATA    BYTE      from
      00000005H   SYMBOL    DATA     BYTE      to
      02000012H   SYMBOL    XDATA    BYTE      ev
      010062FCH   LINE      CODE     ---       #72
      01006304H   LINE      CODE     ---       #73
      01006304H   LINE      CODE     ---       #74
      0100630EH   LINE      CODE     ---       #77
      0100631BH   LINE      CODE     ---       #78
      0100631BH   LINE      CODE     ---       #79
      0100631EH   LINE      CODE     ---       #80
      0100631EH   LINE      CODE     ---       #81
      0100631EH   LINE      CODE     ---       #82
      01006320H   LINE      CODE     ---       #84
      01006320H   LINE      CODE     ---       #87
      0100632DH   LINE      CODE     ---       #88
      01006332H   LINE      CODE     ---       #89
      01006337H   LINE      CODE     ---       #90
      0100633AH   LINE      CODE     ---       #92
      0100633AH   LINE      CODE     ---       #95
      01006341H   LINE      CODE     ---       #96
      01006344H   LINE      CODE     ---       #98
      01006344H   LINE      CODE     ---       #99
      ---         BLOCKEND  ---      ---       LVL=0

      0100718CH   BLOCK     CODE     ---       LVL=0
      00000007H   SYMBOL    DATA     BYTE      from
      00000005H   SYMBOL    DATA     BYTE      to
      02000011H   SYMBOL    XDATA    BYTE      ev
      0100718CH   LINE      CODE     ---       #101
      01007192H   LINE      CODE     ---       #102
      01007192H   LINE      CODE     ---       #103
LX51 LINKER/LOCATER V4.66.87.0                                                        05/30/2018  17:25:18  PAGE 185


      0100719EH   LINE      CODE     ---       #105
      010071A6H   LINE      CODE     ---       #107
      010071ABH   LINE      CODE     ---       #108
      010071AEH   LINE      CODE     ---       #109
      010071B1H   LINE      CODE     ---       #111
      010071B1H   LINE      CODE     ---       #114
      010071B5H   LINE      CODE     ---       #115
      010071B8H   LINE      CODE     ---       #117
      010071B8H   LINE      CODE     ---       #118
      ---         BLOCKEND  ---      ---       LVL=0

      01007757H   BLOCK     CODE     ---       LVL=0
      00000007H   SYMBOL    DATA     BYTE      from
      00000005H   SYMBOL    DATA     BYTE      to
      02000011H   SYMBOL    XDATA    BYTE      ev
      01007757H   LINE      CODE     ---       #120
      0100775AH   LINE      CODE     ---       #121
      0100775AH   LINE      CODE     ---       #122
      01007760H   LINE      CODE     ---       #124
      01007768H   LINE      CODE     ---       #126
      0100776DH   LINE      CODE     ---       #127
      01007770H   LINE      CODE     ---       #128
      01007773H   LINE      CODE     ---       #130
      01007773H   LINE      CODE     ---       #133
      01007777H   LINE      CODE     ---       #134
      0100777AH   LINE      CODE     ---       #136
      0100777AH   LINE      CODE     ---       #137
      ---         BLOCKEND  ---      ---       LVL=0

      01007412H   BLOCK     CODE     ---       LVL=0
      00000007H   SYMBOL    DATA     BYTE      from
      00000005H   SYMBOL    DATA     BYTE      to
      02000011H   SYMBOL    XDATA    BYTE      ev
      01007412H   LINE      CODE     ---       #139
      01007415H   LINE      CODE     ---       #140
      01007415H   LINE      CODE     ---       #141
      0100741BH   LINE      CODE     ---       #143
      01007422H   LINE      CODE     ---       #144
      01007427H   LINE      CODE     ---       #145
      0100742AH   LINE      CODE     ---       #146
      0100742DH   LINE      CODE     ---       #147
      01007430H   LINE      CODE     ---       #149
      01007430H   LINE      CODE     ---       #152
      01007437H   LINE      CODE     ---       #153
      0100743AH   LINE      CODE     ---       #155
      0100743AH   LINE      CODE     ---       #156
      ---         BLOCKEND  ---      ---       LVL=0

      ---         MODULE    ---      ---       SM_CLOCK_POWERSAVE
      0100D270H   PUBLIC    CONST    ---       sm_clock_powersave_ss_name
      01006E09H   PUBLIC    CODE     ---       _sm_clock_powersave

      01006E09H   BLOCK     CODE     ---       LVL=0
      00000007H   SYMBOL    DATA     BYTE      from
      02000011H   SYMBOL    XDATA    BYTE      to
      02000012H   SYMBOL    XDATA    BYTE      ev
      01006E09H   LINE      CODE     ---       #17
      01006E12H   LINE      CODE     ---       #18
      01006E12H   LINE      CODE     ---       #19
      01006E26H   LINE      CODE     ---       #22
      01006E34H   LINE      CODE     ---       #24
      01006E37H   LINE      CODE     ---       #25
      01006E3AH   LINE      CODE     ---       #27
      01006E3AH   LINE      CODE     ---       #29
      ---         BLOCKEND  ---      ---       LVL=0
LX51 LINKER/LOCATER V4.66.87.0                                                        05/30/2018  17:25:18  PAGE 186



      ---         MODULE    ---      ---       SM_CLOCK_MOD_ALARM
      0100C09CH   PUBLIC    CONST    ---       sm_clock_mod_alarm_ss_name
      010072C0H   PUBLIC    CODE     ---       _sm_clock_mod_alarm_submod4
      01007295H   PUBLIC    CODE     ---       _sm_clock_mod_alarm_submod3
      01005C1BH   PUBLIC    CODE     ---       _sm_clock_mod_alarm_submod2
      010058F8H   PUBLIC    CODE     ---       _sm_clock_mod_alarm_submod1
      01005606H   PUBLIC    CODE     ---       _sm_clock_mod_alarm_submod0
      01008767H   PUBLIC    CODE     ---       _sm_clock_mod_alarm_init
      01006A08H   SYMBOL    CODE     ---       _enter_alarm
      0100793AH   SYMBOL    CODE     ---       toggle_alarm_bs
      01008692H   SYMBOL    CODE     ---       _inc_write
      0100618BH   SYMBOL    CODE     ---       _write_only
      01006D0AH   SYMBOL    CODE     ---       _inc_only
      010078B4H   SYMBOL    CODE     ---       _toggle_alarm
      01001BAEH   SYMBOL    CODE     ---       _update_alarm
      0100842AH   SYMBOL    CODE     ---       toggle_alarm_music

      010085C7H   BLOCK     CODE     ---       LVL=0
      ---         BLOCKEND  ---      ---       LVL=0

      01001BAEH   BLOCK     CODE     ---       LVL=0
      02000015H   SYMBOL    XDATA    BYTE      what
      02000016H   SYMBOL    XDATA    BYTE      day
      01001BB8H   BLOCK     CODE     NEAR LAB  LVL=1
      02000017H   SYMBOL    XDATA    BYTE      hour
      02000018H   SYMBOL    XDATA    BYTE      min
      ---         BLOCKEND  ---      ---       LVL=1
      01001BAEH   LINE      CODE     ---       #23
      01001BB8H   LINE      CODE     ---       #24
      01001BB8H   LINE      CODE     ---       #26
      01001BC2H   LINE      CODE     ---       #27
      01001BC2H   LINE      CODE     ---       #28
      01001BC5H   LINE      CODE     ---       #29
      01001BCDH   LINE      CODE     ---       #30
      01001BD5H   LINE      CODE     ---       #31
      01001BDAH   LINE      CODE     ---       #32
      01001BDEH   LINE      CODE     ---       #35
      01001BEBH   LINE      CODE     ---       #36
      01001BEFH   LINE      CODE     ---       #37
      01001BF3H   LINE      CODE     ---       #38
      01001C01H   LINE      CODE     ---       #39
      01001C06H   LINE      CODE     ---       #40
      01001C08H   LINE      CODE     ---       #41
      01001C0DH   LINE      CODE     ---       #42
      01001C0DH   LINE      CODE     ---       #44
      01001C26H   LINE      CODE     ---       #46
      01001C30H   LINE      CODE     ---       #47
      01001C33H   LINE      CODE     ---       #48
      01001C35H   LINE      CODE     ---       #49
      01001C3CH   LINE      CODE     ---       #50
      01001C3CH   LINE      CODE     ---       #51
      01001C48H   LINE      CODE     ---       #52
      01001C4DH   LINE      CODE     ---       #53
      01001C54H   LINE      CODE     ---       #55
      01001C5FH   LINE      CODE     ---       #56
      01001C82H   LINE      CODE     ---       #57
      01001C82H   LINE      CODE     ---       #58
      01001C85H   LINE      CODE     ---       #59
      01001C91H   LINE      CODE     ---       #60
      01001C9BH   LINE      CODE     ---       #61
      01001C9BH   LINE      CODE     ---       #62
      01001C9BH   LINE      CODE     ---       #63
      01001C9EH   LINE      CODE     ---       #64
      01001CA0H   LINE      CODE     ---       #65
LX51 LINKER/LOCATER V4.66.87.0                                                        05/30/2018  17:25:18  PAGE 187


      01001CA0H   LINE      CODE     ---       #66
      01001CA3H   LINE      CODE     ---       #67
      01001CA3H   LINE      CODE     ---       #68
      01001CA3H   LINE      CODE     ---       #69
      01001CADH   LINE      CODE     ---       #70
      01001CB4H   LINE      CODE     ---       #71
      01001CBBH   LINE      CODE     ---       #72
      01001CC0H   LINE      CODE     ---       #73
      01001CC0H   LINE      CODE     ---       #74
      01001CC0H   LINE      CODE     ---       #75
      01001CC3H   LINE      CODE     ---       #76
      01001CC5H   LINE      CODE     ---       #77
      01001CC5H   LINE      CODE     ---       #78
      01001CC8H   LINE      CODE     ---       #79
      01001CC8H   LINE      CODE     ---       #80
      01001CC8H   LINE      CODE     ---       #81
      01001CCAH   LINE      CODE     ---       #82
      01001CD1H   LINE      CODE     ---       #83
      01001CD8H   LINE      CODE     ---       #84
      01001CDFH   LINE      CODE     ---       #85
      01001CE6H   LINE      CODE     ---       #86
      01001CEDH   LINE      CODE     ---       #87
      01001CFEH   LINE      CODE     ---       #88
      01001D0AH   LINE      CODE     ---       #89
      01001D0AH   LINE      CODE     ---       #90
      ---         BLOCKEND  ---      ---       LVL=0

      01006A08H   BLOCK     CODE     ---       LVL=0
      02000013H   SYMBOL    XDATA    BYTE      what
      02000014H   SYMBOL    XDATA    BYTE      day
      01006A08H   LINE      CODE     ---       #94
      01006A10H   LINE      CODE     ---       #95
      01006A10H   LINE      CODE     ---       #96
      01006A13H   LINE      CODE     ---       #97
      01006A22H   LINE      CODE     ---       #98
      01006A22H   LINE      CODE     ---       #99
      01006A24H   LINE      CODE     ---       #100
      01006A24H   LINE      CODE     ---       #101
      01006A26H   LINE      CODE     ---       #102
      01006A26H   LINE      CODE     ---       #103
      01006A28H   LINE      CODE     ---       #104
      01006A28H   LINE      CODE     ---       #105
      01006A2AH   LINE      CODE     ---       #106
      01006A2AH   LINE      CODE     ---       #107
      01006A2FH   LINE      CODE     ---       #108
      01006A33H   LINE      CODE     ---       #109
      01006A37H   LINE      CODE     ---       #110
      01006A37H   LINE      CODE     ---       #111
      01006A37H   LINE      CODE     ---       #112
      ---         BLOCKEND  ---      ---       LVL=0

      0100618BH   BLOCK     CODE     ---       LVL=0
      02000014H   SYMBOL    XDATA    BYTE      what
      0100618BH   LINE      CODE     ---       #116
      01006190H   LINE      CODE     ---       #117
      01006190H   LINE      CODE     ---       #118
      01006193H   LINE      CODE     ---       #119
      010061A2H   LINE      CODE     ---       #120
      010061A2H   LINE      CODE     ---       #121
      010061A5H   LINE      CODE     ---       #122
      010061A7H   LINE      CODE     ---       #123
      010061ACH   LINE      CODE     ---       #124
      010061B0H   LINE      CODE     ---       #125
      010061B0H   LINE      CODE     ---       #126
      010061B3H   LINE      CODE     ---       #127
LX51 LINKER/LOCATER V4.66.87.0                                                        05/30/2018  17:25:18  PAGE 188


      010061B5H   LINE      CODE     ---       #128
      010061B5H   LINE      CODE     ---       #129
      010061B8H   LINE      CODE     ---       #130
      010061BAH   LINE      CODE     ---       #131
      010061BFH   LINE      CODE     ---       #132
      010061C3H   LINE      CODE     ---       #133
      010061C3H   LINE      CODE     ---       #134
      010061CAH   LINE      CODE     ---       #135
      010061CCH   LINE      CODE     ---       #136
      010061CCH   LINE      CODE     ---       #137
      010061D6H   LINE      CODE     ---       #138
      010061D6H   LINE      CODE     ---       #139
      010061D6H   LINE      CODE     ---       #140
      ---         BLOCKEND  ---      ---       LVL=0

      010078B4H   BLOCK     CODE     ---       LVL=0
      02000013H   SYMBOL    XDATA    BYTE      day
      010078B4H   LINE      CODE     ---       #142
      010078B9H   LINE      CODE     ---       #143
      010078B9H   LINE      CODE     ---       #144
      010078C7H   LINE      CODE     ---       #145
      010078D1H   LINE      CODE     ---       #146
      ---         BLOCKEND  ---      ---       LVL=0

      01006D0AH   BLOCK     CODE     ---       LVL=0
      00000006H   SYMBOL    DATA     BYTE      what
      01006D0AH   LINE      CODE     ---       #149
      01006D0CH   LINE      CODE     ---       #150
      01006D0CH   LINE      CODE     ---       #151
      01006D13H   LINE      CODE     ---       #152
      01006D13H   LINE      CODE     ---       #153
      01006D16H   LINE      CODE     ---       #154
      01006D18H   LINE      CODE     ---       #155
      01006D1DH   LINE      CODE     ---       #156
      01006D21H   LINE      CODE     ---       #157
      01006D21H   LINE      CODE     ---       #158
      01006D24H   LINE      CODE     ---       #159
      01006D26H   LINE      CODE     ---       #160
      01006D26H   LINE      CODE     ---       #161
      01006D29H   LINE      CODE     ---       #162
      01006D2BH   LINE      CODE     ---       #163
      01006D30H   LINE      CODE     ---       #164
      01006D34H   LINE      CODE     ---       #165
      01006D34H   LINE      CODE     ---       #166
      01006D37H   LINE      CODE     ---       #167
      01006D37H   LINE      CODE     ---       #168
      01006D37H   LINE      CODE     ---       #169
      ---         BLOCKEND  ---      ---       LVL=0

      01008692H   BLOCK     CODE     ---       LVL=0
      02000013H   SYMBOL    XDATA    BYTE      what
      01008692H   LINE      CODE     ---       #172
      01008697H   LINE      CODE     ---       #173
      01008697H   LINE      CODE     ---       #174
      0100869AH   LINE      CODE     ---       #175
      ---         BLOCKEND  ---      ---       LVL=0

      0100793AH   BLOCK     CODE     ---       LVL=0
      0100793AH   LINE      CODE     ---       #178
      0100793AH   LINE      CODE     ---       #179
      0100793AH   LINE      CODE     ---       #180
      01007943H   LINE      CODE     ---       #181
      01007946H   LINE      CODE     ---       #182
      01007954H   LINE      CODE     ---       #183
      ---         BLOCKEND  ---      ---       LVL=0
LX51 LINKER/LOCATER V4.66.87.0                                                        05/30/2018  17:25:18  PAGE 189



      0100842AH   BLOCK     CODE     ---       LVL=0
      0100842AH   LINE      CODE     ---       #186
      0100842AH   LINE      CODE     ---       #187
      0100842AH   LINE      CODE     ---       #188
      0100842DH   LINE      CODE     ---       #189
      01008437H   LINE      CODE     ---       #190
      ---         BLOCKEND  ---      ---       LVL=0

      01008767H   BLOCK     CODE     ---       LVL=0
      00000007H   SYMBOL    DATA     BYTE      from
      00000005H   SYMBOL    DATA     BYTE      to
      00000006H   SYMBOL    DATA     BYTE      ev
      01008767H   LINE      CODE     ---       #193
      01008769H   LINE      CODE     ---       #194
      01008769H   LINE      CODE     ---       #195
      0100876FH   LINE      CODE     ---       #196
      ---         BLOCKEND  ---      ---       LVL=0

      01005606H   BLOCK     CODE     ---       LVL=0
      02000011H   SYMBOL    XDATA    BYTE      from
      00000005H   SYMBOL    DATA     BYTE      to
      02000012H   SYMBOL    XDATA    BYTE      ev
      01005606H   LINE      CODE     ---       #199
      0100560FH   LINE      CODE     ---       #200
      0100560FH   LINE      CODE     ---       #201
      01005615H   LINE      CODE     ---       #203
      01005622H   LINE      CODE     ---       #204
      01005622H   LINE      CODE     ---       #205
      01005628H   LINE      CODE     ---       #207
      01005628H   LINE      CODE     ---       #210
      0100562FH   LINE      CODE     ---       #211
      01005634H   LINE      CODE     ---       #213
      01005634H   LINE      CODE     ---       #216
      0100563BH   LINE      CODE     ---       #217
      01005642H   LINE      CODE     ---       #218
      01005647H   LINE      CODE     ---       #219
      01005647H   LINE      CODE     ---       #220
      0100564DH   LINE      CODE     ---       #221
      01005654H   LINE      CODE     ---       #223
      01005654H   LINE      CODE     ---       #226
      0100565BH   LINE      CODE     ---       #227
      01005660H   LINE      CODE     ---       #228
      01005665H   LINE      CODE     ---       #230
      01005665H   LINE      CODE     ---       #231
      ---         BLOCKEND  ---      ---       LVL=0

      010058F8H   BLOCK     CODE     ---       LVL=0
      00000007H   SYMBOL    DATA     BYTE      from
      00000005H   SYMBOL    DATA     BYTE      to
      02000011H   SYMBOL    XDATA    BYTE      ev
      010058F8H   LINE      CODE     ---       #233
      010058FEH   LINE      CODE     ---       #234
      010058FEH   LINE      CODE     ---       #235
      01005908H   LINE      CODE     ---       #237
      0100590FH   LINE      CODE     ---       #238
      01005916H   LINE      CODE     ---       #240
      01005916H   LINE      CODE     ---       #244
      0100591DH   LINE      CODE     ---       #245
      01005922H   LINE      CODE     ---       #247
      01005922H   LINE      CODE     ---       #250
      01005929H   LINE      CODE     ---       #251
      01005930H   LINE      CODE     ---       #252
      01005935H   LINE      CODE     ---       #253
      01005935H   LINE      CODE     ---       #254
LX51 LINKER/LOCATER V4.66.87.0                                                        05/30/2018  17:25:18  PAGE 190


      0100593BH   LINE      CODE     ---       #255
      01005942H   LINE      CODE     ---       #257
      01005942H   LINE      CODE     ---       #260
      01005949H   LINE      CODE     ---       #261
      0100594EH   LINE      CODE     ---       #262
      01005953H   LINE      CODE     ---       #264
      01005953H   LINE      CODE     ---       #265
      ---         BLOCKEND  ---      ---       LVL=0

      01005C1BH   BLOCK     CODE     ---       LVL=0
      02000011H   SYMBOL    XDATA    BYTE      from
      00000005H   SYMBOL    DATA     BYTE      to
      02000012H   SYMBOL    XDATA    BYTE      ev
      01005C1BH   LINE      CODE     ---       #267
      01005C24H   LINE      CODE     ---       #268
      01005C24H   LINE      CODE     ---       #269
      01005C30H   LINE      CODE     ---       #271
      01005C3AH   LINE      CODE     ---       #272
      01005C40H   LINE      CODE     ---       #273
      01005C43H   LINE      CODE     ---       #275
      01005C43H   LINE      CODE     ---       #277
      01005C4AH   LINE      CODE     ---       #278
      01005C52H   LINE      CODE     ---       #279
      01005C52H   LINE      CODE     ---       #281
      01005C59H   LINE      CODE     ---       #282
      01005C5FH   LINE      CODE     ---       #283
      01005C66H   LINE      CODE     ---       #284
      01005C6BH   LINE      CODE     ---       #285
      01005C6BH   LINE      CODE     ---       #286
      01005C71H   LINE      CODE     ---       #287
      01005C71H   LINE      CODE     ---       #288
      01005C71H   LINE      CODE     ---       #289
      ---         BLOCKEND  ---      ---       LVL=0

      01007295H   BLOCK     CODE     ---       LVL=0
      00000007H   SYMBOL    DATA     BYTE      from
      00000005H   SYMBOL    DATA     BYTE      to
      02000011H   SYMBOL    XDATA    BYTE      ev
      01007295H   LINE      CODE     ---       #291
      0100729BH   LINE      CODE     ---       #292
      0100729BH   LINE      CODE     ---       #293
      010072A7H   LINE      CODE     ---       #295
      010072AEH   LINE      CODE     ---       #296
      010072B5H   LINE      CODE     ---       #297
      010072B5H   LINE      CODE     ---       #299
      010072BCH   LINE      CODE     ---       #300
      010072BFH   LINE      CODE     ---       #301
      010072BFH   LINE      CODE     ---       #302
      ---         BLOCKEND  ---      ---       LVL=0

      010072C0H   BLOCK     CODE     ---       LVL=0
      00000007H   SYMBOL    DATA     BYTE      from
      00000005H   SYMBOL    DATA     BYTE      to
      02000011H   SYMBOL    XDATA    BYTE      ev
      010072C0H   LINE      CODE     ---       #304
      010072C6H   LINE      CODE     ---       #305
      010072C6H   LINE      CODE     ---       #306
      010072D2H   LINE      CODE     ---       #308
      010072D9H   LINE      CODE     ---       #309
      010072E0H   LINE      CODE     ---       #310
      010072E0H   LINE      CODE     ---       #312
      010072E7H   LINE      CODE     ---       #313
      010072EAH   LINE      CODE     ---       #314
      010072EAH   LINE      CODE     ---       #315
      ---         BLOCKEND  ---      ---       LVL=0
LX51 LINKER/LOCATER V4.66.87.0                                                        05/30/2018  17:25:18  PAGE 191



      ---         MODULE    ---      ---       SM_CLOCK_ALARM
      0100D219H   PUBLIC    CONST    ---       sm_clock_alarm_ss_name
      01004E3BH   PUBLIC    CODE     ---       _sm_clock_alarm
      0100320EH   SYMBOL    CODE     ---       _display_alarm

      01008B51H   BLOCK     CODE     ---       LVL=0
      ---         BLOCKEND  ---      ---       LVL=0

      0100320EH   BLOCK     CODE     ---       LVL=0
      02000013H   SYMBOL    XDATA    BYTE      what
      01003213H   BLOCK     CODE     NEAR LAB  LVL=1
      02000014H   SYMBOL    XDATA    BYTE      hour
      02000015H   SYMBOL    XDATA    BYTE      min
      00000020H.0 SYMBOL    BIT      BIT       is12
      ---         BLOCKEND  ---      ---       LVL=1
      0100320EH   LINE      CODE     ---       #19
      01003213H   LINE      CODE     ---       #20
      01003213H   LINE      CODE     ---       #23
      01003216H   LINE      CODE     ---       #24
      01003225H   LINE      CODE     ---       #25
      01003225H   LINE      CODE     ---       #26
      01003225H   LINE      CODE     ---       #27
      01003229H   LINE      CODE     ---       #28
      01003230H   LINE      CODE     ---       #29
      01003232H   LINE      CODE     ---       #30
      01003234H   LINE      CODE     ---       #31
      0100323BH   LINE      CODE     ---       #32
      01003242H   LINE      CODE     ---       #33
      01003242H   LINE      CODE     ---       #34
      01003249H   LINE      CODE     ---       #35
      01003251H   LINE      CODE     ---       #36
      01003259H   LINE      CODE     ---       #37
      0100325EH   LINE      CODE     ---       #38
      01003260H   LINE      CODE     ---       #39
      01003268H   LINE      CODE     ---       #40
      0100326EH   LINE      CODE     ---       #41
      01003273H   LINE      CODE     ---       #42
      01003273H   LINE      CODE     ---       #43
      01003278H   LINE      CODE     ---       #44
      0100327CH   LINE      CODE     ---       #45
      01003288H   LINE      CODE     ---       #46
      0100328CH   LINE      CODE     ---       #47
      01003290H   LINE      CODE     ---       #48
      0100329CH   LINE      CODE     ---       #49
      010032A1H   LINE      CODE     ---       #50
      010032A3H   LINE      CODE     ---       #51
      010032A8H   LINE      CODE     ---       #52
      010032A8H   LINE      CODE     ---       #53
      010032B2H   LINE      CODE     ---       #54
      010032B5H   LINE      CODE     ---       #55
      010032B7H   LINE      CODE     ---       #56
      010032BEH   LINE      CODE     ---       #57
      010032BEH   LINE      CODE     ---       #58
      010032CAH   LINE      CODE     ---       #59
      010032CFH   LINE      CODE     ---       #60
      010032DCH   LINE      CODE     ---       #61
      010032DCH   LINE      CODE     ---       #62
      010032DCH   LINE      CODE     ---       #63
      ---         BLOCKEND  ---      ---       LVL=0

      01004E3BH   BLOCK     CODE     ---       LVL=0
      00000007H   SYMBOL    DATA     BYTE      from
      02000011H   SYMBOL    XDATA    BYTE      to
      02000012H   SYMBOL    XDATA    BYTE      ev
LX51 LINKER/LOCATER V4.66.87.0                                                        05/30/2018  17:25:18  PAGE 192


      01004E3BH   LINE      CODE     ---       #65
      01004E44H   LINE      CODE     ---       #66
      01004E44H   LINE      CODE     ---       #67
      01004E58H   LINE      CODE     ---       #70
      01004E62H   LINE      CODE     ---       #71
      01004E67H   LINE      CODE     ---       #72
      01004E6CH   LINE      CODE     ---       #73
      01004E71H   LINE      CODE     ---       #75
      01004E73H   LINE      CODE     ---       #76
      01004E73H   LINE      CODE     ---       #78
      01004E73H   LINE      CODE     ---       #81
      01004E7FH   LINE      CODE     ---       #82
      01004E84H   LINE      CODE     ---       #83
      01004E89H   LINE      CODE     ---       #84
      01004E8CH   LINE      CODE     ---       #85
      01004E92H   LINE      CODE     ---       #87
      01004E92H   LINE      CODE     ---       #89
      01004E9EH   LINE      CODE     ---       #90
      01004EA9H   LINE      CODE     ---       #91
      01004EAFH   LINE      CODE     ---       #92
      01004EAFH   LINE      CODE     ---       #94
      01004EAFH   LINE      CODE     ---       #95
      ---         BLOCKEND  ---      ---       LVL=0

      ---         MODULE    ---      ---       SM_CLOCK_MOD_TIME
      0100B91BH   PUBLIC    CONST    ---       sm_clock_mod_time_name
      01007C4EH   PUBLIC    CODE     ---       _sm_clock_mod_time_submod5
      01007C32H   PUBLIC    CODE     ---       _sm_clock_mod_time_submod4
      01007C16H   PUBLIC    CODE     ---       _sm_clock_mod_time_submod3
      01007BFAH   PUBLIC    CODE     ---       _sm_clock_mod_time_submod2
      01007F96H   PUBLIC    CODE     ---       _sm_clock_mod_time_submod1
      01007269H   PUBLIC    CODE     ---       _sm_clock_mod_time_submod0
      01007F17H   PUBLIC    CODE     ---       _sm_clock_mod_time_init
      01004540H   SYMBOL    CODE     ---       update_yymmdd
      01003AB3H   SYMBOL    CODE     ---       _sm_clock_mod_time
      010073BEH   SYMBOL    CODE     ---       _enter_hhmmss
      010072EBH   SYMBOL    CODE     ---       _enter_yymmdd
      010052EEH   SYMBOL    CODE     ---       _write_only
      010086A2H   SYMBOL    CODE     ---       _inc_and_write
      0100413DH   SYMBOL    CODE     ---       _inc_only
      01003879H   SYMBOL    CODE     ---       update_hhmmss

      0100782BH   BLOCK     CODE     ---       LVL=0
      ---         BLOCKEND  ---      ---       LVL=0

      01003879H   BLOCK     CODE     ---       LVL=0
      01003879H   BLOCK     CODE     NEAR LAB  LVL=1
      02000017H   SYMBOL    XDATA    BYTE      hour
      02000018H   SYMBOL    XDATA    BYTE      min
      02000019H   SYMBOL    XDATA    BYTE      sec
      ---         BLOCKEND  ---      ---       LVL=1
      01003879H   LINE      CODE     ---       #21
      01003879H   LINE      CODE     ---       #22
      01003879H   LINE      CODE     ---       #25
      01003881H   LINE      CODE     ---       #26
      01003887H   LINE      CODE     ---       #27
      0100388DH   LINE      CODE     ---       #30
      01003892H   LINE      CODE     ---       #31
      01003896H   LINE      CODE     ---       #32
      0100389AH   LINE      CODE     ---       #33
      0100389EH   LINE      CODE     ---       #36
      010038ABH   LINE      CODE     ---       #37
      010038AFH   LINE      CODE     ---       #38
      010038B3H   LINE      CODE     ---       #39
      010038C1H   LINE      CODE     ---       #40
LX51 LINKER/LOCATER V4.66.87.0                                                        05/30/2018  17:25:18  PAGE 193


      010038C6H   LINE      CODE     ---       #41
      010038C8H   LINE      CODE     ---       #42
      010038CDH   LINE      CODE     ---       #43
      010038CDH   LINE      CODE     ---       #46
      010038EEH   LINE      CODE     ---       #48
      010038F8H   LINE      CODE     ---       #49
      010038FBH   LINE      CODE     ---       #50
      010038FDH   LINE      CODE     ---       #51
      01003904H   LINE      CODE     ---       #52
      01003904H   LINE      CODE     ---       #53
      0100390FH   LINE      CODE     ---       #54
      0100391AH   LINE      CODE     ---       #55
      01003925H   LINE      CODE     ---       #56
      01003930H   LINE      CODE     ---       #57
      ---         BLOCKEND  ---      ---       LVL=0

      01004540H   BLOCK     CODE     ---       LVL=0
      01004540H   BLOCK     CODE     NEAR LAB  LVL=1
      02000017H   SYMBOL    XDATA    BYTE      year
      02000018H   SYMBOL    XDATA    BYTE      mon
      02000019H   SYMBOL    XDATA    BYTE      date
      ---         BLOCKEND  ---      ---       LVL=1
      01004540H   LINE      CODE     ---       #60
      01004540H   LINE      CODE     ---       #61
      01004540H   LINE      CODE     ---       #65
      01004548H   LINE      CODE     ---       #66
      0100454EH   LINE      CODE     ---       #67
      01004554H   LINE      CODE     ---       #69
      01004559H   LINE      CODE     ---       #70
      0100455EH   LINE      CODE     ---       #72
      0100457FH   LINE      CODE     ---       #74
      01004589H   LINE      CODE     ---       #75
      0100458CH   LINE      CODE     ---       #76
      0100458EH   LINE      CODE     ---       #77
      01004595H   LINE      CODE     ---       #78
      01004595H   LINE      CODE     ---       #79
      010045A0H   LINE      CODE     ---       #80
      010045ABH   LINE      CODE     ---       #81
      010045B6H   LINE      CODE     ---       #82
      010045C1H   LINE      CODE     ---       #83
      ---         BLOCKEND  ---      ---       LVL=0

      0100413DH   BLOCK     CODE     ---       LVL=0
      02000016H   SYMBOL    XDATA    BYTE      what
      0100413DH   LINE      CODE     ---       #87
      01004142H   LINE      CODE     ---       #88
      01004142H   LINE      CODE     ---       #89
      01004155H   LINE      CODE     ---       #90
      01004155H   LINE      CODE     ---       #91
      01004155H   LINE      CODE     ---       #92
      01004158H   LINE      CODE     ---       #93
      0100415AH   LINE      CODE     ---       #94
      0100415CH   LINE      CODE     ---       #95
      0100415FH   LINE      CODE     ---       #96
      0100415FH   LINE      CODE     ---       #97
      01004165H   LINE      CODE     ---       #98
      01004168H   LINE      CODE     ---       #99
      0100416AH   LINE      CODE     ---       #100
      0100416DH   LINE      CODE     ---       #101
      0100416DH   LINE      CODE     ---       #102
      0100416FH   LINE      CODE     ---       #103
      0100416FH   LINE      CODE     ---       #104
      0100416FH   LINE      CODE     ---       #105
      01004172H   LINE      CODE     ---       #106
      01004174H   LINE      CODE     ---       #107
LX51 LINKER/LOCATER V4.66.87.0                                                        05/30/2018  17:25:18  PAGE 194


      01004176H   LINE      CODE     ---       #108
      01004179H   LINE      CODE     ---       #109
      01004179H   LINE      CODE     ---       #110
      01004180H   LINE      CODE     ---       #111
      01004183H   LINE      CODE     ---       #112
      01004185H   LINE      CODE     ---       #113
      01004188H   LINE      CODE     ---       #114
      01004188H   LINE      CODE     ---       #115
      0100418AH   LINE      CODE     ---       #116
      0100418AH   LINE      CODE     ---       #117
      0100418AH   LINE      CODE     ---       #118
      0100418DH   LINE      CODE     ---       #119
      0100418FH   LINE      CODE     ---       #120
      01004194H   LINE      CODE     ---       #121
      01004198H   LINE      CODE     ---       #122
      01004198H   LINE      CODE     ---       #123
      0100419FH   LINE      CODE     ---       #124
      010041A2H   LINE      CODE     ---       #125
      010041A4H   LINE      CODE     ---       #126
      010041A7H   LINE      CODE     ---       #127
      010041A7H   LINE      CODE     ---       #128
      010041A7H   LINE      CODE     ---       #129
      010041A7H   LINE      CODE     ---       #131
      010041B6H   LINE      CODE     ---       #133
      010041B6H   LINE      CODE     ---       #134
      010041B9H   LINE      CODE     ---       #135
      010041CBH   LINE      CODE     ---       #137
      010041CBH   LINE      CODE     ---       #138
      010041CEH   LINE      CODE     ---       #139
      010041CEH   LINE      CODE     ---       #140
      ---         BLOCKEND  ---      ---       LVL=0

      010052EEH   BLOCK     CODE     ---       LVL=0
      00000007H   SYMBOL    DATA     BYTE      what
      010052EEH   LINE      CODE     ---       #142
      010052EEH   LINE      CODE     ---       #143
      010052EEH   LINE      CODE     ---       #144
      01005302H   LINE      CODE     ---       #145
      01005302H   LINE      CODE     ---       #146
      01005305H   LINE      CODE     ---       #147
      01005307H   LINE      CODE     ---       #148
      01005307H   LINE      CODE     ---       #149
      01005307H   LINE      CODE     ---       #150
      01005307H   LINE      CODE     ---       #151
      01005307H   LINE      CODE     ---       #152
      01005309H   LINE      CODE     ---       #153
      01005309H   LINE      CODE     ---       #154
      0100530CH   LINE      CODE     ---       #155
      01005311H   LINE      CODE     ---       #156
      01005313H   LINE      CODE     ---       #157
      01005315H   LINE      CODE     ---       #158
      01005315H   LINE      CODE     ---       #159
      01005315H   LINE      CODE     ---       #160
      01005317H   LINE      CODE     ---       #161
      01005317H   LINE      CODE     ---       #162
      0100531AH   LINE      CODE     ---       #163
      0100531FH   LINE      CODE     ---       #164
      01005321H   LINE      CODE     ---       #165
      01005323H   LINE      CODE     ---       #166
      01005323H   LINE      CODE     ---       #167
      01005323H   LINE      CODE     ---       #168
      01005325H   LINE      CODE     ---       #169
      01005325H   LINE      CODE     ---       #170
      01005328H   LINE      CODE     ---       #171
      0100532DH   LINE      CODE     ---       #172
LX51 LINKER/LOCATER V4.66.87.0                                                        05/30/2018  17:25:18  PAGE 195


      0100532FH   LINE      CODE     ---       #173
      01005331H   LINE      CODE     ---       #174
      01005331H   LINE      CODE     ---       #175
      01005331H   LINE      CODE     ---       #176
      01005333H   LINE      CODE     ---       #177
      01005333H   LINE      CODE     ---       #178
      01005336H   LINE      CODE     ---       #179
      0100533BH   LINE      CODE     ---       #180
      0100533DH   LINE      CODE     ---       #181
      0100533FH   LINE      CODE     ---       #182
      0100533FH   LINE      CODE     ---       #183
      0100533FH   LINE      CODE     ---       #184
      01005341H   LINE      CODE     ---       #185
      01005341H   LINE      CODE     ---       #186
      01005344H   LINE      CODE     ---       #187
      01005349H   LINE      CODE     ---       #188
      0100534BH   LINE      CODE     ---       #189
      01005350H   LINE      CODE     ---       #190
      01005354H   LINE      CODE     ---       #191
      01005354H   LINE      CODE     ---       #192
      01005354H   LINE      CODE     ---       #193
      01005354H   LINE      CODE     ---       #195
      ---         BLOCKEND  ---      ---       LVL=0

      010086A2H   BLOCK     CODE     ---       LVL=0
      02000015H   SYMBOL    XDATA    BYTE      what
      010086A2H   LINE      CODE     ---       #197
      010086A7H   LINE      CODE     ---       #198
      010086A7H   LINE      CODE     ---       #199
      010086AAH   LINE      CODE     ---       #200
      ---         BLOCKEND  ---      ---       LVL=0

      010073BEH   BLOCK     CODE     ---       LVL=0
      02000015H   SYMBOL    XDATA    BYTE      what
      010073BEH   LINE      CODE     ---       #204
      010073C3H   LINE      CODE     ---       #205
      010073C3H   LINE      CODE     ---       #206
      010073C6H   LINE      CODE     ---       #207
      010073D4H   LINE      CODE     ---       #208
      010073D4H   LINE      CODE     ---       #209
      010073D6H   LINE      CODE     ---       #210
      010073D6H   LINE      CODE     ---       #211
      010073D8H   LINE      CODE     ---       #212
      010073D8H   LINE      CODE     ---       #213
      010073DAH   LINE      CODE     ---       #214
      010073DAH   LINE      CODE     ---       #215
      010073DCH   LINE      CODE     ---       #216
      010073DCH   LINE      CODE     ---       #217
      010073E1H   LINE      CODE     ---       #218
      010073E5H   LINE      CODE     ---       #219
      010073E5H   LINE      CODE     ---       #220
      010073E5H   LINE      CODE     ---       #221
      ---         BLOCKEND  ---      ---       LVL=0

      010072EBH   BLOCK     CODE     ---       LVL=0
      02000015H   SYMBOL    XDATA    BYTE      what
      010072EBH   LINE      CODE     ---       #225
      010072F0H   LINE      CODE     ---       #226
      010072F0H   LINE      CODE     ---       #227
      010072F3H   LINE      CODE     ---       #228
      01007302H   LINE      CODE     ---       #229
      01007302H   LINE      CODE     ---       #230
      01007304H   LINE      CODE     ---       #231
      01007304H   LINE      CODE     ---       #232
      01007306H   LINE      CODE     ---       #233
LX51 LINKER/LOCATER V4.66.87.0                                                        05/30/2018  17:25:18  PAGE 196


      01007306H   LINE      CODE     ---       #234
      01007308H   LINE      CODE     ---       #235
      01007308H   LINE      CODE     ---       #236
      0100730AH   LINE      CODE     ---       #237
      0100730AH   LINE      CODE     ---       #238
      0100730FH   LINE      CODE     ---       #239
      01007313H   LINE      CODE     ---       #240
      01007313H   LINE      CODE     ---       #241
      01007313H   LINE      CODE     ---       #242
      ---         BLOCKEND  ---      ---       LVL=0

      01007F17H   BLOCK     CODE     ---       LVL=0
      00000007H   SYMBOL    DATA     BYTE      from
      00000005H   SYMBOL    DATA     BYTE      to
      00000006H   SYMBOL    DATA     BYTE      ev
      01007F17H   LINE      CODE     ---       #245
      01007F19H   LINE      CODE     ---       #246
      01007F19H   LINE      CODE     ---       #247
      01007F25H   LINE      CODE     ---       #248
      01007F2AH   LINE      CODE     ---       #249
      ---         BLOCKEND  ---      ---       LVL=0

      01003AB3H   BLOCK     CODE     ---       LVL=0
      02000013H   SYMBOL    XDATA    BYTE      what
      02000014H   SYMBOL    XDATA    BYTE      ev
      01003AB3H   LINE      CODE     ---       #252
      01003ABBH   LINE      CODE     ---       #253
      01003ABBH   LINE      CODE     ---       #255
      01003ABFH   LINE      CODE     ---       #256
      01003ACEH   LINE      CODE     ---       #258
      01003ACEH   LINE      CODE     ---       #259
      01003AD1H   LINE      CODE     ---       #260
      01003AE7H   LINE      CODE     ---       #262
      01003AE7H   LINE      CODE     ---       #263
      01003AEFH   LINE      CODE     ---       #264
      01003AEFH   LINE      CODE     ---       #266
      01003AEFH   LINE      CODE     ---       #268
      01003AF6H   LINE      CODE     ---       #269
      01003AFEH   LINE      CODE     ---       #271
      01003AFEH   LINE      CODE     ---       #274
      01003B05H   LINE      CODE     ---       #275
      01003B0CH   LINE      CODE     ---       #276
      01003B14H   LINE      CODE     ---       #277
      01003B14H   LINE      CODE     ---       #278
      01003B1AH   LINE      CODE     ---       #279
      01003B21H   LINE      CODE     ---       #281
      01003B21H   LINE      CODE     ---       #284
      01003B28H   LINE      CODE     ---       #285
      01003B30H   LINE      CODE     ---       #286
      01003B36H   LINE      CODE     ---       #288
      01003B36H   LINE      CODE     ---       #291
      01003B3CH   LINE      CODE     ---       #292
      01003B45H   LINE      CODE     ---       #294
      01003B45H   LINE      CODE     ---       #296
      01003B45H   LINE      CODE     ---       #297
      01003B54H   LINE      CODE     ---       #299
      01003B54H   LINE      CODE     ---       #300
      01003B57H   LINE      CODE     ---       #301
      01003B69H   LINE      CODE     ---       #303
      01003B69H   LINE      CODE     ---       #304
      01003B6CH   LINE      CODE     ---       #305
      01003B6CH   LINE      CODE     ---       #307
      01003B6CH   LINE      CODE     ---       #308
      ---         BLOCKEND  ---      ---       LVL=0

LX51 LINKER/LOCATER V4.66.87.0                                                        05/30/2018  17:25:18  PAGE 197


      01007269H   BLOCK     CODE     ---       LVL=0
      02000011H   SYMBOL    XDATA    BYTE      from
      00000005H   SYMBOL    DATA     BYTE      to
      02000012H   SYMBOL    XDATA    BYTE      ev
      01007269H   LINE      CODE     ---       #310
      01007271H   LINE      CODE     ---       #311
      01007271H   LINE      CODE     ---       #312
      0100727BH   LINE      CODE     ---       #314
      01007288H   LINE      CODE     ---       #315
      01007288H   LINE      CODE     ---       #316
      0100728BH   LINE      CODE     ---       #317
      0100728BH   LINE      CODE     ---       #319
      ---         BLOCKEND  ---      ---       LVL=0

      01007F96H   BLOCK     CODE     ---       LVL=0
      00000007H   SYMBOL    DATA     BYTE      from
      00000005H   SYMBOL    DATA     BYTE      to
      02000011H   SYMBOL    XDATA    BYTE      ev
      01007F96H   LINE      CODE     ---       #322
      01007F9BH   LINE      CODE     ---       #323
      01007F9BH   LINE      CODE     ---       #324
      01007FA5H   LINE      CODE     ---       #326
      ---         BLOCKEND  ---      ---       LVL=0

      01007BFAH   BLOCK     CODE     ---       LVL=0
      00000007H   SYMBOL    DATA     BYTE      from
      00000005H   SYMBOL    DATA     BYTE      to
      02000011H   SYMBOL    XDATA    BYTE      ev
      01007BFAH   LINE      CODE     ---       #329
      01007C00H   LINE      CODE     ---       #330
      01007C00H   LINE      CODE     ---       #331
      01007C0CH   LINE      CODE     ---       #333
      ---         BLOCKEND  ---      ---       LVL=0

      01007C16H   BLOCK     CODE     ---       LVL=0
      00000007H   SYMBOL    DATA     BYTE      from
      00000005H   SYMBOL    DATA     BYTE      to
      02000011H   SYMBOL    XDATA    BYTE      ev
      01007C16H   LINE      CODE     ---       #336
      01007C1CH   LINE      CODE     ---       #337
      01007C1CH   LINE      CODE     ---       #338
      01007C28H   LINE      CODE     ---       #340
      ---         BLOCKEND  ---      ---       LVL=0

      01007C32H   BLOCK     CODE     ---       LVL=0
      00000007H   SYMBOL    DATA     BYTE      from
      00000005H   SYMBOL    DATA     BYTE      to
      02000011H   SYMBOL    XDATA    BYTE      ev
      01007C32H   LINE      CODE     ---       #343
      01007C38H   LINE      CODE     ---       #344
      01007C38H   LINE      CODE     ---       #345
      01007C44H   LINE      CODE     ---       #347
      ---         BLOCKEND  ---      ---       LVL=0

      01007C4EH   BLOCK     CODE     ---       LVL=0
      00000007H   SYMBOL    DATA     BYTE      from
      00000005H   SYMBOL    DATA     BYTE      to
      02000011H   SYMBOL    XDATA    BYTE      ev
      01007C4EH   LINE      CODE     ---       #350
      01007C54H   LINE      CODE     ---       #351
      01007C54H   LINE      CODE     ---       #352
      01007C60H   LINE      CODE     ---       #354
      ---         BLOCKEND  ---      ---       LVL=0

      ---         MODULE    ---      ---       SM_POWER_PACK_DISPLAY
LX51 LINKER/LOCATER V4.66.87.0                                                        05/30/2018  17:25:18  PAGE 198


      0100CD4DH   PUBLIC    CONST    ---       sm_power_pack_display_ss_name
      01005E1DH   PUBLIC    CODE     ---       _sm_power_pack_display_submod0
      01007E7AH   PUBLIC    CODE     ---       _sm_power_pack_display_init
      01005D74H   SYMBOL    CODE     ---       display_power_volume

      01008830H   BLOCK     CODE     ---       LVL=0
      ---         BLOCKEND  ---      ---       LVL=0

      01005D74H   BLOCK     CODE     ---       LVL=0
      01005D74H   BLOCK     CODE     NEAR LAB  LVL=1
      02000012H   SYMBOL    XDATA    BYTE      val
      ---         BLOCKEND  ---      ---       LVL=1
      01005D74H   LINE      CODE     ---       #16
      01005D74H   LINE      CODE     ---       #17
      01005D74H   LINE      CODE     ---       #19
      01005D7CH   LINE      CODE     ---       #20
      01005D7FH   LINE      CODE     ---       #21
      01005D86H   LINE      CODE     ---       #22
      01005D8CH   LINE      CODE     ---       #23
      01005D93H   LINE      CODE     ---       #24
      01005D9CH   LINE      CODE     ---       #25
      01005DA6H   LINE      CODE     ---       #26
      01005DB9H   LINE      CODE     ---       #27
      ---         BLOCKEND  ---      ---       LVL=0

      01007E7AH   BLOCK     CODE     ---       LVL=0
      00000007H   SYMBOL    DATA     BYTE      from
      00000005H   SYMBOL    DATA     BYTE      to
      00000006H   SYMBOL    DATA     BYTE      ev
      01007E7AH   LINE      CODE     ---       #29
      01007E7CH   LINE      CODE     ---       #30
      01007E7CH   LINE      CODE     ---       #31
      01007E86H   LINE      CODE     ---       #32
      01007E8BH   LINE      CODE     ---       #33
      01007E8EH   LINE      CODE     ---       #34
      ---         BLOCKEND  ---      ---       LVL=0

      01005E1DH   BLOCK     CODE     ---       LVL=0
      00000007H   SYMBOL    DATA     BYTE      from
      00000005H   SYMBOL    DATA     BYTE      to
      02000011H   SYMBOL    XDATA    BYTE      ev
      01005E1DH   LINE      CODE     ---       #37
      01005E23H   LINE      CODE     ---       #38
      01005E23H   LINE      CODE     ---       #39
      01005E2DH   LINE      CODE     ---       #40
      01005E3AH   LINE      CODE     ---       #41
      01005E3FH   LINE      CODE     ---       #42
      01005E42H   LINE      CODE     ---       #44
      01005E42H   LINE      CODE     ---       #46
      01005E4FH   LINE      CODE     ---       #47
      01005E52H   LINE      CODE     ---       #48
      01005E59H   LINE      CODE     ---       #49
      01005E62H   LINE      CODE     ---       #50
      01005E62H   LINE      CODE     ---       #51
      01005E62H   LINE      CODE     ---       #53
      01005E69H   LINE      CODE     ---       #54
      01005E6CH   LINE      CODE     ---       #55
      01005E6FH   LINE      CODE     ---       #57
      01005E6FH   LINE      CODE     ---       #59
      ---         BLOCKEND  ---      ---       LVL=0

      ---         MODULE    ---      ---       SM_POWER_PACK_POWERSAVE
      0100CCBAH   PUBLIC    CONST    ---       sm_power_pack_powersave_ss_name
      01007BA4H   PUBLIC    CODE     ---       _sm_power_pack_powersave_submod0
      01008906H   PUBLIC    CODE     ---       _sm_power_pack_powersave_init
LX51 LINKER/LOCATER V4.66.87.0                                                        05/30/2018  17:25:18  PAGE 199



      0100883EH   BLOCK     CODE     ---       LVL=0
      ---         BLOCKEND  ---      ---       LVL=0

      01008906H   BLOCK     CODE     ---       LVL=0
      00000007H   SYMBOL    DATA     BYTE      from
      00000005H   SYMBOL    DATA     BYTE      to
      00000006H   SYMBOL    DATA     BYTE      ev
      01008906H   LINE      CODE     ---       #11
      01008908H   LINE      CODE     ---       #12
      01008908H   LINE      CODE     ---       #13
      ---         BLOCKEND  ---      ---       LVL=0

      01007BA4H   BLOCK     CODE     ---       LVL=0
      00000007H   SYMBOL    DATA     BYTE      from
      00000005H   SYMBOL    DATA     BYTE      to
      02000011H   SYMBOL    XDATA    BYTE      ev
      01007BA4H   LINE      CODE     ---       #16
      01007BAAH   LINE      CODE     ---       #17
      01007BAAH   LINE      CODE     ---       #18
      01007BB4H   LINE      CODE     ---       #20
      01007BBAH   LINE      CODE     ---       #21
      01007BBDH   LINE      CODE     ---       #22
      01007BC0H   LINE      CODE     ---       #24
      01007BC0H   LINE      CODE     ---       #25
      ---         BLOCKEND  ---      ---       LVL=0

      ---         MODULE    ---      ---       SM_FUSE_TEST
      0100ADD0H   PUBLIC    CONST    ---       sm_fuse_test_ss_name
      01007D2EH   PUBLIC    CODE     ---       _sm_fuse_test_submod8
      01007D12H   PUBLIC    CODE     ---       _sm_fuse_test_submod7
      01007CF6H   PUBLIC    CODE     ---       _sm_fuse_test_submod6
      01007CDAH   PUBLIC    CODE     ---       _sm_fuse_test_submod5
      01007CBEH   PUBLIC    CODE     ---       _sm_fuse_test_submod4
      01007CA2H   PUBLIC    CODE     ---       _sm_fuse_test_submod3
      01007C86H   PUBLIC    CODE     ---       _sm_fuse_test_submod2
      01007C6AH   PUBLIC    CODE     ---       _sm_fuse_test_submod1
      0100232AH   PUBLIC    CODE     ---       _sm_fuse_test_submod0
      010068A9H   PUBLIC    CODE     ---       _sm_fuse_test_init
      01001837H   SYMBOL    CODE     ---       _sm_fuse_test_hg_mpu
      010019FFH   SYMBOL    CODE     ---       _sm_fuse_test_thermo
      0100162BH   SYMBOL    CODE     ---       _display_test
      01005954H   SYMBOL    CODE     ---       _sm_fuse_set
      0100393BH   SYMBOL    CODE     ---       _update_set
      01005E70H   SYMBOL    CODE     ---       _update_hg_mask
      010078D6H   SYMBOL    CODE     ---       _inc_write
      01004392H   SYMBOL    CODE     ---       _enter_set
      01005ABCH   SYMBOL    CODE     ---       _write_only
      01005666H   SYMBOL    CODE     ---       _inc_only

      01004876H   BLOCK     CODE     ---       LVL=0
      ---         BLOCKEND  ---      ---       LVL=0

      010068A9H   BLOCK     CODE     ---       LVL=0
      00000007H   SYMBOL    DATA     BYTE      from
      00000005H   SYMBOL    DATA     BYTE      to
      02000011H   SYMBOL    XDATA    BYTE      ev
      010068A9H   LINE      CODE     ---       #51
      010068AEH   LINE      CODE     ---       #52
      010068AEH   LINE      CODE     ---       #53
      010068B8H   LINE      CODE     ---       #54
      010068BDH   LINE      CODE     ---       #55
      010068C4H   LINE      CODE     ---       #56
      010068C7H   LINE      CODE     ---       #57
      010068CCH   LINE      CODE     ---       #58
LX51 LINKER/LOCATER V4.66.87.0                                                        05/30/2018  17:25:18  PAGE 200


      010068D1H   LINE      CODE     ---       #59
      010068D1H   LINE      CODE     ---       #60
      010068D4H   LINE      CODE     ---       #61
      010068DBH   LINE      CODE     ---       #62
      010068E4H   LINE      CODE     ---       #63
      010068E4H   LINE      CODE     ---       #64
      ---         BLOCKEND  ---      ---       LVL=0

      01005E70H   BLOCK     CODE     ---       LVL=0
      02000015H   SYMBOL    XDATA    BYTE      state
      02000016H   SYMBOL    XDATA    BYTE      mask
      01005E7AH   BLOCK     CODE     NEAR LAB  LVL=1
      00000005H   SYMBOL    DATA     BYTE      val
      ---         BLOCKEND  ---      ---       LVL=1
      01005E70H   LINE      CODE     ---       #66
      01005E7AH   LINE      CODE     ---       #67
      01005E7AH   LINE      CODE     ---       #69
      01005E88H   LINE      CODE     ---       #70
      01005E93H   LINE      CODE     ---       #71
      01005E97H   LINE      CODE     ---       #72
      01005E9BH   LINE      CODE     ---       #73
      01005E9FH   LINE      CODE     ---       #74
      01005EA5H   LINE      CODE     ---       #75
      01005EB5H   LINE      CODE     ---       #76
      01005EB8H   LINE      CODE     ---       #77
      ---         BLOCKEND  ---      ---       LVL=0

      0100162BH   BLOCK     CODE     ---       LVL=0
      02000015H   SYMBOL    XDATA    BYTE      what
      02000016H   SYMBOL    XDATA    BYTE      stage
      02000017H   SYMBOL    XDATA    BYTE      val
      02000018H   SYMBOL    XDATA    BYTE      errcode
      01001636H   BLOCK     CODE     NEAR LAB  LVL=1
      00000003H   SYMBOL    DATA     CHAR      tmp
      ---         BLOCKEND  ---      ---       LVL=1
      0100162BH   LINE      CODE     ---       #79
      01001636H   LINE      CODE     ---       #80
      01001636H   LINE      CODE     ---       #82
      01001648H   LINE      CODE     ---       #84
      0100164BH   LINE      CODE     ---       #86
      01001650H   LINE      CODE     ---       #87
      01001654H   LINE      CODE     ---       #89
      0100165BH   LINE      CODE     ---       #90
      01001660H   LINE      CODE     ---       #91
      01001667H   LINE      CODE     ---       #92
      0100166EH   LINE      CODE     ---       #93
      0100166EH   LINE      CODE     ---       #94
      01001674H   LINE      CODE     ---       #95
      01001677H   LINE      CODE     ---       #96
      0100167EH   LINE      CODE     ---       #97
      01001680H   LINE      CODE     ---       #98
      01001689H   LINE      CODE     ---       #99
      0100168CH   LINE      CODE     ---       #100
      01001693H   LINE      CODE     ---       #101
      0100169AH   LINE      CODE     ---       #102
      0100169AH   LINE      CODE     ---       #104
      010016BBH   LINE      CODE     ---       #105
      010016BBH   LINE      CODE     ---       #106
      010016BBH   LINE      CODE     ---       #107
      010016BBH   LINE      CODE     ---       #108
      010016C2H   LINE      CODE     ---       #109
      010016C9H   LINE      CODE     ---       #110
      010016D2H   LINE      CODE     ---       #111
      010016D2H   LINE      CODE     ---       #112
      010016D2H   LINE      CODE     ---       #113
LX51 LINKER/LOCATER V4.66.87.0                                                        05/30/2018  17:25:18  PAGE 201


      010016D2H   LINE      CODE     ---       #114
      010016D2H   LINE      CODE     ---       #115
      010016D2H   LINE      CODE     ---       #116
      010016D2H   LINE      CODE     ---       #117
      010016D2H   LINE      CODE     ---       #118
      010016E5H   LINE      CODE     ---       #119
      010016EDH   LINE      CODE     ---       #120
      010016F3H   LINE      CODE     ---       #121
      010016FCH   LINE      CODE     ---       #122
      010016FFH   LINE      CODE     ---       #123
      01001701H   LINE      CODE     ---       #124
      01001704H   LINE      CODE     ---       #125
      01001704H   LINE      CODE     ---       #126
      0100170BH   LINE      CODE     ---       #127
      0100170BH   LINE      CODE     ---       #128
      0100170EH   LINE      CODE     ---       #129
      0100170EH   LINE      CODE     ---       #130
      0100170EH   LINE      CODE     ---       #131
      01001715H   LINE      CODE     ---       #132
      0100171CH   LINE      CODE     ---       #133
      0100171EH   LINE      CODE     ---       #134
      01001720H   LINE      CODE     ---       #135
      01001727H   LINE      CODE     ---       #136
      01001727H   LINE      CODE     ---       #137
      01001732H   LINE      CODE     ---       #138
      0100173BH   LINE      CODE     ---       #139
      01001744H   LINE      CODE     ---       #140
      01001746H   LINE      CODE     ---       #141
      0100174EH   LINE      CODE     ---       #142
      01001755H   LINE      CODE     ---       #143
      01001759H   LINE      CODE     ---       #144
      01001759H   LINE      CODE     ---       #145
      01001762H   LINE      CODE     ---       #146
      0100176FH   LINE      CODE     ---       #147
      01001772H   LINE      CODE     ---       #148
      01001779H   LINE      CODE     ---       #149
      01001780H   LINE      CODE     ---       #150
      01001782H   LINE      CODE     ---       #151
      01001782H   LINE      CODE     ---       #152
      01001782H   LINE      CODE     ---       #153
      01001785H   LINE      CODE     ---       #154
      01001785H   LINE      CODE     ---       #155
      01001785H   LINE      CODE     ---       #156
      01001789H   LINE      CODE     ---       #157
      01001790H   LINE      CODE     ---       #158
      01001791H   LINE      CODE     ---       #159
      01001793H   LINE      CODE     ---       #160
      0100179AH   LINE      CODE     ---       #161
      010017A1H   LINE      CODE     ---       #162
      010017A1H   LINE      CODE     ---       #163
      010017AAH   LINE      CODE     ---       #164
      010017B1H   LINE      CODE     ---       #165
      010017B4H   LINE      CODE     ---       #166
      010017B9H   LINE      CODE     ---       #167
      010017BEH   LINE      CODE     ---       #168
      010017C3H   LINE      CODE     ---       #169
      010017C7H   LINE      CODE     ---       #170
      010017CBH   LINE      CODE     ---       #171
      010017D0H   LINE      CODE     ---       #172
      010017D2H   LINE      CODE     ---       #173
      010017D5H   LINE      CODE     ---       #175
      010017E2H   LINE      CODE     ---       #176
      010017E5H   LINE      CODE     ---       #177
      010017E7H   LINE      CODE     ---       #178
      010017F6H   LINE      CODE     ---       #179
LX51 LINKER/LOCATER V4.66.87.0                                                        05/30/2018  17:25:18  PAGE 202


      010017F6H   LINE      CODE     ---       #180
      01001802H   LINE      CODE     ---       #181
      01001805H   LINE      CODE     ---       #182
      01001807H   LINE      CODE     ---       #183
      01001815H   LINE      CODE     ---       #184
      01001815H   LINE      CODE     ---       #185
      01001815H   LINE      CODE     ---       #186
      01001815H   LINE      CODE     ---       #187
      01001815H   LINE      CODE     ---       #188
      ---         BLOCKEND  ---      ---       LVL=0

      0100393BH   BLOCK     CODE     ---       LVL=0
      00000007H   SYMBOL    DATA     BYTE      what
      0100393BH   BLOCK     CODE     NEAR LAB  LVL=1
      00000004H   SYMBOL    DATA     CHAR      val
      ---         BLOCKEND  ---      ---       LVL=1
      0100393BH   LINE      CODE     ---       #190
      0100393BH   LINE      CODE     ---       #191
      0100393BH   LINE      CODE     ---       #194
      0100394DH   LINE      CODE     ---       #195
      0100394DH   LINE      CODE     ---       #196
      0100394DH   LINE      CODE     ---       #197
      01003952H   LINE      CODE     ---       #198
      01003955H   LINE      CODE     ---       #199
      01003955H   LINE      CODE     ---       #200
      01003958H   LINE      CODE     ---       #201
      01003958H   LINE      CODE     ---       #202
      0100395AH   LINE      CODE     ---       #203
      01003962H   LINE      CODE     ---       #204
      01003969H   LINE      CODE     ---       #205
      0100396DH   LINE      CODE     ---       #206
      0100396FH   LINE      CODE     ---       #207
      01003972H   LINE      CODE     ---       #208
      01003972H   LINE      CODE     ---       #209
      0100397EH   LINE      CODE     ---       #210
      01003989H   LINE      CODE     ---       #211
      01003989H   LINE      CODE     ---       #212
      0100398BH   LINE      CODE     ---       #213
      0100398BH   LINE      CODE     ---       #214
      01003991H   LINE      CODE     ---       #215
      01003994H   LINE      CODE     ---       #216
      0100399BH   LINE      CODE     ---       #217
      0100399CH   LINE      CODE     ---       #218
      0100399EH   LINE      CODE     ---       #219
      0100399EH   LINE      CODE     ---       #220
      010039A1H   LINE      CODE     ---       #221
      010039A1H   LINE      CODE     ---       #222
      010039A1H   LINE      CODE     ---       #223
      010039A3H   LINE      CODE     ---       #224
      010039A3H   LINE      CODE     ---       #225
      010039AAH   LINE      CODE     ---       #226
      010039B1H   LINE      CODE     ---       #227
      010039B8H   LINE      CODE     ---       #228
      010039B8H   LINE      CODE     ---       #229
      010039BAH   LINE      CODE     ---       #230
      010039BEH   LINE      CODE     ---       #231
      010039C6H   LINE      CODE     ---       #232
      010039D3H   LINE      CODE     ---       #233
      010039D3H   LINE      CODE     ---       #234
      010039D3H   LINE      CODE     ---       #235
      010039D3H   LINE      CODE     ---       #236
      ---         BLOCKEND  ---      ---       LVL=0

      01004392H   BLOCK     CODE     ---       LVL=0
      02000014H   SYMBOL    XDATA    BYTE      what
LX51 LINKER/LOCATER V4.66.87.0                                                        05/30/2018  17:25:18  PAGE 203


      01004392H   LINE      CODE     ---       #239
      01004397H   LINE      CODE     ---       #240
      01004397H   LINE      CODE     ---       #241
      010043A1H   LINE      CODE     ---       #242
      010043A4H   LINE      CODE     ---       #243
      010043A9H   LINE      CODE     ---       #244
      010043ADH   LINE      CODE     ---       #245
      010043B1H   LINE      CODE     ---       #246
      010043B5H   LINE      CODE     ---       #247
      010043B9H   LINE      CODE     ---       #248
      010043CBH   LINE      CODE     ---       #249
      010043CBH   LINE      CODE     ---       #250
      010043CBH   LINE      CODE     ---       #251
      010043D2H   LINE      CODE     ---       #252
      010043D9H   LINE      CODE     ---       #253
      010043DBH   LINE      CODE     ---       #254
      010043DDH   LINE      CODE     ---       #255
      010043E4H   LINE      CODE     ---       #256
      010043E4H   LINE      CODE     ---       #257
      010043EFH   LINE      CODE     ---       #259
      010043F1H   LINE      CODE     ---       #260
      010043F1H   LINE      CODE     ---       #261
      010043F8H   LINE      CODE     ---       #262
      010043FEH   LINE      CODE     ---       #263
      01004400H   LINE      CODE     ---       #264
      01004402H   LINE      CODE     ---       #265
      01004402H   LINE      CODE     ---       #266
      01004409H   LINE      CODE     ---       #267
      01004410H   LINE      CODE     ---       #268
      0100441AH   LINE      CODE     ---       #269
      0100441AH   LINE      CODE     ---       #270
      0100441AH   LINE      CODE     ---       #271
      ---         BLOCKEND  ---      ---       LVL=0

      01005666H   BLOCK     CODE     ---       LVL=0
      02000015H   SYMBOL    XDATA    BYTE      what
      01005666H   LINE      CODE     ---       #274
      0100566BH   LINE      CODE     ---       #275
      0100566BH   LINE      CODE     ---       #277
      01005675H   LINE      CODE     ---       #279
      01005678H   LINE      CODE     ---       #280
      0100567AH   LINE      CODE     ---       #281
      0100567FH   LINE      CODE     ---       #282
      01005683H   LINE      CODE     ---       #283
      01005687H   LINE      CODE     ---       #284
      01005687H   LINE      CODE     ---       #286
      01005699H   LINE      CODE     ---       #287
      01005699H   LINE      CODE     ---       #288
      01005699H   LINE      CODE     ---       #289
      010056A1H   LINE      CODE     ---       #290
      010056A3H   LINE      CODE     ---       #291
      010056A3H   LINE      CODE     ---       #292
      010056B2H   LINE      CODE     ---       #293
      010056B4H   LINE      CODE     ---       #294
      010056B4H   LINE      CODE     ---       #295
      010056BEH   LINE      CODE     ---       #296
      010056BEH   LINE      CODE     ---       #297
      010056BEH   LINE      CODE     ---       #298
      ---         BLOCKEND  ---      ---       LVL=0

      01005ABCH   BLOCK     CODE     ---       LVL=0
      02000015H   SYMBOL    XDATA    BYTE      what
      01005ABCH   LINE      CODE     ---       #301
      01005AC1H   LINE      CODE     ---       #302
      01005AC1H   LINE      CODE     ---       #303
LX51 LINKER/LOCATER V4.66.87.0                                                        05/30/2018  17:25:18  PAGE 204


      01005ACBH   LINE      CODE     ---       #305
      01005ACEH   LINE      CODE     ---       #306
      01005AD0H   LINE      CODE     ---       #307
      01005AD5H   LINE      CODE     ---       #308
      01005AD9H   LINE      CODE     ---       #309
      01005ADDH   LINE      CODE     ---       #310
      01005ADDH   LINE      CODE     ---       #312
      01005AEFH   LINE      CODE     ---       #313
      01005AEFH   LINE      CODE     ---       #314
      01005AF6H   LINE      CODE     ---       #315
      01005AF8H   LINE      CODE     ---       #316
      01005AF8H   LINE      CODE     ---       #317
      01005AFFH   LINE      CODE     ---       #318
      01005B01H   LINE      CODE     ---       #319
      01005B01H   LINE      CODE     ---       #320
      01005B08H   LINE      CODE     ---       #321
      01005B0AH   LINE      CODE     ---       #322
      01005B0AH   LINE      CODE     ---       #323
      01005B14H   LINE      CODE     ---       #324
      01005B14H   LINE      CODE     ---       #325
      01005B14H   LINE      CODE     ---       #326
      ---         BLOCKEND  ---      ---       LVL=0

      010078D6H   BLOCK     CODE     ---       LVL=0
      02000014H   SYMBOL    XDATA    BYTE      what
      010078D6H   LINE      CODE     ---       #328
      010078DBH   LINE      CODE     ---       #329
      010078DBH   LINE      CODE     ---       #330
      010078E8H   LINE      CODE     ---       #331
      010078F0H   LINE      CODE     ---       #332
      ---         BLOCKEND  ---      ---       LVL=0

      010019FFH   BLOCK     CODE     ---       LVL=0
      02000012H   SYMBOL    XDATA    BYTE      what
      02000013H   SYMBOL    XDATA    BYTE      ev
      01001A07H   BLOCK     CODE     NEAR LAB  LVL=1
      02000014H   SYMBOL    XDATA    BYTE      val
      ---         BLOCKEND  ---      ---       LVL=1
      010019FFH   LINE      CODE     ---       #335
      01001A07H   LINE      CODE     ---       #336
      01001A07H   LINE      CODE     ---       #338
      01001A0BH   LINE      CODE     ---       #340
      01001A0BH   LINE      CODE     ---       #341
      01001A0EH   LINE      CODE     ---       #342
      01001A13H   LINE      CODE     ---       #343
      01001A2AH   LINE      CODE     ---       #347
      01001A2AH   LINE      CODE     ---       #349
      01001A38H   LINE      CODE     ---       #351
      01001A3FH   LINE      CODE     ---       #352
      01001A43H   LINE      CODE     ---       #354
      01001A4DH   LINE      CODE     ---       #355
      01001A5EH   LINE      CODE     ---       #356
      01001A66H   LINE      CODE     ---       #358
      01001A68H   LINE      CODE     ---       #359
      01001A6BH   LINE      CODE     ---       #360
      01001A70H   LINE      CODE     ---       #361
      01001A83H   LINE      CODE     ---       #364
      01001A86H   LINE      CODE     ---       #366
      01001A9CH   LINE      CODE     ---       #369
      01001A9FH   LINE      CODE     ---       #371
      01001A9FH   LINE      CODE     ---       #373
      01001AADH   LINE      CODE     ---       #374
      01001AB2H   LINE      CODE     ---       #376
      01001AC8H   LINE      CODE     ---       #379
      01001AC8H   LINE      CODE     ---       #380
LX51 LINKER/LOCATER V4.66.87.0                                                        05/30/2018  17:25:18  PAGE 205


      01001AC8H   LINE      CODE     ---       #381
      01001AD2H   LINE      CODE     ---       #383
      01001AF0H   LINE      CODE     ---       #386
      01001AF0H   LINE      CODE     ---       #387
      01001AF0H   LINE      CODE     ---       #388
      01001AF3H   LINE      CODE     ---       #390
      01001AF3H   LINE      CODE     ---       #392
      01001AFEH   LINE      CODE     ---       #393
      01001B03H   LINE      CODE     ---       #394
      01001B0EH   LINE      CODE     ---       #395
      01001B10H   LINE      CODE     ---       #396
      01001B13H   LINE      CODE     ---       #397
      01001B31H   LINE      CODE     ---       #400
      01001B31H   LINE      CODE     ---       #401
      01001B38H   LINE      CODE     ---       #402
      01001B40H   LINE      CODE     ---       #403
      01001B45H   LINE      CODE     ---       #404
      01001B48H   LINE      CODE     ---       #405
      01001B55H   LINE      CODE     ---       #406
      01001B57H   LINE      CODE     ---       #407
      01001B64H   LINE      CODE     ---       #408
      01001B64H   LINE      CODE     ---       #409
      01001B64H   LINE      CODE     ---       #410
      01001B64H   LINE      CODE     ---       #411
      01001B6EH   LINE      CODE     ---       #412
      01001B73H   LINE      CODE     ---       #413
      01001B76H   LINE      CODE     ---       #414
      01001B86H   LINE      CODE     ---       #415
      01001B86H   LINE      CODE     ---       #416
      01001B96H   LINE      CODE     ---       #417
      01001B9BH   LINE      CODE     ---       #418
      01001BA0H   LINE      CODE     ---       #419
      01001BA0H   LINE      CODE     ---       #420
      01001BA0H   LINE      CODE     ---       #421
      01001BA0H   LINE      CODE     ---       #423
      01001BA0H   LINE      CODE     ---       #424
      ---         BLOCKEND  ---      ---       LVL=0

      01005954H   BLOCK     CODE     ---       LVL=0
      02000012H   SYMBOL    XDATA    BYTE      what
      02000013H   SYMBOL    XDATA    BYTE      ev
      01005954H   LINE      CODE     ---       #426
      0100595CH   LINE      CODE     ---       #427
      0100595CH   LINE      CODE     ---       #428
      0100595FH   LINE      CODE     ---       #429
      01005967H   LINE      CODE     ---       #430
      01005969H   LINE      CODE     ---       #432
      01005969H   LINE      CODE     ---       #434
      01005970H   LINE      CODE     ---       #435
      01005978H   LINE      CODE     ---       #437
      01005978H   LINE      CODE     ---       #439
      0100597FH   LINE      CODE     ---       #440
      01005986H   LINE      CODE     ---       #441
      0100598EH   LINE      CODE     ---       #442
      0100598EH   LINE      CODE     ---       #443
      01005994H   LINE      CODE     ---       #444
      0100599BH   LINE      CODE     ---       #446
      0100599BH   LINE      CODE     ---       #448
      010059A2H   LINE      CODE     ---       #449
      010059AAH   LINE      CODE     ---       #450
      010059AFH   LINE      CODE     ---       #452
      010059AFH   LINE      CODE     ---       #453
      ---         BLOCKEND  ---      ---       LVL=0

      0100232AH   BLOCK     CODE     ---       LVL=0
LX51 LINKER/LOCATER V4.66.87.0                                                        05/30/2018  17:25:18  PAGE 206


      00000007H   SYMBOL    DATA     BYTE      from
      00000005H   SYMBOL    DATA     BYTE      to
      02000011H   SYMBOL    XDATA    BYTE      ev
      0100232AH   LINE      CODE     ---       #461
      01002330H   LINE      CODE     ---       #462
      01002330H   LINE      CODE     ---       #463
      0100233CH   LINE      CODE     ---       #465
      01002349H   LINE      CODE     ---       #467
      01002349H   LINE      CODE     ---       #468
      0100234CH   LINE      CODE     ---       #469
      0100234EH   LINE      CODE     ---       #470
      01002350H   LINE      CODE     ---       #472
      01002350H   LINE      CODE     ---       #474
      0100235EH   LINE      CODE     ---       #476
      01002360H   LINE      CODE     ---       #477
      01002368H   LINE      CODE     ---       #478
      0100236DH   LINE      CODE     ---       #479
      01002370H   LINE      CODE     ---       #481
      01002370H   LINE      CODE     ---       #483
      01002378H   LINE      CODE     ---       #485
      0100237DH   LINE      CODE     ---       #487
      01002380H   LINE      CODE     ---       #488
      01002387H   LINE      CODE     ---       #489
      0100238BH   LINE      CODE     ---       #490
      0100238EH   LINE      CODE     ---       #491
      0100238EH   LINE      CODE     ---       #492
      01002391H   LINE      CODE     ---       #494
      01002396H   LINE      CODE     ---       #495
      01002396H   LINE      CODE     ---       #496
      01002396H   LINE      CODE     ---       #497
      01002399H   LINE      CODE     ---       #499
      01002399H   LINE      CODE     ---       #501
      010023A1H   LINE      CODE     ---       #503
      010023A9H   LINE      CODE     ---       #505
      010023ACH   LINE      CODE     ---       #506
      010023B3H   LINE      CODE     ---       #507
      010023B8H   LINE      CODE     ---       #508
      010023C0H   LINE      CODE     ---       #509
      010023CAH   LINE      CODE     ---       #510
      010023CCH   LINE      CODE     ---       #512
      010023D1H   LINE      CODE     ---       #513
      010023D1H   LINE      CODE     ---       #514
      010023D1H   LINE      CODE     ---       #515
      010023D4H   LINE      CODE     ---       #517
      010023D4H   LINE      CODE     ---       #519
      010023DCH   LINE      CODE     ---       #521
      010023E3H   LINE      CODE     ---       #524
      010023E3H   LINE      CODE     ---       #525
      010023E6H   LINE      CODE     ---       #526
      010023EEH   LINE      CODE     ---       #527
      010023F0H   LINE      CODE     ---       #529
      010023F5H   LINE      CODE     ---       #530
      010023F5H   LINE      CODE     ---       #531
      010023F5H   LINE      CODE     ---       #532
      010023F7H   LINE      CODE     ---       #534
      010023F7H   LINE      CODE     ---       #536
      010023FFH   LINE      CODE     ---       #538
      01002404H   LINE      CODE     ---       #539
      0100240CH   LINE      CODE     ---       #540
      01002412H   LINE      CODE     ---       #541
      01002416H   LINE      CODE     ---       #542
      01002419H   LINE      CODE     ---       #543
      01002426H   LINE      CODE     ---       #544
      01002426H   LINE      CODE     ---       #545
      0100242BH   LINE      CODE     ---       #546
LX51 LINKER/LOCATER V4.66.87.0                                                        05/30/2018  17:25:18  PAGE 207


      01002433H   LINE      CODE     ---       #548
      0100243DH   LINE      CODE     ---       #549
      0100243DH   LINE      CODE     ---       #550
      0100243DH   LINE      CODE     ---       #551
      0100243DH   LINE      CODE     ---       #552
      01002447H   LINE      CODE     ---       #553
      0100244FH   LINE      CODE     ---       #555
      01002459H   LINE      CODE     ---       #556
      01002459H   LINE      CODE     ---       #557
      01002459H   LINE      CODE     ---       #558
      01002459H   LINE      CODE     ---       #559
      01002463H   LINE      CODE     ---       #560
      0100246BH   LINE      CODE     ---       #562
      01002478H   LINE      CODE     ---       #563
      01002478H   LINE      CODE     ---       #564
      0100247BH   LINE      CODE     ---       #565
      0100247BH   LINE      CODE     ---       #566
      0100247BH   LINE      CODE     ---       #568
      0100247BH   LINE      CODE     ---       #569
      ---         BLOCKEND  ---      ---       LVL=0

      01007C6AH   BLOCK     CODE     ---       LVL=0
      00000007H   SYMBOL    DATA     BYTE      from
      00000005H   SYMBOL    DATA     BYTE      to
      02000011H   SYMBOL    XDATA    BYTE      ev
      01007C6AH   LINE      CODE     ---       #571
      01007C70H   LINE      CODE     ---       #572
      01007C70H   LINE      CODE     ---       #573
      01007C7CH   LINE      CODE     ---       #574
      ---         BLOCKEND  ---      ---       LVL=0

      01007C86H   BLOCK     CODE     ---       LVL=0
      00000007H   SYMBOL    DATA     BYTE      from
      00000005H   SYMBOL    DATA     BYTE      to
      02000011H   SYMBOL    XDATA    BYTE      ev
      01007C86H   LINE      CODE     ---       #582
      01007C8CH   LINE      CODE     ---       #583
      01007C8CH   LINE      CODE     ---       #584
      01007C98H   LINE      CODE     ---       #585
      ---         BLOCKEND  ---      ---       LVL=0

      01007CA2H   BLOCK     CODE     ---       LVL=0
      00000007H   SYMBOL    DATA     BYTE      from
      00000005H   SYMBOL    DATA     BYTE      to
      02000011H   SYMBOL    XDATA    BYTE      ev
      01007CA2H   LINE      CODE     ---       #588
      01007CA8H   LINE      CODE     ---       #589
      01007CA8H   LINE      CODE     ---       #590
      01007CB4H   LINE      CODE     ---       #591
      ---         BLOCKEND  ---      ---       LVL=0

      01007CBEH   BLOCK     CODE     ---       LVL=0
      00000007H   SYMBOL    DATA     BYTE      from
      00000005H   SYMBOL    DATA     BYTE      to
      02000011H   SYMBOL    XDATA    BYTE      ev
      01007CBEH   LINE      CODE     ---       #594
      01007CC4H   LINE      CODE     ---       #595
      01007CC4H   LINE      CODE     ---       #596
      01007CD0H   LINE      CODE     ---       #597
      ---         BLOCKEND  ---      ---       LVL=0

      01007CDAH   BLOCK     CODE     ---       LVL=0
      00000007H   SYMBOL    DATA     BYTE      from
      00000005H   SYMBOL    DATA     BYTE      to
      02000011H   SYMBOL    XDATA    BYTE      ev
LX51 LINKER/LOCATER V4.66.87.0                                                        05/30/2018  17:25:18  PAGE 208


      01007CDAH   LINE      CODE     ---       #600
      01007CE0H   LINE      CODE     ---       #601
      01007CE0H   LINE      CODE     ---       #602
      01007CECH   LINE      CODE     ---       #603
      ---         BLOCKEND  ---      ---       LVL=0

      01001837H   BLOCK     CODE     ---       LVL=0
      02000012H   SYMBOL    XDATA    BYTE      what
      02000013H   SYMBOL    XDATA    BYTE      ev
      0100183FH   BLOCK     CODE     NEAR LAB  LVL=1
      02000014H   SYMBOL    XDATA    BYTE      val
      ---         BLOCKEND  ---      ---       LVL=1
      01001837H   LINE      CODE     ---       #606
      0100183FH   LINE      CODE     ---       #607
      0100183FH   LINE      CODE     ---       #610
      01001843H   LINE      CODE     ---       #612
      01001847H   LINE      CODE     ---       #613
      0100184BH   LINE      CODE     ---       #614
      0100184FH   LINE      CODE     ---       #615
      01001856H   LINE      CODE     ---       #616
      0100185BH   LINE      CODE     ---       #617
      0100185DH   LINE      CODE     ---       #618
      01001862H   LINE      CODE     ---       #619
      01001862H   LINE      CODE     ---       #620
      01001869H   LINE      CODE     ---       #622
      01001869H   LINE      CODE     ---       #624
      01001877H   LINE      CODE     ---       #625
      0100188CH   LINE      CODE     ---       #626
      0100189CH   LINE      CODE     ---       #628
      0100189DH   LINE      CODE     ---       #629
      010018A0H   LINE      CODE     ---       #630
      010018A5H   LINE      CODE     ---       #631
      010018A8H   LINE      CODE     ---       #632
      010018B0H   LINE      CODE     ---       #633
      010018C2H   LINE      CODE     ---       #634
      010018C4H   LINE      CODE     ---       #635
      010018C7H   LINE      CODE     ---       #636
      010018CCH   LINE      CODE     ---       #637
      010018CFH   LINE      CODE     ---       #638
      010018D7H   LINE      CODE     ---       #639
      010018DAH   LINE      CODE     ---       #641
      010018E8H   LINE      CODE     ---       #642
      010018EBH   LINE      CODE     ---       #644
      010018EBH   LINE      CODE     ---       #646
      010018F3H   LINE      CODE     ---       #647
      010018F8H   LINE      CODE     ---       #648
      01001903H   LINE      CODE     ---       #649
      0100190EH   LINE      CODE     ---       #650
      0100191CH   LINE      CODE     ---       #652
      0100191FH   LINE      CODE     ---       #653
      0100191FH   LINE      CODE     ---       #654
      0100191FH   LINE      CODE     ---       #655
      0100191FH   LINE      CODE     ---       #656
      0100192DH   LINE      CODE     ---       #658
      01001935H   LINE      CODE     ---       #659
      01001938H   LINE      CODE     ---       #660
      01001938H   LINE      CODE     ---       #661
      0100193BH   LINE      CODE     ---       #663
      0100193BH   LINE      CODE     ---       #665
      01001943H   LINE      CODE     ---       #666
      0100194BH   LINE      CODE     ---       #668
      0100194EH   LINE      CODE     ---       #669
      0100194EH   LINE      CODE     ---       #670
      0100194EH   LINE      CODE     ---       #671
      0100195CH   LINE      CODE     ---       #673
LX51 LINKER/LOCATER V4.66.87.0                                                        05/30/2018  17:25:18  PAGE 209


      01001964H   LINE      CODE     ---       #674
      01001967H   LINE      CODE     ---       #675
      01001967H   LINE      CODE     ---       #676
      01001969H   LINE      CODE     ---       #678
      01001969H   LINE      CODE     ---       #680
      01001971H   LINE      CODE     ---       #681
      01001976H   LINE      CODE     ---       #682
      0100197EH   LINE      CODE     ---       #684
      01001984H   LINE      CODE     ---       #685
      0100198CH   LINE      CODE     ---       #686
      01001993H   LINE      CODE     ---       #687
      01001997H   LINE      CODE     ---       #688
      01001999H   LINE      CODE     ---       #689
      010019A1H   LINE      CODE     ---       #690
      010019A1H   LINE      CODE     ---       #691
      010019AAH   LINE      CODE     ---       #692
      010019AAH   LINE      CODE     ---       #693
      010019AFH   LINE      CODE     ---       #694
      010019BFH   LINE      CODE     ---       #696
      010019C8H   LINE      CODE     ---       #697
      010019CDH   LINE      CODE     ---       #698
      010019D4H   LINE      CODE     ---       #699
      010019D9H   LINE      CODE     ---       #700
      010019D9H   LINE      CODE     ---       #701
      010019DEH   LINE      CODE     ---       #702
      010019DEH   LINE      CODE     ---       #703
      010019DEH   LINE      CODE     ---       #704
      010019DEH   LINE      CODE     ---       #706
      010019DEH   LINE      CODE     ---       #707
      ---         BLOCKEND  ---      ---       LVL=0

      01007CF6H   BLOCK     CODE     ---       LVL=0
      00000007H   SYMBOL    DATA     BYTE      from
      00000005H   SYMBOL    DATA     BYTE      to
      02000011H   SYMBOL    XDATA    BYTE      ev
      01007CF6H   LINE      CODE     ---       #713
      01007CFCH   LINE      CODE     ---       #714
      01007CFCH   LINE      CODE     ---       #715
      01007D08H   LINE      CODE     ---       #716
      ---         BLOCKEND  ---      ---       LVL=0

      01007D12H   BLOCK     CODE     ---       LVL=0
      00000007H   SYMBOL    DATA     BYTE      from
      00000005H   SYMBOL    DATA     BYTE      to
      02000011H   SYMBOL    XDATA    BYTE      ev
      01007D12H   LINE      CODE     ---       #719
      01007D18H   LINE      CODE     ---       #720
      01007D18H   LINE      CODE     ---       #721
      01007D24H   LINE      CODE     ---       #722
      ---         BLOCKEND  ---      ---       LVL=0

      01007D2EH   BLOCK     CODE     ---       LVL=0
      00000007H   SYMBOL    DATA     BYTE      from
      00000005H   SYMBOL    DATA     BYTE      to
      02000011H   SYMBOL    XDATA    BYTE      ev
      01007D2EH   LINE      CODE     ---       #726
      01007D34H   LINE      CODE     ---       #727
      01007D34H   LINE      CODE     ---       #728
      01007D40H   LINE      CODE     ---       #729
      ---         BLOCKEND  ---      ---       LVL=0

      ---         MODULE    ---      ---       SM_FUSE_PARAM
      0100BB0EH   PUBLIC    CONST    ---       sm_fuse_param_ss_name
      01004422H   PUBLIC    CODE     ---       _sm_fuse_param_submod6
      01007DBAH   PUBLIC    CODE     ---       _sm_fuse_param_submod5
LX51 LINKER/LOCATER V4.66.87.0                                                        05/30/2018  17:25:18  PAGE 210


      01007D9EH   PUBLIC    CODE     ---       _sm_fuse_param_submod4
      01007D82H   PUBLIC    CODE     ---       _sm_fuse_param_submod3
      01007D66H   PUBLIC    CODE     ---       _sm_fuse_param_submod2
      01007D4AH   PUBLIC    CODE     ---       _sm_fuse_param_submod1
      01006345H   PUBLIC    CODE     ---       _sm_fuse_param_submod0
      0100777BH   PUBLIC    CODE     ---       _sm_fuse_param_init
      01001EDAH   SYMBOL    CODE     ---       _update_time
      010051B0H   SYMBOL    CODE     ---       _sm_fuse_param_set_time
      01006B5DH   SYMBOL    CODE     ---       _enter_time
      01004AEFH   SYMBOL    CODE     ---       _write_only
      01008A19H   SYMBOL    CODE     ---       _inc_and_write
      01006A7BH   SYMBOL    CODE     ---       _update_password
      01004CD6H   SYMBOL    CODE     ---       _inc_only
      01007F31H   SYMBOL    CODE     ---       _enter_password

      01008171H   BLOCK     CODE     ---       LVL=0
      ---         BLOCKEND  ---      ---       LVL=0

      01004CD6H   BLOCK     CODE     ---       LVL=0
      00000006H   SYMBOL    DATA     BYTE      what
      01004CD6H   LINE      CODE     ---       #26
      01004CD8H   LINE      CODE     ---       #27
      01004CD8H   LINE      CODE     ---       #29
      01004CE4H   LINE      CODE     ---       #30
      01004CF2H   LINE      CODE     ---       #32
      01004CF2H   LINE      CODE     ---       #34
      01004D06H   LINE      CODE     ---       #35
      01004D06H   LINE      CODE     ---       #36
      01004D06H   LINE      CODE     ---       #37
      01004D09H   LINE      CODE     ---       #38
      01004D0BH   LINE      CODE     ---       #39
      01004D0DH   LINE      CODE     ---       #40
      01004D10H   LINE      CODE     ---       #41
      01004D10H   LINE      CODE     ---       #42
      01004D13H   LINE      CODE     ---       #43
      01004D16H   LINE      CODE     ---       #44
      01004D16H   LINE      CODE     ---       #45
      01004D19H   LINE      CODE     ---       #46
      01004D19H   LINE      CODE     ---       #47
      01004D19H   LINE      CODE     ---       #48
      01004D19H   LINE      CODE     ---       #49
      01004D19H   LINE      CODE     ---       #50
      01004D1CH   LINE      CODE     ---       #51
      01004D1EH   LINE      CODE     ---       #52
      01004D20H   LINE      CODE     ---       #53
      01004D23H   LINE      CODE     ---       #54
      01004D23H   LINE      CODE     ---       #55
      01004D27H   LINE      CODE     ---       #56
      01004D2AH   LINE      CODE     ---       #57
      01004D2AH   LINE      CODE     ---       #58
      01004D2DH   LINE      CODE     ---       #59
      01004D2DH   LINE      CODE     ---       #60
      01004D2DH   LINE      CODE     ---       #61
      01004D2DH   LINE      CODE     ---       #62
      01004D2DH   LINE      CODE     ---       #63
      01004D30H   LINE      CODE     ---       #64
      01004D32H   LINE      CODE     ---       #65
      01004D37H   LINE      CODE     ---       #66
      01004D3BH   LINE      CODE     ---       #67
      01004D3BH   LINE      CODE     ---       #68
      01004D3FH   LINE      CODE     ---       #69
      01004D42H   LINE      CODE     ---       #70
      01004D42H   LINE      CODE     ---       #71
      01004D45H   LINE      CODE     ---       #72
      01004D45H   LINE      CODE     ---       #73
LX51 LINKER/LOCATER V4.66.87.0                                                        05/30/2018  17:25:18  PAGE 211


      01004D45H   LINE      CODE     ---       #74
      01004D45H   LINE      CODE     ---       #75
      ---         BLOCKEND  ---      ---       LVL=0

      01004AEFH   BLOCK     CODE     ---       LVL=0
      02000015H   SYMBOL    XDATA    BYTE      what
      01004AF4H   BLOCK     CODE     NEAR LAB  LVL=1
      00000007H   SYMBOL    DATA     BYTE      i
      ---         BLOCKEND  ---      ---       LVL=1
      01004AEFH   LINE      CODE     ---       #77
      01004AF4H   LINE      CODE     ---       #78
      01004AF4H   LINE      CODE     ---       #81
      01004B00H   LINE      CODE     ---       #82
      01004B03H   LINE      CODE     ---       #83
      01004B0EH   LINE      CODE     ---       #85
      01004B0EH   LINE      CODE     ---       #87
      01004B25H   LINE      CODE     ---       #88
      01004B25H   LINE      CODE     ---       #89
      01004B28H   LINE      CODE     ---       #90
      01004B2AH   LINE      CODE     ---       #91
      01004B2AH   LINE      CODE     ---       #92
      01004B2AH   LINE      CODE     ---       #93
      01004B2AH   LINE      CODE     ---       #94
      01004B2AH   LINE      CODE     ---       #95
      01004B2CH   LINE      CODE     ---       #96
      01004B2CH   LINE      CODE     ---       #97
      01004B2FH   LINE      CODE     ---       #98
      01004B31H   LINE      CODE     ---       #99
      01004B31H   LINE      CODE     ---       #100
      01004B31H   LINE      CODE     ---       #101
      01004B31H   LINE      CODE     ---       #102
      01004B31H   LINE      CODE     ---       #103
      01004B33H   LINE      CODE     ---       #104
      01004B33H   LINE      CODE     ---       #105
      01004B36H   LINE      CODE     ---       #106
      01004B38H   LINE      CODE     ---       #107
      01004B38H   LINE      CODE     ---       #108
      01004B38H   LINE      CODE     ---       #109
      01004B38H   LINE      CODE     ---       #110
      01004B38H   LINE      CODE     ---       #111
      01004B3AH   LINE      CODE     ---       #112
      01004B3AH   LINE      CODE     ---       #113
      01004B3DH   LINE      CODE     ---       #114
      01004B42H   LINE      CODE     ---       #115
      01004B44H   LINE      CODE     ---       #116
      01004B46H   LINE      CODE     ---       #117
      01004B46H   LINE      CODE     ---       #118
      01004B46H   LINE      CODE     ---       #119
      01004B48H   LINE      CODE     ---       #120
      01004B48H   LINE      CODE     ---       #121
      01004B4BH   LINE      CODE     ---       #122
      01004B50H   LINE      CODE     ---       #123
      01004B52H   LINE      CODE     ---       #124
      01004B54H   LINE      CODE     ---       #125
      01004B54H   LINE      CODE     ---       #126
      01004B54H   LINE      CODE     ---       #127
      01004B56H   LINE      CODE     ---       #128
      01004B56H   LINE      CODE     ---       #129
      01004B59H   LINE      CODE     ---       #130
      01004B5EH   LINE      CODE     ---       #131
      01004B60H   LINE      CODE     ---       #132
      01004B65H   LINE      CODE     ---       #133
      01004B69H   LINE      CODE     ---       #134
      01004B69H   LINE      CODE     ---       #135
      01004B69H   LINE      CODE     ---       #136
LX51 LINKER/LOCATER V4.66.87.0                                                        05/30/2018  17:25:18  PAGE 212


      01004B69H   LINE      CODE     ---       #138
      ---         BLOCKEND  ---      ---       LVL=0

      01008A19H   BLOCK     CODE     ---       LVL=0
      00000004H   SYMBOL    DATA     BYTE      what
      01008A19H   LINE      CODE     ---       #140
      01008A1BH   LINE      CODE     ---       #141
      01008A1BH   LINE      CODE     ---       #142
      01008A1EH   LINE      CODE     ---       #143
      ---         BLOCKEND  ---      ---       LVL=0

      01001EDAH   BLOCK     CODE     ---       LVL=0
      00000007H   SYMBOL    DATA     BYTE      what
      01001EDAH   BLOCK     CODE     NEAR LAB  LVL=1
      02000016H   SYMBOL    XDATA    BYTE      year
      02000017H   SYMBOL    XDATA    BYTE      mon
      02000018H   SYMBOL    XDATA    BYTE      date
      02000019H   SYMBOL    XDATA    BYTE      hour
      0200001AH   SYMBOL    XDATA    BYTE      min
      0200001BH   SYMBOL    XDATA    BYTE      sec
      ---         BLOCKEND  ---      ---       LVL=1
      01001EDAH   LINE      CODE     ---       #146
      01001EDAH   LINE      CODE     ---       #147
      01001EDAH   LINE      CODE     ---       #150
      01001EE9H   LINE      CODE     ---       #152
      01001EF1H   LINE      CODE     ---       #153
      01001EF7H   LINE      CODE     ---       #154
      01001EFDH   LINE      CODE     ---       #156
      01001F02H   LINE      CODE     ---       #157
      01001F07H   LINE      CODE     ---       #159
      01001F28H   LINE      CODE     ---       #161
      01001F32H   LINE      CODE     ---       #162
      01001F35H   LINE      CODE     ---       #163
      01001F37H   LINE      CODE     ---       #164
      01001F3EH   LINE      CODE     ---       #165
      01001F3EH   LINE      CODE     ---       #166
      01001F44H   LINE      CODE     ---       #167
      01001F4AH   LINE      CODE     ---       #168
      01001F50H   LINE      CODE     ---       #169
      01001F56H   LINE      CODE     ---       #170
      01001F59H   LINE      CODE     ---       #171
      01001F5CH   LINE      CODE     ---       #172
      01001F64H   LINE      CODE     ---       #173
      01001F6AH   LINE      CODE     ---       #174
      01001F70H   LINE      CODE     ---       #177
      01001F75H   LINE      CODE     ---       #178
      01001F79H   LINE      CODE     ---       #179
      01001F7DH   LINE      CODE     ---       #180
      01001F81H   LINE      CODE     ---       #183
      01001F8EH   LINE      CODE     ---       #184
      01001F92H   LINE      CODE     ---       #185
      01001F96H   LINE      CODE     ---       #186
      01001FA4H   LINE      CODE     ---       #187
      01001FA9H   LINE      CODE     ---       #188
      01001FABH   LINE      CODE     ---       #189
      01001FB0H   LINE      CODE     ---       #190
      01001FB0H   LINE      CODE     ---       #193
      01001FD1H   LINE      CODE     ---       #195
      01001FDBH   LINE      CODE     ---       #196
      01001FDEH   LINE      CODE     ---       #197
      01001FE0H   LINE      CODE     ---       #198
      01001FE7H   LINE      CODE     ---       #199
      01001FE7H   LINE      CODE     ---       #200
      01001FEDH   LINE      CODE     ---       #201
      01001FF3H   LINE      CODE     ---       #202
LX51 LINKER/LOCATER V4.66.87.0                                                        05/30/2018  17:25:18  PAGE 213


      01001FF9H   LINE      CODE     ---       #203
      01001FFFH   LINE      CODE     ---       #204
      01002011H   LINE      CODE     ---       #205
      01002011H   LINE      CODE     ---       #206
      ---         BLOCKEND  ---      ---       LVL=0

      01006B5DH   BLOCK     CODE     ---       LVL=0
      02000015H   SYMBOL    XDATA    BYTE      what
      01006B5DH   LINE      CODE     ---       #208
      01006B62H   LINE      CODE     ---       #209
      01006B62H   LINE      CODE     ---       #210
      01006B65H   LINE      CODE     ---       #211
      01006B7CH   LINE      CODE     ---       #212
      01006B7CH   LINE      CODE     ---       #213
      01006B7CH   LINE      CODE     ---       #214
      01006B7EH   LINE      CODE     ---       #215
      01006B7EH   LINE      CODE     ---       #216
      01006B80H   LINE      CODE     ---       #217
      01006B80H   LINE      CODE     ---       #218
      01006B80H   LINE      CODE     ---       #219
      01006B82H   LINE      CODE     ---       #220
      01006B82H   LINE      CODE     ---       #221
      01006B84H   LINE      CODE     ---       #222
      01006B84H   LINE      CODE     ---       #223
      01006B84H   LINE      CODE     ---       #224
      01006B89H   LINE      CODE     ---       #225
      01006B8DH   LINE      CODE     ---       #226
      01006B8DH   LINE      CODE     ---       #227
      01006B8DH   LINE      CODE     ---       #228
      ---         BLOCKEND  ---      ---       LVL=0

      01006A7BH   BLOCK     CODE     ---       LVL=0
      00000007H   SYMBOL    DATA     BYTE      index
      01006A7BH   BLOCK     CODE     NEAR LAB  LVL=1
      02000014H   SYMBOL    XDATA    BYTE      i
      ---         BLOCKEND  ---      ---       LVL=1
      01006A7BH   LINE      CODE     ---       #231
      01006A7BH   LINE      CODE     ---       #232
      01006A7BH   LINE      CODE     ---       #234
      01006A82H   LINE      CODE     ---       #235
      01006A85H   LINE      CODE     ---       #236
      01006A8CH   LINE      CODE     ---       #237
      01006A91H   LINE      CODE     ---       #238
      01006A96H   LINE      CODE     ---       #239
      01006A9BH   LINE      CODE     ---       #240
      01006AA0H   LINE      CODE     ---       #241
      01006AA5H   LINE      CODE     ---       #242
      ---         BLOCKEND  ---      ---       LVL=0

      01007F31H   BLOCK     CODE     ---       LVL=0
      02000013H   SYMBOL    XDATA    BYTE      index
      01007F36H   BLOCK     CODE     NEAR LAB  LVL=1
      00000007H   SYMBOL    DATA     BYTE      i
      ---         BLOCKEND  ---      ---       LVL=1
      01007F31H   LINE      CODE     ---       #245
      01007F36H   LINE      CODE     ---       #246
      01007F36H   LINE      CODE     ---       #248
      01007F38H   LINE      CODE     ---       #249
      01007F43H   LINE      CODE     ---       #250
      ---         BLOCKEND  ---      ---       LVL=0

      0100777BH   BLOCK     CODE     ---       LVL=0
      00000007H   SYMBOL    DATA     BYTE      from
      00000005H   SYMBOL    DATA     BYTE      to
      02000011H   SYMBOL    XDATA    BYTE      ev
LX51 LINKER/LOCATER V4.66.87.0                                                        05/30/2018  17:25:18  PAGE 214


      0100777BH   LINE      CODE     ---       #253
      01007780H   LINE      CODE     ---       #254
      01007780H   LINE      CODE     ---       #255
      0100778AH   LINE      CODE     ---       #256
      01007791H   LINE      CODE     ---       #258
      01007798H   LINE      CODE     ---       #259
      0100779EH   LINE      CODE     ---       #260
      0100779EH   LINE      CODE     ---       #261
      ---         BLOCKEND  ---      ---       LVL=0

      010051B0H   BLOCK     CODE     ---       LVL=0
      02000013H   SYMBOL    XDATA    BYTE      what
      02000014H   SYMBOL    XDATA    BYTE      ev
      010051B0H   LINE      CODE     ---       #263
      010051B8H   LINE      CODE     ---       #264
      010051B8H   LINE      CODE     ---       #265
      010051BBH   LINE      CODE     ---       #266
      010051C3H   LINE      CODE     ---       #268
      010051C3H   LINE      CODE     ---       #270
      010051CAH   LINE      CODE     ---       #271
      010051D2H   LINE      CODE     ---       #272
      010051DAH   LINE      CODE     ---       #274
      010051DAH   LINE      CODE     ---       #276
      010051E2H   LINE      CODE     ---       #277
      010051E9H   LINE      CODE     ---       #278
      010051F1H   LINE      CODE     ---       #279
      010051F9H   LINE      CODE     ---       #280
      010051F9H   LINE      CODE     ---       #281
      010051FFH   LINE      CODE     ---       #282
      01005206H   LINE      CODE     ---       #284
      01005206H   LINE      CODE     ---       #286
      0100520DH   LINE      CODE     ---       #287
      01005215H   LINE      CODE     ---       #288
      0100521AH   LINE      CODE     ---       #290
      0100521AH   LINE      CODE     ---       #291
      ---         BLOCKEND  ---      ---       LVL=0

      01006345H   BLOCK     CODE     ---       LVL=0
      02000011H   SYMBOL    XDATA    BYTE      from
      00000005H   SYMBOL    DATA     BYTE      to
      02000012H   SYMBOL    XDATA    BYTE      ev
      01006345H   LINE      CODE     ---       #294
      0100634DH   LINE      CODE     ---       #295
      0100634DH   LINE      CODE     ---       #296
      01006357H   LINE      CODE     ---       #297
      01006375H   LINE      CODE     ---       #298
      01006375H   LINE      CODE     ---       #299
      0100637BH   LINE      CODE     ---       #300
      0100637BH   LINE      CODE     ---       #301
      01006381H   LINE      CODE     ---       #302
      01006384H   LINE      CODE     ---       #303
      ---         BLOCKEND  ---      ---       LVL=0

      01007D4AH   BLOCK     CODE     ---       LVL=0
      00000007H   SYMBOL    DATA     BYTE      from
      00000005H   SYMBOL    DATA     BYTE      to
      02000011H   SYMBOL    XDATA    BYTE      ev
      01007D4AH   LINE      CODE     ---       #306
      01007D50H   LINE      CODE     ---       #307
      01007D50H   LINE      CODE     ---       #308
      01007D5CH   LINE      CODE     ---       #309
      ---         BLOCKEND  ---      ---       LVL=0

      01007D66H   BLOCK     CODE     ---       LVL=0
      00000007H   SYMBOL    DATA     BYTE      from
LX51 LINKER/LOCATER V4.66.87.0                                                        05/30/2018  17:25:18  PAGE 215


      00000005H   SYMBOL    DATA     BYTE      to
      02000011H   SYMBOL    XDATA    BYTE      ev
      01007D66H   LINE      CODE     ---       #312
      01007D6CH   LINE      CODE     ---       #313
      01007D6CH   LINE      CODE     ---       #314
      01007D78H   LINE      CODE     ---       #315
      ---         BLOCKEND  ---      ---       LVL=0

      01007D82H   BLOCK     CODE     ---       LVL=0
      00000007H   SYMBOL    DATA     BYTE      from
      00000005H   SYMBOL    DATA     BYTE      to
      02000011H   SYMBOL    XDATA    BYTE      ev
      01007D82H   LINE      CODE     ---       #318
      01007D88H   LINE      CODE     ---       #319
      01007D88H   LINE      CODE     ---       #320
      01007D94H   LINE      CODE     ---       #321
      ---         BLOCKEND  ---      ---       LVL=0

      01007D9EH   BLOCK     CODE     ---       LVL=0
      00000007H   SYMBOL    DATA     BYTE      from
      00000005H   SYMBOL    DATA     BYTE      to
      02000011H   SYMBOL    XDATA    BYTE      ev
      01007D9EH   LINE      CODE     ---       #324
      01007DA4H   LINE      CODE     ---       #325
      01007DA4H   LINE      CODE     ---       #326
      01007DB0H   LINE      CODE     ---       #327
      ---         BLOCKEND  ---      ---       LVL=0

      01007DBAH   BLOCK     CODE     ---       LVL=0
      00000007H   SYMBOL    DATA     BYTE      from
      00000005H   SYMBOL    DATA     BYTE      to
      02000011H   SYMBOL    XDATA    BYTE      ev
      01007DBAH   LINE      CODE     ---       #330
      01007DC0H   LINE      CODE     ---       #331
      01007DC0H   LINE      CODE     ---       #332
      01007DCCH   LINE      CODE     ---       #333
      ---         BLOCKEND  ---      ---       LVL=0

      01004422H   BLOCK     CODE     ---       LVL=0
      02000011H   SYMBOL    XDATA    BYTE      from
      00000005H   SYMBOL    DATA     BYTE      to
      02000012H   SYMBOL    XDATA    BYTE      ev
      01004422H   LINE      CODE     ---       #336
      0100442BH   LINE      CODE     ---       #337
      0100442BH   LINE      CODE     ---       #338
      01004437H   LINE      CODE     ---       #341
      0100443FH   LINE      CODE     ---       #342
      01004449H   LINE      CODE     ---       #343
      01004452H   LINE      CODE     ---       #344
      01004455H   LINE      CODE     ---       #345
      01004457H   LINE      CODE     ---       #346
      0100445EH   LINE      CODE     ---       #348
      0100445EH   LINE      CODE     ---       #349
      0100445EH   LINE      CODE     ---       #350
      01004464H   LINE      CODE     ---       #352
      01004464H   LINE      CODE     ---       #354
      0100446BH   LINE      CODE     ---       #355
      01004471H   LINE      CODE     ---       #356
      01004477H   LINE      CODE     ---       #358
      01004477H   LINE      CODE     ---       #360
      0100447FH   LINE      CODE     ---       #361
      01004486H   LINE      CODE     ---       #362
      0100448CH   LINE      CODE     ---       #363
      01004492H   LINE      CODE     ---       #364
      01004492H   LINE      CODE     ---       #365
LX51 LINKER/LOCATER V4.66.87.0                                                        05/30/2018  17:25:18  PAGE 216


      01004498H   LINE      CODE     ---       #366
      0100449FH   LINE      CODE     ---       #368
      0100449FH   LINE      CODE     ---       #370
      010044A6H   LINE      CODE     ---       #371
      010044ACH   LINE      CODE     ---       #372
      010044B1H   LINE      CODE     ---       #374
      010044B1H   LINE      CODE     ---       #375
      ---         BLOCKEND  ---      ---       LVL=0

      ---         MODULE    ---      ---       SM_FUSE_TIMER
      0100B718H   PUBLIC    CONST    ---       sm_fuse_timer_ss_name
      01007DD6H   PUBLIC    CODE     ---       _sm_fuse_timer_submod4
      01007550H   PUBLIC    CODE     ---       _sm_fuse_timer_submod3
      01003628H   PUBLIC    CODE     ---       _sm_fuse_timer_submod2
      01005C72H   PUBLIC    CODE     ---       _sm_fuse_timer_submod1
      01002B68H   PUBLIC    CODE     ---       _sm_fuse_timer_submod0
      01007BC1H   PUBLIC    CODE     ---       _sm_fuse_timer_init
      0100686CH   SYMBOL    CODE     ---       _display_timer
      0100884CH   SYMBOL    CODE     ---       inc_password
      01006F5EH   SYMBOL    CODE     ---       roll_back
      01003561H   SYMBOL    CODE     ---       _check_and_set
      01006F8EH   SYMBOL    CODE     ---       display_password
      01003E21H   SYMBOL    CODE     ---       _display_prearm
      01004F21H   SYMBOL    CODE     ---       verify_password

      01007104H   BLOCK     CODE     ---       LVL=0
      ---         BLOCKEND  ---      ---       LVL=0

      01003561H   BLOCK     CODE     ---       LVL=0
      00000007H   SYMBOL    DATA     BYTE      step
      01003561H   BLOCK     CODE     NEAR LAB  LVL=1
      02000013H   SYMBOL    XDATA    BYTE      ret
      02000014H   SYMBOL    XDATA    BYTE      val
      00000007H   SYMBOL    DATA     BYTE      val1
      ---         BLOCKEND  ---      ---       LVL=1
      01003561H   LINE      CODE     ---       #64
      01003561H   LINE      CODE     ---       #65
      01003561H   LINE      CODE     ---       #66
      01003566H   LINE      CODE     ---       #68
      0100357AH   LINE      CODE     ---       #69
      0100357AH   LINE      CODE     ---       #70
      0100357FH   LINE      CODE     ---       #71
      01003582H   LINE      CODE     ---       #72
      01003582H   LINE      CODE     ---       #73
      01003587H   LINE      CODE     ---       #74
      01003591H   LINE      CODE     ---       #75
      01003594H   LINE      CODE     ---       #76
      01003594H   LINE      CODE     ---       #77
      01003599H   LINE      CODE     ---       #78
      010035A5H   LINE      CODE     ---       #79
      010035A7H   LINE      CODE     ---       #80
      010035A7H   LINE      CODE     ---       #81
      010035B1H   LINE      CODE     ---       #82
      010035B6H   LINE      CODE     ---       #83
      010035C3H   LINE      CODE     ---       #84
      010035CDH   LINE      CODE     ---       #85
      010035DDH   LINE      CODE     ---       #86
      010035E3H   LINE      CODE     ---       #87
      010035E5H   LINE      CODE     ---       #88
      010035E5H   LINE      CODE     ---       #89
      010035E5H   LINE      CODE     ---       #90
      010035EAH   LINE      CODE     ---       #91
      010035EAH   LINE      CODE     ---       #92
      010035ECH   LINE      CODE     ---       #93
      010035ECH   LINE      CODE     ---       #94
LX51 LINKER/LOCATER V4.66.87.0                                                        05/30/2018  17:25:18  PAGE 217


      010035EFH   LINE      CODE     ---       #95
      010035F2H   LINE      CODE     ---       #96
      010035FCH   LINE      CODE     ---       #97
      010035FFH   LINE      CODE     ---       #98
      01003605H   LINE      CODE     ---       #99
      01003607H   LINE      CODE     ---       #100
      0100360EH   LINE      CODE     ---       #101
      01003614H   LINE      CODE     ---       #102
      01003616H   LINE      CODE     ---       #103
      01003616H   LINE      CODE     ---       #104
      01003619H   LINE      CODE     ---       #105
      01003619H   LINE      CODE     ---       #106
      01003619H   LINE      CODE     ---       #107
      01003619H   LINE      CODE     ---       #108
      01003619H   LINE      CODE     ---       #109
      01003619H   LINE      CODE     ---       #110
      01003619H   LINE      CODE     ---       #111
      01003619H   LINE      CODE     ---       #112
      0100361EH   LINE      CODE     ---       #113
      ---         BLOCKEND  ---      ---       LVL=0

      01006F5EH   BLOCK     CODE     ---       LVL=0
      00000020H.0 SYMBOL    BIT      BIT       include_fuse
      01006F5EH   LINE      CODE     ---       #115
      01006F5EH   LINE      CODE     ---       #116
      01006F5EH   LINE      CODE     ---       #117
      01006F73H   LINE      CODE     ---       #118
      01006F78H   LINE      CODE     ---       #119
      01006F7DH   LINE      CODE     ---       #120
      01006F82H   LINE      CODE     ---       #121
      01006F85H   LINE      CODE     ---       #122
      01006F88H   LINE      CODE     ---       #123
      01006F8DH   LINE      CODE     ---       #124
      01006F8DH   LINE      CODE     ---       #125
      ---         BLOCKEND  ---      ---       LVL=0

      01003E21H   BLOCK     CODE     ---       LVL=0
      02000013H   SYMBOL    XDATA    BYTE      step
      02000014H   SYMBOL    XDATA    BYTE      err
      01003E21H   LINE      CODE     ---       #137
      01003E29H   LINE      CODE     ---       #138
      01003E29H   LINE      CODE     ---       #139
      01003E2CH   LINE      CODE     ---       #141
      01003E50H   LINE      CODE     ---       #142
      01003E50H   LINE      CODE     ---       #143
      01003E52H   LINE      CODE     ---       #144
      01003E52H   LINE      CODE     ---       #145
      01003E54H   LINE      CODE     ---       #146
      01003E54H   LINE      CODE     ---       #147
      01003E5BH   LINE      CODE     ---       #148
      01003E5DH   LINE      CODE     ---       #149
      01003E5FH   LINE      CODE     ---       #150
      01003E5FH   LINE      CODE     ---       #151
      01003E66H   LINE      CODE     ---       #152
      01003E67H   LINE      CODE     ---       #153
      01003E69H   LINE      CODE     ---       #154
      01003E69H   LINE      CODE     ---       #155
      01003E70H   LINE      CODE     ---       #156
      01003E72H   LINE      CODE     ---       #157
      01003E74H   LINE      CODE     ---       #158
      01003E74H   LINE      CODE     ---       #159
      01003E7BH   LINE      CODE     ---       #160
      01003E7DH   LINE      CODE     ---       #161
      01003E7FH   LINE      CODE     ---       #162
      01003E7FH   LINE      CODE     ---       #163
LX51 LINKER/LOCATER V4.66.87.0                                                        05/30/2018  17:25:18  PAGE 218


      01003E7FH   LINE      CODE     ---       #164
      01003E7FH   LINE      CODE     ---       #165
      01003E8CH   LINE      CODE     ---       #166
      01003E9CH   LINE      CODE     ---       #167
      01003E9CH   LINE      CODE     ---       #168
      01003EA3H   LINE      CODE     ---       #169
      01003EA5H   LINE      CODE     ---       #170
      01003EADH   LINE      CODE     ---       #171
      01003EBAH   LINE      CODE     ---       #172
      ---         BLOCKEND  ---      ---       LVL=0

      0100686CH   BLOCK     CODE     ---       LVL=0
      02000012H   SYMBOL    XDATA    BYTE      what
      0100686CH   LINE      CODE     ---       #174
      01006871H   LINE      CODE     ---       #175
      01006871H   LINE      CODE     ---       #176
      01006874H   LINE      CODE     ---       #177
      0100687BH   LINE      CODE     ---       #178
      01006882H   LINE      CODE     ---       #179
      01006889H   LINE      CODE     ---       #180
      01006893H   LINE      CODE     ---       #181
      01006893H   LINE      CODE     ---       #182
      01006895H   LINE      CODE     ---       #183
      01006895H   LINE      CODE     ---       #184
      01006895H   LINE      CODE     ---       #185
      01006897H   LINE      CODE     ---       #186
      01006897H   LINE      CODE     ---       #187
      0100689EH   LINE      CODE     ---       #188
      010068A3H   LINE      CODE     ---       #189
      010068A8H   LINE      CODE     ---       #190
      010068A8H   LINE      CODE     ---       #191
      010068A8H   LINE      CODE     ---       #192
      ---         BLOCKEND  ---      ---       LVL=0

      01004F21H   BLOCK     CODE     ---       LVL=0
      01004F21H   BLOCK     CODE     NEAR LAB  LVL=1
      02000013H   SYMBOL    XDATA    BYTE      res
      ---         BLOCKEND  ---      ---       LVL=1
      01004F21H   LINE      CODE     ---       #194
      01004F21H   LINE      CODE     ---       #195
      01004F21H   LINE      CODE     ---       #198
      01004F31H   LINE      CODE     ---       #200
      01004F4DH   LINE      CODE     ---       #202
      01004F55H   LINE      CODE     ---       #203
      01004F65H   LINE      CODE     ---       #204
      01004F74H   LINE      CODE     ---       #205
      01004F76H   LINE      CODE     ---       #206
      01004F91H   LINE      CODE     ---       #207
      01004F91H   LINE      CODE     ---       #209
      ---         BLOCKEND  ---      ---       LVL=0

      01006F8EH   BLOCK     CODE     ---       LVL=0
      01006F8EH   BLOCK     CODE     NEAR LAB  LVL=1
      00000004H   SYMBOL    DATA     BYTE      i
      ---         BLOCKEND  ---      ---       LVL=1
      01006F8EH   LINE      CODE     ---       #211
      01006F8EH   LINE      CODE     ---       #212
      01006F8EH   LINE      CODE     ---       #214
      01006F91H   LINE      CODE     ---       #215
      01006F93H   LINE      CODE     ---       #216
      01006F9DH   LINE      CODE     ---       #217
      01006FA1H   LINE      CODE     ---       #218
      01006FA7H   LINE      CODE     ---       #219
      01006FAFH   LINE      CODE     ---       #220
      01006FB1H   LINE      CODE     ---       #221
LX51 LINKER/LOCATER V4.66.87.0                                                        05/30/2018  17:25:18  PAGE 219


      01006FB8H   LINE      CODE     ---       #222
      01006FB8H   LINE      CODE     ---       #223
      01006FBDH   LINE      CODE     ---       #224
      ---         BLOCKEND  ---      ---       LVL=0

      0100884CH   BLOCK     CODE     ---       LVL=0
      0100884CH   LINE      CODE     ---       #226
      0100884CH   LINE      CODE     ---       #227
      0100884CH   LINE      CODE     ---       #228
      01008859H   LINE      CODE     ---       #229
      ---         BLOCKEND  ---      ---       LVL=0

      01007BC1H   BLOCK     CODE     ---       LVL=0
      00000007H   SYMBOL    DATA     BYTE      from
      00000005H   SYMBOL    DATA     BYTE      to
      00000006H   SYMBOL    DATA     BYTE      ev
      01007BC1H   LINE      CODE     ---       #231
      01007BC3H   LINE      CODE     ---       #232
      01007BC3H   LINE      CODE     ---       #233
      01007BCFH   LINE      CODE     ---       #234
      01007BD6H   LINE      CODE     ---       #235
      01007BDBH   LINE      CODE     ---       #236
      01007BDDH   LINE      CODE     ---       #237
      ---         BLOCKEND  ---      ---       LVL=0

      01002B68H   BLOCK     CODE     ---       LVL=0
      00000007H   SYMBOL    DATA     BYTE      from
      00000005H   SYMBOL    DATA     BYTE      to
      02000011H   SYMBOL    XDATA    BYTE      ev
      01002B6DH   BLOCK     CODE     NEAR LAB  LVL=1
      02000012H   SYMBOL    XDATA    BYTE      err
      ---         BLOCKEND  ---      ---       LVL=1
      01002B68H   LINE      CODE     ---       #240
      01002B6DH   LINE      CODE     ---       #241
      01002B6DH   LINE      CODE     ---       #243
      01002B77H   LINE      CODE     ---       #245
      01002B7EH   LINE      CODE     ---       #246
      01002B81H   LINE      CODE     ---       #247
      01002B85H   LINE      CODE     ---       #248
      01002B87H   LINE      CODE     ---       #249
      01002B8CH   LINE      CODE     ---       #251
      01002B8CH   LINE      CODE     ---       #253
      01002B97H   LINE      CODE     ---       #254
      01002BA1H   LINE      CODE     ---       #255
      01002BAAH   LINE      CODE     ---       #256
      01002BB2H   LINE      CODE     ---       #257
      01002BB8H   LINE      CODE     ---       #258
      01002BB8H   LINE      CODE     ---       #259
      01002BB8H   LINE      CODE     ---       #260
      01002BBBH   LINE      CODE     ---       #262
      01002BBBH   LINE      CODE     ---       #263
      01002BC1H   LINE      CODE     ---       #264
      01002BC2H   LINE      CODE     ---       #265
      01002BC8H   LINE      CODE     ---       #266
      01002BC9H   LINE      CODE     ---       #268
      01002BC9H   LINE      CODE     ---       #270
      01002BF8H   LINE      CODE     ---       #272
      01002BF8H   LINE      CODE     ---       #273
      01002C18H   LINE      CODE     ---       #274
      01002C18H   LINE      CODE     ---       #275
      01002C20H   LINE      CODE     ---       #276
      01002C28H   LINE      CODE     ---       #277
      01002C30H   LINE      CODE     ---       #278
      01002C38H   LINE      CODE     ---       #279
      01002C40H   LINE      CODE     ---       #280
LX51 LINKER/LOCATER V4.66.87.0                                                        05/30/2018  17:25:18  PAGE 220


      01002C48H   LINE      CODE     ---       #281
      01002C50H   LINE      CODE     ---       #282
      01002C56H   LINE      CODE     ---       #283
      01002C56H   LINE      CODE     ---       #284
      01002C63H   LINE      CODE     ---       #285
      01002C65H   LINE      CODE     ---       #286
      01002C6AH   LINE      CODE     ---       #287
      01002C6DH   LINE      CODE     ---       #289
      01002C6DH   LINE      CODE     ---       #290
      ---         BLOCKEND  ---      ---       LVL=0

      01005C72H   BLOCK     CODE     ---       LVL=0
      02000011H   SYMBOL    XDATA    BYTE      from
      00000005H   SYMBOL    DATA     BYTE      to
      02000012H   SYMBOL    XDATA    BYTE      ev
      01005C72H   LINE      CODE     ---       #293
      01005C7AH   LINE      CODE     ---       #294
      01005C7AH   LINE      CODE     ---       #295
      01005C84H   LINE      CODE     ---       #297
      01005C91H   LINE      CODE     ---       #298
      01005C96H   LINE      CODE     ---       #300
      01005CA0H   LINE      CODE     ---       #301
      01005CA5H   LINE      CODE     ---       #302
      01005CA5H   LINE      CODE     ---       #303
      01005CA7H   LINE      CODE     ---       #305
      01005CA7H   LINE      CODE     ---       #307
      01005CAEH   LINE      CODE     ---       #308
      01005CB1H   LINE      CODE     ---       #310
      01005CB1H   LINE      CODE     ---       #312
      01005CB8H   LINE      CODE     ---       #313
      01005CBBH   LINE      CODE     ---       #314
      01005CBEH   LINE      CODE     ---       #316
      01005CBEH   LINE      CODE     ---       #318
      01005CC5H   LINE      CODE     ---       #319
      01005CC8H   LINE      CODE     ---       #321
      01005CC8H   LINE      CODE     ---       #322
      ---         BLOCKEND  ---      ---       LVL=0

      01003628H   BLOCK     CODE     ---       LVL=0
      02000011H   SYMBOL    XDATA    BYTE      from
      00000005H   SYMBOL    DATA     BYTE      to
      02000012H   SYMBOL    XDATA    BYTE      ev
      01003628H   LINE      CODE     ---       #325
      01003631H   LINE      CODE     ---       #326
      01003631H   LINE      CODE     ---       #327
      0100363DH   LINE      CODE     ---       #328
      01003648H   LINE      CODE     ---       #330
      01003652H   LINE      CODE     ---       #331
      01003658H   LINE      CODE     ---       #332
      0100365DH   LINE      CODE     ---       #333
      01003664H   LINE      CODE     ---       #334
      01003669H   LINE      CODE     ---       #335
      01003669H   LINE      CODE     ---       #336
      01003675H   LINE      CODE     ---       #338
      0100367EH   LINE      CODE     ---       #339
      01003681H   LINE      CODE     ---       #340
      01003686H   LINE      CODE     ---       #341
      0100368CH   LINE      CODE     ---       #342
      0100368FH   LINE      CODE     ---       #343
      0100368FH   LINE      CODE     ---       #347
      01003692H   LINE      CODE     ---       #348
      0100369CH   LINE      CODE     ---       #349
      010036A5H   LINE      CODE     ---       #350
      010036A8H   LINE      CODE     ---       #351
      010036B3H   LINE      CODE     ---       #352
LX51 LINKER/LOCATER V4.66.87.0                                                        05/30/2018  17:25:18  PAGE 221


      010036BCH   LINE      CODE     ---       #353
      010036C2H   LINE      CODE     ---       #354
      010036C3H   LINE      CODE     ---       #355
      010036CAH   LINE      CODE     ---       #356
      010036DAH   LINE      CODE     ---       #357
      010036E0H   LINE      CODE     ---       #358
      010036E0H   LINE      CODE     ---       #359
      010036E0H   LINE      CODE     ---       #360
      010036E1H   LINE      CODE     ---       #362
      010036E1H   LINE      CODE     ---       #364
      010036E8H   LINE      CODE     ---       #365
      010036EBH   LINE      CODE     ---       #366
      010036EEH   LINE      CODE     ---       #368
      010036EEH   LINE      CODE     ---       #370
      010036EEH   LINE      CODE     ---       #373
      010036EEH   LINE      CODE     ---       #374
      ---         BLOCKEND  ---      ---       LVL=0

      01007550H   BLOCK     CODE     ---       LVL=0
      00000007H   SYMBOL    DATA     BYTE      from
      00000005H   SYMBOL    DATA     BYTE      to
      02000011H   SYMBOL    XDATA    BYTE      ev
      01007550H   LINE      CODE     ---       #377
      01007556H   LINE      CODE     ---       #378
      01007556H   LINE      CODE     ---       #379
      01007562H   LINE      CODE     ---       #381
      01007569H   LINE      CODE     ---       #382
      0100756EH   LINE      CODE     ---       #383
      01007571H   LINE      CODE     ---       #384
      01007576H   LINE      CODE     ---       #386
      01007576H   LINE      CODE     ---       #388
      ---         BLOCKEND  ---      ---       LVL=0

      01007DD6H   BLOCK     CODE     ---       LVL=0
      00000007H   SYMBOL    DATA     BYTE      from
      00000005H   SYMBOL    DATA     BYTE      to
      00000006H   SYMBOL    DATA     BYTE      ev
      01007DD6H   LINE      CODE     ---       #391
      01007DD8H   LINE      CODE     ---       #392
      01007DD8H   LINE      CODE     ---       #393
      01007DE4H   LINE      CODE     ---       #394
      01007DE9H   LINE      CODE     ---       #395
      01007DEEH   LINE      CODE     ---       #396
      01007DF1H   LINE      CODE     ---       #397
      ---         BLOCKEND  ---      ---       LVL=0

      ---         MODULE    ---      ---       SM_FUSE_DETONATE
      0100CED0H   PUBLIC    CONST    ---       sm_fuse_detonate_ss_name
      010056C6H   PUBLIC    CODE     ---       _sm_fuse_detonate_submod0
      01008776H   PUBLIC    CODE     ---       _sm_fuse_detonate_init
      01008188H   SYMBOL    CODE     ---       display_detonate

      0100885AH   BLOCK     CODE     ---       LVL=0
      ---         BLOCKEND  ---      ---       LVL=0

      01008188H   BLOCK     CODE     ---       LVL=0
      01008188H   BLOCK     CODE     NEAR LAB  LVL=1
      00000004H   SYMBOL    DATA     BYTE      i
      ---         BLOCKEND  ---      ---       LVL=1
      01008188H   LINE      CODE     ---       #17
      01008188H   LINE      CODE     ---       #18
      01008188H   LINE      CODE     ---       #20
      0100818BH   LINE      CODE     ---       #21
      0100818DH   LINE      CODE     ---       #22
      01008194H   LINE      CODE     ---       #23
LX51 LINKER/LOCATER V4.66.87.0                                                        05/30/2018  17:25:18  PAGE 222


      01008199H   LINE      CODE     ---       #24
      0100819EH   LINE      CODE     ---       #25
      ---         BLOCKEND  ---      ---       LVL=0

      01008776H   BLOCK     CODE     ---       LVL=0
      00000007H   SYMBOL    DATA     BYTE      from
      00000005H   SYMBOL    DATA     BYTE      to
      00000006H   SYMBOL    DATA     BYTE      ev
      01008776H   LINE      CODE     ---       #27
      01008778H   LINE      CODE     ---       #28
      01008778H   LINE      CODE     ---       #29
      01008782H   LINE      CODE     ---       #30
      ---         BLOCKEND  ---      ---       LVL=0

      010056C6H   BLOCK     CODE     ---       LVL=0
      00000007H   SYMBOL    DATA     BYTE      from
      00000005H   SYMBOL    DATA     BYTE      to
      02000011H   SYMBOL    XDATA    BYTE      ev
      010056C6H   LINE      CODE     ---       #34
      010056CCH   LINE      CODE     ---       #35
      010056CCH   LINE      CODE     ---       #36
      010056D6H   LINE      CODE     ---       #38
      010056DCH   LINE      CODE     ---       #39
      010056E1H   LINE      CODE     ---       #40
      010056E7H   LINE      CODE     ---       #42
      010056E7H   LINE      CODE     ---       #44
      010056FAH   LINE      CODE     ---       #45
      01005704H   LINE      CODE     ---       #46
      01005709H   LINE      CODE     ---       #48
      0100570CH   LINE      CODE     ---       #49
      01005715H   LINE      CODE     ---       #50
      0100571AH   LINE      CODE     ---       #51
      0100571FH   LINE      CODE     ---       #52
      01005725H   LINE      CODE     ---       #53
      01005725H   LINE      CODE     ---       #55
      01005725H   LINE      CODE     ---       #56
      ---         BLOCKEND  ---      ---       LVL=0

      ---         MODULE    ---      ---       SM_FUSE_POWERSAVE
      0100CC1CH   PUBLIC    CONST    ---       sm_fuse_powersave_ss_name
      0100843EH   PUBLIC    CODE     ---       _sm_fuse_powersave_submod1
      01007A9AH   PUBLIC    CODE     ---       _sm_fuse_powersave_submod0
      01008A23H   PUBLIC    CODE     ---       _sm_fuse_powersave_init
      010085D9H   SYMBOL    CODE     ---       roll_back

      010086B2H   BLOCK     CODE     ---       LVL=0
      ---         BLOCKEND  ---      ---       LVL=0

      010085D9H   BLOCK     CODE     ---       LVL=0
      010085D9H   LINE      CODE     ---       #18
      010085D9H   LINE      CODE     ---       #19
      010085D9H   LINE      CODE     ---       #20
      010085DEH   LINE      CODE     ---       #21
      010085E3H   LINE      CODE     ---       #22
      010085E8H   LINE      CODE     ---       #23
      ---         BLOCKEND  ---      ---       LVL=0

      01008A23H   BLOCK     CODE     ---       LVL=0
      00000007H   SYMBOL    DATA     BYTE      from
      00000005H   SYMBOL    DATA     BYTE      to
      00000006H   SYMBOL    DATA     BYTE      ev
      01008A23H   LINE      CODE     ---       #26
      01008A23H   LINE      CODE     ---       #27
      01008A23H   LINE      CODE     ---       #28
      ---         BLOCKEND  ---      ---       LVL=0
LX51 LINKER/LOCATER V4.66.87.0                                                        05/30/2018  17:25:18  PAGE 223



      01007A9AH   BLOCK     CODE     ---       LVL=0
      00000007H   SYMBOL    DATA     BYTE      from
      00000005H   SYMBOL    DATA     BYTE      to
      02000011H   SYMBOL    XDATA    BYTE      ev
      01007A9AH   LINE      CODE     ---       #31
      01007AA0H   LINE      CODE     ---       #32
      01007AA0H   LINE      CODE     ---       #33
      01007AACH   LINE      CODE     ---       #34
      01007AB2H   LINE      CODE     ---       #36
      01007AB5H   LINE      CODE     ---       #37
      01007AB8H   LINE      CODE     ---       #39
      01007AB8H   LINE      CODE     ---       #40
      ---         BLOCKEND  ---      ---       LVL=0

      0100843EH   BLOCK     CODE     ---       LVL=0
      00000007H   SYMBOL    DATA     BYTE      from
      00000005H   SYMBOL    DATA     BYTE      to
      00000006H   SYMBOL    DATA     BYTE      ev
      0100843EH   LINE      CODE     ---       #42
      0100843EH   LINE      CODE     ---       #43
      0100843EH   LINE      CODE     ---       #44
      01008448H   LINE      CODE     ---       #45
      0100844BH   LINE      CODE     ---       #46
      01008451H   LINE      CODE     ---       #47
      ---         BLOCKEND  ---      ---       LVL=0

      ---         MODULE    ---      ---       SM_GLOBAL_FLAG_MOD
      0100C7ABH   PUBLIC    CONST    ---       sm_global_flag_mod_ss_name
      01007DF2H   PUBLIC    CODE     ---       _sm_global_flag_mod_submod2
      01007FC8H   PUBLIC    CODE     ---       _sm_global_flag_mod_submod1
      01007FAFH   PUBLIC    CODE     ---       _sm_global_flag_mod_submod0
      01008089H   PUBLIC    CODE     ---       _sm_global_flag_mod_init
      01005482H   SYMBOL    CODE     ---       _inc_write
      0100312BH   SYMBOL    CODE     ---       _display_global_flag
      010073E8H   SYMBOL    CODE     ---       _sm_global_flag_mod

      01008785H   BLOCK     CODE     ---       LVL=0
      ---         BLOCKEND  ---      ---       LVL=0

      0100312BH   BLOCK     CODE     ---       LVL=0
      02000014H   SYMBOL    XDATA    BYTE      what
      0100312BH   LINE      CODE     ---       #21
      01003130H   LINE      CODE     ---       #22
      01003130H   LINE      CODE     ---       #24
      01003133H   LINE      CODE     ---       #26
      01003144H   LINE      CODE     ---       #28
      01003159H   LINE      CODE     ---       #29
      01003159H   LINE      CODE     ---       #30
      01003160H   LINE      CODE     ---       #31
      01003167H   LINE      CODE     ---       #32
      0100316DH   LINE      CODE     ---       #33
      01003174H   LINE      CODE     ---       #34
      0100317BH   LINE      CODE     ---       #35
      0100317BH   LINE      CODE     ---       #36
      0100317EH   LINE      CODE     ---       #37
      0100318EH   LINE      CODE     ---       #38
      0100319BH   LINE      CODE     ---       #39
      0100319BH   LINE      CODE     ---       #40
      0100319DH   LINE      CODE     ---       #41
      0100319DH   LINE      CODE     ---       #42
      010031A4H   LINE      CODE     ---       #43
      010031ABH   LINE      CODE     ---       #44
      010031B2H   LINE      CODE     ---       #45
      010031B7H   LINE      CODE     ---       #46
LX51 LINKER/LOCATER V4.66.87.0                                                        05/30/2018  17:25:18  PAGE 224


      010031BEH   LINE      CODE     ---       #47
      010031C5H   LINE      CODE     ---       #48
      010031C6H   LINE      CODE     ---       #49
      010031C8H   LINE      CODE     ---       #50
      010031CFH   LINE      CODE     ---       #51
      010031D6H   LINE      CODE     ---       #52
      010031D6H   LINE      CODE     ---       #53
      010031D6H   LINE      CODE     ---       #54
      010031D8H   LINE      CODE     ---       #55
      010031D8H   LINE      CODE     ---       #56
      010031DFH   LINE      CODE     ---       #57
      010031E6H   LINE      CODE     ---       #58
      010031EDH   LINE      CODE     ---       #59
      010031F5H   LINE      CODE     ---       #60
      010031FCH   LINE      CODE     ---       #61
      010031FEH   LINE      CODE     ---       #62
      01003200H   LINE      CODE     ---       #63
      01003207H   LINE      CODE     ---       #64
      0100320DH   LINE      CODE     ---       #65
      0100320DH   LINE      CODE     ---       #66
      0100320DH   LINE      CODE     ---       #67
      0100320DH   LINE      CODE     ---       #68
      ---         BLOCKEND  ---      ---       LVL=0

      01005482H   BLOCK     CODE     ---       LVL=0
      00000007H   SYMBOL    DATA     BYTE      what
      01005482H   BLOCK     CODE     NEAR LAB  LVL=1
      00000020H.0 SYMBOL    BIT      BIT       is12
      ---         BLOCKEND  ---      ---       LVL=1
      01005482H   LINE      CODE     ---       #70
      01005482H   LINE      CODE     ---       #71
      01005482H   LINE      CODE     ---       #73
      0100548EH   LINE      CODE     ---       #74
      0100548EH   LINE      CODE     ---       #75
      01005491H   LINE      CODE     ---       #76
      01005498H   LINE      CODE     ---       #77
      0100549AH   LINE      CODE     ---       #78
      0100549AH   LINE      CODE     ---       #79
      010054A3H   LINE      CODE     ---       #80
      010054AEH   LINE      CODE     ---       #81
      010054B0H   LINE      CODE     ---       #82
      010054B0H   LINE      CODE     ---       #83
      010054BAH   LINE      CODE     ---       #84
      010054C2H   LINE      CODE     ---       #85
      010054C7H   LINE      CODE     ---       #86
      010054CFH   LINE      CODE     ---       #87
      010054D7H   LINE      CODE     ---       #88
      010054E3H   LINE      CODE     ---       #89
      010054E3H   LINE      CODE     ---       #90
      010054E3H   LINE      CODE     ---       #91
      ---         BLOCKEND  ---      ---       LVL=0

      01008089H   BLOCK     CODE     ---       LVL=0
      00000007H   SYMBOL    DATA     BYTE      from
      00000005H   SYMBOL    DATA     BYTE      to
      00000006H   SYMBOL    DATA     BYTE      ev
      01008089H   LINE      CODE     ---       #93
      0100808BH   LINE      CODE     ---       #94
      0100808BH   LINE      CODE     ---       #95
      01008097H   LINE      CODE     ---       #96
      0100809AH   LINE      CODE     ---       #97
      ---         BLOCKEND  ---      ---       LVL=0

      010073E8H   BLOCK     CODE     ---       LVL=0
      02000012H   SYMBOL    XDATA    BYTE      what
LX51 LINKER/LOCATER V4.66.87.0                                                        05/30/2018  17:25:18  PAGE 225


      02000013H   SYMBOL    XDATA    BYTE      ev
      010073E8H   LINE      CODE     ---       #100
      010073F0H   LINE      CODE     ---       #101
      010073F0H   LINE      CODE     ---       #102
      010073F8H   LINE      CODE     ---       #103
      010073FAH   LINE      CODE     ---       #105
      010073FAH   LINE      CODE     ---       #107
      01007401H   LINE      CODE     ---       #108
      01007409H   LINE      CODE     ---       #109
      01007411H   LINE      CODE     ---       #111
      01007411H   LINE      CODE     ---       #112
      ---         BLOCKEND  ---      ---       LVL=0

      01007FAFH   BLOCK     CODE     ---       LVL=0
      00000007H   SYMBOL    DATA     BYTE      from
      00000005H   SYMBOL    DATA     BYTE      to
      02000011H   SYMBOL    XDATA    BYTE      ev
      01007FAFH   LINE      CODE     ---       #114
      01007FB4H   LINE      CODE     ---       #115
      01007FB4H   LINE      CODE     ---       #116
      01007FBEH   LINE      CODE     ---       #117
      ---         BLOCKEND  ---      ---       LVL=0

      01007FC8H   BLOCK     CODE     ---       LVL=0
      00000007H   SYMBOL    DATA     BYTE      from
      00000005H   SYMBOL    DATA     BYTE      to
      02000011H   SYMBOL    XDATA    BYTE      ev
      01007FC8H   LINE      CODE     ---       #120
      01007FCDH   LINE      CODE     ---       #121
      01007FCDH   LINE      CODE     ---       #122
      01007FD7H   LINE      CODE     ---       #123
      ---         BLOCKEND  ---      ---       LVL=0

      01007DF2H   BLOCK     CODE     ---       LVL=0
      00000007H   SYMBOL    DATA     BYTE      from
      00000005H   SYMBOL    DATA     BYTE      to
      02000011H   SYMBOL    XDATA    BYTE      ev
      01007DF2H   LINE      CODE     ---       #126
      01007DF8H   LINE      CODE     ---       #127
      01007DF8H   LINE      CODE     ---       #128
      01007E04H   LINE      CODE     ---       #129
      ---         BLOCKEND  ---      ---       LVL=0

      ---         MODULE    ---      ---       CMD_HELP
      01005DC9H   PUBLIC    CODE     ---       _cmd_help

      01008452H   BLOCK     CODE     ---       LVL=0
      ---         BLOCKEND  ---      ---       LVL=0

      01005DC9H   BLOCK     CODE     ---       LVL=0
      02000008H   SYMBOL    XDATA    CHAR      arg1
      02000009H   SYMBOL    XDATA    CHAR      arg2
      01005DCEH   BLOCK     CODE     NEAR LAB  LVL=1
      00000007H   SYMBOL    DATA     CHAR      i
      ---         BLOCKEND  ---      ---       LVL=1
      01005DC9H   LINE      CODE     ---       #6
      01005DCEH   LINE      CODE     ---       #7
      01005DCEH   LINE      CODE     ---       #10
      01005DCEH   LINE      CODE     ---       #12
      01005DD0H   LINE      CODE     ---       #13
      01005DD3H   LINE      CODE     ---       #14
      01005DD5H   LINE      CODE     ---       #15
      01005DDBH   LINE      CODE     ---       #16
      01005DDFH   LINE      CODE     ---       #17
      01005E06H   LINE      CODE     ---       #18
LX51 LINKER/LOCATER V4.66.87.0                                                        05/30/2018  17:25:18  PAGE 226


      01005E08H   LINE      CODE     ---       #19
      01005E1AH   LINE      CODE     ---       #20
      01005E1AH   LINE      CODE     ---       #21
      01005E1AH   LINE      CODE     ---       #22
      01005E1CH   LINE      CODE     ---       #23
      ---         BLOCKEND  ---      ---       LVL=0

      ---         MODULE    ---      ---       CMD_SERIAL
      01003D7BH   PUBLIC    CODE     ---       _cmd_serial

      01008996H   BLOCK     CODE     ---       LVL=0
      ---         BLOCKEND  ---      ---       LVL=0

      01003D7BH   BLOCK     CODE     ---       LVL=0
      02000008H   SYMBOL    XDATA    CHAR      arg1
      02000009H   SYMBOL    XDATA    CHAR      arg2
      01003D85H   BLOCK     CODE     NEAR LAB  LVL=1
      0200000AH   SYMBOL    XDATA    CHAR      index
      0200000BH   SYMBOL    XDATA    CHAR      val
      ---         BLOCKEND  ---      ---       LVL=1
      01003D7BH   LINE      CODE     ---       #8
      01003D85H   LINE      CODE     ---       #9
      01003D85H   LINE      CODE     ---       #12
      01003D87H   LINE      CODE     ---       #13
      01003D8AH   LINE      CODE     ---       #14
      01003D8CH   LINE      CODE     ---       #15
      01003D97H   LINE      CODE     ---       #16
      01003D9DH   LINE      CODE     ---       #17
      01003DB8H   LINE      CODE     ---       #18
      01003DBAH   LINE      CODE     ---       #19
      01003DCDH   LINE      CODE     ---       #20
      01003DF9H   LINE      CODE     ---       #21
      01003E07H   LINE      CODE     ---       #22
      01003E0AH   LINE      CODE     ---       #23
      01003E0AH   LINE      CODE     ---       #24
      01003E0AH   LINE      CODE     ---       #25
      01003E0CH   LINE      CODE     ---       #26
      ---         BLOCKEND  ---      ---       LVL=0

      ---         MODULE    ---      ---       CMD_INT
      01006AB4H   PUBLIC    CODE     ---       _cmd_int

      01006AB4H   BLOCK     CODE     ---       LVL=0
      02000008H   SYMBOL    XDATA    CHAR      arg1
      02000009H   SYMBOL    XDATA    CHAR      arg2
      01006AB9H   BLOCK     CODE     NEAR LAB  LVL=1
      00000006H   SYMBOL    DATA     WORD      status
      ---         BLOCKEND  ---      ---       LVL=1
      01006AB4H   LINE      CODE     ---       #7
      01006AB9H   LINE      CODE     ---       #8
      01006AB9H   LINE      CODE     ---       #11
      01006AB9H   LINE      CODE     ---       #13
      01006ABBH   LINE      CODE     ---       #14
      01006ABEH   LINE      CODE     ---       #15
      01006ADFH   LINE      CODE     ---       #16
      01006AE2H   LINE      CODE     ---       #17
      01006AE5H   LINE      CODE     ---       #18
      01006AE7H   LINE      CODE     ---       #19
      01006AEAH   LINE      CODE     ---       #20
      01006AEAH   LINE      CODE     ---       #22
      01006AECH   LINE      CODE     ---       #23
      ---         BLOCKEND  ---      ---       LVL=0

      ---         MODULE    ---      ---       CMD_I2C
      01006DA4H   PUBLIC    CODE     ---       _cmd_i2c
LX51 LINKER/LOCATER V4.66.87.0                                                        05/30/2018  17:25:18  PAGE 227


      010037B4H   SYMBOL    CODE     ---       _i2c_write
      020000E9H   SYMBOL    XDATA    BYTE      write_addr
      010046E2H   SYMBOL    CODE     ---       _i2c_read

      0100795BH   BLOCK     CODE     ---       LVL=0
      ---         BLOCKEND  ---      ---       LVL=0

      010046E2H   BLOCK     CODE     ---       LVL=0
      00000007H   SYMBOL    DATA     CHAR      arg1
      0200000AH   SYMBOL    XDATA    CHAR      arg2
      010046E7H   BLOCK     CODE     NEAR LAB  LVL=1
      0200000BH   SYMBOL    XDATA    BYTE      addr
      0200000CH   SYMBOL    XDATA    BYTE      cmd
      0200000DH   SYMBOL    XDATA    BYTE      val
      00000020H.0 SYMBOL    BIT      BIT       ret
      ---         BLOCKEND  ---      ---       LVL=1
      010046E2H   LINE      CODE     ---       #10
      010046E7H   LINE      CODE     ---       #11
      010046E7H   LINE      CODE     ---       #15
      010046EDH   LINE      CODE     ---       #16
      010046F0H   LINE      CODE     ---       #18
      010046FCH   LINE      CODE     ---       #19
      0100470AH   LINE      CODE     ---       #21
      01004719H   LINE      CODE     ---       #22
      0100471CH   LINE      CODE     ---       #24
      0100471FH   LINE      CODE     ---       #25
      01004732H   LINE      CODE     ---       #27
      01004768H   LINE      CODE     ---       #29
      0100476AH   LINE      CODE     ---       #30
      ---         BLOCKEND  ---      ---       LVL=0

      010037B4H   BLOCK     CODE     ---       LVL=0
      0200000AH   SYMBOL    XDATA    CHAR      arg1
      0200000BH   SYMBOL    XDATA    CHAR      arg2
      010037BEH   BLOCK     CODE     NEAR LAB  LVL=1
      0200000CH   SYMBOL    XDATA    BYTE      addr
      0200000DH   SYMBOL    XDATA    BYTE      cmd
      0200000EH   SYMBOL    XDATA    BYTE      val
      00000020H.0 SYMBOL    BIT      BIT       ret
      ---         BLOCKEND  ---      ---       LVL=1
      010037B4H   LINE      CODE     ---       #32
      010037BEH   LINE      CODE     ---       #33
      010037BEH   LINE      CODE     ---       #37
      010037C0H   LINE      CODE     ---       #38
      010037C3H   LINE      CODE     ---       #41
      010037C9H   LINE      CODE     ---       #42
      010037D4H   LINE      CODE     ---       #43
      010037D9H   LINE      CODE     ---       #44
      010037DCH   LINE      CODE     ---       #45
      010037DCH   LINE      CODE     ---       #46
      010037F5H   LINE      CODE     ---       #47
      010037FDH   LINE      CODE     ---       #48
      01003800H   LINE      CODE     ---       #49
      01003800H   LINE      CODE     ---       #50
      01003800H   LINE      CODE     ---       #53
      0100380BH   LINE      CODE     ---       #54
      01003819H   LINE      CODE     ---       #56
      01003828H   LINE      CODE     ---       #57
      0100382BH   LINE      CODE     ---       #59
      0100382EH   LINE      CODE     ---       #60
      01003840H   LINE      CODE     ---       #61
      01003876H   LINE      CODE     ---       #63
      01003878H   LINE      CODE     ---       #64
      ---         BLOCKEND  ---      ---       LVL=0

LX51 LINKER/LOCATER V4.66.87.0                                                        05/30/2018  17:25:18  PAGE 228


      01006DA4H   BLOCK     CODE     ---       LVL=0
      02000008H   SYMBOL    XDATA    CHAR      arg1
      02000009H   SYMBOL    XDATA    CHAR      arg2
      01006DA4H   LINE      CODE     ---       #66
      01006DACH   LINE      CODE     ---       #67
      01006DACH   LINE      CODE     ---       #68
      01006DB5H   LINE      CODE     ---       #69
      01006DC0H   LINE      CODE     ---       #70
      01006DC9H   LINE      CODE     ---       #71
      01006DD4H   LINE      CODE     ---       #72
      01006DD4H   LINE      CODE     ---       #73
      01006DD6H   LINE      CODE     ---       #74
      ---         BLOCKEND  ---      ---       LVL=0

      ---         MODULE    ---      ---       CMD_DBG
      010063D6H   PUBLIC    CODE     ---       _cmd_dbg

      010080A1H   BLOCK     CODE     ---       LVL=0
      ---         BLOCKEND  ---      ---       LVL=0

      010063D6H   BLOCK     CODE     ---       LVL=0
      02000008H   SYMBOL    XDATA    CHAR      arg1
      02000009H   SYMBOL    XDATA    CHAR      arg2
      010063D6H   LINE      CODE     ---       #8
      010063DBH   LINE      CODE     ---       #9
      010063DBH   LINE      CODE     ---       #11
      010063DBH   LINE      CODE     ---       #13
      010063DDH   LINE      CODE     ---       #14
      010063E0H   LINE      CODE     ---       #16
      010063EDH   LINE      CODE     ---       #17
      010063F6H   LINE      CODE     ---       #18
      010063F8H   LINE      CODE     ---       #19
      01006407H   LINE      CODE     ---       #20
      01006410H   LINE      CODE     ---       #21
      01006415H   LINE      CODE     ---       #22
      01006417H   LINE      CODE     ---       #23
      0100641AH   LINE      CODE     ---       #24
      0100641AH   LINE      CODE     ---       #26
      0100641CH   LINE      CODE     ---       #27
      ---         BLOCKEND  ---      ---       LVL=0

      ---         MODULE    ---      ---       CMD_REBOOT
      010064EBH   PUBLIC    CODE     ---       _cmd_reboot
      00000080H   SFRSYM    DATA     BYTE      P0
      00000090H   SFRSYM    DATA     BYTE      P1
      000000A0H   SFRSYM    DATA     BYTE      P2
      000000B0H   SFRSYM    DATA     BYTE      P3
      000000C0H   SFRSYM    DATA     BYTE      XICON
      000000B0H.4 SFRSYM    DATA     BIT       T0
      000000D0H.6 SFRSYM    DATA     BIT       AC
      000000E8H   SFRSYM    DATA     BYTE      P4
      000000B0H.5 SFRSYM    DATA     BIT       T1
      000000E6H   SFRSYM    DATA     BYTE      ISP_TRIG
      00000090H.0 SFRSYM    DATA     BIT       T2
      000000A8H.7 SFRSYM    DATA     BIT       EA
      000000A8H.6 SFRSYM    DATA     BIT       EC
      00000098H.7 SFRSYM    DATA     BIT       FE
      000000A8H   SFRSYM    DATA     BYTE      IE
      000000C8H.6 SFRSYM    DATA     BIT       EXF2
      000000B0H.7 SFRSYM    DATA     BIT       RD
      000000A8H.4 SFRSYM    DATA     BIT       ES
      000000B8H   SFRSYM    DATA     BYTE      IP
      00000098H.0 SFRSYM    DATA     BIT       RI
      000000B0H.2 SFRSYM    DATA     BIT       INT0
      000000D0H.7 SFRSYM    DATA     BIT       CY
LX51 LINKER/LOCATER V4.66.87.0                                                        05/30/2018  17:25:18  PAGE 229


      00000098H.1 SFRSYM    DATA     BIT       TI
      000000B0H.3 SFRSYM    DATA     BIT       INT1
      000000CBH   SFRSYM    DATA     BYTE      RCAP2H
      000000E5H   SFRSYM    DATA     BYTE      ISP_CMD
      000000B8H.4 SFRSYM    DATA     BIT       PS
      00000081H   SFRSYM    DATA     BYTE      SP
      00000090H.1 SFRSYM    DATA     BIT       T2EX
      000000D0H.2 SFRSYM    DATA     BIT       OV
      000000CAH   SFRSYM    DATA     BYTE      RCAP2L
      000000C8H.1 SFRSYM    DATA     BIT       C_T2
      000000B0H.6 SFRSYM    DATA     BIT       WR
      000000C8H.5 SFRSYM    DATA     BIT       RCLK
      000000C8H.4 SFRSYM    DATA     BIT       TCLK
      00000080H.0 SFRSYM    DATA     BIT       P00
      00000099H   SFRSYM    DATA     BYTE      SBUF
      00000087H   SFRSYM    DATA     BYTE      PCON
      00000090H.0 SFRSYM    DATA     BIT       P10
      00000080H.1 SFRSYM    DATA     BIT       P01
      000000A0H.0 SFRSYM    DATA     BIT       P20
      00000090H.1 SFRSYM    DATA     BIT       P11
      00000080H.2 SFRSYM    DATA     BIT       P02
      000000E3H   SFRSYM    DATA     BYTE      ISP_ADDRH
      000000B0H.0 SFRSYM    DATA     BIT       P30
      000000A0H.1 SFRSYM    DATA     BIT       P21
      00000090H.2 SFRSYM    DATA     BIT       P12
      00000080H.3 SFRSYM    DATA     BIT       P03
      00000098H   SFRSYM    DATA     BYTE      SCON
      000000B0H.1 SFRSYM    DATA     BIT       P31
      000000A0H.2 SFRSYM    DATA     BIT       P22
      00000090H.3 SFRSYM    DATA     BIT       P13
      00000080H.4 SFRSYM    DATA     BIT       P04
      000000E8H.0 SFRSYM    DATA     BIT       P40
      00000089H   SFRSYM    DATA     BYTE      TMOD
      00000088H   SFRSYM    DATA     BYTE      TCON
      000000B0H.2 SFRSYM    DATA     BIT       P32
      000000A0H.3 SFRSYM    DATA     BIT       P23
      00000090H.4 SFRSYM    DATA     BIT       P14
      00000080H.5 SFRSYM    DATA     BIT       P05
      000000E8H.1 SFRSYM    DATA     BIT       P41
      000000B0H.3 SFRSYM    DATA     BIT       P33
      000000A0H.4 SFRSYM    DATA     BIT       P24
      00000090H.5 SFRSYM    DATA     BIT       P15
      00000080H.6 SFRSYM    DATA     BIT       P06
      000000E4H   SFRSYM    DATA     BYTE      ISP_ADDRL
      000000E8H.2 SFRSYM    DATA     BIT       P42
      000000B0H.4 SFRSYM    DATA     BIT       P34
      000000A0H.5 SFRSYM    DATA     BIT       P25
      00000090H.6 SFRSYM    DATA     BIT       P16
      00000080H.7 SFRSYM    DATA     BIT       P07
      000000E8H.3 SFRSYM    DATA     BIT       P43
      000000B0H.5 SFRSYM    DATA     BIT       P35
      000000A0H.6 SFRSYM    DATA     BIT       P26
      00000090H.7 SFRSYM    DATA     BIT       P17
      000000E8H.4 SFRSYM    DATA     BIT       P44
      000000B0H.6 SFRSYM    DATA     BIT       P36
      000000A0H.7 SFRSYM    DATA     BIT       P27
      000000E8H.5 SFRSYM    DATA     BIT       P45
      000000B0H.7 SFRSYM    DATA     BIT       P37
      000000E8H.6 SFRSYM    DATA     BIT       P46
      00000088H.1 SFRSYM    DATA     BIT       IE0
      00000088H.3 SFRSYM    DATA     BIT       IE1
      0000008EH   SFRSYM    DATA     BYTE      AUXR
      000000F0H   SFRSYM    DATA     BYTE      B
      000000C8H.0 SFRSYM    DATA     BIT       CP_RL2
      000000E0H   SFRSYM    DATA     BYTE      ACC
LX51 LINKER/LOCATER V4.66.87.0                                                        05/30/2018  17:25:18  PAGE 230


      000000A8H.1 SFRSYM    DATA     BIT       ET0
      000000A8H.3 SFRSYM    DATA     BIT       ET1
      00000088H.5 SFRSYM    DATA     BIT       TF0
      000000A8H.5 SFRSYM    DATA     BIT       ET2
      00000088H.7 SFRSYM    DATA     BIT       TF1
      000000C8H.7 SFRSYM    DATA     BIT       TF2
      00000098H.2 SFRSYM    DATA     BIT       RB8
      0000008CH   SFRSYM    DATA     BYTE      TH0
      000000A8H.0 SFRSYM    DATA     BIT       EX0
      00000088H.0 SFRSYM    DATA     BIT       IT0
      0000008DH   SFRSYM    DATA     BYTE      TH1
      00000098H.3 SFRSYM    DATA     BIT       TB8
      000000A8H.2 SFRSYM    DATA     BIT       EX1
      00000088H.2 SFRSYM    DATA     BIT       IT1
      000000CDH   SFRSYM    DATA     BYTE      TH2
      000000D0H.0 SFRSYM    DATA     BIT       P
      00000098H.7 SFRSYM    DATA     BIT       SM0
      0000008AH   SFRSYM    DATA     BYTE      TL0
      00000098H.6 SFRSYM    DATA     BIT       SM1
      0000008BH   SFRSYM    DATA     BYTE      TL1
      00000098H.5 SFRSYM    DATA     BIT       SM2
      000000CCH   SFRSYM    DATA     BYTE      TL2
      000000B8H.1 SFRSYM    DATA     BIT       PT0
      000000B8H.3 SFRSYM    DATA     BIT       PT1
      000000D0H.3 SFRSYM    DATA     BIT       RS0
      000000E7H   SFRSYM    DATA     BYTE      ISP_CONTR
      000000B8H.5 SFRSYM    DATA     BIT       PT2
      00000088H.4 SFRSYM    DATA     BIT       TR0
      000000D0H.4 SFRSYM    DATA     BIT       RS1
      00000088H.6 SFRSYM    DATA     BIT       TR1
      000000C8H.2 SFRSYM    DATA     BIT       TR2
      000000B8H.0 SFRSYM    DATA     BIT       PX0
      000000E1H   SFRSYM    DATA     BYTE      WDT_CONTR
      000000B8H.2 SFRSYM    DATA     BIT       PX1
      00000083H   SFRSYM    DATA     BYTE      DPH
      00000082H   SFRSYM    DATA     BYTE      DPL
      000000B7H   SFRSYM    DATA     BYTE      IPH
      000000C8H.3 SFRSYM    DATA     BIT       EXEN2
      00000098H.4 SFRSYM    DATA     BIT       REN
      000000C9H   SFRSYM    DATA     BYTE      T2MOD
      000000C8H   SFRSYM    DATA     BYTE      T2CON
      000000E2H   SFRSYM    DATA     BYTE      ISP_DATA
      000000B9H   SFRSYM    DATA     BYTE      SADEN
      000000B0H.0 SFRSYM    DATA     BIT       RXD
      000000A9H   SFRSYM    DATA     BYTE      SADDR
      000000B0H.1 SFRSYM    DATA     BIT       TXD
      000000A2H   SFRSYM    DATA     BYTE      AUXR1
      000000D0H.5 SFRSYM    DATA     BIT       F0
      000000D0H   SFRSYM    DATA     BYTE      PSW

      010064EBH   BLOCK     CODE     ---       LVL=0
      02000008H   SYMBOL    XDATA    CHAR      arg1
      02000009H   SYMBOL    XDATA    CHAR      arg2
      010064F0H   BLOCK     CODE     NEAR LAB  LVL=1
      00000006H   SYMBOL    DATA     ---       fuck
      ---         BLOCKEND  ---      ---       LVL=1
      010064EBH   LINE      CODE     ---       #9
      010064F0H   LINE      CODE     ---       #10
      010064F0H   LINE      CODE     ---       #13
      010064F0H   LINE      CODE     ---       #15
      010064F2H   LINE      CODE     ---       #17
      010064F4H   LINE      CODE     ---       #18
      010064FCH   LINE      CODE     ---       #23
      010064FFH   LINE      CODE     ---       #24
      01006520H   LINE      CODE     ---       #26
LX51 LINKER/LOCATER V4.66.87.0                                                        05/30/2018  17:25:18  PAGE 231


      01006529H   LINE      CODE     ---       #27
      0100652CH   LINE      CODE     ---       #32
      0100652CH   LINE      CODE     ---       #33
      0100652EH   LINE      CODE     ---       #34
      ---         BLOCKEND  ---      ---       LVL=0

      ---         MODULE    ---      ---       CMD_TASK
      010039F7H   PUBLIC    CODE     ---       _cmd_task

      01008794H   BLOCK     CODE     ---       LVL=0
      ---         BLOCKEND  ---      ---       LVL=0

      010039F7H   BLOCK     CODE     ---       LVL=0
      02000008H   SYMBOL    XDATA    CHAR      arg1
      02000009H   SYMBOL    XDATA    CHAR      arg2
      01003A01H   BLOCK     CODE     NEAR LAB  LVL=1
      0200000AH   SYMBOL    XDATA    BYTE      tsk
      00000007H   SYMBOL    DATA     BYTE      val
      ---         BLOCKEND  ---      ---       LVL=1
      010039F7H   LINE      CODE     ---       #6
      01003A01H   LINE      CODE     ---       #7
      01003A01H   LINE      CODE     ---       #11
      01003A03H   LINE      CODE     ---       #12
      01003A06H   LINE      CODE     ---       #13
      01003A09H   LINE      CODE     ---       #14
      01003A12H   LINE      CODE     ---       #15
      01003A1AH   LINE      CODE     ---       #16
      01003A1DH   LINE      CODE     ---       #18
      01003A27H   LINE      CODE     ---       #19
      01003A2AH   LINE      CODE     ---       #21
      01003A2DH   LINE      CODE     ---       #22
      01003A5EH   LINE      CODE     ---       #23
      01003A60H   LINE      CODE     ---       #24
      01003A96H   LINE      CODE     ---       #25
      01003A96H   LINE      CODE     ---       #26
      01003A99H   LINE      CODE     ---       #27
      01003A99H   LINE      CODE     ---       #29
      01003A9BH   LINE      CODE     ---       #30
      ---         BLOCKEND  ---      ---       LVL=0

      ---         MODULE    ---      ---       CMD_SM
      01002732H   PUBLIC    CODE     ---       _cmd_sm

      010068E5H   BLOCK     CODE     ---       LVL=0
      ---         BLOCKEND  ---      ---       LVL=0

      01002732H   BLOCK     CODE     ---       LVL=0
      02000008H   SYMBOL    XDATA    CHAR      arg1
      02000009H   SYMBOL    XDATA    CHAR      arg2
      01002732H   LINE      CODE     ---       #8
      0100273CH   LINE      CODE     ---       #9
      0100273CH   LINE      CODE     ---       #10
      0100273EH   LINE      CODE     ---       #11
      01002741H   LINE      CODE     ---       #12
      01002744H   LINE      CODE     ---       #13
      01002752H   LINE      CODE     ---       #14
      01002755H   LINE      CODE     ---       #15
      0100276CH   LINE      CODE     ---       #16
      0100276FH   LINE      CODE     ---       #17
      01002787H   LINE      CODE     ---       #18
      01002795H   LINE      CODE     ---       #19
      010027A2H   LINE      CODE     ---       #20
      010027A2H   LINE      CODE     ---       #21
      010027B9H   LINE      CODE     ---       #22
      010027BCH   LINE      CODE     ---       #23
LX51 LINKER/LOCATER V4.66.87.0                                                        05/30/2018  17:25:18  PAGE 232


      010027D4H   LINE      CODE     ---       #24
      010027DFH   LINE      CODE     ---       #25
      010027ECH   LINE      CODE     ---       #26
      010027ECH   LINE      CODE     ---       #27
      01002802H   LINE      CODE     ---       #28
      01002805H   LINE      CODE     ---       #29
      01002822H   LINE      CODE     ---       #30
      0100282DH   LINE      CODE     ---       #31
      0100283DH   LINE      CODE     ---       #32
      0100283DH   LINE      CODE     ---       #33
      0100283FH   LINE      CODE     ---       #34
      01002842H   LINE      CODE     ---       #35
      01002842H   LINE      CODE     ---       #36
      01002842H   LINE      CODE     ---       #37
      01002844H   LINE      CODE     ---       #38
      ---         BLOCKEND  ---      ---       LVL=0

      ---         MODULE    ---      ---       CMD_BEEPER
      01002F50H   PUBLIC    CODE     ---       _cmd_beeper

      0100760FH   BLOCK     CODE     ---       LVL=0
      ---         BLOCKEND  ---      ---       LVL=0

      01002F50H   BLOCK     CODE     ---       LVL=0
      02000008H   SYMBOL    XDATA    CHAR      arg1
      02000009H   SYMBOL    XDATA    CHAR      arg2
      01002F5AH   BLOCK     CODE     NEAR LAB  LVL=1
      0200000AH   SYMBOL    XDATA    CHAR      index
      ---         BLOCKEND  ---      ---       LVL=1
      01002F50H   LINE      CODE     ---       #8
      01002F5AH   LINE      CODE     ---       #9
      01002F5AH   LINE      CODE     ---       #11
      01002F71H   LINE      CODE     ---       #12
      01002F74H   LINE      CODE     ---       #13
      01002F8BH   LINE      CODE     ---       #14
      01002F8EH   LINE      CODE     ---       #15
      01002FA5H   LINE      CODE     ---       #16
      01002FAAH   LINE      CODE     ---       #17
      01002FB0H   LINE      CODE     ---       #18
      01002FC9H   LINE      CODE     ---       #19
      01002FCEH   LINE      CODE     ---       #20
      01002FD4H   LINE      CODE     ---       #21
      01002FEDH   LINE      CODE     ---       #22
      01002FF5H   LINE      CODE     ---       #23
      01002FF8H   LINE      CODE     ---       #24
      01003011H   LINE      CODE     ---       #25
      0100302AH   LINE      CODE     ---       #26
      01003033H   LINE      CODE     ---       #27
      01003036H   LINE      CODE     ---       #28
      01003038H   LINE      CODE     ---       #29
      0100303BH   LINE      CODE     ---       #30
      0100303BH   LINE      CODE     ---       #31
      0100303DH   LINE      CODE     ---       #32
      ---         BLOCKEND  ---      ---       LVL=0

      ---         MODULE    ---      ---       CMD_THERMO
      010025E6H   PUBLIC    CODE     ---       _cmd_thermo

      01007A3CH   BLOCK     CODE     ---       LVL=0
      ---         BLOCKEND  ---      ---       LVL=0

      010025E6H   BLOCK     CODE     ---       LVL=0
      02000008H   SYMBOL    XDATA    CHAR      arg1
      02000009H   SYMBOL    XDATA    CHAR      arg2
      010025F0H   BLOCK     CODE     NEAR LAB  LVL=1
LX51 LINKER/LOCATER V4.66.87.0                                                        05/30/2018  17:25:18  PAGE 233


      0200000AH   SYMBOL    XDATA    CHAR      val
      ---         BLOCKEND  ---      ---       LVL=1
      010025E6H   LINE      CODE     ---       #8
      010025F0H   LINE      CODE     ---       #9
      010025F0H   LINE      CODE     ---       #11
      010025F2H   LINE      CODE     ---       #12
      010025F5H   LINE      CODE     ---       #13
      010025FCH   LINE      CODE     ---       #14
      01002604H   LINE      CODE     ---       #15
      01002611H   LINE      CODE     ---       #16
      01002613H   LINE      CODE     ---       #17
      01002622H   LINE      CODE     ---       #18
      01002627H   LINE      CODE     ---       #19
      01002637H   LINE      CODE     ---       #20
      0100263AH   LINE      CODE     ---       #21
      01002641H   LINE      CODE     ---       #22
      01002650H   LINE      CODE     ---       #23
      01002653H   LINE      CODE     ---       #24
      01002661H   LINE      CODE     ---       #25
      01002664H   LINE      CODE     ---       #26
      01002667H   LINE      CODE     ---       #27
      01002667H   LINE      CODE     ---       #28
      01002667H   LINE      CODE     ---       #29
      01002674H   LINE      CODE     ---       #30
      01002684H   LINE      CODE     ---       #31
      01002687H   LINE      CODE     ---       #32
      0100269AH   LINE      CODE     ---       #33
      0100269DH   LINE      CODE     ---       #34
      010026AFH   LINE      CODE     ---       #35
      010026B2H   LINE      CODE     ---       #36
      010026B4H   LINE      CODE     ---       #37
      010026B7H   LINE      CODE     ---       #38
      010026BAH   LINE      CODE     ---       #39
      010026BAH   LINE      CODE     ---       #40
      010026C9H   LINE      CODE     ---       #41
      010026D9H   LINE      CODE     ---       #42
      010026DCH   LINE      CODE     ---       #43
      010026EEH   LINE      CODE     ---       #44
      010026F1H   LINE      CODE     ---       #45
      01002703H   LINE      CODE     ---       #46
      01002706H   LINE      CODE     ---       #47
      01002708H   LINE      CODE     ---       #48
      0100270BH   LINE      CODE     ---       #49
      0100270EH   LINE      CODE     ---       #50
      0100270EH   LINE      CODE     ---       #51
      01002710H   LINE      CODE     ---       #52
      01002713H   LINE      CODE     ---       #53
      01002713H   LINE      CODE     ---       #54
      01002713H   LINE      CODE     ---       #55
      01002715H   LINE      CODE     ---       #56
      ---         BLOCKEND  ---      ---       LVL=0

      ---         MODULE    ---      ---       CMD_MPU
      01004D4EH   PUBLIC    CODE     ---       _cmd_mpu

      01008291H   BLOCK     CODE     ---       LVL=0
      ---         BLOCKEND  ---      ---       LVL=0

      01004D4EH   BLOCK     CODE     ---       LVL=0
      02000008H   SYMBOL    XDATA    CHAR      arg1
      02000009H   SYMBOL    XDATA    CHAR      arg2
      01004D4EH   LINE      CODE     ---       #10
      01004D58H   LINE      CODE     ---       #11
      01004D58H   LINE      CODE     ---       #12
      01004D7AH   LINE      CODE     ---       #13
LX51 LINKER/LOCATER V4.66.87.0                                                        05/30/2018  17:25:18  PAGE 234


      01004D7CH   LINE      CODE     ---       #14
      01004D92H   LINE      CODE     ---       #15
      01004D97H   LINE      CODE     ---       #16
      01004DADH   LINE      CODE     ---       #17
      01004DBEH   LINE      CODE     ---       #18
      01004DC0H   LINE      CODE     ---       #19
      01004DC3H   LINE      CODE     ---       #20
      01004DC3H   LINE      CODE     ---       #21
      01004DC5H   LINE      CODE     ---       #22
      ---         BLOCKEND  ---      ---       LVL=0

      ---         MODULE    ---      ---       ?C?FPMUL
      0100002EH   PUBLIC    CODE     ---       ?C?FPMUL

      ---         MODULE    ---      ---       ?C?FPDIV
      01000137H   PUBLIC    CODE     ---       ?C?FPDIV

      ---         MODULE    ---      ---       ?C?FCAST
      010001DEH   PUBLIC    CODE     ---       ?C?FCASTC
      010001D9H   PUBLIC    CODE     ---       ?C?FCASTI
      010001D4H   PUBLIC    CODE     ---       ?C?FCASTL

      ---         MODULE    ---      ---       ?C?CASTF
      01000212H   PUBLIC    CODE     ---       ?C?CASTF

      ---         MODULE    ---      ---       PRINTF
      0200004DH   PUBLIC    XDATA    ---       ?_PRINTF?BYTE
      0200004DH   PUBLIC    XDATA    ---       ?_SPRINTF?BYTE
      01000B34H   PUBLIC    CODE     ---       _PRINTF
      01000B2EH   PUBLIC    CODE     ---       _SPRINTF

      ---         MODULE    ---      ---       VPRINTF
      02010047H   PUBLIC    XDATA    ---       ?_VPRINTF?BYTE
      01006C6DH   PUBLIC    CODE     ---       _VPRINTF

      ---         MODULE    ---      ---       ?C?FPGETOPN
      01000249H   PUBLIC    CODE     ---       ?C?FPGETOPN2
      0100027EH   PUBLIC    CODE     ---       ?C?FPNANRESULT
      01000288H   PUBLIC    CODE     ---       ?C?FPOVERFLOW
      01000260H   PUBLIC    CODE     ---       ?C?FPRESULT
      01000274H   PUBLIC    CODE     ---       ?C?FPRESULT2
      01000285H   PUBLIC    CODE     ---       ?C?FPUNDERFLOW

      ---         MODULE    ---      ---       ?C?FPROUND
      01000293H   PUBLIC    CODE     ---       ?C?FPROUND

      ---         MODULE    ---      ---       ?C?FPCONVERT
      010002D0H   PUBLIC    CODE     ---       ?C?FPCONVERT

      ---         MODULE    ---      ---       ?C?FPADD
      010003DCH   PUBLIC    CODE     ---       ?C?FPADD
      010003D8H   PUBLIC    CODE     ---       ?C?FPSUB

      ---         MODULE    ---      ---       ?C?FTNPWR
      010004FDH   PUBLIC    CODE     ---       ?C?FTNPWR

      ---         MODULE    ---      ---       ?C?SCDIV
      0100053DH   PUBLIC    CODE     ---       ?C?SCDIV

      ---         MODULE    ---      ---       ?C?CLDPTR
      0100055FH   PUBLIC    CODE     ---       ?C?CLDPTR

      ---         MODULE    ---      ---       ?C?CLDOPTR
      01000578H   PUBLIC    CODE     ---       ?C?CLDOPTR

LX51 LINKER/LOCATER V4.66.87.0                                                        05/30/2018  17:25:18  PAGE 235


      ---         MODULE    ---      ---       ?C?CSTPTR
      010005A5H   PUBLIC    CODE     ---       ?C?CSTPTR

      ---         MODULE    ---      ---       ?C?IMUL
      010005B7H   PUBLIC    CODE     ---       ?C?IMUL

      ---         MODULE    ---      ---       ?C?UIDIV
      010005C9H   PUBLIC    CODE     ---       ?C?UIDIV

      ---         MODULE    ---      ---       ?C?IILDX
      0100061EH   PUBLIC    CODE     ---       ?C?IILDX

      ---         MODULE    ---      ---       ?C?ILDOPTR
      01000634H   PUBLIC    CODE     ---       ?C?ILDOPTR

      ---         MODULE    ---      ---       ?C?LADD
      0100066CH   PUBLIC    CODE     ---       ?C?LADD

      ---         MODULE    ---      ---       ?C?LSUB
      01000679H   PUBLIC    CODE     ---       ?C?LSUB

      ---         MODULE    ---      ---       ?C?LNEG
      01000687H   PUBLIC    CODE     ---       ?C?LNEG

      ---         MODULE    ---      ---       ?C?SLCMP
      01000695H   PUBLIC    CODE     ---       ?C?SLCMP

      ---         MODULE    ---      ---       ?C?LLDXDATA
      010006ABH   PUBLIC    CODE     ---       ?C?LLDXDATA

      ---         MODULE    ---      ---       ?C?LLDXDATA0
      010006B7H   PUBLIC    CODE     ---       ?C?LLDXDATA0

      ---         MODULE    ---      ---       ?C?LSTXDATA
      010006C3H   PUBLIC    CODE     ---       ?C?LSTXDATA

      ---         MODULE    ---      ---       ?C?LSTKXDATA
      010006CFH   PUBLIC    CODE     ---       ?C?LSTKXDATA

      ---         MODULE    ---      ---       ?C?OFFX256
      01000700H   PUBLIC    CODE     ---       ?C?OFFX256

      ---         MODULE    ---      ---       ?C?OFFXADD
      01000711H   PUBLIC    CODE     ---       ?C?OFFXADD

      ---         MODULE    ---      ---       ?C?PLDXDATA
      0100071DH   PUBLIC    CODE     ---       ?C?PLDXDATA

      ---         MODULE    ---      ---       ?C?PLDIXDATA
      01000726H   PUBLIC    CODE     ---       ?C?PLDIXDATA

      ---         MODULE    ---      ---       ?C?PSTXDATA
      0100073DH   PUBLIC    CODE     ---       ?C?PSTXDATA

      ---         MODULE    ---      ---       ?C?PLDCODE
      01000746H   PUBLIC    CODE     ---       ?C?PLDCODE

      ---         MODULE    ---      ---       ?C?PLDPTR
      01000752H   PUBLIC    CODE     ---       ?C?PLDPTR

      ---         MODULE    ---      ---       ?C?PLDOPTR
      01000772H   PUBLIC    CODE     ---       ?C?PLDOPTR

      ---         MODULE    ---      ---       ?C?CCASE
      010007A2H   PUBLIC    CODE     ---       ?C?CCASE
LX51 LINKER/LOCATER V4.66.87.0                                                        05/30/2018  17:25:18  PAGE 236



      ---         MODULE    ---      ---       ?C?ICALL
      010007C8H   PUBLIC    CODE     ---       ?C?ICALL
      010007CCH   PUBLIC    CODE     ---       ?C?ICALL2

      ---         MODULE    ---      ---       ?C_XBP
      0000001DH   PUBLIC    DATA     ---       ?C_XBP

      ---         MODULE    ---      ---       GETS
      0100303EH   PUBLIC    CODE     ---       _GETS

      ---         MODULE    ---      ---       ATOI
      010032ECH   PUBLIC    CODE     ---       _ATOI

      ---         MODULE    ---      ---       ?C?MEMSET
      010007CEH   PUBLIC    CODE     ---       ?C?MEMSET

      ---         MODULE    ---      ---       ?C?COPYP2
      010008C6H   PUBLIC    CODE     ---       ?C?COPYP2

      ---         MODULE    ---      ---       ?C?STRCMPP2
      01000A62H   PUBLIC    CODE     ---       ?C?STRCMPP2

      ---         MODULE    ---      ---       ?C?CSTOPTR
      01000A7FH   PUBLIC    CODE     ---       ?C?CSTOPTR

      ---         MODULE    ---      ---       ?C?ILDIX
      01000AA1H   PUBLIC    CODE     ---       ?C?ILDIX

      ---         MODULE    ---      ---       ?C?PLDIDATA
      01000AB7H   PUBLIC    CODE     ---       ?C?PLDIDATA

      ---         MODULE    ---      ---       ?C?PLDPDATA
      01000AC0H   PUBLIC    CODE     ---       ?C?PLDPDATA

      ---         MODULE    ---      ---       GETCHAR
      00000025H.5 PUBLIC    BIT      ---       ?C?CHARLOADED
      020000EAH   PUBLIC    XDATA    ---       ?_UNGETCHAR?BYTE
      01008466H   PUBLIC    CODE     ---       GETCHAR

      ---         MODULE    ---      ---       ISDIGIT
      010087A3H   PUBLIC    CODE     ---       _ISDIGIT

      ---         MODULE    ---      ---       ISSPACE
      0100847AH   PUBLIC    CODE     ---       _ISSPACE



FUNCTION REGISTER MASKS


FUNCTION . . . . . . . . . . . . . . REG MASK
==============================================

_clock_get_mon_date. . . . . . . . . @0x1e000ca0
_clock_is_leap_year. . . . . . . . . @0x1e000c80
_clock_switch_display_mode . . . . . @0x0e000800
_clock_yymmdd_to_day . . . . . . . . @0x1e000cfd
_delay_10us. . . . . . . . . . . . . @0x080008c0
_delay_ms. . . . . . . . . . . . . . @0x080008e0
_getkey. . . . . . . . . . . . . . . @0x1e000881
_I2C_Write . . . . . . . . . . . . . @0x180008e0
_int_hub_test_bit. . . . . . . . . . @0x180008c1
_isdigit . . . . . . . . . . . . . . @0x18000800
_isspace . . . . . . . . . . . . . . @0x18000800
LX51 LINKER/LOCATER V4.66.87.0                                                        05/30/2018  17:25:18  PAGE 237


_led_clr_blink . . . . . . . . . . . @0x18000801
_led_clr_dp. . . . . . . . . . . . . @0x18000801
_led_set_blink . . . . . . . . . . . @0x18000801
_led_set_code. . . . . . . . . . . . @0x1e0008c3
_led_set_dp. . . . . . . . . . . . . @0x18000801
_mpu_threshold_inc . . . . . . . . . @0x18000880
_putbuf. . . . . . . . . . . . . . . @0x1e0008c1
_putchar . . . . . . . . . . . . . . @0x1e0008e1
_rtc_alarm_set_date. . . . . . . . . @0x1e000cce
_rtc_alarm_set_day . . . . . . . . . @0x1e000800
_rtc_alarm_set_hour. . . . . . . . . @0x1e000cce
_rtc_alarm_set_min . . . . . . . . . @0x1e000cce
_rtc_alarm_set_mode. . . . . . . . . @0x1e000820
_rtc_alarm_set_sec . . . . . . . . . @0x1e000cc0
_rtc_clr_alarm_int_flag. . . . . . . @0x1e000800
_rtc_date_set_day. . . . . . . . . . @0x1e000800
_rtc_date_set_month. . . . . . . . . @0x1e000cc0
_rtc_date_set_year . . . . . . . . . @0x1e000cc0
_rtc_enable_alarm_int. . . . . . . . @0x1e000800
_rtc_set_square_rate . . . . . . . . @0x1e000840
_rtc_test_alarm_int. . . . . . . . . @0x1e000800
_rtc_test_alarm_int_flag . . . . . . @0x1e000800
_rtc_time_set_hour . . . . . . . . . @0x1e000cce
_rtc_time_set_min. . . . . . . . . . @0x1e000cce
_rtc_time_set_sec. . . . . . . . . . @0x1e000cce
_scan_key_proc . . . . . . . . . . . @0x1e0008c1
_serial_set_ctl_bit. . . . . . . . . @0x1e000861
_serial_test_ctl_bit . . . . . . . . @0x1e0008f1
_timer_get_hour. . . . . . . . . . . @0x1e000880
_timer_get_min . . . . . . . . . . . @0x1e000880
_timer_get_sec . . . . . . . . . . . @0x1e000880
_timer_inc_hour. . . . . . . . . . . @0x1e000c00
_timer_inc_min . . . . . . . . . . . @0x1e000c00
_timer_inc_sec . . . . . . . . . . . @0x1e000c00
_timer_set_mode. . . . . . . . . . . @0x0e000800
alarm0_get_day_mask. . . . . . . . . @0x0e000880
alarm0_get_hour. . . . . . . . . . . @0x0e000880
alarm0_get_hour_12 . . . . . . . . . @0x18000000
alarm0_get_min . . . . . . . . . . . @0x0e000880
alarm0_inc_hour. . . . . . . . . . . @0x1e000c00
alarm0_inc_min . . . . . . . . . . . @0x1e000c00
alarm0_set_hour_12 . . . . . . . . . @0x18000000
alarm1_set_enable. . . . . . . . . . @0x18000000
alarm1_test_enable . . . . . . . . . @0x18000000
beeper_get_beep_enable . . . . . . . @0x18000000
beeper_get_music_index . . . . . . . @0x0e000880
beeper_get_music_to. . . . . . . . . @0x0e000880
beeper_inc_music_to. . . . . . . . . @0x1e000cf1
beeper_set_beep_enable . . . . . . . @0x18000000
beeper_stop_music. . . . . . . . . . @0x0e000800
clock_clr_sec. . . . . . . . . . . . @0x08000801
clock_display. . . . . . . . . . . . @0x18000000
clock_enable_interrupt . . . . . . . @0x18000000
clock_enter_shell. . . . . . . . . . @0x80000000
clock_get_date . . . . . . . . . . . @0x08000881
clock_get_day. . . . . . . . . . . . @0x08000881
clock_get_hour . . . . . . . . . . . @0x08000881
clock_get_hour_12. . . . . . . . . . @0x18000000
clock_get_min. . . . . . . . . . . . @0x08000881
clock_get_month. . . . . . . . . . . @0x08000881
clock_get_ms39 . . . . . . . . . . . @0x08000881
clock_get_sec. . . . . . . . . . . . @0x08000881
clock_get_sec_256. . . . . . . . . . @0x08000881
clock_get_year . . . . . . . . . . . @0x08000881
clock_inc_hour . . . . . . . . . . . @0x18000c01
LX51 LINKER/LOCATER V4.66.87.0                                                        05/30/2018  17:25:18  PAGE 238


clock_inc_min. . . . . . . . . . . . @0x18000c01
clock_inc_month. . . . . . . . . . . @0x1e000cfd
clock_inc_year . . . . . . . . . . . @0x1e000cfd
clock_set_hour_12. . . . . . . . . . @0x18000000
com_initialize . . . . . . . . . . . @0x0e000800
com_try_get_key. . . . . . . . . . . @0x1e000881
debug_initialize . . . . . . . . . . @0x80000000
debug_onoff. . . . . . . . . . . . . @0x18000000
I2C_Delay. . . . . . . . . . . . . . @0x18000880
I2C_GetAck . . . . . . . . . . . . . @0x180008c0
I2C_Init . . . . . . . . . . . . . . @0x18000880
I2C_PutAck . . . . . . . . . . . . . @0x18000880
I2C_Read . . . . . . . . . . . . . . @0x180008e0
I2C_Start. . . . . . . . . . . . . . @0x18000880
I2C_Stop . . . . . . . . . . . . . . @0x180008b0
lt_timer_dec_sec . . . . . . . . . . @0x1e000c81
lt_timer_get_date. . . . . . . . . . @0x08000881
lt_timer_get_hour. . . . . . . . . . @0x08000881
lt_timer_get_hour_12 . . . . . . . . @0x18000000
lt_timer_get_min . . . . . . . . . . @0x08000881
lt_timer_get_month . . . . . . . . . @0x08000881
lt_timer_get_sec . . . . . . . . . . @0x08000881
lt_timer_get_year. . . . . . . . . . @0x08000881
lt_timer_inc_date. . . . . . . . . . @0x1e000ca1
lt_timer_inc_hour. . . . . . . . . . @0x18000c01
lt_timer_inc_min . . . . . . . . . . @0x18000c01
lt_timer_inc_month . . . . . . . . . @0x18000c01
lt_timer_inc_sec . . . . . . . . . . @0x18000c01
lt_timer_inc_year. . . . . . . . . . @0x18000c01
lt_timer_set_hour_12 . . . . . . . . @0x18000000
mpu_threshold_get. . . . . . . . . . @0x0e000880
power_5v_get_enable. . . . . . . . . @0x18000000
power_clr_flag . . . . . . . . . . . @0x80000000
power_get_powersave_to . . . . . . . @0x1e000880
power_get_powersave_to_s . . . . . . @0x0e000880
power_get_volume . . . . . . . . . . @0x08000080
power_inc_powersave_to . . . . . . . @0x1e000800
power_reset_powersave_to . . . . . . @0x0e000881
power_set_flag . . . . . . . . . . . @0x80000000
power_test_flag. . . . . . . . . . . @0x18000000
refresh_led. . . . . . . . . . . . . @0x1e0008e9
rom_is_factory_reset . . . . . . . . @0x18000000
rtc_alarm_get_date . . . . . . . . . @0x1e000cc0
rtc_alarm_get_day. . . . . . . . . . @0x1e000880
rtc_alarm_get_hour . . . . . . . . . @0x1e000ce0
rtc_alarm_get_hour_12. . . . . . . . @0x1e000880
rtc_alarm_get_min. . . . . . . . . . @0x1e000cc0
rtc_alarm_get_mod_str. . . . . . . . @0x1e000cfe
rtc_alarm_get_mode . . . . . . . . . @0x0e0008fa
rtc_alarm_get_sec. . . . . . . . . . @0x1e000cc0
rtc_alarm_set_hour_12. . . . . . . . @0x1e000cee
rtc_date_get_date. . . . . . . . . . @0x1e000cc0
rtc_date_get_day . . . . . . . . . . @0x0e000880
rtc_date_get_month . . . . . . . . . @0x1e000cc0
rtc_date_get_year. . . . . . . . . . @0x1e000cc0
rtc_get_square_rate. . . . . . . . . @0x1e000880
rtc_get_square_rate_str. . . . . . . @0x1e000c8e
rtc_is_lt_timer. . . . . . . . . . . @0x18000000
rtc_set_bbsqw. . . . . . . . . . . . @0x0e000800
rtc_set_conv . . . . . . . . . . . . @0x0e000800
rtc_set_en32khz. . . . . . . . . . . @0x0e000800
rtc_set_eosc . . . . . . . . . . . . @0x0e000800
rtc_set_intcn. . . . . . . . . . . . @0x0e000800
rtc_set_lt_timer . . . . . . . . . . @0x18000000
rtc_set_osf. . . . . . . . . . . . . @0x0e000800
LX51 LINKER/LOCATER V4.66.87.0                                                        05/30/2018  17:25:18  PAGE 239


rtc_test_bbsqw . . . . . . . . . . . @0x1e000800
rtc_test_bsy . . . . . . . . . . . . @0x1e000800
rtc_test_conv. . . . . . . . . . . . @0x1e000800
rtc_test_en32khz . . . . . . . . . . @0x1e000800
rtc_test_eosc. . . . . . . . . . . . @0x1e000800
rtc_test_intcn . . . . . . . . . . . @0x1e000800
rtc_test_osf . . . . . . . . . . . . @0x1e000800
rtc_time_get_hour. . . . . . . . . . @0x1e000ce0
rtc_time_get_hour_12 . . . . . . . . @0x1e000880
rtc_time_get_min . . . . . . . . . . @0x1e000cc0
rtc_time_get_sec . . . . . . . . . . @0x1e000cc0
rtc_time_set_hour_12 . . . . . . . . @0x1e000cee
timer_set_led_autorefresh. . . . . . @0x1e000800
timer_stop . . . . . . . . . . . . . @0x80000000



*** WARNING L13: RECURSIVE CALL TO FUNCTION
    CALLED:  ?CO?TASK
    CALLER:  _RUN_STATE_MACHINE/SM

*** WARNING L13: RECURSIVE CALL TO FUNCTION
    CALLED:  ?CO?SHELL
    CALLER:  SHELL

*** WARNING L13: RECURSIVE CALL TO FUNCTION
    CALLED:  ?CO?SHELL
    CALLER:  SHELL_DUMP_CMD/SHELL

*** WARNING L13: RECURSIVE CALL TO FUNCTION
    CALLED:  ?CO?SHELL
    CALLER:  _CMD_HELP/CMD_HELP

*** WARNING L57: UNCALLED FUNCTION, IGNORED FOR OVERLAY PROCESS
    NAME:    _RTC_ALARM_SET_DAY/RTC

*** WARNING L57: UNCALLED FUNCTION, IGNORED FOR OVERLAY PROCESS
    NAME:    RTC_SET_EOSC/RTC

*** WARNING L57: UNCALLED FUNCTION, IGNORED FOR OVERLAY PROCESS
    NAME:    RTC_SET_BBSQW/RTC

*** WARNING L57: UNCALLED FUNCTION, IGNORED FOR OVERLAY PROCESS
    NAME:    RTC_SET_CONV/RTC

*** WARNING L57: UNCALLED FUNCTION, IGNORED FOR OVERLAY PROCESS
    NAME:    _RTC_SET_SQUARE_RATE/RTC

*** WARNING L57: UNCALLED FUNCTION, IGNORED FOR OVERLAY PROCESS
    NAME:    RTC_SET_OSF/RTC

*** WARNING L16: UNCALLED SEGMENT, IGNORED FOR OVERLAY PROCESS
    NAME:    ALARM_SAVE_ROM/ALARM

*** WARNING L57: UNCALLED FUNCTION, IGNORED FOR OVERLAY PROCESS
    NAME:    BEEPER_GET_MUSIC_TO/BEEPER

*** WARNING L57: UNCALLED FUNCTION, IGNORED FOR OVERLAY PROCESS
    NAME:    BEEPER_INC_MUSIC_TO/BEEPER

*** WARNING L57: UNCALLED FUNCTION, IGNORED FOR OVERLAY PROCESS
    NAME:    CLOCK_GET_MS39/CLOCK

*** WARNING L57: UNCALLED FUNCTION, IGNORED FOR OVERLAY PROCESS
    NAME:    THERMO_HI_THRESHOLD_REACH_TOP/THERMO
LX51 LINKER/LOCATER V4.66.87.0                                                        05/30/2018  17:25:18  PAGE 240



*** WARNING L57: UNCALLED FUNCTION, IGNORED FOR OVERLAY PROCESS
    NAME:    THERMO_LO_THRESHOLD_REACH_BOTTOM/THERMO

*** WARNING L57: UNCALLED FUNCTION, IGNORED FOR OVERLAY PROCESS
    NAME:    MPU_THRESHOLD_RESET/MPU

Program Size: data=81.6 xdata=235 const=18265 code=35914
LX51 RUN COMPLETE.  17 WARNING(S),  0 ERROR(S)
